ARM GAS  C:\Users\8bit\AppData\Local\Temp\ccClUhzi.s 			page 1


   1              		.cpu cortex-m4
   2              		.arch armv7e-m
   3              		.fpu fpv4-sp-d16
   4              		.eabi_attribute 27, 1
   5              		.eabi_attribute 28, 1
   6              		.eabi_attribute 20, 1
   7              		.eabi_attribute 21, 1
   8              		.eabi_attribute 23, 3
   9              		.eabi_attribute 24, 1
  10              		.eabi_attribute 25, 1
  11              		.eabi_attribute 26, 1
  12              		.eabi_attribute 30, 1
  13              		.eabi_attribute 34, 1
  14              		.eabi_attribute 18, 4
  15              		.file	"Srv_DataHub.c"
  16              		.text
  17              	.Ltext0:
  18              		.cfi_sections	.debug_frame
  19              		.section	.text.SrvDataHub_VCPAttach_dataPipe_Finish_Callback,"ax",%progbits
  20              		.align	1
  21              		.syntax unified
  22              		.thumb
  23              		.thumb_func
  25              	SrvDataHub_VCPAttach_dataPipe_Finish_Callback:
  26              	.LVL0:
  27              	.LFB146:
  28              		.file 1 "Service/Srv_DataHub.c"
   1:Service/Srv_DataHub.c **** #include "Srv_DataHub.h"
   2:Service/Srv_DataHub.c **** 
   3:Service/Srv_DataHub.c **** #define To_Pipe_TransFinish_Callback(x) ((Pipe_TransFinish_Callback)x)
   4:Service/Srv_DataHub.c **** 
   5:Service/Srv_DataHub.c **** /* internal variable */
   6:Service/Srv_DataHub.c **** SrvDataHub_Monitor_TypeDef SrvDataHub_Monitor = {
   7:Service/Srv_DataHub.c ****     .init_state = false,
   8:Service/Srv_DataHub.c **** };
   9:Service/Srv_DataHub.c **** 
  10:Service/Srv_DataHub.c **** /* Pipe Object */
  11:Service/Srv_DataHub.c **** DataPipe_CreateDataObj(SrvIMU_UnionData_TypeDef, PtlIMU_Data);
  12:Service/Srv_DataHub.c **** DataPipe_CreateDataObj(SrvActuatorPipeData_TypeDef, Hub_Actuator);
  13:Service/Srv_DataHub.c **** DataPipe_CreateDataObj(ControlData_TypeDef, Hub_Telemetry_Rc);
  14:Service/Srv_DataHub.c **** DataPipe_CreateDataObj(SrvSensorMonitor_GenReg_TypeDef, Sensor_Enable);
  15:Service/Srv_DataHub.c **** DataPipe_CreateDataObj(SrvSensorMonitor_GenReg_TypeDef, Sensor_Init);
  16:Service/Srv_DataHub.c **** DataPipe_CreateDataObj(IMUAtt_TypeDef, Hub_Attitude);
  17:Service/Srv_DataHub.c **** DataPipe_CreateDataObj(SrvBaro_UnionData_TypeDef, Hub_Baro_Data);
  18:Service/Srv_DataHub.c **** DataPipe_CreateDataObj(PosData_TypeDef, Hub_Pos);
  19:Service/Srv_DataHub.c **** DataPipe_CreateDataObj(AltData_TypeDef, Hub_Alt);
  20:Service/Srv_DataHub.c **** DataPipe_CreateDataObj(SrvIMU_Range_TypeDef, Hub_PriIMU_Range);
  21:Service/Srv_DataHub.c **** DataPipe_CreateDataObj(SrvIMU_Range_TypeDef, Hub_SecIMU_Range);
  22:Service/Srv_DataHub.c **** DataPipe_CreateDataObj(ExpControlData_TypeDef, Hub_Cnv_CtlData);
  23:Service/Srv_DataHub.c **** DataPipe_CreateDataObj(bool, Hub_VCP_Attach_State);
  24:Service/Srv_DataHub.c **** 
  25:Service/Srv_DataHub.c **** /* internal function */
  26:Service/Srv_DataHub.c **** static void SrvDataHub_PipeRcTelemtryDataFinish_Callback(DataPipeObj_TypeDef *obj);
  27:Service/Srv_DataHub.c **** static void SrvDataHub_SensorState_DataPipe_Finish_Callback(DataPipeObj_TypeDef *obj);
  28:Service/Srv_DataHub.c **** static void SrvDataHub_IMU_DataPipe_Finish_Callback(DataPipeObj_TypeDef *obj);
  29:Service/Srv_DataHub.c **** static void SrvDataHub_Actuator_DataPipe_Finish_Callback(DataPipeObj_TypeDef *obj);
  30:Service/Srv_DataHub.c **** static void SrvDataHub_Attitude_DataPipe_Finish_Callback(DataPipeObj_TypeDef *obj);
ARM GAS  C:\Users\8bit\AppData\Local\Temp\ccClUhzi.s 			page 2


  31:Service/Srv_DataHub.c **** static void SrvDataHub_Baro_DataPipe_Finish_Callback(DataPipeObj_TypeDef *obj);
  32:Service/Srv_DataHub.c **** static void SrvDataHub_Pos_DataPipe_Finish_Callback(DataPipeObj_TypeDef *obj);
  33:Service/Srv_DataHub.c **** static void SrvDatHub_Alt_DataPipe_Finish_Callback(DataPipeObj_TypeDef *obj);
  34:Service/Srv_DataHub.c **** static void SrvDataHub_IMU_Range_DataPipe_Finish_Callback(DataPipeObj_TypeDef *obj);
  35:Service/Srv_DataHub.c **** static void SrvDataHub_VCPAttach_dataPipe_Finish_Callback(DataPipeObj_TypeDef *obj);
  36:Service/Srv_DataHub.c **** static void SrvDataHub_PipeConvertControlDataFinish_Callback(DataPipeObj_TypeDef *obj);
  37:Service/Srv_DataHub.c **** 
  38:Service/Srv_DataHub.c **** /* external function */
  39:Service/Srv_DataHub.c **** static void SrvDataHub_Init(void);
  40:Service/Srv_DataHub.c **** static bool SrvDataHub_Get_Raw_IMU(uint32_t *time_stamp, float *acc_scale, float *gyr_scale, float 
  41:Service/Srv_DataHub.c **** static bool SrvDataHub_Get_Scaled_IMU(uint32_t *time_stamp, float *acc_scale, float *gyr_scale, flo
  42:Service/Srv_DataHub.c **** static bool SrvDataHub_Get_Raw_Mag(uint32_t *time_stamp, float *scale, float *mag_x, float *mag_y, 
  43:Service/Srv_DataHub.c **** static bool SrvDataHub_Get_Scaled_Mag(uint32_t *time_stamp, float *scale, float *mag_x, float *mag_
  44:Service/Srv_DataHub.c **** static bool SrvDataHub_Get_Arm(bool *arm);
  45:Service/Srv_DataHub.c **** static bool SrvDataHub_Get_Failsafe(bool *failsafe);
  46:Service/Srv_DataHub.c **** static bool SrvDataHub_Get_Telemetry_ControlData(ControlData_TypeDef *data);
  47:Service/Srv_DataHub.c **** static bool SrvDataHub_Get_MotoChannel(uint32_t *time_stamp, uint8_t *cnt, uint16_t *moto_ch, uint8
  48:Service/Srv_DataHub.c **** static bool SrvDataHub_Get_ServoChannel(uint32_t *time_stamp, uint8_t *cnt, uint16_t *servo_ch, uin
  49:Service/Srv_DataHub.c **** static bool SrvDataHub_Get_IMU_InitState(bool *state);
  50:Service/Srv_DataHub.c **** static bool SrvDataHub_Get_Mag_InitState(bool *state);
  51:Service/Srv_DataHub.c **** static bool SrvDataHub_Get_Bar_InitState(bool *state);
  52:Service/Srv_DataHub.c **** static bool SrvDataHub_Get_Scaled_Baro(uint32_t *time_stamp, float *baro_pressure, float *baro_alt,
  53:Service/Srv_DataHub.c **** static bool SrvDataHub_Get_Attitude(uint32_t *time_stamp, float *pitch, float *roll, float *yaw, fl
  54:Service/Srv_DataHub.c **** static bool SrvDataHub_Get_VCPAttach_State(bool *state);
  55:Service/Srv_DataHub.c **** static bool SrvDataHub_Get_CLI_State(bool *state);
  56:Service/Srv_DataHub.c **** static bool SrvDataHub_Get_Upgrade_State(bool *state);
  57:Service/Srv_DataHub.c **** static bool SrvDataHub_Get_PriIMU_Range(uint8_t *acc_range, uint16_t *gyr_range);
  58:Service/Srv_DataHub.c **** static bool SrvDataHub_Get_SecIMU_Range(uint8_t *acc_range, uint16_t *gyr_range);
  59:Service/Srv_DataHub.c **** static bool SrvDataHub_Get_RelativeAlt(uint32_t *time_stamp, float *alt);
  60:Service/Srv_DataHub.c **** static bool SrvDataHub_Get_Convert_ControlData(uint32_t *time_stamp, bool *arm, bool *failsafe, uin
  61:Service/Srv_DataHub.c **** 
  62:Service/Srv_DataHub.c **** static bool SrvDataHub_Set_CLI_State(bool state);
  63:Service/Srv_DataHub.c **** static bool SrvDataHub_Set_Upgrade_State(bool state);
  64:Service/Srv_DataHub.c **** 
  65:Service/Srv_DataHub.c **** /* external variable */
  66:Service/Srv_DataHub.c **** SrvDataHub_TypeDef SrvDataHub = {
  67:Service/Srv_DataHub.c ****     .init = SrvDataHub_Init,
  68:Service/Srv_DataHub.c ****     .get_raw_imu = SrvDataHub_Get_Raw_IMU,
  69:Service/Srv_DataHub.c ****     .get_scaled_imu = SrvDataHub_Get_Scaled_IMU,
  70:Service/Srv_DataHub.c ****     .get_pri_imu_range = SrvDataHub_Get_PriIMU_Range,
  71:Service/Srv_DataHub.c ****     .get_sec_imu_range = SrvDataHub_Get_SecIMU_Range,
  72:Service/Srv_DataHub.c ****     .get_attitude = SrvDataHub_Get_Attitude,
  73:Service/Srv_DataHub.c ****     .get_raw_mag = SrvDataHub_Get_Raw_Mag,
  74:Service/Srv_DataHub.c ****     .get_scaled_mag = SrvDataHub_Get_Scaled_Mag,
  75:Service/Srv_DataHub.c ****     .get_baro_altitude = SrvDataHub_Get_Scaled_Baro,
  76:Service/Srv_DataHub.c ****     .get_arm_state = SrvDataHub_Get_Arm,
  77:Service/Srv_DataHub.c ****     .get_failsafe = SrvDataHub_Get_Failsafe,
  78:Service/Srv_DataHub.c ****     .get_rc_control_data = SrvDataHub_Get_Telemetry_ControlData,
  79:Service/Srv_DataHub.c ****     .get_moto = SrvDataHub_Get_MotoChannel,
  80:Service/Srv_DataHub.c ****     .get_servo = SrvDataHub_Get_ServoChannel,
  81:Service/Srv_DataHub.c ****     .get_imu_init_state = SrvDataHub_Get_IMU_InitState,
  82:Service/Srv_DataHub.c ****     .get_mag_init_state = SrvDataHub_Get_Mag_InitState,
  83:Service/Srv_DataHub.c ****     .get_baro_init_state = SrvDataHub_Get_Bar_InitState,
  84:Service/Srv_DataHub.c ****     .get_vcp_attach_state = SrvDataHub_Get_VCPAttach_State,
  85:Service/Srv_DataHub.c ****     .get_cli_state = SrvDataHub_Get_CLI_State,
  86:Service/Srv_DataHub.c ****     .get_upgrade_state = SrvDataHub_Get_Upgrade_State,
  87:Service/Srv_DataHub.c ****     .get_relative_alt = SrvDataHub_Get_RelativeAlt,
ARM GAS  C:\Users\8bit\AppData\Local\Temp\ccClUhzi.s 			page 3


  88:Service/Srv_DataHub.c ****     .get_cnv_control_data = SrvDataHub_Get_Convert_ControlData,
  89:Service/Srv_DataHub.c **** 
  90:Service/Srv_DataHub.c ****     .set_cli_state = SrvDataHub_Set_CLI_State,
  91:Service/Srv_DataHub.c ****     .set_upgrade_state = SrvDataHub_Set_Upgrade_State,
  92:Service/Srv_DataHub.c **** };
  93:Service/Srv_DataHub.c **** 
  94:Service/Srv_DataHub.c **** static void SrvDataHub_Init(void)
  95:Service/Srv_DataHub.c **** {
  96:Service/Srv_DataHub.c ****     if (SrvDataHub_Monitor.init_state)
  97:Service/Srv_DataHub.c ****         return;
  98:Service/Srv_DataHub.c **** 
  99:Service/Srv_DataHub.c ****     memset(&SrvDataHub_Monitor, 0, sizeof(SrvDataHub_Monitor));
 100:Service/Srv_DataHub.c **** 
 101:Service/Srv_DataHub.c ****     /* init pipe object */
 102:Service/Srv_DataHub.c ****     memset(DataPipe_DataObjAddr(PtlIMU_Data), 0, DataPipe_DataSize(PtlIMU_Data));
 103:Service/Srv_DataHub.c ****     IMU_hub_DataPipe.data_addr = (uint32_t)DataPipe_DataObjAddr(PtlIMU_Data);
 104:Service/Srv_DataHub.c ****     IMU_hub_DataPipe.data_size = DataPipe_DataSize(PtlIMU_Data);
 105:Service/Srv_DataHub.c ****     IMU_hub_DataPipe.trans_finish_cb = To_Pipe_TransFinish_Callback(SrvDataHub_IMU_DataPipe_Finish_
 106:Service/Srv_DataHub.c ****     DataPipe_Enable(&IMU_hub_DataPipe);
 107:Service/Srv_DataHub.c **** 
 108:Service/Srv_DataHub.c ****     memset(DataPipe_DataObjAddr(Hub_PriIMU_Range), 0, DataPipe_DataSize(Hub_PriIMU_Range));
 109:Service/Srv_DataHub.c ****     IMU_PriRange_hub_DataPipe.data_addr = (uint32_t)DataPipe_DataObjAddr(Hub_PriIMU_Range);
 110:Service/Srv_DataHub.c ****     IMU_PriRange_hub_DataPipe.data_size = DataPipe_DataSize(Hub_PriIMU_Range);
 111:Service/Srv_DataHub.c ****     IMU_PriRange_hub_DataPipe.trans_finish_cb = To_Pipe_TransFinish_Callback(SrvDataHub_IMU_Range_D
 112:Service/Srv_DataHub.c ****     DataPipe_Enable(&IMU_PriRange_hub_DataPipe);
 113:Service/Srv_DataHub.c **** 
 114:Service/Srv_DataHub.c **** #if (IMU_CNT == 2)
 115:Service/Srv_DataHub.c ****     memset(DataPipe_DataObjAddr(Hub_SecIMU_Range), 0, DataPipe_DataSize(Hub_SecIMU_Range));
 116:Service/Srv_DataHub.c ****     IMU_SecRange_hub_DataPipe.data_addr = (uint32_t)DataPipe_DataObjAddr(Hub_SecIMU_Range);
 117:Service/Srv_DataHub.c ****     IMU_SecRange_hub_DataPipe.data_size = DataPipe_DataSize(Hub_SecIMU_Range);
 118:Service/Srv_DataHub.c ****     IMU_SecRange_hub_DataPipe.trans_finish_cb = To_Pipe_TransFinish_Callback(SrvDataHub_IMU_Range_D
 119:Service/Srv_DataHub.c ****     DataPipe_Enable(&IMU_SecRange_hub_DataPipe);
 120:Service/Srv_DataHub.c **** #endif
 121:Service/Srv_DataHub.c **** 
 122:Service/Srv_DataHub.c ****     /* init pipe object */
 123:Service/Srv_DataHub.c ****     memset(DataPipe_DataObjAddr(Hub_Telemetry_Rc), 0, DataPipe_DataSize(Hub_Telemetry_Rc));
 124:Service/Srv_DataHub.c ****     Receiver_hub_DataPipe.data_addr = (uint32_t)DataPipe_DataObjAddr(Hub_Telemetry_Rc);
 125:Service/Srv_DataHub.c ****     Receiver_hub_DataPipe.data_size = DataPipe_DataSize(Hub_Telemetry_Rc);
 126:Service/Srv_DataHub.c ****     Receiver_hub_DataPipe.trans_finish_cb = To_Pipe_TransFinish_Callback(SrvDataHub_PipeRcTelemtryD
 127:Service/Srv_DataHub.c ****     DataPipe_Enable(&Receiver_hub_DataPipe);
 128:Service/Srv_DataHub.c **** 
 129:Service/Srv_DataHub.c ****     memset(DataPipe_DataObjAddr(Sensor_Enable), 0, DataPipe_DataSize(Sensor_Enable));
 130:Service/Srv_DataHub.c ****     SensorEnableState_hub_DataPipe.data_addr = (uint32_t)DataPipe_DataObjAddr(Sensor_Enable);
 131:Service/Srv_DataHub.c ****     SensorEnableState_hub_DataPipe.data_size = DataPipe_DataSize(Sensor_Enable);
 132:Service/Srv_DataHub.c ****     SensorEnableState_hub_DataPipe.trans_finish_cb = To_Pipe_TransFinish_Callback(SrvDataHub_Sensor
 133:Service/Srv_DataHub.c ****     DataPipe_Enable(&SensorEnableState_hub_DataPipe);
 134:Service/Srv_DataHub.c **** 
 135:Service/Srv_DataHub.c ****     memset(DataPipe_DataObjAddr(Sensor_Init), 0, DataPipe_DataSize(Sensor_Init));
 136:Service/Srv_DataHub.c ****     SensorInitState_hub_DataPipe.data_addr = (uint32_t)DataPipe_DataObjAddr(Sensor_Init);
 137:Service/Srv_DataHub.c ****     SensorInitState_hub_DataPipe.data_size = DataPipe_DataSize(Sensor_Init);
 138:Service/Srv_DataHub.c ****     SensorInitState_hub_DataPipe.trans_finish_cb = To_Pipe_TransFinish_Callback(SrvDataHub_SensorSt
 139:Service/Srv_DataHub.c ****     DataPipe_Enable(&SensorInitState_hub_DataPipe);
 140:Service/Srv_DataHub.c **** 
 141:Service/Srv_DataHub.c ****     memset(DataPipe_DataObjAddr(Hub_Actuator), 0, DataPipe_DataSize(Hub_Actuator));
 142:Service/Srv_DataHub.c ****     Actuator_hub_DataPipe.data_addr = (uint32_t)DataPipe_DataObjAddr(Hub_Actuator);
 143:Service/Srv_DataHub.c ****     Actuator_hub_DataPipe.data_size = DataPipe_DataSize(Hub_Actuator);
 144:Service/Srv_DataHub.c ****     Actuator_hub_DataPipe.trans_finish_cb = To_Pipe_TransFinish_Callback(SrvDataHub_Actuator_DataPi
ARM GAS  C:\Users\8bit\AppData\Local\Temp\ccClUhzi.s 			page 4


 145:Service/Srv_DataHub.c ****     DataPipe_Enable(&Actuator_hub_DataPipe);
 146:Service/Srv_DataHub.c ****     
 147:Service/Srv_DataHub.c ****     memset(DataPipe_DataObjAddr(Hub_Attitude), 0, DataPipe_DataSize(Hub_Attitude));
 148:Service/Srv_DataHub.c ****     Attitude_hub_DataPipe.data_addr = (uint32_t)DataPipe_DataObjAddr(Hub_Attitude);
 149:Service/Srv_DataHub.c ****     Attitude_hub_DataPipe.data_size = DataPipe_DataSize(Hub_Attitude);
 150:Service/Srv_DataHub.c ****     Attitude_hub_DataPipe.trans_finish_cb = To_Pipe_TransFinish_Callback(SrvDataHub_Attitude_DataPi
 151:Service/Srv_DataHub.c ****     DataPipe_Enable(&Attitude_hub_DataPipe);
 152:Service/Srv_DataHub.c **** 
 153:Service/Srv_DataHub.c ****     memset(DataPipe_DataObjAddr(Hub_Baro_Data), 0, DataPipe_DataSize(Hub_Baro_Data));
 154:Service/Srv_DataHub.c ****     Baro_hub_DataPipe.data_addr = (uint32_t)DataPipe_DataObjAddr(Hub_Baro_Data);
 155:Service/Srv_DataHub.c ****     Baro_hub_DataPipe.data_size = DataPipe_DataSize(Hub_Baro_Data);
 156:Service/Srv_DataHub.c ****     Baro_hub_DataPipe.trans_finish_cb = To_Pipe_TransFinish_Callback(SrvDataHub_Baro_DataPipe_Finis
 157:Service/Srv_DataHub.c ****     DataPipe_Enable(&Baro_hub_DataPipe);
 158:Service/Srv_DataHub.c **** 
 159:Service/Srv_DataHub.c ****     memset(DataPipe_DataObjAddr(Hub_Alt), 0, DataPipe_DataSize(Hub_Alt));
 160:Service/Srv_DataHub.c ****     Altitude_hub_DataPipe.data_addr = (uint32_t)DataPipe_DataObjAddr(Hub_Alt);
 161:Service/Srv_DataHub.c ****     Altitude_hub_DataPipe.data_size = DataPipe_DataSize(Hub_Alt);
 162:Service/Srv_DataHub.c ****     Altitude_hub_DataPipe.trans_finish_cb = To_Pipe_TransFinish_Callback(SrvDatHub_Alt_DataPipe_Fin
 163:Service/Srv_DataHub.c ****     DataPipe_Enable(&Altitude_hub_DataPipe);
 164:Service/Srv_DataHub.c **** 
 165:Service/Srv_DataHub.c ****     memset(DataPipe_DataObjAddr(Hub_VCP_Attach_State), 0, DataPipe_DataSize(Hub_VCP_Attach_State));
 166:Service/Srv_DataHub.c ****     VCP_Connect_hub_DataPipe.data_addr = (uint32_t)DataPipe_DataObjAddr(Hub_VCP_Attach_State);
 167:Service/Srv_DataHub.c ****     VCP_Connect_hub_DataPipe.data_size = DataPipe_DataSize(Hub_VCP_Attach_State);
 168:Service/Srv_DataHub.c ****     VCP_Connect_hub_DataPipe.trans_finish_cb = To_Pipe_TransFinish_Callback(SrvDataHub_VCPAttach_da
 169:Service/Srv_DataHub.c ****     DataPipe_Enable(&VCP_Connect_hub_DataPipe);
 170:Service/Srv_DataHub.c ****     
 171:Service/Srv_DataHub.c ****     memset(DataPipe_DataObjAddr(Hub_Cnv_CtlData), 0, DataPipe_DataSize(Hub_Cnv_CtlData));
 172:Service/Srv_DataHub.c ****     CtlData_hub_DataPipe.data_addr = (uint32_t)DataPipe_DataObjAddr(Hub_Cnv_CtlData);
 173:Service/Srv_DataHub.c ****     CtlData_hub_DataPipe.data_size = DataPipe_DataSize(Hub_Cnv_CtlData);
 174:Service/Srv_DataHub.c ****     CtlData_hub_DataPipe.trans_finish_cb = To_Pipe_TransFinish_Callback(SrvDataHub_PipeConvertContr
 175:Service/Srv_DataHub.c ****     DataPipe_Enable(&CtlData_hub_DataPipe);
 176:Service/Srv_DataHub.c **** 
 177:Service/Srv_DataHub.c ****     memset(&SrvDataHub_Monitor, 0, sizeof(SrvDataHub_Monitor));
 178:Service/Srv_DataHub.c ****     SrvDataHub_Monitor.init_state = true;
 179:Service/Srv_DataHub.c ****     SrvDataHub_Monitor.data.failsafe = true;
 180:Service/Srv_DataHub.c ****     SrvDataHub_Monitor.data.arm = DRONE_ARM;
 181:Service/Srv_DataHub.c **** }
 182:Service/Srv_DataHub.c **** 
 183:Service/Srv_DataHub.c **** static void SrvDataHub_VCPAttach_dataPipe_Finish_Callback(DataPipeObj_TypeDef *obj)
 184:Service/Srv_DataHub.c **** {
  29              		.loc 1 184 1 view -0
  30              		.cfi_startproc
  31              		@ args = 0, pretend = 0, frame = 0
  32              		@ frame_needed = 0, uses_anonymous_args = 0
  33              		@ link register save eliminated.
 185:Service/Srv_DataHub.c ****     if (obj == &VCP_Connect_hub_DataPipe)
  34              		.loc 1 185 5 view .LVU1
  35              		.loc 1 185 8 is_stmt 0 view .LVU2
  36 0000 0D4B     		ldr	r3, .L5
  37 0002 8342     		cmp	r3, r0
  38 0004 00D0     		beq	.L4
  39              	.L1:
 186:Service/Srv_DataHub.c ****     {
 187:Service/Srv_DataHub.c ****         SrvDataHub_Monitor.update_reg.bit.USB_VCP_attach = true;
 188:Service/Srv_DataHub.c **** 
 189:Service/Srv_DataHub.c ****         if (SrvDataHub_Monitor.inuse_reg.bit.USB_VCP_attach)
 190:Service/Srv_DataHub.c ****             SrvDataHub_Monitor.inuse_reg.bit.USB_VCP_attach = false;
ARM GAS  C:\Users\8bit\AppData\Local\Temp\ccClUhzi.s 			page 5


 191:Service/Srv_DataHub.c **** 
 192:Service/Srv_DataHub.c ****         SrvDataHub_Monitor.data.VCP_Attach = DataPipe_DataObj(Hub_VCP_Attach_State);
 193:Service/Srv_DataHub.c **** 
 194:Service/Srv_DataHub.c ****         SrvDataHub_Monitor.update_reg.bit.USB_VCP_attach = false;
 195:Service/Srv_DataHub.c ****     }
 196:Service/Srv_DataHub.c **** }
  40              		.loc 1 196 1 view .LVU3
  41 0006 7047     		bx	lr
  42              	.L4:
 187:Service/Srv_DataHub.c **** 
  43              		.loc 1 187 9 is_stmt 1 view .LVU4
 187:Service/Srv_DataHub.c **** 
  44              		.loc 1 187 58 is_stmt 0 view .LVU5
  45 0008 0C4B     		ldr	r3, .L5+4
  46 000a DA7C     		ldrb	r2, [r3, #19]	@ zero_extendqisi2
  47 000c 42F00202 		orr	r2, r2, #2
  48 0010 DA74     		strb	r2, [r3, #19]
 189:Service/Srv_DataHub.c ****             SrvDataHub_Monitor.inuse_reg.bit.USB_VCP_attach = false;
  49              		.loc 1 189 9 is_stmt 1 view .LVU6
 189:Service/Srv_DataHub.c ****             SrvDataHub_Monitor.inuse_reg.bit.USB_VCP_attach = false;
  50              		.loc 1 189 13 is_stmt 0 view .LVU7
  51 0012 DB7A     		ldrb	r3, [r3, #11]	@ zero_extendqisi2
 189:Service/Srv_DataHub.c ****             SrvDataHub_Monitor.inuse_reg.bit.USB_VCP_attach = false;
  52              		.loc 1 189 12 view .LVU8
  53 0014 13F0020F 		tst	r3, #2
  54 0018 04D0     		beq	.L3
 190:Service/Srv_DataHub.c **** 
  55              		.loc 1 190 13 is_stmt 1 view .LVU9
 190:Service/Srv_DataHub.c **** 
  56              		.loc 1 190 61 is_stmt 0 view .LVU10
  57 001a 084B     		ldr	r3, .L5+4
  58 001c DA7A     		ldrb	r2, [r3, #11]	@ zero_extendqisi2
  59 001e 6FF34102 		bfc	r2, #1, #1
  60 0022 DA72     		strb	r2, [r3, #11]
  61              	.L3:
 192:Service/Srv_DataHub.c **** 
  62              		.loc 1 192 9 is_stmt 1 view .LVU11
 192:Service/Srv_DataHub.c **** 
  63              		.loc 1 192 44 is_stmt 0 view .LVU12
  64 0024 054B     		ldr	r3, .L5+4
  65 0026 064A     		ldr	r2, .L5+8
  66 0028 1278     		ldrb	r2, [r2]	@ zero_extendqisi2
  67 002a 83F8DE21 		strb	r2, [r3, #478]
 194:Service/Srv_DataHub.c ****     }
  68              		.loc 1 194 9 is_stmt 1 view .LVU13
 194:Service/Srv_DataHub.c ****     }
  69              		.loc 1 194 58 is_stmt 0 view .LVU14
  70 002e DA7C     		ldrb	r2, [r3, #19]	@ zero_extendqisi2
  71 0030 6FF34102 		bfc	r2, #1, #1
  72 0034 DA74     		strb	r2, [r3, #19]
  73              		.loc 1 196 1 view .LVU15
  74 0036 E6E7     		b	.L1
  75              	.L6:
  76              		.align	2
  77              	.L5:
  78 0038 00000000 		.word	VCP_Connect_hub_DataPipe
  79 003c 00000000 		.word	.LANCHOR0
ARM GAS  C:\Users\8bit\AppData\Local\Temp\ccClUhzi.s 			page 6


  80 0040 00000000 		.word	.LANCHOR1
  81              		.cfi_endproc
  82              	.LFE146:
  84              		.section	.text.SrvDatHub_Alt_DataPipe_Finish_Callback,"ax",%progbits
  85              		.align	1
  86              		.syntax unified
  87              		.thumb
  88              		.thumb_func
  90              	SrvDatHub_Alt_DataPipe_Finish_Callback:
  91              	.LVL1:
  92              	.LFB147:
 197:Service/Srv_DataHub.c **** 
 198:Service/Srv_DataHub.c **** static void SrvDatHub_Alt_DataPipe_Finish_Callback(DataPipeObj_TypeDef *obj)
 199:Service/Srv_DataHub.c **** {
  93              		.loc 1 199 1 is_stmt 1 view -0
  94              		.cfi_startproc
  95              		@ args = 0, pretend = 0, frame = 0
  96              		@ frame_needed = 0, uses_anonymous_args = 0
  97              		@ link register save eliminated.
 200:Service/Srv_DataHub.c ****     if (obj == &Altitude_hub_DataPipe)
  98              		.loc 1 200 5 view .LVU17
  99              		.loc 1 200 8 is_stmt 0 view .LVU18
 100 0000 0F4B     		ldr	r3, .L11
 101 0002 8342     		cmp	r3, r0
 102 0004 00D0     		beq	.L10
 103              	.L7:
 201:Service/Srv_DataHub.c ****     {
 202:Service/Srv_DataHub.c ****         SrvDataHub_Monitor.update_reg.bit.relative_alt = true;
 203:Service/Srv_DataHub.c **** 
 204:Service/Srv_DataHub.c ****         if (SrvDataHub_Monitor.inuse_reg.bit.relative_alt)
 205:Service/Srv_DataHub.c ****             SrvDataHub_Monitor.inuse_reg.bit.relative_alt = false;
 206:Service/Srv_DataHub.c ****             
 207:Service/Srv_DataHub.c ****         SrvDataHub_Monitor.data.relative_alt_time = DataPipe_DataObj(Hub_Alt).time;
 208:Service/Srv_DataHub.c ****         SrvDataHub_Monitor.data.relative_alt = DataPipe_DataObj(Hub_Alt).alt;
 209:Service/Srv_DataHub.c **** 
 210:Service/Srv_DataHub.c ****         SrvDataHub_Monitor.update_reg.bit.relative_alt = false;
 211:Service/Srv_DataHub.c ****     }
 212:Service/Srv_DataHub.c **** }
 104              		.loc 1 212 1 view .LVU19
 105 0006 7047     		bx	lr
 106              	.L10:
 202:Service/Srv_DataHub.c **** 
 107              		.loc 1 202 9 is_stmt 1 view .LVU20
 202:Service/Srv_DataHub.c **** 
 108              		.loc 1 202 56 is_stmt 0 view .LVU21
 109 0008 0E4B     		ldr	r3, .L11+4
 110 000a 9A7C     		ldrb	r2, [r3, #18]	@ zero_extendqisi2
 111 000c 42F02002 		orr	r2, r2, #32
 112 0010 9A74     		strb	r2, [r3, #18]
 204:Service/Srv_DataHub.c ****             SrvDataHub_Monitor.inuse_reg.bit.relative_alt = false;
 113              		.loc 1 204 9 is_stmt 1 view .LVU22
 204:Service/Srv_DataHub.c ****             SrvDataHub_Monitor.inuse_reg.bit.relative_alt = false;
 114              		.loc 1 204 13 is_stmt 0 view .LVU23
 115 0012 9B7A     		ldrb	r3, [r3, #10]	@ zero_extendqisi2
 204:Service/Srv_DataHub.c ****             SrvDataHub_Monitor.inuse_reg.bit.relative_alt = false;
 116              		.loc 1 204 12 view .LVU24
 117 0014 13F0200F 		tst	r3, #32
ARM GAS  C:\Users\8bit\AppData\Local\Temp\ccClUhzi.s 			page 7


 118 0018 04D0     		beq	.L9
 205:Service/Srv_DataHub.c ****             
 119              		.loc 1 205 13 is_stmt 1 view .LVU25
 205:Service/Srv_DataHub.c ****             
 120              		.loc 1 205 59 is_stmt 0 view .LVU26
 121 001a 0A4B     		ldr	r3, .L11+4
 122 001c 9A7A     		ldrb	r2, [r3, #10]	@ zero_extendqisi2
 123 001e 6FF34512 		bfc	r2, #5, #1
 124 0022 9A72     		strb	r2, [r3, #10]
 125              	.L9:
 207:Service/Srv_DataHub.c ****         SrvDataHub_Monitor.data.relative_alt = DataPipe_DataObj(Hub_Alt).alt;
 126              		.loc 1 207 9 is_stmt 1 view .LVU27
 207:Service/Srv_DataHub.c ****         SrvDataHub_Monitor.data.relative_alt = DataPipe_DataObj(Hub_Alt).alt;
 127              		.loc 1 207 78 is_stmt 0 view .LVU28
 128 0024 084A     		ldr	r2, .L11+8
 129 0026 5168     		ldr	r1, [r2, #4]
 207:Service/Srv_DataHub.c ****         SrvDataHub_Monitor.data.relative_alt = DataPipe_DataObj(Hub_Alt).alt;
 130              		.loc 1 207 51 view .LVU29
 131 0028 064B     		ldr	r3, .L11+4
 132 002a C3F8D410 		str	r1, [r3, #212]
 208:Service/Srv_DataHub.c **** 
 133              		.loc 1 208 9 is_stmt 1 view .LVU30
 208:Service/Srv_DataHub.c **** 
 134              		.loc 1 208 73 is_stmt 0 view .LVU31
 135 002e 9268     		ldr	r2, [r2, #8]	@ float
 208:Service/Srv_DataHub.c **** 
 136              		.loc 1 208 46 view .LVU32
 137 0030 C3F8D820 		str	r2, [r3, #216]	@ float
 210:Service/Srv_DataHub.c ****     }
 138              		.loc 1 210 9 is_stmt 1 view .LVU33
 210:Service/Srv_DataHub.c ****     }
 139              		.loc 1 210 56 is_stmt 0 view .LVU34
 140 0034 9A7C     		ldrb	r2, [r3, #18]	@ zero_extendqisi2
 141 0036 6FF34512 		bfc	r2, #5, #1
 142 003a 9A74     		strb	r2, [r3, #18]
 143              		.loc 1 212 1 view .LVU35
 144 003c E3E7     		b	.L7
 145              	.L12:
 146 003e 00BF     		.align	2
 147              	.L11:
 148 0040 00000000 		.word	Altitude_hub_DataPipe
 149 0044 00000000 		.word	.LANCHOR0
 150 0048 00000000 		.word	.LANCHOR1
 151              		.cfi_endproc
 152              	.LFE147:
 154              		.section	.text.SrvDataHub_Baro_DataPipe_Finish_Callback,"ax",%progbits
 155              		.align	1
 156              		.syntax unified
 157              		.thumb
 158              		.thumb_func
 160              	SrvDataHub_Baro_DataPipe_Finish_Callback:
 161              	.LVL2:
 162              	.LFB148:
 213:Service/Srv_DataHub.c **** 
 214:Service/Srv_DataHub.c **** static void SrvDataHub_Baro_DataPipe_Finish_Callback(DataPipeObj_TypeDef *obj)
 215:Service/Srv_DataHub.c **** {
 163              		.loc 1 215 1 is_stmt 1 view -0
ARM GAS  C:\Users\8bit\AppData\Local\Temp\ccClUhzi.s 			page 8


 164              		.cfi_startproc
 165              		@ args = 0, pretend = 0, frame = 0
 166              		@ frame_needed = 0, uses_anonymous_args = 0
 167              		@ link register save eliminated.
 216:Service/Srv_DataHub.c ****     if(obj == &Baro_hub_DataPipe)
 168              		.loc 1 216 5 view .LVU37
 169              		.loc 1 216 7 is_stmt 0 view .LVU38
 170 0000 154B     		ldr	r3, .L17
 171 0002 8342     		cmp	r3, r0
 172 0004 00D0     		beq	.L16
 173              	.L13:
 217:Service/Srv_DataHub.c ****     {
 218:Service/Srv_DataHub.c ****         SrvDataHub_Monitor.update_reg.bit.scaled_baro = true;
 219:Service/Srv_DataHub.c ****     
 220:Service/Srv_DataHub.c ****         if(SrvDataHub_Monitor.inuse_reg.bit.scaled_baro)
 221:Service/Srv_DataHub.c ****             SrvDataHub_Monitor.inuse_reg.bit.scaled_baro = false;
 222:Service/Srv_DataHub.c **** 
 223:Service/Srv_DataHub.c ****         SrvDataHub_Monitor.data.baro_update_time = DataPipe_DataObj(Hub_Baro_Data).data.time_stamp;
 224:Service/Srv_DataHub.c ****         SrvDataHub_Monitor.data.baro_alt = DataPipe_DataObj(Hub_Baro_Data).data.pressure_alt;
 225:Service/Srv_DataHub.c ****         SrvDataHub_Monitor.data.baro_alt_offset = DataPipe_DataObj(Hub_Baro_Data).data.pressure_alt
 226:Service/Srv_DataHub.c ****         SrvDataHub_Monitor.data.baro_pressure = DataPipe_DataObj(Hub_Baro_Data).data.pressure;
 227:Service/Srv_DataHub.c ****         SrvDataHub_Monitor.data.baro_tempra = DataPipe_DataObj(Hub_Baro_Data).data.tempra;
 228:Service/Srv_DataHub.c ****         SrvDataHub_Monitor.data.baro_error_code = DataPipe_DataObj(Hub_Baro_Data).data.error_code;
 229:Service/Srv_DataHub.c **** 
 230:Service/Srv_DataHub.c ****         SrvDataHub_Monitor.update_reg.bit.scaled_baro = false;
 231:Service/Srv_DataHub.c ****     }
 232:Service/Srv_DataHub.c **** }
 174              		.loc 1 232 1 view .LVU39
 175 0006 7047     		bx	lr
 176              	.L16:
 218:Service/Srv_DataHub.c ****     
 177              		.loc 1 218 9 is_stmt 1 view .LVU40
 218:Service/Srv_DataHub.c ****     
 178              		.loc 1 218 55 is_stmt 0 view .LVU41
 179 0008 144B     		ldr	r3, .L17+4
 180 000a 1A7C     		ldrb	r2, [r3, #16]	@ zero_extendqisi2
 181 000c 42F04002 		orr	r2, r2, #64
 182 0010 1A74     		strb	r2, [r3, #16]
 220:Service/Srv_DataHub.c ****             SrvDataHub_Monitor.inuse_reg.bit.scaled_baro = false;
 183              		.loc 1 220 9 is_stmt 1 view .LVU42
 220:Service/Srv_DataHub.c ****             SrvDataHub_Monitor.inuse_reg.bit.scaled_baro = false;
 184              		.loc 1 220 12 is_stmt 0 view .LVU43
 185 0012 1B7A     		ldrb	r3, [r3, #8]	@ zero_extendqisi2
 220:Service/Srv_DataHub.c ****             SrvDataHub_Monitor.inuse_reg.bit.scaled_baro = false;
 186              		.loc 1 220 11 view .LVU44
 187 0014 13F0400F 		tst	r3, #64
 188 0018 04D0     		beq	.L15
 221:Service/Srv_DataHub.c **** 
 189              		.loc 1 221 13 is_stmt 1 view .LVU45
 221:Service/Srv_DataHub.c **** 
 190              		.loc 1 221 58 is_stmt 0 view .LVU46
 191 001a 104B     		ldr	r3, .L17+4
 192 001c 1A7A     		ldrb	r2, [r3, #8]	@ zero_extendqisi2
 193 001e 6FF38612 		bfc	r2, #6, #1
 194 0022 1A72     		strb	r2, [r3, #8]
 195              	.L15:
 223:Service/Srv_DataHub.c ****         SrvDataHub_Monitor.data.baro_alt = DataPipe_DataObj(Hub_Baro_Data).data.pressure_alt;
ARM GAS  C:\Users\8bit\AppData\Local\Temp\ccClUhzi.s 			page 9


 196              		.loc 1 223 9 is_stmt 1 view .LVU47
 223:Service/Srv_DataHub.c ****         SrvDataHub_Monitor.data.baro_alt = DataPipe_DataObj(Hub_Baro_Data).data.pressure_alt;
 197              		.loc 1 223 88 is_stmt 0 view .LVU48
 198 0024 0E4A     		ldr	r2, .L17+8
 199 0026 D168     		ldr	r1, [r2, #12]
 223:Service/Srv_DataHub.c ****         SrvDataHub_Monitor.data.baro_alt = DataPipe_DataObj(Hub_Baro_Data).data.pressure_alt;
 200              		.loc 1 223 50 view .LVU49
 201 0028 0C4B     		ldr	r3, .L17+4
 202 002a C3F89410 		str	r1, [r3, #148]
 224:Service/Srv_DataHub.c ****         SrvDataHub_Monitor.data.baro_alt_offset = DataPipe_DataObj(Hub_Baro_Data).data.pressure_alt
 203              		.loc 1 224 9 is_stmt 1 view .LVU50
 224:Service/Srv_DataHub.c ****         SrvDataHub_Monitor.data.baro_alt_offset = DataPipe_DataObj(Hub_Baro_Data).data.pressure_alt
 204              		.loc 1 224 80 is_stmt 0 view .LVU51
 205 002e D169     		ldr	r1, [r2, #28]	@ float
 224:Service/Srv_DataHub.c ****         SrvDataHub_Monitor.data.baro_alt_offset = DataPipe_DataObj(Hub_Baro_Data).data.pressure_alt
 206              		.loc 1 224 42 view .LVU52
 207 0030 C3F89C10 		str	r1, [r3, #156]	@ float
 225:Service/Srv_DataHub.c ****         SrvDataHub_Monitor.data.baro_pressure = DataPipe_DataObj(Hub_Baro_Data).data.pressure;
 208              		.loc 1 225 9 is_stmt 1 view .LVU53
 225:Service/Srv_DataHub.c ****         SrvDataHub_Monitor.data.baro_pressure = DataPipe_DataObj(Hub_Baro_Data).data.pressure;
 209              		.loc 1 225 87 is_stmt 0 view .LVU54
 210 0034 116A     		ldr	r1, [r2, #32]	@ float
 225:Service/Srv_DataHub.c ****         SrvDataHub_Monitor.data.baro_pressure = DataPipe_DataObj(Hub_Baro_Data).data.pressure;
 211              		.loc 1 225 49 view .LVU55
 212 0036 C3F8A810 		str	r1, [r3, #168]	@ float
 226:Service/Srv_DataHub.c ****         SrvDataHub_Monitor.data.baro_tempra = DataPipe_DataObj(Hub_Baro_Data).data.tempra;
 213              		.loc 1 226 9 is_stmt 1 view .LVU56
 226:Service/Srv_DataHub.c ****         SrvDataHub_Monitor.data.baro_tempra = DataPipe_DataObj(Hub_Baro_Data).data.tempra;
 214              		.loc 1 226 85 is_stmt 0 view .LVU57
 215 003a 9169     		ldr	r1, [r2, #24]	@ float
 226:Service/Srv_DataHub.c ****         SrvDataHub_Monitor.data.baro_tempra = DataPipe_DataObj(Hub_Baro_Data).data.tempra;
 216              		.loc 1 226 47 view .LVU58
 217 003c C3F8A010 		str	r1, [r3, #160]	@ float
 227:Service/Srv_DataHub.c ****         SrvDataHub_Monitor.data.baro_error_code = DataPipe_DataObj(Hub_Baro_Data).data.error_code;
 218              		.loc 1 227 9 is_stmt 1 view .LVU59
 227:Service/Srv_DataHub.c ****         SrvDataHub_Monitor.data.baro_error_code = DataPipe_DataObj(Hub_Baro_Data).data.error_code;
 219              		.loc 1 227 83 is_stmt 0 view .LVU60
 220 0040 5169     		ldr	r1, [r2, #20]	@ float
 227:Service/Srv_DataHub.c ****         SrvDataHub_Monitor.data.baro_error_code = DataPipe_DataObj(Hub_Baro_Data).data.error_code;
 221              		.loc 1 227 45 view .LVU61
 222 0042 C3F8A410 		str	r1, [r3, #164]	@ float
 228:Service/Srv_DataHub.c **** 
 223              		.loc 1 228 9 is_stmt 1 view .LVU62
 228:Service/Srv_DataHub.c **** 
 224              		.loc 1 228 87 is_stmt 0 view .LVU63
 225 0046 92F82420 		ldrb	r2, [r2, #36]	@ zero_extendqisi2
 228:Service/Srv_DataHub.c **** 
 226              		.loc 1 228 49 view .LVU64
 227 004a 83F8AC20 		strb	r2, [r3, #172]
 230:Service/Srv_DataHub.c ****     }
 228              		.loc 1 230 9 is_stmt 1 view .LVU65
 230:Service/Srv_DataHub.c ****     }
 229              		.loc 1 230 55 is_stmt 0 view .LVU66
 230 004e 1A7C     		ldrb	r2, [r3, #16]	@ zero_extendqisi2
 231 0050 6FF38612 		bfc	r2, #6, #1
 232 0054 1A74     		strb	r2, [r3, #16]
 233              		.loc 1 232 1 view .LVU67
ARM GAS  C:\Users\8bit\AppData\Local\Temp\ccClUhzi.s 			page 10


 234 0056 D6E7     		b	.L13
 235              	.L18:
 236              		.align	2
 237              	.L17:
 238 0058 00000000 		.word	Baro_hub_DataPipe
 239 005c 00000000 		.word	.LANCHOR0
 240 0060 00000000 		.word	.LANCHOR1
 241              		.cfi_endproc
 242              	.LFE148:
 244              		.section	.text.SrvDataHub_Attitude_DataPipe_Finish_Callback,"ax",%progbits
 245              		.align	1
 246              		.syntax unified
 247              		.thumb
 248              		.thumb_func
 250              	SrvDataHub_Attitude_DataPipe_Finish_Callback:
 251              	.LVL3:
 252              	.LFB149:
 233:Service/Srv_DataHub.c **** 
 234:Service/Srv_DataHub.c **** static void SrvDataHub_Attitude_DataPipe_Finish_Callback(DataPipeObj_TypeDef *obj)
 235:Service/Srv_DataHub.c **** {
 253              		.loc 1 235 1 is_stmt 1 view -0
 254              		.cfi_startproc
 255              		@ args = 0, pretend = 0, frame = 0
 256              		@ frame_needed = 0, uses_anonymous_args = 0
 257              		@ link register save eliminated.
 236:Service/Srv_DataHub.c ****     if(obj == &Attitude_hub_DataPipe)
 258              		.loc 1 236 5 view .LVU69
 259              		.loc 1 236 7 is_stmt 0 view .LVU70
 260 0000 1C4B     		ldr	r3, .L23
 261 0002 8342     		cmp	r3, r0
 262 0004 00D0     		beq	.L22
 263              	.L19:
 237:Service/Srv_DataHub.c ****     {
 238:Service/Srv_DataHub.c ****         SrvDataHub_Monitor.update_reg.bit.attitude = true;
 239:Service/Srv_DataHub.c **** 
 240:Service/Srv_DataHub.c ****         if(SrvDataHub_Monitor.inuse_reg.bit.attitude)
 241:Service/Srv_DataHub.c ****             SrvDataHub_Monitor.inuse_reg.bit.attitude = false;
 242:Service/Srv_DataHub.c **** 
 243:Service/Srv_DataHub.c ****         SrvDataHub_Monitor.data.att_update_time = DataPipe_DataObj(Hub_Attitude).time_stamp;
 244:Service/Srv_DataHub.c ****         SrvDataHub_Monitor.data.att_pitch = DataPipe_DataObj(Hub_Attitude).pitch;
 245:Service/Srv_DataHub.c ****         SrvDataHub_Monitor.data.att_roll = DataPipe_DataObj(Hub_Attitude).roll;
 246:Service/Srv_DataHub.c ****         SrvDataHub_Monitor.data.att_yaw = DataPipe_DataObj(Hub_Attitude).yaw;
 247:Service/Srv_DataHub.c ****         SrvDataHub_Monitor.data.att_q0 = DataPipe_DataObj(Hub_Attitude).q0;
 248:Service/Srv_DataHub.c ****         SrvDataHub_Monitor.data.att_q1 = DataPipe_DataObj(Hub_Attitude).q1;
 249:Service/Srv_DataHub.c ****         SrvDataHub_Monitor.data.att_q2 = DataPipe_DataObj(Hub_Attitude).q2;
 250:Service/Srv_DataHub.c ****         SrvDataHub_Monitor.data.att_q3 = DataPipe_DataObj(Hub_Attitude).q3;
 251:Service/Srv_DataHub.c ****         SrvDataHub_Monitor.data.att_flip_over = DataPipe_DataObj(Hub_Attitude).flip_over;
 252:Service/Srv_DataHub.c ****         SrvDataHub_Monitor.data.att_error_code = DataPipe_DataObj(Hub_Attitude).err_code;
 253:Service/Srv_DataHub.c ****     
 254:Service/Srv_DataHub.c ****         SrvDataHub_Monitor.update_reg.bit.attitude = false;
 255:Service/Srv_DataHub.c ****     }
 256:Service/Srv_DataHub.c **** }
 264              		.loc 1 256 1 view .LVU71
 265 0006 7047     		bx	lr
 266              	.L22:
 238:Service/Srv_DataHub.c **** 
 267              		.loc 1 238 9 is_stmt 1 view .LVU72
ARM GAS  C:\Users\8bit\AppData\Local\Temp\ccClUhzi.s 			page 11


 238:Service/Srv_DataHub.c **** 
 268              		.loc 1 238 52 is_stmt 0 view .LVU73
 269 0008 1B4B     		ldr	r3, .L23+4
 270 000a 9A7C     		ldrb	r2, [r3, #18]	@ zero_extendqisi2
 271 000c 42F01002 		orr	r2, r2, #16
 272 0010 9A74     		strb	r2, [r3, #18]
 240:Service/Srv_DataHub.c ****             SrvDataHub_Monitor.inuse_reg.bit.attitude = false;
 273              		.loc 1 240 9 is_stmt 1 view .LVU74
 240:Service/Srv_DataHub.c ****             SrvDataHub_Monitor.inuse_reg.bit.attitude = false;
 274              		.loc 1 240 12 is_stmt 0 view .LVU75
 275 0012 9B7A     		ldrb	r3, [r3, #10]	@ zero_extendqisi2
 240:Service/Srv_DataHub.c ****             SrvDataHub_Monitor.inuse_reg.bit.attitude = false;
 276              		.loc 1 240 11 view .LVU76
 277 0014 13F0100F 		tst	r3, #16
 278 0018 04D0     		beq	.L21
 241:Service/Srv_DataHub.c **** 
 279              		.loc 1 241 13 is_stmt 1 view .LVU77
 241:Service/Srv_DataHub.c **** 
 280              		.loc 1 241 55 is_stmt 0 view .LVU78
 281 001a 174B     		ldr	r3, .L23+4
 282 001c 9A7A     		ldrb	r2, [r3, #10]	@ zero_extendqisi2
 283 001e 6FF30412 		bfc	r2, #4, #1
 284 0022 9A72     		strb	r2, [r3, #10]
 285              	.L21:
 243:Service/Srv_DataHub.c ****         SrvDataHub_Monitor.data.att_pitch = DataPipe_DataObj(Hub_Attitude).pitch;
 286              		.loc 1 243 9 is_stmt 1 view .LVU79
 243:Service/Srv_DataHub.c ****         SrvDataHub_Monitor.data.att_pitch = DataPipe_DataObj(Hub_Attitude).pitch;
 287              		.loc 1 243 81 is_stmt 0 view .LVU80
 288 0024 154A     		ldr	r2, .L23+8
 289 0026 916A     		ldr	r1, [r2, #40]
 243:Service/Srv_DataHub.c ****         SrvDataHub_Monitor.data.att_pitch = DataPipe_DataObj(Hub_Attitude).pitch;
 290              		.loc 1 243 49 view .LVU81
 291 0028 134B     		ldr	r3, .L23+4
 292 002a C3F8B010 		str	r1, [r3, #176]
 244:Service/Srv_DataHub.c ****         SrvDataHub_Monitor.data.att_roll = DataPipe_DataObj(Hub_Attitude).roll;
 293              		.loc 1 244 9 is_stmt 1 view .LVU82
 244:Service/Srv_DataHub.c ****         SrvDataHub_Monitor.data.att_roll = DataPipe_DataObj(Hub_Attitude).roll;
 294              		.loc 1 244 75 is_stmt 0 view .LVU83
 295 002e D16A     		ldr	r1, [r2, #44]	@ float
 244:Service/Srv_DataHub.c ****         SrvDataHub_Monitor.data.att_roll = DataPipe_DataObj(Hub_Attitude).roll;
 296              		.loc 1 244 43 view .LVU84
 297 0030 C3F8B810 		str	r1, [r3, #184]	@ float
 245:Service/Srv_DataHub.c ****         SrvDataHub_Monitor.data.att_yaw = DataPipe_DataObj(Hub_Attitude).yaw;
 298              		.loc 1 245 9 is_stmt 1 view .LVU85
 245:Service/Srv_DataHub.c ****         SrvDataHub_Monitor.data.att_yaw = DataPipe_DataObj(Hub_Attitude).yaw;
 299              		.loc 1 245 74 is_stmt 0 view .LVU86
 300 0034 116B     		ldr	r1, [r2, #48]	@ float
 245:Service/Srv_DataHub.c ****         SrvDataHub_Monitor.data.att_yaw = DataPipe_DataObj(Hub_Attitude).yaw;
 301              		.loc 1 245 42 view .LVU87
 302 0036 C3F8B410 		str	r1, [r3, #180]	@ float
 246:Service/Srv_DataHub.c ****         SrvDataHub_Monitor.data.att_q0 = DataPipe_DataObj(Hub_Attitude).q0;
 303              		.loc 1 246 9 is_stmt 1 view .LVU88
 246:Service/Srv_DataHub.c ****         SrvDataHub_Monitor.data.att_q0 = DataPipe_DataObj(Hub_Attitude).q0;
 304              		.loc 1 246 73 is_stmt 0 view .LVU89
 305 003a 516B     		ldr	r1, [r2, #52]	@ float
 246:Service/Srv_DataHub.c ****         SrvDataHub_Monitor.data.att_q0 = DataPipe_DataObj(Hub_Attitude).q0;
 306              		.loc 1 246 41 view .LVU90
ARM GAS  C:\Users\8bit\AppData\Local\Temp\ccClUhzi.s 			page 12


 307 003c C3F8BC10 		str	r1, [r3, #188]	@ float
 247:Service/Srv_DataHub.c ****         SrvDataHub_Monitor.data.att_q1 = DataPipe_DataObj(Hub_Attitude).q1;
 308              		.loc 1 247 9 is_stmt 1 view .LVU91
 247:Service/Srv_DataHub.c ****         SrvDataHub_Monitor.data.att_q1 = DataPipe_DataObj(Hub_Attitude).q1;
 309              		.loc 1 247 72 is_stmt 0 view .LVU92
 310 0040 916B     		ldr	r1, [r2, #56]	@ float
 247:Service/Srv_DataHub.c ****         SrvDataHub_Monitor.data.att_q1 = DataPipe_DataObj(Hub_Attitude).q1;
 311              		.loc 1 247 40 view .LVU93
 312 0042 C3F8C010 		str	r1, [r3, #192]	@ float
 248:Service/Srv_DataHub.c ****         SrvDataHub_Monitor.data.att_q2 = DataPipe_DataObj(Hub_Attitude).q2;
 313              		.loc 1 248 9 is_stmt 1 view .LVU94
 248:Service/Srv_DataHub.c ****         SrvDataHub_Monitor.data.att_q2 = DataPipe_DataObj(Hub_Attitude).q2;
 314              		.loc 1 248 72 is_stmt 0 view .LVU95
 315 0046 D16B     		ldr	r1, [r2, #60]	@ float
 248:Service/Srv_DataHub.c ****         SrvDataHub_Monitor.data.att_q2 = DataPipe_DataObj(Hub_Attitude).q2;
 316              		.loc 1 248 40 view .LVU96
 317 0048 C3F8C410 		str	r1, [r3, #196]	@ float
 249:Service/Srv_DataHub.c ****         SrvDataHub_Monitor.data.att_q3 = DataPipe_DataObj(Hub_Attitude).q3;
 318              		.loc 1 249 9 is_stmt 1 view .LVU97
 249:Service/Srv_DataHub.c ****         SrvDataHub_Monitor.data.att_q3 = DataPipe_DataObj(Hub_Attitude).q3;
 319              		.loc 1 249 72 is_stmt 0 view .LVU98
 320 004c 116C     		ldr	r1, [r2, #64]	@ float
 249:Service/Srv_DataHub.c ****         SrvDataHub_Monitor.data.att_q3 = DataPipe_DataObj(Hub_Attitude).q3;
 321              		.loc 1 249 40 view .LVU99
 322 004e C3F8C810 		str	r1, [r3, #200]	@ float
 250:Service/Srv_DataHub.c ****         SrvDataHub_Monitor.data.att_flip_over = DataPipe_DataObj(Hub_Attitude).flip_over;
 323              		.loc 1 250 9 is_stmt 1 view .LVU100
 250:Service/Srv_DataHub.c ****         SrvDataHub_Monitor.data.att_flip_over = DataPipe_DataObj(Hub_Attitude).flip_over;
 324              		.loc 1 250 72 is_stmt 0 view .LVU101
 325 0052 516C     		ldr	r1, [r2, #68]	@ float
 250:Service/Srv_DataHub.c ****         SrvDataHub_Monitor.data.att_flip_over = DataPipe_DataObj(Hub_Attitude).flip_over;
 326              		.loc 1 250 40 view .LVU102
 327 0054 C3F8CC10 		str	r1, [r3, #204]	@ float
 251:Service/Srv_DataHub.c ****         SrvDataHub_Monitor.data.att_error_code = DataPipe_DataObj(Hub_Attitude).err_code;
 328              		.loc 1 251 9 is_stmt 1 view .LVU103
 251:Service/Srv_DataHub.c ****         SrvDataHub_Monitor.data.att_error_code = DataPipe_DataObj(Hub_Attitude).err_code;
 329              		.loc 1 251 79 is_stmt 0 view .LVU104
 330 0058 92F84810 		ldrb	r1, [r2, #72]	@ zero_extendqisi2
 251:Service/Srv_DataHub.c ****         SrvDataHub_Monitor.data.att_error_code = DataPipe_DataObj(Hub_Attitude).err_code;
 331              		.loc 1 251 47 view .LVU105
 332 005c 83F8D010 		strb	r1, [r3, #208]
 252:Service/Srv_DataHub.c ****     
 333              		.loc 1 252 9 is_stmt 1 view .LVU106
 252:Service/Srv_DataHub.c ****     
 334              		.loc 1 252 80 is_stmt 0 view .LVU107
 335 0060 92F84920 		ldrb	r2, [r2, #73]	@ zero_extendqisi2
 252:Service/Srv_DataHub.c ****     
 336              		.loc 1 252 48 view .LVU108
 337 0064 83F8D120 		strb	r2, [r3, #209]
 254:Service/Srv_DataHub.c ****     }
 338              		.loc 1 254 9 is_stmt 1 view .LVU109
 254:Service/Srv_DataHub.c ****     }
 339              		.loc 1 254 52 is_stmt 0 view .LVU110
 340 0068 9A7C     		ldrb	r2, [r3, #18]	@ zero_extendqisi2
 341 006a 6FF30412 		bfc	r2, #4, #1
 342 006e 9A74     		strb	r2, [r3, #18]
 343              		.loc 1 256 1 view .LVU111
ARM GAS  C:\Users\8bit\AppData\Local\Temp\ccClUhzi.s 			page 13


 344 0070 C9E7     		b	.L19
 345              	.L24:
 346 0072 00BF     		.align	2
 347              	.L23:
 348 0074 00000000 		.word	Attitude_hub_DataPipe
 349 0078 00000000 		.word	.LANCHOR0
 350 007c 00000000 		.word	.LANCHOR1
 351              		.cfi_endproc
 352              	.LFE149:
 354              		.section	.text.SrvDataHub_IMU_Range_DataPipe_Finish_Callback,"ax",%progbits
 355              		.align	1
 356              		.syntax unified
 357              		.thumb
 358              		.thumb_func
 360              	SrvDataHub_IMU_Range_DataPipe_Finish_Callback:
 361              	.LVL4:
 362              	.LFB151:
 257:Service/Srv_DataHub.c **** 
 258:Service/Srv_DataHub.c **** static void SrvDataHub_Actuator_DataPipe_Finish_Callback(DataPipeObj_TypeDef *obj)
 259:Service/Srv_DataHub.c **** {
 260:Service/Srv_DataHub.c ****     if (obj == &Actuator_hub_DataPipe)
 261:Service/Srv_DataHub.c ****     {
 262:Service/Srv_DataHub.c ****         SrvDataHub_Monitor.update_reg.bit.actuator = true;
 263:Service/Srv_DataHub.c **** 
 264:Service/Srv_DataHub.c ****         if (SrvDataHub_Monitor.inuse_reg.bit.actuator)
 265:Service/Srv_DataHub.c ****             SrvDataHub_Monitor.inuse_reg.bit.actuator = false;
 266:Service/Srv_DataHub.c **** 
 267:Service/Srv_DataHub.c ****         SrvDataHub_Monitor.data.actuator_update_time = DataPipe_DataObj(Hub_Actuator).time_stamp;
 268:Service/Srv_DataHub.c ****         SrvDataHub_Monitor.data.moto_num = DataPipe_DataObj(Hub_Actuator).moto_cnt;
 269:Service/Srv_DataHub.c ****         SrvDataHub_Monitor.data.servo_num = DataPipe_DataObj(Hub_Actuator).servo_cnt;
 270:Service/Srv_DataHub.c **** 
 271:Service/Srv_DataHub.c ****         memset(SrvDataHub_Monitor.data.moto, 0, sizeof(SrvDataHub_Monitor.data.moto));
 272:Service/Srv_DataHub.c ****         memset(SrvDataHub_Monitor.data.servo, 0, sizeof(SrvDataHub_Monitor.data.servo));
 273:Service/Srv_DataHub.c **** 
 274:Service/Srv_DataHub.c ****         for (uint8_t moto_i = 0; moto_i < SrvDataHub_Monitor.data.moto_num; moto_i++)
 275:Service/Srv_DataHub.c ****         {
 276:Service/Srv_DataHub.c ****             SrvDataHub_Monitor.data.moto[moto_i] = DataPipe_DataObj(Hub_Actuator).moto[moto_i];
 277:Service/Srv_DataHub.c ****         }
 278:Service/Srv_DataHub.c **** 
 279:Service/Srv_DataHub.c ****         for (uint8_t servo_i = 0; servo_i < SrvDataHub_Monitor.data.servo_num; servo_i++)
 280:Service/Srv_DataHub.c ****         {
 281:Service/Srv_DataHub.c ****             SrvDataHub_Monitor.data.servo[servo_i] = DataPipe_DataObj(Hub_Actuator).servo[servo_i];
 282:Service/Srv_DataHub.c ****         }
 283:Service/Srv_DataHub.c **** 
 284:Service/Srv_DataHub.c ****         SrvDataHub_Monitor.update_reg.bit.actuator = false;
 285:Service/Srv_DataHub.c ****     }
 286:Service/Srv_DataHub.c **** }
 287:Service/Srv_DataHub.c **** 
 288:Service/Srv_DataHub.c **** static void SrvDataHub_IMU_Range_DataPipe_Finish_Callback(DataPipeObj_TypeDef *obj)
 289:Service/Srv_DataHub.c **** {
 363              		.loc 1 289 1 is_stmt 1 view -0
 364              		.cfi_startproc
 365              		@ args = 0, pretend = 0, frame = 0
 366              		@ frame_needed = 0, uses_anonymous_args = 0
 367              		@ link register save eliminated.
 290:Service/Srv_DataHub.c ****     if(obj == &IMU_PriRange_hub_DataPipe)
 368              		.loc 1 290 5 view .LVU113
ARM GAS  C:\Users\8bit\AppData\Local\Temp\ccClUhzi.s 			page 14


 369              		.loc 1 290 7 is_stmt 0 view .LVU114
 370 0000 0F4B     		ldr	r3, .L29
 371 0002 8342     		cmp	r3, r0
 372 0004 00D0     		beq	.L28
 373              	.L25:
 291:Service/Srv_DataHub.c ****     {
 292:Service/Srv_DataHub.c ****         SrvDataHub_Monitor.update_reg.bit.range_imu = true;
 293:Service/Srv_DataHub.c ****         if(SrvDataHub_Monitor.inuse_reg.bit.range_imu)
 294:Service/Srv_DataHub.c ****             SrvDataHub_Monitor.inuse_reg.bit.range_imu = false;
 295:Service/Srv_DataHub.c **** 
 296:Service/Srv_DataHub.c ****         SrvDataHub_Monitor.data.pri_acc_range = DataPipe_DataObj(Hub_PriIMU_Range).Acc;
 297:Service/Srv_DataHub.c ****         SrvDataHub_Monitor.data.pri_gyr_range = DataPipe_DataObj(Hub_PriIMU_Range).Gyr;
 298:Service/Srv_DataHub.c **** 
 299:Service/Srv_DataHub.c ****         SrvDataHub_Monitor.update_reg.bit.range_imu = false;
 300:Service/Srv_DataHub.c ****     }
 301:Service/Srv_DataHub.c **** #if (IMU_CNT == 2)
 302:Service/Srv_DataHub.c ****     else if(obj == &IMU_SecRange_hub_DataPipe)
 303:Service/Srv_DataHub.c ****     {
 304:Service/Srv_DataHub.c ****         SrvDataHub_Monitor.update_reg.bit.range_imu = true;
 305:Service/Srv_DataHub.c ****         if(SrvDataHub_Monitor.inuse_reg.bit.range_imu)
 306:Service/Srv_DataHub.c ****             SrvDataHub_Monitor.inuse_reg.bit.range_imu = false;
 307:Service/Srv_DataHub.c **** 
 308:Service/Srv_DataHub.c ****         SrvDataHub_Monitor.data.sec_acc_range = DataPipe_DataObj(Hub_SecIMU_Range).Acc;
 309:Service/Srv_DataHub.c ****         SrvDataHub_Monitor.data.sec_gyr_range = DataPipe_DataObj(Hub_SecIMU_Range).Gyr;
 310:Service/Srv_DataHub.c ****     
 311:Service/Srv_DataHub.c ****         SrvDataHub_Monitor.update_reg.bit.range_imu = false;
 312:Service/Srv_DataHub.c ****     }
 313:Service/Srv_DataHub.c **** #endif
 314:Service/Srv_DataHub.c **** }
 374              		.loc 1 314 1 view .LVU115
 375 0006 7047     		bx	lr
 376              	.L28:
 292:Service/Srv_DataHub.c ****         if(SrvDataHub_Monitor.inuse_reg.bit.range_imu)
 377              		.loc 1 292 9 is_stmt 1 view .LVU116
 292:Service/Srv_DataHub.c ****         if(SrvDataHub_Monitor.inuse_reg.bit.range_imu)
 378              		.loc 1 292 53 is_stmt 0 view .LVU117
 379 0008 0E4B     		ldr	r3, .L29+4
 380 000a 1A7C     		ldrb	r2, [r3, #16]	@ zero_extendqisi2
 381 000c 42F00402 		orr	r2, r2, #4
 382 0010 1A74     		strb	r2, [r3, #16]
 293:Service/Srv_DataHub.c ****             SrvDataHub_Monitor.inuse_reg.bit.range_imu = false;
 383              		.loc 1 293 9 is_stmt 1 view .LVU118
 293:Service/Srv_DataHub.c ****             SrvDataHub_Monitor.inuse_reg.bit.range_imu = false;
 384              		.loc 1 293 12 is_stmt 0 view .LVU119
 385 0012 1B7A     		ldrb	r3, [r3, #8]	@ zero_extendqisi2
 293:Service/Srv_DataHub.c ****             SrvDataHub_Monitor.inuse_reg.bit.range_imu = false;
 386              		.loc 1 293 11 view .LVU120
 387 0014 13F0040F 		tst	r3, #4
 388 0018 04D0     		beq	.L27
 294:Service/Srv_DataHub.c **** 
 389              		.loc 1 294 13 is_stmt 1 view .LVU121
 294:Service/Srv_DataHub.c **** 
 390              		.loc 1 294 56 is_stmt 0 view .LVU122
 391 001a 0A4B     		ldr	r3, .L29+4
 392 001c 1A7A     		ldrb	r2, [r3, #8]	@ zero_extendqisi2
 393 001e 6FF38202 		bfc	r2, #2, #1
 394 0022 1A72     		strb	r2, [r3, #8]
ARM GAS  C:\Users\8bit\AppData\Local\Temp\ccClUhzi.s 			page 15


 395              	.L27:
 296:Service/Srv_DataHub.c ****         SrvDataHub_Monitor.data.pri_gyr_range = DataPipe_DataObj(Hub_PriIMU_Range).Gyr;
 396              		.loc 1 296 9 is_stmt 1 view .LVU123
 296:Service/Srv_DataHub.c ****         SrvDataHub_Monitor.data.pri_gyr_range = DataPipe_DataObj(Hub_PriIMU_Range).Gyr;
 397              		.loc 1 296 83 is_stmt 0 view .LVU124
 398 0024 084A     		ldr	r2, .L29+8
 399 0026 92F84C10 		ldrb	r1, [r2, #76]	@ zero_extendqisi2
 296:Service/Srv_DataHub.c ****         SrvDataHub_Monitor.data.pri_gyr_range = DataPipe_DataObj(Hub_PriIMU_Range).Gyr;
 400              		.loc 1 296 47 view .LVU125
 401 002a 064B     		ldr	r3, .L29+4
 402 002c 83F82A10 		strb	r1, [r3, #42]
 297:Service/Srv_DataHub.c **** 
 403              		.loc 1 297 9 is_stmt 1 view .LVU126
 297:Service/Srv_DataHub.c **** 
 404              		.loc 1 297 83 is_stmt 0 view .LVU127
 405 0030 B2F84E20 		ldrh	r2, [r2, #78]
 297:Service/Srv_DataHub.c **** 
 406              		.loc 1 297 47 view .LVU128
 407 0034 9A85     		strh	r2, [r3, #44]	@ movhi
 299:Service/Srv_DataHub.c ****     }
 408              		.loc 1 299 9 is_stmt 1 view .LVU129
 299:Service/Srv_DataHub.c ****     }
 409              		.loc 1 299 53 is_stmt 0 view .LVU130
 410 0036 1A7C     		ldrb	r2, [r3, #16]	@ zero_extendqisi2
 411 0038 6FF38202 		bfc	r2, #2, #1
 412 003c 1A74     		strb	r2, [r3, #16]
 413              		.loc 1 314 1 view .LVU131
 414 003e E2E7     		b	.L25
 415              	.L30:
 416              		.align	2
 417              	.L29:
 418 0040 00000000 		.word	IMU_PriRange_hub_DataPipe
 419 0044 00000000 		.word	.LANCHOR0
 420 0048 00000000 		.word	.LANCHOR1
 421              		.cfi_endproc
 422              	.LFE151:
 424              		.section	.text.SrvDataHub_IMU_DataPipe_Finish_Callback,"ax",%progbits
 425              		.align	1
 426              		.syntax unified
 427              		.thumb
 428              		.thumb_func
 430              	SrvDataHub_IMU_DataPipe_Finish_Callback:
 431              	.LVL5:
 432              	.LFB152:
 315:Service/Srv_DataHub.c **** 
 316:Service/Srv_DataHub.c **** static void SrvDataHub_IMU_DataPipe_Finish_Callback(DataPipeObj_TypeDef *obj)
 317:Service/Srv_DataHub.c **** {
 433              		.loc 1 317 1 is_stmt 1 view -0
 434              		.cfi_startproc
 435              		@ args = 0, pretend = 0, frame = 0
 436              		@ frame_needed = 0, uses_anonymous_args = 0
 437              		@ link register save eliminated.
 318:Service/Srv_DataHub.c ****     if (obj == &IMU_hub_DataPipe)
 438              		.loc 1 318 5 view .LVU133
 439              		.loc 1 318 8 is_stmt 0 view .LVU134
 440 0000 254B     		ldr	r3, .L35
 441 0002 8342     		cmp	r3, r0
ARM GAS  C:\Users\8bit\AppData\Local\Temp\ccClUhzi.s 			page 16


 442 0004 00D0     		beq	.L34
 443              	.L31:
 319:Service/Srv_DataHub.c ****     {
 320:Service/Srv_DataHub.c ****         SrvDataHub_Monitor.update_reg.bit.raw_imu = true;
 321:Service/Srv_DataHub.c ****         SrvDataHub_Monitor.update_reg.bit.scaled_imu = true;
 322:Service/Srv_DataHub.c **** 
 323:Service/Srv_DataHub.c ****         if (SrvDataHub_Monitor.inuse_reg.bit.raw_imu)
 324:Service/Srv_DataHub.c ****             SrvDataHub_Monitor.inuse_reg.bit.raw_imu = false;
 325:Service/Srv_DataHub.c **** 
 326:Service/Srv_DataHub.c ****         if (SrvDataHub_Monitor.update_reg.bit.scaled_imu)
 327:Service/Srv_DataHub.c ****             SrvDataHub_Monitor.update_reg.bit.scaled_imu = false;
 328:Service/Srv_DataHub.c **** 
 329:Service/Srv_DataHub.c ****         SrvDataHub_Monitor.data.imu_update_time = DataPipe_DataObj(PtlIMU_Data).data.time_stamp;
 330:Service/Srv_DataHub.c ****         SrvDataHub_Monitor.data.acc_scale = DataPipe_DataObj(PtlIMU_Data).data.acc_scale;
 331:Service/Srv_DataHub.c ****         SrvDataHub_Monitor.data.gyr_scale = DataPipe_DataObj(PtlIMU_Data).data.gyr_scale;
 332:Service/Srv_DataHub.c ****         SrvDataHub_Monitor.data.imu_temp = DataPipe_DataObj(PtlIMU_Data).data.tempera;
 333:Service/Srv_DataHub.c **** 
 334:Service/Srv_DataHub.c ****         SrvDataHub_Monitor.data.flt_acc_x = DataPipe_DataObj(PtlIMU_Data).data.flt_acc[Axis_X];
 335:Service/Srv_DataHub.c ****         SrvDataHub_Monitor.data.flt_acc_y = DataPipe_DataObj(PtlIMU_Data).data.flt_acc[Axis_Y];
 336:Service/Srv_DataHub.c ****         SrvDataHub_Monitor.data.flt_acc_z = DataPipe_DataObj(PtlIMU_Data).data.flt_acc[Axis_Z];
 337:Service/Srv_DataHub.c **** 
 338:Service/Srv_DataHub.c ****         SrvDataHub_Monitor.data.flt_gyr_x = DataPipe_DataObj(PtlIMU_Data).data.flt_gyr[Axis_X];
 339:Service/Srv_DataHub.c ****         SrvDataHub_Monitor.data.flt_gyr_y = DataPipe_DataObj(PtlIMU_Data).data.flt_gyr[Axis_Y];
 340:Service/Srv_DataHub.c ****         SrvDataHub_Monitor.data.flt_gyr_z = DataPipe_DataObj(PtlIMU_Data).data.flt_gyr[Axis_Z];
 341:Service/Srv_DataHub.c **** 
 342:Service/Srv_DataHub.c ****         SrvDataHub_Monitor.data.org_acc_x = DataPipe_DataObj(PtlIMU_Data).data.org_acc[Axis_X];
 343:Service/Srv_DataHub.c ****         SrvDataHub_Monitor.data.org_acc_y = DataPipe_DataObj(PtlIMU_Data).data.org_acc[Axis_Y];
 344:Service/Srv_DataHub.c ****         SrvDataHub_Monitor.data.org_acc_z = DataPipe_DataObj(PtlIMU_Data).data.org_acc[Axis_Z];
 345:Service/Srv_DataHub.c **** 
 346:Service/Srv_DataHub.c ****         SrvDataHub_Monitor.data.org_gyr_x = DataPipe_DataObj(PtlIMU_Data).data.org_gyr[Axis_X];
 347:Service/Srv_DataHub.c ****         SrvDataHub_Monitor.data.org_gyr_y = DataPipe_DataObj(PtlIMU_Data).data.org_gyr[Axis_Y];
 348:Service/Srv_DataHub.c ****         SrvDataHub_Monitor.data.org_gyr_z = DataPipe_DataObj(PtlIMU_Data).data.org_gyr[Axis_Z];
 349:Service/Srv_DataHub.c **** 
 350:Service/Srv_DataHub.c ****         SrvDataHub_Monitor.data.imu_error_code = DataPipe_DataObj(PtlIMU_Data).data.error_code;
 351:Service/Srv_DataHub.c **** 
 352:Service/Srv_DataHub.c ****         SrvDataHub_Monitor.update_reg.bit.raw_imu = false;
 353:Service/Srv_DataHub.c ****         SrvDataHub_Monitor.update_reg.bit.scaled_imu = false;
 354:Service/Srv_DataHub.c ****     }
 355:Service/Srv_DataHub.c **** }
 444              		.loc 1 355 1 view .LVU135
 445 0006 7047     		bx	lr
 446              	.L34:
 320:Service/Srv_DataHub.c ****         SrvDataHub_Monitor.update_reg.bit.scaled_imu = true;
 447              		.loc 1 320 9 is_stmt 1 view .LVU136
 320:Service/Srv_DataHub.c ****         SrvDataHub_Monitor.update_reg.bit.scaled_imu = true;
 448              		.loc 1 320 51 is_stmt 0 view .LVU137
 449 0008 244B     		ldr	r3, .L35+4
 450 000a 1A7C     		ldrb	r2, [r3, #16]	@ zero_extendqisi2
 451 000c 42F00102 		orr	r2, r2, #1
 452 0010 1A74     		strb	r2, [r3, #16]
 321:Service/Srv_DataHub.c **** 
 453              		.loc 1 321 9 is_stmt 1 view .LVU138
 321:Service/Srv_DataHub.c **** 
 454              		.loc 1 321 54 is_stmt 0 view .LVU139
 455 0012 D2B2     		uxtb	r2, r2
 456 0014 42F00202 		orr	r2, r2, #2
 457 0018 1A74     		strb	r2, [r3, #16]
ARM GAS  C:\Users\8bit\AppData\Local\Temp\ccClUhzi.s 			page 17


 323:Service/Srv_DataHub.c ****             SrvDataHub_Monitor.inuse_reg.bit.raw_imu = false;
 458              		.loc 1 323 9 is_stmt 1 view .LVU140
 323:Service/Srv_DataHub.c ****             SrvDataHub_Monitor.inuse_reg.bit.raw_imu = false;
 459              		.loc 1 323 13 is_stmt 0 view .LVU141
 460 001a 1B7A     		ldrb	r3, [r3, #8]	@ zero_extendqisi2
 323:Service/Srv_DataHub.c ****             SrvDataHub_Monitor.inuse_reg.bit.raw_imu = false;
 461              		.loc 1 323 12 view .LVU142
 462 001c 13F0010F 		tst	r3, #1
 463 0020 04D0     		beq	.L33
 324:Service/Srv_DataHub.c **** 
 464              		.loc 1 324 13 is_stmt 1 view .LVU143
 324:Service/Srv_DataHub.c **** 
 465              		.loc 1 324 54 is_stmt 0 view .LVU144
 466 0022 1E4B     		ldr	r3, .L35+4
 467 0024 1A7A     		ldrb	r2, [r3, #8]	@ zero_extendqisi2
 468 0026 6FF30002 		bfc	r2, #0, #1
 469 002a 1A72     		strb	r2, [r3, #8]
 470              	.L33:
 326:Service/Srv_DataHub.c ****             SrvDataHub_Monitor.update_reg.bit.scaled_imu = false;
 471              		.loc 1 326 9 is_stmt 1 view .LVU145
 327:Service/Srv_DataHub.c **** 
 472              		.loc 1 327 13 view .LVU146
 327:Service/Srv_DataHub.c **** 
 473              		.loc 1 327 58 is_stmt 0 view .LVU147
 474 002c 1B4B     		ldr	r3, .L35+4
 475 002e 1A7C     		ldrb	r2, [r3, #16]	@ zero_extendqisi2
 476 0030 6FF34102 		bfc	r2, #1, #1
 477 0034 1A74     		strb	r2, [r3, #16]
 329:Service/Srv_DataHub.c ****         SrvDataHub_Monitor.data.acc_scale = DataPipe_DataObj(PtlIMU_Data).data.acc_scale;
 478              		.loc 1 329 9 is_stmt 1 view .LVU148
 329:Service/Srv_DataHub.c ****         SrvDataHub_Monitor.data.acc_scale = DataPipe_DataObj(PtlIMU_Data).data.acc_scale;
 479              		.loc 1 329 85 is_stmt 0 view .LVU149
 480 0036 1A4A     		ldr	r2, .L35+8
 481 0038 116D     		ldr	r1, [r2, #80]
 329:Service/Srv_DataHub.c ****         SrvDataHub_Monitor.data.acc_scale = DataPipe_DataObj(PtlIMU_Data).data.acc_scale;
 482              		.loc 1 329 49 view .LVU150
 483 003a D961     		str	r1, [r3, #28]
 330:Service/Srv_DataHub.c ****         SrvDataHub_Monitor.data.gyr_scale = DataPipe_DataObj(PtlIMU_Data).data.gyr_scale;
 484              		.loc 1 330 9 is_stmt 1 view .LVU151
 330:Service/Srv_DataHub.c ****         SrvDataHub_Monitor.data.gyr_scale = DataPipe_DataObj(PtlIMU_Data).data.gyr_scale;
 485              		.loc 1 330 79 is_stmt 0 view .LVU152
 486 003c D2F89810 		ldr	r1, [r2, #152]	@ float
 330:Service/Srv_DataHub.c ****         SrvDataHub_Monitor.data.gyr_scale = DataPipe_DataObj(PtlIMU_Data).data.gyr_scale;
 487              		.loc 1 330 43 view .LVU153
 488 0040 1962     		str	r1, [r3, #32]	@ float
 331:Service/Srv_DataHub.c ****         SrvDataHub_Monitor.data.imu_temp = DataPipe_DataObj(PtlIMU_Data).data.tempera;
 489              		.loc 1 331 9 is_stmt 1 view .LVU154
 331:Service/Srv_DataHub.c ****         SrvDataHub_Monitor.data.imu_temp = DataPipe_DataObj(PtlIMU_Data).data.tempera;
 490              		.loc 1 331 79 is_stmt 0 view .LVU155
 491 0042 D2F89C10 		ldr	r1, [r2, #156]	@ float
 331:Service/Srv_DataHub.c ****         SrvDataHub_Monitor.data.imu_temp = DataPipe_DataObj(PtlIMU_Data).data.tempera;
 492              		.loc 1 331 43 view .LVU156
 493 0046 5962     		str	r1, [r3, #36]	@ float
 332:Service/Srv_DataHub.c **** 
 494              		.loc 1 332 9 is_stmt 1 view .LVU157
 332:Service/Srv_DataHub.c **** 
 495              		.loc 1 332 78 is_stmt 0 view .LVU158
ARM GAS  C:\Users\8bit\AppData\Local\Temp\ccClUhzi.s 			page 18


 496 0048 D16D     		ldr	r1, [r2, #92]	@ float
 332:Service/Srv_DataHub.c **** 
 497              		.loc 1 332 42 view .LVU159
 498 004a 5966     		str	r1, [r3, #100]	@ float
 334:Service/Srv_DataHub.c ****         SrvDataHub_Monitor.data.flt_acc_y = DataPipe_DataObj(PtlIMU_Data).data.flt_acc[Axis_Y];
 499              		.loc 1 334 9 is_stmt 1 view .LVU160
 334:Service/Srv_DataHub.c ****         SrvDataHub_Monitor.data.flt_acc_y = DataPipe_DataObj(PtlIMU_Data).data.flt_acc[Axis_Y];
 500              		.loc 1 334 87 is_stmt 0 view .LVU161
 501 004c D16E     		ldr	r1, [r2, #108]	@ float
 334:Service/Srv_DataHub.c ****         SrvDataHub_Monitor.data.flt_acc_y = DataPipe_DataObj(PtlIMU_Data).data.flt_acc[Axis_Y];
 502              		.loc 1 334 43 view .LVU162
 503 004e D964     		str	r1, [r3, #76]	@ float
 335:Service/Srv_DataHub.c ****         SrvDataHub_Monitor.data.flt_acc_z = DataPipe_DataObj(PtlIMU_Data).data.flt_acc[Axis_Z];
 504              		.loc 1 335 9 is_stmt 1 view .LVU163
 335:Service/Srv_DataHub.c ****         SrvDataHub_Monitor.data.flt_acc_z = DataPipe_DataObj(PtlIMU_Data).data.flt_acc[Axis_Z];
 505              		.loc 1 335 87 is_stmt 0 view .LVU164
 506 0050 116F     		ldr	r1, [r2, #112]	@ float
 335:Service/Srv_DataHub.c ****         SrvDataHub_Monitor.data.flt_acc_z = DataPipe_DataObj(PtlIMU_Data).data.flt_acc[Axis_Z];
 507              		.loc 1 335 43 view .LVU165
 508 0052 1965     		str	r1, [r3, #80]	@ float
 336:Service/Srv_DataHub.c **** 
 509              		.loc 1 336 9 is_stmt 1 view .LVU166
 336:Service/Srv_DataHub.c **** 
 510              		.loc 1 336 87 is_stmt 0 view .LVU167
 511 0054 516F     		ldr	r1, [r2, #116]	@ float
 336:Service/Srv_DataHub.c **** 
 512              		.loc 1 336 43 view .LVU168
 513 0056 5965     		str	r1, [r3, #84]	@ float
 338:Service/Srv_DataHub.c ****         SrvDataHub_Monitor.data.flt_gyr_y = DataPipe_DataObj(PtlIMU_Data).data.flt_gyr[Axis_Y];
 514              		.loc 1 338 9 is_stmt 1 view .LVU169
 338:Service/Srv_DataHub.c ****         SrvDataHub_Monitor.data.flt_gyr_y = DataPipe_DataObj(PtlIMU_Data).data.flt_gyr[Axis_Y];
 515              		.loc 1 338 87 is_stmt 0 view .LVU170
 516 0058 116E     		ldr	r1, [r2, #96]	@ float
 338:Service/Srv_DataHub.c ****         SrvDataHub_Monitor.data.flt_gyr_y = DataPipe_DataObj(PtlIMU_Data).data.flt_gyr[Axis_Y];
 517              		.loc 1 338 43 view .LVU171
 518 005a 5963     		str	r1, [r3, #52]	@ float
 339:Service/Srv_DataHub.c ****         SrvDataHub_Monitor.data.flt_gyr_z = DataPipe_DataObj(PtlIMU_Data).data.flt_gyr[Axis_Z];
 519              		.loc 1 339 9 is_stmt 1 view .LVU172
 339:Service/Srv_DataHub.c ****         SrvDataHub_Monitor.data.flt_gyr_z = DataPipe_DataObj(PtlIMU_Data).data.flt_gyr[Axis_Z];
 520              		.loc 1 339 87 is_stmt 0 view .LVU173
 521 005c 516E     		ldr	r1, [r2, #100]	@ float
 339:Service/Srv_DataHub.c ****         SrvDataHub_Monitor.data.flt_gyr_z = DataPipe_DataObj(PtlIMU_Data).data.flt_gyr[Axis_Z];
 522              		.loc 1 339 43 view .LVU174
 523 005e 9963     		str	r1, [r3, #56]	@ float
 340:Service/Srv_DataHub.c **** 
 524              		.loc 1 340 9 is_stmt 1 view .LVU175
 340:Service/Srv_DataHub.c **** 
 525              		.loc 1 340 87 is_stmt 0 view .LVU176
 526 0060 916E     		ldr	r1, [r2, #104]	@ float
 340:Service/Srv_DataHub.c **** 
 527              		.loc 1 340 43 view .LVU177
 528 0062 D963     		str	r1, [r3, #60]	@ float
 342:Service/Srv_DataHub.c ****         SrvDataHub_Monitor.data.org_acc_y = DataPipe_DataObj(PtlIMU_Data).data.org_acc[Axis_Y];
 529              		.loc 1 342 9 is_stmt 1 view .LVU178
 342:Service/Srv_DataHub.c ****         SrvDataHub_Monitor.data.org_acc_y = DataPipe_DataObj(PtlIMU_Data).data.org_acc[Axis_Y];
 530              		.loc 1 342 87 is_stmt 0 view .LVU179
 531 0064 D2F88410 		ldr	r1, [r2, #132]	@ float
ARM GAS  C:\Users\8bit\AppData\Local\Temp\ccClUhzi.s 			page 19


 342:Service/Srv_DataHub.c ****         SrvDataHub_Monitor.data.org_acc_y = DataPipe_DataObj(PtlIMU_Data).data.org_acc[Axis_Y];
 532              		.loc 1 342 43 view .LVU180
 533 0068 9965     		str	r1, [r3, #88]	@ float
 343:Service/Srv_DataHub.c ****         SrvDataHub_Monitor.data.org_acc_z = DataPipe_DataObj(PtlIMU_Data).data.org_acc[Axis_Z];
 534              		.loc 1 343 9 is_stmt 1 view .LVU181
 343:Service/Srv_DataHub.c ****         SrvDataHub_Monitor.data.org_acc_z = DataPipe_DataObj(PtlIMU_Data).data.org_acc[Axis_Z];
 535              		.loc 1 343 87 is_stmt 0 view .LVU182
 536 006a D2F88810 		ldr	r1, [r2, #136]	@ float
 343:Service/Srv_DataHub.c ****         SrvDataHub_Monitor.data.org_acc_z = DataPipe_DataObj(PtlIMU_Data).data.org_acc[Axis_Z];
 537              		.loc 1 343 43 view .LVU183
 538 006e D965     		str	r1, [r3, #92]	@ float
 344:Service/Srv_DataHub.c **** 
 539              		.loc 1 344 9 is_stmt 1 view .LVU184
 344:Service/Srv_DataHub.c **** 
 540              		.loc 1 344 87 is_stmt 0 view .LVU185
 541 0070 D2F88C10 		ldr	r1, [r2, #140]	@ float
 344:Service/Srv_DataHub.c **** 
 542              		.loc 1 344 43 view .LVU186
 543 0074 1966     		str	r1, [r3, #96]	@ float
 346:Service/Srv_DataHub.c ****         SrvDataHub_Monitor.data.org_gyr_y = DataPipe_DataObj(PtlIMU_Data).data.org_gyr[Axis_Y];
 544              		.loc 1 346 9 is_stmt 1 view .LVU187
 346:Service/Srv_DataHub.c ****         SrvDataHub_Monitor.data.org_gyr_y = DataPipe_DataObj(PtlIMU_Data).data.org_gyr[Axis_Y];
 545              		.loc 1 346 87 is_stmt 0 view .LVU188
 546 0076 916F     		ldr	r1, [r2, #120]	@ float
 346:Service/Srv_DataHub.c ****         SrvDataHub_Monitor.data.org_gyr_y = DataPipe_DataObj(PtlIMU_Data).data.org_gyr[Axis_Y];
 547              		.loc 1 346 43 view .LVU189
 548 0078 1964     		str	r1, [r3, #64]	@ float
 347:Service/Srv_DataHub.c ****         SrvDataHub_Monitor.data.org_gyr_z = DataPipe_DataObj(PtlIMU_Data).data.org_gyr[Axis_Z];
 549              		.loc 1 347 9 is_stmt 1 view .LVU190
 347:Service/Srv_DataHub.c ****         SrvDataHub_Monitor.data.org_gyr_z = DataPipe_DataObj(PtlIMU_Data).data.org_gyr[Axis_Z];
 550              		.loc 1 347 87 is_stmt 0 view .LVU191
 551 007a D16F     		ldr	r1, [r2, #124]	@ float
 347:Service/Srv_DataHub.c ****         SrvDataHub_Monitor.data.org_gyr_z = DataPipe_DataObj(PtlIMU_Data).data.org_gyr[Axis_Z];
 552              		.loc 1 347 43 view .LVU192
 553 007c 5964     		str	r1, [r3, #68]	@ float
 348:Service/Srv_DataHub.c **** 
 554              		.loc 1 348 9 is_stmt 1 view .LVU193
 348:Service/Srv_DataHub.c **** 
 555              		.loc 1 348 87 is_stmt 0 view .LVU194
 556 007e D2F88010 		ldr	r1, [r2, #128]	@ float
 348:Service/Srv_DataHub.c **** 
 557              		.loc 1 348 43 view .LVU195
 558 0082 9964     		str	r1, [r3, #72]	@ float
 350:Service/Srv_DataHub.c **** 
 559              		.loc 1 350 9 is_stmt 1 view .LVU196
 350:Service/Srv_DataHub.c **** 
 560              		.loc 1 350 84 is_stmt 0 view .LVU197
 561 0084 92F89420 		ldrb	r2, [r2, #148]	@ zero_extendqisi2
 350:Service/Srv_DataHub.c **** 
 562              		.loc 1 350 48 view .LVU198
 563 0088 83F86820 		strb	r2, [r3, #104]
 352:Service/Srv_DataHub.c ****         SrvDataHub_Monitor.update_reg.bit.scaled_imu = false;
 564              		.loc 1 352 9 is_stmt 1 view .LVU199
 352:Service/Srv_DataHub.c ****         SrvDataHub_Monitor.update_reg.bit.scaled_imu = false;
 565              		.loc 1 352 51 is_stmt 0 view .LVU200
 566 008c 1A7C     		ldrb	r2, [r3, #16]	@ zero_extendqisi2
 567 008e 6FF30002 		bfc	r2, #0, #1
ARM GAS  C:\Users\8bit\AppData\Local\Temp\ccClUhzi.s 			page 20


 568 0092 1A74     		strb	r2, [r3, #16]
 353:Service/Srv_DataHub.c ****     }
 569              		.loc 1 353 9 is_stmt 1 view .LVU201
 570              		.loc 1 355 1 is_stmt 0 view .LVU202
 571 0094 B7E7     		b	.L31
 572              	.L36:
 573 0096 00BF     		.align	2
 574              	.L35:
 575 0098 00000000 		.word	IMU_hub_DataPipe
 576 009c 00000000 		.word	.LANCHOR0
 577 00a0 00000000 		.word	.LANCHOR1
 578              		.cfi_endproc
 579              	.LFE152:
 581              		.section	.text.SrvDataHub_SensorState_DataPipe_Finish_Callback,"ax",%progbits
 582              		.align	1
 583              		.syntax unified
 584              		.thumb
 585              		.thumb_func
 587              	SrvDataHub_SensorState_DataPipe_Finish_Callback:
 588              	.LVL6:
 589              	.LFB153:
 356:Service/Srv_DataHub.c **** 
 357:Service/Srv_DataHub.c **** static void SrvDataHub_SensorState_DataPipe_Finish_Callback(DataPipeObj_TypeDef *obj)
 358:Service/Srv_DataHub.c **** {
 590              		.loc 1 358 1 is_stmt 1 view -0
 591              		.cfi_startproc
 592              		@ args = 0, pretend = 0, frame = 0
 593              		@ frame_needed = 0, uses_anonymous_args = 0
 594              		@ link register save eliminated.
 359:Service/Srv_DataHub.c ****     if((obj == &SensorInitState_hub_DataPipe) || (obj == &SensorEnableState_hub_DataPipe))
 595              		.loc 1 359 5 view .LVU204
 596              		.loc 1 359 7 is_stmt 0 view .LVU205
 597 0000 3B4B     		ldr	r3, .L50
 598 0002 9842     		cmp	r0, r3
 599 0004 02D0     		beq	.L38
 600              		.loc 1 359 47 discriminator 1 view .LVU206
 601 0006 3B4B     		ldr	r3, .L50+4
 602 0008 9842     		cmp	r0, r3
 603 000a 52D1     		bne	.L37
 604              	.L38:
 360:Service/Srv_DataHub.c ****     {
 361:Service/Srv_DataHub.c ****         SrvDataHub_Monitor.update_reg.bit.imu_init = true;
 605              		.loc 1 361 9 is_stmt 1 view .LVU207
 606              		.loc 1 361 52 is_stmt 0 view .LVU208
 607 000c 3A4B     		ldr	r3, .L50+8
 608 000e 9A7C     		ldrb	r2, [r3, #18]	@ zero_extendqisi2
 609 0010 42F08002 		orr	r2, r2, #128
 610 0014 9A74     		strb	r2, [r3, #18]
 362:Service/Srv_DataHub.c ****         SrvDataHub_Monitor.update_reg.bit.mag_init = true;
 611              		.loc 1 362 9 is_stmt 1 view .LVU209
 612              		.loc 1 362 52 is_stmt 0 view .LVU210
 613 0016 D2B2     		uxtb	r2, r2
 614 0018 42F04002 		orr	r2, r2, #64
 615 001c 9A74     		strb	r2, [r3, #18]
 363:Service/Srv_DataHub.c ****         SrvDataHub_Monitor.update_reg.bit.baro_init = true;
 616              		.loc 1 363 9 is_stmt 1 view .LVU211
 617              		.loc 1 363 53 is_stmt 0 view .LVU212
ARM GAS  C:\Users\8bit\AppData\Local\Temp\ccClUhzi.s 			page 21


 618 001e DA7C     		ldrb	r2, [r3, #19]	@ zero_extendqisi2
 619 0020 42F00102 		orr	r2, r2, #1
 620 0024 DA74     		strb	r2, [r3, #19]
 364:Service/Srv_DataHub.c **** 
 365:Service/Srv_DataHub.c ****         if (SrvDataHub_Monitor.inuse_reg.bit.imu_init)
 621              		.loc 1 365 9 is_stmt 1 view .LVU213
 622              		.loc 1 365 12 is_stmt 0 view .LVU214
 623 0026 93F90A30 		ldrsb	r3, [r3, #10]
 624 002a 002B     		cmp	r3, #0
 625 002c 42DB     		blt	.L48
 626              	.L40:
 366:Service/Srv_DataHub.c ****             SrvDataHub_Monitor.inuse_reg.bit.imu_init = false;
 367:Service/Srv_DataHub.c **** 
 368:Service/Srv_DataHub.c ****         if (SrvDataHub_Monitor.inuse_reg.bit.mag_init)
 627              		.loc 1 368 9 is_stmt 1 view .LVU215
 628              		.loc 1 368 13 is_stmt 0 view .LVU216
 629 002e 324B     		ldr	r3, .L50+8
 630 0030 9B7A     		ldrb	r3, [r3, #10]	@ zero_extendqisi2
 631              		.loc 1 368 12 view .LVU217
 632 0032 13F0400F 		tst	r3, #64
 633 0036 04D0     		beq	.L41
 369:Service/Srv_DataHub.c ****             SrvDataHub_Monitor.inuse_reg.bit.mag_init = false;
 634              		.loc 1 369 13 is_stmt 1 view .LVU218
 635              		.loc 1 369 55 is_stmt 0 view .LVU219
 636 0038 2F4B     		ldr	r3, .L50+8
 637 003a 9A7A     		ldrb	r2, [r3, #10]	@ zero_extendqisi2
 638 003c 6FF38612 		bfc	r2, #6, #1
 639 0040 9A72     		strb	r2, [r3, #10]
 640              	.L41:
 370:Service/Srv_DataHub.c **** 
 371:Service/Srv_DataHub.c ****         if (SrvDataHub_Monitor.inuse_reg.bit.baro_init)
 641              		.loc 1 371 9 is_stmt 1 view .LVU220
 642              		.loc 1 371 13 is_stmt 0 view .LVU221
 643 0042 2D4B     		ldr	r3, .L50+8
 644 0044 DB7A     		ldrb	r3, [r3, #11]	@ zero_extendqisi2
 645              		.loc 1 371 12 view .LVU222
 646 0046 13F0010F 		tst	r3, #1
 647 004a 04D0     		beq	.L42
 372:Service/Srv_DataHub.c ****             SrvDataHub_Monitor.inuse_reg.bit.baro_init = false;
 648              		.loc 1 372 13 is_stmt 1 view .LVU223
 649              		.loc 1 372 56 is_stmt 0 view .LVU224
 650 004c 2A4B     		ldr	r3, .L50+8
 651 004e DA7A     		ldrb	r2, [r3, #11]	@ zero_extendqisi2
 652 0050 6FF30002 		bfc	r2, #0, #1
 653 0054 DA72     		strb	r2, [r3, #11]
 654              	.L42:
 373:Service/Srv_DataHub.c **** 
 374:Service/Srv_DataHub.c ****         if(obj == &SensorEnableState_hub_DataPipe)
 655              		.loc 1 374 9 is_stmt 1 view .LVU225
 656              		.loc 1 374 11 is_stmt 0 view .LVU226
 657 0056 274B     		ldr	r3, .L50+4
 658 0058 9842     		cmp	r0, r3
 659 005a 31D0     		beq	.L49
 375:Service/Srv_DataHub.c ****         {
 376:Service/Srv_DataHub.c ****             SrvDataHub_Monitor.data.mag_enabled = DataPipe_DataObj(Sensor_Enable).bit.mag;
 377:Service/Srv_DataHub.c ****             SrvDataHub_Monitor.data.baro_enabled = DataPipe_DataObj(Sensor_Enable).bit.baro;
 378:Service/Srv_DataHub.c ****         }
ARM GAS  C:\Users\8bit\AppData\Local\Temp\ccClUhzi.s 			page 22


 379:Service/Srv_DataHub.c ****         else
 380:Service/Srv_DataHub.c ****         {
 381:Service/Srv_DataHub.c ****             SrvDataHub_Monitor.data.imu_init_state = DataPipe_DataObj(Sensor_Init).bit.imu;
 660              		.loc 1 381 13 is_stmt 1 view .LVU227
 661              		.loc 1 381 87 is_stmt 0 view .LVU228
 662 005c 274B     		ldr	r3, .L50+12
 663 005e 93F8A830 		ldrb	r3, [r3, #168]	@ zero_extendqisi2
 664 0062 C3F30003 		ubfx	r3, r3, #0, #1
 665              		.loc 1 381 52 view .LVU229
 666 0066 244A     		ldr	r2, .L50+8
 667 0068 1376     		strb	r3, [r2, #24]
 382:Service/Srv_DataHub.c ****             
 383:Service/Srv_DataHub.c ****             if(SrvDataHub_Monitor.data.mag_enabled)
 668              		.loc 1 383 13 is_stmt 1 view .LVU230
 669              		.loc 1 383 39 is_stmt 0 view .LVU231
 670 006a 92F86930 		ldrb	r3, [r2, #105]	@ zero_extendqisi2
 671              		.loc 1 383 15 view .LVU232
 672 006e 002B     		cmp	r3, #0
 673 0070 33D0     		beq	.L45
 384:Service/Srv_DataHub.c ****             {
 385:Service/Srv_DataHub.c ****                 SrvDataHub_Monitor.data.mag_init_state = DataPipe_DataObj(Sensor_Init).bit.mag;
 674              		.loc 1 385 17 is_stmt 1 view .LVU233
 675              		.loc 1 385 91 is_stmt 0 view .LVU234
 676 0072 224B     		ldr	r3, .L50+12
 677 0074 93F8A830 		ldrb	r3, [r3, #168]	@ zero_extendqisi2
 678 0078 C3F34003 		ubfx	r3, r3, #1, #1
 679              		.loc 1 385 56 view .LVU235
 680 007c 82F86A30 		strb	r3, [r2, #106]
 681              	.L46:
 386:Service/Srv_DataHub.c ****             }
 387:Service/Srv_DataHub.c ****             else
 388:Service/Srv_DataHub.c ****                 SrvDataHub_Monitor.data.mag_init_state = false;
 389:Service/Srv_DataHub.c **** 
 390:Service/Srv_DataHub.c ****             if(SrvDataHub_Monitor.data.baro_enabled)
 682              		.loc 1 390 13 is_stmt 1 view .LVU236
 683              		.loc 1 390 39 is_stmt 0 view .LVU237
 684 0080 1D4B     		ldr	r3, .L50+8
 685 0082 93F89130 		ldrb	r3, [r3, #145]	@ zero_extendqisi2
 686              		.loc 1 390 15 view .LVU238
 687 0086 6BB3     		cbz	r3, .L47
 391:Service/Srv_DataHub.c ****             {
 392:Service/Srv_DataHub.c ****                 SrvDataHub_Monitor.data.baro_init_state = DataPipe_DataObj(Sensor_Init).bit.baro;
 688              		.loc 1 392 17 is_stmt 1 view .LVU239
 689              		.loc 1 392 92 is_stmt 0 view .LVU240
 690 0088 1C4B     		ldr	r3, .L50+12
 691 008a 93F8A830 		ldrb	r3, [r3, #168]	@ zero_extendqisi2
 692 008e C3F38003 		ubfx	r3, r3, #2, #1
 693              		.loc 1 392 57 view .LVU241
 694 0092 194A     		ldr	r2, .L50+8
 695 0094 82F89230 		strb	r3, [r2, #146]
 696              	.L44:
 393:Service/Srv_DataHub.c ****             }
 394:Service/Srv_DataHub.c ****             else
 395:Service/Srv_DataHub.c ****                 SrvDataHub_Monitor.data.baro_init_state = false;
 396:Service/Srv_DataHub.c ****         }
 397:Service/Srv_DataHub.c **** 
 398:Service/Srv_DataHub.c ****         SrvDataHub_Monitor.update_reg.bit.imu_init = false;
ARM GAS  C:\Users\8bit\AppData\Local\Temp\ccClUhzi.s 			page 23


 697              		.loc 1 398 9 is_stmt 1 view .LVU242
 698              		.loc 1 398 52 is_stmt 0 view .LVU243
 699 0098 174B     		ldr	r3, .L50+8
 700 009a 9A7C     		ldrb	r2, [r3, #18]	@ zero_extendqisi2
 701 009c 6FF3C712 		bfc	r2, #7, #1
 702 00a0 9A74     		strb	r2, [r3, #18]
 399:Service/Srv_DataHub.c ****         SrvDataHub_Monitor.update_reg.bit.mag_init = false;
 703              		.loc 1 399 9 is_stmt 1 view .LVU244
 704              		.loc 1 399 52 is_stmt 0 view .LVU245
 705 00a2 D2B2     		uxtb	r2, r2
 706 00a4 6FF38612 		bfc	r2, #6, #1
 707 00a8 9A74     		strb	r2, [r3, #18]
 400:Service/Srv_DataHub.c ****         SrvDataHub_Monitor.update_reg.bit.baro_init = false;
 708              		.loc 1 400 9 is_stmt 1 view .LVU246
 709              		.loc 1 400 53 is_stmt 0 view .LVU247
 710 00aa DA7C     		ldrb	r2, [r3, #19]	@ zero_extendqisi2
 711 00ac 6FF30002 		bfc	r2, #0, #1
 712 00b0 DA74     		strb	r2, [r3, #19]
 713              	.L37:
 401:Service/Srv_DataHub.c ****     }
 402:Service/Srv_DataHub.c **** }
 714              		.loc 1 402 1 view .LVU248
 715 00b2 7047     		bx	lr
 716              	.L48:
 366:Service/Srv_DataHub.c **** 
 717              		.loc 1 366 13 is_stmt 1 view .LVU249
 366:Service/Srv_DataHub.c **** 
 718              		.loc 1 366 55 is_stmt 0 view .LVU250
 719 00b4 104B     		ldr	r3, .L50+8
 720 00b6 9A7A     		ldrb	r2, [r3, #10]	@ zero_extendqisi2
 721 00b8 6FF3C712 		bfc	r2, #7, #1
 722 00bc 9A72     		strb	r2, [r3, #10]
 723 00be B6E7     		b	.L40
 724              	.L49:
 376:Service/Srv_DataHub.c ****             SrvDataHub_Monitor.data.baro_enabled = DataPipe_DataObj(Sensor_Enable).bit.baro;
 725              		.loc 1 376 13 is_stmt 1 view .LVU251
 376:Service/Srv_DataHub.c ****             SrvDataHub_Monitor.data.baro_enabled = DataPipe_DataObj(Sensor_Enable).bit.baro;
 726              		.loc 1 376 86 is_stmt 0 view .LVU252
 727 00c0 0E4B     		ldr	r3, .L50+12
 728 00c2 93F8A430 		ldrb	r3, [r3, #164]	@ zero_extendqisi2
 729 00c6 C3F34001 		ubfx	r1, r3, #1, #1
 376:Service/Srv_DataHub.c ****             SrvDataHub_Monitor.data.baro_enabled = DataPipe_DataObj(Sensor_Enable).bit.baro;
 730              		.loc 1 376 49 view .LVU253
 731 00ca 0B4A     		ldr	r2, .L50+8
 732 00cc 82F86910 		strb	r1, [r2, #105]
 377:Service/Srv_DataHub.c ****         }
 733              		.loc 1 377 13 is_stmt 1 view .LVU254
 377:Service/Srv_DataHub.c ****         }
 734              		.loc 1 377 87 is_stmt 0 view .LVU255
 735 00d0 C3F38003 		ubfx	r3, r3, #2, #1
 377:Service/Srv_DataHub.c ****         }
 736              		.loc 1 377 50 view .LVU256
 737 00d4 82F89130 		strb	r3, [r2, #145]
 738 00d8 DEE7     		b	.L44
 739              	.L45:
 388:Service/Srv_DataHub.c **** 
 740              		.loc 1 388 17 is_stmt 1 view .LVU257
ARM GAS  C:\Users\8bit\AppData\Local\Temp\ccClUhzi.s 			page 24


 388:Service/Srv_DataHub.c **** 
 741              		.loc 1 388 56 is_stmt 0 view .LVU258
 742 00da 074B     		ldr	r3, .L50+8
 743 00dc 0022     		movs	r2, #0
 744 00de 83F86A20 		strb	r2, [r3, #106]
 745 00e2 CDE7     		b	.L46
 746              	.L47:
 395:Service/Srv_DataHub.c ****         }
 747              		.loc 1 395 17 is_stmt 1 view .LVU259
 395:Service/Srv_DataHub.c ****         }
 748              		.loc 1 395 57 is_stmt 0 view .LVU260
 749 00e4 044B     		ldr	r3, .L50+8
 750 00e6 0022     		movs	r2, #0
 751 00e8 83F89220 		strb	r2, [r3, #146]
 752 00ec D4E7     		b	.L44
 753              	.L51:
 754 00ee 00BF     		.align	2
 755              	.L50:
 756 00f0 00000000 		.word	SensorInitState_hub_DataPipe
 757 00f4 00000000 		.word	SensorEnableState_hub_DataPipe
 758 00f8 00000000 		.word	.LANCHOR0
 759 00fc 00000000 		.word	.LANCHOR1
 760              		.cfi_endproc
 761              	.LFE153:
 763              		.section	.text.SrvDataHub_PipeRcTelemtryDataFinish_Callback,"ax",%progbits
 764              		.align	1
 765              		.syntax unified
 766              		.thumb
 767              		.thumb_func
 769              	SrvDataHub_PipeRcTelemtryDataFinish_Callback:
 770              	.LVL7:
 771              	.LFB154:
 403:Service/Srv_DataHub.c **** 
 404:Service/Srv_DataHub.c **** static void SrvDataHub_PipeRcTelemtryDataFinish_Callback(DataPipeObj_TypeDef *obj)
 405:Service/Srv_DataHub.c **** {
 772              		.loc 1 405 1 is_stmt 1 view -0
 773              		.cfi_startproc
 774              		@ args = 0, pretend = 0, frame = 0
 775              		@ frame_needed = 0, uses_anonymous_args = 0
 406:Service/Srv_DataHub.c ****     if ((!SrvDataHub_Monitor.init_state) || (obj == NULL))
 776              		.loc 1 406 5 view .LVU262
 777              		.loc 1 406 29 is_stmt 0 view .LVU263
 778 0000 114B     		ldr	r3, .L60
 779 0002 1B78     		ldrb	r3, [r3]	@ zero_extendqisi2
 780              		.loc 1 406 8 view .LVU264
 781 0004 1BB1     		cbz	r3, .L56
 782              		.loc 1 406 42 discriminator 1 view .LVU265
 783 0006 10B1     		cbz	r0, .L56
 407:Service/Srv_DataHub.c ****         return;
 408:Service/Srv_DataHub.c **** 
 409:Service/Srv_DataHub.c ****     if (obj == &Receiver_hub_DataPipe)
 784              		.loc 1 409 5 is_stmt 1 view .LVU266
 785              		.loc 1 409 8 is_stmt 0 view .LVU267
 786 0008 104B     		ldr	r3, .L60+4
 787 000a 9842     		cmp	r0, r3
 788 000c 00D0     		beq	.L59
 789              	.L56:
ARM GAS  C:\Users\8bit\AppData\Local\Temp\ccClUhzi.s 			page 25


 790 000e 7047     		bx	lr
 791              	.L59:
 405:Service/Srv_DataHub.c ****     if ((!SrvDataHub_Monitor.init_state) || (obj == NULL))
 792              		.loc 1 405 1 view .LVU268
 793 0010 10B5     		push	{r4, lr}
 794              	.LCFI0:
 795              		.cfi_def_cfa_offset 8
 796              		.cfi_offset 4, -8
 797              		.cfi_offset 14, -4
 410:Service/Srv_DataHub.c ****     {
 411:Service/Srv_DataHub.c ****         SrvDataHub_Monitor.update_reg.bit.rc_control_data = true;
 798              		.loc 1 411 9 is_stmt 1 view .LVU269
 799              		.loc 1 411 59 is_stmt 0 view .LVU270
 800 0012 0D4B     		ldr	r3, .L60
 801 0014 9A7C     		ldrb	r2, [r3, #18]	@ zero_extendqisi2
 802 0016 42F00402 		orr	r2, r2, #4
 803 001a 9A74     		strb	r2, [r3, #18]
 412:Service/Srv_DataHub.c **** 
 413:Service/Srv_DataHub.c ****         if (SrvDataHub_Monitor.inuse_reg.bit.rc_control_data)
 804              		.loc 1 413 9 is_stmt 1 view .LVU271
 805              		.loc 1 413 13 is_stmt 0 view .LVU272
 806 001c 9B7A     		ldrb	r3, [r3, #10]	@ zero_extendqisi2
 807              		.loc 1 413 12 view .LVU273
 808 001e 13F0040F 		tst	r3, #4
 809 0022 04D0     		beq	.L54
 414:Service/Srv_DataHub.c ****             SrvDataHub_Monitor.inuse_reg.bit.rc_control_data = false;
 810              		.loc 1 414 13 is_stmt 1 view .LVU274
 811              		.loc 1 414 62 is_stmt 0 view .LVU275
 812 0024 084B     		ldr	r3, .L60
 813 0026 9A7A     		ldrb	r2, [r3, #10]	@ zero_extendqisi2
 814 0028 6FF38202 		bfc	r2, #2, #1
 815 002c 9A72     		strb	r2, [r3, #10]
 816              	.L54:
 415:Service/Srv_DataHub.c **** 
 416:Service/Srv_DataHub.c ****         SrvDataHub_Monitor.data.RC_Control_Data = DataPipe_DataObj(Hub_Telemetry_Rc);
 817              		.loc 1 416 9 is_stmt 1 view .LVU276
 818              		.loc 1 416 49 is_stmt 0 view .LVU277
 819 002e 064C     		ldr	r4, .L60
 820 0030 6422     		movs	r2, #100
 821 0032 0749     		ldr	r1, .L60+8
 822 0034 04F1DC00 		add	r0, r4, #220
 823              	.LVL8:
 824              		.loc 1 416 49 view .LVU278
 825 0038 FFF7FEFF 		bl	memcpy
 826              	.LVL9:
 417:Service/Srv_DataHub.c **** 
 418:Service/Srv_DataHub.c ****         SrvDataHub_Monitor.update_reg.bit.rc_control_data = false;
 827              		.loc 1 418 9 is_stmt 1 view .LVU279
 828              		.loc 1 418 59 is_stmt 0 view .LVU280
 829 003c A37C     		ldrb	r3, [r4, #18]	@ zero_extendqisi2
 830 003e 6FF38203 		bfc	r3, #2, #1
 831 0042 A374     		strb	r3, [r4, #18]
 419:Service/Srv_DataHub.c ****     }
 420:Service/Srv_DataHub.c **** }
 832              		.loc 1 420 1 view .LVU281
 833 0044 10BD     		pop	{r4, pc}
 834              	.L61:
ARM GAS  C:\Users\8bit\AppData\Local\Temp\ccClUhzi.s 			page 26


 835 0046 00BF     		.align	2
 836              	.L60:
 837 0048 00000000 		.word	.LANCHOR0
 838 004c 00000000 		.word	Receiver_hub_DataPipe
 839 0050 AC000000 		.word	.LANCHOR1+172
 840              		.cfi_endproc
 841              	.LFE154:
 843              		.section	.text.SrvDataHub_PipeConvertControlDataFinish_Callback,"ax",%progbits
 844              		.align	1
 845              		.syntax unified
 846              		.thumb
 847              		.thumb_func
 849              	SrvDataHub_PipeConvertControlDataFinish_Callback:
 850              	.LVL10:
 851              	.LFB155:
 421:Service/Srv_DataHub.c **** 
 422:Service/Srv_DataHub.c **** static void SrvDataHub_PipeConvertControlDataFinish_Callback(DataPipeObj_TypeDef *obj)
 423:Service/Srv_DataHub.c **** {
 852              		.loc 1 423 1 is_stmt 1 view -0
 853              		.cfi_startproc
 854              		@ args = 0, pretend = 0, frame = 0
 855              		@ frame_needed = 0, uses_anonymous_args = 0
 856              		.loc 1 423 1 is_stmt 0 view .LVU283
 857 0000 08B5     		push	{r3, lr}
 858              	.LCFI1:
 859              		.cfi_def_cfa_offset 8
 860              		.cfi_offset 3, -8
 861              		.cfi_offset 14, -4
 424:Service/Srv_DataHub.c ****     if ((!SrvDataHub_Monitor.init_state) || (obj == NULL))
 862              		.loc 1 424 5 is_stmt 1 view .LVU284
 863              		.loc 1 424 29 is_stmt 0 view .LVU285
 864 0002 234B     		ldr	r3, .L67
 865 0004 1B78     		ldrb	r3, [r3]	@ zero_extendqisi2
 866              		.loc 1 424 8 view .LVU286
 867 0006 1BB1     		cbz	r3, .L62
 868              		.loc 1 424 42 discriminator 1 view .LVU287
 869 0008 10B1     		cbz	r0, .L62
 425:Service/Srv_DataHub.c ****         return;
 426:Service/Srv_DataHub.c **** 
 427:Service/Srv_DataHub.c ****     if (obj == &CtlData_hub_DataPipe)
 870              		.loc 1 427 5 is_stmt 1 view .LVU288
 871              		.loc 1 427 8 is_stmt 0 view .LVU289
 872 000a 224B     		ldr	r3, .L67+4
 873 000c 9842     		cmp	r0, r3
 874 000e 00D0     		beq	.L66
 875              	.LVL11:
 876              	.L62:
 428:Service/Srv_DataHub.c ****     {
 429:Service/Srv_DataHub.c ****         SrvDataHub_Monitor.update_reg.bit.cnv_control_data = true;
 430:Service/Srv_DataHub.c **** 
 431:Service/Srv_DataHub.c ****         if (SrvDataHub_Monitor.inuse_reg.bit.cnv_control_data)
 432:Service/Srv_DataHub.c ****             SrvDataHub_Monitor.inuse_reg.bit.cnv_control_data = false;
 433:Service/Srv_DataHub.c **** 
 434:Service/Srv_DataHub.c ****         SrvDataHub_Monitor.data.cnvctl_data_time = SrvOsCommon.get_os_ms();
 435:Service/Srv_DataHub.c ****         SrvDataHub_Monitor.data.arm = DataPipe_DataObj(Hub_Cnv_CtlData).arm;
 436:Service/Srv_DataHub.c ****         SrvDataHub_Monitor.data.throttle_percent = DataPipe_DataObj(Hub_Cnv_CtlData).throttle_perce
 437:Service/Srv_DataHub.c ****         SrvDataHub_Monitor.data.failsafe = DataPipe_DataObj(Hub_Cnv_CtlData).failsafe;
ARM GAS  C:\Users\8bit\AppData\Local\Temp\ccClUhzi.s 			page 27


 438:Service/Srv_DataHub.c ****         SrvDataHub_Monitor.data.ctl_mode = DataPipe_DataObj(Hub_Cnv_CtlData).control_mode;
 439:Service/Srv_DataHub.c ****         SrvDataHub_Monitor.data.exp_gyr_x = DataPipe_DataObj(Hub_Cnv_CtlData).gyr_x;
 440:Service/Srv_DataHub.c ****         SrvDataHub_Monitor.data.exp_gyr_y = DataPipe_DataObj(Hub_Cnv_CtlData).gyr_y;
 441:Service/Srv_DataHub.c ****         SrvDataHub_Monitor.data.exp_gyr_z = DataPipe_DataObj(Hub_Cnv_CtlData).gyr_z;
 442:Service/Srv_DataHub.c ****         SrvDataHub_Monitor.data.exp_pitch = DataPipe_DataObj(Hub_Cnv_CtlData).pitch;
 443:Service/Srv_DataHub.c ****         SrvDataHub_Monitor.data.exp_roll = DataPipe_DataObj(Hub_Cnv_CtlData).roll;
 444:Service/Srv_DataHub.c **** 
 445:Service/Srv_DataHub.c ****         SrvDataHub_Monitor.update_reg.bit.cnv_control_data = false;
 446:Service/Srv_DataHub.c ****     }
 447:Service/Srv_DataHub.c **** }
 877              		.loc 1 447 1 view .LVU290
 878 0010 08BD     		pop	{r3, pc}
 879              	.LVL12:
 880              	.L66:
 429:Service/Srv_DataHub.c **** 
 881              		.loc 1 429 9 is_stmt 1 view .LVU291
 429:Service/Srv_DataHub.c **** 
 882              		.loc 1 429 60 is_stmt 0 view .LVU292
 883 0012 1F4B     		ldr	r3, .L67
 884 0014 9A7C     		ldrb	r2, [r3, #18]	@ zero_extendqisi2
 885 0016 42F00202 		orr	r2, r2, #2
 886 001a 9A74     		strb	r2, [r3, #18]
 431:Service/Srv_DataHub.c ****             SrvDataHub_Monitor.inuse_reg.bit.cnv_control_data = false;
 887              		.loc 1 431 9 is_stmt 1 view .LVU293
 431:Service/Srv_DataHub.c ****             SrvDataHub_Monitor.inuse_reg.bit.cnv_control_data = false;
 888              		.loc 1 431 13 is_stmt 0 view .LVU294
 889 001c 9B7A     		ldrb	r3, [r3, #10]	@ zero_extendqisi2
 431:Service/Srv_DataHub.c ****             SrvDataHub_Monitor.inuse_reg.bit.cnv_control_data = false;
 890              		.loc 1 431 12 view .LVU295
 891 001e 13F0020F 		tst	r3, #2
 892 0022 04D0     		beq	.L64
 432:Service/Srv_DataHub.c **** 
 893              		.loc 1 432 13 is_stmt 1 view .LVU296
 432:Service/Srv_DataHub.c **** 
 894              		.loc 1 432 63 is_stmt 0 view .LVU297
 895 0024 1A4B     		ldr	r3, .L67
 896 0026 9A7A     		ldrb	r2, [r3, #10]	@ zero_extendqisi2
 897 0028 6FF34102 		bfc	r2, #1, #1
 898 002c 9A72     		strb	r2, [r3, #10]
 899              	.L64:
 434:Service/Srv_DataHub.c ****         SrvDataHub_Monitor.data.arm = DataPipe_DataObj(Hub_Cnv_CtlData).arm;
 900              		.loc 1 434 9 is_stmt 1 view .LVU298
 434:Service/Srv_DataHub.c ****         SrvDataHub_Monitor.data.arm = DataPipe_DataObj(Hub_Cnv_CtlData).arm;
 901              		.loc 1 434 63 is_stmt 0 view .LVU299
 902 002e 1A4B     		ldr	r3, .L67+8
 903 0030 1B68     		ldr	r3, [r3]
 434:Service/Srv_DataHub.c ****         SrvDataHub_Monitor.data.arm = DataPipe_DataObj(Hub_Cnv_CtlData).arm;
 904              		.loc 1 434 52 view .LVU300
 905 0032 9847     		blx	r3
 906              	.LVL13:
 434:Service/Srv_DataHub.c ****         SrvDataHub_Monitor.data.arm = DataPipe_DataObj(Hub_Cnv_CtlData).arm;
 907              		.loc 1 434 50 view .LVU301
 908 0034 164B     		ldr	r3, .L67
 909 0036 C3F84001 		str	r0, [r3, #320]
 435:Service/Srv_DataHub.c ****         SrvDataHub_Monitor.data.throttle_percent = DataPipe_DataObj(Hub_Cnv_CtlData).throttle_perce
 910              		.loc 1 435 9 is_stmt 1 view .LVU302
 435:Service/Srv_DataHub.c ****         SrvDataHub_Monitor.data.throttle_percent = DataPipe_DataObj(Hub_Cnv_CtlData).throttle_perce
ARM GAS  C:\Users\8bit\AppData\Local\Temp\ccClUhzi.s 			page 28


 911              		.loc 1 435 72 is_stmt 0 view .LVU303
 912 003a 184A     		ldr	r2, .L67+12
 913 003c 92F81411 		ldrb	r1, [r2, #276]	@ zero_extendqisi2
 435:Service/Srv_DataHub.c ****         SrvDataHub_Monitor.data.throttle_percent = DataPipe_DataObj(Hub_Cnv_CtlData).throttle_perce
 914              		.loc 1 435 37 view .LVU304
 915 0040 83F84411 		strb	r1, [r3, #324]
 436:Service/Srv_DataHub.c ****         SrvDataHub_Monitor.data.failsafe = DataPipe_DataObj(Hub_Cnv_CtlData).failsafe;
 916              		.loc 1 436 9 is_stmt 1 view .LVU305
 436:Service/Srv_DataHub.c ****         SrvDataHub_Monitor.data.failsafe = DataPipe_DataObj(Hub_Cnv_CtlData).failsafe;
 917              		.loc 1 436 85 is_stmt 0 view .LVU306
 918 0044 92F81711 		ldrb	r1, [r2, #279]	@ zero_extendqisi2
 436:Service/Srv_DataHub.c ****         SrvDataHub_Monitor.data.failsafe = DataPipe_DataObj(Hub_Cnv_CtlData).failsafe;
 919              		.loc 1 436 50 view .LVU307
 920 0048 83F84711 		strb	r1, [r3, #327]
 437:Service/Srv_DataHub.c ****         SrvDataHub_Monitor.data.ctl_mode = DataPipe_DataObj(Hub_Cnv_CtlData).control_mode;
 921              		.loc 1 437 9 is_stmt 1 view .LVU308
 437:Service/Srv_DataHub.c ****         SrvDataHub_Monitor.data.ctl_mode = DataPipe_DataObj(Hub_Cnv_CtlData).control_mode;
 922              		.loc 1 437 77 is_stmt 0 view .LVU309
 923 004c 92F81511 		ldrb	r1, [r2, #277]	@ zero_extendqisi2
 437:Service/Srv_DataHub.c ****         SrvDataHub_Monitor.data.ctl_mode = DataPipe_DataObj(Hub_Cnv_CtlData).control_mode;
 924              		.loc 1 437 42 view .LVU310
 925 0050 83F84511 		strb	r1, [r3, #325]
 438:Service/Srv_DataHub.c ****         SrvDataHub_Monitor.data.exp_gyr_x = DataPipe_DataObj(Hub_Cnv_CtlData).gyr_x;
 926              		.loc 1 438 9 is_stmt 1 view .LVU311
 438:Service/Srv_DataHub.c ****         SrvDataHub_Monitor.data.exp_gyr_x = DataPipe_DataObj(Hub_Cnv_CtlData).gyr_x;
 927              		.loc 1 438 77 is_stmt 0 view .LVU312
 928 0054 92F81611 		ldrb	r1, [r2, #278]	@ zero_extendqisi2
 438:Service/Srv_DataHub.c ****         SrvDataHub_Monitor.data.exp_gyr_x = DataPipe_DataObj(Hub_Cnv_CtlData).gyr_x;
 929              		.loc 1 438 42 view .LVU313
 930 0058 83F84611 		strb	r1, [r3, #326]
 439:Service/Srv_DataHub.c ****         SrvDataHub_Monitor.data.exp_gyr_y = DataPipe_DataObj(Hub_Cnv_CtlData).gyr_y;
 931              		.loc 1 439 9 is_stmt 1 view .LVU314
 439:Service/Srv_DataHub.c ****         SrvDataHub_Monitor.data.exp_gyr_y = DataPipe_DataObj(Hub_Cnv_CtlData).gyr_y;
 932              		.loc 1 439 78 is_stmt 0 view .LVU315
 933 005c D2F82011 		ldr	r1, [r2, #288]	@ float
 439:Service/Srv_DataHub.c ****         SrvDataHub_Monitor.data.exp_gyr_y = DataPipe_DataObj(Hub_Cnv_CtlData).gyr_y;
 934              		.loc 1 439 43 view .LVU316
 935 0060 C3F85011 		str	r1, [r3, #336]	@ float
 440:Service/Srv_DataHub.c ****         SrvDataHub_Monitor.data.exp_gyr_z = DataPipe_DataObj(Hub_Cnv_CtlData).gyr_z;
 936              		.loc 1 440 9 is_stmt 1 view .LVU317
 440:Service/Srv_DataHub.c ****         SrvDataHub_Monitor.data.exp_gyr_z = DataPipe_DataObj(Hub_Cnv_CtlData).gyr_z;
 937              		.loc 1 440 78 is_stmt 0 view .LVU318
 938 0064 D2F82411 		ldr	r1, [r2, #292]	@ float
 440:Service/Srv_DataHub.c ****         SrvDataHub_Monitor.data.exp_gyr_z = DataPipe_DataObj(Hub_Cnv_CtlData).gyr_z;
 939              		.loc 1 440 43 view .LVU319
 940 0068 C3F85411 		str	r1, [r3, #340]	@ float
 441:Service/Srv_DataHub.c ****         SrvDataHub_Monitor.data.exp_pitch = DataPipe_DataObj(Hub_Cnv_CtlData).pitch;
 941              		.loc 1 441 9 is_stmt 1 view .LVU320
 441:Service/Srv_DataHub.c ****         SrvDataHub_Monitor.data.exp_pitch = DataPipe_DataObj(Hub_Cnv_CtlData).pitch;
 942              		.loc 1 441 78 is_stmt 0 view .LVU321
 943 006c D2F82811 		ldr	r1, [r2, #296]	@ float
 441:Service/Srv_DataHub.c ****         SrvDataHub_Monitor.data.exp_pitch = DataPipe_DataObj(Hub_Cnv_CtlData).pitch;
 944              		.loc 1 441 43 view .LVU322
 945 0070 C3F85811 		str	r1, [r3, #344]	@ float
 442:Service/Srv_DataHub.c ****         SrvDataHub_Monitor.data.exp_roll = DataPipe_DataObj(Hub_Cnv_CtlData).roll;
 946              		.loc 1 442 9 is_stmt 1 view .LVU323
 442:Service/Srv_DataHub.c ****         SrvDataHub_Monitor.data.exp_roll = DataPipe_DataObj(Hub_Cnv_CtlData).roll;
ARM GAS  C:\Users\8bit\AppData\Local\Temp\ccClUhzi.s 			page 29


 947              		.loc 1 442 78 is_stmt 0 view .LVU324
 948 0074 D2F81811 		ldr	r1, [r2, #280]	@ float
 442:Service/Srv_DataHub.c ****         SrvDataHub_Monitor.data.exp_roll = DataPipe_DataObj(Hub_Cnv_CtlData).roll;
 949              		.loc 1 442 43 view .LVU325
 950 0078 C3F84811 		str	r1, [r3, #328]	@ float
 443:Service/Srv_DataHub.c **** 
 951              		.loc 1 443 9 is_stmt 1 view .LVU326
 443:Service/Srv_DataHub.c **** 
 952              		.loc 1 443 77 is_stmt 0 view .LVU327
 953 007c D2F81C21 		ldr	r2, [r2, #284]	@ float
 443:Service/Srv_DataHub.c **** 
 954              		.loc 1 443 42 view .LVU328
 955 0080 C3F84C21 		str	r2, [r3, #332]	@ float
 445:Service/Srv_DataHub.c ****     }
 956              		.loc 1 445 9 is_stmt 1 view .LVU329
 445:Service/Srv_DataHub.c ****     }
 957              		.loc 1 445 60 is_stmt 0 view .LVU330
 958 0084 9A7C     		ldrb	r2, [r3, #18]	@ zero_extendqisi2
 959 0086 6FF34102 		bfc	r2, #1, #1
 960 008a 9A74     		strb	r2, [r3, #18]
 961 008c C0E7     		b	.L62
 962              	.L68:
 963 008e 00BF     		.align	2
 964              	.L67:
 965 0090 00000000 		.word	.LANCHOR0
 966 0094 00000000 		.word	CtlData_hub_DataPipe
 967 0098 00000000 		.word	SrvOsCommon
 968 009c 00000000 		.word	.LANCHOR1
 969              		.cfi_endproc
 970              	.LFE155:
 972              		.section	.text.SrvDataHub_Get_PriIMU_Range,"ax",%progbits
 973              		.align	1
 974              		.syntax unified
 975              		.thumb
 976              		.thumb_func
 978              	SrvDataHub_Get_PriIMU_Range:
 979              	.LVL14:
 980              	.LFB156:
 448:Service/Srv_DataHub.c **** 
 449:Service/Srv_DataHub.c **** static bool SrvDataHub_Get_PriIMU_Range(uint8_t *acc_range, uint16_t *gyr_range)
 450:Service/Srv_DataHub.c **** {
 981              		.loc 1 450 1 is_stmt 1 view -0
 982              		.cfi_startproc
 983              		@ args = 0, pretend = 0, frame = 0
 984              		@ frame_needed = 0, uses_anonymous_args = 0
 985              		@ link register save eliminated.
 451:Service/Srv_DataHub.c ****     if(acc_range && gyr_range)
 986              		.loc 1 451 5 view .LVU332
 987              		.loc 1 451 7 is_stmt 0 view .LVU333
 988 0000 8446     		mov	ip, r0
 989 0002 B0B1     		cbz	r0, .L72
 990              		.loc 1 451 18 discriminator 1 view .LVU334
 991 0004 B9B1     		cbz	r1, .L73
 992              	.L71:
 452:Service/Srv_DataHub.c ****     {
 453:Service/Srv_DataHub.c **** reupdate_pri_imu_range:
 454:Service/Srv_DataHub.c ****         SrvDataHub_Monitor.inuse_reg.bit.range_imu = true;
ARM GAS  C:\Users\8bit\AppData\Local\Temp\ccClUhzi.s 			page 30


 993              		.loc 1 454 9 is_stmt 1 view .LVU335
 994              		.loc 1 454 52 is_stmt 0 view .LVU336
 995 0006 0D4B     		ldr	r3, .L74
 996 0008 1A7A     		ldrb	r2, [r3, #8]	@ zero_extendqisi2
 997 000a 42F00402 		orr	r2, r2, #4
 998 000e 1A72     		strb	r2, [r3, #8]
 455:Service/Srv_DataHub.c **** 
 456:Service/Srv_DataHub.c ****         (*acc_range) = SrvDataHub_Monitor.data.pri_acc_range;
 999              		.loc 1 456 9 is_stmt 1 view .LVU337
 1000              		.loc 1 456 47 is_stmt 0 view .LVU338
 1001 0010 93F82A20 		ldrb	r2, [r3, #42]	@ zero_extendqisi2
 1002              		.loc 1 456 22 view .LVU339
 1003 0014 8CF80020 		strb	r2, [ip]
 457:Service/Srv_DataHub.c ****         (*gyr_range) = SrvDataHub_Monitor.data.pri_gyr_range;
 1004              		.loc 1 457 9 is_stmt 1 view .LVU340
 1005              		.loc 1 457 47 is_stmt 0 view .LVU341
 1006 0018 9A8D     		ldrh	r2, [r3, #44]
 1007              		.loc 1 457 22 view .LVU342
 1008 001a 0A80     		strh	r2, [r1]	@ movhi
 458:Service/Srv_DataHub.c **** 
 459:Service/Srv_DataHub.c ****         if(!SrvDataHub_Monitor.inuse_reg.bit.range_imu)
 1009              		.loc 1 459 9 is_stmt 1 view .LVU343
 1010              		.loc 1 459 12 is_stmt 0 view .LVU344
 1011 001c 1B7A     		ldrb	r3, [r3, #8]	@ zero_extendqisi2
 1012              		.loc 1 459 11 view .LVU345
 1013 001e 13F0040F 		tst	r3, #4
 1014 0022 F0D0     		beq	.L71
 460:Service/Srv_DataHub.c ****             goto reupdate_pri_imu_range;
 461:Service/Srv_DataHub.c **** 
 462:Service/Srv_DataHub.c ****         SrvDataHub_Monitor.inuse_reg.bit.range_imu = false;
 1015              		.loc 1 462 9 is_stmt 1 view .LVU346
 1016              		.loc 1 462 52 is_stmt 0 view .LVU347
 1017 0024 054B     		ldr	r3, .L74
 1018 0026 1A7A     		ldrb	r2, [r3, #8]	@ zero_extendqisi2
 1019 0028 6FF38202 		bfc	r2, #2, #1
 1020 002c 1A72     		strb	r2, [r3, #8]
 463:Service/Srv_DataHub.c **** 
 464:Service/Srv_DataHub.c ****         return true;
 1021              		.loc 1 464 9 is_stmt 1 view .LVU348
 1022              		.loc 1 464 16 is_stmt 0 view .LVU349
 1023 002e 0120     		movs	r0, #1
 1024              	.LVL15:
 1025              		.loc 1 464 16 view .LVU350
 1026 0030 7047     		bx	lr
 1027              	.LVL16:
 1028              	.L72:
 465:Service/Srv_DataHub.c ****     }
 466:Service/Srv_DataHub.c **** 
 467:Service/Srv_DataHub.c ****     return false;
 1029              		.loc 1 467 12 view .LVU351
 1030 0032 0020     		movs	r0, #0
 1031              	.LVL17:
 1032              		.loc 1 467 12 view .LVU352
 1033 0034 7047     		bx	lr
 1034              	.LVL18:
 1035              	.L73:
 1036              		.loc 1 467 12 view .LVU353
ARM GAS  C:\Users\8bit\AppData\Local\Temp\ccClUhzi.s 			page 31


 1037 0036 0020     		movs	r0, #0
 1038              	.LVL19:
 468:Service/Srv_DataHub.c **** }
 1039              		.loc 1 468 1 view .LVU354
 1040 0038 7047     		bx	lr
 1041              	.L75:
 1042 003a 00BF     		.align	2
 1043              	.L74:
 1044 003c 00000000 		.word	.LANCHOR0
 1045              		.cfi_endproc
 1046              	.LFE156:
 1048              		.section	.text.SrvDataHub_Get_SecIMU_Range,"ax",%progbits
 1049              		.align	1
 1050              		.syntax unified
 1051              		.thumb
 1052              		.thumb_func
 1054              	SrvDataHub_Get_SecIMU_Range:
 1055              	.LVL20:
 1056              	.LFB157:
 469:Service/Srv_DataHub.c **** 
 470:Service/Srv_DataHub.c **** static bool SrvDataHub_Get_SecIMU_Range(uint8_t *acc_range, uint16_t *gyr_range)
 471:Service/Srv_DataHub.c **** {
 1057              		.loc 1 471 1 is_stmt 1 view -0
 1058              		.cfi_startproc
 1059              		@ args = 0, pretend = 0, frame = 0
 1060              		@ frame_needed = 0, uses_anonymous_args = 0
 1061              		@ link register save eliminated.
 472:Service/Srv_DataHub.c ****     if(acc_range && gyr_range)
 1062              		.loc 1 472 5 view .LVU356
 1063              		.loc 1 472 7 is_stmt 0 view .LVU357
 1064 0000 0346     		mov	r3, r0
 1065 0002 30B1     		cbz	r0, .L77
 1066              		.loc 1 472 18 discriminator 1 view .LVU358
 1067 0004 29B1     		cbz	r1, .L77
 473:Service/Srv_DataHub.c ****     {
 474:Service/Srv_DataHub.c ****         (*acc_range) = SrvDataHub_Monitor.data.sec_acc_range;
 1068              		.loc 1 474 9 is_stmt 1 view .LVU359
 1069              		.loc 1 474 47 is_stmt 0 view .LVU360
 1070 0006 044A     		ldr	r2, .L78
 1071 0008 92F82E00 		ldrb	r0, [r2, #46]	@ zero_extendqisi2
 1072              	.LVL21:
 1073              		.loc 1 474 22 view .LVU361
 1074 000c 1870     		strb	r0, [r3]
 475:Service/Srv_DataHub.c ****         (*gyr_range) = SrvDataHub_Monitor.data.sec_gyr_range;
 1075              		.loc 1 475 9 is_stmt 1 view .LVU362
 1076              		.loc 1 475 47 is_stmt 0 view .LVU363
 1077 000e 138E     		ldrh	r3, [r2, #48]
 1078              	.LVL22:
 1079              		.loc 1 475 22 view .LVU364
 1080 0010 0B80     		strh	r3, [r1]	@ movhi
 1081              	.L77:
 476:Service/Srv_DataHub.c ****     }
 477:Service/Srv_DataHub.c **** 
 478:Service/Srv_DataHub.c ****     return true; 
 1082              		.loc 1 478 5 is_stmt 1 view .LVU365
 479:Service/Srv_DataHub.c **** }
 1083              		.loc 1 479 1 is_stmt 0 view .LVU366
ARM GAS  C:\Users\8bit\AppData\Local\Temp\ccClUhzi.s 			page 32


 1084 0012 0120     		movs	r0, #1
 1085 0014 7047     		bx	lr
 1086              	.L79:
 1087 0016 00BF     		.align	2
 1088              	.L78:
 1089 0018 00000000 		.word	.LANCHOR0
 1090              		.cfi_endproc
 1091              	.LFE157:
 1093              		.section	.text.SrvDataHub_Get_Raw_IMU,"ax",%progbits
 1094              		.align	1
 1095              		.syntax unified
 1096              		.thumb
 1097              		.thumb_func
 1099              	SrvDataHub_Get_Raw_IMU:
 1100              	.LVL23:
 1101              	.LFB158:
 480:Service/Srv_DataHub.c **** 
 481:Service/Srv_DataHub.c **** static bool SrvDataHub_Get_Raw_IMU(uint32_t *time_stamp, float *acc_scale, float *gyr_scale, float 
 482:Service/Srv_DataHub.c **** {
 1102              		.loc 1 482 1 is_stmt 1 view -0
 1103              		.cfi_startproc
 1104              		@ args = 28, pretend = 0, frame = 0
 1105              		@ frame_needed = 0, uses_anonymous_args = 0
 1106              		.loc 1 482 1 is_stmt 0 view .LVU368
 1107 0000 2DE9F04F 		push	{r4, r5, r6, r7, r8, r9, r10, fp, lr}
 1108              	.LCFI2:
 1109              		.cfi_def_cfa_offset 36
 1110              		.cfi_offset 4, -36
 1111              		.cfi_offset 5, -32
 1112              		.cfi_offset 6, -28
 1113              		.cfi_offset 7, -24
 1114              		.cfi_offset 8, -20
 1115              		.cfi_offset 9, -16
 1116              		.cfi_offset 10, -12
 1117              		.cfi_offset 11, -8
 1118              		.cfi_offset 14, -4
 1119 0004 DDF82490 		ldr	r9, [sp, #36]
 1120 0008 DDF82880 		ldr	r8, [sp, #40]
 1121 000c DDF82CE0 		ldr	lr, [sp, #44]
 1122 0010 0C9F     		ldr	r7, [sp, #48]
 1123 0012 0D9E     		ldr	r6, [sp, #52]
 1124 0014 0E9D     		ldr	r5, [sp, #56]
 1125 0016 DDF83CB0 		ldr	fp, [sp, #60]
 1126 001a 0CE0     		b	.L81
 1127              	.L95:
 483:Service/Srv_DataHub.c **** reupdate_raw_imu:
 484:Service/Srv_DataHub.c ****     SrvDataHub_Monitor.inuse_reg.bit.raw_imu = true;
 485:Service/Srv_DataHub.c **** 
 486:Service/Srv_DataHub.c ****     if (time_stamp)
 487:Service/Srv_DataHub.c ****         *time_stamp = SrvDataHub_Monitor.data.imu_update_time;
 488:Service/Srv_DataHub.c ****     
 489:Service/Srv_DataHub.c ****     if (acc_scale)
 490:Service/Srv_DataHub.c ****         *acc_scale = SrvDataHub_Monitor.data.acc_scale;
 491:Service/Srv_DataHub.c ****     
 492:Service/Srv_DataHub.c ****     if (gyr_scale)
 493:Service/Srv_DataHub.c ****         *gyr_scale = SrvDataHub_Monitor.data.gyr_scale;
 494:Service/Srv_DataHub.c ****     
ARM GAS  C:\Users\8bit\AppData\Local\Temp\ccClUhzi.s 			page 33


 495:Service/Srv_DataHub.c ****     if (acc_x)
 496:Service/Srv_DataHub.c ****         *acc_x = SrvDataHub_Monitor.data.org_acc_x;
 497:Service/Srv_DataHub.c ****     
 498:Service/Srv_DataHub.c ****     if (acc_y)
 499:Service/Srv_DataHub.c ****         *acc_y = SrvDataHub_Monitor.data.org_acc_y;
 500:Service/Srv_DataHub.c ****     
 501:Service/Srv_DataHub.c ****     if (acc_z)
 502:Service/Srv_DataHub.c ****         *acc_z = SrvDataHub_Monitor.data.org_acc_z;
 503:Service/Srv_DataHub.c ****     
 504:Service/Srv_DataHub.c ****     if (gyr_x)
 505:Service/Srv_DataHub.c ****         *gyr_x = SrvDataHub_Monitor.data.org_gyr_x;
 506:Service/Srv_DataHub.c ****     
 507:Service/Srv_DataHub.c ****     if (gyr_y)
 508:Service/Srv_DataHub.c ****         *gyr_y = SrvDataHub_Monitor.data.org_gyr_y;
 509:Service/Srv_DataHub.c ****     
 510:Service/Srv_DataHub.c ****     if (gyr_z)
 511:Service/Srv_DataHub.c ****         *gyr_z = SrvDataHub_Monitor.data.org_gyr_z;
 512:Service/Srv_DataHub.c ****     
 513:Service/Srv_DataHub.c ****     if (tmpr)
 514:Service/Srv_DataHub.c ****         *tmpr = SrvDataHub_Monitor.data.imu_temp;
 515:Service/Srv_DataHub.c ****     
 516:Service/Srv_DataHub.c ****     if (err)
 517:Service/Srv_DataHub.c ****         *err = SrvDataHub_Monitor.data.imu_error_code;
 1128              		.loc 1 517 9 is_stmt 1 view .LVU369
 1129              		.loc 1 517 39 is_stmt 0 view .LVU370
 1130 001c DFF8D0C0 		ldr	ip, .L96
 1131 0020 9CF868C0 		ldrb	ip, [ip, #104]	@ zero_extendqisi2
 1132              		.loc 1 517 14 view .LVU371
 1133 0024 8BF800C0 		strb	ip, [fp]
 1134              	.L92:
 518:Service/Srv_DataHub.c **** 
 519:Service/Srv_DataHub.c ****     if (!SrvDataHub_Monitor.inuse_reg.bit.raw_imu)
 1135              		.loc 1 519 5 is_stmt 1 view .LVU372
 1136              		.loc 1 519 9 is_stmt 0 view .LVU373
 1137 0028 DFF8C4C0 		ldr	ip, .L96
 1138 002c 9CF808C0 		ldrb	ip, [ip, #8]	@ zero_extendqisi2
 1139              		.loc 1 519 8 view .LVU374
 1140 0030 1CF0010F 		tst	ip, #1
 1141 0034 54D1     		bne	.L94
 1142              	.L81:
 484:Service/Srv_DataHub.c **** 
 1143              		.loc 1 484 5 is_stmt 1 view .LVU375
 484:Service/Srv_DataHub.c **** 
 1144              		.loc 1 484 46 is_stmt 0 view .LVU376
 1145 0036 DFF8B8A0 		ldr	r10, .L96
 1146 003a 9AF808C0 		ldrb	ip, [r10, #8]	@ zero_extendqisi2
 1147 003e 4CF0010C 		orr	ip, ip, #1
 1148 0042 8AF808C0 		strb	ip, [r10, #8]
 486:Service/Srv_DataHub.c ****         *time_stamp = SrvDataHub_Monitor.data.imu_update_time;
 1149              		.loc 1 486 5 is_stmt 1 view .LVU377
 486:Service/Srv_DataHub.c ****         *time_stamp = SrvDataHub_Monitor.data.imu_update_time;
 1150              		.loc 1 486 8 is_stmt 0 view .LVU378
 1151 0046 10B1     		cbz	r0, .L82
 487:Service/Srv_DataHub.c ****     
 1152              		.loc 1 487 9 is_stmt 1 view .LVU379
 487:Service/Srv_DataHub.c ****     
 1153              		.loc 1 487 46 is_stmt 0 view .LVU380
ARM GAS  C:\Users\8bit\AppData\Local\Temp\ccClUhzi.s 			page 34


 1154 0048 DAF81C40 		ldr	r4, [r10, #28]
 1155 004c 0460     		str	r4, [r0]
 1156              	.L82:
 489:Service/Srv_DataHub.c ****         *acc_scale = SrvDataHub_Monitor.data.acc_scale;
 1157              		.loc 1 489 5 is_stmt 1 view .LVU381
 489:Service/Srv_DataHub.c ****         *acc_scale = SrvDataHub_Monitor.data.acc_scale;
 1158              		.loc 1 489 8 is_stmt 0 view .LVU382
 1159 004e 29B1     		cbz	r1, .L83
 490:Service/Srv_DataHub.c ****     
 1160              		.loc 1 490 9 is_stmt 1 view .LVU383
 490:Service/Srv_DataHub.c ****     
 1161              		.loc 1 490 45 is_stmt 0 view .LVU384
 1162 0050 DFF89CC0 		ldr	ip, .L96
 1163 0054 DCF820C0 		ldr	ip, [ip, #32]	@ float
 490:Service/Srv_DataHub.c ****     
 1164              		.loc 1 490 20 view .LVU385
 1165 0058 C1F800C0 		str	ip, [r1]	@ float
 1166              	.L83:
 492:Service/Srv_DataHub.c ****         *gyr_scale = SrvDataHub_Monitor.data.gyr_scale;
 1167              		.loc 1 492 5 is_stmt 1 view .LVU386
 492:Service/Srv_DataHub.c ****         *gyr_scale = SrvDataHub_Monitor.data.gyr_scale;
 1168              		.loc 1 492 8 is_stmt 0 view .LVU387
 1169 005c 2AB1     		cbz	r2, .L84
 493:Service/Srv_DataHub.c ****     
 1170              		.loc 1 493 9 is_stmt 1 view .LVU388
 493:Service/Srv_DataHub.c ****     
 1171              		.loc 1 493 45 is_stmt 0 view .LVU389
 1172 005e DFF890C0 		ldr	ip, .L96
 1173 0062 DCF824C0 		ldr	ip, [ip, #36]	@ float
 493:Service/Srv_DataHub.c ****     
 1174              		.loc 1 493 20 view .LVU390
 1175 0066 C2F800C0 		str	ip, [r2]	@ float
 1176              	.L84:
 495:Service/Srv_DataHub.c ****         *acc_x = SrvDataHub_Monitor.data.org_acc_x;
 1177              		.loc 1 495 5 is_stmt 1 view .LVU391
 495:Service/Srv_DataHub.c ****         *acc_x = SrvDataHub_Monitor.data.org_acc_x;
 1178              		.loc 1 495 8 is_stmt 0 view .LVU392
 1179 006a 2BB1     		cbz	r3, .L85
 496:Service/Srv_DataHub.c ****     
 1180              		.loc 1 496 9 is_stmt 1 view .LVU393
 496:Service/Srv_DataHub.c ****     
 1181              		.loc 1 496 41 is_stmt 0 view .LVU394
 1182 006c DFF880C0 		ldr	ip, .L96
 1183 0070 DCF858C0 		ldr	ip, [ip, #88]	@ float
 496:Service/Srv_DataHub.c ****     
 1184              		.loc 1 496 16 view .LVU395
 1185 0074 C3F800C0 		str	ip, [r3]	@ float
 1186              	.L85:
 498:Service/Srv_DataHub.c ****         *acc_y = SrvDataHub_Monitor.data.org_acc_y;
 1187              		.loc 1 498 5 is_stmt 1 view .LVU396
 498:Service/Srv_DataHub.c ****         *acc_y = SrvDataHub_Monitor.data.org_acc_y;
 1188              		.loc 1 498 8 is_stmt 0 view .LVU397
 1189 0078 B9F1000F 		cmp	r9, #0
 1190 007c 05D0     		beq	.L86
 499:Service/Srv_DataHub.c ****     
 1191              		.loc 1 499 9 is_stmt 1 view .LVU398
 499:Service/Srv_DataHub.c ****     
ARM GAS  C:\Users\8bit\AppData\Local\Temp\ccClUhzi.s 			page 35


 1192              		.loc 1 499 41 is_stmt 0 view .LVU399
 1193 007e DFF870C0 		ldr	ip, .L96
 1194 0082 DCF85CC0 		ldr	ip, [ip, #92]	@ float
 499:Service/Srv_DataHub.c ****     
 1195              		.loc 1 499 16 view .LVU400
 1196 0086 C9F800C0 		str	ip, [r9]	@ float
 1197              	.L86:
 501:Service/Srv_DataHub.c ****         *acc_z = SrvDataHub_Monitor.data.org_acc_z;
 1198              		.loc 1 501 5 is_stmt 1 view .LVU401
 501:Service/Srv_DataHub.c ****         *acc_z = SrvDataHub_Monitor.data.org_acc_z;
 1199              		.loc 1 501 8 is_stmt 0 view .LVU402
 1200 008a B8F1000F 		cmp	r8, #0
 1201 008e 05D0     		beq	.L87
 502:Service/Srv_DataHub.c ****     
 1202              		.loc 1 502 9 is_stmt 1 view .LVU403
 502:Service/Srv_DataHub.c ****     
 1203              		.loc 1 502 41 is_stmt 0 view .LVU404
 1204 0090 DFF85CC0 		ldr	ip, .L96
 1205 0094 DCF860C0 		ldr	ip, [ip, #96]	@ float
 502:Service/Srv_DataHub.c ****     
 1206              		.loc 1 502 16 view .LVU405
 1207 0098 C8F800C0 		str	ip, [r8]	@ float
 1208              	.L87:
 504:Service/Srv_DataHub.c ****         *gyr_x = SrvDataHub_Monitor.data.org_gyr_x;
 1209              		.loc 1 504 5 is_stmt 1 view .LVU406
 504:Service/Srv_DataHub.c ****         *gyr_x = SrvDataHub_Monitor.data.org_gyr_x;
 1210              		.loc 1 504 8 is_stmt 0 view .LVU407
 1211 009c BEF1000F 		cmp	lr, #0
 1212 00a0 05D0     		beq	.L88
 505:Service/Srv_DataHub.c ****     
 1213              		.loc 1 505 9 is_stmt 1 view .LVU408
 505:Service/Srv_DataHub.c ****     
 1214              		.loc 1 505 41 is_stmt 0 view .LVU409
 1215 00a2 DFF84CC0 		ldr	ip, .L96
 1216 00a6 DCF840C0 		ldr	ip, [ip, #64]	@ float
 505:Service/Srv_DataHub.c ****     
 1217              		.loc 1 505 16 view .LVU410
 1218 00aa CEF800C0 		str	ip, [lr]	@ float
 1219              	.L88:
 507:Service/Srv_DataHub.c ****         *gyr_y = SrvDataHub_Monitor.data.org_gyr_y;
 1220              		.loc 1 507 5 is_stmt 1 view .LVU411
 507:Service/Srv_DataHub.c ****         *gyr_y = SrvDataHub_Monitor.data.org_gyr_y;
 1221              		.loc 1 507 8 is_stmt 0 view .LVU412
 1222 00ae 2FB1     		cbz	r7, .L89
 508:Service/Srv_DataHub.c ****     
 1223              		.loc 1 508 9 is_stmt 1 view .LVU413
 508:Service/Srv_DataHub.c ****     
 1224              		.loc 1 508 41 is_stmt 0 view .LVU414
 1225 00b0 DFF83CC0 		ldr	ip, .L96
 1226 00b4 DCF844C0 		ldr	ip, [ip, #68]	@ float
 508:Service/Srv_DataHub.c ****     
 1227              		.loc 1 508 16 view .LVU415
 1228 00b8 C7F800C0 		str	ip, [r7]	@ float
 1229              	.L89:
 510:Service/Srv_DataHub.c ****         *gyr_z = SrvDataHub_Monitor.data.org_gyr_z;
 1230              		.loc 1 510 5 is_stmt 1 view .LVU416
 510:Service/Srv_DataHub.c ****         *gyr_z = SrvDataHub_Monitor.data.org_gyr_z;
ARM GAS  C:\Users\8bit\AppData\Local\Temp\ccClUhzi.s 			page 36


 1231              		.loc 1 510 8 is_stmt 0 view .LVU417
 1232 00bc 2EB1     		cbz	r6, .L90
 511:Service/Srv_DataHub.c ****     
 1233              		.loc 1 511 9 is_stmt 1 view .LVU418
 511:Service/Srv_DataHub.c ****     
 1234              		.loc 1 511 41 is_stmt 0 view .LVU419
 1235 00be DFF830C0 		ldr	ip, .L96
 1236 00c2 DCF848C0 		ldr	ip, [ip, #72]	@ float
 511:Service/Srv_DataHub.c ****     
 1237              		.loc 1 511 16 view .LVU420
 1238 00c6 C6F800C0 		str	ip, [r6]	@ float
 1239              	.L90:
 513:Service/Srv_DataHub.c ****         *tmpr = SrvDataHub_Monitor.data.imu_temp;
 1240              		.loc 1 513 5 is_stmt 1 view .LVU421
 513:Service/Srv_DataHub.c ****         *tmpr = SrvDataHub_Monitor.data.imu_temp;
 1241              		.loc 1 513 8 is_stmt 0 view .LVU422
 1242 00ca 2DB1     		cbz	r5, .L91
 514:Service/Srv_DataHub.c ****     
 1243              		.loc 1 514 9 is_stmt 1 view .LVU423
 514:Service/Srv_DataHub.c ****     
 1244              		.loc 1 514 40 is_stmt 0 view .LVU424
 1245 00cc DFF820C0 		ldr	ip, .L96
 1246 00d0 DCF864C0 		ldr	ip, [ip, #100]	@ float
 514:Service/Srv_DataHub.c ****     
 1247              		.loc 1 514 15 view .LVU425
 1248 00d4 C5F800C0 		str	ip, [r5]	@ float
 1249              	.L91:
 516:Service/Srv_DataHub.c ****         *err = SrvDataHub_Monitor.data.imu_error_code;
 1250              		.loc 1 516 5 is_stmt 1 view .LVU426
 516:Service/Srv_DataHub.c ****         *err = SrvDataHub_Monitor.data.imu_error_code;
 1251              		.loc 1 516 8 is_stmt 0 view .LVU427
 1252 00d8 BBF1000F 		cmp	fp, #0
 1253 00dc 9ED1     		bne	.L95
 1254 00de A3E7     		b	.L92
 1255              	.L94:
 520:Service/Srv_DataHub.c ****         goto reupdate_raw_imu;
 521:Service/Srv_DataHub.c **** 
 522:Service/Srv_DataHub.c ****     SrvDataHub_Monitor.inuse_reg.bit.raw_imu = false;
 1256              		.loc 1 522 5 is_stmt 1 view .LVU428
 1257              		.loc 1 522 46 is_stmt 0 view .LVU429
 1258 00e0 034B     		ldr	r3, .L96
 1259              	.LVL24:
 1260              		.loc 1 522 46 view .LVU430
 1261 00e2 1A7A     		ldrb	r2, [r3, #8]	@ zero_extendqisi2
 1262              	.LVL25:
 1263              		.loc 1 522 46 view .LVU431
 1264 00e4 6FF30002 		bfc	r2, #0, #1
 1265 00e8 1A72     		strb	r2, [r3, #8]
 523:Service/Srv_DataHub.c **** 
 524:Service/Srv_DataHub.c ****     return true;
 1266              		.loc 1 524 5 is_stmt 1 view .LVU432
 525:Service/Srv_DataHub.c **** }
 1267              		.loc 1 525 1 is_stmt 0 view .LVU433
 1268 00ea 0120     		movs	r0, #1
 1269              	.LVL26:
 1270              		.loc 1 525 1 view .LVU434
 1271 00ec BDE8F08F 		pop	{r4, r5, r6, r7, r8, r9, r10, fp, pc}
ARM GAS  C:\Users\8bit\AppData\Local\Temp\ccClUhzi.s 			page 37


 1272              	.LVL27:
 1273              	.L97:
 1274              		.loc 1 525 1 view .LVU435
 1275              		.align	2
 1276              	.L96:
 1277 00f0 00000000 		.word	.LANCHOR0
 1278              		.cfi_endproc
 1279              	.LFE158:
 1281              		.section	.text.SrvDataHub_Get_Scaled_IMU,"ax",%progbits
 1282              		.align	1
 1283              		.syntax unified
 1284              		.thumb
 1285              		.thumb_func
 1287              	SrvDataHub_Get_Scaled_IMU:
 1288              	.LVL28:
 1289              	.LFB159:
 526:Service/Srv_DataHub.c **** 
 527:Service/Srv_DataHub.c **** static bool SrvDataHub_Get_Scaled_IMU(uint32_t *time_stamp, float *acc_scale, float *gyr_scale, flo
 528:Service/Srv_DataHub.c **** {
 1290              		.loc 1 528 1 is_stmt 1 view -0
 1291              		.cfi_startproc
 1292              		@ args = 28, pretend = 0, frame = 0
 1293              		@ frame_needed = 0, uses_anonymous_args = 0
 1294              		.loc 1 528 1 is_stmt 0 view .LVU437
 1295 0000 2DE9F04F 		push	{r4, r5, r6, r7, r8, r9, r10, fp, lr}
 1296              	.LCFI3:
 1297              		.cfi_def_cfa_offset 36
 1298              		.cfi_offset 4, -36
 1299              		.cfi_offset 5, -32
 1300              		.cfi_offset 6, -28
 1301              		.cfi_offset 7, -24
 1302              		.cfi_offset 8, -20
 1303              		.cfi_offset 9, -16
 1304              		.cfi_offset 10, -12
 1305              		.cfi_offset 11, -8
 1306              		.cfi_offset 14, -4
 1307 0004 DDF82490 		ldr	r9, [sp, #36]
 1308 0008 DDF82880 		ldr	r8, [sp, #40]
 1309 000c DDF82CE0 		ldr	lr, [sp, #44]
 1310 0010 0C9F     		ldr	r7, [sp, #48]
 1311 0012 0D9E     		ldr	r6, [sp, #52]
 1312 0014 0E9D     		ldr	r5, [sp, #56]
 1313 0016 DDF83CB0 		ldr	fp, [sp, #60]
 1314 001a 0CE0     		b	.L99
 1315              	.L113:
 529:Service/Srv_DataHub.c **** reupdate_scaled_imu:
 530:Service/Srv_DataHub.c ****     SrvDataHub_Monitor.inuse_reg.bit.scaled_imu = true;
 531:Service/Srv_DataHub.c **** 
 532:Service/Srv_DataHub.c ****     if (time_stamp)
 533:Service/Srv_DataHub.c ****         *time_stamp = SrvDataHub_Monitor.data.imu_update_time; 
 534:Service/Srv_DataHub.c ****     
 535:Service/Srv_DataHub.c ****     if (acc_scale)
 536:Service/Srv_DataHub.c ****         *acc_scale = SrvDataHub_Monitor.data.acc_scale;
 537:Service/Srv_DataHub.c ****     
 538:Service/Srv_DataHub.c ****     if (gyr_scale)
 539:Service/Srv_DataHub.c ****         *gyr_scale = SrvDataHub_Monitor.data.gyr_scale;
 540:Service/Srv_DataHub.c ****     
ARM GAS  C:\Users\8bit\AppData\Local\Temp\ccClUhzi.s 			page 38


 541:Service/Srv_DataHub.c ****     if (acc_x)
 542:Service/Srv_DataHub.c ****         *acc_x = SrvDataHub_Monitor.data.flt_acc_x;
 543:Service/Srv_DataHub.c ****     
 544:Service/Srv_DataHub.c ****     if (acc_y)
 545:Service/Srv_DataHub.c ****         *acc_y = SrvDataHub_Monitor.data.flt_acc_y;
 546:Service/Srv_DataHub.c ****     
 547:Service/Srv_DataHub.c ****     if (acc_z)
 548:Service/Srv_DataHub.c ****         *acc_z = SrvDataHub_Monitor.data.flt_acc_z;
 549:Service/Srv_DataHub.c ****     
 550:Service/Srv_DataHub.c ****     if (gyr_x)
 551:Service/Srv_DataHub.c ****         *gyr_x = SrvDataHub_Monitor.data.flt_gyr_x;
 552:Service/Srv_DataHub.c ****     
 553:Service/Srv_DataHub.c ****     if (gyr_y)
 554:Service/Srv_DataHub.c ****         *gyr_y = SrvDataHub_Monitor.data.flt_gyr_y;
 555:Service/Srv_DataHub.c ****     
 556:Service/Srv_DataHub.c ****     if (gyr_z)
 557:Service/Srv_DataHub.c ****         *gyr_z = SrvDataHub_Monitor.data.flt_gyr_z;
 558:Service/Srv_DataHub.c ****     
 559:Service/Srv_DataHub.c ****     if (tmpr)
 560:Service/Srv_DataHub.c ****         *tmpr = SrvDataHub_Monitor.data.imu_temp;
 561:Service/Srv_DataHub.c ****     
 562:Service/Srv_DataHub.c ****     if (err)
 563:Service/Srv_DataHub.c ****         *err = SrvDataHub_Monitor.data.imu_error_code;
 1316              		.loc 1 563 9 is_stmt 1 view .LVU438
 1317              		.loc 1 563 39 is_stmt 0 view .LVU439
 1318 001c DFF8D0C0 		ldr	ip, .L114
 1319 0020 9CF868C0 		ldrb	ip, [ip, #104]	@ zero_extendqisi2
 1320              		.loc 1 563 14 view .LVU440
 1321 0024 8BF800C0 		strb	ip, [fp]
 1322              	.L110:
 564:Service/Srv_DataHub.c **** 
 565:Service/Srv_DataHub.c ****     if (!SrvDataHub_Monitor.inuse_reg.bit.scaled_imu)
 1323              		.loc 1 565 5 is_stmt 1 view .LVU441
 1324              		.loc 1 565 9 is_stmt 0 view .LVU442
 1325 0028 DFF8C4C0 		ldr	ip, .L114
 1326 002c 9CF808C0 		ldrb	ip, [ip, #8]	@ zero_extendqisi2
 1327              		.loc 1 565 8 view .LVU443
 1328 0030 1CF0020F 		tst	ip, #2
 1329 0034 54D1     		bne	.L112
 1330              	.L99:
 530:Service/Srv_DataHub.c **** 
 1331              		.loc 1 530 5 is_stmt 1 view .LVU444
 530:Service/Srv_DataHub.c **** 
 1332              		.loc 1 530 49 is_stmt 0 view .LVU445
 1333 0036 DFF8B8A0 		ldr	r10, .L114
 1334 003a 9AF808C0 		ldrb	ip, [r10, #8]	@ zero_extendqisi2
 1335 003e 4CF0020C 		orr	ip, ip, #2
 1336 0042 8AF808C0 		strb	ip, [r10, #8]
 532:Service/Srv_DataHub.c ****         *time_stamp = SrvDataHub_Monitor.data.imu_update_time; 
 1337              		.loc 1 532 5 is_stmt 1 view .LVU446
 532:Service/Srv_DataHub.c ****         *time_stamp = SrvDataHub_Monitor.data.imu_update_time; 
 1338              		.loc 1 532 8 is_stmt 0 view .LVU447
 1339 0046 10B1     		cbz	r0, .L100
 533:Service/Srv_DataHub.c ****     
 1340              		.loc 1 533 9 is_stmt 1 view .LVU448
 533:Service/Srv_DataHub.c ****     
 1341              		.loc 1 533 46 is_stmt 0 view .LVU449
ARM GAS  C:\Users\8bit\AppData\Local\Temp\ccClUhzi.s 			page 39


 1342 0048 DAF81C40 		ldr	r4, [r10, #28]
 1343 004c 0460     		str	r4, [r0]
 1344              	.L100:
 535:Service/Srv_DataHub.c ****         *acc_scale = SrvDataHub_Monitor.data.acc_scale;
 1345              		.loc 1 535 5 is_stmt 1 view .LVU450
 535:Service/Srv_DataHub.c ****         *acc_scale = SrvDataHub_Monitor.data.acc_scale;
 1346              		.loc 1 535 8 is_stmt 0 view .LVU451
 1347 004e 29B1     		cbz	r1, .L101
 536:Service/Srv_DataHub.c ****     
 1348              		.loc 1 536 9 is_stmt 1 view .LVU452
 536:Service/Srv_DataHub.c ****     
 1349              		.loc 1 536 45 is_stmt 0 view .LVU453
 1350 0050 DFF89CC0 		ldr	ip, .L114
 1351 0054 DCF820C0 		ldr	ip, [ip, #32]	@ float
 536:Service/Srv_DataHub.c ****     
 1352              		.loc 1 536 20 view .LVU454
 1353 0058 C1F800C0 		str	ip, [r1]	@ float
 1354              	.L101:
 538:Service/Srv_DataHub.c ****         *gyr_scale = SrvDataHub_Monitor.data.gyr_scale;
 1355              		.loc 1 538 5 is_stmt 1 view .LVU455
 538:Service/Srv_DataHub.c ****         *gyr_scale = SrvDataHub_Monitor.data.gyr_scale;
 1356              		.loc 1 538 8 is_stmt 0 view .LVU456
 1357 005c 2AB1     		cbz	r2, .L102
 539:Service/Srv_DataHub.c ****     
 1358              		.loc 1 539 9 is_stmt 1 view .LVU457
 539:Service/Srv_DataHub.c ****     
 1359              		.loc 1 539 45 is_stmt 0 view .LVU458
 1360 005e DFF890C0 		ldr	ip, .L114
 1361 0062 DCF824C0 		ldr	ip, [ip, #36]	@ float
 539:Service/Srv_DataHub.c ****     
 1362              		.loc 1 539 20 view .LVU459
 1363 0066 C2F800C0 		str	ip, [r2]	@ float
 1364              	.L102:
 541:Service/Srv_DataHub.c ****         *acc_x = SrvDataHub_Monitor.data.flt_acc_x;
 1365              		.loc 1 541 5 is_stmt 1 view .LVU460
 541:Service/Srv_DataHub.c ****         *acc_x = SrvDataHub_Monitor.data.flt_acc_x;
 1366              		.loc 1 541 8 is_stmt 0 view .LVU461
 1367 006a 2BB1     		cbz	r3, .L103
 542:Service/Srv_DataHub.c ****     
 1368              		.loc 1 542 9 is_stmt 1 view .LVU462
 542:Service/Srv_DataHub.c ****     
 1369              		.loc 1 542 41 is_stmt 0 view .LVU463
 1370 006c DFF880C0 		ldr	ip, .L114
 1371 0070 DCF84CC0 		ldr	ip, [ip, #76]	@ float
 542:Service/Srv_DataHub.c ****     
 1372              		.loc 1 542 16 view .LVU464
 1373 0074 C3F800C0 		str	ip, [r3]	@ float
 1374              	.L103:
 544:Service/Srv_DataHub.c ****         *acc_y = SrvDataHub_Monitor.data.flt_acc_y;
 1375              		.loc 1 544 5 is_stmt 1 view .LVU465
 544:Service/Srv_DataHub.c ****         *acc_y = SrvDataHub_Monitor.data.flt_acc_y;
 1376              		.loc 1 544 8 is_stmt 0 view .LVU466
 1377 0078 B9F1000F 		cmp	r9, #0
 1378 007c 05D0     		beq	.L104
 545:Service/Srv_DataHub.c ****     
 1379              		.loc 1 545 9 is_stmt 1 view .LVU467
 545:Service/Srv_DataHub.c ****     
ARM GAS  C:\Users\8bit\AppData\Local\Temp\ccClUhzi.s 			page 40


 1380              		.loc 1 545 41 is_stmt 0 view .LVU468
 1381 007e DFF870C0 		ldr	ip, .L114
 1382 0082 DCF850C0 		ldr	ip, [ip, #80]	@ float
 545:Service/Srv_DataHub.c ****     
 1383              		.loc 1 545 16 view .LVU469
 1384 0086 C9F800C0 		str	ip, [r9]	@ float
 1385              	.L104:
 547:Service/Srv_DataHub.c ****         *acc_z = SrvDataHub_Monitor.data.flt_acc_z;
 1386              		.loc 1 547 5 is_stmt 1 view .LVU470
 547:Service/Srv_DataHub.c ****         *acc_z = SrvDataHub_Monitor.data.flt_acc_z;
 1387              		.loc 1 547 8 is_stmt 0 view .LVU471
 1388 008a B8F1000F 		cmp	r8, #0
 1389 008e 05D0     		beq	.L105
 548:Service/Srv_DataHub.c ****     
 1390              		.loc 1 548 9 is_stmt 1 view .LVU472
 548:Service/Srv_DataHub.c ****     
 1391              		.loc 1 548 41 is_stmt 0 view .LVU473
 1392 0090 DFF85CC0 		ldr	ip, .L114
 1393 0094 DCF854C0 		ldr	ip, [ip, #84]	@ float
 548:Service/Srv_DataHub.c ****     
 1394              		.loc 1 548 16 view .LVU474
 1395 0098 C8F800C0 		str	ip, [r8]	@ float
 1396              	.L105:
 550:Service/Srv_DataHub.c ****         *gyr_x = SrvDataHub_Monitor.data.flt_gyr_x;
 1397              		.loc 1 550 5 is_stmt 1 view .LVU475
 550:Service/Srv_DataHub.c ****         *gyr_x = SrvDataHub_Monitor.data.flt_gyr_x;
 1398              		.loc 1 550 8 is_stmt 0 view .LVU476
 1399 009c BEF1000F 		cmp	lr, #0
 1400 00a0 05D0     		beq	.L106
 551:Service/Srv_DataHub.c ****     
 1401              		.loc 1 551 9 is_stmt 1 view .LVU477
 551:Service/Srv_DataHub.c ****     
 1402              		.loc 1 551 41 is_stmt 0 view .LVU478
 1403 00a2 DFF84CC0 		ldr	ip, .L114
 1404 00a6 DCF834C0 		ldr	ip, [ip, #52]	@ float
 551:Service/Srv_DataHub.c ****     
 1405              		.loc 1 551 16 view .LVU479
 1406 00aa CEF800C0 		str	ip, [lr]	@ float
 1407              	.L106:
 553:Service/Srv_DataHub.c ****         *gyr_y = SrvDataHub_Monitor.data.flt_gyr_y;
 1408              		.loc 1 553 5 is_stmt 1 view .LVU480
 553:Service/Srv_DataHub.c ****         *gyr_y = SrvDataHub_Monitor.data.flt_gyr_y;
 1409              		.loc 1 553 8 is_stmt 0 view .LVU481
 1410 00ae 2FB1     		cbz	r7, .L107
 554:Service/Srv_DataHub.c ****     
 1411              		.loc 1 554 9 is_stmt 1 view .LVU482
 554:Service/Srv_DataHub.c ****     
 1412              		.loc 1 554 41 is_stmt 0 view .LVU483
 1413 00b0 DFF83CC0 		ldr	ip, .L114
 1414 00b4 DCF838C0 		ldr	ip, [ip, #56]	@ float
 554:Service/Srv_DataHub.c ****     
 1415              		.loc 1 554 16 view .LVU484
 1416 00b8 C7F800C0 		str	ip, [r7]	@ float
 1417              	.L107:
 556:Service/Srv_DataHub.c ****         *gyr_z = SrvDataHub_Monitor.data.flt_gyr_z;
 1418              		.loc 1 556 5 is_stmt 1 view .LVU485
 556:Service/Srv_DataHub.c ****         *gyr_z = SrvDataHub_Monitor.data.flt_gyr_z;
ARM GAS  C:\Users\8bit\AppData\Local\Temp\ccClUhzi.s 			page 41


 1419              		.loc 1 556 8 is_stmt 0 view .LVU486
 1420 00bc 2EB1     		cbz	r6, .L108
 557:Service/Srv_DataHub.c ****     
 1421              		.loc 1 557 9 is_stmt 1 view .LVU487
 557:Service/Srv_DataHub.c ****     
 1422              		.loc 1 557 41 is_stmt 0 view .LVU488
 1423 00be DFF830C0 		ldr	ip, .L114
 1424 00c2 DCF83CC0 		ldr	ip, [ip, #60]	@ float
 557:Service/Srv_DataHub.c ****     
 1425              		.loc 1 557 16 view .LVU489
 1426 00c6 C6F800C0 		str	ip, [r6]	@ float
 1427              	.L108:
 559:Service/Srv_DataHub.c ****         *tmpr = SrvDataHub_Monitor.data.imu_temp;
 1428              		.loc 1 559 5 is_stmt 1 view .LVU490
 559:Service/Srv_DataHub.c ****         *tmpr = SrvDataHub_Monitor.data.imu_temp;
 1429              		.loc 1 559 8 is_stmt 0 view .LVU491
 1430 00ca 2DB1     		cbz	r5, .L109
 560:Service/Srv_DataHub.c ****     
 1431              		.loc 1 560 9 is_stmt 1 view .LVU492
 560:Service/Srv_DataHub.c ****     
 1432              		.loc 1 560 40 is_stmt 0 view .LVU493
 1433 00cc DFF820C0 		ldr	ip, .L114
 1434 00d0 DCF864C0 		ldr	ip, [ip, #100]	@ float
 560:Service/Srv_DataHub.c ****     
 1435              		.loc 1 560 15 view .LVU494
 1436 00d4 C5F800C0 		str	ip, [r5]	@ float
 1437              	.L109:
 562:Service/Srv_DataHub.c ****         *err = SrvDataHub_Monitor.data.imu_error_code;
 1438              		.loc 1 562 5 is_stmt 1 view .LVU495
 562:Service/Srv_DataHub.c ****         *err = SrvDataHub_Monitor.data.imu_error_code;
 1439              		.loc 1 562 8 is_stmt 0 view .LVU496
 1440 00d8 BBF1000F 		cmp	fp, #0
 1441 00dc 9ED1     		bne	.L113
 1442 00de A3E7     		b	.L110
 1443              	.L112:
 566:Service/Srv_DataHub.c ****         goto reupdate_scaled_imu;
 567:Service/Srv_DataHub.c **** 
 568:Service/Srv_DataHub.c ****     SrvDataHub_Monitor.inuse_reg.bit.scaled_imu = false;
 1444              		.loc 1 568 5 is_stmt 1 view .LVU497
 1445              		.loc 1 568 49 is_stmt 0 view .LVU498
 1446 00e0 034B     		ldr	r3, .L114
 1447              	.LVL29:
 1448              		.loc 1 568 49 view .LVU499
 1449 00e2 1A7A     		ldrb	r2, [r3, #8]	@ zero_extendqisi2
 1450              	.LVL30:
 1451              		.loc 1 568 49 view .LVU500
 1452 00e4 6FF34102 		bfc	r2, #1, #1
 1453 00e8 1A72     		strb	r2, [r3, #8]
 569:Service/Srv_DataHub.c **** 
 570:Service/Srv_DataHub.c ****     return true;
 1454              		.loc 1 570 5 is_stmt 1 view .LVU501
 571:Service/Srv_DataHub.c **** }
 1455              		.loc 1 571 1 is_stmt 0 view .LVU502
 1456 00ea 0120     		movs	r0, #1
 1457              	.LVL31:
 1458              		.loc 1 571 1 view .LVU503
 1459 00ec BDE8F08F 		pop	{r4, r5, r6, r7, r8, r9, r10, fp, pc}
ARM GAS  C:\Users\8bit\AppData\Local\Temp\ccClUhzi.s 			page 42


 1460              	.LVL32:
 1461              	.L115:
 1462              		.loc 1 571 1 view .LVU504
 1463              		.align	2
 1464              	.L114:
 1465 00f0 00000000 		.word	.LANCHOR0
 1466              		.cfi_endproc
 1467              	.LFE159:
 1469              		.section	.text.SrvDataHub_Get_Raw_Mag,"ax",%progbits
 1470              		.align	1
 1471              		.syntax unified
 1472              		.thumb
 1473              		.thumb_func
 1475              	SrvDataHub_Get_Raw_Mag:
 1476              	.LVL33:
 1477              	.LFB160:
 572:Service/Srv_DataHub.c **** 
 573:Service/Srv_DataHub.c **** static bool SrvDataHub_Get_Raw_Mag(uint32_t *time_stamp, float *scale, float *mag_x, float *mag_y, 
 574:Service/Srv_DataHub.c **** {
 1478              		.loc 1 574 1 is_stmt 1 view -0
 1479              		.cfi_startproc
 1480              		@ args = 8, pretend = 0, frame = 0
 1481              		@ frame_needed = 0, uses_anonymous_args = 0
 1482              		@ link register save eliminated.
 1483              		.loc 1 574 1 is_stmt 0 view .LVU506
 1484 0000 70B4     		push	{r4, r5, r6}
 1485              	.LCFI4:
 1486              		.cfi_def_cfa_offset 12
 1487              		.cfi_offset 4, -12
 1488              		.cfi_offset 5, -8
 1489              		.cfi_offset 6, -4
 1490 0002 039E     		ldr	r6, [sp, #12]
 1491 0004 049D     		ldr	r5, [sp, #16]
 1492 0006 08E0     		b	.L117
 1493              	.L126:
 575:Service/Srv_DataHub.c **** reupdate_raw_mag:
 576:Service/Srv_DataHub.c ****     SrvDataHub_Monitor.inuse_reg.bit.raw_mag = true;
 577:Service/Srv_DataHub.c **** 
 578:Service/Srv_DataHub.c ****     if (time_stamp)
 579:Service/Srv_DataHub.c ****         *time_stamp = SrvDataHub_Monitor.data.mag_update_time;
 580:Service/Srv_DataHub.c ****         
 581:Service/Srv_DataHub.c ****     if (scale)
 582:Service/Srv_DataHub.c ****         *scale = SrvDataHub_Monitor.data.mag_scale;
 583:Service/Srv_DataHub.c ****         
 584:Service/Srv_DataHub.c ****     if (mag_x)
 585:Service/Srv_DataHub.c ****         *mag_x = SrvDataHub_Monitor.data.org_mag_x;
 586:Service/Srv_DataHub.c ****         
 587:Service/Srv_DataHub.c ****     if (mag_y)
 588:Service/Srv_DataHub.c ****         *mag_y = SrvDataHub_Monitor.data.org_mag_y;
 589:Service/Srv_DataHub.c ****         
 590:Service/Srv_DataHub.c ****     if (mag_z)
 591:Service/Srv_DataHub.c ****         *mag_z = SrvDataHub_Monitor.data.org_mag_z;
 592:Service/Srv_DataHub.c ****         
 593:Service/Srv_DataHub.c ****     if (err)
 594:Service/Srv_DataHub.c ****         *err = SrvDataHub_Monitor.data.mag_error_code;
 1494              		.loc 1 594 9 is_stmt 1 view .LVU507
 1495              		.loc 1 594 39 is_stmt 0 view .LVU508
ARM GAS  C:\Users\8bit\AppData\Local\Temp\ccClUhzi.s 			page 43


 1496 0008 184C     		ldr	r4, .L127
 1497 000a 94F89040 		ldrb	r4, [r4, #144]	@ zero_extendqisi2
 1498              		.loc 1 594 14 view .LVU509
 1499 000e 2C70     		strb	r4, [r5]
 1500              	.L123:
 595:Service/Srv_DataHub.c **** 
 596:Service/Srv_DataHub.c ****     if (!SrvDataHub_Monitor.inuse_reg.bit.raw_mag)
 1501              		.loc 1 596 5 is_stmt 1 view .LVU510
 1502              		.loc 1 596 9 is_stmt 0 view .LVU511
 1503 0010 164C     		ldr	r4, .L127
 1504 0012 247A     		ldrb	r4, [r4, #8]	@ zero_extendqisi2
 1505              		.loc 1 596 8 view .LVU512
 1506 0014 14F0080F 		tst	r4, #8
 1507 0018 1FD1     		bne	.L125
 1508              	.L117:
 576:Service/Srv_DataHub.c **** 
 1509              		.loc 1 576 5 is_stmt 1 view .LVU513
 576:Service/Srv_DataHub.c **** 
 1510              		.loc 1 576 46 is_stmt 0 view .LVU514
 1511 001a 144C     		ldr	r4, .L127
 1512 001c 94F808C0 		ldrb	ip, [r4, #8]	@ zero_extendqisi2
 1513 0020 4CF0080C 		orr	ip, ip, #8
 1514 0024 84F808C0 		strb	ip, [r4, #8]
 578:Service/Srv_DataHub.c ****         *time_stamp = SrvDataHub_Monitor.data.mag_update_time;
 1515              		.loc 1 578 5 is_stmt 1 view .LVU515
 578:Service/Srv_DataHub.c ****         *time_stamp = SrvDataHub_Monitor.data.mag_update_time;
 1516              		.loc 1 578 8 is_stmt 0 view .LVU516
 1517 0028 08B1     		cbz	r0, .L118
 579:Service/Srv_DataHub.c ****         
 1518              		.loc 1 579 9 is_stmt 1 view .LVU517
 579:Service/Srv_DataHub.c ****         
 1519              		.loc 1 579 46 is_stmt 0 view .LVU518
 1520 002a E46E     		ldr	r4, [r4, #108]
 579:Service/Srv_DataHub.c ****         
 1521              		.loc 1 579 21 view .LVU519
 1522 002c 0460     		str	r4, [r0]
 1523              	.L118:
 581:Service/Srv_DataHub.c ****         *scale = SrvDataHub_Monitor.data.mag_scale;
 1524              		.loc 1 581 5 is_stmt 1 view .LVU520
 581:Service/Srv_DataHub.c ****         *scale = SrvDataHub_Monitor.data.mag_scale;
 1525              		.loc 1 581 8 is_stmt 0 view .LVU521
 1526 002e 11B1     		cbz	r1, .L119
 582:Service/Srv_DataHub.c ****         
 1527              		.loc 1 582 9 is_stmt 1 view .LVU522
 582:Service/Srv_DataHub.c ****         
 1528              		.loc 1 582 41 is_stmt 0 view .LVU523
 1529 0030 0E4C     		ldr	r4, .L127
 1530 0032 246F     		ldr	r4, [r4, #112]	@ float
 582:Service/Srv_DataHub.c ****         
 1531              		.loc 1 582 16 view .LVU524
 1532 0034 0C60     		str	r4, [r1]	@ float
 1533              	.L119:
 584:Service/Srv_DataHub.c ****         *mag_x = SrvDataHub_Monitor.data.org_mag_x;
 1534              		.loc 1 584 5 is_stmt 1 view .LVU525
 584:Service/Srv_DataHub.c ****         *mag_x = SrvDataHub_Monitor.data.org_mag_x;
 1535              		.loc 1 584 8 is_stmt 0 view .LVU526
 1536 0036 1AB1     		cbz	r2, .L120
ARM GAS  C:\Users\8bit\AppData\Local\Temp\ccClUhzi.s 			page 44


 585:Service/Srv_DataHub.c ****         
 1537              		.loc 1 585 9 is_stmt 1 view .LVU527
 585:Service/Srv_DataHub.c ****         
 1538              		.loc 1 585 41 is_stmt 0 view .LVU528
 1539 0038 0C4C     		ldr	r4, .L127
 1540 003a D4F88040 		ldr	r4, [r4, #128]	@ float
 585:Service/Srv_DataHub.c ****         
 1541              		.loc 1 585 16 view .LVU529
 1542 003e 1460     		str	r4, [r2]	@ float
 1543              	.L120:
 587:Service/Srv_DataHub.c ****         *mag_y = SrvDataHub_Monitor.data.org_mag_y;
 1544              		.loc 1 587 5 is_stmt 1 view .LVU530
 587:Service/Srv_DataHub.c ****         *mag_y = SrvDataHub_Monitor.data.org_mag_y;
 1545              		.loc 1 587 8 is_stmt 0 view .LVU531
 1546 0040 1BB1     		cbz	r3, .L121
 588:Service/Srv_DataHub.c ****         
 1547              		.loc 1 588 9 is_stmt 1 view .LVU532
 588:Service/Srv_DataHub.c ****         
 1548              		.loc 1 588 41 is_stmt 0 view .LVU533
 1549 0042 0A4C     		ldr	r4, .L127
 1550 0044 D4F88440 		ldr	r4, [r4, #132]	@ float
 588:Service/Srv_DataHub.c ****         
 1551              		.loc 1 588 16 view .LVU534
 1552 0048 1C60     		str	r4, [r3]	@ float
 1553              	.L121:
 590:Service/Srv_DataHub.c ****         *mag_z = SrvDataHub_Monitor.data.org_mag_z;
 1554              		.loc 1 590 5 is_stmt 1 view .LVU535
 590:Service/Srv_DataHub.c ****         *mag_z = SrvDataHub_Monitor.data.org_mag_z;
 1555              		.loc 1 590 8 is_stmt 0 view .LVU536
 1556 004a 1EB1     		cbz	r6, .L122
 591:Service/Srv_DataHub.c ****         
 1557              		.loc 1 591 9 is_stmt 1 view .LVU537
 591:Service/Srv_DataHub.c ****         
 1558              		.loc 1 591 41 is_stmt 0 view .LVU538
 1559 004c 074C     		ldr	r4, .L127
 1560 004e D4F88840 		ldr	r4, [r4, #136]	@ float
 591:Service/Srv_DataHub.c ****         
 1561              		.loc 1 591 16 view .LVU539
 1562 0052 3460     		str	r4, [r6]	@ float
 1563              	.L122:
 593:Service/Srv_DataHub.c ****         *err = SrvDataHub_Monitor.data.mag_error_code;
 1564              		.loc 1 593 5 is_stmt 1 view .LVU540
 593:Service/Srv_DataHub.c ****         *err = SrvDataHub_Monitor.data.mag_error_code;
 1565              		.loc 1 593 8 is_stmt 0 view .LVU541
 1566 0054 002D     		cmp	r5, #0
 1567 0056 D7D1     		bne	.L126
 1568 0058 DAE7     		b	.L123
 1569              	.L125:
 597:Service/Srv_DataHub.c ****         goto reupdate_raw_mag;
 598:Service/Srv_DataHub.c **** 
 599:Service/Srv_DataHub.c ****     SrvDataHub_Monitor.inuse_reg.bit.raw_mag = false;
 1570              		.loc 1 599 5 is_stmt 1 view .LVU542
 1571              		.loc 1 599 46 is_stmt 0 view .LVU543
 1572 005a 044B     		ldr	r3, .L127
 1573              	.LVL34:
 1574              		.loc 1 599 46 view .LVU544
 1575 005c 1A7A     		ldrb	r2, [r3, #8]	@ zero_extendqisi2
ARM GAS  C:\Users\8bit\AppData\Local\Temp\ccClUhzi.s 			page 45


 1576              	.LVL35:
 1577              		.loc 1 599 46 view .LVU545
 1578 005e 6FF3C302 		bfc	r2, #3, #1
 1579 0062 1A72     		strb	r2, [r3, #8]
 600:Service/Srv_DataHub.c ****     
 601:Service/Srv_DataHub.c ****     return true;
 1580              		.loc 1 601 5 is_stmt 1 view .LVU546
 602:Service/Srv_DataHub.c **** }
 1581              		.loc 1 602 1 is_stmt 0 view .LVU547
 1582 0064 0120     		movs	r0, #1
 1583              	.LVL36:
 1584              		.loc 1 602 1 view .LVU548
 1585 0066 70BC     		pop	{r4, r5, r6}
 1586              	.LCFI5:
 1587              		.cfi_restore 6
 1588              		.cfi_restore 5
 1589              		.cfi_restore 4
 1590              		.cfi_def_cfa_offset 0
 1591              	.LVL37:
 1592              		.loc 1 602 1 view .LVU549
 1593 0068 7047     		bx	lr
 1594              	.L128:
 1595 006a 00BF     		.align	2
 1596              	.L127:
 1597 006c 00000000 		.word	.LANCHOR0
 1598              		.cfi_endproc
 1599              	.LFE160:
 1601              		.section	.text.SrvDataHub_Get_Scaled_Baro,"ax",%progbits
 1602              		.align	1
 1603              		.syntax unified
 1604              		.thumb
 1605              		.thumb_func
 1607              	SrvDataHub_Get_Scaled_Baro:
 1608              	.LVL38:
 1609              	.LFB161:
 603:Service/Srv_DataHub.c **** 
 604:Service/Srv_DataHub.c **** static bool SrvDataHub_Get_Scaled_Baro(uint32_t *time_stamp, float *baro_pressure, float *baro_alt,
 605:Service/Srv_DataHub.c **** {
 1610              		.loc 1 605 1 is_stmt 1 view -0
 1611              		.cfi_startproc
 1612              		@ args = 8, pretend = 0, frame = 0
 1613              		@ frame_needed = 0, uses_anonymous_args = 0
 1614              		@ link register save eliminated.
 1615              		.loc 1 605 1 is_stmt 0 view .LVU551
 1616 0000 70B4     		push	{r4, r5, r6}
 1617              	.LCFI6:
 1618              		.cfi_def_cfa_offset 12
 1619              		.cfi_offset 4, -12
 1620              		.cfi_offset 5, -8
 1621              		.cfi_offset 6, -4
 1622 0002 039E     		ldr	r6, [sp, #12]
 1623 0004 049D     		ldr	r5, [sp, #16]
 1624 0006 08E0     		b	.L130
 1625              	.L139:
 606:Service/Srv_DataHub.c **** reupdate_scaled_baro:
 607:Service/Srv_DataHub.c ****     SrvDataHub_Monitor.inuse_reg.bit.scaled_baro = true;
 608:Service/Srv_DataHub.c **** 
ARM GAS  C:\Users\8bit\AppData\Local\Temp\ccClUhzi.s 			page 46


 609:Service/Srv_DataHub.c ****     if (time_stamp)
 610:Service/Srv_DataHub.c ****         *time_stamp = SrvDataHub_Monitor.data.baro_update_time;
 611:Service/Srv_DataHub.c ****     
 612:Service/Srv_DataHub.c ****     if (baro_pressure)
 613:Service/Srv_DataHub.c ****         *baro_pressure = SrvDataHub_Monitor.data.baro_pressure;
 614:Service/Srv_DataHub.c ****     
 615:Service/Srv_DataHub.c ****     if (baro_alt)
 616:Service/Srv_DataHub.c ****         *baro_alt = SrvDataHub_Monitor.data.baro_alt;
 617:Service/Srv_DataHub.c ****     
 618:Service/Srv_DataHub.c ****     if (baro_alt_offset)
 619:Service/Srv_DataHub.c ****         *baro_alt_offset = SrvDataHub_Monitor.data.baro_alt_offset;
 620:Service/Srv_DataHub.c ****     
 621:Service/Srv_DataHub.c ****     if (tempra)
 622:Service/Srv_DataHub.c ****         *tempra = SrvDataHub_Monitor.data.baro_tempra;
 623:Service/Srv_DataHub.c ****     
 624:Service/Srv_DataHub.c ****     if (error)
 625:Service/Srv_DataHub.c ****         *error = SrvDataHub_Monitor.data.baro_error_code;
 1626              		.loc 1 625 9 is_stmt 1 view .LVU552
 1627              		.loc 1 625 41 is_stmt 0 view .LVU553
 1628 0008 194C     		ldr	r4, .L140
 1629 000a 94F8AC40 		ldrb	r4, [r4, #172]	@ zero_extendqisi2
 1630              		.loc 1 625 16 view .LVU554
 1631 000e 2C70     		strb	r4, [r5]
 1632              	.L136:
 626:Service/Srv_DataHub.c **** 
 627:Service/Srv_DataHub.c ****     if(!SrvDataHub_Monitor.inuse_reg.bit.scaled_baro)
 1633              		.loc 1 627 5 is_stmt 1 view .LVU555
 1634              		.loc 1 627 8 is_stmt 0 view .LVU556
 1635 0010 174C     		ldr	r4, .L140
 1636 0012 247A     		ldrb	r4, [r4, #8]	@ zero_extendqisi2
 1637              		.loc 1 627 7 view .LVU557
 1638 0014 14F0400F 		tst	r4, #64
 1639 0018 21D1     		bne	.L138
 1640              	.L130:
 607:Service/Srv_DataHub.c **** 
 1641              		.loc 1 607 5 is_stmt 1 view .LVU558
 607:Service/Srv_DataHub.c **** 
 1642              		.loc 1 607 50 is_stmt 0 view .LVU559
 1643 001a 154C     		ldr	r4, .L140
 1644 001c 94F808C0 		ldrb	ip, [r4, #8]	@ zero_extendqisi2
 1645 0020 4CF0400C 		orr	ip, ip, #64
 1646 0024 84F808C0 		strb	ip, [r4, #8]
 609:Service/Srv_DataHub.c ****         *time_stamp = SrvDataHub_Monitor.data.baro_update_time;
 1647              		.loc 1 609 5 is_stmt 1 view .LVU560
 609:Service/Srv_DataHub.c ****         *time_stamp = SrvDataHub_Monitor.data.baro_update_time;
 1648              		.loc 1 609 8 is_stmt 0 view .LVU561
 1649 0028 10B1     		cbz	r0, .L131
 610:Service/Srv_DataHub.c ****     
 1650              		.loc 1 610 9 is_stmt 1 view .LVU562
 610:Service/Srv_DataHub.c ****     
 1651              		.loc 1 610 46 is_stmt 0 view .LVU563
 1652 002a D4F89440 		ldr	r4, [r4, #148]
 610:Service/Srv_DataHub.c ****     
 1653              		.loc 1 610 21 view .LVU564
 1654 002e 0460     		str	r4, [r0]
 1655              	.L131:
 612:Service/Srv_DataHub.c ****         *baro_pressure = SrvDataHub_Monitor.data.baro_pressure;
ARM GAS  C:\Users\8bit\AppData\Local\Temp\ccClUhzi.s 			page 47


 1656              		.loc 1 612 5 is_stmt 1 view .LVU565
 612:Service/Srv_DataHub.c ****         *baro_pressure = SrvDataHub_Monitor.data.baro_pressure;
 1657              		.loc 1 612 8 is_stmt 0 view .LVU566
 1658 0030 19B1     		cbz	r1, .L132
 613:Service/Srv_DataHub.c ****     
 1659              		.loc 1 613 9 is_stmt 1 view .LVU567
 613:Service/Srv_DataHub.c ****     
 1660              		.loc 1 613 49 is_stmt 0 view .LVU568
 1661 0032 0F4C     		ldr	r4, .L140
 1662 0034 D4F8A040 		ldr	r4, [r4, #160]	@ float
 613:Service/Srv_DataHub.c ****     
 1663              		.loc 1 613 24 view .LVU569
 1664 0038 0C60     		str	r4, [r1]	@ float
 1665              	.L132:
 615:Service/Srv_DataHub.c ****         *baro_alt = SrvDataHub_Monitor.data.baro_alt;
 1666              		.loc 1 615 5 is_stmt 1 view .LVU570
 615:Service/Srv_DataHub.c ****         *baro_alt = SrvDataHub_Monitor.data.baro_alt;
 1667              		.loc 1 615 8 is_stmt 0 view .LVU571
 1668 003a 1AB1     		cbz	r2, .L133
 616:Service/Srv_DataHub.c ****     
 1669              		.loc 1 616 9 is_stmt 1 view .LVU572
 616:Service/Srv_DataHub.c ****     
 1670              		.loc 1 616 44 is_stmt 0 view .LVU573
 1671 003c 0C4C     		ldr	r4, .L140
 1672 003e D4F89C40 		ldr	r4, [r4, #156]	@ float
 616:Service/Srv_DataHub.c ****     
 1673              		.loc 1 616 19 view .LVU574
 1674 0042 1460     		str	r4, [r2]	@ float
 1675              	.L133:
 618:Service/Srv_DataHub.c ****         *baro_alt_offset = SrvDataHub_Monitor.data.baro_alt_offset;
 1676              		.loc 1 618 5 is_stmt 1 view .LVU575
 618:Service/Srv_DataHub.c ****         *baro_alt_offset = SrvDataHub_Monitor.data.baro_alt_offset;
 1677              		.loc 1 618 8 is_stmt 0 view .LVU576
 1678 0044 1BB1     		cbz	r3, .L134
 619:Service/Srv_DataHub.c ****     
 1679              		.loc 1 619 9 is_stmt 1 view .LVU577
 619:Service/Srv_DataHub.c ****     
 1680              		.loc 1 619 51 is_stmt 0 view .LVU578
 1681 0046 0A4C     		ldr	r4, .L140
 1682 0048 D4F8A840 		ldr	r4, [r4, #168]	@ float
 619:Service/Srv_DataHub.c ****     
 1683              		.loc 1 619 26 view .LVU579
 1684 004c 1C60     		str	r4, [r3]	@ float
 1685              	.L134:
 621:Service/Srv_DataHub.c ****         *tempra = SrvDataHub_Monitor.data.baro_tempra;
 1686              		.loc 1 621 5 is_stmt 1 view .LVU580
 621:Service/Srv_DataHub.c ****         *tempra = SrvDataHub_Monitor.data.baro_tempra;
 1687              		.loc 1 621 8 is_stmt 0 view .LVU581
 1688 004e 1EB1     		cbz	r6, .L135
 622:Service/Srv_DataHub.c ****     
 1689              		.loc 1 622 9 is_stmt 1 view .LVU582
 622:Service/Srv_DataHub.c ****     
 1690              		.loc 1 622 42 is_stmt 0 view .LVU583
 1691 0050 074C     		ldr	r4, .L140
 1692 0052 D4F8A440 		ldr	r4, [r4, #164]	@ float
 622:Service/Srv_DataHub.c ****     
 1693              		.loc 1 622 17 view .LVU584
ARM GAS  C:\Users\8bit\AppData\Local\Temp\ccClUhzi.s 			page 48


 1694 0056 3460     		str	r4, [r6]	@ float
 1695              	.L135:
 624:Service/Srv_DataHub.c ****         *error = SrvDataHub_Monitor.data.baro_error_code;
 1696              		.loc 1 624 5 is_stmt 1 view .LVU585
 624:Service/Srv_DataHub.c ****         *error = SrvDataHub_Monitor.data.baro_error_code;
 1697              		.loc 1 624 8 is_stmt 0 view .LVU586
 1698 0058 002D     		cmp	r5, #0
 1699 005a D5D1     		bne	.L139
 1700 005c D8E7     		b	.L136
 1701              	.L138:
 628:Service/Srv_DataHub.c ****         goto reupdate_scaled_baro;
 629:Service/Srv_DataHub.c **** 
 630:Service/Srv_DataHub.c ****     SrvDataHub_Monitor.inuse_reg.bit.scaled_baro = false;
 1702              		.loc 1 630 5 is_stmt 1 view .LVU587
 1703              		.loc 1 630 50 is_stmt 0 view .LVU588
 1704 005e 044B     		ldr	r3, .L140
 1705              	.LVL39:
 1706              		.loc 1 630 50 view .LVU589
 1707 0060 1A7A     		ldrb	r2, [r3, #8]	@ zero_extendqisi2
 1708              	.LVL40:
 1709              		.loc 1 630 50 view .LVU590
 1710 0062 6FF38612 		bfc	r2, #6, #1
 1711 0066 1A72     		strb	r2, [r3, #8]
 631:Service/Srv_DataHub.c ****     
 632:Service/Srv_DataHub.c ****     return true;
 1712              		.loc 1 632 5 is_stmt 1 view .LVU591
 633:Service/Srv_DataHub.c **** }
 1713              		.loc 1 633 1 is_stmt 0 view .LVU592
 1714 0068 0120     		movs	r0, #1
 1715              	.LVL41:
 1716              		.loc 1 633 1 view .LVU593
 1717 006a 70BC     		pop	{r4, r5, r6}
 1718              	.LCFI7:
 1719              		.cfi_restore 6
 1720              		.cfi_restore 5
 1721              		.cfi_restore 4
 1722              		.cfi_def_cfa_offset 0
 1723              	.LVL42:
 1724              		.loc 1 633 1 view .LVU594
 1725 006c 7047     		bx	lr
 1726              	.L141:
 1727 006e 00BF     		.align	2
 1728              	.L140:
 1729 0070 00000000 		.word	.LANCHOR0
 1730              		.cfi_endproc
 1731              	.LFE161:
 1733              		.section	.text.SrvDataHub_Get_RelativeAlt,"ax",%progbits
 1734              		.align	1
 1735              		.syntax unified
 1736              		.thumb
 1737              		.thumb_func
 1739              	SrvDataHub_Get_RelativeAlt:
 1740              	.LVL43:
 1741              	.LFB162:
 634:Service/Srv_DataHub.c **** 
 635:Service/Srv_DataHub.c **** static bool SrvDataHub_Get_RelativeAlt(uint32_t *time_stamp, float *alt)
 636:Service/Srv_DataHub.c **** {
ARM GAS  C:\Users\8bit\AppData\Local\Temp\ccClUhzi.s 			page 49


 1742              		.loc 1 636 1 is_stmt 1 view -0
 1743              		.cfi_startproc
 1744              		@ args = 0, pretend = 0, frame = 0
 1745              		@ frame_needed = 0, uses_anonymous_args = 0
 1746              		@ link register save eliminated.
 637:Service/Srv_DataHub.c ****     SrvDataHub_Monitor.inuse_reg.bit.relative_alt = true;
 1747              		.loc 1 637 5 view .LVU596
 1748              		.loc 1 637 51 is_stmt 0 view .LVU597
 1749 0000 0E4A     		ldr	r2, .L148
 1750 0002 937A     		ldrb	r3, [r2, #10]	@ zero_extendqisi2
 1751 0004 43F02003 		orr	r3, r3, #32
 1752 0008 9372     		strb	r3, [r2, #10]
 1753 000a 08E0     		b	.L143
 1754              	.L147:
 638:Service/Srv_DataHub.c **** 
 639:Service/Srv_DataHub.c **** reupdate_relative_alt:
 640:Service/Srv_DataHub.c ****     if (time_stamp)
 641:Service/Srv_DataHub.c ****         *time_stamp = SrvDataHub_Monitor.data.relative_alt_time;
 642:Service/Srv_DataHub.c ****     
 643:Service/Srv_DataHub.c ****     if (alt)
 644:Service/Srv_DataHub.c ****         *alt = SrvDataHub_Monitor.data.relative_alt;
 1755              		.loc 1 644 9 is_stmt 1 view .LVU598
 1756              		.loc 1 644 39 is_stmt 0 view .LVU599
 1757 000c 0B4B     		ldr	r3, .L148
 1758 000e D3F8D830 		ldr	r3, [r3, #216]	@ float
 1759              		.loc 1 644 14 view .LVU600
 1760 0012 0B60     		str	r3, [r1]	@ float
 1761              	.L145:
 645:Service/Srv_DataHub.c **** 
 646:Service/Srv_DataHub.c ****     if (!SrvDataHub_Monitor.inuse_reg.bit.relative_alt)
 1762              		.loc 1 646 5 is_stmt 1 view .LVU601
 1763              		.loc 1 646 9 is_stmt 0 view .LVU602
 1764 0014 094B     		ldr	r3, .L148
 1765 0016 9B7A     		ldrb	r3, [r3, #10]	@ zero_extendqisi2
 1766              		.loc 1 646 8 view .LVU603
 1767 0018 13F0200F 		tst	r3, #32
 1768 001c 07D1     		bne	.L146
 1769              	.L143:
 640:Service/Srv_DataHub.c ****         *time_stamp = SrvDataHub_Monitor.data.relative_alt_time;
 1770              		.loc 1 640 5 is_stmt 1 view .LVU604
 640:Service/Srv_DataHub.c ****         *time_stamp = SrvDataHub_Monitor.data.relative_alt_time;
 1771              		.loc 1 640 8 is_stmt 0 view .LVU605
 1772 001e 18B1     		cbz	r0, .L144
 641:Service/Srv_DataHub.c ****     
 1773              		.loc 1 641 9 is_stmt 1 view .LVU606
 641:Service/Srv_DataHub.c ****     
 1774              		.loc 1 641 46 is_stmt 0 view .LVU607
 1775 0020 064B     		ldr	r3, .L148
 1776 0022 D3F8D430 		ldr	r3, [r3, #212]
 641:Service/Srv_DataHub.c ****     
 1777              		.loc 1 641 21 view .LVU608
 1778 0026 0360     		str	r3, [r0]
 1779              	.L144:
 643:Service/Srv_DataHub.c ****         *alt = SrvDataHub_Monitor.data.relative_alt;
 1780              		.loc 1 643 5 is_stmt 1 view .LVU609
 643:Service/Srv_DataHub.c ****         *alt = SrvDataHub_Monitor.data.relative_alt;
 1781              		.loc 1 643 8 is_stmt 0 view .LVU610
ARM GAS  C:\Users\8bit\AppData\Local\Temp\ccClUhzi.s 			page 50


 1782 0028 0029     		cmp	r1, #0
 1783 002a EFD1     		bne	.L147
 1784 002c F2E7     		b	.L145
 1785              	.L146:
 647:Service/Srv_DataHub.c ****         goto reupdate_relative_alt;
 648:Service/Srv_DataHub.c **** 
 649:Service/Srv_DataHub.c ****     SrvDataHub_Monitor.inuse_reg.bit.relative_alt = false;
 1786              		.loc 1 649 5 is_stmt 1 view .LVU611
 1787              		.loc 1 649 51 is_stmt 0 view .LVU612
 1788 002e 034B     		ldr	r3, .L148
 1789 0030 9A7A     		ldrb	r2, [r3, #10]	@ zero_extendqisi2
 1790 0032 6FF34512 		bfc	r2, #5, #1
 1791 0036 9A72     		strb	r2, [r3, #10]
 650:Service/Srv_DataHub.c **** 
 651:Service/Srv_DataHub.c ****     return true;
 1792              		.loc 1 651 5 is_stmt 1 view .LVU613
 652:Service/Srv_DataHub.c **** }
 1793              		.loc 1 652 1 is_stmt 0 view .LVU614
 1794 0038 0120     		movs	r0, #1
 1795              	.LVL44:
 1796              		.loc 1 652 1 view .LVU615
 1797 003a 7047     		bx	lr
 1798              	.L149:
 1799              		.align	2
 1800              	.L148:
 1801 003c 00000000 		.word	.LANCHOR0
 1802              		.cfi_endproc
 1803              	.LFE162:
 1805              		.section	.text.SrvDataHub_Get_Scaled_Mag,"ax",%progbits
 1806              		.align	1
 1807              		.syntax unified
 1808              		.thumb
 1809              		.thumb_func
 1811              	SrvDataHub_Get_Scaled_Mag:
 1812              	.LVL45:
 1813              	.LFB163:
 653:Service/Srv_DataHub.c **** 
 654:Service/Srv_DataHub.c **** static bool SrvDataHub_Get_Scaled_Mag(uint32_t *time_stamp, float *scale, float *mag_x, float *mag_
 655:Service/Srv_DataHub.c **** {
 1814              		.loc 1 655 1 is_stmt 1 view -0
 1815              		.cfi_startproc
 1816              		@ args = 8, pretend = 0, frame = 0
 1817              		@ frame_needed = 0, uses_anonymous_args = 0
 1818              		@ link register save eliminated.
 1819              		.loc 1 655 1 is_stmt 0 view .LVU617
 1820 0000 70B4     		push	{r4, r5, r6}
 1821              	.LCFI8:
 1822              		.cfi_def_cfa_offset 12
 1823              		.cfi_offset 4, -12
 1824              		.cfi_offset 5, -8
 1825              		.cfi_offset 6, -4
 1826 0002 039E     		ldr	r6, [sp, #12]
 1827 0004 049D     		ldr	r5, [sp, #16]
 1828 0006 08E0     		b	.L151
 1829              	.L160:
 656:Service/Srv_DataHub.c **** reupdate_scaled_mag:
 657:Service/Srv_DataHub.c ****     SrvDataHub_Monitor.inuse_reg.bit.scaled_mag = true;
ARM GAS  C:\Users\8bit\AppData\Local\Temp\ccClUhzi.s 			page 51


 658:Service/Srv_DataHub.c **** 
 659:Service/Srv_DataHub.c ****     if (time_stamp)
 660:Service/Srv_DataHub.c ****         *time_stamp = SrvDataHub_Monitor.data.mag_update_time;
 661:Service/Srv_DataHub.c ****         
 662:Service/Srv_DataHub.c ****     if (scale)
 663:Service/Srv_DataHub.c ****         *scale = SrvDataHub_Monitor.data.mag_scale;
 664:Service/Srv_DataHub.c ****         
 665:Service/Srv_DataHub.c ****     if (mag_x)
 666:Service/Srv_DataHub.c ****         *mag_x = SrvDataHub_Monitor.data.flt_mag_x;
 667:Service/Srv_DataHub.c ****         
 668:Service/Srv_DataHub.c ****     if (mag_y)
 669:Service/Srv_DataHub.c ****         *mag_y = SrvDataHub_Monitor.data.flt_mag_y;
 670:Service/Srv_DataHub.c ****         
 671:Service/Srv_DataHub.c ****     if (mag_z)
 672:Service/Srv_DataHub.c ****         *mag_z = SrvDataHub_Monitor.data.flt_mag_z;
 673:Service/Srv_DataHub.c ****         
 674:Service/Srv_DataHub.c ****     if (err)
 675:Service/Srv_DataHub.c ****         *err = SrvDataHub_Monitor.data.mag_error_code;
 1830              		.loc 1 675 9 is_stmt 1 view .LVU618
 1831              		.loc 1 675 39 is_stmt 0 view .LVU619
 1832 0008 164C     		ldr	r4, .L161
 1833 000a 94F89040 		ldrb	r4, [r4, #144]	@ zero_extendqisi2
 1834              		.loc 1 675 14 view .LVU620
 1835 000e 2C70     		strb	r4, [r5]
 1836              	.L157:
 676:Service/Srv_DataHub.c **** 
 677:Service/Srv_DataHub.c ****     if (!SrvDataHub_Monitor.inuse_reg.bit.scaled_mag)
 1837              		.loc 1 677 5 is_stmt 1 view .LVU621
 1838              		.loc 1 677 9 is_stmt 0 view .LVU622
 1839 0010 144C     		ldr	r4, .L161
 1840 0012 247A     		ldrb	r4, [r4, #8]	@ zero_extendqisi2
 1841              		.loc 1 677 8 view .LVU623
 1842 0014 14F0100F 		tst	r4, #16
 1843 0018 1CD1     		bne	.L159
 1844              	.L151:
 657:Service/Srv_DataHub.c **** 
 1845              		.loc 1 657 5 is_stmt 1 view .LVU624
 657:Service/Srv_DataHub.c **** 
 1846              		.loc 1 657 49 is_stmt 0 view .LVU625
 1847 001a 124C     		ldr	r4, .L161
 1848 001c 94F808C0 		ldrb	ip, [r4, #8]	@ zero_extendqisi2
 1849 0020 4CF0100C 		orr	ip, ip, #16
 1850 0024 84F808C0 		strb	ip, [r4, #8]
 659:Service/Srv_DataHub.c ****         *time_stamp = SrvDataHub_Monitor.data.mag_update_time;
 1851              		.loc 1 659 5 is_stmt 1 view .LVU626
 659:Service/Srv_DataHub.c ****         *time_stamp = SrvDataHub_Monitor.data.mag_update_time;
 1852              		.loc 1 659 8 is_stmt 0 view .LVU627
 1853 0028 08B1     		cbz	r0, .L152
 660:Service/Srv_DataHub.c ****         
 1854              		.loc 1 660 9 is_stmt 1 view .LVU628
 660:Service/Srv_DataHub.c ****         
 1855              		.loc 1 660 46 is_stmt 0 view .LVU629
 1856 002a E46E     		ldr	r4, [r4, #108]
 660:Service/Srv_DataHub.c ****         
 1857              		.loc 1 660 21 view .LVU630
 1858 002c 0460     		str	r4, [r0]
 1859              	.L152:
ARM GAS  C:\Users\8bit\AppData\Local\Temp\ccClUhzi.s 			page 52


 662:Service/Srv_DataHub.c ****         *scale = SrvDataHub_Monitor.data.mag_scale;
 1860              		.loc 1 662 5 is_stmt 1 view .LVU631
 662:Service/Srv_DataHub.c ****         *scale = SrvDataHub_Monitor.data.mag_scale;
 1861              		.loc 1 662 8 is_stmt 0 view .LVU632
 1862 002e 11B1     		cbz	r1, .L153
 663:Service/Srv_DataHub.c ****         
 1863              		.loc 1 663 9 is_stmt 1 view .LVU633
 663:Service/Srv_DataHub.c ****         
 1864              		.loc 1 663 41 is_stmt 0 view .LVU634
 1865 0030 0C4C     		ldr	r4, .L161
 1866 0032 246F     		ldr	r4, [r4, #112]	@ float
 663:Service/Srv_DataHub.c ****         
 1867              		.loc 1 663 16 view .LVU635
 1868 0034 0C60     		str	r4, [r1]	@ float
 1869              	.L153:
 665:Service/Srv_DataHub.c ****         *mag_x = SrvDataHub_Monitor.data.flt_mag_x;
 1870              		.loc 1 665 5 is_stmt 1 view .LVU636
 665:Service/Srv_DataHub.c ****         *mag_x = SrvDataHub_Monitor.data.flt_mag_x;
 1871              		.loc 1 665 8 is_stmt 0 view .LVU637
 1872 0036 12B1     		cbz	r2, .L154
 666:Service/Srv_DataHub.c ****         
 1873              		.loc 1 666 9 is_stmt 1 view .LVU638
 666:Service/Srv_DataHub.c ****         
 1874              		.loc 1 666 41 is_stmt 0 view .LVU639
 1875 0038 0A4C     		ldr	r4, .L161
 1876 003a 646F     		ldr	r4, [r4, #116]	@ float
 666:Service/Srv_DataHub.c ****         
 1877              		.loc 1 666 16 view .LVU640
 1878 003c 1460     		str	r4, [r2]	@ float
 1879              	.L154:
 668:Service/Srv_DataHub.c ****         *mag_y = SrvDataHub_Monitor.data.flt_mag_y;
 1880              		.loc 1 668 5 is_stmt 1 view .LVU641
 668:Service/Srv_DataHub.c ****         *mag_y = SrvDataHub_Monitor.data.flt_mag_y;
 1881              		.loc 1 668 8 is_stmt 0 view .LVU642
 1882 003e 13B1     		cbz	r3, .L155
 669:Service/Srv_DataHub.c ****         
 1883              		.loc 1 669 9 is_stmt 1 view .LVU643
 669:Service/Srv_DataHub.c ****         
 1884              		.loc 1 669 41 is_stmt 0 view .LVU644
 1885 0040 084C     		ldr	r4, .L161
 1886 0042 A46F     		ldr	r4, [r4, #120]	@ float
 669:Service/Srv_DataHub.c ****         
 1887              		.loc 1 669 16 view .LVU645
 1888 0044 1C60     		str	r4, [r3]	@ float
 1889              	.L155:
 671:Service/Srv_DataHub.c ****         *mag_z = SrvDataHub_Monitor.data.flt_mag_z;
 1890              		.loc 1 671 5 is_stmt 1 view .LVU646
 671:Service/Srv_DataHub.c ****         *mag_z = SrvDataHub_Monitor.data.flt_mag_z;
 1891              		.loc 1 671 8 is_stmt 0 view .LVU647
 1892 0046 16B1     		cbz	r6, .L156
 672:Service/Srv_DataHub.c ****         
 1893              		.loc 1 672 9 is_stmt 1 view .LVU648
 672:Service/Srv_DataHub.c ****         
 1894              		.loc 1 672 41 is_stmt 0 view .LVU649
 1895 0048 064C     		ldr	r4, .L161
 1896 004a E46F     		ldr	r4, [r4, #124]	@ float
 672:Service/Srv_DataHub.c ****         
ARM GAS  C:\Users\8bit\AppData\Local\Temp\ccClUhzi.s 			page 53


 1897              		.loc 1 672 16 view .LVU650
 1898 004c 3460     		str	r4, [r6]	@ float
 1899              	.L156:
 674:Service/Srv_DataHub.c ****         *err = SrvDataHub_Monitor.data.mag_error_code;
 1900              		.loc 1 674 5 is_stmt 1 view .LVU651
 674:Service/Srv_DataHub.c ****         *err = SrvDataHub_Monitor.data.mag_error_code;
 1901              		.loc 1 674 8 is_stmt 0 view .LVU652
 1902 004e 002D     		cmp	r5, #0
 1903 0050 DAD1     		bne	.L160
 1904 0052 DDE7     		b	.L157
 1905              	.L159:
 678:Service/Srv_DataHub.c ****         goto reupdate_scaled_mag;
 679:Service/Srv_DataHub.c **** 
 680:Service/Srv_DataHub.c ****     SrvDataHub_Monitor.inuse_reg.bit.scaled_mag = false;
 1906              		.loc 1 680 5 is_stmt 1 view .LVU653
 1907              		.loc 1 680 49 is_stmt 0 view .LVU654
 1908 0054 034B     		ldr	r3, .L161
 1909              	.LVL46:
 1910              		.loc 1 680 49 view .LVU655
 1911 0056 1A7A     		ldrb	r2, [r3, #8]	@ zero_extendqisi2
 1912              	.LVL47:
 1913              		.loc 1 680 49 view .LVU656
 1914 0058 6FF30412 		bfc	r2, #4, #1
 1915 005c 1A72     		strb	r2, [r3, #8]
 681:Service/Srv_DataHub.c **** 
 682:Service/Srv_DataHub.c ****     return true;
 1916              		.loc 1 682 5 is_stmt 1 view .LVU657
 683:Service/Srv_DataHub.c **** }
 1917              		.loc 1 683 1 is_stmt 0 view .LVU658
 1918 005e 0120     		movs	r0, #1
 1919              	.LVL48:
 1920              		.loc 1 683 1 view .LVU659
 1921 0060 70BC     		pop	{r4, r5, r6}
 1922              	.LCFI9:
 1923              		.cfi_restore 6
 1924              		.cfi_restore 5
 1925              		.cfi_restore 4
 1926              		.cfi_def_cfa_offset 0
 1927              	.LVL49:
 1928              		.loc 1 683 1 view .LVU660
 1929 0062 7047     		bx	lr
 1930              	.L162:
 1931              		.align	2
 1932              	.L161:
 1933 0064 00000000 		.word	.LANCHOR0
 1934              		.cfi_endproc
 1935              	.LFE163:
 1937              		.section	.text.SrvDataHub_Get_Attitude,"ax",%progbits
 1938              		.align	1
 1939              		.syntax unified
 1940              		.thumb
 1941              		.thumb_func
 1943              	SrvDataHub_Get_Attitude:
 1944              	.LVL50:
 1945              	.LFB164:
 684:Service/Srv_DataHub.c **** 
 685:Service/Srv_DataHub.c **** static bool SrvDataHub_Get_Attitude(uint32_t *time_stamp, float *pitch, float *roll, float *yaw, fl
ARM GAS  C:\Users\8bit\AppData\Local\Temp\ccClUhzi.s 			page 54


 686:Service/Srv_DataHub.c **** {
 1946              		.loc 1 686 1 is_stmt 1 view -0
 1947              		.cfi_startproc
 1948              		@ args = 20, pretend = 0, frame = 0
 1949              		@ frame_needed = 0, uses_anonymous_args = 0
 1950              		.loc 1 686 1 is_stmt 0 view .LVU662
 1951 0000 2DE9F041 		push	{r4, r5, r6, r7, r8, lr}
 1952              	.LCFI10:
 1953              		.cfi_def_cfa_offset 24
 1954              		.cfi_offset 4, -24
 1955              		.cfi_offset 5, -20
 1956              		.cfi_offset 6, -16
 1957              		.cfi_offset 7, -12
 1958              		.cfi_offset 8, -8
 1959              		.cfi_offset 14, -4
 1960 0004 DDF81880 		ldr	r8, [sp, #24]
 1961 0008 DDF81CE0 		ldr	lr, [sp, #28]
 1962 000c 089F     		ldr	r7, [sp, #32]
 1963 000e 099E     		ldr	r6, [sp, #36]
 1964 0010 0A9D     		ldr	r5, [sp, #40]
 1965 0012 08E0     		b	.L164
 1966              	.L176:
 687:Service/Srv_DataHub.c **** reupdate_attitude:
 688:Service/Srv_DataHub.c ****     SrvDataHub_Monitor.inuse_reg.bit.attitude = true; 
 689:Service/Srv_DataHub.c ****     
 690:Service/Srv_DataHub.c ****     if (time_stamp)
 691:Service/Srv_DataHub.c ****         (*time_stamp) = SrvDataHub_Monitor.data.att_update_time;
 692:Service/Srv_DataHub.c ****     
 693:Service/Srv_DataHub.c ****     if (pitch)
 694:Service/Srv_DataHub.c ****         (*pitch) = SrvDataHub_Monitor.data.att_pitch;
 695:Service/Srv_DataHub.c ****     
 696:Service/Srv_DataHub.c ****     if (roll)
 697:Service/Srv_DataHub.c ****         (*roll) = SrvDataHub_Monitor.data.att_roll;
 698:Service/Srv_DataHub.c ****     
 699:Service/Srv_DataHub.c ****     if (yaw)
 700:Service/Srv_DataHub.c ****         (*yaw) = SrvDataHub_Monitor.data.att_yaw;
 701:Service/Srv_DataHub.c **** 
 702:Service/Srv_DataHub.c ****     if (q0)
 703:Service/Srv_DataHub.c ****         (*q0) = SrvDataHub_Monitor.data.att_q0;
 704:Service/Srv_DataHub.c **** 
 705:Service/Srv_DataHub.c ****     if (q1)
 706:Service/Srv_DataHub.c ****         (*q1) = SrvDataHub_Monitor.data.att_q1;
 707:Service/Srv_DataHub.c **** 
 708:Service/Srv_DataHub.c ****     if (q2)
 709:Service/Srv_DataHub.c ****         (*q2) = SrvDataHub_Monitor.data.att_q2;
 710:Service/Srv_DataHub.c ****     
 711:Service/Srv_DataHub.c ****     if (q3)
 712:Service/Srv_DataHub.c ****         (*q3) = SrvDataHub_Monitor.data.att_q3;
 713:Service/Srv_DataHub.c **** 
 714:Service/Srv_DataHub.c ****     if (flip_over)
 715:Service/Srv_DataHub.c ****         (*flip_over) = SrvDataHub_Monitor.data.att_flip_over;
 1967              		.loc 1 715 9 is_stmt 1 view .LVU663
 1968              		.loc 1 715 47 is_stmt 0 view .LVU664
 1969 0014 234C     		ldr	r4, .L177
 1970 0016 94F8D040 		ldrb	r4, [r4, #208]	@ zero_extendqisi2
 1971              		.loc 1 715 22 view .LVU665
 1972 001a 2C70     		strb	r4, [r5]
ARM GAS  C:\Users\8bit\AppData\Local\Temp\ccClUhzi.s 			page 55


 1973              	.L173:
 716:Service/Srv_DataHub.c **** 
 717:Service/Srv_DataHub.c ****     if(!SrvDataHub_Monitor.inuse_reg.bit.attitude)
 1974              		.loc 1 717 5 is_stmt 1 view .LVU666
 1975              		.loc 1 717 8 is_stmt 0 view .LVU667
 1976 001c 214C     		ldr	r4, .L177
 1977 001e A47A     		ldrb	r4, [r4, #10]	@ zero_extendqisi2
 1978              		.loc 1 717 7 view .LVU668
 1979 0020 14F0100F 		tst	r4, #16
 1980 0024 36D1     		bne	.L175
 1981              	.L164:
 688:Service/Srv_DataHub.c ****     
 1982              		.loc 1 688 5 is_stmt 1 view .LVU669
 688:Service/Srv_DataHub.c ****     
 1983              		.loc 1 688 47 is_stmt 0 view .LVU670
 1984 0026 1F4C     		ldr	r4, .L177
 1985 0028 94F80AC0 		ldrb	ip, [r4, #10]	@ zero_extendqisi2
 1986 002c 4CF0100C 		orr	ip, ip, #16
 1987 0030 84F80AC0 		strb	ip, [r4, #10]
 690:Service/Srv_DataHub.c ****         (*time_stamp) = SrvDataHub_Monitor.data.att_update_time;
 1988              		.loc 1 690 5 is_stmt 1 view .LVU671
 690:Service/Srv_DataHub.c ****         (*time_stamp) = SrvDataHub_Monitor.data.att_update_time;
 1989              		.loc 1 690 8 is_stmt 0 view .LVU672
 1990 0034 10B1     		cbz	r0, .L165
 691:Service/Srv_DataHub.c ****     
 1991              		.loc 1 691 9 is_stmt 1 view .LVU673
 691:Service/Srv_DataHub.c ****     
 1992              		.loc 1 691 48 is_stmt 0 view .LVU674
 1993 0036 D4F8B040 		ldr	r4, [r4, #176]
 691:Service/Srv_DataHub.c ****     
 1994              		.loc 1 691 23 view .LVU675
 1995 003a 0460     		str	r4, [r0]
 1996              	.L165:
 693:Service/Srv_DataHub.c ****         (*pitch) = SrvDataHub_Monitor.data.att_pitch;
 1997              		.loc 1 693 5 is_stmt 1 view .LVU676
 693:Service/Srv_DataHub.c ****         (*pitch) = SrvDataHub_Monitor.data.att_pitch;
 1998              		.loc 1 693 8 is_stmt 0 view .LVU677
 1999 003c 19B1     		cbz	r1, .L166
 694:Service/Srv_DataHub.c ****     
 2000              		.loc 1 694 9 is_stmt 1 view .LVU678
 694:Service/Srv_DataHub.c ****     
 2001              		.loc 1 694 43 is_stmt 0 view .LVU679
 2002 003e 194C     		ldr	r4, .L177
 2003 0040 D4F8B840 		ldr	r4, [r4, #184]	@ float
 694:Service/Srv_DataHub.c ****     
 2004              		.loc 1 694 18 view .LVU680
 2005 0044 0C60     		str	r4, [r1]	@ float
 2006              	.L166:
 696:Service/Srv_DataHub.c ****         (*roll) = SrvDataHub_Monitor.data.att_roll;
 2007              		.loc 1 696 5 is_stmt 1 view .LVU681
 696:Service/Srv_DataHub.c ****         (*roll) = SrvDataHub_Monitor.data.att_roll;
 2008              		.loc 1 696 8 is_stmt 0 view .LVU682
 2009 0046 1AB1     		cbz	r2, .L167
 697:Service/Srv_DataHub.c ****     
 2010              		.loc 1 697 9 is_stmt 1 view .LVU683
 697:Service/Srv_DataHub.c ****     
 2011              		.loc 1 697 42 is_stmt 0 view .LVU684
ARM GAS  C:\Users\8bit\AppData\Local\Temp\ccClUhzi.s 			page 56


 2012 0048 164C     		ldr	r4, .L177
 2013 004a D4F8B440 		ldr	r4, [r4, #180]	@ float
 697:Service/Srv_DataHub.c ****     
 2014              		.loc 1 697 17 view .LVU685
 2015 004e 1460     		str	r4, [r2]	@ float
 2016              	.L167:
 699:Service/Srv_DataHub.c ****         (*yaw) = SrvDataHub_Monitor.data.att_yaw;
 2017              		.loc 1 699 5 is_stmt 1 view .LVU686
 699:Service/Srv_DataHub.c ****         (*yaw) = SrvDataHub_Monitor.data.att_yaw;
 2018              		.loc 1 699 8 is_stmt 0 view .LVU687
 2019 0050 1BB1     		cbz	r3, .L168
 700:Service/Srv_DataHub.c **** 
 2020              		.loc 1 700 9 is_stmt 1 view .LVU688
 700:Service/Srv_DataHub.c **** 
 2021              		.loc 1 700 41 is_stmt 0 view .LVU689
 2022 0052 144C     		ldr	r4, .L177
 2023 0054 D4F8BC40 		ldr	r4, [r4, #188]	@ float
 700:Service/Srv_DataHub.c **** 
 2024              		.loc 1 700 16 view .LVU690
 2025 0058 1C60     		str	r4, [r3]	@ float
 2026              	.L168:
 702:Service/Srv_DataHub.c ****         (*q0) = SrvDataHub_Monitor.data.att_q0;
 2027              		.loc 1 702 5 is_stmt 1 view .LVU691
 702:Service/Srv_DataHub.c ****         (*q0) = SrvDataHub_Monitor.data.att_q0;
 2028              		.loc 1 702 8 is_stmt 0 view .LVU692
 2029 005a B8F1000F 		cmp	r8, #0
 2030 005e 04D0     		beq	.L169
 703:Service/Srv_DataHub.c **** 
 2031              		.loc 1 703 9 is_stmt 1 view .LVU693
 703:Service/Srv_DataHub.c **** 
 2032              		.loc 1 703 40 is_stmt 0 view .LVU694
 2033 0060 104C     		ldr	r4, .L177
 2034 0062 D4F8C040 		ldr	r4, [r4, #192]	@ float
 703:Service/Srv_DataHub.c **** 
 2035              		.loc 1 703 15 view .LVU695
 2036 0066 C8F80040 		str	r4, [r8]	@ float
 2037              	.L169:
 705:Service/Srv_DataHub.c ****         (*q1) = SrvDataHub_Monitor.data.att_q1;
 2038              		.loc 1 705 5 is_stmt 1 view .LVU696
 705:Service/Srv_DataHub.c ****         (*q1) = SrvDataHub_Monitor.data.att_q1;
 2039              		.loc 1 705 8 is_stmt 0 view .LVU697
 2040 006a BEF1000F 		cmp	lr, #0
 2041 006e 04D0     		beq	.L170
 706:Service/Srv_DataHub.c **** 
 2042              		.loc 1 706 9 is_stmt 1 view .LVU698
 706:Service/Srv_DataHub.c **** 
 2043              		.loc 1 706 40 is_stmt 0 view .LVU699
 2044 0070 0C4C     		ldr	r4, .L177
 2045 0072 D4F8C440 		ldr	r4, [r4, #196]	@ float
 706:Service/Srv_DataHub.c **** 
 2046              		.loc 1 706 15 view .LVU700
 2047 0076 CEF80040 		str	r4, [lr]	@ float
 2048              	.L170:
 708:Service/Srv_DataHub.c ****         (*q2) = SrvDataHub_Monitor.data.att_q2;
 2049              		.loc 1 708 5 is_stmt 1 view .LVU701
 708:Service/Srv_DataHub.c ****         (*q2) = SrvDataHub_Monitor.data.att_q2;
 2050              		.loc 1 708 8 is_stmt 0 view .LVU702
ARM GAS  C:\Users\8bit\AppData\Local\Temp\ccClUhzi.s 			page 57


 2051 007a 1FB1     		cbz	r7, .L171
 709:Service/Srv_DataHub.c ****     
 2052              		.loc 1 709 9 is_stmt 1 view .LVU703
 709:Service/Srv_DataHub.c ****     
 2053              		.loc 1 709 40 is_stmt 0 view .LVU704
 2054 007c 094C     		ldr	r4, .L177
 2055 007e D4F8C840 		ldr	r4, [r4, #200]	@ float
 709:Service/Srv_DataHub.c ****     
 2056              		.loc 1 709 15 view .LVU705
 2057 0082 3C60     		str	r4, [r7]	@ float
 2058              	.L171:
 711:Service/Srv_DataHub.c ****         (*q3) = SrvDataHub_Monitor.data.att_q3;
 2059              		.loc 1 711 5 is_stmt 1 view .LVU706
 711:Service/Srv_DataHub.c ****         (*q3) = SrvDataHub_Monitor.data.att_q3;
 2060              		.loc 1 711 8 is_stmt 0 view .LVU707
 2061 0084 1EB1     		cbz	r6, .L172
 712:Service/Srv_DataHub.c **** 
 2062              		.loc 1 712 9 is_stmt 1 view .LVU708
 712:Service/Srv_DataHub.c **** 
 2063              		.loc 1 712 40 is_stmt 0 view .LVU709
 2064 0086 074C     		ldr	r4, .L177
 2065 0088 D4F8CC40 		ldr	r4, [r4, #204]	@ float
 712:Service/Srv_DataHub.c **** 
 2066              		.loc 1 712 15 view .LVU710
 2067 008c 3460     		str	r4, [r6]	@ float
 2068              	.L172:
 714:Service/Srv_DataHub.c ****         (*flip_over) = SrvDataHub_Monitor.data.att_flip_over;
 2069              		.loc 1 714 5 is_stmt 1 view .LVU711
 714:Service/Srv_DataHub.c ****         (*flip_over) = SrvDataHub_Monitor.data.att_flip_over;
 2070              		.loc 1 714 8 is_stmt 0 view .LVU712
 2071 008e 002D     		cmp	r5, #0
 2072 0090 C0D1     		bne	.L176
 2073 0092 C3E7     		b	.L173
 2074              	.L175:
 718:Service/Srv_DataHub.c ****         goto reupdate_attitude;
 719:Service/Srv_DataHub.c **** 
 720:Service/Srv_DataHub.c ****     SrvDataHub_Monitor.inuse_reg.bit.attitude = false;
 2075              		.loc 1 720 5 is_stmt 1 view .LVU713
 2076              		.loc 1 720 47 is_stmt 0 view .LVU714
 2077 0094 034B     		ldr	r3, .L177
 2078              	.LVL51:
 2079              		.loc 1 720 47 view .LVU715
 2080 0096 9A7A     		ldrb	r2, [r3, #10]	@ zero_extendqisi2
 2081              	.LVL52:
 2082              		.loc 1 720 47 view .LVU716
 2083 0098 6FF30412 		bfc	r2, #4, #1
 2084 009c 9A72     		strb	r2, [r3, #10]
 721:Service/Srv_DataHub.c **** 
 722:Service/Srv_DataHub.c ****     return true;
 2085              		.loc 1 722 5 is_stmt 1 view .LVU717
 723:Service/Srv_DataHub.c **** }
 2086              		.loc 1 723 1 is_stmt 0 view .LVU718
 2087 009e 0120     		movs	r0, #1
 2088              	.LVL53:
 2089              		.loc 1 723 1 view .LVU719
 2090 00a0 BDE8F081 		pop	{r4, r5, r6, r7, r8, pc}
 2091              	.LVL54:
ARM GAS  C:\Users\8bit\AppData\Local\Temp\ccClUhzi.s 			page 58


 2092              	.L178:
 2093              		.loc 1 723 1 view .LVU720
 2094              		.align	2
 2095              	.L177:
 2096 00a4 00000000 		.word	.LANCHOR0
 2097              		.cfi_endproc
 2098              	.LFE164:
 2100              		.section	.text.SrvDataHub_Get_Arm,"ax",%progbits
 2101              		.align	1
 2102              		.syntax unified
 2103              		.thumb
 2104              		.thumb_func
 2106              	SrvDataHub_Get_Arm:
 2107              	.LVL55:
 2108              	.LFB165:
 724:Service/Srv_DataHub.c **** 
 725:Service/Srv_DataHub.c **** static bool SrvDataHub_Get_Arm(bool *arm)
 726:Service/Srv_DataHub.c **** {
 2109              		.loc 1 726 1 is_stmt 1 view -0
 2110              		.cfi_startproc
 2111              		@ args = 0, pretend = 0, frame = 0
 2112              		@ frame_needed = 0, uses_anonymous_args = 0
 2113              		@ link register save eliminated.
 727:Service/Srv_DataHub.c ****     if (arm == NULL)
 2114              		.loc 1 727 5 view .LVU722
 2115              		.loc 1 727 8 is_stmt 0 view .LVU723
 2116 0000 0146     		mov	r1, r0
 2117 0002 90B1     		cbz	r0, .L182
 2118              	.L181:
 728:Service/Srv_DataHub.c ****         return false;
 729:Service/Srv_DataHub.c **** 
 730:Service/Srv_DataHub.c **** reupdate_arm:
 731:Service/Srv_DataHub.c ****     SrvDataHub_Monitor.inuse_reg.bit.cnv_control_data = true;
 2119              		.loc 1 731 5 is_stmt 1 view .LVU724
 2120              		.loc 1 731 55 is_stmt 0 view .LVU725
 2121 0004 0A4B     		ldr	r3, .L183
 2122 0006 9A7A     		ldrb	r2, [r3, #10]	@ zero_extendqisi2
 2123 0008 42F00202 		orr	r2, r2, #2
 2124 000c 9A72     		strb	r2, [r3, #10]
 732:Service/Srv_DataHub.c ****     *arm = SrvDataHub_Monitor.data.arm;
 2125              		.loc 1 732 5 is_stmt 1 view .LVU726
 2126              		.loc 1 732 35 is_stmt 0 view .LVU727
 2127 000e 93F84421 		ldrb	r2, [r3, #324]	@ zero_extendqisi2
 2128              		.loc 1 732 10 view .LVU728
 2129 0012 0A70     		strb	r2, [r1]
 733:Service/Srv_DataHub.c **** 
 734:Service/Srv_DataHub.c ****     if (!SrvDataHub_Monitor.inuse_reg.bit.cnv_control_data)
 2130              		.loc 1 734 5 is_stmt 1 view .LVU729
 2131              		.loc 1 734 9 is_stmt 0 view .LVU730
 2132 0014 9B7A     		ldrb	r3, [r3, #10]	@ zero_extendqisi2
 2133              		.loc 1 734 8 view .LVU731
 2134 0016 13F0020F 		tst	r3, #2
 2135 001a F3D0     		beq	.L181
 735:Service/Srv_DataHub.c ****         goto reupdate_arm;
 736:Service/Srv_DataHub.c **** 
 737:Service/Srv_DataHub.c ****     SrvDataHub_Monitor.inuse_reg.bit.cnv_control_data = false;
 2136              		.loc 1 737 5 is_stmt 1 view .LVU732
ARM GAS  C:\Users\8bit\AppData\Local\Temp\ccClUhzi.s 			page 59


 2137              		.loc 1 737 55 is_stmt 0 view .LVU733
 2138 001c 044B     		ldr	r3, .L183
 2139 001e 9A7A     		ldrb	r2, [r3, #10]	@ zero_extendqisi2
 2140 0020 6FF34102 		bfc	r2, #1, #1
 2141 0024 9A72     		strb	r2, [r3, #10]
 738:Service/Srv_DataHub.c **** 
 739:Service/Srv_DataHub.c ****     return true;
 2142              		.loc 1 739 5 is_stmt 1 view .LVU734
 2143              		.loc 1 739 12 is_stmt 0 view .LVU735
 2144 0026 0120     		movs	r0, #1
 2145              	.LVL56:
 2146              		.loc 1 739 12 view .LVU736
 2147 0028 7047     		bx	lr
 2148              	.LVL57:
 2149              	.L182:
 728:Service/Srv_DataHub.c **** 
 2150              		.loc 1 728 16 view .LVU737
 2151 002a 0020     		movs	r0, #0
 2152              	.LVL58:
 740:Service/Srv_DataHub.c **** }
 2153              		.loc 1 740 1 view .LVU738
 2154 002c 7047     		bx	lr
 2155              	.L184:
 2156 002e 00BF     		.align	2
 2157              	.L183:
 2158 0030 00000000 		.word	.LANCHOR0
 2159              		.cfi_endproc
 2160              	.LFE165:
 2162              		.section	.text.SrvDataHub_Get_Failsafe,"ax",%progbits
 2163              		.align	1
 2164              		.syntax unified
 2165              		.thumb
 2166              		.thumb_func
 2168              	SrvDataHub_Get_Failsafe:
 2169              	.LFB166:
 741:Service/Srv_DataHub.c **** 
 742:Service/Srv_DataHub.c **** static bool SrvDataHub_Get_Failsafe(bool *failsafe)
 743:Service/Srv_DataHub.c **** {
 2170              		.loc 1 743 1 is_stmt 1 view -0
 2171              		.cfi_startproc
 2172              		@ args = 0, pretend = 0, frame = 0
 2173              		@ frame_needed = 0, uses_anonymous_args = 0
 2174              		@ link register save eliminated.
 2175              	.LVL59:
 2176              		.loc 1 743 1 is_stmt 0 view .LVU740
 2177 0000 04E0     		b	.L186
 2178              	.L187:
 744:Service/Srv_DataHub.c **** reupdate_failsafe:
 745:Service/Srv_DataHub.c ****     SrvDataHub_Monitor.inuse_reg.bit.cnv_control_data = true;
 746:Service/Srv_DataHub.c ****     
 747:Service/Srv_DataHub.c ****     if (failsafe)
 748:Service/Srv_DataHub.c ****         *failsafe = SrvDataHub_Monitor.data.failsafe;
 749:Service/Srv_DataHub.c **** 
 750:Service/Srv_DataHub.c ****     if (!SrvDataHub_Monitor.inuse_reg.bit.cnv_control_data)
 2179              		.loc 1 750 5 is_stmt 1 view .LVU741
 2180              		.loc 1 750 9 is_stmt 0 view .LVU742
 2181 0002 0B4B     		ldr	r3, .L189
ARM GAS  C:\Users\8bit\AppData\Local\Temp\ccClUhzi.s 			page 60


 2182 0004 9B7A     		ldrb	r3, [r3, #10]	@ zero_extendqisi2
 2183              		.loc 1 750 8 view .LVU743
 2184 0006 13F0020F 		tst	r3, #2
 2185 000a 0AD1     		bne	.L188
 2186              	.L186:
 745:Service/Srv_DataHub.c ****     
 2187              		.loc 1 745 5 is_stmt 1 view .LVU744
 745:Service/Srv_DataHub.c ****     
 2188              		.loc 1 745 55 is_stmt 0 view .LVU745
 2189 000c 084A     		ldr	r2, .L189
 2190 000e 937A     		ldrb	r3, [r2, #10]	@ zero_extendqisi2
 2191 0010 43F00203 		orr	r3, r3, #2
 2192 0014 9372     		strb	r3, [r2, #10]
 747:Service/Srv_DataHub.c ****         *failsafe = SrvDataHub_Monitor.data.failsafe;
 2193              		.loc 1 747 5 is_stmt 1 view .LVU746
 747:Service/Srv_DataHub.c ****         *failsafe = SrvDataHub_Monitor.data.failsafe;
 2194              		.loc 1 747 8 is_stmt 0 view .LVU747
 2195 0016 0028     		cmp	r0, #0
 2196 0018 F3D0     		beq	.L187
 748:Service/Srv_DataHub.c **** 
 2197              		.loc 1 748 9 is_stmt 1 view .LVU748
 748:Service/Srv_DataHub.c **** 
 2198              		.loc 1 748 44 is_stmt 0 view .LVU749
 2199 001a 92F84531 		ldrb	r3, [r2, #325]	@ zero_extendqisi2
 748:Service/Srv_DataHub.c **** 
 2200              		.loc 1 748 19 view .LVU750
 2201 001e 0370     		strb	r3, [r0]
 2202 0020 EFE7     		b	.L187
 2203              	.L188:
 751:Service/Srv_DataHub.c ****         goto reupdate_failsafe;
 752:Service/Srv_DataHub.c **** 
 753:Service/Srv_DataHub.c ****     SrvDataHub_Monitor.inuse_reg.bit.cnv_control_data = false;
 2204              		.loc 1 753 5 is_stmt 1 view .LVU751
 2205              		.loc 1 753 55 is_stmt 0 view .LVU752
 2206 0022 034B     		ldr	r3, .L189
 2207 0024 9A7A     		ldrb	r2, [r3, #10]	@ zero_extendqisi2
 2208 0026 6FF34102 		bfc	r2, #1, #1
 2209 002a 9A72     		strb	r2, [r3, #10]
 754:Service/Srv_DataHub.c **** 
 755:Service/Srv_DataHub.c ****     return true;
 2210              		.loc 1 755 5 is_stmt 1 view .LVU753
 756:Service/Srv_DataHub.c **** }
 2211              		.loc 1 756 1 is_stmt 0 view .LVU754
 2212 002c 0120     		movs	r0, #1
 2213              	.LVL60:
 2214              		.loc 1 756 1 view .LVU755
 2215 002e 7047     		bx	lr
 2216              	.L190:
 2217              		.align	2
 2218              	.L189:
 2219 0030 00000000 		.word	.LANCHOR0
 2220              		.cfi_endproc
 2221              	.LFE166:
 2223              		.section	.text.SrvDataHub_Get_Convert_ControlData,"ax",%progbits
 2224              		.align	1
 2225              		.syntax unified
 2226              		.thumb
ARM GAS  C:\Users\8bit\AppData\Local\Temp\ccClUhzi.s 			page 61


 2227              		.thumb_func
 2229              	SrvDataHub_Get_Convert_ControlData:
 2230              	.LVL61:
 2231              	.LFB167:
 757:Service/Srv_DataHub.c **** 
 758:Service/Srv_DataHub.c **** static bool SrvDataHub_Get_Convert_ControlData(uint32_t *time_stamp, bool *arm, bool *failsafe, uin
 759:Service/Srv_DataHub.c **** {
 2232              		.loc 1 759 1 is_stmt 1 view -0
 2233              		.cfi_startproc
 2234              		@ args = 20, pretend = 0, frame = 0
 2235              		@ frame_needed = 0, uses_anonymous_args = 0
 2236              		.loc 1 759 1 is_stmt 0 view .LVU757
 2237 0000 2DE9F041 		push	{r4, r5, r6, r7, r8, lr}
 2238              	.LCFI11:
 2239              		.cfi_def_cfa_offset 24
 2240              		.cfi_offset 4, -24
 2241              		.cfi_offset 5, -20
 2242              		.cfi_offset 6, -16
 2243              		.cfi_offset 7, -12
 2244              		.cfi_offset 8, -8
 2245              		.cfi_offset 14, -4
 2246 0004 DDF81880 		ldr	r8, [sp, #24]
 2247 0008 DDF81CE0 		ldr	lr, [sp, #28]
 2248 000c 089F     		ldr	r7, [sp, #32]
 2249 000e 099E     		ldr	r6, [sp, #36]
 2250 0010 0A9D     		ldr	r5, [sp, #40]
 2251 0012 08E0     		b	.L192
 2252              	.L204:
 760:Service/Srv_DataHub.c **** reupdate_convertdata:
 761:Service/Srv_DataHub.c ****     SrvDataHub_Monitor.inuse_reg.bit.cnv_control_data = true;
 762:Service/Srv_DataHub.c **** 
 763:Service/Srv_DataHub.c ****     if (time_stamp)
 764:Service/Srv_DataHub.c ****         *time_stamp = SrvDataHub_Monitor.data.cnvctl_data_time;
 765:Service/Srv_DataHub.c ****     
 766:Service/Srv_DataHub.c ****     if (arm)
 767:Service/Srv_DataHub.c ****         *arm = SrvDataHub_Monitor.data.arm;
 768:Service/Srv_DataHub.c ****         
 769:Service/Srv_DataHub.c ****     if (failsafe)
 770:Service/Srv_DataHub.c ****         *failsafe = SrvDataHub_Monitor.data.failsafe;
 771:Service/Srv_DataHub.c ****         
 772:Service/Srv_DataHub.c ****     if (mode)
 773:Service/Srv_DataHub.c ****         *mode = SrvDataHub_Monitor.data.ctl_mode;
 774:Service/Srv_DataHub.c ****         
 775:Service/Srv_DataHub.c ****     if (pitch)
 776:Service/Srv_DataHub.c ****         *pitch = SrvDataHub_Monitor.data.exp_pitch;
 777:Service/Srv_DataHub.c ****         
 778:Service/Srv_DataHub.c ****     if (roll)
 779:Service/Srv_DataHub.c ****         *roll = SrvDataHub_Monitor.data.exp_roll;
 780:Service/Srv_DataHub.c ****         
 781:Service/Srv_DataHub.c ****     if (gx)
 782:Service/Srv_DataHub.c ****         *gx = SrvDataHub_Monitor.data.exp_gyr_x;
 783:Service/Srv_DataHub.c ****         
 784:Service/Srv_DataHub.c ****     if (gy)
 785:Service/Srv_DataHub.c ****         *gy = SrvDataHub_Monitor.data.exp_gyr_y;
 786:Service/Srv_DataHub.c **** 
 787:Service/Srv_DataHub.c ****     if (gz)
 788:Service/Srv_DataHub.c ****         *gz = SrvDataHub_Monitor.data.exp_gyr_z;
ARM GAS  C:\Users\8bit\AppData\Local\Temp\ccClUhzi.s 			page 62


 2253              		.loc 1 788 9 is_stmt 1 view .LVU758
 2254              		.loc 1 788 38 is_stmt 0 view .LVU759
 2255 0014 234C     		ldr	r4, .L205
 2256 0016 D4F85841 		ldr	r4, [r4, #344]	@ float
 2257              		.loc 1 788 13 view .LVU760
 2258 001a 2C60     		str	r4, [r5]	@ float
 2259              	.L201:
 789:Service/Srv_DataHub.c **** 
 790:Service/Srv_DataHub.c ****     if (!SrvDataHub_Monitor.inuse_reg.bit.cnv_control_data)
 2260              		.loc 1 790 5 is_stmt 1 view .LVU761
 2261              		.loc 1 790 9 is_stmt 0 view .LVU762
 2262 001c 214C     		ldr	r4, .L205
 2263 001e A47A     		ldrb	r4, [r4, #10]	@ zero_extendqisi2
 2264              		.loc 1 790 8 view .LVU763
 2265 0020 14F0020F 		tst	r4, #2
 2266 0024 36D1     		bne	.L203
 2267              	.L192:
 761:Service/Srv_DataHub.c **** 
 2268              		.loc 1 761 5 is_stmt 1 view .LVU764
 761:Service/Srv_DataHub.c **** 
 2269              		.loc 1 761 55 is_stmt 0 view .LVU765
 2270 0026 1F4C     		ldr	r4, .L205
 2271 0028 94F80AC0 		ldrb	ip, [r4, #10]	@ zero_extendqisi2
 2272 002c 4CF0020C 		orr	ip, ip, #2
 2273 0030 84F80AC0 		strb	ip, [r4, #10]
 763:Service/Srv_DataHub.c ****         *time_stamp = SrvDataHub_Monitor.data.cnvctl_data_time;
 2274              		.loc 1 763 5 is_stmt 1 view .LVU766
 763:Service/Srv_DataHub.c ****         *time_stamp = SrvDataHub_Monitor.data.cnvctl_data_time;
 2275              		.loc 1 763 8 is_stmt 0 view .LVU767
 2276 0034 10B1     		cbz	r0, .L193
 764:Service/Srv_DataHub.c ****     
 2277              		.loc 1 764 9 is_stmt 1 view .LVU768
 764:Service/Srv_DataHub.c ****     
 2278              		.loc 1 764 46 is_stmt 0 view .LVU769
 2279 0036 D4F84041 		ldr	r4, [r4, #320]
 764:Service/Srv_DataHub.c ****     
 2280              		.loc 1 764 21 view .LVU770
 2281 003a 0460     		str	r4, [r0]
 2282              	.L193:
 766:Service/Srv_DataHub.c ****         *arm = SrvDataHub_Monitor.data.arm;
 2283              		.loc 1 766 5 is_stmt 1 view .LVU771
 766:Service/Srv_DataHub.c ****         *arm = SrvDataHub_Monitor.data.arm;
 2284              		.loc 1 766 8 is_stmt 0 view .LVU772
 2285 003c 19B1     		cbz	r1, .L194
 767:Service/Srv_DataHub.c ****         
 2286              		.loc 1 767 9 is_stmt 1 view .LVU773
 767:Service/Srv_DataHub.c ****         
 2287              		.loc 1 767 39 is_stmt 0 view .LVU774
 2288 003e 194C     		ldr	r4, .L205
 2289 0040 94F84441 		ldrb	r4, [r4, #324]	@ zero_extendqisi2
 767:Service/Srv_DataHub.c ****         
 2290              		.loc 1 767 14 view .LVU775
 2291 0044 0C70     		strb	r4, [r1]
 2292              	.L194:
 769:Service/Srv_DataHub.c ****         *failsafe = SrvDataHub_Monitor.data.failsafe;
 2293              		.loc 1 769 5 is_stmt 1 view .LVU776
 769:Service/Srv_DataHub.c ****         *failsafe = SrvDataHub_Monitor.data.failsafe;
ARM GAS  C:\Users\8bit\AppData\Local\Temp\ccClUhzi.s 			page 63


 2294              		.loc 1 769 8 is_stmt 0 view .LVU777
 2295 0046 1AB1     		cbz	r2, .L195
 770:Service/Srv_DataHub.c ****         
 2296              		.loc 1 770 9 is_stmt 1 view .LVU778
 770:Service/Srv_DataHub.c ****         
 2297              		.loc 1 770 44 is_stmt 0 view .LVU779
 2298 0048 164C     		ldr	r4, .L205
 2299 004a 94F84541 		ldrb	r4, [r4, #325]	@ zero_extendqisi2
 770:Service/Srv_DataHub.c ****         
 2300              		.loc 1 770 19 view .LVU780
 2301 004e 1470     		strb	r4, [r2]
 2302              	.L195:
 772:Service/Srv_DataHub.c ****         *mode = SrvDataHub_Monitor.data.ctl_mode;
 2303              		.loc 1 772 5 is_stmt 1 view .LVU781
 772:Service/Srv_DataHub.c ****         *mode = SrvDataHub_Monitor.data.ctl_mode;
 2304              		.loc 1 772 8 is_stmt 0 view .LVU782
 2305 0050 1BB1     		cbz	r3, .L196
 773:Service/Srv_DataHub.c ****         
 2306              		.loc 1 773 9 is_stmt 1 view .LVU783
 773:Service/Srv_DataHub.c ****         
 2307              		.loc 1 773 40 is_stmt 0 view .LVU784
 2308 0052 144C     		ldr	r4, .L205
 2309 0054 94F84641 		ldrb	r4, [r4, #326]	@ zero_extendqisi2
 773:Service/Srv_DataHub.c ****         
 2310              		.loc 1 773 15 view .LVU785
 2311 0058 1C70     		strb	r4, [r3]
 2312              	.L196:
 775:Service/Srv_DataHub.c ****         *pitch = SrvDataHub_Monitor.data.exp_pitch;
 2313              		.loc 1 775 5 is_stmt 1 view .LVU786
 775:Service/Srv_DataHub.c ****         *pitch = SrvDataHub_Monitor.data.exp_pitch;
 2314              		.loc 1 775 8 is_stmt 0 view .LVU787
 2315 005a B8F1000F 		cmp	r8, #0
 2316 005e 04D0     		beq	.L197
 776:Service/Srv_DataHub.c ****         
 2317              		.loc 1 776 9 is_stmt 1 view .LVU788
 776:Service/Srv_DataHub.c ****         
 2318              		.loc 1 776 41 is_stmt 0 view .LVU789
 2319 0060 104C     		ldr	r4, .L205
 2320 0062 D4F84841 		ldr	r4, [r4, #328]	@ float
 776:Service/Srv_DataHub.c ****         
 2321              		.loc 1 776 16 view .LVU790
 2322 0066 C8F80040 		str	r4, [r8]	@ float
 2323              	.L197:
 778:Service/Srv_DataHub.c ****         *roll = SrvDataHub_Monitor.data.exp_roll;
 2324              		.loc 1 778 5 is_stmt 1 view .LVU791
 778:Service/Srv_DataHub.c ****         *roll = SrvDataHub_Monitor.data.exp_roll;
 2325              		.loc 1 778 8 is_stmt 0 view .LVU792
 2326 006a BEF1000F 		cmp	lr, #0
 2327 006e 04D0     		beq	.L198
 779:Service/Srv_DataHub.c ****         
 2328              		.loc 1 779 9 is_stmt 1 view .LVU793
 779:Service/Srv_DataHub.c ****         
 2329              		.loc 1 779 40 is_stmt 0 view .LVU794
 2330 0070 0C4C     		ldr	r4, .L205
 2331 0072 D4F84C41 		ldr	r4, [r4, #332]	@ float
 779:Service/Srv_DataHub.c ****         
 2332              		.loc 1 779 15 view .LVU795
ARM GAS  C:\Users\8bit\AppData\Local\Temp\ccClUhzi.s 			page 64


 2333 0076 CEF80040 		str	r4, [lr]	@ float
 2334              	.L198:
 781:Service/Srv_DataHub.c ****         *gx = SrvDataHub_Monitor.data.exp_gyr_x;
 2335              		.loc 1 781 5 is_stmt 1 view .LVU796
 781:Service/Srv_DataHub.c ****         *gx = SrvDataHub_Monitor.data.exp_gyr_x;
 2336              		.loc 1 781 8 is_stmt 0 view .LVU797
 2337 007a 1FB1     		cbz	r7, .L199
 782:Service/Srv_DataHub.c ****         
 2338              		.loc 1 782 9 is_stmt 1 view .LVU798
 782:Service/Srv_DataHub.c ****         
 2339              		.loc 1 782 38 is_stmt 0 view .LVU799
 2340 007c 094C     		ldr	r4, .L205
 2341 007e D4F85041 		ldr	r4, [r4, #336]	@ float
 782:Service/Srv_DataHub.c ****         
 2342              		.loc 1 782 13 view .LVU800
 2343 0082 3C60     		str	r4, [r7]	@ float
 2344              	.L199:
 784:Service/Srv_DataHub.c ****         *gy = SrvDataHub_Monitor.data.exp_gyr_y;
 2345              		.loc 1 784 5 is_stmt 1 view .LVU801
 784:Service/Srv_DataHub.c ****         *gy = SrvDataHub_Monitor.data.exp_gyr_y;
 2346              		.loc 1 784 8 is_stmt 0 view .LVU802
 2347 0084 1EB1     		cbz	r6, .L200
 785:Service/Srv_DataHub.c **** 
 2348              		.loc 1 785 9 is_stmt 1 view .LVU803
 785:Service/Srv_DataHub.c **** 
 2349              		.loc 1 785 38 is_stmt 0 view .LVU804
 2350 0086 074C     		ldr	r4, .L205
 2351 0088 D4F85441 		ldr	r4, [r4, #340]	@ float
 785:Service/Srv_DataHub.c **** 
 2352              		.loc 1 785 13 view .LVU805
 2353 008c 3460     		str	r4, [r6]	@ float
 2354              	.L200:
 787:Service/Srv_DataHub.c ****         *gz = SrvDataHub_Monitor.data.exp_gyr_z;
 2355              		.loc 1 787 5 is_stmt 1 view .LVU806
 787:Service/Srv_DataHub.c ****         *gz = SrvDataHub_Monitor.data.exp_gyr_z;
 2356              		.loc 1 787 8 is_stmt 0 view .LVU807
 2357 008e 002D     		cmp	r5, #0
 2358 0090 C0D1     		bne	.L204
 2359 0092 C3E7     		b	.L201
 2360              	.L203:
 791:Service/Srv_DataHub.c ****         goto reupdate_convertdata;
 792:Service/Srv_DataHub.c **** 
 793:Service/Srv_DataHub.c ****     SrvDataHub_Monitor.inuse_reg.bit.cnv_control_data = false;
 2361              		.loc 1 793 5 is_stmt 1 view .LVU808
 2362              		.loc 1 793 55 is_stmt 0 view .LVU809
 2363 0094 034B     		ldr	r3, .L205
 2364              	.LVL62:
 2365              		.loc 1 793 55 view .LVU810
 2366 0096 9A7A     		ldrb	r2, [r3, #10]	@ zero_extendqisi2
 2367              	.LVL63:
 2368              		.loc 1 793 55 view .LVU811
 2369 0098 6FF34102 		bfc	r2, #1, #1
 2370 009c 9A72     		strb	r2, [r3, #10]
 794:Service/Srv_DataHub.c ****     
 795:Service/Srv_DataHub.c ****     return true;
 2371              		.loc 1 795 5 is_stmt 1 view .LVU812
 796:Service/Srv_DataHub.c **** }
ARM GAS  C:\Users\8bit\AppData\Local\Temp\ccClUhzi.s 			page 65


 2372              		.loc 1 796 1 is_stmt 0 view .LVU813
 2373 009e 0120     		movs	r0, #1
 2374              	.LVL64:
 2375              		.loc 1 796 1 view .LVU814
 2376 00a0 BDE8F081 		pop	{r4, r5, r6, r7, r8, pc}
 2377              	.LVL65:
 2378              	.L206:
 2379              		.loc 1 796 1 view .LVU815
 2380              		.align	2
 2381              	.L205:
 2382 00a4 00000000 		.word	.LANCHOR0
 2383              		.cfi_endproc
 2384              	.LFE167:
 2386              		.section	.text.SrvDataHub_Get_Telemetry_ControlData,"ax",%progbits
 2387              		.align	1
 2388              		.syntax unified
 2389              		.thumb
 2390              		.thumb_func
 2392              	SrvDataHub_Get_Telemetry_ControlData:
 2393              	.LVL66:
 2394              	.LFB168:
 797:Service/Srv_DataHub.c **** 
 798:Service/Srv_DataHub.c **** static bool SrvDataHub_Get_Telemetry_ControlData(ControlData_TypeDef *data)
 799:Service/Srv_DataHub.c **** {
 2395              		.loc 1 799 1 is_stmt 1 view -0
 2396              		.cfi_startproc
 2397              		@ args = 0, pretend = 0, frame = 0
 2398              		@ frame_needed = 0, uses_anonymous_args = 0
 2399              		.loc 1 799 1 is_stmt 0 view .LVU817
 2400 0000 38B5     		push	{r3, r4, r5, lr}
 2401              	.LCFI12:
 2402              		.cfi_def_cfa_offset 16
 2403              		.cfi_offset 3, -16
 2404              		.cfi_offset 4, -12
 2405              		.cfi_offset 5, -8
 2406              		.cfi_offset 14, -4
 800:Service/Srv_DataHub.c ****     if(data)
 2407              		.loc 1 800 5 is_stmt 1 view .LVU818
 2408              		.loc 1 800 7 is_stmt 0 view .LVU819
 2409 0002 0546     		mov	r5, r0
 2410 0004 A0B1     		cbz	r0, .L210
 2411              	.LVL67:
 2412              	.L209:
 801:Service/Srv_DataHub.c ****     {
 802:Service/Srv_DataHub.c **** reupdate_telemetry_control_data:
 803:Service/Srv_DataHub.c ****         SrvDataHub_Monitor.inuse_reg.bit.rc_control_data = true;
 2413              		.loc 1 803 9 is_stmt 1 view .LVU820
 2414              		.loc 1 803 58 is_stmt 0 view .LVU821
 2415 0006 0B4C     		ldr	r4, .L212
 2416 0008 A37A     		ldrb	r3, [r4, #10]	@ zero_extendqisi2
 2417 000a 43F00403 		orr	r3, r3, #4
 2418 000e A372     		strb	r3, [r4, #10]
 804:Service/Srv_DataHub.c **** 
 805:Service/Srv_DataHub.c ****         (*data) = SrvDataHub_Monitor.data.RC_Control_Data;
 2419              		.loc 1 805 9 is_stmt 1 view .LVU822
 2420              		.loc 1 805 17 is_stmt 0 view .LVU823
 2421 0010 6422     		movs	r2, #100
ARM GAS  C:\Users\8bit\AppData\Local\Temp\ccClUhzi.s 			page 66


 2422 0012 04F1DC01 		add	r1, r4, #220
 2423 0016 2846     		mov	r0, r5
 2424 0018 FFF7FEFF 		bl	memcpy
 2425              	.LVL68:
 806:Service/Srv_DataHub.c **** 
 807:Service/Srv_DataHub.c ****         if(!SrvDataHub_Monitor.inuse_reg.bit.rc_control_data)
 2426              		.loc 1 807 9 is_stmt 1 view .LVU824
 2427              		.loc 1 807 12 is_stmt 0 view .LVU825
 2428 001c A37A     		ldrb	r3, [r4, #10]	@ zero_extendqisi2
 2429              		.loc 1 807 11 view .LVU826
 2430 001e 13F0040F 		tst	r3, #4
 2431 0022 F0D0     		beq	.L209
 808:Service/Srv_DataHub.c ****             goto reupdate_telemetry_control_data;
 809:Service/Srv_DataHub.c **** 
 810:Service/Srv_DataHub.c ****         SrvDataHub_Monitor.inuse_reg.bit.rc_control_data = false;
 2432              		.loc 1 810 9 is_stmt 1 view .LVU827
 2433              		.loc 1 810 58 is_stmt 0 view .LVU828
 2434 0024 A27A     		ldrb	r2, [r4, #10]	@ zero_extendqisi2
 2435 0026 6FF38202 		bfc	r2, #2, #1
 2436 002a A272     		strb	r2, [r4, #10]
 811:Service/Srv_DataHub.c **** 
 812:Service/Srv_DataHub.c ****         return true;
 2437              		.loc 1 812 9 is_stmt 1 view .LVU829
 2438              		.loc 1 812 16 is_stmt 0 view .LVU830
 2439 002c 0120     		movs	r0, #1
 2440              	.L208:
 813:Service/Srv_DataHub.c ****     }
 814:Service/Srv_DataHub.c **** 
 815:Service/Srv_DataHub.c ****     return false;
 816:Service/Srv_DataHub.c **** }
 2441              		.loc 1 816 1 view .LVU831
 2442 002e 38BD     		pop	{r3, r4, r5, pc}
 2443              	.LVL69:
 2444              	.L210:
 815:Service/Srv_DataHub.c **** }
 2445              		.loc 1 815 12 view .LVU832
 2446 0030 0020     		movs	r0, #0
 2447              	.LVL70:
 815:Service/Srv_DataHub.c **** }
 2448              		.loc 1 815 12 view .LVU833
 2449 0032 FCE7     		b	.L208
 2450              	.L213:
 2451              		.align	2
 2452              	.L212:
 2453 0034 00000000 		.word	.LANCHOR0
 2454              		.cfi_endproc
 2455              	.LFE168:
 2457              		.section	.text.SrvDataHub_Get_IMU_InitState,"ax",%progbits
 2458              		.align	1
 2459              		.syntax unified
 2460              		.thumb
 2461              		.thumb_func
 2463              	SrvDataHub_Get_IMU_InitState:
 2464              	.LFB170:
 817:Service/Srv_DataHub.c **** 
 818:Service/Srv_DataHub.c **** static bool SrvDataHub_Get_MotoChannel(uint32_t *time_stamp, uint8_t *cnt, uint16_t *moto_ch, uint8
 819:Service/Srv_DataHub.c **** {
ARM GAS  C:\Users\8bit\AppData\Local\Temp\ccClUhzi.s 			page 67


 820:Service/Srv_DataHub.c ****     if ((cnt == NULL) || (moto_ch == NULL))
 821:Service/Srv_DataHub.c ****         return false;
 822:Service/Srv_DataHub.c **** 
 823:Service/Srv_DataHub.c **** reupdate_moto_channel:
 824:Service/Srv_DataHub.c ****     SrvDataHub_Monitor.inuse_reg.bit.actuator = true;
 825:Service/Srv_DataHub.c **** 
 826:Service/Srv_DataHub.c ****     *time_stamp = SrvDataHub_Monitor.data.actuator_update_time;
 827:Service/Srv_DataHub.c ****     *cnt = SrvDataHub_Monitor.data.moto_num;
 828:Service/Srv_DataHub.c **** 
 829:Service/Srv_DataHub.c ****     if (*cnt)
 830:Service/Srv_DataHub.c ****     {
 831:Service/Srv_DataHub.c ****         memcpy(moto_ch, SrvDataHub_Monitor.data.moto, *cnt);
 832:Service/Srv_DataHub.c ****     }
 833:Service/Srv_DataHub.c **** 
 834:Service/Srv_DataHub.c ****     if (!SrvDataHub_Monitor.inuse_reg.bit.actuator)
 835:Service/Srv_DataHub.c ****         goto reupdate_moto_channel;
 836:Service/Srv_DataHub.c **** 
 837:Service/Srv_DataHub.c ****     SrvDataHub_Monitor.inuse_reg.bit.actuator = false;
 838:Service/Srv_DataHub.c **** 
 839:Service/Srv_DataHub.c ****     return true;
 840:Service/Srv_DataHub.c **** }
 841:Service/Srv_DataHub.c **** 
 842:Service/Srv_DataHub.c **** static bool SrvDataHub_Get_IMU_InitState(bool *state)
 843:Service/Srv_DataHub.c **** {
 2465              		.loc 1 843 1 is_stmt 1 view -0
 2466              		.cfi_startproc
 2467              		@ args = 0, pretend = 0, frame = 0
 2468              		@ frame_needed = 0, uses_anonymous_args = 0
 2469              		@ link register save eliminated.
 2470              	.LVL71:
 2471              		.loc 1 843 1 is_stmt 0 view .LVU835
 2472 0000 04E0     		b	.L215
 2473              	.L216:
 844:Service/Srv_DataHub.c **** reupdate_imu_state:
 845:Service/Srv_DataHub.c ****     SrvDataHub_Monitor.inuse_reg.bit.imu_init = true;
 846:Service/Srv_DataHub.c **** 
 847:Service/Srv_DataHub.c ****     if(state)
 848:Service/Srv_DataHub.c ****         *state = SrvDataHub_Monitor.data.imu_init_state;
 849:Service/Srv_DataHub.c **** 
 850:Service/Srv_DataHub.c ****     if(!SrvDataHub_Monitor.inuse_reg.bit.imu_init)
 2474              		.loc 1 850 5 is_stmt 1 view .LVU836
 2475              		.loc 1 850 7 is_stmt 0 view .LVU837
 2476 0002 0B4B     		ldr	r3, .L218
 2477 0004 93F90A30 		ldrsb	r3, [r3, #10]
 2478 0008 002B     		cmp	r3, #0
 2479 000a 09DB     		blt	.L217
 2480              	.L215:
 845:Service/Srv_DataHub.c **** 
 2481              		.loc 1 845 5 is_stmt 1 view .LVU838
 845:Service/Srv_DataHub.c **** 
 2482              		.loc 1 845 47 is_stmt 0 view .LVU839
 2483 000c 084A     		ldr	r2, .L218
 2484 000e 937A     		ldrb	r3, [r2, #10]	@ zero_extendqisi2
 2485 0010 43F08003 		orr	r3, r3, #128
 2486 0014 9372     		strb	r3, [r2, #10]
 847:Service/Srv_DataHub.c ****         *state = SrvDataHub_Monitor.data.imu_init_state;
 2487              		.loc 1 847 5 is_stmt 1 view .LVU840
ARM GAS  C:\Users\8bit\AppData\Local\Temp\ccClUhzi.s 			page 68


 847:Service/Srv_DataHub.c ****         *state = SrvDataHub_Monitor.data.imu_init_state;
 2488              		.loc 1 847 7 is_stmt 0 view .LVU841
 2489 0016 0028     		cmp	r0, #0
 2490 0018 F3D0     		beq	.L216
 848:Service/Srv_DataHub.c **** 
 2491              		.loc 1 848 9 is_stmt 1 view .LVU842
 848:Service/Srv_DataHub.c **** 
 2492              		.loc 1 848 41 is_stmt 0 view .LVU843
 2493 001a 137E     		ldrb	r3, [r2, #24]	@ zero_extendqisi2
 848:Service/Srv_DataHub.c **** 
 2494              		.loc 1 848 16 view .LVU844
 2495 001c 0370     		strb	r3, [r0]
 2496 001e F0E7     		b	.L216
 2497              	.L217:
 851:Service/Srv_DataHub.c ****         goto reupdate_imu_state;
 852:Service/Srv_DataHub.c **** 
 853:Service/Srv_DataHub.c ****     SrvDataHub_Monitor.inuse_reg.bit.imu_init = false;
 2498              		.loc 1 853 5 is_stmt 1 view .LVU845
 2499              		.loc 1 853 47 is_stmt 0 view .LVU846
 2500 0020 034B     		ldr	r3, .L218
 2501 0022 9A7A     		ldrb	r2, [r3, #10]	@ zero_extendqisi2
 2502 0024 6FF3C712 		bfc	r2, #7, #1
 2503 0028 9A72     		strb	r2, [r3, #10]
 854:Service/Srv_DataHub.c **** 
 855:Service/Srv_DataHub.c ****     return true;
 2504              		.loc 1 855 5 is_stmt 1 view .LVU847
 856:Service/Srv_DataHub.c **** }
 2505              		.loc 1 856 1 is_stmt 0 view .LVU848
 2506 002a 0120     		movs	r0, #1
 2507              	.LVL72:
 2508              		.loc 1 856 1 view .LVU849
 2509 002c 7047     		bx	lr
 2510              	.L219:
 2511 002e 00BF     		.align	2
 2512              	.L218:
 2513 0030 00000000 		.word	.LANCHOR0
 2514              		.cfi_endproc
 2515              	.LFE170:
 2517              		.section	.text.SrvDataHub_Get_Mag_InitState,"ax",%progbits
 2518              		.align	1
 2519              		.syntax unified
 2520              		.thumb
 2521              		.thumb_func
 2523              	SrvDataHub_Get_Mag_InitState:
 2524              	.LFB171:
 857:Service/Srv_DataHub.c **** 
 858:Service/Srv_DataHub.c **** static bool SrvDataHub_Get_Mag_InitState(bool *state)
 859:Service/Srv_DataHub.c **** {
 2525              		.loc 1 859 1 is_stmt 1 view -0
 2526              		.cfi_startproc
 2527              		@ args = 0, pretend = 0, frame = 0
 2528              		@ frame_needed = 0, uses_anonymous_args = 0
 2529              		@ link register save eliminated.
 2530              	.LVL73:
 2531              		.loc 1 859 1 is_stmt 0 view .LVU851
 2532 0000 04E0     		b	.L221
 2533              	.L222:
ARM GAS  C:\Users\8bit\AppData\Local\Temp\ccClUhzi.s 			page 69


 860:Service/Srv_DataHub.c **** reupdate_mag_state:
 861:Service/Srv_DataHub.c ****     SrvDataHub_Monitor.inuse_reg.bit.mag_init = true;
 862:Service/Srv_DataHub.c **** 
 863:Service/Srv_DataHub.c ****     if(state)
 864:Service/Srv_DataHub.c ****         *state = SrvDataHub_Monitor.data.mag_init_state;
 865:Service/Srv_DataHub.c **** 
 866:Service/Srv_DataHub.c ****     if(!SrvDataHub_Monitor.inuse_reg.bit.mag_init)
 2534              		.loc 1 866 5 is_stmt 1 view .LVU852
 2535              		.loc 1 866 8 is_stmt 0 view .LVU853
 2536 0002 0B4B     		ldr	r3, .L224
 2537 0004 9B7A     		ldrb	r3, [r3, #10]	@ zero_extendqisi2
 2538              		.loc 1 866 7 view .LVU854
 2539 0006 13F0400F 		tst	r3, #64
 2540 000a 0AD1     		bne	.L223
 2541              	.L221:
 861:Service/Srv_DataHub.c **** 
 2542              		.loc 1 861 5 is_stmt 1 view .LVU855
 861:Service/Srv_DataHub.c **** 
 2543              		.loc 1 861 47 is_stmt 0 view .LVU856
 2544 000c 084A     		ldr	r2, .L224
 2545 000e 937A     		ldrb	r3, [r2, #10]	@ zero_extendqisi2
 2546 0010 43F04003 		orr	r3, r3, #64
 2547 0014 9372     		strb	r3, [r2, #10]
 863:Service/Srv_DataHub.c ****         *state = SrvDataHub_Monitor.data.mag_init_state;
 2548              		.loc 1 863 5 is_stmt 1 view .LVU857
 863:Service/Srv_DataHub.c ****         *state = SrvDataHub_Monitor.data.mag_init_state;
 2549              		.loc 1 863 7 is_stmt 0 view .LVU858
 2550 0016 0028     		cmp	r0, #0
 2551 0018 F3D0     		beq	.L222
 864:Service/Srv_DataHub.c **** 
 2552              		.loc 1 864 9 is_stmt 1 view .LVU859
 864:Service/Srv_DataHub.c **** 
 2553              		.loc 1 864 41 is_stmt 0 view .LVU860
 2554 001a 92F86A30 		ldrb	r3, [r2, #106]	@ zero_extendqisi2
 864:Service/Srv_DataHub.c **** 
 2555              		.loc 1 864 16 view .LVU861
 2556 001e 0370     		strb	r3, [r0]
 2557 0020 EFE7     		b	.L222
 2558              	.L223:
 867:Service/Srv_DataHub.c ****         goto reupdate_mag_state;
 868:Service/Srv_DataHub.c **** 
 869:Service/Srv_DataHub.c ****     SrvDataHub_Monitor.inuse_reg.bit.mag_init = false;
 2559              		.loc 1 869 5 is_stmt 1 view .LVU862
 2560              		.loc 1 869 47 is_stmt 0 view .LVU863
 2561 0022 034B     		ldr	r3, .L224
 2562 0024 9A7A     		ldrb	r2, [r3, #10]	@ zero_extendqisi2
 2563 0026 6FF38612 		bfc	r2, #6, #1
 2564 002a 9A72     		strb	r2, [r3, #10]
 870:Service/Srv_DataHub.c **** 
 871:Service/Srv_DataHub.c ****     return true;
 2565              		.loc 1 871 5 is_stmt 1 view .LVU864
 872:Service/Srv_DataHub.c **** }
 2566              		.loc 1 872 1 is_stmt 0 view .LVU865
 2567 002c 0120     		movs	r0, #1
 2568              	.LVL74:
 2569              		.loc 1 872 1 view .LVU866
 2570 002e 7047     		bx	lr
ARM GAS  C:\Users\8bit\AppData\Local\Temp\ccClUhzi.s 			page 70


 2571              	.L225:
 2572              		.align	2
 2573              	.L224:
 2574 0030 00000000 		.word	.LANCHOR0
 2575              		.cfi_endproc
 2576              	.LFE171:
 2578              		.section	.text.SrvDataHub_Get_Bar_InitState,"ax",%progbits
 2579              		.align	1
 2580              		.syntax unified
 2581              		.thumb
 2582              		.thumb_func
 2584              	SrvDataHub_Get_Bar_InitState:
 2585              	.LFB172:
 873:Service/Srv_DataHub.c **** 
 874:Service/Srv_DataHub.c **** static bool SrvDataHub_Get_Bar_InitState(bool *state)
 875:Service/Srv_DataHub.c **** {
 2586              		.loc 1 875 1 is_stmt 1 view -0
 2587              		.cfi_startproc
 2588              		@ args = 0, pretend = 0, frame = 0
 2589              		@ frame_needed = 0, uses_anonymous_args = 0
 2590              		@ link register save eliminated.
 2591              	.LVL75:
 2592              		.loc 1 875 1 is_stmt 0 view .LVU868
 2593 0000 04E0     		b	.L227
 2594              	.L228:
 876:Service/Srv_DataHub.c **** reupdate_baro_state:
 877:Service/Srv_DataHub.c ****     SrvDataHub_Monitor.inuse_reg.bit.baro_init = true;
 878:Service/Srv_DataHub.c **** 
 879:Service/Srv_DataHub.c ****     if (state)
 880:Service/Srv_DataHub.c ****         *state = SrvDataHub_Monitor.data.baro_init_state;
 881:Service/Srv_DataHub.c **** 
 882:Service/Srv_DataHub.c ****     if (!SrvDataHub_Monitor.inuse_reg.bit.baro_init)
 2595              		.loc 1 882 5 is_stmt 1 view .LVU869
 2596              		.loc 1 882 9 is_stmt 0 view .LVU870
 2597 0002 0B4B     		ldr	r3, .L230
 2598 0004 DB7A     		ldrb	r3, [r3, #11]	@ zero_extendqisi2
 2599              		.loc 1 882 8 view .LVU871
 2600 0006 13F0010F 		tst	r3, #1
 2601 000a 0AD1     		bne	.L229
 2602              	.L227:
 877:Service/Srv_DataHub.c **** 
 2603              		.loc 1 877 5 is_stmt 1 view .LVU872
 877:Service/Srv_DataHub.c **** 
 2604              		.loc 1 877 48 is_stmt 0 view .LVU873
 2605 000c 084A     		ldr	r2, .L230
 2606 000e D37A     		ldrb	r3, [r2, #11]	@ zero_extendqisi2
 2607 0010 43F00103 		orr	r3, r3, #1
 2608 0014 D372     		strb	r3, [r2, #11]
 879:Service/Srv_DataHub.c ****         *state = SrvDataHub_Monitor.data.baro_init_state;
 2609              		.loc 1 879 5 is_stmt 1 view .LVU874
 879:Service/Srv_DataHub.c ****         *state = SrvDataHub_Monitor.data.baro_init_state;
 2610              		.loc 1 879 8 is_stmt 0 view .LVU875
 2611 0016 0028     		cmp	r0, #0
 2612 0018 F3D0     		beq	.L228
 880:Service/Srv_DataHub.c **** 
 2613              		.loc 1 880 9 is_stmt 1 view .LVU876
 880:Service/Srv_DataHub.c **** 
ARM GAS  C:\Users\8bit\AppData\Local\Temp\ccClUhzi.s 			page 71


 2614              		.loc 1 880 41 is_stmt 0 view .LVU877
 2615 001a 92F89230 		ldrb	r3, [r2, #146]	@ zero_extendqisi2
 880:Service/Srv_DataHub.c **** 
 2616              		.loc 1 880 16 view .LVU878
 2617 001e 0370     		strb	r3, [r0]
 2618 0020 EFE7     		b	.L228
 2619              	.L229:
 883:Service/Srv_DataHub.c ****         goto reupdate_baro_state;
 884:Service/Srv_DataHub.c **** 
 885:Service/Srv_DataHub.c ****     SrvDataHub_Monitor.inuse_reg.bit.baro_init = false;
 2620              		.loc 1 885 5 is_stmt 1 view .LVU879
 2621              		.loc 1 885 48 is_stmt 0 view .LVU880
 2622 0022 034B     		ldr	r3, .L230
 2623 0024 DA7A     		ldrb	r2, [r3, #11]	@ zero_extendqisi2
 2624 0026 6FF30002 		bfc	r2, #0, #1
 2625 002a DA72     		strb	r2, [r3, #11]
 886:Service/Srv_DataHub.c **** 
 887:Service/Srv_DataHub.c ****     return true;
 2626              		.loc 1 887 5 is_stmt 1 view .LVU881
 888:Service/Srv_DataHub.c **** }
 2627              		.loc 1 888 1 is_stmt 0 view .LVU882
 2628 002c 0120     		movs	r0, #1
 2629              	.LVL76:
 2630              		.loc 1 888 1 view .LVU883
 2631 002e 7047     		bx	lr
 2632              	.L231:
 2633              		.align	2
 2634              	.L230:
 2635 0030 00000000 		.word	.LANCHOR0
 2636              		.cfi_endproc
 2637              	.LFE172:
 2639              		.section	.text.SrvDataHub_Set_CLI_State,"ax",%progbits
 2640              		.align	1
 2641              		.syntax unified
 2642              		.thumb
 2643              		.thumb_func
 2645              	SrvDataHub_Set_CLI_State:
 2646              	.LVL77:
 2647              	.LFB174:
 889:Service/Srv_DataHub.c **** 
 890:Service/Srv_DataHub.c **** static bool SrvDataHub_Get_ServoChannel(uint32_t *time_stamp, uint8_t *cnt, uint16_t *servo_ch, uin
 891:Service/Srv_DataHub.c **** {
 892:Service/Srv_DataHub.c ****     if ((cnt == NULL) || (servo_ch == NULL) || (servo_dir == NULL))
 893:Service/Srv_DataHub.c ****         return false;
 894:Service/Srv_DataHub.c **** 
 895:Service/Srv_DataHub.c **** reupdate_servo_channel:
 896:Service/Srv_DataHub.c ****     SrvDataHub_Monitor.inuse_reg.bit.actuator = true;
 897:Service/Srv_DataHub.c **** 
 898:Service/Srv_DataHub.c ****     *time_stamp = SrvDataHub_Monitor.data.actuator_update_time;
 899:Service/Srv_DataHub.c ****     *cnt = SrvDataHub_Monitor.data.servo_num;
 900:Service/Srv_DataHub.c **** 
 901:Service/Srv_DataHub.c ****     if (*cnt)
 902:Service/Srv_DataHub.c ****     {
 903:Service/Srv_DataHub.c ****         memcpy(servo_ch, SrvDataHub_Monitor.data.servo, *cnt);
 904:Service/Srv_DataHub.c ****     }
 905:Service/Srv_DataHub.c **** 
 906:Service/Srv_DataHub.c ****     if (!SrvDataHub_Monitor.inuse_reg.bit.actuator)
ARM GAS  C:\Users\8bit\AppData\Local\Temp\ccClUhzi.s 			page 72


 907:Service/Srv_DataHub.c ****         goto reupdate_servo_channel;
 908:Service/Srv_DataHub.c **** 
 909:Service/Srv_DataHub.c ****     SrvDataHub_Monitor.inuse_reg.bit.actuator = false;
 910:Service/Srv_DataHub.c **** 
 911:Service/Srv_DataHub.c ****     return true;
 912:Service/Srv_DataHub.c **** }
 913:Service/Srv_DataHub.c **** 
 914:Service/Srv_DataHub.c **** static bool SrvDataHub_Set_CLI_State(bool state)
 915:Service/Srv_DataHub.c **** {
 2648              		.loc 1 915 1 is_stmt 1 view -0
 2649              		.cfi_startproc
 2650              		@ args = 0, pretend = 0, frame = 0
 2651              		@ frame_needed = 0, uses_anonymous_args = 0
 2652              		@ link register save eliminated.
 916:Service/Srv_DataHub.c ****     if(SrvDataHub_Monitor.inuse_reg.bit.cli)
 2653              		.loc 1 916 5 view .LVU885
 2654              		.loc 1 916 8 is_stmt 0 view .LVU886
 2655 0000 0B4B     		ldr	r3, .L234
 2656 0002 DB7A     		ldrb	r3, [r3, #11]	@ zero_extendqisi2
 2657              		.loc 1 916 7 view .LVU887
 2658 0004 13F0040F 		tst	r3, #4
 2659 0008 04D0     		beq	.L233
 917:Service/Srv_DataHub.c ****         SrvDataHub_Monitor.inuse_reg.bit.cli = false;
 2660              		.loc 1 917 9 is_stmt 1 view .LVU888
 2661              		.loc 1 917 46 is_stmt 0 view .LVU889
 2662 000a 094B     		ldr	r3, .L234
 2663 000c DA7A     		ldrb	r2, [r3, #11]	@ zero_extendqisi2
 2664 000e 6FF38202 		bfc	r2, #2, #1
 2665 0012 DA72     		strb	r2, [r3, #11]
 2666              	.L233:
 918:Service/Srv_DataHub.c **** 
 919:Service/Srv_DataHub.c ****     SrvDataHub_Monitor.update_reg.bit.cli = true;
 2667              		.loc 1 919 5 is_stmt 1 view .LVU890
 2668              		.loc 1 919 43 is_stmt 0 view .LVU891
 2669 0014 064B     		ldr	r3, .L234
 2670 0016 DA7C     		ldrb	r2, [r3, #19]	@ zero_extendqisi2
 2671 0018 42F00402 		orr	r2, r2, #4
 2672 001c DA74     		strb	r2, [r3, #19]
 920:Service/Srv_DataHub.c ****     SrvDataHub_Monitor.data.CLI_state = state;
 2673              		.loc 1 920 5 is_stmt 1 view .LVU892
 2674              		.loc 1 920 39 is_stmt 0 view .LVU893
 2675 001e 83F8DD01 		strb	r0, [r3, #477]
 921:Service/Srv_DataHub.c ****     SrvDataHub_Monitor.update_reg.bit.cli = false;
 2676              		.loc 1 921 5 is_stmt 1 view .LVU894
 2677              		.loc 1 921 43 is_stmt 0 view .LVU895
 2678 0022 D2B2     		uxtb	r2, r2
 2679 0024 6FF38202 		bfc	r2, #2, #1
 2680 0028 DA74     		strb	r2, [r3, #19]
 922:Service/Srv_DataHub.c ****     
 923:Service/Srv_DataHub.c ****     return true;
 2681              		.loc 1 923 5 is_stmt 1 view .LVU896
 924:Service/Srv_DataHub.c **** }
 2682              		.loc 1 924 1 is_stmt 0 view .LVU897
 2683 002a 0120     		movs	r0, #1
 2684              	.LVL78:
 2685              		.loc 1 924 1 view .LVU898
 2686 002c 7047     		bx	lr
ARM GAS  C:\Users\8bit\AppData\Local\Temp\ccClUhzi.s 			page 73


 2687              	.L235:
 2688 002e 00BF     		.align	2
 2689              	.L234:
 2690 0030 00000000 		.word	.LANCHOR0
 2691              		.cfi_endproc
 2692              	.LFE174:
 2694              		.section	.text.SrvDataHub_Get_CLI_State,"ax",%progbits
 2695              		.align	1
 2696              		.syntax unified
 2697              		.thumb
 2698              		.thumb_func
 2700              	SrvDataHub_Get_CLI_State:
 2701              	.LVL79:
 2702              	.LFB175:
 925:Service/Srv_DataHub.c **** 
 926:Service/Srv_DataHub.c **** static bool SrvDataHub_Get_CLI_State(bool *state)
 927:Service/Srv_DataHub.c **** {
 2703              		.loc 1 927 1 is_stmt 1 view -0
 2704              		.cfi_startproc
 2705              		@ args = 0, pretend = 0, frame = 0
 2706              		@ frame_needed = 0, uses_anonymous_args = 0
 2707              		@ link register save eliminated.
 928:Service/Srv_DataHub.c ****     if(state)
 2708              		.loc 1 928 5 view .LVU900
 2709              		.loc 1 928 7 is_stmt 0 view .LVU901
 2710 0000 0146     		mov	r1, r0
 2711 0002 90B1     		cbz	r0, .L239
 2712              	.L238:
 929:Service/Srv_DataHub.c ****     {
 930:Service/Srv_DataHub.c **** reupdate_cli_state:
 931:Service/Srv_DataHub.c ****         SrvDataHub_Monitor.inuse_reg.bit.cli = true;
 2713              		.loc 1 931 9 is_stmt 1 view .LVU902
 2714              		.loc 1 931 46 is_stmt 0 view .LVU903
 2715 0004 0A4B     		ldr	r3, .L240
 2716 0006 DA7A     		ldrb	r2, [r3, #11]	@ zero_extendqisi2
 2717 0008 42F00402 		orr	r2, r2, #4
 2718 000c DA72     		strb	r2, [r3, #11]
 932:Service/Srv_DataHub.c **** 
 933:Service/Srv_DataHub.c ****         (*state) = SrvDataHub_Monitor.data.CLI_state;
 2719              		.loc 1 933 9 is_stmt 1 view .LVU904
 2720              		.loc 1 933 43 is_stmt 0 view .LVU905
 2721 000e 93F8DD21 		ldrb	r2, [r3, #477]	@ zero_extendqisi2
 2722              		.loc 1 933 18 view .LVU906
 2723 0012 0A70     		strb	r2, [r1]
 934:Service/Srv_DataHub.c **** 
 935:Service/Srv_DataHub.c ****         if(!SrvDataHub_Monitor.inuse_reg.bit.cli)
 2724              		.loc 1 935 9 is_stmt 1 view .LVU907
 2725              		.loc 1 935 12 is_stmt 0 view .LVU908
 2726 0014 DB7A     		ldrb	r3, [r3, #11]	@ zero_extendqisi2
 2727              		.loc 1 935 11 view .LVU909
 2728 0016 13F0040F 		tst	r3, #4
 2729 001a F3D0     		beq	.L238
 936:Service/Srv_DataHub.c ****             goto reupdate_cli_state;
 937:Service/Srv_DataHub.c **** 
 938:Service/Srv_DataHub.c ****         SrvDataHub_Monitor.inuse_reg.bit.cli = false;
 2730              		.loc 1 938 9 is_stmt 1 view .LVU910
 2731              		.loc 1 938 46 is_stmt 0 view .LVU911
ARM GAS  C:\Users\8bit\AppData\Local\Temp\ccClUhzi.s 			page 74


 2732 001c 044B     		ldr	r3, .L240
 2733 001e DA7A     		ldrb	r2, [r3, #11]	@ zero_extendqisi2
 2734 0020 6FF38202 		bfc	r2, #2, #1
 2735 0024 DA72     		strb	r2, [r3, #11]
 939:Service/Srv_DataHub.c **** 
 940:Service/Srv_DataHub.c ****         return true;
 2736              		.loc 1 940 9 is_stmt 1 view .LVU912
 2737              		.loc 1 940 16 is_stmt 0 view .LVU913
 2738 0026 0120     		movs	r0, #1
 2739              	.LVL80:
 2740              		.loc 1 940 16 view .LVU914
 2741 0028 7047     		bx	lr
 2742              	.LVL81:
 2743              	.L239:
 941:Service/Srv_DataHub.c ****     }
 942:Service/Srv_DataHub.c **** 
 943:Service/Srv_DataHub.c ****     return false;
 2744              		.loc 1 943 12 view .LVU915
 2745 002a 0020     		movs	r0, #0
 2746              	.LVL82:
 944:Service/Srv_DataHub.c **** }
 2747              		.loc 1 944 1 view .LVU916
 2748 002c 7047     		bx	lr
 2749              	.L241:
 2750 002e 00BF     		.align	2
 2751              	.L240:
 2752 0030 00000000 		.word	.LANCHOR0
 2753              		.cfi_endproc
 2754              	.LFE175:
 2756              		.section	.text.SrvDataHub_Set_Upgrade_State,"ax",%progbits
 2757              		.align	1
 2758              		.syntax unified
 2759              		.thumb
 2760              		.thumb_func
 2762              	SrvDataHub_Set_Upgrade_State:
 2763              	.LVL83:
 2764              	.LFB176:
 945:Service/Srv_DataHub.c **** 
 946:Service/Srv_DataHub.c **** static bool SrvDataHub_Set_Upgrade_State(bool state)
 947:Service/Srv_DataHub.c **** {
 2765              		.loc 1 947 1 is_stmt 1 view -0
 2766              		.cfi_startproc
 2767              		@ args = 0, pretend = 0, frame = 0
 2768              		@ frame_needed = 0, uses_anonymous_args = 0
 2769              		@ link register save eliminated.
 948:Service/Srv_DataHub.c ****     if (SrvDataHub_Monitor.inuse_reg.bit.upgrade)
 2770              		.loc 1 948 5 view .LVU918
 2771              		.loc 1 948 9 is_stmt 0 view .LVU919
 2772 0000 0B4B     		ldr	r3, .L244
 2773 0002 DB7A     		ldrb	r3, [r3, #11]	@ zero_extendqisi2
 2774              		.loc 1 948 8 view .LVU920
 2775 0004 13F0080F 		tst	r3, #8
 2776 0008 04D0     		beq	.L243
 949:Service/Srv_DataHub.c ****         SrvDataHub_Monitor.inuse_reg.bit.upgrade = false;
 2777              		.loc 1 949 9 is_stmt 1 view .LVU921
 2778              		.loc 1 949 50 is_stmt 0 view .LVU922
 2779 000a 094B     		ldr	r3, .L244
ARM GAS  C:\Users\8bit\AppData\Local\Temp\ccClUhzi.s 			page 75


 2780 000c DA7A     		ldrb	r2, [r3, #11]	@ zero_extendqisi2
 2781 000e 6FF3C302 		bfc	r2, #3, #1
 2782 0012 DA72     		strb	r2, [r3, #11]
 2783              	.L243:
 950:Service/Srv_DataHub.c **** 
 951:Service/Srv_DataHub.c ****     SrvDataHub_Monitor.update_reg.bit.upgrade = true;
 2784              		.loc 1 951 5 is_stmt 1 view .LVU923
 2785              		.loc 1 951 47 is_stmt 0 view .LVU924
 2786 0014 064B     		ldr	r3, .L244
 2787 0016 DA7C     		ldrb	r2, [r3, #19]	@ zero_extendqisi2
 2788 0018 42F00802 		orr	r2, r2, #8
 2789 001c DA74     		strb	r2, [r3, #19]
 952:Service/Srv_DataHub.c ****     SrvDataHub_Monitor.data.upgrading = state;
 2790              		.loc 1 952 5 is_stmt 1 view .LVU925
 2791              		.loc 1 952 39 is_stmt 0 view .LVU926
 2792 001e 83F8DC01 		strb	r0, [r3, #476]
 953:Service/Srv_DataHub.c ****     SrvDataHub_Monitor.update_reg.bit.upgrade = false;
 2793              		.loc 1 953 5 is_stmt 1 view .LVU927
 2794              		.loc 1 953 47 is_stmt 0 view .LVU928
 2795 0022 D2B2     		uxtb	r2, r2
 2796 0024 6FF3C302 		bfc	r2, #3, #1
 2797 0028 DA74     		strb	r2, [r3, #19]
 954:Service/Srv_DataHub.c ****     
 955:Service/Srv_DataHub.c ****     return true; 
 2798              		.loc 1 955 5 is_stmt 1 view .LVU929
 956:Service/Srv_DataHub.c **** }
 2799              		.loc 1 956 1 is_stmt 0 view .LVU930
 2800 002a 0120     		movs	r0, #1
 2801              	.LVL84:
 2802              		.loc 1 956 1 view .LVU931
 2803 002c 7047     		bx	lr
 2804              	.L245:
 2805 002e 00BF     		.align	2
 2806              	.L244:
 2807 0030 00000000 		.word	.LANCHOR0
 2808              		.cfi_endproc
 2809              	.LFE176:
 2811              		.section	.text.SrvDataHub_Get_Upgrade_State,"ax",%progbits
 2812              		.align	1
 2813              		.syntax unified
 2814              		.thumb
 2815              		.thumb_func
 2817              	SrvDataHub_Get_Upgrade_State:
 2818              	.LVL85:
 2819              	.LFB177:
 957:Service/Srv_DataHub.c **** 
 958:Service/Srv_DataHub.c **** static bool SrvDataHub_Get_Upgrade_State(bool *state)
 959:Service/Srv_DataHub.c **** {
 2820              		.loc 1 959 1 is_stmt 1 view -0
 2821              		.cfi_startproc
 2822              		@ args = 0, pretend = 0, frame = 0
 2823              		@ frame_needed = 0, uses_anonymous_args = 0
 2824              		@ link register save eliminated.
 960:Service/Srv_DataHub.c ****     if(state)
 2825              		.loc 1 960 5 view .LVU933
 2826              		.loc 1 960 7 is_stmt 0 view .LVU934
 2827 0000 0146     		mov	r1, r0
ARM GAS  C:\Users\8bit\AppData\Local\Temp\ccClUhzi.s 			page 76


 2828 0002 90B1     		cbz	r0, .L249
 2829              	.L248:
 961:Service/Srv_DataHub.c ****     {
 962:Service/Srv_DataHub.c **** reupdate_upgrade_state:
 963:Service/Srv_DataHub.c ****         SrvDataHub_Monitor.inuse_reg.bit.upgrade = true;
 2830              		.loc 1 963 9 is_stmt 1 view .LVU935
 2831              		.loc 1 963 50 is_stmt 0 view .LVU936
 2832 0004 0A4B     		ldr	r3, .L250
 2833 0006 DA7A     		ldrb	r2, [r3, #11]	@ zero_extendqisi2
 2834 0008 42F00802 		orr	r2, r2, #8
 2835 000c DA72     		strb	r2, [r3, #11]
 964:Service/Srv_DataHub.c **** 
 965:Service/Srv_DataHub.c ****         (*state) = SrvDataHub_Monitor.data.upgrading;
 2836              		.loc 1 965 9 is_stmt 1 view .LVU937
 2837              		.loc 1 965 43 is_stmt 0 view .LVU938
 2838 000e 93F8DC21 		ldrb	r2, [r3, #476]	@ zero_extendqisi2
 2839              		.loc 1 965 18 view .LVU939
 2840 0012 0A70     		strb	r2, [r1]
 966:Service/Srv_DataHub.c **** 
 967:Service/Srv_DataHub.c ****         if(!SrvDataHub_Monitor.inuse_reg.bit.upgrade)
 2841              		.loc 1 967 9 is_stmt 1 view .LVU940
 2842              		.loc 1 967 12 is_stmt 0 view .LVU941
 2843 0014 DB7A     		ldrb	r3, [r3, #11]	@ zero_extendqisi2
 2844              		.loc 1 967 11 view .LVU942
 2845 0016 13F0080F 		tst	r3, #8
 2846 001a F3D0     		beq	.L248
 968:Service/Srv_DataHub.c ****             goto reupdate_upgrade_state;
 969:Service/Srv_DataHub.c **** 
 970:Service/Srv_DataHub.c ****         SrvDataHub_Monitor.inuse_reg.bit.upgrade = false;
 2847              		.loc 1 970 9 is_stmt 1 view .LVU943
 2848              		.loc 1 970 50 is_stmt 0 view .LVU944
 2849 001c 044B     		ldr	r3, .L250
 2850 001e DA7A     		ldrb	r2, [r3, #11]	@ zero_extendqisi2
 2851 0020 6FF3C302 		bfc	r2, #3, #1
 2852 0024 DA72     		strb	r2, [r3, #11]
 971:Service/Srv_DataHub.c ****         
 972:Service/Srv_DataHub.c ****         return true;
 2853              		.loc 1 972 9 is_stmt 1 view .LVU945
 2854              		.loc 1 972 16 is_stmt 0 view .LVU946
 2855 0026 0120     		movs	r0, #1
 2856              	.LVL86:
 2857              		.loc 1 972 16 view .LVU947
 2858 0028 7047     		bx	lr
 2859              	.LVL87:
 2860              	.L249:
 973:Service/Srv_DataHub.c ****     }
 974:Service/Srv_DataHub.c **** 
 975:Service/Srv_DataHub.c ****     return false;
 2861              		.loc 1 975 12 view .LVU948
 2862 002a 0020     		movs	r0, #0
 2863              	.LVL88:
 976:Service/Srv_DataHub.c **** }
 2864              		.loc 1 976 1 view .LVU949
 2865 002c 7047     		bx	lr
 2866              	.L251:
 2867 002e 00BF     		.align	2
 2868              	.L250:
ARM GAS  C:\Users\8bit\AppData\Local\Temp\ccClUhzi.s 			page 77


 2869 0030 00000000 		.word	.LANCHOR0
 2870              		.cfi_endproc
 2871              	.LFE177:
 2873              		.section	.text.SrvDataHub_Get_VCPAttach_State,"ax",%progbits
 2874              		.align	1
 2875              		.syntax unified
 2876              		.thumb
 2877              		.thumb_func
 2879              	SrvDataHub_Get_VCPAttach_State:
 2880              	.LVL89:
 2881              	.LFB178:
 977:Service/Srv_DataHub.c **** 
 978:Service/Srv_DataHub.c **** static bool SrvDataHub_Get_VCPAttach_State(bool *state)
 979:Service/Srv_DataHub.c **** {
 2882              		.loc 1 979 1 is_stmt 1 view -0
 2883              		.cfi_startproc
 2884              		@ args = 0, pretend = 0, frame = 0
 2885              		@ frame_needed = 0, uses_anonymous_args = 0
 2886              		@ link register save eliminated.
 980:Service/Srv_DataHub.c ****     if(state)
 2887              		.loc 1 980 5 view .LVU951
 2888              		.loc 1 980 7 is_stmt 0 view .LVU952
 2889 0000 0146     		mov	r1, r0
 2890 0002 90B1     		cbz	r0, .L255
 2891              	.L254:
 981:Service/Srv_DataHub.c ****     {
 982:Service/Srv_DataHub.c **** reupdate_vcp_attach_state:
 983:Service/Srv_DataHub.c ****         SrvDataHub_Monitor.inuse_reg.bit.USB_VCP_attach = true;
 2892              		.loc 1 983 9 is_stmt 1 view .LVU953
 2893              		.loc 1 983 57 is_stmt 0 view .LVU954
 2894 0004 0A4B     		ldr	r3, .L256
 2895 0006 DA7A     		ldrb	r2, [r3, #11]	@ zero_extendqisi2
 2896 0008 42F00202 		orr	r2, r2, #2
 2897 000c DA72     		strb	r2, [r3, #11]
 984:Service/Srv_DataHub.c **** 
 985:Service/Srv_DataHub.c ****         (*state) = SrvDataHub_Monitor.data.VCP_Attach;
 2898              		.loc 1 985 9 is_stmt 1 view .LVU955
 2899              		.loc 1 985 43 is_stmt 0 view .LVU956
 2900 000e 93F8DE21 		ldrb	r2, [r3, #478]	@ zero_extendqisi2
 2901              		.loc 1 985 18 view .LVU957
 2902 0012 0A70     		strb	r2, [r1]
 986:Service/Srv_DataHub.c **** 
 987:Service/Srv_DataHub.c ****         if(!SrvDataHub_Monitor.inuse_reg.bit.USB_VCP_attach)
 2903              		.loc 1 987 9 is_stmt 1 view .LVU958
 2904              		.loc 1 987 12 is_stmt 0 view .LVU959
 2905 0014 DB7A     		ldrb	r3, [r3, #11]	@ zero_extendqisi2
 2906              		.loc 1 987 11 view .LVU960
 2907 0016 13F0020F 		tst	r3, #2
 2908 001a F3D0     		beq	.L254
 988:Service/Srv_DataHub.c ****             goto reupdate_vcp_attach_state;
 989:Service/Srv_DataHub.c **** 
 990:Service/Srv_DataHub.c ****         SrvDataHub_Monitor.inuse_reg.bit.USB_VCP_attach = false;
 2909              		.loc 1 990 9 is_stmt 1 view .LVU961
 2910              		.loc 1 990 57 is_stmt 0 view .LVU962
 2911 001c 044B     		ldr	r3, .L256
 2912 001e DA7A     		ldrb	r2, [r3, #11]	@ zero_extendqisi2
 2913 0020 6FF34102 		bfc	r2, #1, #1
ARM GAS  C:\Users\8bit\AppData\Local\Temp\ccClUhzi.s 			page 78


 2914 0024 DA72     		strb	r2, [r3, #11]
 991:Service/Srv_DataHub.c ****         
 992:Service/Srv_DataHub.c ****         return true;
 2915              		.loc 1 992 9 is_stmt 1 view .LVU963
 2916              		.loc 1 992 16 is_stmt 0 view .LVU964
 2917 0026 0120     		movs	r0, #1
 2918              	.LVL90:
 2919              		.loc 1 992 16 view .LVU965
 2920 0028 7047     		bx	lr
 2921              	.LVL91:
 2922              	.L255:
 993:Service/Srv_DataHub.c ****     }
 994:Service/Srv_DataHub.c **** 
 995:Service/Srv_DataHub.c ****     return false;
 2923              		.loc 1 995 12 view .LVU966
 2924 002a 0020     		movs	r0, #0
 2925              	.LVL92:
 996:Service/Srv_DataHub.c **** }
 2926              		.loc 1 996 1 view .LVU967
 2927 002c 7047     		bx	lr
 2928              	.L257:
 2929 002e 00BF     		.align	2
 2930              	.L256:
 2931 0030 00000000 		.word	.LANCHOR0
 2932              		.cfi_endproc
 2933              	.LFE178:
 2935              		.section	.text.SrvDataHub_Get_ServoChannel,"ax",%progbits
 2936              		.align	1
 2937              		.syntax unified
 2938              		.thumb
 2939              		.thumb_func
 2941              	SrvDataHub_Get_ServoChannel:
 2942              	.LVL93:
 2943              	.LFB173:
 891:Service/Srv_DataHub.c ****     if ((cnt == NULL) || (servo_ch == NULL) || (servo_dir == NULL))
 2944              		.loc 1 891 1 is_stmt 1 view -0
 2945              		.cfi_startproc
 2946              		@ args = 0, pretend = 0, frame = 0
 2947              		@ frame_needed = 0, uses_anonymous_args = 0
 892:Service/Srv_DataHub.c ****         return false;
 2948              		.loc 1 892 5 view .LVU969
 892:Service/Srv_DataHub.c ****         return false;
 2949              		.loc 1 892 8 is_stmt 0 view .LVU970
 2950 0000 31B3     		cbz	r1, .L262
 891:Service/Srv_DataHub.c ****     if ((cnt == NULL) || (servo_ch == NULL) || (servo_dir == NULL))
 2951              		.loc 1 891 1 discriminator 1 view .LVU971
 2952 0002 70B5     		push	{r4, r5, r6, lr}
 2953              	.LCFI13:
 2954              		.cfi_def_cfa_offset 16
 2955              		.cfi_offset 4, -16
 2956              		.cfi_offset 5, -12
 2957              		.cfi_offset 6, -8
 2958              		.cfi_offset 14, -4
 2959 0004 0446     		mov	r4, r0
 2960 0006 1646     		mov	r6, r2
 2961 0008 0D46     		mov	r5, r1
 892:Service/Srv_DataHub.c ****         return false;
ARM GAS  C:\Users\8bit\AppData\Local\Temp\ccClUhzi.s 			page 79


 2962              		.loc 1 892 23 discriminator 1 view .LVU972
 2963 000a 1AB3     		cbz	r2, .L263
 892:Service/Srv_DataHub.c ****         return false;
 2964              		.loc 1 892 45 discriminator 2 view .LVU973
 2965 000c 33B9     		cbnz	r3, .L260
 893:Service/Srv_DataHub.c **** 
 2966              		.loc 1 893 16 view .LVU974
 2967 000e 0020     		movs	r0, #0
 2968              	.LVL94:
 893:Service/Srv_DataHub.c **** 
 2969              		.loc 1 893 16 view .LVU975
 2970 0010 1DE0     		b	.L259
 2971              	.LVL95:
 2972              	.L261:
 906:Service/Srv_DataHub.c ****         goto reupdate_servo_channel;
 2973              		.loc 1 906 5 is_stmt 1 view .LVU976
 906:Service/Srv_DataHub.c ****         goto reupdate_servo_channel;
 2974              		.loc 1 906 9 is_stmt 0 view .LVU977
 2975 0012 114B     		ldr	r3, .L270
 2976 0014 9B7A     		ldrb	r3, [r3, #10]	@ zero_extendqisi2
 906:Service/Srv_DataHub.c ****         goto reupdate_servo_channel;
 2977              		.loc 1 906 8 view .LVU978
 2978 0016 13F0080F 		tst	r3, #8
 2979 001a 12D1     		bne	.L269
 2980              	.L260:
 896:Service/Srv_DataHub.c **** 
 2981              		.loc 1 896 5 is_stmt 1 view .LVU979
 896:Service/Srv_DataHub.c **** 
 2982              		.loc 1 896 47 is_stmt 0 view .LVU980
 2983 001c 0E4B     		ldr	r3, .L270
 2984 001e 997A     		ldrb	r1, [r3, #10]	@ zero_extendqisi2
 2985 0020 41F00801 		orr	r1, r1, #8
 2986 0024 9972     		strb	r1, [r3, #10]
 898:Service/Srv_DataHub.c ****     *cnt = SrvDataHub_Monitor.data.servo_num;
 2987              		.loc 1 898 5 is_stmt 1 view .LVU981
 898:Service/Srv_DataHub.c ****     *cnt = SrvDataHub_Monitor.data.servo_num;
 2988              		.loc 1 898 42 is_stmt 0 view .LVU982
 2989 0026 D3F8B021 		ldr	r2, [r3, #432]
 898:Service/Srv_DataHub.c ****     *cnt = SrvDataHub_Monitor.data.servo_num;
 2990              		.loc 1 898 17 view .LVU983
 2991 002a 2260     		str	r2, [r4]
 899:Service/Srv_DataHub.c **** 
 2992              		.loc 1 899 5 is_stmt 1 view .LVU984
 899:Service/Srv_DataHub.c **** 
 2993              		.loc 1 899 35 is_stmt 0 view .LVU985
 2994 002c 93F8B521 		ldrb	r2, [r3, #437]	@ zero_extendqisi2
 899:Service/Srv_DataHub.c **** 
 2995              		.loc 1 899 10 view .LVU986
 2996 0030 2A70     		strb	r2, [r5]
 901:Service/Srv_DataHub.c ****     {
 2997              		.loc 1 901 5 is_stmt 1 view .LVU987
 901:Service/Srv_DataHub.c ****     {
 2998              		.loc 1 901 8 is_stmt 0 view .LVU988
 2999 0032 002A     		cmp	r2, #0
 3000 0034 EDD0     		beq	.L261
 903:Service/Srv_DataHub.c ****     }
 3001              		.loc 1 903 9 is_stmt 1 view .LVU989
ARM GAS  C:\Users\8bit\AppData\Local\Temp\ccClUhzi.s 			page 80


 3002 0036 03F5E371 		add	r1, r3, #454
 3003 003a 3046     		mov	r0, r6
 3004 003c FFF7FEFF 		bl	memcpy
 3005              	.LVL96:
 3006 0040 E7E7     		b	.L261
 3007              	.L269:
 909:Service/Srv_DataHub.c **** 
 3008              		.loc 1 909 5 view .LVU990
 909:Service/Srv_DataHub.c **** 
 3009              		.loc 1 909 47 is_stmt 0 view .LVU991
 3010 0042 054B     		ldr	r3, .L270
 3011 0044 9A7A     		ldrb	r2, [r3, #10]	@ zero_extendqisi2
 3012 0046 6FF3C302 		bfc	r2, #3, #1
 3013 004a 9A72     		strb	r2, [r3, #10]
 911:Service/Srv_DataHub.c **** }
 3014              		.loc 1 911 5 is_stmt 1 view .LVU992
 911:Service/Srv_DataHub.c **** }
 3015              		.loc 1 911 12 is_stmt 0 view .LVU993
 3016 004c 0120     		movs	r0, #1
 3017              	.L259:
 912:Service/Srv_DataHub.c **** 
 3018              		.loc 1 912 1 view .LVU994
 3019 004e 70BD     		pop	{r4, r5, r6, pc}
 3020              	.LVL97:
 3021              	.L262:
 3022              	.LCFI14:
 3023              		.cfi_def_cfa_offset 0
 3024              		.cfi_restore 4
 3025              		.cfi_restore 5
 3026              		.cfi_restore 6
 3027              		.cfi_restore 14
 893:Service/Srv_DataHub.c **** 
 3028              		.loc 1 893 16 view .LVU995
 3029 0050 0020     		movs	r0, #0
 3030              	.LVL98:
 912:Service/Srv_DataHub.c **** 
 3031              		.loc 1 912 1 view .LVU996
 3032 0052 7047     		bx	lr
 3033              	.LVL99:
 3034              	.L263:
 3035              	.LCFI15:
 3036              		.cfi_def_cfa_offset 16
 3037              		.cfi_offset 4, -16
 3038              		.cfi_offset 5, -12
 3039              		.cfi_offset 6, -8
 3040              		.cfi_offset 14, -4
 893:Service/Srv_DataHub.c **** 
 3041              		.loc 1 893 16 view .LVU997
 3042 0054 0020     		movs	r0, #0
 3043              	.LVL100:
 893:Service/Srv_DataHub.c **** 
 3044              		.loc 1 893 16 view .LVU998
 3045 0056 FAE7     		b	.L259
 3046              	.L271:
 3047              		.align	2
 3048              	.L270:
 3049 0058 00000000 		.word	.LANCHOR0
ARM GAS  C:\Users\8bit\AppData\Local\Temp\ccClUhzi.s 			page 81


 3050              		.cfi_endproc
 3051              	.LFE173:
 3053              		.section	.text.SrvDataHub_Get_MotoChannel,"ax",%progbits
 3054              		.align	1
 3055              		.syntax unified
 3056              		.thumb
 3057              		.thumb_func
 3059              	SrvDataHub_Get_MotoChannel:
 3060              	.LVL101:
 3061              	.LFB169:
 819:Service/Srv_DataHub.c ****     if ((cnt == NULL) || (moto_ch == NULL))
 3062              		.loc 1 819 1 is_stmt 1 view -0
 3063              		.cfi_startproc
 3064              		@ args = 0, pretend = 0, frame = 0
 3065              		@ frame_needed = 0, uses_anonymous_args = 0
 820:Service/Srv_DataHub.c ****         return false;
 3066              		.loc 1 820 5 view .LVU1000
 820:Service/Srv_DataHub.c ****         return false;
 3067              		.loc 1 820 8 is_stmt 0 view .LVU1001
 3068 0000 29B3     		cbz	r1, .L276
 819:Service/Srv_DataHub.c ****     if ((cnt == NULL) || (moto_ch == NULL))
 3069              		.loc 1 819 1 discriminator 1 view .LVU1002
 3070 0002 70B5     		push	{r4, r5, r6, lr}
 3071              	.LCFI16:
 3072              		.cfi_def_cfa_offset 16
 3073              		.cfi_offset 4, -16
 3074              		.cfi_offset 5, -12
 3075              		.cfi_offset 6, -8
 3076              		.cfi_offset 14, -4
 3077 0004 0446     		mov	r4, r0
 3078 0006 1646     		mov	r6, r2
 3079 0008 0D46     		mov	r5, r1
 820:Service/Srv_DataHub.c ****         return false;
 3080              		.loc 1 820 23 discriminator 1 view .LVU1003
 3081 000a 32B9     		cbnz	r2, .L274
 821:Service/Srv_DataHub.c **** 
 3082              		.loc 1 821 16 view .LVU1004
 3083 000c 0020     		movs	r0, #0
 3084              	.LVL102:
 821:Service/Srv_DataHub.c **** 
 3085              		.loc 1 821 16 view .LVU1005
 3086 000e 1DE0     		b	.L273
 3087              	.LVL103:
 3088              	.L275:
 834:Service/Srv_DataHub.c ****         goto reupdate_moto_channel;
 3089              		.loc 1 834 5 is_stmt 1 view .LVU1006
 834:Service/Srv_DataHub.c ****         goto reupdate_moto_channel;
 3090              		.loc 1 834 9 is_stmt 0 view .LVU1007
 3091 0010 104B     		ldr	r3, .L283
 3092 0012 9B7A     		ldrb	r3, [r3, #10]	@ zero_extendqisi2
 834:Service/Srv_DataHub.c ****         goto reupdate_moto_channel;
 3093              		.loc 1 834 8 view .LVU1008
 3094 0014 13F0080F 		tst	r3, #8
 3095 0018 12D1     		bne	.L282
 3096              	.L274:
 824:Service/Srv_DataHub.c **** 
 3097              		.loc 1 824 5 is_stmt 1 view .LVU1009
ARM GAS  C:\Users\8bit\AppData\Local\Temp\ccClUhzi.s 			page 82


 824:Service/Srv_DataHub.c **** 
 3098              		.loc 1 824 47 is_stmt 0 view .LVU1010
 3099 001a 0E4B     		ldr	r3, .L283
 3100 001c 997A     		ldrb	r1, [r3, #10]	@ zero_extendqisi2
 3101 001e 41F00801 		orr	r1, r1, #8
 3102 0022 9972     		strb	r1, [r3, #10]
 826:Service/Srv_DataHub.c ****     *cnt = SrvDataHub_Monitor.data.moto_num;
 3103              		.loc 1 826 5 is_stmt 1 view .LVU1011
 826:Service/Srv_DataHub.c ****     *cnt = SrvDataHub_Monitor.data.moto_num;
 3104              		.loc 1 826 42 is_stmt 0 view .LVU1012
 3105 0024 D3F8B021 		ldr	r2, [r3, #432]
 826:Service/Srv_DataHub.c ****     *cnt = SrvDataHub_Monitor.data.moto_num;
 3106              		.loc 1 826 17 view .LVU1013
 3107 0028 2260     		str	r2, [r4]
 827:Service/Srv_DataHub.c **** 
 3108              		.loc 1 827 5 is_stmt 1 view .LVU1014
 827:Service/Srv_DataHub.c **** 
 3109              		.loc 1 827 35 is_stmt 0 view .LVU1015
 3110 002a 93F8B421 		ldrb	r2, [r3, #436]	@ zero_extendqisi2
 827:Service/Srv_DataHub.c **** 
 3111              		.loc 1 827 10 view .LVU1016
 3112 002e 2A70     		strb	r2, [r5]
 829:Service/Srv_DataHub.c ****     {
 3113              		.loc 1 829 5 is_stmt 1 view .LVU1017
 829:Service/Srv_DataHub.c ****     {
 3114              		.loc 1 829 8 is_stmt 0 view .LVU1018
 3115 0030 002A     		cmp	r2, #0
 3116 0032 EDD0     		beq	.L275
 831:Service/Srv_DataHub.c ****     }
 3117              		.loc 1 831 9 is_stmt 1 view .LVU1019
 3118 0034 03F5DB71 		add	r1, r3, #438
 3119 0038 3046     		mov	r0, r6
 3120 003a FFF7FEFF 		bl	memcpy
 3121              	.LVL104:
 3122 003e E7E7     		b	.L275
 3123              	.L282:
 837:Service/Srv_DataHub.c **** 
 3124              		.loc 1 837 5 view .LVU1020
 837:Service/Srv_DataHub.c **** 
 3125              		.loc 1 837 47 is_stmt 0 view .LVU1021
 3126 0040 044B     		ldr	r3, .L283
 3127 0042 9A7A     		ldrb	r2, [r3, #10]	@ zero_extendqisi2
 3128 0044 6FF3C302 		bfc	r2, #3, #1
 3129 0048 9A72     		strb	r2, [r3, #10]
 839:Service/Srv_DataHub.c **** }
 3130              		.loc 1 839 5 is_stmt 1 view .LVU1022
 839:Service/Srv_DataHub.c **** }
 3131              		.loc 1 839 12 is_stmt 0 view .LVU1023
 3132 004a 0120     		movs	r0, #1
 3133              	.L273:
 840:Service/Srv_DataHub.c **** 
 3134              		.loc 1 840 1 view .LVU1024
 3135 004c 70BD     		pop	{r4, r5, r6, pc}
 3136              	.LVL105:
 3137              	.L276:
 3138              	.LCFI17:
 3139              		.cfi_def_cfa_offset 0
ARM GAS  C:\Users\8bit\AppData\Local\Temp\ccClUhzi.s 			page 83


 3140              		.cfi_restore 4
 3141              		.cfi_restore 5
 3142              		.cfi_restore 6
 3143              		.cfi_restore 14
 821:Service/Srv_DataHub.c **** 
 3144              		.loc 1 821 16 view .LVU1025
 3145 004e 0020     		movs	r0, #0
 3146              	.LVL106:
 840:Service/Srv_DataHub.c **** 
 3147              		.loc 1 840 1 view .LVU1026
 3148 0050 7047     		bx	lr
 3149              	.L284:
 3150 0052 00BF     		.align	2
 3151              	.L283:
 3152 0054 00000000 		.word	.LANCHOR0
 3153              		.cfi_endproc
 3154              	.LFE169:
 3156              		.section	.text.SrvDataHub_Init,"ax",%progbits
 3157              		.align	1
 3158              		.syntax unified
 3159              		.thumb
 3160              		.thumb_func
 3162              	SrvDataHub_Init:
 3163              	.LFB145:
  95:Service/Srv_DataHub.c ****     if (SrvDataHub_Monitor.init_state)
 3164              		.loc 1 95 1 is_stmt 1 view -0
 3165              		.cfi_startproc
 3166              		@ args = 0, pretend = 0, frame = 0
 3167              		@ frame_needed = 0, uses_anonymous_args = 0
  96:Service/Srv_DataHub.c ****         return;
 3168              		.loc 1 96 5 view .LVU1028
  96:Service/Srv_DataHub.c ****         return;
 3169              		.loc 1 96 27 is_stmt 0 view .LVU1029
 3170 0000 664B     		ldr	r3, .L292
 3171 0002 1B78     		ldrb	r3, [r3]	@ zero_extendqisi2
  96:Service/Srv_DataHub.c ****         return;
 3172              		.loc 1 96 8 view .LVU1030
 3173 0004 03B1     		cbz	r3, .L291
 3174 0006 7047     		bx	lr
 3175              	.L291:
  95:Service/Srv_DataHub.c ****     if (SrvDataHub_Monitor.init_state)
 3176              		.loc 1 95 1 view .LVU1031
 3177 0008 2DE9F047 		push	{r4, r5, r6, r7, r8, r9, r10, lr}
 3178              	.LCFI18:
 3179              		.cfi_def_cfa_offset 32
 3180              		.cfi_offset 4, -32
 3181              		.cfi_offset 5, -28
 3182              		.cfi_offset 6, -24
 3183              		.cfi_offset 7, -20
 3184              		.cfi_offset 8, -16
 3185              		.cfi_offset 9, -12
 3186              		.cfi_offset 10, -8
 3187              		.cfi_offset 14, -4
  99:Service/Srv_DataHub.c **** 
 3188              		.loc 1 99 5 is_stmt 1 view .LVU1032
 3189 000c 634F     		ldr	r7, .L292
 3190 000e 4FF4F078 		mov	r8, #480
ARM GAS  C:\Users\8bit\AppData\Local\Temp\ccClUhzi.s 			page 84


 3191 0012 4246     		mov	r2, r8
 3192 0014 0021     		movs	r1, #0
 3193 0016 3846     		mov	r0, r7
 3194 0018 FFF7FEFF 		bl	memset
 3195              	.LVL107:
