ARM GAS  C:\Users\HUAV\AppData\Local\Temp\cceVDsRD.s 			page 1


   1              		.cpu cortex-m7
   2              		.eabi_attribute 28, 1
   3              		.eabi_attribute 20, 1
   4              		.eabi_attribute 21, 1
   5              		.eabi_attribute 23, 3
   6              		.eabi_attribute 24, 1
   7              		.eabi_attribute 25, 1
   8              		.eabi_attribute 26, 1
   9              		.eabi_attribute 30, 1
  10              		.eabi_attribute 34, 1
  11              		.eabi_attribute 18, 4
  12              		.file	"Srv_ComProto.c"
  13              		.text
  14              	.Ltext0:
  15              		.cfi_sections	.debug_frame
  16              		.section	.text.Srv_ComProto_GetType,"ax",%progbits
  17              		.align	1
  18              		.arch armv7e-m
  19              		.syntax unified
  20              		.thumb
  21              		.thumb_func
  22              		.fpu fpv5-d16
  24              	Srv_ComProto_GetType:
  25              	.LFB1999:
  26              		.file 1 "Service/Srv_ComProto.c"
   1:Service/Srv_ComProto.c **** #include "Srv_ComProto.h"
   2:Service/Srv_ComProto.c **** #include "Srv_DataHub.h"
   3:Service/Srv_ComProto.c **** #include "DataPipe.h"
   4:Service/Srv_ComProto.c **** #include "mmu.h"
   5:Service/Srv_ComProto.c **** #include "runtime.h"
   6:Service/Srv_ComProto.c **** 
   7:Service/Srv_ComProto.c **** /* only can use one hardware port at one time */
   8:Service/Srv_ComProto.c **** /* still can be optmize / use multi port proto mavlink frame */
   9:Service/Srv_ComProto.c **** 
  10:Service/Srv_ComProto.c **** SrvComProto_Monitor_TypeDef SrvComProto_monitor = {
  11:Service/Srv_ComProto.c ****     .Proto_Type = SrvComProto_Type_None,
  12:Service/Srv_ComProto.c ****     .init_state = false,
  13:Service/Srv_ComProto.c **** };
  14:Service/Srv_ComProto.c **** 
  15:Service/Srv_ComProto.c **** /* internal function */
  16:Service/Srv_ComProto.c **** static uint16_t SrvComProto_MavMsg_Raw_IMU(SrvComProto_MsgInfo_TypeDef *pck);
  17:Service/Srv_ComProto.c **** 
  18:Service/Srv_ComProto.c **** /* external function */
  19:Service/Srv_ComProto.c **** static bool Srv_ComProto_Init(SrvComProto_Type_List type, uint8_t *arg);
  20:Service/Srv_ComProto.c **** static bool Srv_ComProto_MsgObj_Init(SrvComProto_MsgInfo_TypeDef *msg, SrvComProto_MavPackInfo_Type
  21:Service/Srv_ComProto.c **** static void SrvComProto_MsgToStream(SrvComProto_MsgInfo_TypeDef msg, SrvComProto_Stream_TypeDef *co
  22:Service/Srv_ComProto.c **** static bool SrvComProto_MsgEnable_Control(SrvComProto_MsgInfo_TypeDef *msg, bool state);
  23:Service/Srv_ComProto.c **** static SrvComProto_Type_List Srv_ComProto_GetType(void);
  24:Service/Srv_ComProto.c **** 
  25:Service/Srv_ComProto.c **** SrvComProto_TypeDef SrvComProto = {
  26:Service/Srv_ComProto.c ****     .init = Srv_ComProto_Init,
  27:Service/Srv_ComProto.c ****     .mav_msg_obj_init = Srv_ComProto_MsgObj_Init,
  28:Service/Srv_ComProto.c ****     .get_msg_type = Srv_ComProto_GetType,
  29:Service/Srv_ComProto.c ****     .mav_msg_stream = SrvComProto_MsgToStream,
  30:Service/Srv_ComProto.c ****     .mav_msg_enable_ctl = SrvComProto_MsgEnable_Control,
  31:Service/Srv_ComProto.c **** };
  32:Service/Srv_ComProto.c **** 
ARM GAS  C:\Users\HUAV\AppData\Local\Temp\cceVDsRD.s 			page 2


  33:Service/Srv_ComProto.c **** static bool Srv_ComProto_Init(SrvComProto_Type_List type, uint8_t *arg)
  34:Service/Srv_ComProto.c **** {
  35:Service/Srv_ComProto.c ****     UNUSED(arg);
  36:Service/Srv_ComProto.c **** 
  37:Service/Srv_ComProto.c ****     /* only init one time */
  38:Service/Srv_ComProto.c ****     if (SrvComProto_monitor.init_state)
  39:Service/Srv_ComProto.c ****         return true;
  40:Service/Srv_ComProto.c **** 
  41:Service/Srv_ComProto.c ****     SrvDataHub.init();
  42:Service/Srv_ComProto.c **** 
  43:Service/Srv_ComProto.c ****     memset(&SrvComProto_monitor, 0, sizeof(SrvComProto_monitor));
  44:Service/Srv_ComProto.c ****     SrvComProto_monitor.Proto_Type = type;
  45:Service/Srv_ComProto.c ****     SrvComProto_monitor.init_state = true;
  46:Service/Srv_ComProto.c **** 
  47:Service/Srv_ComProto.c ****     return true;
  48:Service/Srv_ComProto.c **** }
  49:Service/Srv_ComProto.c **** 
  50:Service/Srv_ComProto.c **** static SrvComProto_Type_List Srv_ComProto_GetType(void)
  51:Service/Srv_ComProto.c **** {
  27              		.loc 1 51 1 view -0
  28              		.cfi_startproc
  29              		@ args = 0, pretend = 0, frame = 0
  30              		@ frame_needed = 0, uses_anonymous_args = 0
  31              		@ link register save eliminated.
  52:Service/Srv_ComProto.c ****     return SrvComProto_monitor.Proto_Type;
  32              		.loc 1 52 5 view .LVU1
  53:Service/Srv_ComProto.c **** }
  33              		.loc 1 53 1 is_stmt 0 view .LVU2
  34 0000 014B     		ldr	r3, .L2
  35 0002 5878     		ldrb	r0, [r3, #1]	@ zero_extendqisi2
  36 0004 7047     		bx	lr
  37              	.L3:
  38 0006 00BF     		.align	2
  39              	.L2:
  40 0008 00000000 		.word	.LANCHOR0
  41              		.cfi_endproc
  42              	.LFE1999:
  44              		.section	.text.SrvComProto_MsgEnable_Control,"ax",%progbits
  45              		.align	1
  46              		.syntax unified
  47              		.thumb
  48              		.thumb_func
  49              		.fpu fpv5-d16
  51              	SrvComProto_MsgEnable_Control:
  52              	.LVL0:
  53              	.LFB2002:
  54:Service/Srv_ComProto.c **** 
  55:Service/Srv_ComProto.c **** static bool Srv_ComProto_MsgObj_Init(SrvComProto_MsgInfo_TypeDef *msg, SrvComProto_MavPackInfo_Type
  56:Service/Srv_ComProto.c **** {
  57:Service/Srv_ComProto.c ****     if ((msg == NULL) ||
  58:Service/Srv_ComProto.c ****         (period == 0))
  59:Service/Srv_ComProto.c ****         return false;
  60:Service/Srv_ComProto.c **** 
  61:Service/Srv_ComProto.c ****     msg->in_proto = false;
  62:Service/Srv_ComProto.c ****     msg->lock_proto = true;
  63:Service/Srv_ComProto.c **** 
  64:Service/Srv_ComProto.c ****     msg->pck_info = pck_info;
ARM GAS  C:\Users\HUAV\AppData\Local\Temp\cceVDsRD.s 			page 3


  65:Service/Srv_ComProto.c ****     msg->period = period;
  66:Service/Srv_ComProto.c ****     msg->proto_time = 0;
  67:Service/Srv_ComProto.c **** 
  68:Service/Srv_ComProto.c ****     /* create mavlink message object */
  69:Service/Srv_ComProto.c ****     msg->msg_obj = (mavlink_message_t *)MMU_Malloc(sizeof(mavlink_message_t));
  70:Service/Srv_ComProto.c **** 
  71:Service/Srv_ComProto.c ****     if (msg->msg_obj == NULL)
  72:Service/Srv_ComProto.c ****     {
  73:Service/Srv_ComProto.c ****         MMU_Free(msg->msg_obj);
  74:Service/Srv_ComProto.c ****         return false;
  75:Service/Srv_ComProto.c ****     }
  76:Service/Srv_ComProto.c **** 
  77:Service/Srv_ComProto.c ****     memset(msg->msg_obj, 0, sizeof(mavlink_message_t));
  78:Service/Srv_ComProto.c **** 
  79:Service/Srv_ComProto.c ****     /* set mavlink data structure value set function */
  80:Service/Srv_ComProto.c ****     switch ((uint8_t)pck_info.component_id)
  81:Service/Srv_ComProto.c ****     {
  82:Service/Srv_ComProto.c ****     case MAV_CompoID_Attitude:
  83:Service/Srv_ComProto.c ****         break;
  84:Service/Srv_ComProto.c **** 
  85:Service/Srv_ComProto.c ****     case MAV_CompoID_RC_Channel:
  86:Service/Srv_ComProto.c ****         break;
  87:Service/Srv_ComProto.c **** 
  88:Service/Srv_ComProto.c ****     case MAV_CompoID_Raw_IMU:
  89:Service/Srv_ComProto.c ****         msg->pack_callback = SrvComProto_MavMsg_Raw_IMU;
  90:Service/Srv_ComProto.c ****         break;
  91:Service/Srv_ComProto.c **** 
  92:Service/Srv_ComProto.c ****     case MAV_CompoID_MotoCtl:
  93:Service/Srv_ComProto.c ****         break;
  94:Service/Srv_ComProto.c **** 
  95:Service/Srv_ComProto.c ****     case MAV_CompoID_ServoCtl:
  96:Service/Srv_ComProto.c ****         break;
  97:Service/Srv_ComProto.c **** 
  98:Service/Srv_ComProto.c ****     default:
  99:Service/Srv_ComProto.c ****         MMU_Free(msg->msg_obj);
 100:Service/Srv_ComProto.c ****         msg->lock_proto = false;
 101:Service/Srv_ComProto.c ****         return false;
 102:Service/Srv_ComProto.c ****     }
 103:Service/Srv_ComProto.c **** 
 104:Service/Srv_ComProto.c ****     msg->lock_proto = false;
 105:Service/Srv_ComProto.c **** 
 106:Service/Srv_ComProto.c ****     return true;
 107:Service/Srv_ComProto.c **** }
 108:Service/Srv_ComProto.c **** 
 109:Service/Srv_ComProto.c **** static void SrvComProto_MsgToStream(SrvComProto_MsgInfo_TypeDef msg, SrvComProto_Stream_TypeDef *co
 110:Service/Srv_ComProto.c **** {
 111:Service/Srv_ComProto.c ****     if (msg.enable && com_stream && com_stream->p_buf && msg.pack_callback)
 112:Service/Srv_ComProto.c ****     {
 113:Service/Srv_ComProto.c ****         msg.in_proto = true;
 114:Service/Srv_ComProto.c **** 
 115:Service/Srv_ComProto.c ****         if ((msg.proto_time) && (Get_CurrentRunningMs() - msg.proto_time < msg.period))
 116:Service/Srv_ComProto.c ****         {
 117:Service/Srv_ComProto.c ****             msg.in_proto = false;
 118:Service/Srv_ComProto.c ****             return;
 119:Service/Srv_ComProto.c ****         }
 120:Service/Srv_ComProto.c **** 
 121:Service/Srv_ComProto.c ****         com_stream->size = msg.pack_callback((uint8_t *)&msg);
ARM GAS  C:\Users\HUAV\AppData\Local\Temp\cceVDsRD.s 			page 4


 122:Service/Srv_ComProto.c **** 
 123:Service/Srv_ComProto.c ****         if (com_stream->size && ((com_stream->size + MAVLINK_NUM_NON_PAYLOAD_BYTES) <= com_stream->
 124:Service/Srv_ComProto.c ****         {
 125:Service/Srv_ComProto.c ****             com_stream->size = mavlink_msg_to_send_buffer(com_stream->p_buf, msg.msg_obj);
 126:Service/Srv_ComProto.c **** 
 127:Service/Srv_ComProto.c ****             if (tx_cb)
 128:Service/Srv_ComProto.c ****                 tx_cb(com_stream->p_buf, com_stream->size);
 129:Service/Srv_ComProto.c **** 
 130:Service/Srv_ComProto.c ****             msg.proto_time = Get_CurrentRunningMs();
 131:Service/Srv_ComProto.c ****         }
 132:Service/Srv_ComProto.c **** 
 133:Service/Srv_ComProto.c ****         msg.in_proto = false;
 134:Service/Srv_ComProto.c ****     }
 135:Service/Srv_ComProto.c **** }
 136:Service/Srv_ComProto.c **** 
 137:Service/Srv_ComProto.c **** static bool SrvComProto_MsgEnable_Control(SrvComProto_MsgInfo_TypeDef *msg, bool state)
 138:Service/Srv_ComProto.c **** {
  54              		.loc 1 138 1 is_stmt 1 view -0
  55              		.cfi_startproc
  56              		@ args = 0, pretend = 0, frame = 0
  57              		@ frame_needed = 0, uses_anonymous_args = 0
  58              		@ link register save eliminated.
 139:Service/Srv_ComProto.c ****     if (msg == NULL)
  59              		.loc 1 139 5 view .LVU4
  60              		.loc 1 139 8 is_stmt 0 view .LVU5
  61 0000 10B1     		cbz	r0, .L6
 140:Service/Srv_ComProto.c ****         return false;
 141:Service/Srv_ComProto.c **** 
 142:Service/Srv_ComProto.c ****     msg->enable = state;
  62              		.loc 1 142 5 is_stmt 1 view .LVU6
  63              		.loc 1 142 17 is_stmt 0 view .LVU7
  64 0002 0170     		strb	r1, [r0]
 143:Service/Srv_ComProto.c ****     return true;
  65              		.loc 1 143 5 is_stmt 1 view .LVU8
  66              		.loc 1 143 12 is_stmt 0 view .LVU9
  67 0004 0120     		movs	r0, #1
  68              	.LVL1:
  69              		.loc 1 143 12 view .LVU10
  70 0006 7047     		bx	lr
  71              	.LVL2:
  72              	.L6:
 140:Service/Srv_ComProto.c ****         return false;
  73              		.loc 1 140 16 view .LVU11
  74 0008 0020     		movs	r0, #0
  75              	.LVL3:
 144:Service/Srv_ComProto.c **** }
  76              		.loc 1 144 1 view .LVU12
  77 000a 7047     		bx	lr
  78              		.cfi_endproc
  79              	.LFE2002:
  81              		.section	.text.SrvComProto_MsgToStream,"ax",%progbits
  82              		.align	1
  83              		.syntax unified
  84              		.thumb
  85              		.thumb_func
  86              		.fpu fpv5-d16
  88              	SrvComProto_MsgToStream:
ARM GAS  C:\Users\HUAV\AppData\Local\Temp\cceVDsRD.s 			page 5


  89              	.LVL4:
  90              	.LFB2001:
 110:Service/Srv_ComProto.c ****     if (msg.enable && com_stream && com_stream->p_buf && msg.pack_callback)
  91              		.loc 1 110 1 is_stmt 1 view -0
  92              		.cfi_startproc
  93              		@ args = 40, pretend = 16, frame = 0
  94              		@ frame_needed = 0, uses_anonymous_args = 0
 110:Service/Srv_ComProto.c ****     if (msg.enable && com_stream && com_stream->p_buf && msg.pack_callback)
  95              		.loc 1 110 1 is_stmt 0 view .LVU14
  96 0000 84B0     		sub	sp, sp, #16
  97              	.LCFI0:
  98              		.cfi_def_cfa_offset 16
  99 0002 70B5     		push	{r4, r5, r6, lr}
 100              	.LCFI1:
 101              		.cfi_def_cfa_offset 32
 102              		.cfi_offset 4, -32
 103              		.cfi_offset 5, -28
 104              		.cfi_offset 6, -24
 105              		.cfi_offset 14, -20
 106 0004 04AC     		add	r4, sp, #16
 107 0006 84E80F00 		stm	r4, {r0, r1, r2, r3}
 108 000a 0C9C     		ldr	r4, [sp, #48]
 111:Service/Srv_ComProto.c ****     {
 109              		.loc 1 111 5 is_stmt 1 view .LVU15
 111:Service/Srv_ComProto.c ****     {
 110              		.loc 1 111 12 is_stmt 0 view .LVU16
 111 000c 9DF81030 		ldrb	r3, [sp, #16]	@ zero_extendqisi2
 111:Service/Srv_ComProto.c ****     {
 112              		.loc 1 111 8 view .LVU17
 113 0010 BBB1     		cbz	r3, .L7
 111:Service/Srv_ComProto.c ****     {
 114              		.loc 1 111 20 discriminator 1 view .LVU18
 115 0012 B4B1     		cbz	r4, .L7
 111:Service/Srv_ComProto.c ****     {
 116              		.loc 1 111 47 discriminator 2 view .LVU19
 117 0014 2368     		ldr	r3, [r4]
 111:Service/Srv_ComProto.c ****     {
 118              		.loc 1 111 34 discriminator 2 view .LVU20
 119 0016 A3B1     		cbz	r3, .L7
 111:Service/Srv_ComProto.c ****     {
 120              		.loc 1 111 61 discriminator 3 view .LVU21
 121 0018 079B     		ldr	r3, [sp, #28]
 111:Service/Srv_ComProto.c ****     {
 122              		.loc 1 111 55 discriminator 3 view .LVU22
 123 001a 93B1     		cbz	r3, .L7
 113:Service/Srv_ComProto.c **** 
 124              		.loc 1 113 9 is_stmt 1 view .LVU23
 113:Service/Srv_ComProto.c **** 
 125              		.loc 1 113 22 is_stmt 0 view .LVU24
 126 001c 0123     		movs	r3, #1
 127 001e 8DF82830 		strb	r3, [sp, #40]
 115:Service/Srv_ComProto.c ****         {
 128              		.loc 1 115 9 is_stmt 1 view .LVU25
 115:Service/Srv_ComProto.c ****         {
 129              		.loc 1 115 12 is_stmt 0 view .LVU26
 130 0022 089A     		ldr	r2, [sp, #32]
 131 0024 099B     		ldr	r3, [sp, #36]
ARM GAS  C:\Users\HUAV\AppData\Local\Temp\cceVDsRD.s 			page 6


 132 0026 1343     		orrs	r3, r2, r3
 133 0028 0FD1     		bne	.L13
 134              	.L9:
 121:Service/Srv_ComProto.c **** 
 135              		.loc 1 121 9 is_stmt 1 view .LVU27
 121:Service/Srv_ComProto.c **** 
 136              		.loc 1 121 28 is_stmt 0 view .LVU28
 137 002a 04A8     		add	r0, sp, #16
 138 002c 079B     		ldr	r3, [sp, #28]
 139 002e 9847     		blx	r3
 140              	.LVL5:
 121:Service/Srv_ComProto.c **** 
 141              		.loc 1 121 26 view .LVU29
 142 0030 A080     		strh	r0, [r4, #4]	@ movhi
 123:Service/Srv_ComProto.c ****         {
 143              		.loc 1 123 9 is_stmt 1 view .LVU30
 123:Service/Srv_ComProto.c ****         {
 144              		.loc 1 123 12 is_stmt 0 view .LVU31
 145 0032 18B1     		cbz	r0, .L10
 123:Service/Srv_ComProto.c ****         {
 146              		.loc 1 123 85 discriminator 1 view .LVU32
 147 0034 0730     		adds	r0, r0, #7
 123:Service/Srv_ComProto.c ****         {
 148              		.loc 1 123 98 discriminator 1 view .LVU33
 149 0036 E388     		ldrh	r3, [r4, #6]
 123:Service/Srv_ComProto.c ****         {
 150              		.loc 1 123 30 discriminator 1 view .LVU34
 151 0038 9842     		cmp	r0, r3
 152 003a 17DB     		blt	.L14
 153              	.L10:
 133:Service/Srv_ComProto.c ****     }
 154              		.loc 1 133 9 is_stmt 1 view .LVU35
 133:Service/Srv_ComProto.c ****     }
 155              		.loc 1 133 22 is_stmt 0 view .LVU36
 156 003c 0023     		movs	r3, #0
 157 003e 8DF82830 		strb	r3, [sp, #40]
 158              	.L7:
 135:Service/Srv_ComProto.c **** 
 159              		.loc 1 135 1 view .LVU37
 160 0042 BDE87040 		pop	{r4, r5, r6, lr}
 161              	.LCFI2:
 162              		.cfi_remember_state
 163              		.cfi_restore 14
 164              		.cfi_restore 6
 165              		.cfi_restore 5
 166              		.cfi_restore 4
 167              		.cfi_def_cfa_offset 16
 168 0046 04B0     		add	sp, sp, #16
 169              	.LCFI3:
 170              		.cfi_def_cfa_offset 0
 171 0048 7047     		bx	lr
 172              	.L13:
 173              	.LCFI4:
 174              		.cfi_restore_state
 115:Service/Srv_ComProto.c ****         {
 175              		.loc 1 115 34 discriminator 1 view .LVU38
 176 004a FFF7FEFF 		bl	Get_CurrentRunningMs
ARM GAS  C:\Users\HUAV\AppData\Local\Temp\cceVDsRD.s 			page 7


 177              	.LVL6:
 115:Service/Srv_ComProto.c ****         {
 178              		.loc 1 115 62 discriminator 1 view .LVU39
 179 004e 089B     		ldr	r3, [sp, #32]
 115:Service/Srv_ComProto.c ****         {
 180              		.loc 1 115 57 discriminator 1 view .LVU40
 181 0050 C01A     		subs	r0, r0, r3
 182 0052 099B     		ldr	r3, [sp, #36]
 183 0054 61EB0301 		sbc	r1, r1, r3
 115:Service/Srv_ComProto.c ****         {
 184              		.loc 1 115 79 discriminator 1 view .LVU41
 185 0058 BDF81230 		ldrh	r3, [sp, #18]
 115:Service/Srv_ComProto.c ****         {
 186              		.loc 1 115 30 discriminator 1 view .LVU42
 187 005c 9842     		cmp	r0, r3
 188 005e 71F10003 		sbcs	r3, r1, #0
 189 0062 E2D2     		bcs	.L9
 117:Service/Srv_ComProto.c ****             return;
 190              		.loc 1 117 13 is_stmt 1 view .LVU43
 117:Service/Srv_ComProto.c ****             return;
 191              		.loc 1 117 26 is_stmt 0 view .LVU44
 192 0064 0023     		movs	r3, #0
 193 0066 8DF82830 		strb	r3, [sp, #40]
 118:Service/Srv_ComProto.c ****         }
 194              		.loc 1 118 13 is_stmt 1 view .LVU45
 195 006a EAE7     		b	.L7
 196              	.L14:
 125:Service/Srv_ComProto.c **** 
 197              		.loc 1 125 13 view .LVU46
 125:Service/Srv_ComProto.c **** 
 198              		.loc 1 125 32 is_stmt 0 view .LVU47
 199 006c 2668     		ldr	r6, [r4]
 125:Service/Srv_ComProto.c **** 
 200              		.loc 1 125 81 view .LVU48
 201 006e 069D     		ldr	r5, [sp, #24]
 202              	.LVL7:
 203              	.LBB12:
 204              	.LBI12:
 205              		.file 2 "Service/../MAVLink/common/../mavlink_helpers.h"
   1:Service/../MAVLink/common/../mavlink_helpers.h **** #ifndef  _MAVLINK_HELPERS_H_
   2:Service/../MAVLink/common/../mavlink_helpers.h **** #define  _MAVLINK_HELPERS_H_
   3:Service/../MAVLink/common/../mavlink_helpers.h **** 
   4:Service/../MAVLink/common/../mavlink_helpers.h **** #include "string.h"
   5:Service/../MAVLink/common/../mavlink_helpers.h **** #include "checksum.h"
   6:Service/../MAVLink/common/../mavlink_helpers.h **** #include "mavlink_types.h"
   7:Service/../MAVLink/common/../mavlink_helpers.h **** #include "mavlink_conversions.h"
   8:Service/../MAVLink/common/../mavlink_helpers.h **** 
   9:Service/../MAVLink/common/../mavlink_helpers.h **** #ifndef MAVLINK_HELPER
  10:Service/../MAVLink/common/../mavlink_helpers.h **** #define MAVLINK_HELPER
  11:Service/../MAVLink/common/../mavlink_helpers.h **** #endif
  12:Service/../MAVLink/common/../mavlink_helpers.h **** 
  13:Service/../MAVLink/common/../mavlink_helpers.h **** /*
  14:Service/../MAVLink/common/../mavlink_helpers.h ****  * Internal function to give access to the channel status for each channel
  15:Service/../MAVLink/common/../mavlink_helpers.h ****  */
  16:Service/../MAVLink/common/../mavlink_helpers.h **** #ifndef MAVLINK_GET_CHANNEL_STATUS
  17:Service/../MAVLink/common/../mavlink_helpers.h **** MAVLINK_HELPER mavlink_status_t* mavlink_get_channel_status(uint8_t chan)
  18:Service/../MAVLink/common/../mavlink_helpers.h **** {
ARM GAS  C:\Users\HUAV\AppData\Local\Temp\cceVDsRD.s 			page 8


  19:Service/../MAVLink/common/../mavlink_helpers.h **** #ifdef MAVLINK_EXTERNAL_RX_STATUS
  20:Service/../MAVLink/common/../mavlink_helpers.h **** 	// No m_mavlink_status array defined in function,
  21:Service/../MAVLink/common/../mavlink_helpers.h **** 	// has to be defined externally
  22:Service/../MAVLink/common/../mavlink_helpers.h **** #else
  23:Service/../MAVLink/common/../mavlink_helpers.h **** 	static mavlink_status_t m_mavlink_status[MAVLINK_COMM_NUM_BUFFERS];
  24:Service/../MAVLink/common/../mavlink_helpers.h **** #endif
  25:Service/../MAVLink/common/../mavlink_helpers.h **** 	return &m_mavlink_status[chan];
  26:Service/../MAVLink/common/../mavlink_helpers.h **** }
  27:Service/../MAVLink/common/../mavlink_helpers.h **** #endif
  28:Service/../MAVLink/common/../mavlink_helpers.h **** 
  29:Service/../MAVLink/common/../mavlink_helpers.h **** /*
  30:Service/../MAVLink/common/../mavlink_helpers.h ****  * Internal function to give access to the channel buffer for each channel
  31:Service/../MAVLink/common/../mavlink_helpers.h ****  */
  32:Service/../MAVLink/common/../mavlink_helpers.h **** #ifndef MAVLINK_GET_CHANNEL_BUFFER
  33:Service/../MAVLink/common/../mavlink_helpers.h **** MAVLINK_HELPER mavlink_message_t* mavlink_get_channel_buffer(uint8_t chan)
  34:Service/../MAVLink/common/../mavlink_helpers.h **** {
  35:Service/../MAVLink/common/../mavlink_helpers.h **** 	
  36:Service/../MAVLink/common/../mavlink_helpers.h **** #ifdef MAVLINK_EXTERNAL_RX_BUFFER
  37:Service/../MAVLink/common/../mavlink_helpers.h **** 	// No m_mavlink_buffer array defined in function,
  38:Service/../MAVLink/common/../mavlink_helpers.h **** 	// has to be defined externally
  39:Service/../MAVLink/common/../mavlink_helpers.h **** #else
  40:Service/../MAVLink/common/../mavlink_helpers.h **** 	static mavlink_message_t m_mavlink_buffer[MAVLINK_COMM_NUM_BUFFERS];
  41:Service/../MAVLink/common/../mavlink_helpers.h **** #endif
  42:Service/../MAVLink/common/../mavlink_helpers.h **** 	return &m_mavlink_buffer[chan];
  43:Service/../MAVLink/common/../mavlink_helpers.h **** }
  44:Service/../MAVLink/common/../mavlink_helpers.h **** #endif
  45:Service/../MAVLink/common/../mavlink_helpers.h **** 
  46:Service/../MAVLink/common/../mavlink_helpers.h **** /**
  47:Service/../MAVLink/common/../mavlink_helpers.h ****  * @brief Reset the status of a channel.
  48:Service/../MAVLink/common/../mavlink_helpers.h ****  */
  49:Service/../MAVLink/common/../mavlink_helpers.h **** MAVLINK_HELPER void mavlink_reset_channel_status(uint8_t chan)
  50:Service/../MAVLink/common/../mavlink_helpers.h **** {
  51:Service/../MAVLink/common/../mavlink_helpers.h **** 	mavlink_status_t *status = mavlink_get_channel_status(chan);
  52:Service/../MAVLink/common/../mavlink_helpers.h **** 	status->parse_state = MAVLINK_PARSE_STATE_IDLE;
  53:Service/../MAVLink/common/../mavlink_helpers.h **** }
  54:Service/../MAVLink/common/../mavlink_helpers.h **** 
  55:Service/../MAVLink/common/../mavlink_helpers.h **** /**
  56:Service/../MAVLink/common/../mavlink_helpers.h ****  * @brief Finalize a MAVLink message with channel assignment
  57:Service/../MAVLink/common/../mavlink_helpers.h ****  *
  58:Service/../MAVLink/common/../mavlink_helpers.h ****  * This function calculates the checksum and sets length and aircraft id correctly.
  59:Service/../MAVLink/common/../mavlink_helpers.h ****  * It assumes that the message id and the payload are already correctly set. This function
  60:Service/../MAVLink/common/../mavlink_helpers.h ****  * can also be used if the message header has already been written before (as in mavlink_msg_xxx_pa
  61:Service/../MAVLink/common/../mavlink_helpers.h ****  * instead of mavlink_msg_xxx_pack_headerless), it just introduces little extra overhead.
  62:Service/../MAVLink/common/../mavlink_helpers.h ****  *
  63:Service/../MAVLink/common/../mavlink_helpers.h ****  * @param msg Message to finalize
  64:Service/../MAVLink/common/../mavlink_helpers.h ****  * @param system_id Id of the sending (this) system, 1-127
  65:Service/../MAVLink/common/../mavlink_helpers.h ****  * @param length Message length
  66:Service/../MAVLink/common/../mavlink_helpers.h ****  */
  67:Service/../MAVLink/common/../mavlink_helpers.h **** #if MAVLINK_CRC_EXTRA
  68:Service/../MAVLink/common/../mavlink_helpers.h **** MAVLINK_HELPER uint16_t mavlink_finalize_message_chan(mavlink_message_t* msg, uint8_t system_id, ui
  69:Service/../MAVLink/common/../mavlink_helpers.h **** 						      uint8_t chan, uint8_t min_length, uint8_t length, uint8_t crc_extra)
  70:Service/../MAVLink/common/../mavlink_helpers.h **** #else
  71:Service/../MAVLink/common/../mavlink_helpers.h **** MAVLINK_HELPER uint16_t mavlink_finalize_message_chan(mavlink_message_t* msg, uint8_t system_id, ui
  72:Service/../MAVLink/common/../mavlink_helpers.h **** 						      uint8_t chan, uint8_t length)
  73:Service/../MAVLink/common/../mavlink_helpers.h **** #endif
  74:Service/../MAVLink/common/../mavlink_helpers.h **** {
  75:Service/../MAVLink/common/../mavlink_helpers.h **** 	// This is only used for the v2 protocol and we silence it here
ARM GAS  C:\Users\HUAV\AppData\Local\Temp\cceVDsRD.s 			page 9


  76:Service/../MAVLink/common/../mavlink_helpers.h **** 	(void)min_length;
  77:Service/../MAVLink/common/../mavlink_helpers.h **** 	// This code part is the same for all messages;
  78:Service/../MAVLink/common/../mavlink_helpers.h **** 	msg->magic = MAVLINK_STX;
  79:Service/../MAVLink/common/../mavlink_helpers.h **** 	msg->len = length;
  80:Service/../MAVLink/common/../mavlink_helpers.h **** 	msg->sysid = system_id;
  81:Service/../MAVLink/common/../mavlink_helpers.h **** 	msg->compid = component_id;
  82:Service/../MAVLink/common/../mavlink_helpers.h **** 	// One sequence number per channel
  83:Service/../MAVLink/common/../mavlink_helpers.h **** 	msg->seq = mavlink_get_channel_status(chan)->current_tx_seq;
  84:Service/../MAVLink/common/../mavlink_helpers.h **** 	mavlink_get_channel_status(chan)->current_tx_seq = mavlink_get_channel_status(chan)->current_tx_se
  85:Service/../MAVLink/common/../mavlink_helpers.h **** 	msg->checksum = crc_calculate(((const uint8_t*)(msg)) + 3, MAVLINK_CORE_HEADER_LEN);
  86:Service/../MAVLink/common/../mavlink_helpers.h **** 	crc_accumulate_buffer(&msg->checksum, _MAV_PAYLOAD(msg), msg->len);
  87:Service/../MAVLink/common/../mavlink_helpers.h **** #if MAVLINK_CRC_EXTRA
  88:Service/../MAVLink/common/../mavlink_helpers.h **** 	crc_accumulate(crc_extra, &msg->checksum);
  89:Service/../MAVLink/common/../mavlink_helpers.h **** #endif
  90:Service/../MAVLink/common/../mavlink_helpers.h **** 	mavlink_ck_a(msg) = (uint8_t)(msg->checksum & 0xFF);
  91:Service/../MAVLink/common/../mavlink_helpers.h **** 	mavlink_ck_b(msg) = (uint8_t)(msg->checksum >> 8);
  92:Service/../MAVLink/common/../mavlink_helpers.h **** 
  93:Service/../MAVLink/common/../mavlink_helpers.h **** 	return length + MAVLINK_NUM_NON_PAYLOAD_BYTES;
  94:Service/../MAVLink/common/../mavlink_helpers.h **** }
  95:Service/../MAVLink/common/../mavlink_helpers.h **** 
  96:Service/../MAVLink/common/../mavlink_helpers.h **** 
  97:Service/../MAVLink/common/../mavlink_helpers.h **** /**
  98:Service/../MAVLink/common/../mavlink_helpers.h ****  * @brief Finalize a MAVLink message with MAVLINK_COMM_0 as default channel
  99:Service/../MAVLink/common/../mavlink_helpers.h ****  */
 100:Service/../MAVLink/common/../mavlink_helpers.h **** #if MAVLINK_CRC_EXTRA
 101:Service/../MAVLink/common/../mavlink_helpers.h **** MAVLINK_HELPER uint16_t mavlink_finalize_message(mavlink_message_t* msg, uint8_t system_id, uint8_t
 102:Service/../MAVLink/common/../mavlink_helpers.h **** 						 uint8_t min_length, uint8_t length, uint8_t crc_extra)
 103:Service/../MAVLink/common/../mavlink_helpers.h **** {
 104:Service/../MAVLink/common/../mavlink_helpers.h ****     return mavlink_finalize_message_chan(msg, system_id, component_id, MAVLINK_COMM_0, min_length, 
 105:Service/../MAVLink/common/../mavlink_helpers.h **** }
 106:Service/../MAVLink/common/../mavlink_helpers.h **** #else
 107:Service/../MAVLink/common/../mavlink_helpers.h **** MAVLINK_HELPER uint16_t mavlink_finalize_message(mavlink_message_t* msg, uint8_t system_id, uint8_t
 108:Service/../MAVLink/common/../mavlink_helpers.h **** 						 uint8_t length)
 109:Service/../MAVLink/common/../mavlink_helpers.h **** {
 110:Service/../MAVLink/common/../mavlink_helpers.h **** 	return mavlink_finalize_message_chan(msg, system_id, component_id, MAVLINK_COMM_0, length);
 111:Service/../MAVLink/common/../mavlink_helpers.h **** }
 112:Service/../MAVLink/common/../mavlink_helpers.h **** #endif
 113:Service/../MAVLink/common/../mavlink_helpers.h **** 
 114:Service/../MAVLink/common/../mavlink_helpers.h **** #ifdef MAVLINK_USE_CONVENIENCE_FUNCTIONS
 115:Service/../MAVLink/common/../mavlink_helpers.h **** MAVLINK_HELPER void _mavlink_send_uart(mavlink_channel_t chan, const char *buf, uint16_t len);
 116:Service/../MAVLink/common/../mavlink_helpers.h **** 
 117:Service/../MAVLink/common/../mavlink_helpers.h **** /**
 118:Service/../MAVLink/common/../mavlink_helpers.h ****  * @brief Finalize a MAVLink message with channel assignment and send
 119:Service/../MAVLink/common/../mavlink_helpers.h ****  */
 120:Service/../MAVLink/common/../mavlink_helpers.h **** #if MAVLINK_CRC_EXTRA
 121:Service/../MAVLink/common/../mavlink_helpers.h **** MAVLINK_HELPER void _mav_finalize_message_chan_send(mavlink_channel_t chan, uint8_t msgid, const ch
 122:Service/../MAVLink/common/../mavlink_helpers.h **** 						    uint8_t min_length, uint8_t length, uint8_t crc_extra)
 123:Service/../MAVLink/common/../mavlink_helpers.h **** #else
 124:Service/../MAVLink/common/../mavlink_helpers.h **** MAVLINK_HELPER void _mav_finalize_message_chan_send(mavlink_channel_t chan, uint8_t msgid, const ch
 125:Service/../MAVLink/common/../mavlink_helpers.h **** #endif
 126:Service/../MAVLink/common/../mavlink_helpers.h **** {
 127:Service/../MAVLink/common/../mavlink_helpers.h **** 	uint16_t checksum;
 128:Service/../MAVLink/common/../mavlink_helpers.h **** 	uint8_t buf[MAVLINK_NUM_HEADER_BYTES];
 129:Service/../MAVLink/common/../mavlink_helpers.h **** 	uint8_t ck[2];
 130:Service/../MAVLink/common/../mavlink_helpers.h **** 	mavlink_status_t *status = mavlink_get_channel_status(chan);
 131:Service/../MAVLink/common/../mavlink_helpers.h **** 	buf[0] = MAVLINK_STX;
 132:Service/../MAVLink/common/../mavlink_helpers.h **** 	buf[1] = length;
ARM GAS  C:\Users\HUAV\AppData\Local\Temp\cceVDsRD.s 			page 10


 133:Service/../MAVLink/common/../mavlink_helpers.h **** 	buf[2] = status->current_tx_seq;
 134:Service/../MAVLink/common/../mavlink_helpers.h **** 	buf[3] = mavlink_system.sysid;
 135:Service/../MAVLink/common/../mavlink_helpers.h **** 	buf[4] = mavlink_system.compid;
 136:Service/../MAVLink/common/../mavlink_helpers.h **** 	buf[5] = msgid;
 137:Service/../MAVLink/common/../mavlink_helpers.h **** 	status->current_tx_seq++;
 138:Service/../MAVLink/common/../mavlink_helpers.h **** 	checksum = crc_calculate((const uint8_t*)&buf[1], MAVLINK_CORE_HEADER_LEN);
 139:Service/../MAVLink/common/../mavlink_helpers.h **** 	crc_accumulate_buffer(&checksum, packet, length);
 140:Service/../MAVLink/common/../mavlink_helpers.h **** #if MAVLINK_CRC_EXTRA
 141:Service/../MAVLink/common/../mavlink_helpers.h **** 	crc_accumulate(crc_extra, &checksum);
 142:Service/../MAVLink/common/../mavlink_helpers.h **** #endif
 143:Service/../MAVLink/common/../mavlink_helpers.h **** 	ck[0] = (uint8_t)(checksum & 0xFF);
 144:Service/../MAVLink/common/../mavlink_helpers.h **** 	ck[1] = (uint8_t)(checksum >> 8);
 145:Service/../MAVLink/common/../mavlink_helpers.h **** 
 146:Service/../MAVLink/common/../mavlink_helpers.h **** 	MAVLINK_START_UART_SEND(chan, MAVLINK_NUM_NON_PAYLOAD_BYTES + (uint16_t)length);
 147:Service/../MAVLink/common/../mavlink_helpers.h **** 	_mavlink_send_uart(chan, (const char *)buf, MAVLINK_NUM_HEADER_BYTES);
 148:Service/../MAVLink/common/../mavlink_helpers.h **** 	_mavlink_send_uart(chan, packet, length);
 149:Service/../MAVLink/common/../mavlink_helpers.h **** 	_mavlink_send_uart(chan, (const char *)ck, 2);
 150:Service/../MAVLink/common/../mavlink_helpers.h **** 	MAVLINK_END_UART_SEND(chan, MAVLINK_NUM_NON_PAYLOAD_BYTES + (uint16_t)length);
 151:Service/../MAVLink/common/../mavlink_helpers.h **** }
 152:Service/../MAVLink/common/../mavlink_helpers.h **** 
 153:Service/../MAVLink/common/../mavlink_helpers.h **** /**
 154:Service/../MAVLink/common/../mavlink_helpers.h ****  * @brief re-send a message over a uart channel
 155:Service/../MAVLink/common/../mavlink_helpers.h ****  * this is more stack efficient than re-marshalling the message
 156:Service/../MAVLink/common/../mavlink_helpers.h ****  */
 157:Service/../MAVLink/common/../mavlink_helpers.h **** MAVLINK_HELPER void _mavlink_resend_uart(mavlink_channel_t chan, const mavlink_message_t *msg)
 158:Service/../MAVLink/common/../mavlink_helpers.h **** {
 159:Service/../MAVLink/common/../mavlink_helpers.h **** 	uint8_t ck[2];
 160:Service/../MAVLink/common/../mavlink_helpers.h **** 
 161:Service/../MAVLink/common/../mavlink_helpers.h **** 	ck[0] = (uint8_t)(msg->checksum & 0xFF);
 162:Service/../MAVLink/common/../mavlink_helpers.h **** 	ck[1] = (uint8_t)(msg->checksum >> 8);
 163:Service/../MAVLink/common/../mavlink_helpers.h **** 	// XXX use the right sequence here
 164:Service/../MAVLink/common/../mavlink_helpers.h **** 
 165:Service/../MAVLink/common/../mavlink_helpers.h **** 	MAVLINK_START_UART_SEND(chan, MAVLINK_NUM_NON_PAYLOAD_BYTES + msg->len);
 166:Service/../MAVLink/common/../mavlink_helpers.h **** 	_mavlink_send_uart(chan, (const char *)&msg->magic, MAVLINK_NUM_HEADER_BYTES);
 167:Service/../MAVLink/common/../mavlink_helpers.h **** 	_mavlink_send_uart(chan, _MAV_PAYLOAD(msg), msg->len);
 168:Service/../MAVLink/common/../mavlink_helpers.h **** 	_mavlink_send_uart(chan, (const char *)ck, 2);
 169:Service/../MAVLink/common/../mavlink_helpers.h **** 	MAVLINK_END_UART_SEND(chan, MAVLINK_NUM_NON_PAYLOAD_BYTES + msg->len);
 170:Service/../MAVLink/common/../mavlink_helpers.h **** }
 171:Service/../MAVLink/common/../mavlink_helpers.h **** #endif // MAVLINK_USE_CONVENIENCE_FUNCTIONS
 172:Service/../MAVLink/common/../mavlink_helpers.h **** 
 173:Service/../MAVLink/common/../mavlink_helpers.h **** /**
 174:Service/../MAVLink/common/../mavlink_helpers.h ****  * @brief Pack a message to send it over a serial byte stream
 175:Service/../MAVLink/common/../mavlink_helpers.h ****  */
 176:Service/../MAVLink/common/../mavlink_helpers.h **** MAVLINK_HELPER uint16_t mavlink_msg_to_send_buffer(uint8_t *buffer, const mavlink_message_t *msg)
 206              		.loc 2 176 25 is_stmt 1 view .LVU49
 207              	.LBB13:
 177:Service/../MAVLink/common/../mavlink_helpers.h **** {
 178:Service/../MAVLink/common/../mavlink_helpers.h **** 	memcpy(buffer, (const uint8_t *)&msg->magic, MAVLINK_NUM_HEADER_BYTES + (uint16_t)msg->len);
 208              		.loc 2 178 2 view .LVU50
 209              		.loc 2 178 87 is_stmt 0 view .LVU51
 210 0070 EA78     		ldrb	r2, [r5, #3]	@ zero_extendqisi2
 211              		.loc 2 178 2 view .LVU52
 212 0072 0632     		adds	r2, r2, #6
 213 0074 A91C     		adds	r1, r5, #2
 214 0076 3046     		mov	r0, r6
 215 0078 FFF7FEFF 		bl	memcpy
 216              	.LVL8:
ARM GAS  C:\Users\HUAV\AppData\Local\Temp\cceVDsRD.s 			page 11


 179:Service/../MAVLink/common/../mavlink_helpers.h **** 
 180:Service/../MAVLink/common/../mavlink_helpers.h **** 	uint8_t *ck = buffer + (MAVLINK_NUM_HEADER_BYTES + (uint16_t)msg->len);
 217              		.loc 2 180 2 is_stmt 1 view .LVU53
 218              		.loc 2 180 66 is_stmt 0 view .LVU54
 219 007c EB78     		ldrb	r3, [r5, #3]	@ zero_extendqisi2
 220              		.loc 2 180 51 view .LVU55
 221 007e 0633     		adds	r3, r3, #6
 222              		.loc 2 180 11 view .LVU56
 223 0080 F218     		adds	r2, r6, r3
 224              	.LVL9:
 181:Service/../MAVLink/common/../mavlink_helpers.h **** 
 182:Service/../MAVLink/common/../mavlink_helpers.h **** 	ck[0] = (uint8_t)(msg->checksum & 0xFF);
 225              		.loc 2 182 2 is_stmt 1 view .LVU57
 226              		.loc 2 182 23 is_stmt 0 view .LVU58
 227 0082 2988     		ldrh	r1, [r5]	@ unaligned
 228              		.loc 2 182 8 view .LVU59
 229 0084 F154     		strb	r1, [r6, r3]
 183:Service/../MAVLink/common/../mavlink_helpers.h **** 	ck[1] = (uint8_t)(msg->checksum >> 8);
 230              		.loc 2 183 2 is_stmt 1 view .LVU60
 231              		.loc 2 183 23 is_stmt 0 view .LVU61
 232 0086 2B88     		ldrh	r3, [r5]	@ unaligned
 233              		.loc 2 183 10 view .LVU62
 234 0088 1B0A     		lsrs	r3, r3, #8
 235              		.loc 2 183 8 view .LVU63
 236 008a 5370     		strb	r3, [r2, #1]
 184:Service/../MAVLink/common/../mavlink_helpers.h **** 
 185:Service/../MAVLink/common/../mavlink_helpers.h **** 	return MAVLINK_NUM_NON_PAYLOAD_BYTES + (uint16_t)msg->len;
 237              		.loc 2 185 2 is_stmt 1 view .LVU64
 238              		.loc 2 185 54 is_stmt 0 view .LVU65
 239 008c E978     		ldrb	r1, [r5, #3]	@ zero_extendqisi2
 240              		.loc 2 185 39 view .LVU66
 241 008e 0831     		adds	r1, r1, #8
 242              	.LVL10:
 243              		.loc 2 185 39 view .LVU67
 244              	.LBE13:
 245              	.LBE12:
 125:Service/Srv_ComProto.c **** 
 246              		.loc 1 125 30 view .LVU68
 247 0090 A180     		strh	r1, [r4, #4]	@ movhi
 127:Service/Srv_ComProto.c ****                 tx_cb(com_stream->p_buf, com_stream->size);
 248              		.loc 1 127 13 is_stmt 1 view .LVU69
 127:Service/Srv_ComProto.c ****                 tx_cb(com_stream->p_buf, com_stream->size);
 249              		.loc 1 127 16 is_stmt 0 view .LVU70
 250 0092 0D9B     		ldr	r3, [sp, #52]
 251 0094 0BB1     		cbz	r3, .L11
 128:Service/Srv_ComProto.c **** 
 252              		.loc 1 128 17 is_stmt 1 view .LVU71
 253 0096 2068     		ldr	r0, [r4]
 254 0098 9847     		blx	r3
 255              	.LVL11:
 256              	.L11:
 130:Service/Srv_ComProto.c ****         }
 257              		.loc 1 130 13 view .LVU72
 130:Service/Srv_ComProto.c ****         }
 258              		.loc 1 130 30 is_stmt 0 view .LVU73
 259 009a FFF7FEFF 		bl	Get_CurrentRunningMs
 260              	.LVL12:
ARM GAS  C:\Users\HUAV\AppData\Local\Temp\cceVDsRD.s 			page 12


 130:Service/Srv_ComProto.c ****         }
 261              		.loc 1 130 28 view .LVU74
 262 009e CDE90801 		strd	r0, [sp, #32]
 263 00a2 CBE7     		b	.L10
 264              		.cfi_endproc
 265              	.LFE2001:
 267              		.section	.text.Srv_ComProto_MsgObj_Init,"ax",%progbits
 268              		.align	1
 269              		.syntax unified
 270              		.thumb
 271              		.thumb_func
 272              		.fpu fpv5-d16
 274              	Srv_ComProto_MsgObj_Init:
 275              	.LVL13:
 276              	.LFB2000:
  56:Service/Srv_ComProto.c ****     if ((msg == NULL) ||
 277              		.loc 1 56 1 is_stmt 1 view -0
 278              		.cfi_startproc
 279              		@ args = 0, pretend = 0, frame = 8
 280              		@ frame_needed = 0, uses_anonymous_args = 0
  56:Service/Srv_ComProto.c ****     if ((msg == NULL) ||
 281              		.loc 1 56 1 is_stmt 0 view .LVU76
 282 0000 30B5     		push	{r4, r5, lr}
 283              	.LCFI5:
 284              		.cfi_def_cfa_offset 12
 285              		.cfi_offset 4, -12
 286              		.cfi_offset 5, -8
 287              		.cfi_offset 14, -4
 288 0002 83B0     		sub	sp, sp, #12
 289              	.LCFI6:
 290              		.cfi_def_cfa_offset 24
 291 0004 0191     		str	r1, [sp, #4]
  57:Service/Srv_ComProto.c ****         (period == 0))
 292              		.loc 1 57 5 is_stmt 1 view .LVU77
  57:Service/Srv_ComProto.c ****         (period == 0))
 293              		.loc 1 57 8 is_stmt 0 view .LVU78
 294 0006 002A     		cmp	r2, #0
 295 0008 18BF     		it	ne
 296 000a 0028     		cmpne	r0, #0
 297 000c 0CBF     		ite	eq
 298 000e 0124     		moveq	r4, #1
 299 0010 0024     		movne	r4, #0
 300 0012 03D1     		bne	.L23
  59:Service/Srv_ComProto.c **** 
 301              		.loc 1 59 16 view .LVU79
 302 0014 0024     		movs	r4, #0
 303              	.LVL14:
 304              	.L16:
 107:Service/Srv_ComProto.c **** 
 305              		.loc 1 107 1 view .LVU80
 306 0016 2046     		mov	r0, r4
 307 0018 03B0     		add	sp, sp, #12
 308              	.LCFI7:
 309              		.cfi_remember_state
 310              		.cfi_def_cfa_offset 12
 311              		@ sp needed
 312 001a 30BD     		pop	{r4, r5, pc}
ARM GAS  C:\Users\HUAV\AppData\Local\Temp\cceVDsRD.s 			page 13


 313              	.LVL15:
 314              	.L23:
 315              	.LCFI8:
 316              		.cfi_restore_state
 107:Service/Srv_ComProto.c **** 
 317              		.loc 1 107 1 view .LVU81
 318 001c 0546     		mov	r5, r0
  61:Service/Srv_ComProto.c ****     msg->lock_proto = true;
 319              		.loc 1 61 5 is_stmt 1 view .LVU82
  61:Service/Srv_ComProto.c ****     msg->lock_proto = true;
 320              		.loc 1 61 19 is_stmt 0 view .LVU83
 321 001e 0023     		movs	r3, #0
 322 0020 0376     		strb	r3, [r0, #24]
  62:Service/Srv_ComProto.c **** 
 323              		.loc 1 62 5 is_stmt 1 view .LVU84
  62:Service/Srv_ComProto.c **** 
 324              		.loc 1 62 21 is_stmt 0 view .LVU85
 325 0022 0123     		movs	r3, #1
 326 0024 4376     		strb	r3, [r0, #25]
  64:Service/Srv_ComProto.c ****     msg->period = period;
 327              		.loc 1 64 5 is_stmt 1 view .LVU86
  64:Service/Srv_ComProto.c ****     msg->period = period;
 328              		.loc 1 64 19 is_stmt 0 view .LVU87
 329 0026 019B     		ldr	r3, [sp, #4]
 330 0028 8380     		strh	r3, [r0, #4]	@ movhi
 331 002a 1B0C     		lsrs	r3, r3, #16
 332 002c 8371     		strb	r3, [r0, #6]
  65:Service/Srv_ComProto.c ****     msg->proto_time = 0;
 333              		.loc 1 65 5 is_stmt 1 view .LVU88
  65:Service/Srv_ComProto.c ****     msg->proto_time = 0;
 334              		.loc 1 65 17 is_stmt 0 view .LVU89
 335 002e 4280     		strh	r2, [r0, #2]	@ movhi
  66:Service/Srv_ComProto.c **** 
 336              		.loc 1 66 5 is_stmt 1 view .LVU90
  66:Service/Srv_ComProto.c **** 
 337              		.loc 1 66 21 is_stmt 0 view .LVU91
 338 0030 0022     		movs	r2, #0
 339              	.LVL16:
  66:Service/Srv_ComProto.c **** 
 340              		.loc 1 66 21 view .LVU92
 341 0032 0023     		movs	r3, #0
 342 0034 C0E90423 		strd	r2, [r0, #16]
  69:Service/Srv_ComProto.c **** 
 343              		.loc 1 69 5 is_stmt 1 view .LVU93
  69:Service/Srv_ComProto.c **** 
 344              		.loc 1 69 41 is_stmt 0 view .LVU94
 345 0038 4FF48870 		mov	r0, #272
 346              	.LVL17:
  69:Service/Srv_ComProto.c **** 
 347              		.loc 1 69 41 view .LVU95
 348 003c FFF7FEFF 		bl	MMU_Malloc
 349              	.LVL18:
  69:Service/Srv_ComProto.c **** 
 350              		.loc 1 69 18 view .LVU96
 351 0040 A860     		str	r0, [r5, #8]
  71:Service/Srv_ComProto.c ****     {
 352              		.loc 1 71 5 is_stmt 1 view .LVU97
ARM GAS  C:\Users\HUAV\AppData\Local\Temp\cceVDsRD.s 			page 14


  71:Service/Srv_ComProto.c ****     {
 353              		.loc 1 71 8 is_stmt 0 view .LVU98
 354 0042 90B1     		cbz	r0, .L24
  77:Service/Srv_ComProto.c **** 
 355              		.loc 1 77 5 is_stmt 1 view .LVU99
 356 0044 4FF48872 		mov	r2, #272
 357 0048 0021     		movs	r1, #0
 358 004a FFF7FEFF 		bl	memset
 359              	.LVL19:
  80:Service/Srv_ComProto.c ****     {
 360              		.loc 1 80 5 view .LVU100
  80:Service/Srv_ComProto.c ****     {
 361              		.loc 1 80 30 is_stmt 0 view .LVU101
 362 004e 9DF80530 		ldrb	r3, [sp, #5]	@ zero_extendqisi2
  80:Service/Srv_ComProto.c ****     {
 363              		.loc 1 80 5 view .LVU102
 364 0052 012B     		cmp	r3, #1
 365 0054 0CD0     		beq	.L18
 366 0056 5AB2     		sxtb	r2, r3
 367 0058 6AB1     		cbz	r2, .L19
 368 005a 053B     		subs	r3, r3, #5
 369 005c DBB2     		uxtb	r3, r3
 370 005e 032B     		cmp	r3, #3
 371 0060 09D8     		bhi	.L19
 372              	.L20:
 104:Service/Srv_ComProto.c **** 
 373              		.loc 1 104 5 is_stmt 1 view .LVU103
 104:Service/Srv_ComProto.c **** 
 374              		.loc 1 104 21 is_stmt 0 view .LVU104
 375 0062 0023     		movs	r3, #0
 376 0064 6B76     		strb	r3, [r5, #25]
 106:Service/Srv_ComProto.c **** }
 377              		.loc 1 106 5 is_stmt 1 view .LVU105
 106:Service/Srv_ComProto.c **** }
 378              		.loc 1 106 12 is_stmt 0 view .LVU106
 379 0066 0124     		movs	r4, #1
 380 0068 D5E7     		b	.L16
 381              	.L24:
  73:Service/Srv_ComProto.c ****         return false;
 382              		.loc 1 73 9 is_stmt 1 view .LVU107
 383 006a FFF7FEFF 		bl	MMU_Free
 384              	.LVL20:
  74:Service/Srv_ComProto.c ****     }
 385              		.loc 1 74 9 view .LVU108
  74:Service/Srv_ComProto.c ****     }
 386              		.loc 1 74 16 is_stmt 0 view .LVU109
 387 006e D2E7     		b	.L16
 388              	.L18:
  89:Service/Srv_ComProto.c ****         break;
 389              		.loc 1 89 9 is_stmt 1 view .LVU110
  89:Service/Srv_ComProto.c ****         break;
 390              		.loc 1 89 28 is_stmt 0 view .LVU111
 391 0070 044B     		ldr	r3, .L25
 392 0072 EB60     		str	r3, [r5, #12]
  90:Service/Srv_ComProto.c **** 
 393              		.loc 1 90 9 is_stmt 1 view .LVU112
 394 0074 F5E7     		b	.L20
ARM GAS  C:\Users\HUAV\AppData\Local\Temp\cceVDsRD.s 			page 15


 395              	.L19:
  99:Service/Srv_ComProto.c ****         msg->lock_proto = false;
 396              		.loc 1 99 9 view .LVU113
 397 0076 A868     		ldr	r0, [r5, #8]
 398 0078 FFF7FEFF 		bl	MMU_Free
 399              	.LVL21:
 100:Service/Srv_ComProto.c ****         return false;
 400              		.loc 1 100 9 view .LVU114
 100:Service/Srv_ComProto.c ****         return false;
 401              		.loc 1 100 25 is_stmt 0 view .LVU115
 402 007c 0023     		movs	r3, #0
 403 007e 6B76     		strb	r3, [r5, #25]
 101:Service/Srv_ComProto.c ****     }
 404              		.loc 1 101 9 is_stmt 1 view .LVU116
 101:Service/Srv_ComProto.c ****     }
 405              		.loc 1 101 16 is_stmt 0 view .LVU117
 406 0080 C9E7     		b	.L16
 407              	.L26:
 408 0082 00BF     		.align	2
 409              	.L25:
 410 0084 00000000 		.word	SrvComProto_MavMsg_Raw_IMU
 411              		.cfi_endproc
 412              	.LFE2000:
 414              		.section	.text.Srv_ComProto_Init,"ax",%progbits
 415              		.align	1
 416              		.syntax unified
 417              		.thumb
 418              		.thumb_func
 419              		.fpu fpv5-d16
 421              	Srv_ComProto_Init:
 422              	.LVL22:
 423              	.LFB1998:
  34:Service/Srv_ComProto.c ****     UNUSED(arg);
 424              		.loc 1 34 1 is_stmt 1 view -0
 425              		.cfi_startproc
 426              		@ args = 0, pretend = 0, frame = 0
 427              		@ frame_needed = 0, uses_anonymous_args = 0
  35:Service/Srv_ComProto.c **** 
 428              		.loc 1 35 5 view .LVU119
  38:Service/Srv_ComProto.c ****         return true;
 429              		.loc 1 38 5 view .LVU120
  38:Service/Srv_ComProto.c ****         return true;
 430              		.loc 1 38 28 is_stmt 0 view .LVU121
 431 0000 084B     		ldr	r3, .L33
 432 0002 1B78     		ldrb	r3, [r3]	@ zero_extendqisi2
  38:Service/Srv_ComProto.c ****         return true;
 433              		.loc 1 38 8 view .LVU122
 434 0004 63B9     		cbnz	r3, .L30
  34:Service/Srv_ComProto.c ****     UNUSED(arg);
 435              		.loc 1 34 1 view .LVU123
 436 0006 10B5     		push	{r4, lr}
 437              	.LCFI9:
 438              		.cfi_def_cfa_offset 8
 439              		.cfi_offset 4, -8
 440              		.cfi_offset 14, -4
 441 0008 0446     		mov	r4, r0
  41:Service/Srv_ComProto.c **** 
ARM GAS  C:\Users\HUAV\AppData\Local\Temp\cceVDsRD.s 			page 16


 442              		.loc 1 41 5 is_stmt 1 view .LVU124
  41:Service/Srv_ComProto.c **** 
 443              		.loc 1 41 15 is_stmt 0 view .LVU125
 444 000a 074B     		ldr	r3, .L33+4
 445 000c 1B68     		ldr	r3, [r3]
  41:Service/Srv_ComProto.c **** 
 446              		.loc 1 41 5 view .LVU126
 447 000e 9847     		blx	r3
 448              	.LVL23:
  43:Service/Srv_ComProto.c ****     SrvComProto_monitor.Proto_Type = type;
 449              		.loc 1 43 5 is_stmt 1 view .LVU127
 450 0010 044B     		ldr	r3, .L33
 451 0012 0022     		movs	r2, #0
 452 0014 1A80     		strh	r2, [r3]	@ movhi
  44:Service/Srv_ComProto.c ****     SrvComProto_monitor.init_state = true;
 453              		.loc 1 44 5 view .LVU128
  44:Service/Srv_ComProto.c ****     SrvComProto_monitor.init_state = true;
 454              		.loc 1 44 36 is_stmt 0 view .LVU129
 455 0016 5C70     		strb	r4, [r3, #1]
  45:Service/Srv_ComProto.c **** 
 456              		.loc 1 45 5 is_stmt 1 view .LVU130
  45:Service/Srv_ComProto.c **** 
 457              		.loc 1 45 36 is_stmt 0 view .LVU131
 458 0018 0122     		movs	r2, #1
 459 001a 1A70     		strb	r2, [r3]
  47:Service/Srv_ComProto.c **** }
 460              		.loc 1 47 5 is_stmt 1 view .LVU132
  48:Service/Srv_ComProto.c **** 
 461              		.loc 1 48 1 is_stmt 0 view .LVU133
 462 001c 0120     		movs	r0, #1
 463 001e 10BD     		pop	{r4, pc}
 464              	.LVL24:
 465              	.L30:
 466              	.LCFI10:
 467              		.cfi_def_cfa_offset 0
 468              		.cfi_restore 4
 469              		.cfi_restore 14
  48:Service/Srv_ComProto.c **** 
 470              		.loc 1 48 1 view .LVU134
 471 0020 0120     		movs	r0, #1
 472              	.LVL25:
  48:Service/Srv_ComProto.c **** 
 473              		.loc 1 48 1 view .LVU135
 474 0022 7047     		bx	lr
 475              	.L34:
 476              		.align	2
 477              	.L33:
 478 0024 00000000 		.word	.LANCHOR0
 479 0028 00000000 		.word	SrvDataHub
 480              		.cfi_endproc
 481              	.LFE1998:
 483              		.section	.text.SrvComProto_MavMsg_Raw_IMU,"ax",%progbits
 484              		.align	1
 485              		.syntax unified
 486              		.thumb
 487              		.thumb_func
 488              		.fpu fpv5-d16
ARM GAS  C:\Users\HUAV\AppData\Local\Temp\cceVDsRD.s 			page 17


 490              	SrvComProto_MavMsg_Raw_IMU:
 491              	.LVL26:
 492              	.LFB2007:
 145:Service/Srv_ComProto.c **** 
 146:Service/Srv_ComProto.c **** static uint16_t SrvComProto_MavMsg_Moto(SrvComProto_MsgInfo_TypeDef *pck)
 147:Service/Srv_ComProto.c **** {
 148:Service/Srv_ComProto.c ****     uint32_t time_stamp = 0;
 149:Service/Srv_ComProto.c ****     uint16_t moto[8] = {0};
 150:Service/Srv_ComProto.c ****     uint8_t moto_dir[8] = {0};
 151:Service/Srv_ComProto.c ****     uint8_t moto_cnt = 0;
 152:Service/Srv_ComProto.c **** 
 153:Service/Srv_ComProto.c ****     SrvDataHub.get_moto(&time_stamp, &moto_cnt, moto, moto_dir);
 154:Service/Srv_ComProto.c **** 
 155:Service/Srv_ComProto.c ****     return mavlink_msg_servo_output_raw_pack_chan(pck->pck_info.system_id,
 156:Service/Srv_ComProto.c ****                                                   pck->pck_info.component_id,
 157:Service/Srv_ComProto.c ****                                                   pck->pck_info.chan, pck->msg_obj,
 158:Service/Srv_ComProto.c ****                                                   time_stamp, MAV_ActuatorPort_Moto,
 159:Service/Srv_ComProto.c ****                                                   moto[0], moto[1], moto[2], moto[3],
 160:Service/Srv_ComProto.c ****                                                   moto[4], moto[5], moto[6], moto[7]);
 161:Service/Srv_ComProto.c **** }
 162:Service/Srv_ComProto.c **** 
 163:Service/Srv_ComProto.c **** static uint16_t SrvComProto_MavMsg_MotoDir(SrvComProto_MsgInfo_TypeDef *pck)
 164:Service/Srv_ComProto.c **** {
 165:Service/Srv_ComProto.c ****     uint32_t time_stamp = 0;
 166:Service/Srv_ComProto.c ****     uint16_t moto[8] = {0};
 167:Service/Srv_ComProto.c ****     uint8_t moto_dir[8] = {0};
 168:Service/Srv_ComProto.c ****     uint8_t moto_cnt = 0;
 169:Service/Srv_ComProto.c **** 
 170:Service/Srv_ComProto.c ****     SrvDataHub.get_moto(&time_stamp, &moto_cnt, moto, moto_dir);
 171:Service/Srv_ComProto.c **** 
 172:Service/Srv_ComProto.c ****     return mavlink_msg_servo_output_raw_pack_chan(pck->pck_info.system_id,
 173:Service/Srv_ComProto.c ****                                                   pck->pck_info.component_id,
 174:Service/Srv_ComProto.c ****                                                   pck->pck_info.chan, pck->msg_obj,
 175:Service/Srv_ComProto.c ****                                                   time_stamp, MAV_ActuatorPort_MotoDir,
 176:Service/Srv_ComProto.c ****                                                   moto_dir[0], moto_dir[1], moto_dir[2], moto_dir[3
 177:Service/Srv_ComProto.c ****                                                   moto_dir[4], moto_dir[5], moto_dir[6], moto_dir[7
 178:Service/Srv_ComProto.c **** }
 179:Service/Srv_ComProto.c **** 
 180:Service/Srv_ComProto.c **** static uint16_t SrvComProto_MavMsg_Servo(SrvComProto_MsgInfo_TypeDef *pck)
 181:Service/Srv_ComProto.c **** {
 182:Service/Srv_ComProto.c ****     uint32_t time_stamp = 0;
 183:Service/Srv_ComProto.c ****     uint16_t servo[8] = {0};
 184:Service/Srv_ComProto.c ****     uint8_t servo_dir[8] = {0};
 185:Service/Srv_ComProto.c ****     uint8_t servo_cnt = 0;
 186:Service/Srv_ComProto.c **** 
 187:Service/Srv_ComProto.c ****     SrvDataHub.get_servo(&time_stamp, &servo_cnt, servo, servo_dir);
 188:Service/Srv_ComProto.c **** 
 189:Service/Srv_ComProto.c ****     return mavlink_msg_servo_output_raw_pack_chan(pck->pck_info.system_id,
 190:Service/Srv_ComProto.c ****                                                   pck->pck_info.component_id,
 191:Service/Srv_ComProto.c ****                                                   pck->pck_info.chan, pck->msg_obj,
 192:Service/Srv_ComProto.c ****                                                   time_stamp, MAV_ActuatorPort_Servo,
 193:Service/Srv_ComProto.c ****                                                   servo[0], servo[1], servo[2], servo[3],
 194:Service/Srv_ComProto.c ****                                                   servo[4], servo[5], servo[6], servo[7]);
 195:Service/Srv_ComProto.c **** }
 196:Service/Srv_ComProto.c **** 
 197:Service/Srv_ComProto.c **** static uint16_t SrvComProto_MavMsg_ServoDir(SrvComProto_MsgInfo_TypeDef *pck)
 198:Service/Srv_ComProto.c **** {
ARM GAS  C:\Users\HUAV\AppData\Local\Temp\cceVDsRD.s 			page 18


 199:Service/Srv_ComProto.c ****     uint32_t time_stamp = 0;
 200:Service/Srv_ComProto.c ****     uint16_t servo[8] = {0};
 201:Service/Srv_ComProto.c ****     uint8_t servo_dir[8] = {0};
 202:Service/Srv_ComProto.c ****     uint8_t servo_cnt = 0;
 203:Service/Srv_ComProto.c **** 
 204:Service/Srv_ComProto.c ****     SrvDataHub.get_servo(&time_stamp, &servo_cnt, servo, servo_dir);
 205:Service/Srv_ComProto.c **** 
 206:Service/Srv_ComProto.c ****     return mavlink_msg_servo_output_raw_pack_chan(pck->pck_info.system_id,
 207:Service/Srv_ComProto.c ****                                                   pck->pck_info.component_id,
 208:Service/Srv_ComProto.c ****                                                   pck->pck_info.chan, pck->msg_obj,
 209:Service/Srv_ComProto.c ****                                                   time_stamp, MAV_ActuatorPort_ServoDir,
 210:Service/Srv_ComProto.c ****                                                   servo_dir[0], servo_dir[1], servo_dir[2], servo_d
 211:Service/Srv_ComProto.c ****                                                   servo_dir[4], servo_dir[5], servo_dir[6], servo_d
 212:Service/Srv_ComProto.c **** }
 213:Service/Srv_ComProto.c **** 
 214:Service/Srv_ComProto.c **** static uint16_t SrvComProto_MavMsg_Raw_IMU(SrvComProto_MsgInfo_TypeDef *pck)
 215:Service/Srv_ComProto.c **** {
 493              		.loc 1 215 1 is_stmt 1 view -0
 494              		.cfi_startproc
 495              		@ args = 0, pretend = 0, frame = 72
 496              		@ frame_needed = 0, uses_anonymous_args = 0
 497              		.loc 1 215 1 is_stmt 0 view .LVU137
 498 0000 F0B5     		push	{r4, r5, r6, r7, lr}
 499              	.LCFI11:
 500              		.cfi_def_cfa_offset 20
 501              		.cfi_offset 4, -20
 502              		.cfi_offset 5, -16
 503              		.cfi_offset 6, -12
 504              		.cfi_offset 7, -8
 505              		.cfi_offset 14, -4
 506 0002 9BB0     		sub	sp, sp, #108
 507              	.LCFI12:
 508              		.cfi_def_cfa_offset 128
 509 0004 0446     		mov	r4, r0
 216:Service/Srv_ComProto.c ****     uint32_t time_stamp = 0;
 510              		.loc 1 216 5 is_stmt 1 view .LVU138
 511              		.loc 1 216 14 is_stmt 0 view .LVU139
 512 0006 0025     		movs	r5, #0
 513 0008 1995     		str	r5, [sp, #100]
 217:Service/Srv_ComProto.c ****     float acc_scale = 0.0f;
 514              		.loc 1 217 5 is_stmt 1 view .LVU140
 515              		.loc 1 217 11 is_stmt 0 view .LVU141
 516 000a 0023     		movs	r3, #0
 517 000c 1893     		str	r3, [sp, #96]	@ float
 218:Service/Srv_ComProto.c ****     float gyr_scale = 0.0f;
 518              		.loc 1 218 5 is_stmt 1 view .LVU142
 519              		.loc 1 218 11 is_stmt 0 view .LVU143
 520 000e 1793     		str	r3, [sp, #92]	@ float
 219:Service/Srv_ComProto.c ****     float acc_x = 0.0f;
 521              		.loc 1 219 5 is_stmt 1 view .LVU144
 522              		.loc 1 219 11 is_stmt 0 view .LVU145
 523 0010 1693     		str	r3, [sp, #88]	@ float
 220:Service/Srv_ComProto.c ****     float acc_y = 0.0f;
 524              		.loc 1 220 5 is_stmt 1 view .LVU146
 525              		.loc 1 220 11 is_stmt 0 view .LVU147
 526 0012 1593     		str	r3, [sp, #84]	@ float
 221:Service/Srv_ComProto.c ****     float acc_z = 0.0f;
ARM GAS  C:\Users\HUAV\AppData\Local\Temp\cceVDsRD.s 			page 19


 527              		.loc 1 221 5 is_stmt 1 view .LVU148
 528              		.loc 1 221 11 is_stmt 0 view .LVU149
 529 0014 1493     		str	r3, [sp, #80]	@ float
 222:Service/Srv_ComProto.c ****     float gyr_x = 0.0f;
 530              		.loc 1 222 5 is_stmt 1 view .LVU150
 531              		.loc 1 222 11 is_stmt 0 view .LVU151
 532 0016 1393     		str	r3, [sp, #76]	@ float
 223:Service/Srv_ComProto.c ****     float gyr_y = 0.0f;
 533              		.loc 1 223 5 is_stmt 1 view .LVU152
 534              		.loc 1 223 11 is_stmt 0 view .LVU153
 535 0018 1293     		str	r3, [sp, #72]	@ float
 224:Service/Srv_ComProto.c ****     float gyr_z = 0.0f;
 536              		.loc 1 224 5 is_stmt 1 view .LVU154
 537              		.loc 1 224 11 is_stmt 0 view .LVU155
 538 001a 1193     		str	r3, [sp, #68]	@ float
 225:Service/Srv_ComProto.c ****     float tmpr = 0.0f;
 539              		.loc 1 225 5 is_stmt 1 view .LVU156
 540              		.loc 1 225 11 is_stmt 0 view .LVU157
 541 001c 1093     		str	r3, [sp, #64]	@ float
 226:Service/Srv_ComProto.c ****     uint8_t imu_err_code = 0;
 542              		.loc 1 226 5 is_stmt 1 view .LVU158
 543              		.loc 1 226 13 is_stmt 0 view .LVU159
 544 001e 8DF83F50 		strb	r5, [sp, #63]
 227:Service/Srv_ComProto.c **** 
 228:Service/Srv_ComProto.c ****     SrvDataHub.get_raw_imu(&time_stamp, &acc_scale, &gyr_scale, &acc_x, &acc_y, &acc_z, &gyr_x, &gy
 545              		.loc 1 228 5 is_stmt 1 view .LVU160
 546              		.loc 1 228 15 is_stmt 0 view .LVU161
 547 0022 6F4B     		ldr	r3, .L41
 548 0024 5E68     		ldr	r6, [r3, #4]
 549              		.loc 1 228 5 view .LVU162
 550 0026 0DF13F03 		add	r3, sp, #63
 551 002a 0693     		str	r3, [sp, #24]
 552 002c 10AB     		add	r3, sp, #64
 553 002e 0593     		str	r3, [sp, #20]
 554 0030 11AB     		add	r3, sp, #68
 555 0032 0493     		str	r3, [sp, #16]
 556 0034 12AB     		add	r3, sp, #72
 557 0036 0393     		str	r3, [sp, #12]
 558 0038 13AB     		add	r3, sp, #76
 559 003a 0293     		str	r3, [sp, #8]
 560 003c 14AB     		add	r3, sp, #80
 561 003e 0193     		str	r3, [sp, #4]
 562 0040 15AB     		add	r3, sp, #84
 563 0042 0093     		str	r3, [sp]
 564 0044 16AB     		add	r3, sp, #88
 565 0046 17AA     		add	r2, sp, #92
 566 0048 18A9     		add	r1, sp, #96
 567 004a 19A8     		add	r0, sp, #100
 568              	.LVL27:
 569              		.loc 1 228 5 view .LVU163
 570 004c B047     		blx	r6
 571              	.LVL28:
 229:Service/Srv_ComProto.c **** 
 230:Service/Srv_ComProto.c ****     int16_t i_acc_x = (int16_t)(acc_x * acc_scale);
 572              		.loc 1 230 5 is_stmt 1 view .LVU164
 573              		.loc 1 230 39 is_stmt 0 view .LVU165
 574 004e DDED187A 		vldr.32	s15, [sp, #96]
ARM GAS  C:\Users\HUAV\AppData\Local\Temp\cceVDsRD.s 			page 20


 575 0052 9DED167A 		vldr.32	s14, [sp, #88]
 576 0056 27EE877A 		vmul.f32	s14, s15, s14
 577              		.loc 1 230 13 view .LVU166
 578 005a BDEEC77A 		vcvt.s32.f32	s14, s14
 579 005e 17EE10CA 		vmov	ip, s14	@ int
 580              	.LVL29:
 231:Service/Srv_ComProto.c ****     int16_t i_acc_y = (int16_t)(acc_y * acc_scale);
 581              		.loc 1 231 5 is_stmt 1 view .LVU167
 582              		.loc 1 231 39 is_stmt 0 view .LVU168
 583 0062 9DED157A 		vldr.32	s14, [sp, #84]
 584 0066 27EE877A 		vmul.f32	s14, s15, s14
 585              		.loc 1 231 13 view .LVU169
 586 006a BDEEC77A 		vcvt.s32.f32	s14, s14
 587 006e 17EE100A 		vmov	r0, s14	@ int
 588              	.LVL30:
 232:Service/Srv_ComProto.c ****     int16_t i_acc_z = (int16_t)(acc_z * acc_scale);
 589              		.loc 1 232 5 is_stmt 1 view .LVU170
 590              		.loc 1 232 39 is_stmt 0 view .LVU171
 591 0072 9DED147A 		vldr.32	s14, [sp, #80]
 592 0076 67EE877A 		vmul.f32	s15, s15, s14
 593              		.loc 1 232 13 view .LVU172
 594 007a FDEEE77A 		vcvt.s32.f32	s15, s15
 595 007e 17EE903A 		vmov	r3, s15	@ int
 596              	.LVL31:
 233:Service/Srv_ComProto.c **** 
 234:Service/Srv_ComProto.c ****     int16_t i_gyr_x = (int16_t)(gyr_x * gyr_scale);
 597              		.loc 1 234 5 is_stmt 1 view .LVU173
 598              		.loc 1 234 39 is_stmt 0 view .LVU174
 599 0082 DDED177A 		vldr.32	s15, [sp, #92]
 600 0086 9DED137A 		vldr.32	s14, [sp, #76]
 601 008a 27EE877A 		vmul.f32	s14, s15, s14
 602              		.loc 1 234 13 view .LVU175
 603 008e BDEEC77A 		vcvt.s32.f32	s14, s14
 604 0092 17EE101A 		vmov	r1, s14	@ int
 605              	.LVL32:
 235:Service/Srv_ComProto.c ****     int16_t i_gyr_y = (int16_t)(gyr_y * gyr_scale);
 606              		.loc 1 235 5 is_stmt 1 view .LVU176
 607              		.loc 1 235 39 is_stmt 0 view .LVU177
 608 0096 9DED127A 		vldr.32	s14, [sp, #72]
 609 009a 27EE877A 		vmul.f32	s14, s15, s14
 610              		.loc 1 235 13 view .LVU178
 611 009e BDEEC77A 		vcvt.s32.f32	s14, s14
 612              	.LVL33:
 236:Service/Srv_ComProto.c ****     int16_t i_gyr_z = (int16_t)(gyr_z * gyr_scale);
 613              		.loc 1 236 5 is_stmt 1 view .LVU179
 614              		.loc 1 236 39 is_stmt 0 view .LVU180
 615 00a2 DDED116A 		vldr.32	s13, [sp, #68]
 616 00a6 67EEA67A 		vmul.f32	s15, s15, s13
 617              		.loc 1 236 13 view .LVU181
 618 00aa FDEEE77A 		vcvt.s32.f32	s15, s15
 619              	.LVL34:
 237:Service/Srv_ComProto.c **** 
 238:Service/Srv_ComProto.c ****     /* we dont have any mag sensor currently */
 239:Service/Srv_ComProto.c ****     return mavlink_msg_scaled_imu_pack_chan(pck->pck_info.system_id,
 620              		.loc 1 239 5 is_stmt 1 view .LVU182
 621              		.loc 1 239 12 is_stmt 0 view .LVU183
 622 00ae 2779     		ldrb	r7, [r4, #4]	@ zero_extendqisi2
ARM GAS  C:\Users\HUAV\AppData\Local\Temp\cceVDsRD.s 			page 21


 623 00b0 6679     		ldrb	r6, [r4, #5]	@ zero_extendqisi2
 624 00b2 94F806E0 		ldrb	lr, [r4, #6]	@ zero_extendqisi2
 625 00b6 A468     		ldr	r4, [r4, #8]
 626              	.LVL35:
 627              		.loc 1 239 12 view .LVU184
 628 00b8 199A     		ldr	r2, [sp, #100]
 629              	.LVL36:
 630              	.LBB34:
 631              	.LBI34:
 632              		.file 3 "Service/../MAVLink/common/./mavlink_msg_scaled_imu.h"
   1:Service/../MAVLink/common/./mavlink_msg_scaled_imu.h **** #pragma once
   2:Service/../MAVLink/common/./mavlink_msg_scaled_imu.h **** // MESSAGE SCALED_IMU PACKING
   3:Service/../MAVLink/common/./mavlink_msg_scaled_imu.h **** 
   4:Service/../MAVLink/common/./mavlink_msg_scaled_imu.h **** #define MAVLINK_MSG_ID_SCALED_IMU 26
   5:Service/../MAVLink/common/./mavlink_msg_scaled_imu.h **** 
   6:Service/../MAVLink/common/./mavlink_msg_scaled_imu.h **** 
   7:Service/../MAVLink/common/./mavlink_msg_scaled_imu.h **** typedef struct __mavlink_scaled_imu_t {
   8:Service/../MAVLink/common/./mavlink_msg_scaled_imu.h ****  uint32_t time_boot_ms; /*< [ms] Timestamp (time since system boot).*/
   9:Service/../MAVLink/common/./mavlink_msg_scaled_imu.h ****  int16_t xacc; /*< [mG] X acceleration*/
  10:Service/../MAVLink/common/./mavlink_msg_scaled_imu.h ****  int16_t yacc; /*< [mG] Y acceleration*/
  11:Service/../MAVLink/common/./mavlink_msg_scaled_imu.h ****  int16_t zacc; /*< [mG] Z acceleration*/
  12:Service/../MAVLink/common/./mavlink_msg_scaled_imu.h ****  int16_t xgyro; /*< [mrad/s] Angular speed around X axis*/
  13:Service/../MAVLink/common/./mavlink_msg_scaled_imu.h ****  int16_t ygyro; /*< [mrad/s] Angular speed around Y axis*/
  14:Service/../MAVLink/common/./mavlink_msg_scaled_imu.h ****  int16_t zgyro; /*< [mrad/s] Angular speed around Z axis*/
  15:Service/../MAVLink/common/./mavlink_msg_scaled_imu.h ****  int16_t xmag; /*< [mgauss] X Magnetic field*/
  16:Service/../MAVLink/common/./mavlink_msg_scaled_imu.h ****  int16_t ymag; /*< [mgauss] Y Magnetic field*/
  17:Service/../MAVLink/common/./mavlink_msg_scaled_imu.h ****  int16_t zmag; /*< [mgauss] Z Magnetic field*/
  18:Service/../MAVLink/common/./mavlink_msg_scaled_imu.h **** } mavlink_scaled_imu_t;
  19:Service/../MAVLink/common/./mavlink_msg_scaled_imu.h **** 
  20:Service/../MAVLink/common/./mavlink_msg_scaled_imu.h **** #define MAVLINK_MSG_ID_SCALED_IMU_LEN 22
  21:Service/../MAVLink/common/./mavlink_msg_scaled_imu.h **** #define MAVLINK_MSG_ID_SCALED_IMU_MIN_LEN 22
  22:Service/../MAVLink/common/./mavlink_msg_scaled_imu.h **** #define MAVLINK_MSG_ID_26_LEN 22
  23:Service/../MAVLink/common/./mavlink_msg_scaled_imu.h **** #define MAVLINK_MSG_ID_26_MIN_LEN 22
  24:Service/../MAVLink/common/./mavlink_msg_scaled_imu.h **** 
  25:Service/../MAVLink/common/./mavlink_msg_scaled_imu.h **** #define MAVLINK_MSG_ID_SCALED_IMU_CRC 170
  26:Service/../MAVLink/common/./mavlink_msg_scaled_imu.h **** #define MAVLINK_MSG_ID_26_CRC 170
  27:Service/../MAVLink/common/./mavlink_msg_scaled_imu.h **** 
  28:Service/../MAVLink/common/./mavlink_msg_scaled_imu.h **** 
  29:Service/../MAVLink/common/./mavlink_msg_scaled_imu.h **** 
  30:Service/../MAVLink/common/./mavlink_msg_scaled_imu.h **** #if MAVLINK_COMMAND_24BIT
  31:Service/../MAVLink/common/./mavlink_msg_scaled_imu.h **** #define MAVLINK_MESSAGE_INFO_SCALED_IMU { \
  32:Service/../MAVLink/common/./mavlink_msg_scaled_imu.h ****     26, \
  33:Service/../MAVLink/common/./mavlink_msg_scaled_imu.h ****     "SCALED_IMU", \
  34:Service/../MAVLink/common/./mavlink_msg_scaled_imu.h ****     10, \
  35:Service/../MAVLink/common/./mavlink_msg_scaled_imu.h ****     {  { "time_boot_ms", NULL, MAVLINK_TYPE_UINT32_T, 0, 0, offsetof(mavlink_scaled_imu_t, time_boo
  36:Service/../MAVLink/common/./mavlink_msg_scaled_imu.h ****          { "xacc", NULL, MAVLINK_TYPE_INT16_T, 0, 4, offsetof(mavlink_scaled_imu_t, xacc) }, \
  37:Service/../MAVLink/common/./mavlink_msg_scaled_imu.h ****          { "yacc", NULL, MAVLINK_TYPE_INT16_T, 0, 6, offsetof(mavlink_scaled_imu_t, yacc) }, \
  38:Service/../MAVLink/common/./mavlink_msg_scaled_imu.h ****          { "zacc", NULL, MAVLINK_TYPE_INT16_T, 0, 8, offsetof(mavlink_scaled_imu_t, zacc) }, \
  39:Service/../MAVLink/common/./mavlink_msg_scaled_imu.h ****          { "xgyro", NULL, MAVLINK_TYPE_INT16_T, 0, 10, offsetof(mavlink_scaled_imu_t, xgyro) }, \
  40:Service/../MAVLink/common/./mavlink_msg_scaled_imu.h ****          { "ygyro", NULL, MAVLINK_TYPE_INT16_T, 0, 12, offsetof(mavlink_scaled_imu_t, ygyro) }, \
  41:Service/../MAVLink/common/./mavlink_msg_scaled_imu.h ****          { "zgyro", NULL, MAVLINK_TYPE_INT16_T, 0, 14, offsetof(mavlink_scaled_imu_t, zgyro) }, \
  42:Service/../MAVLink/common/./mavlink_msg_scaled_imu.h ****          { "xmag", NULL, MAVLINK_TYPE_INT16_T, 0, 16, offsetof(mavlink_scaled_imu_t, xmag) }, \
  43:Service/../MAVLink/common/./mavlink_msg_scaled_imu.h ****          { "ymag", NULL, MAVLINK_TYPE_INT16_T, 0, 18, offsetof(mavlink_scaled_imu_t, ymag) }, \
  44:Service/../MAVLink/common/./mavlink_msg_scaled_imu.h ****          { "zmag", NULL, MAVLINK_TYPE_INT16_T, 0, 20, offsetof(mavlink_scaled_imu_t, zmag) }, \
  45:Service/../MAVLink/common/./mavlink_msg_scaled_imu.h ****          } \
  46:Service/../MAVLink/common/./mavlink_msg_scaled_imu.h **** }
  47:Service/../MAVLink/common/./mavlink_msg_scaled_imu.h **** #else
ARM GAS  C:\Users\HUAV\AppData\Local\Temp\cceVDsRD.s 			page 22


  48:Service/../MAVLink/common/./mavlink_msg_scaled_imu.h **** #define MAVLINK_MESSAGE_INFO_SCALED_IMU { \
  49:Service/../MAVLink/common/./mavlink_msg_scaled_imu.h ****     "SCALED_IMU", \
  50:Service/../MAVLink/common/./mavlink_msg_scaled_imu.h ****     10, \
  51:Service/../MAVLink/common/./mavlink_msg_scaled_imu.h ****     {  { "time_boot_ms", NULL, MAVLINK_TYPE_UINT32_T, 0, 0, offsetof(mavlink_scaled_imu_t, time_boo
  52:Service/../MAVLink/common/./mavlink_msg_scaled_imu.h ****          { "xacc", NULL, MAVLINK_TYPE_INT16_T, 0, 4, offsetof(mavlink_scaled_imu_t, xacc) }, \
  53:Service/../MAVLink/common/./mavlink_msg_scaled_imu.h ****          { "yacc", NULL, MAVLINK_TYPE_INT16_T, 0, 6, offsetof(mavlink_scaled_imu_t, yacc) }, \
  54:Service/../MAVLink/common/./mavlink_msg_scaled_imu.h ****          { "zacc", NULL, MAVLINK_TYPE_INT16_T, 0, 8, offsetof(mavlink_scaled_imu_t, zacc) }, \
  55:Service/../MAVLink/common/./mavlink_msg_scaled_imu.h ****          { "xgyro", NULL, MAVLINK_TYPE_INT16_T, 0, 10, offsetof(mavlink_scaled_imu_t, xgyro) }, \
  56:Service/../MAVLink/common/./mavlink_msg_scaled_imu.h ****          { "ygyro", NULL, MAVLINK_TYPE_INT16_T, 0, 12, offsetof(mavlink_scaled_imu_t, ygyro) }, \
  57:Service/../MAVLink/common/./mavlink_msg_scaled_imu.h ****          { "zgyro", NULL, MAVLINK_TYPE_INT16_T, 0, 14, offsetof(mavlink_scaled_imu_t, zgyro) }, \
  58:Service/../MAVLink/common/./mavlink_msg_scaled_imu.h ****          { "xmag", NULL, MAVLINK_TYPE_INT16_T, 0, 16, offsetof(mavlink_scaled_imu_t, xmag) }, \
  59:Service/../MAVLink/common/./mavlink_msg_scaled_imu.h ****          { "ymag", NULL, MAVLINK_TYPE_INT16_T, 0, 18, offsetof(mavlink_scaled_imu_t, ymag) }, \
  60:Service/../MAVLink/common/./mavlink_msg_scaled_imu.h ****          { "zmag", NULL, MAVLINK_TYPE_INT16_T, 0, 20, offsetof(mavlink_scaled_imu_t, zmag) }, \
  61:Service/../MAVLink/common/./mavlink_msg_scaled_imu.h ****          } \
  62:Service/../MAVLink/common/./mavlink_msg_scaled_imu.h **** }
  63:Service/../MAVLink/common/./mavlink_msg_scaled_imu.h **** #endif
  64:Service/../MAVLink/common/./mavlink_msg_scaled_imu.h **** 
  65:Service/../MAVLink/common/./mavlink_msg_scaled_imu.h **** /**
  66:Service/../MAVLink/common/./mavlink_msg_scaled_imu.h ****  * @brief Pack a scaled_imu message
  67:Service/../MAVLink/common/./mavlink_msg_scaled_imu.h ****  * @param system_id ID of this system
  68:Service/../MAVLink/common/./mavlink_msg_scaled_imu.h ****  * @param component_id ID of this component (e.g. 200 for IMU)
  69:Service/../MAVLink/common/./mavlink_msg_scaled_imu.h ****  * @param msg The MAVLink message to compress the data into
  70:Service/../MAVLink/common/./mavlink_msg_scaled_imu.h ****  *
  71:Service/../MAVLink/common/./mavlink_msg_scaled_imu.h ****  * @param time_boot_ms [ms] Timestamp (time since system boot).
  72:Service/../MAVLink/common/./mavlink_msg_scaled_imu.h ****  * @param xacc [mG] X acceleration
  73:Service/../MAVLink/common/./mavlink_msg_scaled_imu.h ****  * @param yacc [mG] Y acceleration
  74:Service/../MAVLink/common/./mavlink_msg_scaled_imu.h ****  * @param zacc [mG] Z acceleration
  75:Service/../MAVLink/common/./mavlink_msg_scaled_imu.h ****  * @param xgyro [mrad/s] Angular speed around X axis
  76:Service/../MAVLink/common/./mavlink_msg_scaled_imu.h ****  * @param ygyro [mrad/s] Angular speed around Y axis
  77:Service/../MAVLink/common/./mavlink_msg_scaled_imu.h ****  * @param zgyro [mrad/s] Angular speed around Z axis
  78:Service/../MAVLink/common/./mavlink_msg_scaled_imu.h ****  * @param xmag [mgauss] X Magnetic field
  79:Service/../MAVLink/common/./mavlink_msg_scaled_imu.h ****  * @param ymag [mgauss] Y Magnetic field
  80:Service/../MAVLink/common/./mavlink_msg_scaled_imu.h ****  * @param zmag [mgauss] Z Magnetic field
  81:Service/../MAVLink/common/./mavlink_msg_scaled_imu.h ****  * @return length of the message in bytes (excluding serial stream start sign)
  82:Service/../MAVLink/common/./mavlink_msg_scaled_imu.h ****  */
  83:Service/../MAVLink/common/./mavlink_msg_scaled_imu.h **** static inline uint16_t mavlink_msg_scaled_imu_pack(uint8_t system_id, uint8_t component_id, mavlink
  84:Service/../MAVLink/common/./mavlink_msg_scaled_imu.h ****                                uint32_t time_boot_ms, int16_t xacc, int16_t yacc, int16_t zacc, int
  85:Service/../MAVLink/common/./mavlink_msg_scaled_imu.h **** {
  86:Service/../MAVLink/common/./mavlink_msg_scaled_imu.h **** #if MAVLINK_NEED_BYTE_SWAP || !MAVLINK_ALIGNED_FIELDS
  87:Service/../MAVLink/common/./mavlink_msg_scaled_imu.h ****     char buf[MAVLINK_MSG_ID_SCALED_IMU_LEN];
  88:Service/../MAVLink/common/./mavlink_msg_scaled_imu.h ****     _mav_put_uint32_t(buf, 0, time_boot_ms);
  89:Service/../MAVLink/common/./mavlink_msg_scaled_imu.h ****     _mav_put_int16_t(buf, 4, xacc);
  90:Service/../MAVLink/common/./mavlink_msg_scaled_imu.h ****     _mav_put_int16_t(buf, 6, yacc);
  91:Service/../MAVLink/common/./mavlink_msg_scaled_imu.h ****     _mav_put_int16_t(buf, 8, zacc);
  92:Service/../MAVLink/common/./mavlink_msg_scaled_imu.h ****     _mav_put_int16_t(buf, 10, xgyro);
  93:Service/../MAVLink/common/./mavlink_msg_scaled_imu.h ****     _mav_put_int16_t(buf, 12, ygyro);
  94:Service/../MAVLink/common/./mavlink_msg_scaled_imu.h ****     _mav_put_int16_t(buf, 14, zgyro);
  95:Service/../MAVLink/common/./mavlink_msg_scaled_imu.h ****     _mav_put_int16_t(buf, 16, xmag);
  96:Service/../MAVLink/common/./mavlink_msg_scaled_imu.h ****     _mav_put_int16_t(buf, 18, ymag);
  97:Service/../MAVLink/common/./mavlink_msg_scaled_imu.h ****     _mav_put_int16_t(buf, 20, zmag);
  98:Service/../MAVLink/common/./mavlink_msg_scaled_imu.h **** 
  99:Service/../MAVLink/common/./mavlink_msg_scaled_imu.h ****         memcpy(_MAV_PAYLOAD_NON_CONST(msg), buf, MAVLINK_MSG_ID_SCALED_IMU_LEN);
 100:Service/../MAVLink/common/./mavlink_msg_scaled_imu.h **** #else
 101:Service/../MAVLink/common/./mavlink_msg_scaled_imu.h ****     mavlink_scaled_imu_t packet;
 102:Service/../MAVLink/common/./mavlink_msg_scaled_imu.h ****     packet.time_boot_ms = time_boot_ms;
 103:Service/../MAVLink/common/./mavlink_msg_scaled_imu.h ****     packet.xacc = xacc;
 104:Service/../MAVLink/common/./mavlink_msg_scaled_imu.h ****     packet.yacc = yacc;
ARM GAS  C:\Users\HUAV\AppData\Local\Temp\cceVDsRD.s 			page 23


 105:Service/../MAVLink/common/./mavlink_msg_scaled_imu.h ****     packet.zacc = zacc;
 106:Service/../MAVLink/common/./mavlink_msg_scaled_imu.h ****     packet.xgyro = xgyro;
 107:Service/../MAVLink/common/./mavlink_msg_scaled_imu.h ****     packet.ygyro = ygyro;
 108:Service/../MAVLink/common/./mavlink_msg_scaled_imu.h ****     packet.zgyro = zgyro;
 109:Service/../MAVLink/common/./mavlink_msg_scaled_imu.h ****     packet.xmag = xmag;
 110:Service/../MAVLink/common/./mavlink_msg_scaled_imu.h ****     packet.ymag = ymag;
 111:Service/../MAVLink/common/./mavlink_msg_scaled_imu.h ****     packet.zmag = zmag;
 112:Service/../MAVLink/common/./mavlink_msg_scaled_imu.h **** 
 113:Service/../MAVLink/common/./mavlink_msg_scaled_imu.h ****         memcpy(_MAV_PAYLOAD_NON_CONST(msg), &packet, MAVLINK_MSG_ID_SCALED_IMU_LEN);
 114:Service/../MAVLink/common/./mavlink_msg_scaled_imu.h **** #endif
 115:Service/../MAVLink/common/./mavlink_msg_scaled_imu.h **** 
 116:Service/../MAVLink/common/./mavlink_msg_scaled_imu.h ****     msg->msgid = MAVLINK_MSG_ID_SCALED_IMU;
 117:Service/../MAVLink/common/./mavlink_msg_scaled_imu.h ****     return mavlink_finalize_message(msg, system_id, component_id, MAVLINK_MSG_ID_SCALED_IMU_MIN_LEN
 118:Service/../MAVLink/common/./mavlink_msg_scaled_imu.h **** }
 119:Service/../MAVLink/common/./mavlink_msg_scaled_imu.h **** 
 120:Service/../MAVLink/common/./mavlink_msg_scaled_imu.h **** /**
 121:Service/../MAVLink/common/./mavlink_msg_scaled_imu.h ****  * @brief Pack a scaled_imu message on a channel
 122:Service/../MAVLink/common/./mavlink_msg_scaled_imu.h ****  * @param system_id ID of this system
 123:Service/../MAVLink/common/./mavlink_msg_scaled_imu.h ****  * @param component_id ID of this component (e.g. 200 for IMU)
 124:Service/../MAVLink/common/./mavlink_msg_scaled_imu.h ****  * @param chan The MAVLink channel this message will be sent over
 125:Service/../MAVLink/common/./mavlink_msg_scaled_imu.h ****  * @param msg The MAVLink message to compress the data into
 126:Service/../MAVLink/common/./mavlink_msg_scaled_imu.h ****  * @param time_boot_ms [ms] Timestamp (time since system boot).
 127:Service/../MAVLink/common/./mavlink_msg_scaled_imu.h ****  * @param xacc [mG] X acceleration
 128:Service/../MAVLink/common/./mavlink_msg_scaled_imu.h ****  * @param yacc [mG] Y acceleration
 129:Service/../MAVLink/common/./mavlink_msg_scaled_imu.h ****  * @param zacc [mG] Z acceleration
 130:Service/../MAVLink/common/./mavlink_msg_scaled_imu.h ****  * @param xgyro [mrad/s] Angular speed around X axis
 131:Service/../MAVLink/common/./mavlink_msg_scaled_imu.h ****  * @param ygyro [mrad/s] Angular speed around Y axis
 132:Service/../MAVLink/common/./mavlink_msg_scaled_imu.h ****  * @param zgyro [mrad/s] Angular speed around Z axis
 133:Service/../MAVLink/common/./mavlink_msg_scaled_imu.h ****  * @param xmag [mgauss] X Magnetic field
 134:Service/../MAVLink/common/./mavlink_msg_scaled_imu.h ****  * @param ymag [mgauss] Y Magnetic field
 135:Service/../MAVLink/common/./mavlink_msg_scaled_imu.h ****  * @param zmag [mgauss] Z Magnetic field
 136:Service/../MAVLink/common/./mavlink_msg_scaled_imu.h ****  * @return length of the message in bytes (excluding serial stream start sign)
 137:Service/../MAVLink/common/./mavlink_msg_scaled_imu.h ****  */
 138:Service/../MAVLink/common/./mavlink_msg_scaled_imu.h **** static inline uint16_t mavlink_msg_scaled_imu_pack_chan(uint8_t system_id, uint8_t component_id, ui
 633              		.loc 3 138 24 is_stmt 1 view .LVU185
 634              	.LBB35:
 139:Service/../MAVLink/common/./mavlink_msg_scaled_imu.h ****                                mavlink_message_t* msg,
 140:Service/../MAVLink/common/./mavlink_msg_scaled_imu.h ****                                    uint32_t time_boot_ms,int16_t xacc,int16_t yacc,int16_t zacc,int
 141:Service/../MAVLink/common/./mavlink_msg_scaled_imu.h **** {
 142:Service/../MAVLink/common/./mavlink_msg_scaled_imu.h **** #if MAVLINK_NEED_BYTE_SWAP || !MAVLINK_ALIGNED_FIELDS
 143:Service/../MAVLink/common/./mavlink_msg_scaled_imu.h ****     char buf[MAVLINK_MSG_ID_SCALED_IMU_LEN];
 144:Service/../MAVLink/common/./mavlink_msg_scaled_imu.h ****     _mav_put_uint32_t(buf, 0, time_boot_ms);
 145:Service/../MAVLink/common/./mavlink_msg_scaled_imu.h ****     _mav_put_int16_t(buf, 4, xacc);
 146:Service/../MAVLink/common/./mavlink_msg_scaled_imu.h ****     _mav_put_int16_t(buf, 6, yacc);
 147:Service/../MAVLink/common/./mavlink_msg_scaled_imu.h ****     _mav_put_int16_t(buf, 8, zacc);
 148:Service/../MAVLink/common/./mavlink_msg_scaled_imu.h ****     _mav_put_int16_t(buf, 10, xgyro);
 149:Service/../MAVLink/common/./mavlink_msg_scaled_imu.h ****     _mav_put_int16_t(buf, 12, ygyro);
 150:Service/../MAVLink/common/./mavlink_msg_scaled_imu.h ****     _mav_put_int16_t(buf, 14, zgyro);
 151:Service/../MAVLink/common/./mavlink_msg_scaled_imu.h ****     _mav_put_int16_t(buf, 16, xmag);
 152:Service/../MAVLink/common/./mavlink_msg_scaled_imu.h ****     _mav_put_int16_t(buf, 18, ymag);
 153:Service/../MAVLink/common/./mavlink_msg_scaled_imu.h ****     _mav_put_int16_t(buf, 20, zmag);
 154:Service/../MAVLink/common/./mavlink_msg_scaled_imu.h **** 
 155:Service/../MAVLink/common/./mavlink_msg_scaled_imu.h ****         memcpy(_MAV_PAYLOAD_NON_CONST(msg), buf, MAVLINK_MSG_ID_SCALED_IMU_LEN);
 156:Service/../MAVLink/common/./mavlink_msg_scaled_imu.h **** #else
 157:Service/../MAVLink/common/./mavlink_msg_scaled_imu.h ****     mavlink_scaled_imu_t packet;
 635              		.loc 3 157 5 view .LVU186
 158:Service/../MAVLink/common/./mavlink_msg_scaled_imu.h ****     packet.time_boot_ms = time_boot_ms;
ARM GAS  C:\Users\HUAV\AppData\Local\Temp\cceVDsRD.s 			page 24


 636              		.loc 3 158 5 view .LVU187
 637              		.loc 3 158 25 is_stmt 0 view .LVU188
 638 00ba 0992     		str	r2, [sp, #36]
 159:Service/../MAVLink/common/./mavlink_msg_scaled_imu.h ****     packet.xacc = xacc;
 639              		.loc 3 159 5 is_stmt 1 view .LVU189
 640              		.loc 3 159 17 is_stmt 0 view .LVU190
 641 00bc ADF828C0 		strh	ip, [sp, #40]	@ movhi
 160:Service/../MAVLink/common/./mavlink_msg_scaled_imu.h ****     packet.yacc = yacc;
 642              		.loc 3 160 5 is_stmt 1 view .LVU191
 643              		.loc 3 160 17 is_stmt 0 view .LVU192
 644 00c0 ADF82A00 		strh	r0, [sp, #42]	@ movhi
 161:Service/../MAVLink/common/./mavlink_msg_scaled_imu.h ****     packet.zacc = zacc;
 645              		.loc 3 161 5 is_stmt 1 view .LVU193
 646              		.loc 3 161 17 is_stmt 0 view .LVU194
 647 00c4 ADF82C30 		strh	r3, [sp, #44]	@ movhi
 162:Service/../MAVLink/common/./mavlink_msg_scaled_imu.h ****     packet.xgyro = xgyro;
 648              		.loc 3 162 5 is_stmt 1 view .LVU195
 649              		.loc 3 162 18 is_stmt 0 view .LVU196
 650 00c8 ADF82E10 		strh	r1, [sp, #46]	@ movhi
 163:Service/../MAVLink/common/./mavlink_msg_scaled_imu.h ****     packet.ygyro = ygyro;
 651              		.loc 3 163 5 is_stmt 1 view .LVU197
 652              		.loc 3 163 18 is_stmt 0 view .LVU198
 653 00cc 17EE103A 		vmov	r3, s14	@ int
 654              	.LVL37:
 655              		.loc 3 163 18 view .LVU199
 656 00d0 ADF83030 		strh	r3, [sp, #48]	@ movhi
 164:Service/../MAVLink/common/./mavlink_msg_scaled_imu.h ****     packet.zgyro = zgyro;
 657              		.loc 3 164 5 is_stmt 1 view .LVU200
 658              		.loc 3 164 18 is_stmt 0 view .LVU201
 659 00d4 17EE903A 		vmov	r3, s15	@ int
 660 00d8 ADF83230 		strh	r3, [sp, #50]	@ movhi
 165:Service/../MAVLink/common/./mavlink_msg_scaled_imu.h ****     packet.xmag = xmag;
 661              		.loc 3 165 5 is_stmt 1 view .LVU202
 662              		.loc 3 165 17 is_stmt 0 view .LVU203
 663 00dc ADF83450 		strh	r5, [sp, #52]	@ movhi
 166:Service/../MAVLink/common/./mavlink_msg_scaled_imu.h ****     packet.ymag = ymag;
 664              		.loc 3 166 5 is_stmt 1 view .LVU204
 665              		.loc 3 166 17 is_stmt 0 view .LVU205
 666 00e0 ADF83650 		strh	r5, [sp, #54]	@ movhi
 167:Service/../MAVLink/common/./mavlink_msg_scaled_imu.h ****     packet.zmag = zmag;
 667              		.loc 3 167 5 is_stmt 1 view .LVU206
 668              		.loc 3 167 17 is_stmt 0 view .LVU207
 669 00e4 ADF83850 		strh	r5, [sp, #56]	@ movhi
 168:Service/../MAVLink/common/./mavlink_msg_scaled_imu.h **** 
 169:Service/../MAVLink/common/./mavlink_msg_scaled_imu.h ****         memcpy(_MAV_PAYLOAD_NON_CONST(msg), &packet, MAVLINK_MSG_ID_SCALED_IMU_LEN);
 670              		.loc 3 169 9 is_stmt 1 view .LVU208
 671 00e8 0DF1240C 		add	ip, sp, #36
 672              	.LVL38:
 673              		.loc 3 169 9 is_stmt 0 view .LVU209
 674 00ec BCE80F00 		ldmia	ip!, {r0, r1, r2, r3}
 675              	.LVL39:
 676              		.loc 3 169 9 view .LVU210
 677 00f0 A060     		str	r0, [r4, #8]	@ unaligned
 678              	.LVL40:
 679              		.loc 3 169 9 view .LVU211
 680 00f2 E160     		str	r1, [r4, #12]	@ unaligned
 681 00f4 2261     		str	r2, [r4, #16]	@ unaligned
ARM GAS  C:\Users\HUAV\AppData\Local\Temp\cceVDsRD.s 			page 25


 682 00f6 6361     		str	r3, [r4, #20]	@ unaligned
 683 00f8 DCF80000 		ldr	r0, [ip]
 684              	.LVL41:
 685              		.loc 3 169 9 view .LVU212
 686 00fc A061     		str	r0, [r4, #24]	@ unaligned
 687 00fe BCF80430 		ldrh	r3, [ip, #4]	@ unaligned
 688 0102 A383     		strh	r3, [r4, #28]	@ unaligned
 170:Service/../MAVLink/common/./mavlink_msg_scaled_imu.h **** #endif
 171:Service/../MAVLink/common/./mavlink_msg_scaled_imu.h **** 
 172:Service/../MAVLink/common/./mavlink_msg_scaled_imu.h ****     msg->msgid = MAVLINK_MSG_ID_SCALED_IMU;
 689              		.loc 3 172 5 is_stmt 1 view .LVU213
 690              		.loc 3 172 16 is_stmt 0 view .LVU214
 691 0104 1A23     		movs	r3, #26
 692 0106 E371     		strb	r3, [r4, #7]
 173:Service/../MAVLink/common/./mavlink_msg_scaled_imu.h ****     return mavlink_finalize_message_chan(msg, system_id, component_id, chan, MAVLINK_MSG_ID_SCALED_
 693              		.loc 3 173 5 is_stmt 1 view .LVU215
 694              	.LVL42:
 695              	.LBB36:
 696              	.LBI36:
  68:Service/../MAVLink/common/../mavlink_helpers.h **** 						      uint8_t chan, uint8_t min_length, uint8_t length, uint8_t crc_extra)
 697              		.loc 2 68 25 view .LVU216
 698              	.LBB37:
  76:Service/../MAVLink/common/../mavlink_helpers.h **** 	// This code part is the same for all messages;
 699              		.loc 2 76 2 view .LVU217
  78:Service/../MAVLink/common/../mavlink_helpers.h **** 	msg->len = length;
 700              		.loc 2 78 2 view .LVU218
  78:Service/../MAVLink/common/../mavlink_helpers.h **** 	msg->len = length;
 701              		.loc 2 78 13 is_stmt 0 view .LVU219
 702 0108 FE23     		movs	r3, #254
 703 010a A370     		strb	r3, [r4, #2]
  79:Service/../MAVLink/common/../mavlink_helpers.h **** 	msg->sysid = system_id;
 704              		.loc 2 79 2 is_stmt 1 view .LVU220
  79:Service/../MAVLink/common/../mavlink_helpers.h **** 	msg->sysid = system_id;
 705              		.loc 2 79 11 is_stmt 0 view .LVU221
 706 010c 1623     		movs	r3, #22
 707 010e E370     		strb	r3, [r4, #3]
  80:Service/../MAVLink/common/../mavlink_helpers.h **** 	msg->compid = component_id;
 708              		.loc 2 80 2 is_stmt 1 view .LVU222
  80:Service/../MAVLink/common/../mavlink_helpers.h **** 	msg->compid = component_id;
 709              		.loc 2 80 13 is_stmt 0 view .LVU223
 710 0110 6771     		strb	r7, [r4, #5]
  81:Service/../MAVLink/common/../mavlink_helpers.h **** 	// One sequence number per channel
 711              		.loc 2 81 2 is_stmt 1 view .LVU224
  81:Service/../MAVLink/common/../mavlink_helpers.h **** 	// One sequence number per channel
 712              		.loc 2 81 14 is_stmt 0 view .LVU225
 713 0112 A671     		strb	r6, [r4, #6]
  83:Service/../MAVLink/common/../mavlink_helpers.h **** 	mavlink_get_channel_status(chan)->current_tx_seq = mavlink_get_channel_status(chan)->current_tx_se
 714              		.loc 2 83 2 is_stmt 1 view .LVU226
 715              	.LVL43:
 716              	.LBB38:
 717              	.LBI38:
  17:Service/../MAVLink/common/../mavlink_helpers.h **** {
 718              		.loc 2 17 34 view .LVU227
 719              	.LBB39:
  23:Service/../MAVLink/common/../mavlink_helpers.h **** #endif
 720              		.loc 2 23 2 view .LVU228
  25:Service/../MAVLink/common/../mavlink_helpers.h **** }
ARM GAS  C:\Users\HUAV\AppData\Local\Temp\cceVDsRD.s 			page 26


 721              		.loc 2 25 2 view .LVU229
  25:Service/../MAVLink/common/../mavlink_helpers.h **** }
 722              		.loc 2 25 2 is_stmt 0 view .LVU230
 723              	.LBE39:
 724              	.LBE38:
  83:Service/../MAVLink/common/../mavlink_helpers.h **** 	mavlink_get_channel_status(chan)->current_tx_seq = mavlink_get_channel_status(chan)->current_tx_se
 725              		.loc 2 83 45 view .LVU231
 726 0114 334B     		ldr	r3, .L41+4
 727 0116 0EEB4E02 		add	r2, lr, lr, lsl #1
 728 011a 03EB8202 		add	r2, r3, r2, lsl #2
 729 011e 9279     		ldrb	r2, [r2, #6]	@ zero_extendqisi2
  83:Service/../MAVLink/common/../mavlink_helpers.h **** 	mavlink_get_channel_status(chan)->current_tx_seq = mavlink_get_channel_status(chan)->current_tx_se
 730              		.loc 2 83 11 view .LVU232
 731 0120 2271     		strb	r2, [r4, #4]
  84:Service/../MAVLink/common/../mavlink_helpers.h **** 	msg->checksum = crc_calculate(((const uint8_t*)(msg)) + 3, MAVLINK_CORE_HEADER_LEN);
 732              		.loc 2 84 2 is_stmt 1 view .LVU233
 733              	.LVL44:
 734              	.LBB40:
 735              	.LBI40:
  17:Service/../MAVLink/common/../mavlink_helpers.h **** {
 736              		.loc 2 17 34 view .LVU234
 737              	.LBE40:
 738              	.LBE37:
 739              	.LBE36:
 740              	.LBE35:
 741              	.LBE34:
  23:Service/../MAVLink/common/../mavlink_helpers.h **** #endif
 742              		.loc 2 23 2 view .LVU235
  25:Service/../MAVLink/common/../mavlink_helpers.h **** }
 743              		.loc 2 25 2 view .LVU236
 744              	.LBB60:
 745              	.LBB58:
 746              	.LBB56:
 747              	.LBB54:
 748              	.LBB41:
 749              	.LBI41:
  17:Service/../MAVLink/common/../mavlink_helpers.h **** {
 750              		.loc 2 17 34 view .LVU237
 751              	.LBE41:
 752              	.LBE54:
 753              	.LBE56:
 754              	.LBE58:
 755              	.LBE60:
  23:Service/../MAVLink/common/../mavlink_helpers.h **** #endif
 756              		.loc 2 23 2 view .LVU238
  25:Service/../MAVLink/common/../mavlink_helpers.h **** }
 757              		.loc 2 25 2 view .LVU239
 758              	.LBB61:
 759              	.LBB59:
 760              	.LBB57:
 761              	.LBB55:
  84:Service/../MAVLink/common/../mavlink_helpers.h **** 	msg->checksum = crc_calculate(((const uint8_t*)(msg)) + 3, MAVLINK_CORE_HEADER_LEN);
 762              		.loc 2 84 101 is_stmt 0 view .LVU240
 763 0122 0132     		adds	r2, r2, #1
  84:Service/../MAVLink/common/../mavlink_helpers.h **** 	msg->checksum = crc_calculate(((const uint8_t*)(msg)) + 3, MAVLINK_CORE_HEADER_LEN);
 764              		.loc 2 84 51 view .LVU241
 765 0124 0EEB4E0E 		add	lr, lr, lr, lsl #1
ARM GAS  C:\Users\HUAV\AppData\Local\Temp\cceVDsRD.s 			page 27


 766              	.LVL45:
  84:Service/../MAVLink/common/../mavlink_helpers.h **** 	msg->checksum = crc_calculate(((const uint8_t*)(msg)) + 3, MAVLINK_CORE_HEADER_LEN);
 767              		.loc 2 84 51 view .LVU242
 768 0128 03EB8E0E 		add	lr, r3, lr, lsl #2
 769 012c 8EF80620 		strb	r2, [lr, #6]
  85:Service/../MAVLink/common/../mavlink_helpers.h **** 	crc_accumulate_buffer(&msg->checksum, _MAV_PAYLOAD(msg), msg->len);
 770              		.loc 2 85 2 is_stmt 1 view .LVU243
  85:Service/../MAVLink/common/../mavlink_helpers.h **** 	crc_accumulate_buffer(&msg->checksum, _MAV_PAYLOAD(msg), msg->len);
 771              		.loc 2 85 18 is_stmt 0 view .LVU244
 772 0130 E11C     		adds	r1, r4, #3
 773              	.LVL46:
 774              	.LBB42:
 775              	.LBI42:
 776              		.file 4 "Service/../MAVLink/common/../checksum.h"
   1:Service/../MAVLink/common/../checksum.h **** #ifdef __cplusplus
   2:Service/../MAVLink/common/../checksum.h **** extern "C" {
   3:Service/../MAVLink/common/../checksum.h **** #endif
   4:Service/../MAVLink/common/../checksum.h **** 
   5:Service/../MAVLink/common/../checksum.h **** #ifndef _CHECKSUM_H_
   6:Service/../MAVLink/common/../checksum.h **** #define _CHECKSUM_H_
   7:Service/../MAVLink/common/../checksum.h **** 
   8:Service/../MAVLink/common/../checksum.h **** // Visual Studio versions before 2010 don't have stdint.h, so we just error out.
   9:Service/../MAVLink/common/../checksum.h **** #if (defined _MSC_VER) && (_MSC_VER < 1600)
  10:Service/../MAVLink/common/../checksum.h **** #error "The C-MAVLink implementation requires Visual Studio 2010 or greater"
  11:Service/../MAVLink/common/../checksum.h **** #endif
  12:Service/../MAVLink/common/../checksum.h **** 
  13:Service/../MAVLink/common/../checksum.h **** #include <stdint.h>
  14:Service/../MAVLink/common/../checksum.h **** 
  15:Service/../MAVLink/common/../checksum.h **** /**
  16:Service/../MAVLink/common/../checksum.h ****  *
  17:Service/../MAVLink/common/../checksum.h ****  *  CALCULATE THE CHECKSUM
  18:Service/../MAVLink/common/../checksum.h ****  *
  19:Service/../MAVLink/common/../checksum.h ****  */
  20:Service/../MAVLink/common/../checksum.h **** 
  21:Service/../MAVLink/common/../checksum.h **** #define X25_INIT_CRC 0xffff
  22:Service/../MAVLink/common/../checksum.h **** #define X25_VALIDATE_CRC 0xf0b8
  23:Service/../MAVLink/common/../checksum.h **** 
  24:Service/../MAVLink/common/../checksum.h **** #ifndef HAVE_CRC_ACCUMULATE
  25:Service/../MAVLink/common/../checksum.h **** /**
  26:Service/../MAVLink/common/../checksum.h ****  * @brief Accumulate the MCRF4XX CRC16 by adding one char at a time.
  27:Service/../MAVLink/common/../checksum.h ****  *
  28:Service/../MAVLink/common/../checksum.h ****  * The checksum function adds the hash of one char at a time to the
  29:Service/../MAVLink/common/../checksum.h ****  * 16 bit checksum (uint16_t).
  30:Service/../MAVLink/common/../checksum.h ****  *
  31:Service/../MAVLink/common/../checksum.h ****  * @param data new char to hash
  32:Service/../MAVLink/common/../checksum.h ****  * @param crcAccum the already accumulated checksum
  33:Service/../MAVLink/common/../checksum.h ****  **/
  34:Service/../MAVLink/common/../checksum.h **** static inline void crc_accumulate(uint8_t data, uint16_t *crcAccum)
  35:Service/../MAVLink/common/../checksum.h **** {
  36:Service/../MAVLink/common/../checksum.h ****         /*Accumulate one byte of data into the CRC*/
  37:Service/../MAVLink/common/../checksum.h ****         uint8_t tmp;
  38:Service/../MAVLink/common/../checksum.h **** 
  39:Service/../MAVLink/common/../checksum.h ****         tmp = data ^ (uint8_t)(*crcAccum &0xff);
  40:Service/../MAVLink/common/../checksum.h ****         tmp ^= (tmp<<4);
  41:Service/../MAVLink/common/../checksum.h ****         *crcAccum = (*crcAccum>>8) ^ (tmp<<8) ^ (tmp <<3) ^ (tmp>>4);
  42:Service/../MAVLink/common/../checksum.h **** }
  43:Service/../MAVLink/common/../checksum.h **** #endif
ARM GAS  C:\Users\HUAV\AppData\Local\Temp\cceVDsRD.s 			page 28


  44:Service/../MAVLink/common/../checksum.h **** 
  45:Service/../MAVLink/common/../checksum.h **** 
  46:Service/../MAVLink/common/../checksum.h **** /**
  47:Service/../MAVLink/common/../checksum.h ****  * @brief Initialize the buffer for the MCRF4XX CRC16
  48:Service/../MAVLink/common/../checksum.h ****  *
  49:Service/../MAVLink/common/../checksum.h ****  * @param crcAccum the 16 bit MCRF4XX CRC16
  50:Service/../MAVLink/common/../checksum.h ****  */
  51:Service/../MAVLink/common/../checksum.h **** static inline void crc_init(uint16_t* crcAccum)
  52:Service/../MAVLink/common/../checksum.h **** {
  53:Service/../MAVLink/common/../checksum.h ****         *crcAccum = X25_INIT_CRC;
  54:Service/../MAVLink/common/../checksum.h **** }
  55:Service/../MAVLink/common/../checksum.h **** 
  56:Service/../MAVLink/common/../checksum.h **** 
  57:Service/../MAVLink/common/../checksum.h **** /**
  58:Service/../MAVLink/common/../checksum.h ****  * @brief Calculates the MCRF4XX CRC16 checksum on a byte buffer
  59:Service/../MAVLink/common/../checksum.h ****  *
  60:Service/../MAVLink/common/../checksum.h ****  * @param  pBuffer buffer containing the byte array to hash
  61:Service/../MAVLink/common/../checksum.h ****  * @param  length  length of the byte array
  62:Service/../MAVLink/common/../checksum.h ****  * @return the checksum over the buffer bytes
  63:Service/../MAVLink/common/../checksum.h ****  **/
  64:Service/../MAVLink/common/../checksum.h **** static inline uint16_t crc_calculate(const uint8_t* pBuffer, uint16_t length)
 777              		.loc 4 64 24 is_stmt 1 view .LVU245
 778              	.LBB43:
  65:Service/../MAVLink/common/../checksum.h **** {
  66:Service/../MAVLink/common/../checksum.h ****         uint16_t crcTmp;
 779              		.loc 4 66 9 view .LVU246
  67:Service/../MAVLink/common/../checksum.h ****         crc_init(&crcTmp);
 780              		.loc 4 67 9 view .LVU247
 781              	.LBB44:
 782              	.LBI44:
  51:Service/../MAVLink/common/../checksum.h **** {
 783              		.loc 4 51 20 view .LVU248
 784              	.LBB45:
  53:Service/../MAVLink/common/../checksum.h **** }
 785              		.loc 4 53 9 view .LVU249
  53:Service/../MAVLink/common/../checksum.h **** }
 786              		.loc 4 53 19 is_stmt 0 view .LVU250
 787 0132 4FF6FF73 		movw	r3, #65535
  54:Service/../MAVLink/common/../checksum.h **** 
 788              		.loc 4 54 1 view .LVU251
 789 0136 0522     		movs	r2, #5
 790 0138 12E0     		b	.L36
 791              	.LVL47:
 792              	.L37:
  54:Service/../MAVLink/common/../checksum.h **** 
 793              		.loc 4 54 1 view .LVU252
 794              	.LBE45:
 795              	.LBE44:
  68:Service/../MAVLink/common/../checksum.h **** 	while (length--) {
  69:Service/../MAVLink/common/../checksum.h ****                 crc_accumulate(*pBuffer++, &crcTmp);
 796              		.loc 4 69 17 is_stmt 1 view .LVU253
 797              		.loc 4 69 17 is_stmt 0 view .LVU254
 798 013a 11F8012B 		ldrb	r2, [r1], #1	@ zero_extendqisi2
 799              	.LVL48:
 800              	.LBB46:
 801              	.LBI46:
  34:Service/../MAVLink/common/../checksum.h **** {
ARM GAS  C:\Users\HUAV\AppData\Local\Temp\cceVDsRD.s 			page 29


 802              		.loc 4 34 20 is_stmt 1 view .LVU255
 803              	.LBB47:
  37:Service/../MAVLink/common/../checksum.h **** 
 804              		.loc 4 37 9 view .LVU256
  39:Service/../MAVLink/common/../checksum.h ****         tmp ^= (tmp<<4);
 805              		.loc 4 39 9 view .LVU257
  39:Service/../MAVLink/common/../checksum.h ****         tmp ^= (tmp<<4);
 806              		.loc 4 39 22 is_stmt 0 view .LVU258
 807 013e 5FFA83FC 		uxtb	ip, r3
  39:Service/../MAVLink/common/../checksum.h ****         tmp ^= (tmp<<4);
 808              		.loc 4 39 13 view .LVU259
 809 0142 82EA0C02 		eor	r2, r2, ip
 810              	.LVL49:
  40:Service/../MAVLink/common/../checksum.h ****         *crcAccum = (*crcAccum>>8) ^ (tmp<<8) ^ (tmp <<3) ^ (tmp>>4);
 811              		.loc 4 40 9 is_stmt 1 view .LVU260
  40:Service/../MAVLink/common/../checksum.h ****         *crcAccum = (*crcAccum>>8) ^ (tmp<<8) ^ (tmp <<3) ^ (tmp>>4);
 812              		.loc 4 40 13 is_stmt 0 view .LVU261
 813 0146 82EA0212 		eor	r2, r2, r2, lsl #4
 814              	.LVL50:
  40:Service/../MAVLink/common/../checksum.h ****         *crcAccum = (*crcAccum>>8) ^ (tmp<<8) ^ (tmp <<3) ^ (tmp>>4);
 815              		.loc 4 40 13 view .LVU262
 816 014a D2B2     		uxtb	r2, r2
 817              	.LVL51:
  41:Service/../MAVLink/common/../checksum.h **** }
 818              		.loc 4 41 9 is_stmt 1 view .LVU263
  41:Service/../MAVLink/common/../checksum.h **** }
 819              		.loc 4 41 36 is_stmt 0 view .LVU264
 820 014c 1B0A     		lsrs	r3, r3, #8
 821              	.LVL52:
  41:Service/../MAVLink/common/../checksum.h **** }
 822              		.loc 4 41 36 view .LVU265
 823 014e 43EA0223 		orr	r3, r3, r2, lsl #8
 824 0152 1BB2     		sxth	r3, r3
  41:Service/../MAVLink/common/../checksum.h **** }
 825              		.loc 4 41 47 view .LVU266
 826 0154 83EAC203 		eor	r3, r3, r2, lsl #3
  41:Service/../MAVLink/common/../checksum.h **** }
 827              		.loc 4 41 59 view .LVU267
 828 0158 83EA1213 		eor	r3, r3, r2, lsr #4
 829 015c 9BB2     		uxth	r3, r3
 830              	.LVL53:
  41:Service/../MAVLink/common/../checksum.h **** }
 831              		.loc 4 41 59 view .LVU268
 832              	.LBE47:
 833              	.LBE46:
  68:Service/../MAVLink/common/../checksum.h ****                 crc_accumulate(*pBuffer++, &crcTmp);
 834              		.loc 4 68 15 view .LVU269
 835 015e 0246     		mov	r2, r0
 836              	.LVL54:
 837              	.L36:
  68:Service/../MAVLink/common/../checksum.h ****                 crc_accumulate(*pBuffer++, &crcTmp);
 838              		.loc 4 68 8 is_stmt 1 view .LVU270
  68:Service/../MAVLink/common/../checksum.h ****                 crc_accumulate(*pBuffer++, &crcTmp);
 839              		.loc 4 68 15 is_stmt 0 view .LVU271
 840 0160 501E     		subs	r0, r2, #1
 841 0162 80B2     		uxth	r0, r0
 842              	.LVL55:
ARM GAS  C:\Users\HUAV\AppData\Local\Temp\cceVDsRD.s 			page 30


  68:Service/../MAVLink/common/../checksum.h ****                 crc_accumulate(*pBuffer++, &crcTmp);
 843              		.loc 4 68 8 view .LVU272
 844 0164 002A     		cmp	r2, #0
 845 0166 E8D1     		bne	.L37
  70:Service/../MAVLink/common/../checksum.h ****         }
  71:Service/../MAVLink/common/../checksum.h ****         return crcTmp;
 846              		.loc 4 71 9 is_stmt 1 view .LVU273
 847              	.LVL56:
 848              		.loc 4 71 9 is_stmt 0 view .LVU274
 849              	.LBE43:
 850              	.LBE42:
  85:Service/../MAVLink/common/../mavlink_helpers.h **** 	crc_accumulate_buffer(&msg->checksum, _MAV_PAYLOAD(msg), msg->len);
 851              		.loc 2 85 16 view .LVU275
 852 0168 2046     		mov	r0, r4
 853 016a 20F8083B 		strh	r3, [r0], #8	@ unaligned
  86:Service/../MAVLink/common/../mavlink_helpers.h **** #if MAVLINK_CRC_EXTRA
 854              		.loc 2 86 2 is_stmt 1 view .LVU276
 855 016e E378     		ldrb	r3, [r4, #3]	@ zero_extendqisi2
 856              	.LVL57:
 857              	.LBB48:
 858              	.LBI48:
  72:Service/../MAVLink/common/../checksum.h **** }
  73:Service/../MAVLink/common/../checksum.h **** 
  74:Service/../MAVLink/common/../checksum.h **** 
  75:Service/../MAVLink/common/../checksum.h **** /**
  76:Service/../MAVLink/common/../checksum.h ****  * @brief Accumulate the MCRF4XX CRC16 CRC by adding an array of bytes
  77:Service/../MAVLink/common/../checksum.h ****  *
  78:Service/../MAVLink/common/../checksum.h ****  * The checksum function adds the hash of one char at a time to the
  79:Service/../MAVLink/common/../checksum.h ****  * 16 bit checksum (uint16_t).
  80:Service/../MAVLink/common/../checksum.h ****  *
  81:Service/../MAVLink/common/../checksum.h ****  * @param data new bytes to hash
  82:Service/../MAVLink/common/../checksum.h ****  * @param crcAccum the already accumulated checksum
  83:Service/../MAVLink/common/../checksum.h ****  **/
  84:Service/../MAVLink/common/../checksum.h **** static inline void crc_accumulate_buffer(uint16_t *crcAccum, const char *pBuffer, uint16_t length)
 859              		.loc 4 84 20 view .LVU277
 860              	.LBB49:
  85:Service/../MAVLink/common/../checksum.h **** {
  86:Service/../MAVLink/common/../checksum.h **** 	const uint8_t *p = (const uint8_t *)pBuffer;
 861              		.loc 4 86 17 is_stmt 0 view .LVU278
 862 0170 0146     		mov	r1, r0
 863 0172 13E0     		b	.L38
 864              	.LVL58:
 865              	.L39:
  87:Service/../MAVLink/common/../checksum.h **** 	while (length--) {
  88:Service/../MAVLink/common/../checksum.h ****                 crc_accumulate(*p++, crcAccum);
 866              		.loc 4 88 17 is_stmt 1 view .LVU279
 867              		.loc 4 88 17 is_stmt 0 view .LVU280
 868 0174 11F8012B 		ldrb	r2, [r1], #1	@ zero_extendqisi2
 869              	.LVL59:
 870              	.LBB50:
 871              	.LBI50:
  34:Service/../MAVLink/common/../checksum.h **** {
 872              		.loc 4 34 20 is_stmt 1 view .LVU281
 873              	.LBB51:
  37:Service/../MAVLink/common/../checksum.h **** 
 874              		.loc 4 37 9 view .LVU282
  39:Service/../MAVLink/common/../checksum.h ****         tmp ^= (tmp<<4);
ARM GAS  C:\Users\HUAV\AppData\Local\Temp\cceVDsRD.s 			page 31


 875              		.loc 4 39 9 view .LVU283
  39:Service/../MAVLink/common/../checksum.h ****         tmp ^= (tmp<<4);
 876              		.loc 4 39 32 is_stmt 0 view .LVU284
 877 0178 2388     		ldrh	r3, [r4]
  39:Service/../MAVLink/common/../checksum.h ****         tmp ^= (tmp<<4);
 878              		.loc 4 39 22 view .LVU285
 879 017a 5FFA83FE 		uxtb	lr, r3
  39:Service/../MAVLink/common/../checksum.h ****         tmp ^= (tmp<<4);
 880              		.loc 4 39 13 view .LVU286
 881 017e 82EA0E02 		eor	r2, r2, lr
 882              	.LVL60:
  40:Service/../MAVLink/common/../checksum.h ****         *crcAccum = (*crcAccum>>8) ^ (tmp<<8) ^ (tmp <<3) ^ (tmp>>4);
 883              		.loc 4 40 9 is_stmt 1 view .LVU287
  40:Service/../MAVLink/common/../checksum.h ****         *crcAccum = (*crcAccum>>8) ^ (tmp<<8) ^ (tmp <<3) ^ (tmp>>4);
 884              		.loc 4 40 13 is_stmt 0 view .LVU288
 885 0182 82EA0212 		eor	r2, r2, r2, lsl #4
 886              	.LVL61:
  40:Service/../MAVLink/common/../checksum.h ****         *crcAccum = (*crcAccum>>8) ^ (tmp<<8) ^ (tmp <<3) ^ (tmp>>4);
 887              		.loc 4 40 13 view .LVU289
 888 0186 D2B2     		uxtb	r2, r2
 889              	.LVL62:
  41:Service/../MAVLink/common/../checksum.h **** }
 890              		.loc 4 41 9 is_stmt 1 view .LVU290
  41:Service/../MAVLink/common/../checksum.h **** }
 891              		.loc 4 41 36 is_stmt 0 view .LVU291
 892 0188 1B0A     		lsrs	r3, r3, #8
 893 018a 43EA0223 		orr	r3, r3, r2, lsl #8
 894 018e 1BB2     		sxth	r3, r3
  41:Service/../MAVLink/common/../checksum.h **** }
 895              		.loc 4 41 47 view .LVU292
 896 0190 83EAC203 		eor	r3, r3, r2, lsl #3
  41:Service/../MAVLink/common/../checksum.h **** }
 897              		.loc 4 41 59 view .LVU293
 898 0194 83EA1213 		eor	r3, r3, r2, lsr #4
  41:Service/../MAVLink/common/../checksum.h **** }
 899              		.loc 4 41 19 view .LVU294
 900 0198 2380     		strh	r3, [r4]	@ movhi
 901              	.LVL63:
  41:Service/../MAVLink/common/../checksum.h **** }
 902              		.loc 4 41 19 view .LVU295
 903              	.LBE51:
 904              	.LBE50:
  87:Service/../MAVLink/common/../checksum.h ****                 crc_accumulate(*p++, crcAccum);
 905              		.loc 4 87 15 view .LVU296
 906 019a 6346     		mov	r3, ip
 907              	.LVL64:
 908              	.L38:
  87:Service/../MAVLink/common/../checksum.h ****                 crc_accumulate(*p++, crcAccum);
 909              		.loc 4 87 8 is_stmt 1 view .LVU297
  87:Service/../MAVLink/common/../checksum.h ****                 crc_accumulate(*p++, crcAccum);
 910              		.loc 4 87 15 is_stmt 0 view .LVU298
 911 019c 03F1FF3C 		add	ip, r3, #-1
 912 01a0 1FFA8CFC 		uxth	ip, ip
 913              	.LVL65:
  87:Service/../MAVLink/common/../checksum.h ****                 crc_accumulate(*p++, crcAccum);
 914              		.loc 4 87 8 view .LVU299
 915 01a4 002B     		cmp	r3, #0
ARM GAS  C:\Users\HUAV\AppData\Local\Temp\cceVDsRD.s 			page 32


 916 01a6 E5D1     		bne	.L39
 917              	.LVL66:
  87:Service/../MAVLink/common/../checksum.h ****                 crc_accumulate(*p++, crcAccum);
 918              		.loc 4 87 8 view .LVU300
 919              	.LBE49:
 920              	.LBE48:
  88:Service/../MAVLink/common/../mavlink_helpers.h **** #endif
 921              		.loc 2 88 2 is_stmt 1 view .LVU301
 922              	.LBB52:
 923              	.LBI52:
  34:Service/../MAVLink/common/../checksum.h **** {
 924              		.loc 4 34 20 view .LVU302
 925              	.LBB53:
  37:Service/../MAVLink/common/../checksum.h **** 
 926              		.loc 4 37 9 view .LVU303
  39:Service/../MAVLink/common/../checksum.h ****         tmp ^= (tmp<<4);
 927              		.loc 4 39 9 view .LVU304
  39:Service/../MAVLink/common/../checksum.h ****         tmp ^= (tmp<<4);
 928              		.loc 4 39 32 is_stmt 0 view .LVU305
 929 01a8 2388     		ldrh	r3, [r4]
  39:Service/../MAVLink/common/../checksum.h ****         tmp ^= (tmp<<4);
 930              		.loc 4 39 22 view .LVU306
 931 01aa DAB2     		uxtb	r2, r3
  39:Service/../MAVLink/common/../checksum.h ****         tmp ^= (tmp<<4);
 932              		.loc 4 39 13 view .LVU307
 933 01ac 82F0AA02 		eor	r2, r2, #170
 934              	.LVL67:
  40:Service/../MAVLink/common/../checksum.h ****         *crcAccum = (*crcAccum>>8) ^ (tmp<<8) ^ (tmp <<3) ^ (tmp>>4);
 935              		.loc 4 40 9 is_stmt 1 view .LVU308
  40:Service/../MAVLink/common/../checksum.h ****         *crcAccum = (*crcAccum>>8) ^ (tmp<<8) ^ (tmp <<3) ^ (tmp>>4);
 936              		.loc 4 40 13 is_stmt 0 view .LVU309
 937 01b0 82EA0212 		eor	r2, r2, r2, lsl #4
 938              	.LVL68:
  40:Service/../MAVLink/common/../checksum.h ****         *crcAccum = (*crcAccum>>8) ^ (tmp<<8) ^ (tmp <<3) ^ (tmp>>4);
 939              		.loc 4 40 13 view .LVU310
 940 01b4 D2B2     		uxtb	r2, r2
 941              	.LVL69:
  41:Service/../MAVLink/common/../checksum.h **** }
 942              		.loc 4 41 9 is_stmt 1 view .LVU311
  41:Service/../MAVLink/common/../checksum.h **** }
 943              		.loc 4 41 36 is_stmt 0 view .LVU312
 944 01b6 1B0A     		lsrs	r3, r3, #8
 945 01b8 43EA0223 		orr	r3, r3, r2, lsl #8
 946 01bc 1BB2     		sxth	r3, r3
  41:Service/../MAVLink/common/../checksum.h **** }
 947              		.loc 4 41 47 view .LVU313
 948 01be 83EAC203 		eor	r3, r3, r2, lsl #3
  41:Service/../MAVLink/common/../checksum.h **** }
 949              		.loc 4 41 59 view .LVU314
 950 01c2 83EA1213 		eor	r3, r3, r2, lsr #4
  41:Service/../MAVLink/common/../checksum.h **** }
 951              		.loc 4 41 19 view .LVU315
 952 01c6 2380     		strh	r3, [r4]	@ movhi
 953              	.LVL70:
  41:Service/../MAVLink/common/../checksum.h **** }
 954              		.loc 4 41 19 view .LVU316
 955              	.LBE53:
ARM GAS  C:\Users\HUAV\AppData\Local\Temp\cceVDsRD.s 			page 33


 956              	.LBE52:
  90:Service/../MAVLink/common/../mavlink_helpers.h **** 	mavlink_ck_b(msg) = (uint8_t)(msg->checksum >> 8);
 957              		.loc 2 90 2 is_stmt 1 view .LVU317
  90:Service/../MAVLink/common/../mavlink_helpers.h **** 	mavlink_ck_b(msg) = (uint8_t)(msg->checksum >> 8);
 958              		.loc 2 90 35 is_stmt 0 view .LVU318
 959 01c8 2288     		ldrh	r2, [r4]	@ unaligned
  90:Service/../MAVLink/common/../mavlink_helpers.h **** 	mavlink_ck_b(msg) = (uint8_t)(msg->checksum >> 8);
 960              		.loc 2 90 2 view .LVU319
 961 01ca E378     		ldrb	r3, [r4, #3]	@ zero_extendqisi2
  90:Service/../MAVLink/common/../mavlink_helpers.h **** 	mavlink_ck_b(msg) = (uint8_t)(msg->checksum >> 8);
 962              		.loc 2 90 20 view .LVU320
 963 01cc C254     		strb	r2, [r0, r3]
  91:Service/../MAVLink/common/../mavlink_helpers.h **** 
 964              		.loc 2 91 2 is_stmt 1 view .LVU321
  91:Service/../MAVLink/common/../mavlink_helpers.h **** 
 965              		.loc 2 91 35 is_stmt 0 view .LVU322
 966 01ce 2288     		ldrh	r2, [r4]	@ unaligned
  91:Service/../MAVLink/common/../mavlink_helpers.h **** 
 967              		.loc 2 91 2 view .LVU323
 968 01d0 E378     		ldrb	r3, [r4, #3]	@ zero_extendqisi2
 969 01d2 0133     		adds	r3, r3, #1
  91:Service/../MAVLink/common/../mavlink_helpers.h **** 
 970              		.loc 2 91 22 view .LVU324
 971 01d4 120A     		lsrs	r2, r2, #8
  91:Service/../MAVLink/common/../mavlink_helpers.h **** 
 972              		.loc 2 91 20 view .LVU325
 973 01d6 C254     		strb	r2, [r0, r3]
  93:Service/../MAVLink/common/../mavlink_helpers.h **** }
 974              		.loc 2 93 2 is_stmt 1 view .LVU326
 975              	.LVL71:
  93:Service/../MAVLink/common/../mavlink_helpers.h **** }
 976              		.loc 2 93 2 is_stmt 0 view .LVU327
 977              	.LBE55:
 978              	.LBE57:
 979              	.LBE59:
 980              	.LBE61:
 240:Service/Srv_ComProto.c ****                                             pck->pck_info.component_id,
 241:Service/Srv_ComProto.c ****                                             pck->pck_info.chan, pck->msg_obj,
 242:Service/Srv_ComProto.c ****                                             time_stamp,
 243:Service/Srv_ComProto.c ****                                             i_acc_x, i_acc_y, i_acc_z,
 244:Service/Srv_ComProto.c ****                                             i_gyr_x, i_gyr_y, i_gyr_z,
 245:Service/Srv_ComProto.c ****                                             0, 0, 0);
 246:Service/Srv_ComProto.c **** }
 981              		.loc 1 246 1 view .LVU328
 982 01d8 1E20     		movs	r0, #30
 983 01da 1BB0     		add	sp, sp, #108
 984              	.LCFI13:
 985              		.cfi_def_cfa_offset 20
 986              		@ sp needed
 987 01dc F0BD     		pop	{r4, r5, r6, r7, pc}
 988              	.L42:
 989 01de 00BF     		.align	2
 990              	.L41:
 991 01e0 00000000 		.word	SrvDataHub
 992 01e4 00000000 		.word	.LANCHOR1
 993              		.cfi_endproc
 994              	.LFE2007:
ARM GAS  C:\Users\HUAV\AppData\Local\Temp\cceVDsRD.s 			page 34


 996              		.global	SrvComProto
 997              		.global	SrvComProto_monitor
 998              		.section	.bss.SrvComProto_monitor,"aw",%nobits
 999              		.align	2
 1000              		.set	.LANCHOR0,. + 0
 1003              	SrvComProto_monitor:
 1004 0000 0000     		.space	2
 1005              		.section	.bss.m_mavlink_status.0,"aw",%nobits
 1006              		.align	2
 1007              		.set	.LANCHOR1,. + 0
 1010              	m_mavlink_status.0:
 1011 0000 00000000 		.space	48
 1011      00000000 
 1011      00000000 
 1011      00000000 
 1011      00000000 
 1012              		.section	.data.SrvComProto,"aw"
 1013              		.align	2
 1016              	SrvComProto:
 1017 0000 00000000 		.word	Srv_ComProto_Init
 1018 0004 00000000 		.word	Srv_ComProto_GetType
 1019 0008 00000000 		.space	4
 1020 000c 00000000 		.word	Srv_ComProto_MsgObj_Init
 1021 0010 00000000 		.word	SrvComProto_MsgEnable_Control
 1022 0014 00000000 		.word	SrvComProto_MsgToStream
 1023              		.text
 1024              	.Letext0:
 1025              		.file 5 "d:\\software\\zephyr_env_gcc\\gcc-arm-none-eabi-10-2020-q4-major\\arm-none-eabi\\include\
 1026              		.file 6 "d:\\software\\zephyr_env_gcc\\gcc-arm-none-eabi-10-2020-q4-major\\arm-none-eabi\\include\
 1027              		.file 7 "Service/../System/runtime/runtime.h"
 1028              		.file 8 "Service/../MAVLink/common/../mavlink_types.h"
 1029              		.file 9 "Service/Srv_ComProto.h"
 1030              		.file 10 "Device/Dev_Dshot.h"
 1031              		.file 11 "Service/imu_data.h"
 1032              		.file 12 "Service/Srv_DataHub.h"
 1033              		.file 13 "System/mmu/mmu.h"
 1034              		.file 14 "<built-in>"
ARM GAS  C:\Users\HUAV\AppData\Local\Temp\cceVDsRD.s 			page 35


DEFINED SYMBOLS
                            *ABS*:00000000 Srv_ComProto.c
C:\Users\HUAV\AppData\Local\Temp\cceVDsRD.s:17     .text.Srv_ComProto_GetType:00000000 $t
C:\Users\HUAV\AppData\Local\Temp\cceVDsRD.s:24     .text.Srv_ComProto_GetType:00000000 Srv_ComProto_GetType
C:\Users\HUAV\AppData\Local\Temp\cceVDsRD.s:40     .text.Srv_ComProto_GetType:00000008 $d
C:\Users\HUAV\AppData\Local\Temp\cceVDsRD.s:45     .text.SrvComProto_MsgEnable_Control:00000000 $t
C:\Users\HUAV\AppData\Local\Temp\cceVDsRD.s:51     .text.SrvComProto_MsgEnable_Control:00000000 SrvComProto_MsgEnable_Control
C:\Users\HUAV\AppData\Local\Temp\cceVDsRD.s:82     .text.SrvComProto_MsgToStream:00000000 $t
C:\Users\HUAV\AppData\Local\Temp\cceVDsRD.s:88     .text.SrvComProto_MsgToStream:00000000 SrvComProto_MsgToStream
C:\Users\HUAV\AppData\Local\Temp\cceVDsRD.s:268    .text.Srv_ComProto_MsgObj_Init:00000000 $t
C:\Users\HUAV\AppData\Local\Temp\cceVDsRD.s:274    .text.Srv_ComProto_MsgObj_Init:00000000 Srv_ComProto_MsgObj_Init
C:\Users\HUAV\AppData\Local\Temp\cceVDsRD.s:410    .text.Srv_ComProto_MsgObj_Init:00000084 $d
C:\Users\HUAV\AppData\Local\Temp\cceVDsRD.s:490    .text.SrvComProto_MavMsg_Raw_IMU:00000000 SrvComProto_MavMsg_Raw_IMU
C:\Users\HUAV\AppData\Local\Temp\cceVDsRD.s:415    .text.Srv_ComProto_Init:00000000 $t
C:\Users\HUAV\AppData\Local\Temp\cceVDsRD.s:421    .text.Srv_ComProto_Init:00000000 Srv_ComProto_Init
C:\Users\HUAV\AppData\Local\Temp\cceVDsRD.s:478    .text.Srv_ComProto_Init:00000024 $d
C:\Users\HUAV\AppData\Local\Temp\cceVDsRD.s:484    .text.SrvComProto_MavMsg_Raw_IMU:00000000 $t
C:\Users\HUAV\AppData\Local\Temp\cceVDsRD.s:991    .text.SrvComProto_MavMsg_Raw_IMU:000001e0 $d
C:\Users\HUAV\AppData\Local\Temp\cceVDsRD.s:1016   .data.SrvComProto:00000000 SrvComProto
C:\Users\HUAV\AppData\Local\Temp\cceVDsRD.s:1003   .bss.SrvComProto_monitor:00000000 SrvComProto_monitor
C:\Users\HUAV\AppData\Local\Temp\cceVDsRD.s:999    .bss.SrvComProto_monitor:00000000 $d
C:\Users\HUAV\AppData\Local\Temp\cceVDsRD.s:1006   .bss.m_mavlink_status.0:00000000 $d
C:\Users\HUAV\AppData\Local\Temp\cceVDsRD.s:1010   .bss.m_mavlink_status.0:00000000 m_mavlink_status.0
C:\Users\HUAV\AppData\Local\Temp\cceVDsRD.s:1013   .data.SrvComProto:00000000 $d

UNDEFINED SYMBOLS
Get_CurrentRunningMs
memcpy
MMU_Malloc
memset
MMU_Free
SrvDataHub
