ARM GAS  /var/folders/lx/hc4sn_b53233_zkc9xbbl97r0000gp/T//ccCP9Y0e.s 			page 1


   1              		.cpu cortex-m7
   2              		.eabi_attribute 28, 1
   3              		.eabi_attribute 20, 1
   4              		.eabi_attribute 21, 1
   5              		.eabi_attribute 23, 3
   6              		.eabi_attribute 24, 1
   7              		.eabi_attribute 25, 1
   8              		.eabi_attribute 26, 1
   9              		.eabi_attribute 30, 1
  10              		.eabi_attribute 34, 1
  11              		.eabi_attribute 18, 4
  12              		.file	"Srv_Receiver.c"
  13              		.text
  14              	.Ltext0:
  15              		.cfi_sections	.debug_frame
  16              		.section	.text.SrvReceiver_Create_SPIObj,"ax",%progbits
  17              		.align	1
  18              		.arch armv7e-m
  19              		.syntax unified
  20              		.thumb
  21              		.thumb_func
  22              		.fpu fpv5-d16
  24              	SrvReceiver_Create_SPIObj:
  25              	.LFB148:
  26              		.file 1 "Service/Srv_Receiver.c"
   1:Service/Srv_Receiver.c **** #include "Srv_Receiver.h"
   2:Service/Srv_Receiver.c **** #include "Bsp_Uart.h"
   3:Service/Srv_Receiver.c **** #include "Bsp_SPI.h"
   4:Service/Srv_Receiver.c **** #include "Bsp_GPIO.h"
   5:Service/Srv_Receiver.c **** #include "error_log.h"
   6:Service/Srv_Receiver.c **** #include "IO_Definition.h"
   7:Service/Srv_Receiver.c **** #include "runtime.h"
   8:Service/Srv_Receiver.c **** #include "mmu.h"
   9:Service/Srv_Receiver.c **** 
  10:Service/Srv_Receiver.c **** static uint8_t SrvReceiver_Buff[SRV_RECEIVER_BUFF_SIZE];
  11:Service/Srv_Receiver.c **** 
  12:Service/Srv_Receiver.c **** static Error_Handler SrvReceiver_Error_Handle = NULL;
  13:Service/Srv_Receiver.c **** static SrvReceiver_Monitor_TypeDef SrvReceiver_Monitor;
  14:Service/Srv_Receiver.c **** 
  15:Service/Srv_Receiver.c **** /* internal function */
  16:Service/Srv_Receiver.c **** static void SrvReceiver_SerialDecode_Callback(SrvReceiverObj_TypeDef *obj, uint8_t *p_data, uint16_
  17:Service/Srv_Receiver.c **** static bool SrvReceiver_Check(SrvReceiverObj_TypeDef *receiver_obj);
  18:Service/Srv_Receiver.c **** static void SrvReceiver_Set_Invert(SrvReceiverObj_TypeDef *receiver_obj, uint16_t channel_index);
  19:Service/Srv_Receiver.c **** 
  20:Service/Srv_Receiver.c **** /* external function */
  21:Service/Srv_Receiver.c **** static uint8_t *SrvReceiver_Create_UartObj(uint32_t serial_instance,
  22:Service/Srv_Receiver.c ****                                            uint32_t rx_dma,
  23:Service/Srv_Receiver.c ****                                            uint32_t rx_dma_stream,
  24:Service/Srv_Receiver.c ****                                            uint32_t tx_dma,
  25:Service/Srv_Receiver.c ****                                            uint32_t tx_dma_stream,
  26:Service/Srv_Receiver.c ****                                            bool swap,
  27:Service/Srv_Receiver.c ****                                            const BspGPIO_Obj_TypeDef tx_pin,
  28:Service/Srv_Receiver.c ****                                            const BspGPIO_Obj_TypeDef rx_pin);
  29:Service/Srv_Receiver.c **** static uint8_t *SrvReceiver_Create_SPIObj(void);
  30:Service/Srv_Receiver.c **** static bool SrvReceiver_Init(SrvReceiverObj_TypeDef *obj, uint8_t *port_obj);
  31:Service/Srv_Receiver.c **** static SrvReceiverData_TypeDef SrvReceiver_Get_Value(SrvReceiverObj_TypeDef *receiver_obj);
  32:Service/Srv_Receiver.c **** 
ARM GAS  /var/folders/lx/hc4sn_b53233_zkc9xbbl97r0000gp/T//ccCP9Y0e.s 			page 2


  33:Service/Srv_Receiver.c **** SrvReceiver_TypeDef SrvReceiver = {
  34:Service/Srv_Receiver.c ****     .create_serial_obj = SrvReceiver_Create_UartObj,
  35:Service/Srv_Receiver.c ****     .create_spi_obj = SrvReceiver_Create_SPIObj,
  36:Service/Srv_Receiver.c ****     .init = SrvReceiver_Init,
  37:Service/Srv_Receiver.c ****     .get = SrvReceiver_Get_Value,
  38:Service/Srv_Receiver.c ****     .invert = SrvReceiver_Set_Invert,
  39:Service/Srv_Receiver.c **** };
  40:Service/Srv_Receiver.c **** 
  41:Service/Srv_Receiver.c **** static Error_Obj_Typedef SrvReceiver_ErrorList[] = {
  42:Service/Srv_Receiver.c ****     {
  43:Service/Srv_Receiver.c ****         .out = false,
  44:Service/Srv_Receiver.c ****         .log = false,
  45:Service/Srv_Receiver.c ****         .prc_callback = NULL,
  46:Service/Srv_Receiver.c ****         .code = Receiver_Obj_Error,
  47:Service/Srv_Receiver.c ****         .desc = "Receiver Object Input Error\r\n",
  48:Service/Srv_Receiver.c ****         .proc_type = Error_Proc_Ignore,
  49:Service/Srv_Receiver.c ****         .prc_data_stream = {
  50:Service/Srv_Receiver.c ****             .p_data = NULL,
  51:Service/Srv_Receiver.c ****             .size = 0,
  52:Service/Srv_Receiver.c ****         },
  53:Service/Srv_Receiver.c ****     },
  54:Service/Srv_Receiver.c ****     {
  55:Service/Srv_Receiver.c ****         .out = false,
  56:Service/Srv_Receiver.c ****         .log = false,
  57:Service/Srv_Receiver.c ****         .prc_callback = NULL,
  58:Service/Srv_Receiver.c ****         .code = Receiver_Port_Error,
  59:Service/Srv_Receiver.c ****         .desc = "Receiver Port Error\r\n",
  60:Service/Srv_Receiver.c ****         .proc_type = Error_Proc_Ignore,
  61:Service/Srv_Receiver.c ****         .prc_data_stream = {
  62:Service/Srv_Receiver.c ****             .p_data = NULL,
  63:Service/Srv_Receiver.c ****             .size = 0,
  64:Service/Srv_Receiver.c ****         },
  65:Service/Srv_Receiver.c ****     },
  66:Service/Srv_Receiver.c ****     {
  67:Service/Srv_Receiver.c ****         .out = false,
  68:Service/Srv_Receiver.c ****         .log = false,
  69:Service/Srv_Receiver.c ****         .prc_callback = NULL,
  70:Service/Srv_Receiver.c ****         .code = Receiver_Port_Init_Error,
  71:Service/Srv_Receiver.c ****         .desc = "Receiver Port Init Error\r\n",
  72:Service/Srv_Receiver.c ****         .proc_type = Error_Proc_Ignore,
  73:Service/Srv_Receiver.c ****         .prc_data_stream = {
  74:Service/Srv_Receiver.c ****             .p_data = NULL,
  75:Service/Srv_Receiver.c ****             .size = 0,
  76:Service/Srv_Receiver.c ****         },
  77:Service/Srv_Receiver.c ****     },
  78:Service/Srv_Receiver.c ****     {
  79:Service/Srv_Receiver.c ****         .out = false,
  80:Service/Srv_Receiver.c ****         .log = false,
  81:Service/Srv_Receiver.c ****         .prc_callback = NULL,
  82:Service/Srv_Receiver.c ****         .code = Receiver_FrameType_Error,
  83:Service/Srv_Receiver.c ****         .desc = "Receiver Frame Type Error\r\n",
  84:Service/Srv_Receiver.c ****         .proc_type = Error_Proc_Ignore,
  85:Service/Srv_Receiver.c ****         .prc_data_stream = {
  86:Service/Srv_Receiver.c ****             .p_data = NULL,
  87:Service/Srv_Receiver.c ****             .size = 0,
  88:Service/Srv_Receiver.c ****         },
  89:Service/Srv_Receiver.c ****     },
ARM GAS  /var/folders/lx/hc4sn_b53233_zkc9xbbl97r0000gp/T//ccCP9Y0e.s 			page 3


  90:Service/Srv_Receiver.c **** };
  91:Service/Srv_Receiver.c **** 
  92:Service/Srv_Receiver.c **** static uint8_t *SrvReceiver_Create_UartObj(uint32_t serial_instance,
  93:Service/Srv_Receiver.c ****                                            uint32_t rx_dma,
  94:Service/Srv_Receiver.c ****                                            uint32_t rx_dma_stream,
  95:Service/Srv_Receiver.c ****                                            uint32_t tx_dma,
  96:Service/Srv_Receiver.c ****                                            uint32_t tx_dma_stream,
  97:Service/Srv_Receiver.c ****                                            bool swap,
  98:Service/Srv_Receiver.c ****                                            const BspGPIO_Obj_TypeDef tx_pin,
  99:Service/Srv_Receiver.c ****                                            const BspGPIO_Obj_TypeDef rx_pin)
 100:Service/Srv_Receiver.c **** {
 101:Service/Srv_Receiver.c ****     BspUARTObj_TypeDef *Uart_Receiver_Obj = NULL;
 102:Service/Srv_Receiver.c **** 
 103:Service/Srv_Receiver.c ****     Uart_Receiver_Obj = (BspUARTObj_TypeDef *)MMU_Malloc(sizeof(BspUARTObj_TypeDef));
 104:Service/Srv_Receiver.c **** 
 105:Service/Srv_Receiver.c ****     if (Uart_Receiver_Obj == NULL)
 106:Service/Srv_Receiver.c ****     {
 107:Service/Srv_Receiver.c ****         MMU_Free(Uart_Receiver_Obj);
 108:Service/Srv_Receiver.c ****         return NULL;
 109:Service/Srv_Receiver.c ****     }
 110:Service/Srv_Receiver.c **** 
 111:Service/Srv_Receiver.c ****     memset(Uart_Receiver_Obj, 0, sizeof(BspUARTObj_TypeDef));
 112:Service/Srv_Receiver.c **** 
 113:Service/Srv_Receiver.c ****     Uart_Receiver_Obj->instance = serial_instance;
 114:Service/Srv_Receiver.c ****     Uart_Receiver_Obj->tx_io = tx_pin;
 115:Service/Srv_Receiver.c ****     Uart_Receiver_Obj->rx_io = rx_pin;
 116:Service/Srv_Receiver.c ****     Uart_Receiver_Obj->pin_swap = swap;
 117:Service/Srv_Receiver.c ****     Uart_Receiver_Obj->rx_dma = rx_dma;
 118:Service/Srv_Receiver.c ****     Uart_Receiver_Obj->rx_stream = rx_dma_stream;
 119:Service/Srv_Receiver.c ****     Uart_Receiver_Obj->tx_dma = tx_dma;
 120:Service/Srv_Receiver.c ****     Uart_Receiver_Obj->tx_stream = tx_dma_stream;
 121:Service/Srv_Receiver.c **** 
 122:Service/Srv_Receiver.c ****     return Uart_Receiver_Obj;
 123:Service/Srv_Receiver.c **** }
 124:Service/Srv_Receiver.c **** 
 125:Service/Srv_Receiver.c **** static uint8_t *SrvReceiver_Create_SPIObj(void)
 126:Service/Srv_Receiver.c **** {
  27              		.loc 1 126 1 view -0
  28              		.cfi_startproc
  29              		@ args = 0, pretend = 0, frame = 0
  30              		@ frame_needed = 0, uses_anonymous_args = 0
  31              		@ link register save eliminated.
 127:Service/Srv_Receiver.c **** }
  32              		.loc 1 127 1 view .LVU1
  33 0000 7047     		bx	lr
  34              		.cfi_endproc
  35              	.LFE148:
  37              		.section	.text.SrvReceiver_Set_Invert,"ax",%progbits
  38              		.align	1
  39              		.syntax unified
  40              		.thumb
  41              		.thumb_func
  42              		.fpu fpv5-d16
  44              	SrvReceiver_Set_Invert:
  45              	.LVL0:
  46              	.LFB152:
 128:Service/Srv_Receiver.c **** 
ARM GAS  /var/folders/lx/hc4sn_b53233_zkc9xbbl97r0000gp/T//ccCP9Y0e.s 			page 4


 129:Service/Srv_Receiver.c **** static bool SrvReceiver_Init(SrvReceiverObj_TypeDef *obj, uint8_t *port_obj)
 130:Service/Srv_Receiver.c **** {
 131:Service/Srv_Receiver.c ****     bool data_obj_error = false;
 132:Service/Srv_Receiver.c ****     BspUARTObj_TypeDef *Uart_Receiver_Obj = NULL;
 133:Service/Srv_Receiver.c **** 
 134:Service/Srv_Receiver.c ****     if ((obj == NULL) || (port_obj == NULL))
 135:Service/Srv_Receiver.c ****         return false;
 136:Service/Srv_Receiver.c **** 
 137:Service/Srv_Receiver.c ****     memset(SrvReceiver_Buff, NULL, SRV_RECEIVER_BUFF_SIZE);
 138:Service/Srv_Receiver.c **** 
 139:Service/Srv_Receiver.c ****     /* create error log handle */
 140:Service/Srv_Receiver.c ****     SrvReceiver_Error_Handle = ErrorLog.create("SrvReceiver_Error");
 141:Service/Srv_Receiver.c **** 
 142:Service/Srv_Receiver.c ****     /* regist all error to the error tree */
 143:Service/Srv_Receiver.c ****     ErrorLog.registe(SrvReceiver_Error_Handle, SrvReceiver_ErrorList, sizeof(SrvReceiver_ErrorList)
 144:Service/Srv_Receiver.c **** 
 145:Service/Srv_Receiver.c ****     switch (obj->port_type)
 146:Service/Srv_Receiver.c ****     {
 147:Service/Srv_Receiver.c ****     case Receiver_Port_Serial:
 148:Service/Srv_Receiver.c ****         Uart_Receiver_Obj = port_obj;
 149:Service/Srv_Receiver.c **** 
 150:Service/Srv_Receiver.c ****         memset(&SrvReceiver_Monitor, NULL, SRVRECEIVER_SIZE);
 151:Service/Srv_Receiver.c **** 
 152:Service/Srv_Receiver.c ****         switch (obj->Frame_type)
 153:Service/Srv_Receiver.c ****         {
 154:Service/Srv_Receiver.c ****         case Receiver_Type_Sbus:
 155:Service/Srv_Receiver.c ****             Uart_Receiver_Obj->baudrate = SBUS_BAUDRATE;
 156:Service/Srv_Receiver.c **** 
 157:Service/Srv_Receiver.c ****             /* create data obj */
 158:Service/Srv_Receiver.c ****             obj->frame_data_obj = MMU_Malloc(sizeof(DevSBUSObj_TypeDef));
 159:Service/Srv_Receiver.c ****             if (obj->frame_data_obj == NULL)
 160:Service/Srv_Receiver.c ****             {
 161:Service/Srv_Receiver.c ****                 data_obj_error = true;
 162:Service/Srv_Receiver.c ****                 break;
 163:Service/Srv_Receiver.c ****             }
 164:Service/Srv_Receiver.c **** 
 165:Service/Srv_Receiver.c ****             /* init inverter pin */
 166:Service/Srv_Receiver.c ****             // obj->inverter_init();
 167:Service/Srv_Receiver.c ****             // obj->invert_control();
 168:Service/Srv_Receiver.c **** 
 169:Service/Srv_Receiver.c ****             /* set max channel num */
 170:Service/Srv_Receiver.c ****             obj->channel_num = SBUS_MAX_CHANNEL;
 171:Service/Srv_Receiver.c **** 
 172:Service/Srv_Receiver.c ****             /* set receiver object frame object */
 173:Service/Srv_Receiver.c ****             obj->frame_api = &DevSBUS;
 174:Service/Srv_Receiver.c **** 
 175:Service/Srv_Receiver.c ****             if (!((DevSBUS_TypeDef *)(obj->frame_api))->init(obj->frame_data_obj))
 176:Service/Srv_Receiver.c ****                 return false;
 177:Service/Srv_Receiver.c ****             break;
 178:Service/Srv_Receiver.c **** 
 179:Service/Srv_Receiver.c ****         case Receiver_Type_CRSF:
 180:Service/Srv_Receiver.c ****             Uart_Receiver_Obj->baudrate = CRSF_BAUDRATE;
 181:Service/Srv_Receiver.c **** 
 182:Service/Srv_Receiver.c ****             /* create data obj */
 183:Service/Srv_Receiver.c ****             obj->frame_data_obj = MMU_Malloc(sizeof(DevCRSFObj_TypeDef));
 184:Service/Srv_Receiver.c ****             if (obj->frame_data_obj == NULL)
 185:Service/Srv_Receiver.c ****             {
ARM GAS  /var/folders/lx/hc4sn_b53233_zkc9xbbl97r0000gp/T//ccCP9Y0e.s 			page 5


 186:Service/Srv_Receiver.c ****                 data_obj_error = true;
 187:Service/Srv_Receiver.c ****                 break;
 188:Service/Srv_Receiver.c ****             }
 189:Service/Srv_Receiver.c **** 
 190:Service/Srv_Receiver.c ****             /* for crsf receiver we dont need inverter */
 191:Service/Srv_Receiver.c ****             obj->invert_control = NULL;
 192:Service/Srv_Receiver.c ****             obj->inverter_init = NULL;
 193:Service/Srv_Receiver.c **** 
 194:Service/Srv_Receiver.c ****             /* set max channel num */
 195:Service/Srv_Receiver.c ****             obj->channel_num = CRSF_MAX_CHANNEL;
 196:Service/Srv_Receiver.c **** 
 197:Service/Srv_Receiver.c ****             /* set receiver object frame object */
 198:Service/Srv_Receiver.c ****             obj->frame_api = &DevCRSF;
 199:Service/Srv_Receiver.c **** 
 200:Service/Srv_Receiver.c ****             if (!((DevCRSF_TypeDef *)(obj->frame_api))->init(obj->frame_data_obj))
 201:Service/Srv_Receiver.c ****                 return false;
 202:Service/Srv_Receiver.c ****             break;
 203:Service/Srv_Receiver.c **** 
 204:Service/Srv_Receiver.c ****         default:
 205:Service/Srv_Receiver.c ****             return false;
 206:Service/Srv_Receiver.c ****         }
 207:Service/Srv_Receiver.c **** 
 208:Service/Srv_Receiver.c ****         obj->data.val_list = (uint16_t *)MMU_Malloc(sizeof(uint16_t) * obj->channel_num);
 209:Service/Srv_Receiver.c ****         if (!obj->data.val_list)
 210:Service/Srv_Receiver.c ****         {
 211:Service/Srv_Receiver.c ****             MMU_Free(obj->data.val_list);
 212:Service/Srv_Receiver.c ****             return false;
 213:Service/Srv_Receiver.c ****         }
 214:Service/Srv_Receiver.c **** 
 215:Service/Srv_Receiver.c ****         if (data_obj_error)
 216:Service/Srv_Receiver.c ****         {
 217:Service/Srv_Receiver.c ****             ErrorLog.trigger(SrvReceiver_Error_Handle, Receiver_Obj_Error, &SrvReceiver_Monitor, SR
 218:Service/Srv_Receiver.c ****             return false;
 219:Service/Srv_Receiver.c ****         }
 220:Service/Srv_Receiver.c **** 
 221:Service/Srv_Receiver.c ****         /* set uart init parameter */
 222:Service/Srv_Receiver.c ****         Uart_Receiver_Obj->rx_buf = SrvReceiver_Buff;
 223:Service/Srv_Receiver.c ****         Uart_Receiver_Obj->rx_size = SRV_RECEIVER_BUFF_SIZE;
 224:Service/Srv_Receiver.c ****         Uart_Receiver_Obj->cust_data_addr = obj;
 225:Service/Srv_Receiver.c **** 
 226:Service/Srv_Receiver.c ****         /* set uart callback */
 227:Service/Srv_Receiver.c ****         Uart_Receiver_Obj->RxCallback = SrvReceiver_SerialDecode_Callback;
 228:Service/Srv_Receiver.c **** 
 229:Service/Srv_Receiver.c ****         /* serial port init */
 230:Service/Srv_Receiver.c ****         if (!BspUart.init(Uart_Receiver_Obj))
 231:Service/Srv_Receiver.c ****         {
 232:Service/Srv_Receiver.c ****             ErrorLog.trigger(SrvReceiver_Error_Handle, Receiver_Port_Init_Error, &SrvReceiver_Monit
 233:Service/Srv_Receiver.c ****             return false;
 234:Service/Srv_Receiver.c ****         }
 235:Service/Srv_Receiver.c **** 
 236:Service/Srv_Receiver.c ****         obj->port->api = &BspUart;
 237:Service/Srv_Receiver.c ****         obj->port->cfg = Uart_Receiver_Obj;
 238:Service/Srv_Receiver.c ****         break;
 239:Service/Srv_Receiver.c **** 
 240:Service/Srv_Receiver.c ****     case Receiver_Port_Spi:
 241:Service/Srv_Receiver.c ****         /* spi port init */
 242:Service/Srv_Receiver.c ****         break;
ARM GAS  /var/folders/lx/hc4sn_b53233_zkc9xbbl97r0000gp/T//ccCP9Y0e.s 			page 6


 243:Service/Srv_Receiver.c **** 
 244:Service/Srv_Receiver.c ****     default:
 245:Service/Srv_Receiver.c ****         ErrorLog.trigger(SrvReceiver_Error_Handle, Receiver_Obj_Error, &SrvReceiver_Monitor, SRVREC
 246:Service/Srv_Receiver.c ****         return false;
 247:Service/Srv_Receiver.c ****     }
 248:Service/Srv_Receiver.c **** 
 249:Service/Srv_Receiver.c ****     obj->invert_list = 0;
 250:Service/Srv_Receiver.c **** 
 251:Service/Srv_Receiver.c ****     return true;
 252:Service/Srv_Receiver.c **** }
 253:Service/Srv_Receiver.c **** 
 254:Service/Srv_Receiver.c **** static void SrvReceiver_SerialDecode_Callback(SrvReceiverObj_TypeDef *receiver_obj, uint8_t *p_data
 255:Service/Srv_Receiver.c **** {
 256:Service/Srv_Receiver.c ****     BspUARTObj_TypeDef *uart_obj = NULL;
 257:Service/Srv_Receiver.c ****     uint8_t *rx_buff_ptr = NULL;
 258:Service/Srv_Receiver.c ****     uint16_t rx_buff_size = 0;
 259:Service/Srv_Receiver.c ****     uint8_t decode_out = 0xFF;
 260:Service/Srv_Receiver.c **** 
 261:Service/Srv_Receiver.c ****     if (receiver_obj && receiver_obj->frame_api && receiver_obj->port && receiver_obj->frame_data_o
 262:Service/Srv_Receiver.c ****     {
 263:Service/Srv_Receiver.c ****         if (receiver_obj->port_type == Receiver_Port_Serial)
 264:Service/Srv_Receiver.c ****         {
 265:Service/Srv_Receiver.c ****             if (receiver_obj->in_use)
 266:Service/Srv_Receiver.c ****             {
 267:Service/Srv_Receiver.c ****                 receiver_obj->re_update = true;
 268:Service/Srv_Receiver.c ****             }
 269:Service/Srv_Receiver.c ****             else
 270:Service/Srv_Receiver.c ****                 receiver_obj->re_update = false;
 271:Service/Srv_Receiver.c **** 
 272:Service/Srv_Receiver.c ****             /* do serial decode funtion */
 273:Service/Srv_Receiver.c ****             if (receiver_obj->Frame_type == Receiver_Type_CRSF)
 274:Service/Srv_Receiver.c ****             {
 275:Service/Srv_Receiver.c ****                 crsf_channels_t crsf_frame_channel;
 276:Service/Srv_Receiver.c **** 
 277:Service/Srv_Receiver.c ****                 memset(&crsf_frame_channel, NULL, sizeof(crsf_frame_channel));
 278:Service/Srv_Receiver.c ****                 decode_out = ((DevCRSF_TypeDef *)(receiver_obj->frame_api))->decode(receiver_obj->f
 279:Service/Srv_Receiver.c **** 
 280:Service/Srv_Receiver.c ****                 switch (decode_out)
 281:Service/Srv_Receiver.c ****                 {
 282:Service/Srv_Receiver.c ****                 case CRSF_FRAMETYPE_LINK_STATISTICS:
 283:Service/Srv_Receiver.c ****                     receiver_obj->data.rssi = ((DevCRSF_TypeDef *)(receiver_obj->frame_api))->get_s
 284:Service/Srv_Receiver.c ****                     receiver_obj->data.link_quality = ((DevCRSF_TypeDef *)(receiver_obj->frame_api)
 285:Service/Srv_Receiver.c ****                     break;
 286:Service/Srv_Receiver.c **** 
 287:Service/Srv_Receiver.c ****                 case CRSF_FRAMETYPE_RC_CHANNELS_PACKED:
 288:Service/Srv_Receiver.c ****                     crsf_frame_channel = ((DevCRSF_TypeDef *)(receiver_obj->frame_api))->get_channe
 289:Service/Srv_Receiver.c **** 
 290:Service/Srv_Receiver.c ****                     receiver_obj->data.val_list[0] = crsf_frame_channel.ch0;
 291:Service/Srv_Receiver.c ****                     receiver_obj->data.val_list[1] = crsf_frame_channel.ch1;
 292:Service/Srv_Receiver.c ****                     receiver_obj->data.val_list[2] = crsf_frame_channel.ch2;
 293:Service/Srv_Receiver.c ****                     receiver_obj->data.val_list[3] = crsf_frame_channel.ch3;
 294:Service/Srv_Receiver.c ****                     receiver_obj->data.val_list[4] = crsf_frame_channel.ch4;
 295:Service/Srv_Receiver.c ****                     receiver_obj->data.val_list[5] = crsf_frame_channel.ch5;
 296:Service/Srv_Receiver.c ****                     receiver_obj->data.val_list[6] = crsf_frame_channel.ch6;
 297:Service/Srv_Receiver.c ****                     receiver_obj->data.val_list[7] = crsf_frame_channel.ch7;
 298:Service/Srv_Receiver.c ****                     receiver_obj->data.val_list[8] = crsf_frame_channel.ch8;
 299:Service/Srv_Receiver.c ****                     receiver_obj->data.val_list[9] = crsf_frame_channel.ch9;
ARM GAS  /var/folders/lx/hc4sn_b53233_zkc9xbbl97r0000gp/T//ccCP9Y0e.s 			page 7


 300:Service/Srv_Receiver.c ****                     receiver_obj->data.val_list[10] = crsf_frame_channel.ch10;
 301:Service/Srv_Receiver.c ****                     receiver_obj->data.val_list[11] = crsf_frame_channel.ch11;
 302:Service/Srv_Receiver.c ****                     receiver_obj->data.val_list[12] = crsf_frame_channel.ch12;
 303:Service/Srv_Receiver.c ****                     receiver_obj->data.val_list[13] = crsf_frame_channel.ch13;
 304:Service/Srv_Receiver.c ****                     receiver_obj->data.val_list[14] = crsf_frame_channel.ch14;
 305:Service/Srv_Receiver.c ****                     receiver_obj->data.val_list[15] = crsf_frame_channel.ch15;
 306:Service/Srv_Receiver.c **** 
 307:Service/Srv_Receiver.c ****                     if (receiver_obj->invert_list)
 308:Service/Srv_Receiver.c ****                     {
 309:Service/Srv_Receiver.c ****                         for (uint8_t i = 0; i < receiver_obj->channel_num; i++)
 310:Service/Srv_Receiver.c ****                         {
 311:Service/Srv_Receiver.c ****                             if (receiver_obj->invert_list & 1 << i)
 312:Service/Srv_Receiver.c ****                             {
 313:Service/Srv_Receiver.c ****                                 receiver_obj->data.val_list[i] -= CHANNEL_RANGE_MID;
 314:Service/Srv_Receiver.c ****                                 receiver_obj->data.val_list[i] = CHANNEL_RANGE_MID - receiver_obj->
 315:Service/Srv_Receiver.c ****                             }
 316:Service/Srv_Receiver.c ****                         }
 317:Service/Srv_Receiver.c ****                     }
 318:Service/Srv_Receiver.c **** 
 319:Service/Srv_Receiver.c ****                     receiver_obj->data.failsafe = false;
 320:Service/Srv_Receiver.c ****                     break;
 321:Service/Srv_Receiver.c **** 
 322:Service/Srv_Receiver.c ****                 default:
 323:Service/Srv_Receiver.c ****                     return;
 324:Service/Srv_Receiver.c ****                 }
 325:Service/Srv_Receiver.c ****             }
 326:Service/Srv_Receiver.c ****             else if (receiver_obj->Frame_type == Receiver_Type_Sbus)
 327:Service/Srv_Receiver.c ****             {
 328:Service/Srv_Receiver.c ****                 if (((DevSBUS_TypeDef *)(receiver_obj->frame_api))->decode(receiver_obj->frame_data
 329:Service/Srv_Receiver.c ****                 {
 330:Service/Srv_Receiver.c ****                     for (uint8_t i = 0; i < receiver_obj->channel_num; i++)
 331:Service/Srv_Receiver.c ****                     {
 332:Service/Srv_Receiver.c ****                         receiver_obj->data.val_list[i] = ((DevSBUSObj_TypeDef *)receiver_obj->frame
 333:Service/Srv_Receiver.c **** 
 334:Service/Srv_Receiver.c ****                         if (receiver_obj->invert_list && receiver_obj->invert_list & 1 << i)
 335:Service/Srv_Receiver.c ****                         {
 336:Service/Srv_Receiver.c ****                             receiver_obj->data.val_list[i] -= CHANNEL_RANGE_MID;
 337:Service/Srv_Receiver.c ****                             receiver_obj->data.val_list[i] = CHANNEL_RANGE_MID - receiver_obj->data
 338:Service/Srv_Receiver.c ****                         }
 339:Service/Srv_Receiver.c ****                     }
 340:Service/Srv_Receiver.c ****                 }
 341:Service/Srv_Receiver.c ****             }
 342:Service/Srv_Receiver.c **** 
 343:Service/Srv_Receiver.c ****             /* set decode time stamp */
 344:Service/Srv_Receiver.c ****             receiver_obj->data.time_stamp = Get_CurrentRunningMs();
 345:Service/Srv_Receiver.c **** 
 346:Service/Srv_Receiver.c ****             /* clear serial obj received data */
 347:Service/Srv_Receiver.c ****             if (receiver_obj->port->cfg)
 348:Service/Srv_Receiver.c ****             {
 349:Service/Srv_Receiver.c ****                 uart_obj = ((BspUARTObj_TypeDef *)(receiver_obj->port->cfg));
 350:Service/Srv_Receiver.c **** 
 351:Service/Srv_Receiver.c ****                 rx_buff_ptr = uart_obj->rx_buf;
 352:Service/Srv_Receiver.c **** 
 353:Service/Srv_Receiver.c ****                 if (rx_buff_ptr)
 354:Service/Srv_Receiver.c ****                     memset(rx_buff_ptr, NULL, size);
 355:Service/Srv_Receiver.c ****             }
 356:Service/Srv_Receiver.c ****         }
ARM GAS  /var/folders/lx/hc4sn_b53233_zkc9xbbl97r0000gp/T//ccCP9Y0e.s 			page 8


 357:Service/Srv_Receiver.c ****     }
 358:Service/Srv_Receiver.c **** }
 359:Service/Srv_Receiver.c **** 
 360:Service/Srv_Receiver.c **** static bool SrvReceiver_Check(SrvReceiverObj_TypeDef *receiver_obj)
 361:Service/Srv_Receiver.c **** {
 362:Service/Srv_Receiver.c ****     /* update check */
 363:Service/Srv_Receiver.c ****     /* update frequence less than 10hz */
 364:Service/Srv_Receiver.c ****     if ((Get_CurrentRunningMs() - receiver_obj->data.time_stamp) > SRV_RECEIVER_UPDATE_TIMEOUT_MS)
 365:Service/Srv_Receiver.c ****         return false;
 366:Service/Srv_Receiver.c **** 
 367:Service/Srv_Receiver.c ****     /* range check */
 368:Service/Srv_Receiver.c ****     for (uint8_t i = 0; i < receiver_obj->channel_num; i++)
 369:Service/Srv_Receiver.c ****     {
 370:Service/Srv_Receiver.c ****         if ((receiver_obj->data.val_list[i] > CHANNEL_RANGE_MAX) || (receiver_obj->data.val_list[i]
 371:Service/Srv_Receiver.c ****             return false;
 372:Service/Srv_Receiver.c ****     }
 373:Service/Srv_Receiver.c **** 
 374:Service/Srv_Receiver.c ****     /* other check */
 375:Service/Srv_Receiver.c **** 
 376:Service/Srv_Receiver.c ****     return true;
 377:Service/Srv_Receiver.c **** }
 378:Service/Srv_Receiver.c **** 
 379:Service/Srv_Receiver.c **** static void SrvReceiver_Set_Invert(SrvReceiverObj_TypeDef *receiver_obj, uint16_t channel_index)
 380:Service/Srv_Receiver.c **** {
  47              		.loc 1 380 1 view -0
  48              		.cfi_startproc
  49              		@ args = 0, pretend = 0, frame = 0
  50              		@ frame_needed = 0, uses_anonymous_args = 0
  51              		@ link register save eliminated.
 381:Service/Srv_Receiver.c ****     if (receiver_obj && (channel_index < receiver_obj->channel_num))
  52              		.loc 1 381 5 view .LVU3
  53              		.loc 1 381 8 is_stmt 0 view .LVU4
  54 0000 0346     		mov	r3, r0
  55 0002 88B1     		cbz	r0, .L2
  56              		.loc 1 381 54 discriminator 1 view .LVU5
  57 0004 827B     		ldrb	r2, [r0, #14]	@ zero_extendqisi2
  58              		.loc 1 381 22 discriminator 1 view .LVU6
  59 0006 8A42     		cmp	r2, r1
  60 0008 0ED9     		bls	.L2
 382:Service/Srv_Receiver.c ****     {
 383:Service/Srv_Receiver.c ****         if (receiver_obj->invert_list & (1 << channel_index))
  61              		.loc 1 383 9 is_stmt 1 view .LVU7
  62              		.loc 1 383 25 is_stmt 0 view .LVU8
  63 000a D0F82A20 		ldr	r2, [r0, #42]	@ unaligned
  64              		.loc 1 383 44 view .LVU9
  65 000e 0120     		movs	r0, #1
  66              	.LVL1:
  67              		.loc 1 383 44 view .LVU10
  68 0010 00FA01F1 		lsl	r1, r0, r1
  69              	.LVL2:
  70              		.loc 1 383 12 view .LVU11
  71 0014 0A42     		tst	r2, r1
  72 0016 04D0     		beq	.L4
 384:Service/Srv_Receiver.c ****         {
 385:Service/Srv_Receiver.c ****             receiver_obj->invert_list &= ~(1 << channel_index);
  73              		.loc 1 385 13 is_stmt 1 view .LVU12
  74              		.loc 1 385 39 is_stmt 0 view .LVU13
ARM GAS  /var/folders/lx/hc4sn_b53233_zkc9xbbl97r0000gp/T//ccCP9Y0e.s 			page 9


  75 0018 22EA0102 		bic	r2, r2, r1
  76 001c C3F82A20 		str	r2, [r3, #42]	@ unaligned
  77 0020 7047     		bx	lr
  78              	.L4:
 386:Service/Srv_Receiver.c ****         }
 387:Service/Srv_Receiver.c ****         else
 388:Service/Srv_Receiver.c ****         {
 389:Service/Srv_Receiver.c ****             receiver_obj->invert_list |= (1 << channel_index);
  79              		.loc 1 389 13 is_stmt 1 view .LVU14
  80              		.loc 1 389 39 is_stmt 0 view .LVU15
  81 0022 0A43     		orrs	r2, r2, r1
  82 0024 C3F82A20 		str	r2, [r3, #42]	@ unaligned
  83              	.L2:
 390:Service/Srv_Receiver.c ****         }
 391:Service/Srv_Receiver.c ****     }
 392:Service/Srv_Receiver.c **** }
  84              		.loc 1 392 1 view .LVU16
  85 0028 7047     		bx	lr
  86              		.cfi_endproc
  87              	.LFE152:
  89              		.section	.text.SrvReceiver_Check,"ax",%progbits
  90              		.align	1
  91              		.syntax unified
  92              		.thumb
  93              		.thumb_func
  94              		.fpu fpv5-d16
  96              	SrvReceiver_Check:
  97              	.LVL3:
  98              	.LFB151:
 361:Service/Srv_Receiver.c ****     /* update check */
  99              		.loc 1 361 1 is_stmt 1 view -0
 100              		.cfi_startproc
 101              		@ args = 0, pretend = 0, frame = 0
 102              		@ frame_needed = 0, uses_anonymous_args = 0
 361:Service/Srv_Receiver.c ****     /* update check */
 103              		.loc 1 361 1 is_stmt 0 view .LVU18
 104 0000 10B5     		push	{r4, lr}
 105              	.LCFI0:
 106              		.cfi_def_cfa_offset 8
 107              		.cfi_offset 4, -8
 108              		.cfi_offset 14, -4
 109 0002 0446     		mov	r4, r0
 364:Service/Srv_Receiver.c ****         return false;
 110              		.loc 1 364 5 is_stmt 1 view .LVU19
 364:Service/Srv_Receiver.c ****         return false;
 111              		.loc 1 364 10 is_stmt 0 view .LVU20
 112 0004 FFF7FEFF 		bl	Get_CurrentRunningMs
 113              	.LVL4:
 364:Service/Srv_Receiver.c ****         return false;
 114              		.loc 1 364 53 view .LVU21
 115 0008 D4F81330 		ldr	r3, [r4, #19]	@ unaligned
 364:Service/Srv_Receiver.c ****         return false;
 116              		.loc 1 364 33 view .LVU22
 117 000c C01A     		subs	r0, r0, r3
 118 000e 61F10001 		sbc	r1, r1, #0
 364:Service/Srv_Receiver.c ****         return false;
 119              		.loc 1 364 8 view .LVU23
ARM GAS  /var/folders/lx/hc4sn_b53233_zkc9xbbl97r0000gp/T//ccCP9Y0e.s 			page 10


 120 0012 6528     		cmp	r0, #101
 121 0014 71F10003 		sbcs	r3, r1, #0
 122 0018 13D2     		bcs	.L9
 123              	.LBB2:
 368:Service/Srv_Receiver.c ****     {
 124              		.loc 1 368 18 view .LVU24
 125 001a 0022     		movs	r2, #0
 126              	.L7:
 127              	.LVL5:
 368:Service/Srv_Receiver.c ****     {
 128              		.loc 1 368 25 is_stmt 1 discriminator 1 view .LVU25
 368:Service/Srv_Receiver.c ****     {
 129              		.loc 1 368 41 is_stmt 0 discriminator 1 view .LVU26
 130 001c A37B     		ldrb	r3, [r4, #14]	@ zero_extendqisi2
 368:Service/Srv_Receiver.c ****     {
 131              		.loc 1 368 5 discriminator 1 view .LVU27
 132 001e 9342     		cmp	r3, r2
 133 0020 0DD9     		bls	.L12
 370:Service/Srv_Receiver.c ****             return false;
 134              		.loc 1 370 9 is_stmt 1 view .LVU28
 370:Service/Srv_Receiver.c ****             return false;
 135              		.loc 1 370 32 is_stmt 0 view .LVU29
 136 0022 D4F81730 		ldr	r3, [r4, #23]	@ unaligned
 370:Service/Srv_Receiver.c ****             return false;
 137              		.loc 1 370 41 view .LVU30
 138 0026 33F81230 		ldrh	r3, [r3, r2, lsl #1]
 370:Service/Srv_Receiver.c ****             return false;
 139              		.loc 1 370 66 view .LVU31
 140 002a A3F2B633 		subw	r3, r3, #950
 141 002e 9BB2     		uxth	r3, r3
 370:Service/Srv_Receiver.c ****             return false;
 142              		.loc 1 370 12 view .LVU32
 143 0030 40F24C41 		movw	r1, #1100
 144 0034 8B42     		cmp	r3, r1
 145 0036 06D8     		bhi	.L10
 368:Service/Srv_Receiver.c ****     {
 146              		.loc 1 368 56 is_stmt 1 discriminator 2 view .LVU33
 368:Service/Srv_Receiver.c ****     {
 147              		.loc 1 368 57 is_stmt 0 discriminator 2 view .LVU34
 148 0038 0132     		adds	r2, r2, #1
 149              	.LVL6:
 368:Service/Srv_Receiver.c ****     {
 150              		.loc 1 368 57 discriminator 2 view .LVU35
 151 003a D2B2     		uxtb	r2, r2
 152              	.LVL7:
 368:Service/Srv_Receiver.c ****     {
 153              		.loc 1 368 57 discriminator 2 view .LVU36
 154 003c EEE7     		b	.L7
 155              	.L12:
 368:Service/Srv_Receiver.c ****     {
 156              		.loc 1 368 57 discriminator 2 view .LVU37
 157              	.LBE2:
 376:Service/Srv_Receiver.c **** }
 158              		.loc 1 376 12 view .LVU38
 159 003e 0120     		movs	r0, #1
 160              	.LBB3:
 161 0040 00E0     		b	.L6
ARM GAS  /var/folders/lx/hc4sn_b53233_zkc9xbbl97r0000gp/T//ccCP9Y0e.s 			page 11


 162              	.LVL8:
 163              	.L9:
 376:Service/Srv_Receiver.c **** }
 164              		.loc 1 376 12 view .LVU39
 165              	.LBE3:
 365:Service/Srv_Receiver.c **** 
 166              		.loc 1 365 16 view .LVU40
 167 0042 0020     		movs	r0, #0
 168              	.L6:
 377:Service/Srv_Receiver.c **** 
 169              		.loc 1 377 1 view .LVU41
 170 0044 10BD     		pop	{r4, pc}
 171              	.LVL9:
 172              	.L10:
 173              	.LBB4:
 371:Service/Srv_Receiver.c ****     }
 174              		.loc 1 371 20 view .LVU42
 175 0046 0020     		movs	r0, #0
 176 0048 FCE7     		b	.L6
 177              	.LBE4:
 178              		.cfi_endproc
 179              	.LFE151:
 181              		.section	.text.SrvReceiver_Get_Value,"ax",%progbits
 182              		.align	1
 183              		.syntax unified
 184              		.thumb
 185              		.thumb_func
 186              		.fpu fpv5-d16
 188              	SrvReceiver_Get_Value:
 189              	.LVL10:
 190              	.LFB153:
 393:Service/Srv_Receiver.c **** 
 394:Service/Srv_Receiver.c **** static SrvReceiverData_TypeDef SrvReceiver_Get_Value(SrvReceiverObj_TypeDef *receiver_obj)
 395:Service/Srv_Receiver.c **** {
 191              		.loc 1 395 1 is_stmt 1 view -0
 192              		.cfi_startproc
 193              		@ args = 0, pretend = 0, frame = 24
 194              		@ frame_needed = 0, uses_anonymous_args = 0
 195              		.loc 1 395 1 is_stmt 0 view .LVU44
 196 0000 30B5     		push	{r4, r5, lr}
 197              	.LCFI1:
 198              		.cfi_def_cfa_offset 12
 199              		.cfi_offset 4, -12
 200              		.cfi_offset 5, -8
 201              		.cfi_offset 14, -4
 202 0002 87B0     		sub	sp, sp, #28
 203              	.LCFI2:
 204              		.cfi_def_cfa_offset 40
 205 0004 0546     		mov	r5, r0
 206 0006 0191     		str	r1, [sp, #4]
 396:Service/Srv_Receiver.c ****     SrvReceiverData_TypeDef receiver_data_tmp;
 207              		.loc 1 396 5 is_stmt 1 view .LVU45
 397:Service/Srv_Receiver.c **** 
 398:Service/Srv_Receiver.c ****     memset(&receiver_data_tmp, 0, sizeof(receiver_data_tmp));
 208              		.loc 1 398 5 view .LVU46
 209 0008 0023     		movs	r3, #0
 210 000a 0293     		str	r3, [sp, #8]
ARM GAS  /var/folders/lx/hc4sn_b53233_zkc9xbbl97r0000gp/T//ccCP9Y0e.s 			page 12


 211 000c 0393     		str	r3, [sp, #12]
 212 000e 0493     		str	r3, [sp, #16]
 213 0010 8DF81430 		strb	r3, [sp, #20]
 399:Service/Srv_Receiver.c ****     receiver_data_tmp.failsafe = true;
 214              		.loc 1 399 5 view .LVU47
 215              		.loc 1 399 32 is_stmt 0 view .LVU48
 216 0014 0123     		movs	r3, #1
 217 0016 8DF81430 		strb	r3, [sp, #20]
 400:Service/Srv_Receiver.c **** 
 401:Service/Srv_Receiver.c ****     if (receiver_obj == NULL)
 218              		.loc 1 401 5 is_stmt 1 view .LVU49
 219              		.loc 1 401 8 is_stmt 0 view .LVU50
 220 001a C1B1     		cbz	r1, .L19
 221              	.LVL11:
 222              	.L14:
 402:Service/Srv_Receiver.c ****         return receiver_data_tmp;
 403:Service/Srv_Receiver.c **** 
 404:Service/Srv_Receiver.c **** re_do:
 405:Service/Srv_Receiver.c ****     receiver_obj->in_use = true;
 223              		.loc 1 405 5 is_stmt 1 view .LVU51
 224              		.loc 1 405 17 is_stmt 0 view .LVU52
 225 001c 0198     		ldr	r0, [sp, #4]
 226              		.loc 1 405 26 view .LVU53
 227 001e 0123     		movs	r3, #1
 228 0020 80F82930 		strb	r3, [r0, #41]
 406:Service/Srv_Receiver.c **** 
 407:Service/Srv_Receiver.c ****     if (!SrvReceiver_Check(receiver_obj))
 229              		.loc 1 407 5 is_stmt 1 view .LVU54
 230              		.loc 1 407 10 is_stmt 0 view .LVU55
 231 0024 FFF7FEFF 		bl	SrvReceiver_Check
 232              	.LVL12:
 233              		.loc 1 407 8 view .LVU56
 234 0028 C8B1     		cbz	r0, .L20
 408:Service/Srv_Receiver.c ****         return receiver_data_tmp;
 409:Service/Srv_Receiver.c **** 
 410:Service/Srv_Receiver.c ****     receiver_data_tmp.failsafe = false;
 235              		.loc 1 410 5 is_stmt 1 view .LVU57
 236              		.loc 1 410 32 is_stmt 0 view .LVU58
 237 002a 0024     		movs	r4, #0
 238 002c 8DF81440 		strb	r4, [sp, #20]
 411:Service/Srv_Receiver.c ****     memcpy(&receiver_obj, &receiver_obj->data, sizeof(SrvReceiverObj_TypeDef));
 239              		.loc 1 411 5 is_stmt 1 view .LVU59
 240 0030 4222     		movs	r2, #66
 241 0032 0199     		ldr	r1, [sp, #4]
 242 0034 1331     		adds	r1, r1, #19
 243 0036 01A8     		add	r0, sp, #4
 244 0038 FFF7FEFF 		bl	memcpy
 245              	.LVL13:
 412:Service/Srv_Receiver.c **** 
 413:Service/Srv_Receiver.c ****     receiver_obj->in_use = false;
 246              		.loc 1 413 5 view .LVU60
 247              		.loc 1 413 17 is_stmt 0 view .LVU61
 248 003c 019B     		ldr	r3, [sp, #4]
 249              		.loc 1 413 26 view .LVU62
 250 003e 83F82940 		strb	r4, [r3, #41]
 414:Service/Srv_Receiver.c **** 
 415:Service/Srv_Receiver.c ****     if (receiver_obj->re_update)
ARM GAS  /var/folders/lx/hc4sn_b53233_zkc9xbbl97r0000gp/T//ccCP9Y0e.s 			page 13


 251              		.loc 1 415 5 is_stmt 1 view .LVU63
 252              		.loc 1 415 21 is_stmt 0 view .LVU64
 253 0042 93F82820 		ldrb	r2, [r3, #40]	@ zero_extendqisi2
 254              		.loc 1 415 8 view .LVU65
 255 0046 A2B1     		cbz	r2, .L17
 416:Service/Srv_Receiver.c ****     {
 417:Service/Srv_Receiver.c ****         receiver_obj->re_update = false;
 256              		.loc 1 417 9 is_stmt 1 view .LVU66
 257              		.loc 1 417 33 is_stmt 0 view .LVU67
 258 0048 83F82840 		strb	r4, [r3, #40]
 418:Service/Srv_Receiver.c ****         goto re_do;
 259              		.loc 1 418 9 is_stmt 1 view .LVU68
 260 004c E6E7     		b	.L14
 261              	.LVL14:
 262              	.L19:
 402:Service/Srv_Receiver.c **** 
 263              		.loc 1 402 9 view .LVU69
 402:Service/Srv_Receiver.c **** 
 264              		.loc 1 402 16 is_stmt 0 view .LVU70
 265 004e 02AB     		add	r3, sp, #8
 266 0050 07CB     		ldmia	r3!, {r0, r1, r2}
 267              	.LVL15:
 402:Service/Srv_Receiver.c **** 
 268              		.loc 1 402 16 view .LVU71
 269 0052 2860     		str	r0, [r5]	@ unaligned
 270 0054 6960     		str	r1, [r5, #4]	@ unaligned
 271 0056 AA60     		str	r2, [r5, #8]	@ unaligned
 272 0058 1B78     		ldrb	r3, [r3]	@ zero_extendqisi2
 273 005a 2B73     		strb	r3, [r5, #12]
 274 005c 06E0     		b	.L13
 275              	.LVL16:
 276              	.L20:
 408:Service/Srv_Receiver.c **** 
 277              		.loc 1 408 9 is_stmt 1 view .LVU72
 408:Service/Srv_Receiver.c **** 
 278              		.loc 1 408 16 is_stmt 0 view .LVU73
 279 005e 02AB     		add	r3, sp, #8
 280 0060 07CB     		ldmia	r3!, {r0, r1, r2}
 281 0062 2860     		str	r0, [r5]	@ unaligned
 282 0064 6960     		str	r1, [r5, #4]	@ unaligned
 283 0066 AA60     		str	r2, [r5, #8]	@ unaligned
 284 0068 1B78     		ldrb	r3, [r3]	@ zero_extendqisi2
 285 006a 2B73     		strb	r3, [r5, #12]
 286              	.L13:
 419:Service/Srv_Receiver.c ****     }
 420:Service/Srv_Receiver.c **** 
 421:Service/Srv_Receiver.c ****     return receiver_data_tmp;
 422:Service/Srv_Receiver.c **** }
 287              		.loc 1 422 1 view .LVU74
 288 006c 2846     		mov	r0, r5
 289 006e 07B0     		add	sp, sp, #28
 290              	.LCFI3:
 291              		.cfi_remember_state
 292              		.cfi_def_cfa_offset 12
 293              		@ sp needed
 294 0070 30BD     		pop	{r4, r5, pc}
 295              	.LVL17:
ARM GAS  /var/folders/lx/hc4sn_b53233_zkc9xbbl97r0000gp/T//ccCP9Y0e.s 			page 14


 296              	.L17:
 297              	.LCFI4:
 298              		.cfi_restore_state
 421:Service/Srv_Receiver.c **** }
 299              		.loc 1 421 5 is_stmt 1 view .LVU75
 421:Service/Srv_Receiver.c **** }
 300              		.loc 1 421 12 is_stmt 0 view .LVU76
 301 0072 02AB     		add	r3, sp, #8
 302 0074 07CB     		ldmia	r3!, {r0, r1, r2}
 303 0076 2860     		str	r0, [r5]	@ unaligned
 304 0078 6960     		str	r1, [r5, #4]	@ unaligned
 305 007a AA60     		str	r2, [r5, #8]	@ unaligned
 306 007c 1B78     		ldrb	r3, [r3]	@ zero_extendqisi2
 307 007e 2B73     		strb	r3, [r5, #12]
 308 0080 F4E7     		b	.L13
 309              		.cfi_endproc
 310              	.LFE153:
 312              		.section	.text.SrvReceiver_SerialDecode_Callback,"ax",%progbits
 313              		.align	1
 314              		.syntax unified
 315              		.thumb
 316              		.thumb_func
 317              		.fpu fpv5-d16
 319              	SrvReceiver_SerialDecode_Callback:
 320              	.LVL18:
 321              	.LFB150:
 255:Service/Srv_Receiver.c ****     BspUARTObj_TypeDef *uart_obj = NULL;
 322              		.loc 1 255 1 is_stmt 1 view -0
 323              		.cfi_startproc
 324              		@ args = 0, pretend = 0, frame = 72
 325              		@ frame_needed = 0, uses_anonymous_args = 0
 256:Service/Srv_Receiver.c ****     uint8_t *rx_buff_ptr = NULL;
 326              		.loc 1 256 5 view .LVU78
 257:Service/Srv_Receiver.c ****     uint16_t rx_buff_size = 0;
 327              		.loc 1 257 5 view .LVU79
 258:Service/Srv_Receiver.c ****     uint8_t decode_out = 0xFF;
 328              		.loc 1 258 5 view .LVU80
 259:Service/Srv_Receiver.c **** 
 329              		.loc 1 259 5 view .LVU81
 261:Service/Srv_Receiver.c ****     {
 330              		.loc 1 261 5 view .LVU82
 261:Service/Srv_Receiver.c ****     {
 331              		.loc 1 261 8 is_stmt 0 view .LVU83
 332 0000 0028     		cmp	r0, #0
 333 0002 00F04181 		beq	.L40
 255:Service/Srv_Receiver.c ****     BspUARTObj_TypeDef *uart_obj = NULL;
 334              		.loc 1 255 1 discriminator 1 view .LVU84
 335 0006 30B5     		push	{r4, r5, lr}
 336              	.LCFI5:
 337              		.cfi_def_cfa_offset 12
 338              		.cfi_offset 4, -12
 339              		.cfi_offset 5, -8
 340              		.cfi_offset 14, -4
 341 0008 93B0     		sub	sp, sp, #76
 342              	.LCFI6:
 343              		.cfi_def_cfa_offset 88
 344 000a 1546     		mov	r5, r2
ARM GAS  /var/folders/lx/hc4sn_b53233_zkc9xbbl97r0000gp/T//ccCP9Y0e.s 			page 15


 345 000c 0446     		mov	r4, r0
 261:Service/Srv_Receiver.c ****     {
 346              		.loc 1 261 37 discriminator 1 view .LVU85
 347 000e 036A     		ldr	r3, [r0, #32]	@ unaligned
 261:Service/Srv_Receiver.c ****     {
 348              		.loc 1 261 22 discriminator 1 view .LVU86
 349 0010 3BB1     		cbz	r3, .L21
 261:Service/Srv_Receiver.c ****     {
 350              		.loc 1 261 64 discriminator 2 view .LVU87
 351 0012 426A     		ldr	r2, [r0, #36]	@ unaligned
 352              	.LVL19:
 261:Service/Srv_Receiver.c ****     {
 353              		.loc 1 261 49 discriminator 2 view .LVU88
 354 0014 2AB1     		cbz	r2, .L21
 261:Service/Srv_Receiver.c ****     {
 355              		.loc 1 261 86 discriminator 3 view .LVU89
 356 0016 D0F80F00 		ldr	r0, [r0, #15]	@ unaligned
 357              	.LVL20:
 261:Service/Srv_Receiver.c ****     {
 358              		.loc 1 261 71 discriminator 3 view .LVU90
 359 001a 10B1     		cbz	r0, .L21
 263:Service/Srv_Receiver.c ****         {
 360              		.loc 1 263 9 is_stmt 1 view .LVU91
 263:Service/Srv_Receiver.c ****         {
 361              		.loc 1 263 25 is_stmt 0 view .LVU92
 362 001c 6278     		ldrb	r2, [r4, #1]	@ zero_extendqisi2
 263:Service/Srv_Receiver.c ****         {
 363              		.loc 1 263 12 view .LVU93
 364 001e 012A     		cmp	r2, #1
 365 0020 01D0     		beq	.L43
 366              	.LVL21:
 367              	.L21:
 358:Service/Srv_Receiver.c **** 
 368              		.loc 1 358 1 view .LVU94
 369 0022 13B0     		add	sp, sp, #76
 370              	.LCFI7:
 371              		.cfi_remember_state
 372              		.cfi_def_cfa_offset 12
 373              		@ sp needed
 374 0024 30BD     		pop	{r4, r5, pc}
 375              	.LVL22:
 376              	.L43:
 377              	.LCFI8:
 378              		.cfi_restore_state
 265:Service/Srv_Receiver.c ****             {
 379              		.loc 1 265 13 is_stmt 1 view .LVU95
 265:Service/Srv_Receiver.c ****             {
 380              		.loc 1 265 29 is_stmt 0 view .LVU96
 381 0026 94F82920 		ldrb	r2, [r4, #41]	@ zero_extendqisi2
 265:Service/Srv_Receiver.c ****             {
 382              		.loc 1 265 16 view .LVU97
 383 002a F2B1     		cbz	r2, .L23
 267:Service/Srv_Receiver.c ****             }
 384              		.loc 1 267 17 is_stmt 1 view .LVU98
 267:Service/Srv_Receiver.c ****             }
 385              		.loc 1 267 41 is_stmt 0 view .LVU99
 386 002c 0122     		movs	r2, #1
ARM GAS  /var/folders/lx/hc4sn_b53233_zkc9xbbl97r0000gp/T//ccCP9Y0e.s 			page 16


 387 002e 84F82820 		strb	r2, [r4, #40]
 388              	.L24:
 273:Service/Srv_Receiver.c ****             {
 389              		.loc 1 273 13 is_stmt 1 view .LVU100
 273:Service/Srv_Receiver.c ****             {
 390              		.loc 1 273 29 is_stmt 0 view .LVU101
 391 0032 2278     		ldrb	r2, [r4]	@ zero_extendqisi2
 273:Service/Srv_Receiver.c ****             {
 392              		.loc 1 273 16 view .LVU102
 393 0034 012A     		cmp	r2, #1
 394 0036 1CD0     		beq	.L44
 326:Service/Srv_Receiver.c ****             {
 395              		.loc 1 326 18 is_stmt 1 view .LVU103
 326:Service/Srv_Receiver.c ****             {
 396              		.loc 1 326 21 is_stmt 0 view .LVU104
 397 0038 32B9     		cbnz	r2, .L34
 328:Service/Srv_Receiver.c ****                 {
 398              		.loc 1 328 17 is_stmt 1 view .LVU105
 328:Service/Srv_Receiver.c ****                 {
 399              		.loc 1 328 67 is_stmt 0 view .LVU106
 400 003a 5B68     		ldr	r3, [r3, #4]
 328:Service/Srv_Receiver.c ****                 {
 401              		.loc 1 328 22 view .LVU107
 402 003c 2A46     		mov	r2, r5
 403 003e 9847     		blx	r3
 404              	.LVL23:
 328:Service/Srv_Receiver.c ****                 {
 405              		.loc 1 328 20 view .LVU108
 406 0040 0346     		mov	r3, r0
 407 0042 0028     		cmp	r0, #0
 408 0044 00F0FB80 		beq	.L35
 409              	.LVL24:
 410              	.L34:
 344:Service/Srv_Receiver.c **** 
 411              		.loc 1 344 13 is_stmt 1 view .LVU109
 344:Service/Srv_Receiver.c **** 
 412              		.loc 1 344 45 is_stmt 0 view .LVU110
 413 0048 FFF7FEFF 		bl	Get_CurrentRunningMs
 414              	.LVL25:
 344:Service/Srv_Receiver.c **** 
 415              		.loc 1 344 43 view .LVU111
 416 004c C4F81300 		str	r0, [r4, #19]	@ unaligned
 347:Service/Srv_Receiver.c ****             {
 417              		.loc 1 347 13 is_stmt 1 view .LVU112
 347:Service/Srv_Receiver.c ****             {
 418              		.loc 1 347 29 is_stmt 0 view .LVU113
 419 0050 636A     		ldr	r3, [r4, #36]	@ unaligned
 347:Service/Srv_Receiver.c ****             {
 420              		.loc 1 347 35 view .LVU114
 421 0052 5B68     		ldr	r3, [r3, #4]	@ unaligned
 347:Service/Srv_Receiver.c ****             {
 422              		.loc 1 347 16 view .LVU115
 423 0054 002B     		cmp	r3, #0
 424 0056 E4D0     		beq	.L21
 349:Service/Srv_Receiver.c **** 
 425              		.loc 1 349 17 is_stmt 1 view .LVU116
 426              	.LVL26:
ARM GAS  /var/folders/lx/hc4sn_b53233_zkc9xbbl97r0000gp/T//ccCP9Y0e.s 			page 17


 351:Service/Srv_Receiver.c **** 
 427              		.loc 1 351 17 view .LVU117
 351:Service/Srv_Receiver.c **** 
 428              		.loc 1 351 29 is_stmt 0 view .LVU118
 429 0058 D3F8AD01 		ldr	r0, [r3, #429]	@ unaligned
 430              	.LVL27:
 353:Service/Srv_Receiver.c ****                     memset(rx_buff_ptr, NULL, size);
 431              		.loc 1 353 17 is_stmt 1 view .LVU119
 353:Service/Srv_Receiver.c ****                     memset(rx_buff_ptr, NULL, size);
 432              		.loc 1 353 20 is_stmt 0 view .LVU120
 433 005c 0028     		cmp	r0, #0
 434 005e E0D0     		beq	.L21
 354:Service/Srv_Receiver.c ****             }
 435              		.loc 1 354 21 is_stmt 1 view .LVU121
 436 0060 2A46     		mov	r2, r5
 437 0062 0021     		movs	r1, #0
 438 0064 FFF7FEFF 		bl	memset
 439              	.LVL28:
 354:Service/Srv_Receiver.c ****             }
 440              		.loc 1 354 21 is_stmt 0 view .LVU122
 441 0068 DBE7     		b	.L21
 442              	.LVL29:
 443              	.L23:
 270:Service/Srv_Receiver.c **** 
 444              		.loc 1 270 17 is_stmt 1 view .LVU123
 270:Service/Srv_Receiver.c **** 
 445              		.loc 1 270 41 is_stmt 0 view .LVU124
 446 006a 0022     		movs	r2, #0
 447 006c 84F82820 		strb	r2, [r4, #40]
 448 0070 DFE7     		b	.L24
 449              	.L44:
 450              	.LBB5:
 275:Service/Srv_Receiver.c **** 
 451              		.loc 1 275 17 is_stmt 1 view .LVU125
 277:Service/Srv_Receiver.c ****                 decode_out = ((DevCRSF_TypeDef *)(receiver_obj->frame_api))->decode(receiver_obj->f
 452              		.loc 1 277 17 view .LVU126
 453 0072 0022     		movs	r2, #0
 454 0074 0692     		str	r2, [sp, #24]
 455 0076 0792     		str	r2, [sp, #28]
 456 0078 0892     		str	r2, [sp, #32]
 457 007a 0992     		str	r2, [sp, #36]
 458 007c 0A92     		str	r2, [sp, #40]
 459 007e ADF82C20 		strh	r2, [sp, #44]	@ movhi
 278:Service/Srv_Receiver.c **** 
 460              		.loc 1 278 17 view .LVU127
 278:Service/Srv_Receiver.c **** 
 461              		.loc 1 278 76 is_stmt 0 view .LVU128
 462 0082 5B68     		ldr	r3, [r3, #4]
 278:Service/Srv_Receiver.c **** 
 463              		.loc 1 278 31 view .LVU129
 464 0084 2A46     		mov	r2, r5
 465 0086 D4F80F00 		ldr	r0, [r4, #15]	@ unaligned
 466 008a 9847     		blx	r3
 467              	.LVL30:
 280:Service/Srv_Receiver.c ****                 {
 468              		.loc 1 280 17 is_stmt 1 view .LVU130
 469 008c 1428     		cmp	r0, #20
ARM GAS  /var/folders/lx/hc4sn_b53233_zkc9xbbl97r0000gp/T//ccCP9Y0e.s 			page 18


 470 008e 00F0A080 		beq	.L26
 471 0092 1628     		cmp	r0, #22
 472 0094 C5D1     		bne	.L21
 288:Service/Srv_Receiver.c **** 
 473              		.loc 1 288 21 view .LVU131
 288:Service/Srv_Receiver.c **** 
 474              		.loc 1 288 75 is_stmt 0 view .LVU132
 475 0096 236A     		ldr	r3, [r4, #32]	@ unaligned
 288:Service/Srv_Receiver.c **** 
 476              		.loc 1 288 88 view .LVU133
 477 0098 9B68     		ldr	r3, [r3, #8]
 288:Service/Srv_Receiver.c **** 
 478              		.loc 1 288 43 view .LVU134
 479 009a D4F80F10 		ldr	r1, [r4, #15]	@ unaligned
 480 009e 6846     		mov	r0, sp
 481              	.LVL31:
 288:Service/Srv_Receiver.c **** 
 482              		.loc 1 288 43 view .LVU135
 483 00a0 9847     		blx	r3
 484              	.LVL32:
 485 00a2 0DF1180C 		add	ip, sp, #24
 486 00a6 0098     		ldr	r0, [sp]	@ unaligned
 487 00a8 0199     		ldr	r1, [sp, #4]	@ unaligned
 488 00aa 029A     		ldr	r2, [sp, #8]	@ unaligned
 489 00ac 039B     		ldr	r3, [sp, #12]	@ unaligned
 490 00ae ACE80F00 		stmia	ip!, {r0, r1, r2, r3}
 491 00b2 0498     		ldr	r0, [sp, #16]	@ unaligned
 492 00b4 CCF80000 		str	r0, [ip]
 493 00b8 BDF81430 		ldrh	r3, [sp, #20]	@ unaligned
 494 00bc ACF80430 		strh	r3, [ip, #4]	@ unaligned
 290:Service/Srv_Receiver.c ****                     receiver_obj->data.val_list[1] = crsf_frame_channel.ch1;
 495              		.loc 1 290 21 is_stmt 1 view .LVU136
 290:Service/Srv_Receiver.c ****                     receiver_obj->data.val_list[1] = crsf_frame_channel.ch1;
 496              		.loc 1 290 39 is_stmt 0 view .LVU137
 497 00c0 D4F81720 		ldr	r2, [r4, #23]	@ unaligned
 290:Service/Srv_Receiver.c ****                     receiver_obj->data.val_list[1] = crsf_frame_channel.ch1;
 498              		.loc 1 290 72 view .LVU138
 499 00c4 BDF81830 		ldrh	r3, [sp, #24]
 500 00c8 C3F30A03 		ubfx	r3, r3, #0, #11
 290:Service/Srv_Receiver.c ****                     receiver_obj->data.val_list[1] = crsf_frame_channel.ch1;
 501              		.loc 1 290 52 view .LVU139
 502 00cc 1380     		strh	r3, [r2]	@ movhi
 291:Service/Srv_Receiver.c ****                     receiver_obj->data.val_list[2] = crsf_frame_channel.ch2;
 503              		.loc 1 291 21 is_stmt 1 view .LVU140
 291:Service/Srv_Receiver.c ****                     receiver_obj->data.val_list[2] = crsf_frame_channel.ch2;
 504              		.loc 1 291 39 is_stmt 0 view .LVU141
 505 00ce D4F81720 		ldr	r2, [r4, #23]	@ unaligned
 291:Service/Srv_Receiver.c ****                     receiver_obj->data.val_list[2] = crsf_frame_channel.ch2;
 506              		.loc 1 291 72 view .LVU142
 507 00d2 069B     		ldr	r3, [sp, #24]
 508 00d4 C3F3CA23 		ubfx	r3, r3, #11, #11
 291:Service/Srv_Receiver.c ****                     receiver_obj->data.val_list[2] = crsf_frame_channel.ch2;
 509              		.loc 1 291 52 view .LVU143
 510 00d8 5380     		strh	r3, [r2, #2]	@ movhi
 292:Service/Srv_Receiver.c ****                     receiver_obj->data.val_list[3] = crsf_frame_channel.ch3;
 511              		.loc 1 292 21 is_stmt 1 view .LVU144
 292:Service/Srv_Receiver.c ****                     receiver_obj->data.val_list[3] = crsf_frame_channel.ch3;
ARM GAS  /var/folders/lx/hc4sn_b53233_zkc9xbbl97r0000gp/T//ccCP9Y0e.s 			page 19


 512              		.loc 1 292 39 is_stmt 0 view .LVU145
 513 00da D4F81720 		ldr	r2, [r4, #23]	@ unaligned
 292:Service/Srv_Receiver.c ****                     receiver_obj->data.val_list[3] = crsf_frame_channel.ch3;
 514              		.loc 1 292 72 view .LVU146
 515 00de BDF81A10 		ldrh	r1, [sp, #26]
 516 00e2 9DF81C30 		ldrb	r3, [sp, #28]	@ zero_extendqisi2
 517 00e6 03F00103 		and	r3, r3, #1
 518 00ea 9B02     		lsls	r3, r3, #10
 519 00ec 43EA9113 		orr	r3, r3, r1, lsr #6
 292:Service/Srv_Receiver.c ****                     receiver_obj->data.val_list[3] = crsf_frame_channel.ch3;
 520              		.loc 1 292 52 view .LVU147
 521 00f0 9380     		strh	r3, [r2, #4]	@ movhi
 293:Service/Srv_Receiver.c ****                     receiver_obj->data.val_list[4] = crsf_frame_channel.ch4;
 522              		.loc 1 293 21 is_stmt 1 view .LVU148
 293:Service/Srv_Receiver.c ****                     receiver_obj->data.val_list[4] = crsf_frame_channel.ch4;
 523              		.loc 1 293 39 is_stmt 0 view .LVU149
 524 00f2 D4F81720 		ldr	r2, [r4, #23]	@ unaligned
 293:Service/Srv_Receiver.c ****                     receiver_obj->data.val_list[4] = crsf_frame_channel.ch4;
 525              		.loc 1 293 72 view .LVU150
 526 00f6 BDF81C30 		ldrh	r3, [sp, #28]
 527 00fa C3F34A03 		ubfx	r3, r3, #1, #11
 293:Service/Srv_Receiver.c ****                     receiver_obj->data.val_list[4] = crsf_frame_channel.ch4;
 528              		.loc 1 293 52 view .LVU151
 529 00fe D380     		strh	r3, [r2, #6]	@ movhi
 294:Service/Srv_Receiver.c ****                     receiver_obj->data.val_list[5] = crsf_frame_channel.ch5;
 530              		.loc 1 294 21 is_stmt 1 view .LVU152
 294:Service/Srv_Receiver.c ****                     receiver_obj->data.val_list[5] = crsf_frame_channel.ch5;
 531              		.loc 1 294 39 is_stmt 0 view .LVU153
 532 0100 D4F81720 		ldr	r2, [r4, #23]	@ unaligned
 294:Service/Srv_Receiver.c ****                     receiver_obj->data.val_list[5] = crsf_frame_channel.ch5;
 533              		.loc 1 294 72 view .LVU154
 534 0104 079B     		ldr	r3, [sp, #28]
 535 0106 C3F30A33 		ubfx	r3, r3, #12, #11
 294:Service/Srv_Receiver.c ****                     receiver_obj->data.val_list[5] = crsf_frame_channel.ch5;
 536              		.loc 1 294 52 view .LVU155
 537 010a 1381     		strh	r3, [r2, #8]	@ movhi
 295:Service/Srv_Receiver.c ****                     receiver_obj->data.val_list[6] = crsf_frame_channel.ch6;
 538              		.loc 1 295 21 is_stmt 1 view .LVU156
 295:Service/Srv_Receiver.c ****                     receiver_obj->data.val_list[6] = crsf_frame_channel.ch6;
 539              		.loc 1 295 39 is_stmt 0 view .LVU157
 540 010c D4F81720 		ldr	r2, [r4, #23]	@ unaligned
 295:Service/Srv_Receiver.c ****                     receiver_obj->data.val_list[6] = crsf_frame_channel.ch6;
 541              		.loc 1 295 72 view .LVU158
 542 0110 BDF81E10 		ldrh	r1, [sp, #30]
 543 0114 9DF82030 		ldrb	r3, [sp, #32]	@ zero_extendqisi2
 544 0118 03F00303 		and	r3, r3, #3
 545 011c 5B02     		lsls	r3, r3, #9
 546 011e 43EAD113 		orr	r3, r3, r1, lsr #7
 295:Service/Srv_Receiver.c ****                     receiver_obj->data.val_list[6] = crsf_frame_channel.ch6;
 547              		.loc 1 295 52 view .LVU159
 548 0122 5381     		strh	r3, [r2, #10]	@ movhi
 296:Service/Srv_Receiver.c ****                     receiver_obj->data.val_list[7] = crsf_frame_channel.ch7;
 549              		.loc 1 296 21 is_stmt 1 view .LVU160
 296:Service/Srv_Receiver.c ****                     receiver_obj->data.val_list[7] = crsf_frame_channel.ch7;
 550              		.loc 1 296 39 is_stmt 0 view .LVU161
 551 0124 D4F81720 		ldr	r2, [r4, #23]	@ unaligned
 296:Service/Srv_Receiver.c ****                     receiver_obj->data.val_list[7] = crsf_frame_channel.ch7;
ARM GAS  /var/folders/lx/hc4sn_b53233_zkc9xbbl97r0000gp/T//ccCP9Y0e.s 			page 20


 552              		.loc 1 296 72 view .LVU162
 553 0128 BDF82030 		ldrh	r3, [sp, #32]
 554 012c C3F38A03 		ubfx	r3, r3, #2, #11
 296:Service/Srv_Receiver.c ****                     receiver_obj->data.val_list[7] = crsf_frame_channel.ch7;
 555              		.loc 1 296 52 view .LVU163
 556 0130 9381     		strh	r3, [r2, #12]	@ movhi
 297:Service/Srv_Receiver.c ****                     receiver_obj->data.val_list[8] = crsf_frame_channel.ch8;
 557              		.loc 1 297 21 is_stmt 1 view .LVU164
 297:Service/Srv_Receiver.c ****                     receiver_obj->data.val_list[8] = crsf_frame_channel.ch8;
 558              		.loc 1 297 39 is_stmt 0 view .LVU165
 559 0132 D4F81720 		ldr	r2, [r4, #23]	@ unaligned
 297:Service/Srv_Receiver.c ****                     receiver_obj->data.val_list[8] = crsf_frame_channel.ch8;
 560              		.loc 1 297 72 view .LVU166
 561 0136 089B     		ldr	r3, [sp, #32]
 562 0138 C3F34A33 		ubfx	r3, r3, #13, #11
 297:Service/Srv_Receiver.c ****                     receiver_obj->data.val_list[8] = crsf_frame_channel.ch8;
 563              		.loc 1 297 52 view .LVU167
 564 013c D381     		strh	r3, [r2, #14]	@ movhi
 298:Service/Srv_Receiver.c ****                     receiver_obj->data.val_list[9] = crsf_frame_channel.ch9;
 565              		.loc 1 298 21 is_stmt 1 view .LVU168
 298:Service/Srv_Receiver.c ****                     receiver_obj->data.val_list[9] = crsf_frame_channel.ch9;
 566              		.loc 1 298 39 is_stmt 0 view .LVU169
 567 013e D4F81710 		ldr	r1, [r4, #23]	@ unaligned
 298:Service/Srv_Receiver.c ****                     receiver_obj->data.val_list[9] = crsf_frame_channel.ch9;
 568              		.loc 1 298 72 view .LVU170
 569 0142 9DF82330 		ldrb	r3, [sp, #35]	@ zero_extendqisi2
 570 0146 9DF82420 		ldrb	r2, [sp, #36]	@ zero_extendqisi2
 571 014a 02F00702 		and	r2, r2, #7
 572 014e 43EA0223 		orr	r3, r3, r2, lsl #8
 298:Service/Srv_Receiver.c ****                     receiver_obj->data.val_list[9] = crsf_frame_channel.ch9;
 573              		.loc 1 298 52 view .LVU171
 574 0152 0B82     		strh	r3, [r1, #16]	@ movhi
 299:Service/Srv_Receiver.c ****                     receiver_obj->data.val_list[10] = crsf_frame_channel.ch10;
 575              		.loc 1 299 21 is_stmt 1 view .LVU172
 299:Service/Srv_Receiver.c ****                     receiver_obj->data.val_list[10] = crsf_frame_channel.ch10;
 576              		.loc 1 299 39 is_stmt 0 view .LVU173
 577 0154 D4F81720 		ldr	r2, [r4, #23]	@ unaligned
 299:Service/Srv_Receiver.c ****                     receiver_obj->data.val_list[10] = crsf_frame_channel.ch10;
 578              		.loc 1 299 72 view .LVU174
 579 0158 BDF82430 		ldrh	r3, [sp, #36]
 580 015c C3F3CA03 		ubfx	r3, r3, #3, #11
 299:Service/Srv_Receiver.c ****                     receiver_obj->data.val_list[10] = crsf_frame_channel.ch10;
 581              		.loc 1 299 52 view .LVU175
 582 0160 5382     		strh	r3, [r2, #18]	@ movhi
 300:Service/Srv_Receiver.c ****                     receiver_obj->data.val_list[11] = crsf_frame_channel.ch11;
 583              		.loc 1 300 21 is_stmt 1 view .LVU176
 300:Service/Srv_Receiver.c ****                     receiver_obj->data.val_list[11] = crsf_frame_channel.ch11;
 584              		.loc 1 300 39 is_stmt 0 view .LVU177
 585 0162 D4F81720 		ldr	r2, [r4, #23]	@ unaligned
 300:Service/Srv_Receiver.c ****                     receiver_obj->data.val_list[11] = crsf_frame_channel.ch11;
 586              		.loc 1 300 73 view .LVU178
 587 0166 099B     		ldr	r3, [sp, #36]
 588 0168 C3F38A33 		ubfx	r3, r3, #14, #11
 300:Service/Srv_Receiver.c ****                     receiver_obj->data.val_list[11] = crsf_frame_channel.ch11;
 589              		.loc 1 300 53 view .LVU179
 590 016c 9382     		strh	r3, [r2, #20]	@ movhi
 301:Service/Srv_Receiver.c ****                     receiver_obj->data.val_list[12] = crsf_frame_channel.ch12;
ARM GAS  /var/folders/lx/hc4sn_b53233_zkc9xbbl97r0000gp/T//ccCP9Y0e.s 			page 21


 591              		.loc 1 301 21 is_stmt 1 view .LVU180
 301:Service/Srv_Receiver.c ****                     receiver_obj->data.val_list[12] = crsf_frame_channel.ch12;
 592              		.loc 1 301 39 is_stmt 0 view .LVU181
 593 016e D4F81720 		ldr	r2, [r4, #23]	@ unaligned
 301:Service/Srv_Receiver.c ****                     receiver_obj->data.val_list[12] = crsf_frame_channel.ch12;
 594              		.loc 1 301 73 view .LVU182
 595 0172 9DF82710 		ldrb	r1, [sp, #39]	@ zero_extendqisi2
 596 0176 9DF82830 		ldrb	r3, [sp, #40]	@ zero_extendqisi2
 597 017a 03F00F03 		and	r3, r3, #15
 598 017e DB01     		lsls	r3, r3, #7
 599 0180 43EA5103 		orr	r3, r3, r1, lsr #1
 301:Service/Srv_Receiver.c ****                     receiver_obj->data.val_list[12] = crsf_frame_channel.ch12;
 600              		.loc 1 301 53 view .LVU183
 601 0184 D382     		strh	r3, [r2, #22]	@ movhi
 302:Service/Srv_Receiver.c ****                     receiver_obj->data.val_list[13] = crsf_frame_channel.ch13;
 602              		.loc 1 302 21 is_stmt 1 view .LVU184
 302:Service/Srv_Receiver.c ****                     receiver_obj->data.val_list[13] = crsf_frame_channel.ch13;
 603              		.loc 1 302 39 is_stmt 0 view .LVU185
 604 0186 D4F81720 		ldr	r2, [r4, #23]	@ unaligned
 302:Service/Srv_Receiver.c ****                     receiver_obj->data.val_list[13] = crsf_frame_channel.ch13;
 605              		.loc 1 302 73 view .LVU186
 606 018a BDF82830 		ldrh	r3, [sp, #40]
 607 018e C3F30A13 		ubfx	r3, r3, #4, #11
 302:Service/Srv_Receiver.c ****                     receiver_obj->data.val_list[13] = crsf_frame_channel.ch13;
 608              		.loc 1 302 53 view .LVU187
 609 0192 1383     		strh	r3, [r2, #24]	@ movhi
 303:Service/Srv_Receiver.c ****                     receiver_obj->data.val_list[14] = crsf_frame_channel.ch14;
 610              		.loc 1 303 21 is_stmt 1 view .LVU188
 303:Service/Srv_Receiver.c ****                     receiver_obj->data.val_list[14] = crsf_frame_channel.ch14;
 611              		.loc 1 303 39 is_stmt 0 view .LVU189
 612 0194 D4F81720 		ldr	r2, [r4, #23]	@ unaligned
 303:Service/Srv_Receiver.c ****                     receiver_obj->data.val_list[14] = crsf_frame_channel.ch14;
 613              		.loc 1 303 73 view .LVU190
 614 0198 0A9B     		ldr	r3, [sp, #40]
 615 019a C3F3CA33 		ubfx	r3, r3, #15, #11
 303:Service/Srv_Receiver.c ****                     receiver_obj->data.val_list[14] = crsf_frame_channel.ch14;
 616              		.loc 1 303 53 view .LVU191
 617 019e 5383     		strh	r3, [r2, #26]	@ movhi
 304:Service/Srv_Receiver.c ****                     receiver_obj->data.val_list[15] = crsf_frame_channel.ch15;
 618              		.loc 1 304 21 is_stmt 1 view .LVU192
 304:Service/Srv_Receiver.c ****                     receiver_obj->data.val_list[15] = crsf_frame_channel.ch15;
 619              		.loc 1 304 39 is_stmt 0 view .LVU193
 620 01a0 D4F81720 		ldr	r2, [r4, #23]	@ unaligned
 304:Service/Srv_Receiver.c ****                     receiver_obj->data.val_list[15] = crsf_frame_channel.ch15;
 621              		.loc 1 304 73 view .LVU194
 622 01a4 9DF82B10 		ldrb	r1, [sp, #43]	@ zero_extendqisi2
 623 01a8 9DF82C30 		ldrb	r3, [sp, #44]	@ zero_extendqisi2
 624 01ac 03F01F03 		and	r3, r3, #31
 625 01b0 9B01     		lsls	r3, r3, #6
 626 01b2 43EA9103 		orr	r3, r3, r1, lsr #2
 304:Service/Srv_Receiver.c ****                     receiver_obj->data.val_list[15] = crsf_frame_channel.ch15;
 627              		.loc 1 304 53 view .LVU195
 628 01b6 9383     		strh	r3, [r2, #28]	@ movhi
 305:Service/Srv_Receiver.c **** 
 629              		.loc 1 305 21 is_stmt 1 view .LVU196
 305:Service/Srv_Receiver.c **** 
 630              		.loc 1 305 39 is_stmt 0 view .LVU197
ARM GAS  /var/folders/lx/hc4sn_b53233_zkc9xbbl97r0000gp/T//ccCP9Y0e.s 			page 22


 631 01b8 D4F81720 		ldr	r2, [r4, #23]	@ unaligned
 305:Service/Srv_Receiver.c **** 
 632              		.loc 1 305 73 view .LVU198
 633 01bc BDF82C30 		ldrh	r3, [sp, #44]
 634 01c0 C3F34A13 		ubfx	r3, r3, #5, #11
 305:Service/Srv_Receiver.c **** 
 635              		.loc 1 305 53 view .LVU199
 636 01c4 D383     		strh	r3, [r2, #30]	@ movhi
 307:Service/Srv_Receiver.c ****                     {
 637              		.loc 1 307 21 is_stmt 1 view .LVU200
 307:Service/Srv_Receiver.c ****                     {
 638              		.loc 1 307 37 is_stmt 0 view .LVU201
 639 01c6 D4F82A30 		ldr	r3, [r4, #42]	@ unaligned
 307:Service/Srv_Receiver.c ****                     {
 640              		.loc 1 307 24 view .LVU202
 641 01ca A3BB     		cbnz	r3, .L38
 642              	.L31:
 319:Service/Srv_Receiver.c ****                     break;
 643              		.loc 1 319 21 is_stmt 1 view .LVU203
 319:Service/Srv_Receiver.c ****                     break;
 644              		.loc 1 319 49 is_stmt 0 view .LVU204
 645 01cc 0023     		movs	r3, #0
 646 01ce E377     		strb	r3, [r4, #31]
 320:Service/Srv_Receiver.c **** 
 647              		.loc 1 320 21 is_stmt 1 view .LVU205
 648 01d0 3AE7     		b	.L34
 649              	.LVL33:
 650              	.L26:
 283:Service/Srv_Receiver.c ****                     receiver_obj->data.link_quality = ((DevCRSF_TypeDef *)(receiver_obj->frame_api)
 651              		.loc 1 283 21 view .LVU206
 283:Service/Srv_Receiver.c ****                     receiver_obj->data.link_quality = ((DevCRSF_TypeDef *)(receiver_obj->frame_api)
 652              		.loc 1 283 80 is_stmt 0 view .LVU207
 653 01d2 236A     		ldr	r3, [r4, #32]	@ unaligned
 283:Service/Srv_Receiver.c ****                     receiver_obj->data.link_quality = ((DevCRSF_TypeDef *)(receiver_obj->frame_api)
 654              		.loc 1 283 93 view .LVU208
 655 01d4 DB68     		ldr	r3, [r3, #12]
 283:Service/Srv_Receiver.c ****                     receiver_obj->data.link_quality = ((DevCRSF_TypeDef *)(receiver_obj->frame_api)
 656              		.loc 1 283 48 view .LVU209
 657 01d6 D4F80F10 		ldr	r1, [r4, #15]	@ unaligned
 658 01da 0CA8     		add	r0, sp, #48
 659              	.LVL34:
 283:Service/Srv_Receiver.c ****                     receiver_obj->data.link_quality = ((DevCRSF_TypeDef *)(receiver_obj->frame_api)
 660              		.loc 1 283 48 view .LVU210
 661 01dc 9847     		blx	r3
 662              	.LVL35:
 283:Service/Srv_Receiver.c ****                     receiver_obj->data.link_quality = ((DevCRSF_TypeDef *)(receiver_obj->frame_api)
 663              		.loc 1 283 139 view .LVU211
 664 01de 9DF83030 		ldrb	r3, [sp, #48]	@ zero_extendqisi2
 283:Service/Srv_Receiver.c ****                     receiver_obj->data.link_quality = ((DevCRSF_TypeDef *)(receiver_obj->frame_api)
 665              		.loc 1 283 45 view .LVU212
 666 01e2 A4F81B30 		strh	r3, [r4, #27]	@ unaligned
 284:Service/Srv_Receiver.c ****                     break;
 667              		.loc 1 284 21 is_stmt 1 view .LVU213
 284:Service/Srv_Receiver.c ****                     break;
 668              		.loc 1 284 88 is_stmt 0 view .LVU214
 669 01e6 236A     		ldr	r3, [r4, #32]	@ unaligned
 284:Service/Srv_Receiver.c ****                     break;
ARM GAS  /var/folders/lx/hc4sn_b53233_zkc9xbbl97r0000gp/T//ccCP9Y0e.s 			page 23


 670              		.loc 1 284 101 view .LVU215
 671 01e8 DB68     		ldr	r3, [r3, #12]
 284:Service/Srv_Receiver.c ****                     break;
 672              		.loc 1 284 56 view .LVU216
 673 01ea D4F80F10 		ldr	r1, [r4, #15]	@ unaligned
 674 01ee 0FA8     		add	r0, sp, #60
 675 01f0 9847     		blx	r3
 676              	.LVL36:
 284:Service/Srv_Receiver.c ****                     break;
 677              		.loc 1 284 147 view .LVU217
 678 01f2 9DF83E30 		ldrb	r3, [sp, #62]	@ zero_extendqisi2
 284:Service/Srv_Receiver.c ****                     break;
 679              		.loc 1 284 53 view .LVU218
 680 01f6 A4F81D30 		strh	r3, [r4, #29]	@ unaligned
 285:Service/Srv_Receiver.c **** 
 681              		.loc 1 285 21 is_stmt 1 view .LVU219
 682 01fa 25E7     		b	.L34
 683              	.LVL37:
 684              	.L32:
 685              	.LBB6:
 309:Service/Srv_Receiver.c ****                         {
 686              		.loc 1 309 76 discriminator 2 view .LVU220
 309:Service/Srv_Receiver.c ****                         {
 687              		.loc 1 309 77 is_stmt 0 discriminator 2 view .LVU221
 688 01fc 0133     		adds	r3, r3, #1
 689              	.LVL38:
 309:Service/Srv_Receiver.c ****                         {
 690              		.loc 1 309 77 discriminator 2 view .LVU222
 691 01fe DBB2     		uxtb	r3, r3
 692              	.LVL39:
 693              	.L30:
 309:Service/Srv_Receiver.c ****                         {
 694              		.loc 1 309 45 is_stmt 1 discriminator 1 view .LVU223
 309:Service/Srv_Receiver.c ****                         {
 695              		.loc 1 309 61 is_stmt 0 discriminator 1 view .LVU224
 696 0200 A27B     		ldrb	r2, [r4, #14]	@ zero_extendqisi2
 309:Service/Srv_Receiver.c ****                         {
 697              		.loc 1 309 25 discriminator 1 view .LVU225
 698 0202 9A42     		cmp	r2, r3
 699 0204 E2D9     		bls	.L31
 311:Service/Srv_Receiver.c ****                             {
 700              		.loc 1 311 29 is_stmt 1 view .LVU226
 311:Service/Srv_Receiver.c ****                             {
 701              		.loc 1 311 45 is_stmt 0 view .LVU227
 702 0206 D4F82A10 		ldr	r1, [r4, #42]	@ unaligned
 311:Service/Srv_Receiver.c ****                             {
 703              		.loc 1 311 63 view .LVU228
 704 020a 0122     		movs	r2, #1
 705 020c 9A40     		lsls	r2, r2, r3
 311:Service/Srv_Receiver.c ****                             {
 706              		.loc 1 311 32 view .LVU229
 707 020e 1142     		tst	r1, r2
 708 0210 F4D0     		beq	.L32
 313:Service/Srv_Receiver.c ****                                 receiver_obj->data.val_list[i] = CHANNEL_RANGE_MID - receiver_obj->
 709              		.loc 1 313 33 is_stmt 1 view .LVU230
 313:Service/Srv_Receiver.c ****                                 receiver_obj->data.val_list[i] = CHANNEL_RANGE_MID - receiver_obj->
 710              		.loc 1 313 51 is_stmt 0 view .LVU231
ARM GAS  /var/folders/lx/hc4sn_b53233_zkc9xbbl97r0000gp/T//ccCP9Y0e.s 			page 24


 711 0212 D4F81710 		ldr	r1, [r4, #23]	@ unaligned
 313:Service/Srv_Receiver.c ****                                 receiver_obj->data.val_list[i] = CHANNEL_RANGE_MID - receiver_obj->
 712              		.loc 1 313 64 view .LVU232
 713 0216 31F81320 		ldrh	r2, [r1, r3, lsl #1]
 714 021a A2F2DC52 		subw	r2, r2, #1500
 715 021e 21F81320 		strh	r2, [r1, r3, lsl #1]	@ movhi
 314:Service/Srv_Receiver.c ****                             }
 716              		.loc 1 314 33 is_stmt 1 view .LVU233
 314:Service/Srv_Receiver.c ****                             }
 717              		.loc 1 314 104 is_stmt 0 view .LVU234
 718 0222 D4F81710 		ldr	r1, [r4, #23]	@ unaligned
 314:Service/Srv_Receiver.c ****                             }
 719              		.loc 1 314 113 view .LVU235
 720 0226 31F81300 		ldrh	r0, [r1, r3, lsl #1]
 314:Service/Srv_Receiver.c ****                             }
 721              		.loc 1 314 84 view .LVU236
 722 022a 40F2DC52 		movw	r2, #1500
 723 022e 121A     		subs	r2, r2, r0
 314:Service/Srv_Receiver.c ****                             }
 724              		.loc 1 314 64 view .LVU237
 725 0230 21F81320 		strh	r2, [r1, r3, lsl #1]	@ movhi
 726 0234 E2E7     		b	.L32
 727              	.LVL40:
 728              	.L38:
 309:Service/Srv_Receiver.c ****                         {
 729              		.loc 1 309 38 view .LVU238
 730 0236 0023     		movs	r3, #0
 731 0238 E2E7     		b	.L30
 732              	.LVL41:
 733              	.L36:
 309:Service/Srv_Receiver.c ****                         {
 734              		.loc 1 309 38 view .LVU239
 735              	.LBE6:
 736              	.LBE5:
 737              	.LBB7:
 330:Service/Srv_Receiver.c ****                     {
 738              		.loc 1 330 72 is_stmt 1 discriminator 2 view .LVU240
 330:Service/Srv_Receiver.c ****                     {
 739              		.loc 1 330 73 is_stmt 0 discriminator 2 view .LVU241
 740 023a 0133     		adds	r3, r3, #1
 741              	.LVL42:
 330:Service/Srv_Receiver.c ****                     {
 742              		.loc 1 330 73 discriminator 2 view .LVU242
 743 023c DBB2     		uxtb	r3, r3
 744              	.LVL43:
 745              	.L35:
 330:Service/Srv_Receiver.c ****                     {
 746              		.loc 1 330 41 is_stmt 1 discriminator 1 view .LVU243
 330:Service/Srv_Receiver.c ****                     {
 747              		.loc 1 330 57 is_stmt 0 discriminator 1 view .LVU244
 748 023e A27B     		ldrb	r2, [r4, #14]	@ zero_extendqisi2
 330:Service/Srv_Receiver.c ****                     {
 749              		.loc 1 330 21 discriminator 1 view .LVU245
 750 0240 9A42     		cmp	r2, r3
 751 0242 7FF601AF 		bls	.L34
 332:Service/Srv_Receiver.c **** 
 752              		.loc 1 332 25 is_stmt 1 view .LVU246
ARM GAS  /var/folders/lx/hc4sn_b53233_zkc9xbbl97r0000gp/T//ccCP9Y0e.s 			page 25


 332:Service/Srv_Receiver.c **** 
 753              		.loc 1 332 93 is_stmt 0 view .LVU247
 754 0246 D4F80F10 		ldr	r1, [r4, #15]	@ unaligned
 332:Service/Srv_Receiver.c **** 
 755              		.loc 1 332 43 view .LVU248
 756 024a D4F81720 		ldr	r2, [r4, #23]	@ unaligned
 332:Service/Srv_Receiver.c **** 
 757              		.loc 1 332 52 view .LVU249
 758 024e 5800     		lsls	r0, r3, #1
 332:Service/Srv_Receiver.c **** 
 759              		.loc 1 332 115 view .LVU250
 760 0250 31F81310 		ldrh	r1, [r1, r3, lsl #1]	@ unaligned
 332:Service/Srv_Receiver.c **** 
 761              		.loc 1 332 56 view .LVU251
 762 0254 22F81310 		strh	r1, [r2, r3, lsl #1]	@ movhi
 334:Service/Srv_Receiver.c ****                         {
 763              		.loc 1 334 25 is_stmt 1 view .LVU252
 334:Service/Srv_Receiver.c ****                         {
 764              		.loc 1 334 41 is_stmt 0 view .LVU253
 765 0258 D4F82A20 		ldr	r2, [r4, #42]	@ unaligned
 334:Service/Srv_Receiver.c ****                         {
 766              		.loc 1 334 28 view .LVU254
 767 025c 002A     		cmp	r2, #0
 768 025e ECD0     		beq	.L36
 334:Service/Srv_Receiver.c ****                         {
 769              		.loc 1 334 88 discriminator 1 view .LVU255
 770 0260 0121     		movs	r1, #1
 771 0262 9940     		lsls	r1, r1, r3
 334:Service/Srv_Receiver.c ****                         {
 772              		.loc 1 334 55 discriminator 1 view .LVU256
 773 0264 0A42     		tst	r2, r1
 774 0266 E8D0     		beq	.L36
 336:Service/Srv_Receiver.c ****                             receiver_obj->data.val_list[i] = CHANNEL_RANGE_MID - receiver_obj->data
 775              		.loc 1 336 29 is_stmt 1 view .LVU257
 336:Service/Srv_Receiver.c ****                             receiver_obj->data.val_list[i] = CHANNEL_RANGE_MID - receiver_obj->data
 776              		.loc 1 336 47 is_stmt 0 view .LVU258
 777 0268 D4F81710 		ldr	r1, [r4, #23]	@ unaligned
 336:Service/Srv_Receiver.c ****                             receiver_obj->data.val_list[i] = CHANNEL_RANGE_MID - receiver_obj->data
 778              		.loc 1 336 60 view .LVU259
 779 026c 0A5A     		ldrh	r2, [r1, r0]
 780 026e A2F2DC52 		subw	r2, r2, #1500
 781 0272 0A52     		strh	r2, [r1, r0]	@ movhi
 337:Service/Srv_Receiver.c ****                         }
 782              		.loc 1 337 29 is_stmt 1 view .LVU260
 337:Service/Srv_Receiver.c ****                         }
 783              		.loc 1 337 100 is_stmt 0 view .LVU261
 784 0274 D4F81710 		ldr	r1, [r4, #23]	@ unaligned
 337:Service/Srv_Receiver.c ****                         }
 785              		.loc 1 337 109 view .LVU262
 786 0278 31F800C0 		ldrh	ip, [r1, r0]
 337:Service/Srv_Receiver.c ****                         }
 787              		.loc 1 337 80 view .LVU263
 788 027c 40F2DC52 		movw	r2, #1500
 789 0280 A2EB0C02 		sub	r2, r2, ip
 337:Service/Srv_Receiver.c ****                         }
 790              		.loc 1 337 60 view .LVU264
 791 0284 0A52     		strh	r2, [r1, r0]	@ movhi
ARM GAS  /var/folders/lx/hc4sn_b53233_zkc9xbbl97r0000gp/T//ccCP9Y0e.s 			page 26


 792 0286 D8E7     		b	.L36
 793              	.LVL44:
 794              	.L40:
 795              	.LCFI9:
 796              		.cfi_def_cfa_offset 0
 797              		.cfi_restore 4
 798              		.cfi_restore 5
 799              		.cfi_restore 14
 337:Service/Srv_Receiver.c ****                         }
 800              		.loc 1 337 60 view .LVU265
 801 0288 7047     		bx	lr
 802              	.LBE7:
 803              		.cfi_endproc
 804              	.LFE150:
 806              		.section	.rodata.SrvReceiver_Init.str1.4,"aMS",%progbits,1
 807              		.align	2
 808              	.LC0:
 809 0000 53727652 		.ascii	"SrvReceiver_Error\000"
 809      65636569 
 809      7665725F 
 809      4572726F 
 809      7200
 810              		.section	.text.SrvReceiver_Init,"ax",%progbits
 811              		.align	1
 812              		.syntax unified
 813              		.thumb
 814              		.thumb_func
 815              		.fpu fpv5-d16
 817              	SrvReceiver_Init:
 818              	.LVL45:
 819              	.LFB149:
 130:Service/Srv_Receiver.c ****     bool data_obj_error = false;
 820              		.loc 1 130 1 is_stmt 1 view -0
 821              		.cfi_startproc
 822              		@ args = 0, pretend = 0, frame = 0
 823              		@ frame_needed = 0, uses_anonymous_args = 0
 130:Service/Srv_Receiver.c ****     bool data_obj_error = false;
 824              		.loc 1 130 1 is_stmt 0 view .LVU267
 825 0000 F8B5     		push	{r3, r4, r5, r6, r7, lr}
 826              	.LCFI10:
 827              		.cfi_def_cfa_offset 24
 828              		.cfi_offset 3, -24
 829              		.cfi_offset 4, -20
 830              		.cfi_offset 5, -16
 831              		.cfi_offset 6, -12
 832              		.cfi_offset 7, -8
 833              		.cfi_offset 14, -4
 131:Service/Srv_Receiver.c ****     BspUARTObj_TypeDef *Uart_Receiver_Obj = NULL;
 834              		.loc 1 131 5 is_stmt 1 view .LVU268
 835              	.LVL46:
 132:Service/Srv_Receiver.c **** 
 836              		.loc 1 132 5 view .LVU269
 134:Service/Srv_Receiver.c ****         return false;
 837              		.loc 1 134 5 view .LVU270
 134:Service/Srv_Receiver.c ****         return false;
 838              		.loc 1 134 8 is_stmt 0 view .LVU271
 839 0002 0029     		cmp	r1, #0
ARM GAS  /var/folders/lx/hc4sn_b53233_zkc9xbbl97r0000gp/T//ccCP9Y0e.s 			page 27


 840 0004 18BF     		it	ne
 841 0006 0028     		cmpne	r0, #0
 842 0008 0CBF     		ite	eq
 843 000a 0124     		moveq	r4, #1
 844 000c 0024     		movne	r4, #0
 845 000e 02D1     		bne	.L63
 135:Service/Srv_Receiver.c **** 
 846              		.loc 1 135 16 view .LVU272
 847 0010 0024     		movs	r4, #0
 848              	.LVL47:
 849              	.L46:
 252:Service/Srv_Receiver.c **** 
 850              		.loc 1 252 1 view .LVU273
 851 0012 2046     		mov	r0, r4
 852 0014 F8BD     		pop	{r3, r4, r5, r6, r7, pc}
 853              	.LVL48:
 854              	.L63:
 252:Service/Srv_Receiver.c **** 
 855              		.loc 1 252 1 view .LVU274
 856 0016 0546     		mov	r5, r0
 857 0018 0E46     		mov	r6, r1
 137:Service/Srv_Receiver.c **** 
 858              		.loc 1 137 5 is_stmt 1 view .LVU275
 859 001a 4FF48062 		mov	r2, #1024
 860 001e 0021     		movs	r1, #0
 861              	.LVL49:
 137:Service/Srv_Receiver.c **** 
 862              		.loc 1 137 5 is_stmt 0 view .LVU276
 863 0020 5948     		ldr	r0, .L68
 864              	.LVL50:
 137:Service/Srv_Receiver.c **** 
 865              		.loc 1 137 5 view .LVU277
 866 0022 FFF7FEFF 		bl	memset
 867              	.LVL51:
 140:Service/Srv_Receiver.c **** 
 868              		.loc 1 140 5 is_stmt 1 view .LVU278
 140:Service/Srv_Receiver.c **** 
 869              		.loc 1 140 40 is_stmt 0 view .LVU279
 870 0026 594F     		ldr	r7, .L68+4
 871 0028 3B68     		ldr	r3, [r7]
 140:Service/Srv_Receiver.c **** 
 872              		.loc 1 140 32 view .LVU280
 873 002a 5948     		ldr	r0, .L68+8
 874 002c 9847     		blx	r3
 875              	.LVL52:
 140:Service/Srv_Receiver.c **** 
 876              		.loc 1 140 30 view .LVU281
 877 002e 594B     		ldr	r3, .L68+12
 878 0030 1860     		str	r0, [r3]
 143:Service/Srv_Receiver.c **** 
 879              		.loc 1 143 5 is_stmt 1 view .LVU282
 143:Service/Srv_Receiver.c **** 
 880              		.loc 1 143 13 is_stmt 0 view .LVU283
 881 0032 7B68     		ldr	r3, [r7, #4]
 143:Service/Srv_Receiver.c **** 
 882              		.loc 1 143 5 view .LVU284
 883 0034 0422     		movs	r2, #4
ARM GAS  /var/folders/lx/hc4sn_b53233_zkc9xbbl97r0000gp/T//ccCP9Y0e.s 			page 28


 884 0036 5849     		ldr	r1, .L68+16
 885 0038 9847     		blx	r3
 886              	.LVL53:
 145:Service/Srv_Receiver.c ****     {
 887              		.loc 1 145 5 is_stmt 1 view .LVU285
 145:Service/Srv_Receiver.c ****     {
 888              		.loc 1 145 16 is_stmt 0 view .LVU286
 889 003a 6B78     		ldrb	r3, [r5, #1]	@ zero_extendqisi2
 145:Service/Srv_Receiver.c ****     {
 890              		.loc 1 145 5 view .LVU287
 891 003c 012B     		cmp	r3, #1
 892 003e 0AD0     		beq	.L47
 145:Service/Srv_Receiver.c ****     {
 893              		.loc 1 145 5 view .LVU288
 894 0040 022B     		cmp	r3, #2
 895 0042 60D0     		beq	.L48
 245:Service/Srv_Receiver.c ****         return false;
 896              		.loc 1 245 9 is_stmt 1 view .LVU289
 245:Service/Srv_Receiver.c ****         return false;
 897              		.loc 1 245 17 is_stmt 0 view .LVU290
 898 0044 514B     		ldr	r3, .L68+4
 899 0046 9D68     		ldr	r5, [r3, #8]
 900              	.LVL54:
 245:Service/Srv_Receiver.c ****         return false;
 901              		.loc 1 245 9 view .LVU291
 902 0048 1E23     		movs	r3, #30
 903 004a 544A     		ldr	r2, .L68+20
 904 004c 0121     		movs	r1, #1
 905 004e 5148     		ldr	r0, .L68+12
 906 0050 0068     		ldr	r0, [r0]
 907 0052 A847     		blx	r5
 908              	.LVL55:
 246:Service/Srv_Receiver.c ****     }
 909              		.loc 1 246 9 is_stmt 1 view .LVU292
 246:Service/Srv_Receiver.c ****     }
 910              		.loc 1 246 16 is_stmt 0 view .LVU293
 911 0054 DDE7     		b	.L46
 912              	.LVL56:
 913              	.L47:
 148:Service/Srv_Receiver.c **** 
 914              		.loc 1 148 9 is_stmt 1 view .LVU294
 150:Service/Srv_Receiver.c **** 
 915              		.loc 1 150 9 view .LVU295
 916 0056 1E22     		movs	r2, #30
 917 0058 0021     		movs	r1, #0
 918 005a 5048     		ldr	r0, .L68+20
 919 005c FFF7FEFF 		bl	memset
 920              	.LVL57:
 152:Service/Srv_Receiver.c ****         {
 921              		.loc 1 152 9 view .LVU296
 152:Service/Srv_Receiver.c ****         {
 922              		.loc 1 152 20 is_stmt 0 view .LVU297
 923 0060 2B78     		ldrb	r3, [r5]	@ zero_extendqisi2
 924 0062 002B     		cmp	r3, #0
 925 0064 5AD0     		beq	.L50
 926 0066 012B     		cmp	r3, #1
 927 0068 D3D1     		bne	.L46
ARM GAS  /var/folders/lx/hc4sn_b53233_zkc9xbbl97r0000gp/T//ccCP9Y0e.s 			page 29


 180:Service/Srv_Receiver.c **** 
 928              		.loc 1 180 13 is_stmt 1 view .LVU298
 180:Service/Srv_Receiver.c **** 
 929              		.loc 1 180 41 is_stmt 0 view .LVU299
 930 006a 6FF05F03 		mvn	r3, #95
 931 006e 3370     		strb	r3, [r6]
 932 0070 6823     		movs	r3, #104
 933 0072 7370     		strb	r3, [r6, #1]
 934 0074 0623     		movs	r3, #6
 935 0076 B370     		strb	r3, [r6, #2]
 936 0078 0023     		movs	r3, #0
 937 007a F370     		strb	r3, [r6, #3]
 183:Service/Srv_Receiver.c ****             if (obj->frame_data_obj == NULL)
 938              		.loc 1 183 13 is_stmt 1 view .LVU300
 183:Service/Srv_Receiver.c ****             if (obj->frame_data_obj == NULL)
 939              		.loc 1 183 35 is_stmt 0 view .LVU301
 940 007c 6420     		movs	r0, #100
 941 007e FFF7FEFF 		bl	MMU_Malloc
 942              	.LVL58:
 183:Service/Srv_Receiver.c ****             if (obj->frame_data_obj == NULL)
 943              		.loc 1 183 33 view .LVU302
 944 0082 C5F80F00 		str	r0, [r5, #15]	@ unaligned
 184:Service/Srv_Receiver.c ****             {
 945              		.loc 1 184 13 is_stmt 1 view .LVU303
 184:Service/Srv_Receiver.c ****             {
 946              		.loc 1 184 16 is_stmt 0 view .LVU304
 947 0086 0028     		cmp	r0, #0
 948 0088 65D0     		beq	.L59
 191:Service/Srv_Receiver.c ****             obj->inverter_init = NULL;
 949              		.loc 1 191 13 is_stmt 1 view .LVU305
 191:Service/Srv_Receiver.c ****             obj->inverter_init = NULL;
 950              		.loc 1 191 33 is_stmt 0 view .LVU306
 951 008a 0023     		movs	r3, #0
 952 008c 85F83E30 		strb	r3, [r5, #62]
 953 0090 85F83F30 		strb	r3, [r5, #63]
 954 0094 85F84030 		strb	r3, [r5, #64]
 955 0098 85F84130 		strb	r3, [r5, #65]
 192:Service/Srv_Receiver.c **** 
 956              		.loc 1 192 13 is_stmt 1 view .LVU307
 192:Service/Srv_Receiver.c **** 
 957              		.loc 1 192 32 is_stmt 0 view .LVU308
 958 009c 85F83A30 		strb	r3, [r5, #58]
 959 00a0 85F83B30 		strb	r3, [r5, #59]
 960 00a4 85F83C30 		strb	r3, [r5, #60]
 961 00a8 85F83D30 		strb	r3, [r5, #61]
 195:Service/Srv_Receiver.c **** 
 962              		.loc 1 195 13 is_stmt 1 view .LVU309
 195:Service/Srv_Receiver.c **** 
 963              		.loc 1 195 30 is_stmt 0 view .LVU310
 964 00ac 1023     		movs	r3, #16
 965 00ae AB73     		strb	r3, [r5, #14]
 198:Service/Srv_Receiver.c **** 
 966              		.loc 1 198 13 is_stmt 1 view .LVU311
 198:Service/Srv_Receiver.c **** 
 967              		.loc 1 198 28 is_stmt 0 view .LVU312
 968 00b0 3B4B     		ldr	r3, .L68+24
 969 00b2 2B62     		str	r3, [r5, #32]	@ unaligned
ARM GAS  /var/folders/lx/hc4sn_b53233_zkc9xbbl97r0000gp/T//ccCP9Y0e.s 			page 30


 200:Service/Srv_Receiver.c ****                 return false;
 970              		.loc 1 200 13 is_stmt 1 view .LVU313
 200:Service/Srv_Receiver.c ****                 return false;
 971              		.loc 1 200 55 is_stmt 0 view .LVU314
 972 00b4 1B68     		ldr	r3, [r3]
 200:Service/Srv_Receiver.c ****                 return false;
 973              		.loc 1 200 19 view .LVU315
 974 00b6 9847     		blx	r3
 975              	.LVL59:
 200:Service/Srv_Receiver.c ****                 return false;
 976              		.loc 1 200 16 view .LVU316
 977 00b8 0028     		cmp	r0, #0
 978 00ba 63D0     		beq	.L60
 131:Service/Srv_Receiver.c ****     BspUARTObj_TypeDef *Uart_Receiver_Obj = NULL;
 979              		.loc 1 131 10 view .LVU317
 980 00bc 2746     		mov	r7, r4
 981              	.L52:
 982              	.LVL60:
 208:Service/Srv_Receiver.c ****         if (!obj->data.val_list)
 983              		.loc 1 208 9 is_stmt 1 view .LVU318
 208:Service/Srv_Receiver.c ****         if (!obj->data.val_list)
 984              		.loc 1 208 75 is_stmt 0 view .LVU319
 985 00be A87B     		ldrb	r0, [r5, #14]	@ zero_extendqisi2
 208:Service/Srv_Receiver.c ****         if (!obj->data.val_list)
 986              		.loc 1 208 42 view .LVU320
 987 00c0 4000     		lsls	r0, r0, #1
 988 00c2 FFF7FEFF 		bl	MMU_Malloc
 989              	.LVL61:
 208:Service/Srv_Receiver.c ****         if (!obj->data.val_list)
 990              		.loc 1 208 28 view .LVU321
 991 00c6 C5F81700 		str	r0, [r5, #23]	@ unaligned
 209:Service/Srv_Receiver.c ****         {
 992              		.loc 1 209 9 is_stmt 1 view .LVU322
 209:Service/Srv_Receiver.c ****         {
 993              		.loc 1 209 12 is_stmt 0 view .LVU323
 994 00ca 0028     		cmp	r0, #0
 995 00cc 45D0     		beq	.L64
 215:Service/Srv_Receiver.c ****         {
 996              		.loc 1 215 9 is_stmt 1 view .LVU324
 215:Service/Srv_Receiver.c ****         {
 997              		.loc 1 215 12 is_stmt 0 view .LVU325
 998 00ce 002F     		cmp	r7, #0
 999 00d0 46D1     		bne	.L65
 222:Service/Srv_Receiver.c ****         Uart_Receiver_Obj->rx_size = SRV_RECEIVER_BUFF_SIZE;
 1000              		.loc 1 222 9 is_stmt 1 view .LVU326
 222:Service/Srv_Receiver.c ****         Uart_Receiver_Obj->rx_size = SRV_RECEIVER_BUFF_SIZE;
 1001              		.loc 1 222 35 is_stmt 0 view .LVU327
 1002 00d2 2D4B     		ldr	r3, .L68
 1003 00d4 C6F8AD31 		str	r3, [r6, #429]	@ unaligned
 223:Service/Srv_Receiver.c ****         Uart_Receiver_Obj->cust_data_addr = obj;
 1004              		.loc 1 223 9 is_stmt 1 view .LVU328
 223:Service/Srv_Receiver.c ****         Uart_Receiver_Obj->cust_data_addr = obj;
 1005              		.loc 1 223 36 is_stmt 0 view .LVU329
 1006 00d8 0023     		movs	r3, #0
 1007 00da 86F8B131 		strb	r3, [r6, #433]
 1008 00de 0423     		movs	r3, #4
 1009 00e0 86F8B231 		strb	r3, [r6, #434]
ARM GAS  /var/folders/lx/hc4sn_b53233_zkc9xbbl97r0000gp/T//ccCP9Y0e.s 			page 31


 224:Service/Srv_Receiver.c **** 
 1010              		.loc 1 224 9 is_stmt 1 view .LVU330
 224:Service/Srv_Receiver.c **** 
 1011              		.loc 1 224 43 is_stmt 0 view .LVU331
 1012 00e4 C6F8B351 		str	r5, [r6, #435]	@ unaligned
 227:Service/Srv_Receiver.c **** 
 1013              		.loc 1 227 9 is_stmt 1 view .LVU332
 227:Service/Srv_Receiver.c **** 
 1014              		.loc 1 227 39 is_stmt 0 view .LVU333
 1015 00e8 2E4B     		ldr	r3, .L68+28
 1016 00ea C6F8A931 		str	r3, [r6, #425]	@ unaligned
 230:Service/Srv_Receiver.c ****         {
 1017              		.loc 1 230 9 is_stmt 1 view .LVU334
 230:Service/Srv_Receiver.c ****         {
 1018              		.loc 1 230 21 is_stmt 0 view .LVU335
 1019 00ee 2E4B     		ldr	r3, .L68+32
 1020 00f0 1B68     		ldr	r3, [r3]
 230:Service/Srv_Receiver.c ****         {
 1021              		.loc 1 230 14 view .LVU336
 1022 00f2 3046     		mov	r0, r6
 1023 00f4 9847     		blx	r3
 1024              	.LVL62:
 230:Service/Srv_Receiver.c ****         {
 1025              		.loc 1 230 12 view .LVU337
 1026 00f6 0446     		mov	r4, r0
 1027 00f8 0028     		cmp	r0, #0
 1028 00fa 3AD0     		beq	.L66
 236:Service/Srv_Receiver.c ****         obj->port->cfg = Uart_Receiver_Obj;
 1029              		.loc 1 236 9 is_stmt 1 view .LVU338
 236:Service/Srv_Receiver.c ****         obj->port->cfg = Uart_Receiver_Obj;
 1030              		.loc 1 236 12 is_stmt 0 view .LVU339
 1031 00fc 6B6A     		ldr	r3, [r5, #36]	@ unaligned
 236:Service/Srv_Receiver.c ****         obj->port->cfg = Uart_Receiver_Obj;
 1032              		.loc 1 236 24 view .LVU340
 1033 00fe 2A4A     		ldr	r2, .L68+32
 1034 0100 1A60     		str	r2, [r3]	@ unaligned
 237:Service/Srv_Receiver.c ****         break;
 1035              		.loc 1 237 9 is_stmt 1 view .LVU341
 237:Service/Srv_Receiver.c ****         break;
 1036              		.loc 1 237 12 is_stmt 0 view .LVU342
 1037 0102 6B6A     		ldr	r3, [r5, #36]	@ unaligned
 237:Service/Srv_Receiver.c ****         break;
 1038              		.loc 1 237 24 view .LVU343
 1039 0104 5E60     		str	r6, [r3, #4]	@ unaligned
 238:Service/Srv_Receiver.c **** 
 1040              		.loc 1 238 9 is_stmt 1 view .LVU344
 1041              	.LVL63:
 1042              	.L48:
 249:Service/Srv_Receiver.c **** 
 1043              		.loc 1 249 5 view .LVU345
 249:Service/Srv_Receiver.c **** 
 1044              		.loc 1 249 22 is_stmt 0 view .LVU346
 1045 0106 0023     		movs	r3, #0
 1046 0108 85F82A30 		strb	r3, [r5, #42]
 1047 010c 85F82B30 		strb	r3, [r5, #43]
 1048 0110 85F82C30 		strb	r3, [r5, #44]
 1049 0114 85F82D30 		strb	r3, [r5, #45]
ARM GAS  /var/folders/lx/hc4sn_b53233_zkc9xbbl97r0000gp/T//ccCP9Y0e.s 			page 32


 251:Service/Srv_Receiver.c **** }
 1050              		.loc 1 251 5 is_stmt 1 view .LVU347
 251:Service/Srv_Receiver.c **** }
 1051              		.loc 1 251 12 is_stmt 0 view .LVU348
 1052 0118 0124     		movs	r4, #1
 1053 011a 7AE7     		b	.L46
 1054              	.LVL64:
 1055              	.L50:
 155:Service/Srv_Receiver.c **** 
 1056              		.loc 1 155 13 is_stmt 1 view .LVU349
 155:Service/Srv_Receiver.c **** 
 1057              		.loc 1 155 41 is_stmt 0 view .LVU350
 1058 011c 6FF05F03 		mvn	r3, #95
 1059 0120 3370     		strb	r3, [r6]
 1060 0122 6FF07903 		mvn	r3, #121
 1061 0126 7370     		strb	r3, [r6, #1]
 1062 0128 0123     		movs	r3, #1
 1063 012a B370     		strb	r3, [r6, #2]
 1064 012c 0023     		movs	r3, #0
 1065 012e F370     		strb	r3, [r6, #3]
 158:Service/Srv_Receiver.c ****             if (obj->frame_data_obj == NULL)
 1066              		.loc 1 158 13 is_stmt 1 view .LVU351
 158:Service/Srv_Receiver.c ****             if (obj->frame_data_obj == NULL)
 1067              		.loc 1 158 35 is_stmt 0 view .LVU352
 1068 0130 2120     		movs	r0, #33
 1069 0132 FFF7FEFF 		bl	MMU_Malloc
 1070              	.LVL65:
 158:Service/Srv_Receiver.c ****             if (obj->frame_data_obj == NULL)
 1071              		.loc 1 158 33 view .LVU353
 1072 0136 C5F80F00 		str	r0, [r5, #15]	@ unaligned
 159:Service/Srv_Receiver.c ****             {
 1073              		.loc 1 159 13 is_stmt 1 view .LVU354
 159:Service/Srv_Receiver.c ****             {
 1074              		.loc 1 159 16 is_stmt 0 view .LVU355
 1075 013a 50B1     		cbz	r0, .L57
 170:Service/Srv_Receiver.c **** 
 1076              		.loc 1 170 13 is_stmt 1 view .LVU356
 170:Service/Srv_Receiver.c **** 
 1077              		.loc 1 170 30 is_stmt 0 view .LVU357
 1078 013c 1023     		movs	r3, #16
 1079 013e AB73     		strb	r3, [r5, #14]
 173:Service/Srv_Receiver.c **** 
 1080              		.loc 1 173 13 is_stmt 1 view .LVU358
 173:Service/Srv_Receiver.c **** 
 1081              		.loc 1 173 28 is_stmt 0 view .LVU359
 1082 0140 1A4B     		ldr	r3, .L68+36
 1083 0142 2B62     		str	r3, [r5, #32]	@ unaligned
 175:Service/Srv_Receiver.c ****                 return false;
 1084              		.loc 1 175 13 is_stmt 1 view .LVU360
 175:Service/Srv_Receiver.c ****                 return false;
 1085              		.loc 1 175 55 is_stmt 0 view .LVU361
 1086 0144 1B68     		ldr	r3, [r3]
 175:Service/Srv_Receiver.c ****                 return false;
 1087              		.loc 1 175 19 view .LVU362
 1088 0146 9847     		blx	r3
 1089              	.LVL66:
 175:Service/Srv_Receiver.c ****                 return false;
ARM GAS  /var/folders/lx/hc4sn_b53233_zkc9xbbl97r0000gp/T//ccCP9Y0e.s 			page 33


 1090              		.loc 1 175 16 view .LVU363
 1091 0148 08B1     		cbz	r0, .L67
 131:Service/Srv_Receiver.c ****     BspUARTObj_TypeDef *Uart_Receiver_Obj = NULL;
 1092              		.loc 1 131 10 view .LVU364
 1093 014a 2746     		mov	r7, r4
 1094 014c B7E7     		b	.L52
 1095              	.L67:
 176:Service/Srv_Receiver.c ****             break;
 1096              		.loc 1 176 24 view .LVU365
 1097 014e 0446     		mov	r4, r0
 1098 0150 5FE7     		b	.L46
 1099              	.L57:
 161:Service/Srv_Receiver.c ****                 break;
 1100              		.loc 1 161 32 view .LVU366
 1101 0152 0127     		movs	r7, #1
 1102 0154 B3E7     		b	.L52
 1103              	.L59:
 186:Service/Srv_Receiver.c ****                 break;
 1104              		.loc 1 186 32 view .LVU367
 1105 0156 0127     		movs	r7, #1
 1106 0158 B1E7     		b	.L52
 1107              	.LVL67:
 1108              	.L64:
 211:Service/Srv_Receiver.c ****             return false;
 1109              		.loc 1 211 13 is_stmt 1 view .LVU368
 1110 015a FFF7FEFF 		bl	MMU_Free
 1111              	.LVL68:
 212:Service/Srv_Receiver.c ****         }
 1112              		.loc 1 212 13 view .LVU369
 212:Service/Srv_Receiver.c ****         }
 1113              		.loc 1 212 20 is_stmt 0 view .LVU370
 1114 015e 58E7     		b	.L46
 1115              	.L65:
 217:Service/Srv_Receiver.c ****             return false;
 1116              		.loc 1 217 13 is_stmt 1 view .LVU371
 217:Service/Srv_Receiver.c ****             return false;
 1117              		.loc 1 217 21 is_stmt 0 view .LVU372
 1118 0160 0A4B     		ldr	r3, .L68+4
 1119 0162 9D68     		ldr	r5, [r3, #8]
 1120              	.LVL69:
 217:Service/Srv_Receiver.c ****             return false;
 1121              		.loc 1 217 13 view .LVU373
 1122 0164 1E23     		movs	r3, #30
 1123 0166 0D4A     		ldr	r2, .L68+20
 1124 0168 0121     		movs	r1, #1
 1125 016a 0A48     		ldr	r0, .L68+12
 1126 016c 0068     		ldr	r0, [r0]
 1127 016e A847     		blx	r5
 1128              	.LVL70:
 218:Service/Srv_Receiver.c ****         }
 1129              		.loc 1 218 13 is_stmt 1 view .LVU374
 218:Service/Srv_Receiver.c ****         }
 1130              		.loc 1 218 20 is_stmt 0 view .LVU375
 1131 0170 4FE7     		b	.L46
 1132              	.LVL71:
 1133              	.L66:
 232:Service/Srv_Receiver.c ****             return false;
ARM GAS  /var/folders/lx/hc4sn_b53233_zkc9xbbl97r0000gp/T//ccCP9Y0e.s 			page 34


 1134              		.loc 1 232 13 is_stmt 1 view .LVU376
 232:Service/Srv_Receiver.c ****             return false;
 1135              		.loc 1 232 21 is_stmt 0 view .LVU377
 1136 0172 064B     		ldr	r3, .L68+4
 1137 0174 9D68     		ldr	r5, [r3, #8]
 1138              	.LVL72:
 232:Service/Srv_Receiver.c ****             return false;
 1139              		.loc 1 232 13 view .LVU378
 1140 0176 1E23     		movs	r3, #30
 1141 0178 084A     		ldr	r2, .L68+20
 1142 017a 0321     		movs	r1, #3
 1143 017c 0548     		ldr	r0, .L68+12
 1144 017e 0068     		ldr	r0, [r0]
 1145 0180 A847     		blx	r5
 1146              	.LVL73:
 233:Service/Srv_Receiver.c ****         }
 1147              		.loc 1 233 13 is_stmt 1 view .LVU379
 233:Service/Srv_Receiver.c ****         }
 1148              		.loc 1 233 20 is_stmt 0 view .LVU380
 1149 0182 46E7     		b	.L46
 1150              	.LVL74:
 1151              	.L60:
 201:Service/Srv_Receiver.c ****             break;
 1152              		.loc 1 201 24 view .LVU381
 1153 0184 0446     		mov	r4, r0
 1154 0186 44E7     		b	.L46
 1155              	.L69:
 1156              		.align	2
 1157              	.L68:
 1158 0188 00000000 		.word	.LANCHOR0
 1159 018c 00000000 		.word	ErrorLog
 1160 0190 00000000 		.word	.LC0
 1161 0194 00000000 		.word	.LANCHOR1
 1162 0198 00000000 		.word	.LANCHOR2
 1163 019c 00000000 		.word	.LANCHOR3
 1164 01a0 00000000 		.word	DevCRSF
 1165 01a4 00000000 		.word	SrvReceiver_SerialDecode_Callback
 1166 01a8 00000000 		.word	BspUart
 1167 01ac 00000000 		.word	DevSBUS
 1168              		.cfi_endproc
 1169              	.LFE149:
 1171              		.section	.text.SrvReceiver_Create_UartObj,"ax",%progbits
 1172              		.align	1
 1173              		.syntax unified
 1174              		.thumb
 1175              		.thumb_func
 1176              		.fpu fpv5-d16
 1178              	SrvReceiver_Create_UartObj:
 1179              	.LVL75:
 1180              	.LFB147:
 100:Service/Srv_Receiver.c ****     BspUARTObj_TypeDef *Uart_Receiver_Obj = NULL;
 1181              		.loc 1 100 1 is_stmt 1 view -0
 1182              		.cfi_startproc
 1183              		@ args = 32, pretend = 0, frame = 0
 1184              		@ frame_needed = 0, uses_anonymous_args = 0
 100:Service/Srv_Receiver.c ****     BspUARTObj_TypeDef *Uart_Receiver_Obj = NULL;
 1185              		.loc 1 100 1 is_stmt 0 view .LVU383
ARM GAS  /var/folders/lx/hc4sn_b53233_zkc9xbbl97r0000gp/T//ccCP9Y0e.s 			page 35


 1186 0000 2DE9F041 		push	{r4, r5, r6, r7, r8, lr}
 1187              	.LCFI11:
 1188              		.cfi_def_cfa_offset 24
 1189              		.cfi_offset 4, -24
 1190              		.cfi_offset 5, -20
 1191              		.cfi_offset 6, -16
 1192              		.cfi_offset 7, -12
 1193              		.cfi_offset 8, -8
 1194              		.cfi_offset 14, -4
 1195 0004 8046     		mov	r8, r0
 1196 0006 0F46     		mov	r7, r1
 1197 0008 1646     		mov	r6, r2
 1198 000a 1D46     		mov	r5, r3
 101:Service/Srv_Receiver.c **** 
 1199              		.loc 1 101 5 is_stmt 1 view .LVU384
 1200              	.LVL76:
 103:Service/Srv_Receiver.c **** 
 1201              		.loc 1 103 5 view .LVU385
 103:Service/Srv_Receiver.c **** 
 1202              		.loc 1 103 47 is_stmt 0 view .LVU386
 1203 000c 4FF4EB70 		mov	r0, #470
 1204              	.LVL77:
 103:Service/Srv_Receiver.c **** 
 1205              		.loc 1 103 47 view .LVU387
 1206 0010 FFF7FEFF 		bl	MMU_Malloc
 1207              	.LVL78:
 105:Service/Srv_Receiver.c ****     {
 1208              		.loc 1 105 5 is_stmt 1 view .LVU388
 105:Service/Srv_Receiver.c ****     {
 1209              		.loc 1 105 8 is_stmt 0 view .LVU389
 1210 0014 0446     		mov	r4, r0
 1211 0016 38B3     		cbz	r0, .L74
 111:Service/Srv_Receiver.c **** 
 1212              		.loc 1 111 5 is_stmt 1 view .LVU390
 1213 0018 4FF4EB72 		mov	r2, #470
 1214 001c 0021     		movs	r1, #0
 1215 001e FFF7FEFF 		bl	memset
 1216              	.LVL79:
 113:Service/Srv_Receiver.c ****     Uart_Receiver_Obj->tx_io = tx_pin;
 1217              		.loc 1 113 5 view .LVU391
 113:Service/Srv_Receiver.c ****     Uart_Receiver_Obj->tx_io = tx_pin;
 1218              		.loc 1 113 33 is_stmt 0 view .LVU392
 1219 0022 C4F80580 		str	r8, [r4, #5]	@ unaligned
 114:Service/Srv_Receiver.c ****     Uart_Receiver_Obj->rx_io = rx_pin;
 1220              		.loc 1 114 5 is_stmt 1 view .LVU393
 114:Service/Srv_Receiver.c ****     Uart_Receiver_Obj->rx_io = rx_pin;
 1221              		.loc 1 114 30 is_stmt 0 view .LVU394
 1222 0026 0DF1200C 		add	ip, sp, #32
 1223 002a BCE80700 		ldmia	ip!, {r0, r1, r2}
 1224 002e C4F88D01 		str	r0, [r4, #397]	@ unaligned
 1225 0032 C4F89111 		str	r1, [r4, #401]	@ unaligned
 1226 0036 C4F89521 		str	r2, [r4, #405]	@ unaligned
 115:Service/Srv_Receiver.c ****     Uart_Receiver_Obj->pin_swap = swap;
 1227              		.loc 1 115 5 is_stmt 1 view .LVU395
 115:Service/Srv_Receiver.c ****     Uart_Receiver_Obj->pin_swap = swap;
 1228              		.loc 1 115 30 is_stmt 0 view .LVU396
 1229 003a BCE80700 		ldmia	ip!, {r0, r1, r2}
ARM GAS  /var/folders/lx/hc4sn_b53233_zkc9xbbl97r0000gp/T//ccCP9Y0e.s 			page 36


 1230 003e C4F89901 		str	r0, [r4, #409]	@ unaligned
 1231 0042 C4F89D11 		str	r1, [r4, #413]	@ unaligned
 1232 0046 C4F8A121 		str	r2, [r4, #417]	@ unaligned
 116:Service/Srv_Receiver.c ****     Uart_Receiver_Obj->rx_dma = rx_dma;
 1233              		.loc 1 116 5 is_stmt 1 view .LVU397
 116:Service/Srv_Receiver.c ****     Uart_Receiver_Obj->rx_dma = rx_dma;
 1234              		.loc 1 116 33 is_stmt 0 view .LVU398
 1235 004a 9DF81C30 		ldrb	r3, [sp, #28]	@ zero_extendqisi2
 1236 004e 2371     		strb	r3, [r4, #4]
 117:Service/Srv_Receiver.c ****     Uart_Receiver_Obj->rx_stream = rx_dma_stream;
 1237              		.loc 1 117 5 is_stmt 1 view .LVU399
 117:Service/Srv_Receiver.c ****     Uart_Receiver_Obj->rx_stream = rx_dma_stream;
 1238              		.loc 1 117 31 is_stmt 0 view .LVU400
 1239 0050 84F81371 		strb	r7, [r4, #275]
 118:Service/Srv_Receiver.c ****     Uart_Receiver_Obj->tx_dma = tx_dma;
 1240              		.loc 1 118 5 is_stmt 1 view .LVU401
 118:Service/Srv_Receiver.c ****     Uart_Receiver_Obj->tx_dma = tx_dma;
 1241              		.loc 1 118 34 is_stmt 0 view .LVU402
 1242 0054 84F81461 		strb	r6, [r4, #276]
 119:Service/Srv_Receiver.c ****     Uart_Receiver_Obj->tx_stream = tx_dma_stream;
 1243              		.loc 1 119 5 is_stmt 1 view .LVU403
 119:Service/Srv_Receiver.c ****     Uart_Receiver_Obj->tx_stream = tx_dma_stream;
 1244              		.loc 1 119 31 is_stmt 0 view .LVU404
 1245 0058 84F89950 		strb	r5, [r4, #153]
 120:Service/Srv_Receiver.c **** 
 1246              		.loc 1 120 5 is_stmt 1 view .LVU405
 120:Service/Srv_Receiver.c **** 
 1247              		.loc 1 120 34 is_stmt 0 view .LVU406
 1248 005c 069B     		ldr	r3, [sp, #24]
 1249 005e 84F89A30 		strb	r3, [r4, #154]
 122:Service/Srv_Receiver.c **** }
 1250              		.loc 1 122 5 is_stmt 1 view .LVU407
 1251              	.L70:
 123:Service/Srv_Receiver.c **** 
 1252              		.loc 1 123 1 is_stmt 0 view .LVU408
 1253 0062 2046     		mov	r0, r4
 1254 0064 BDE8F081 		pop	{r4, r5, r6, r7, r8, pc}
 1255              	.LVL80:
 1256              	.L74:
 107:Service/Srv_Receiver.c ****         return NULL;
 1257              		.loc 1 107 9 is_stmt 1 view .LVU409
 1258 0068 FFF7FEFF 		bl	MMU_Free
 1259              	.LVL81:
 108:Service/Srv_Receiver.c ****     }
 1260              		.loc 1 108 9 view .LVU410
 108:Service/Srv_Receiver.c ****     }
 1261              		.loc 1 108 16 is_stmt 0 view .LVU411
 1262 006c F9E7     		b	.L70
 1263              		.cfi_endproc
 1264              	.LFE147:
 1266              		.section	.rodata.str1.4,"aMS",%progbits,1
 1267              		.align	2
 1268              	.LC1:
 1269 0000 52656365 		.ascii	"Receiver Object Input Error\015\012\000"
 1269      69766572 
 1269      204F626A 
 1269      65637420 
ARM GAS  /var/folders/lx/hc4sn_b53233_zkc9xbbl97r0000gp/T//ccCP9Y0e.s 			page 37


 1269      496E7075 
 1270 001e 0000     		.align	2
 1271              	.LC2:
 1272 0020 52656365 		.ascii	"Receiver Port Error\015\012\000"
 1272      69766572 
 1272      20506F72 
 1272      74204572 
 1272      726F720D 
 1273 0036 0000     		.align	2
 1274              	.LC3:
 1275 0038 52656365 		.ascii	"Receiver Port Init Error\015\012\000"
 1275      69766572 
 1275      20506F72 
 1275      7420496E 
 1275      69742045 
 1276 0053 00       		.align	2
 1277              	.LC4:
 1278 0054 52656365 		.ascii	"Receiver Frame Type Error\015\012\000"
 1278      69766572 
 1278      20467261 
 1278      6D652054 
 1278      79706520 
 1279              		.global	SrvReceiver
 1280              		.section	.bss.SrvReceiver_Buff,"aw",%nobits
 1281              		.align	2
 1282              		.set	.LANCHOR0,. + 0
 1285              	SrvReceiver_Buff:
 1286 0000 00000000 		.space	1024
 1286      00000000 
 1286      00000000 
 1286      00000000 
 1286      00000000 
 1287              		.section	.bss.SrvReceiver_Error_Handle,"aw",%nobits
 1288              		.align	2
 1289              		.set	.LANCHOR1,. + 0
 1292              	SrvReceiver_Error_Handle:
 1293 0000 00000000 		.space	4
 1294              		.section	.bss.SrvReceiver_Monitor,"aw",%nobits
 1295              		.align	2
 1296              		.set	.LANCHOR3,. + 0
 1299              	SrvReceiver_Monitor:
 1300 0000 00000000 		.space	30
 1300      00000000 
 1300      00000000 
 1300      00000000 
 1300      00000000 
 1301              		.section	.data.SrvReceiver,"aw"
 1302              		.align	2
 1305              	SrvReceiver:
 1306 0000 00000000 		.word	SrvReceiver_Create_UartObj
 1307 0004 00000000 		.word	SrvReceiver_Create_SPIObj
 1308 0008 00000000 		.word	SrvReceiver_Init
 1309 000c 00000000 		.word	SrvReceiver_Get_Value
 1310 0010 00000000 		.word	SrvReceiver_Set_Invert
 1311              		.section	.data.SrvReceiver_ErrorList,"aw"
 1312              		.align	2
 1313              		.set	.LANCHOR2,. + 0
ARM GAS  /var/folders/lx/hc4sn_b53233_zkc9xbbl97r0000gp/T//ccCP9Y0e.s 			page 38


 1316              	SrvReceiver_ErrorList:
 1317 0000 0100     		.short	1
 1318 0002 02       		.byte	2
 1319 0003 00       		.space	1
 1320 0004 00000000 		.word	.LC1
 1321 0008 00       		.byte	0
 1322 0009 00       		.byte	0
 1323 000a 00000000 		.4byte	0
 1324 000e 00000000 		.4byte	0
 1325 0012 0000     		.short	0
 1326 0014 00000000 		.space	4
 1327 0018 0200     		.short	2
 1328 001a 02       		.byte	2
 1329 001b 00       		.space	1
 1330 001c 20000000 		.word	.LC2
 1331 0020 00       		.byte	0
 1332 0021 00       		.byte	0
 1333 0022 00000000 		.4byte	0
 1334 0026 00000000 		.4byte	0
 1335 002a 0000     		.short	0
 1336 002c 00000000 		.space	4
 1337 0030 0300     		.short	3
 1338 0032 02       		.byte	2
 1339 0033 00       		.space	1
 1340 0034 38000000 		.word	.LC3
 1341 0038 00       		.byte	0
 1342 0039 00       		.byte	0
 1343 003a 00000000 		.4byte	0
 1344 003e 00000000 		.4byte	0
 1345 0042 0000     		.short	0
 1346 0044 00000000 		.space	4
 1347 0048 0400     		.short	4
 1348 004a 02       		.byte	2
 1349 004b 00       		.space	1
 1350 004c 54000000 		.word	.LC4
 1351 0050 00       		.byte	0
 1352 0051 00       		.byte	0
 1353 0052 00000000 		.4byte	0
 1354 0056 00000000 		.4byte	0
 1355 005a 0000     		.short	0
 1356 005c 00000000 		.space	4
 1357              		.text
 1358              	.Letext0:
 1359              		.file 2 "/usr/local/arm-none-eabi-gcc/gcc-arm-none-eabi-10-2020-q4-major/arm-none-eabi/include/mac
 1360              		.file 3 "/usr/local/arm-none-eabi-gcc/gcc-arm-none-eabi-10-2020-q4-major/arm-none-eabi/include/sys
 1361              		.file 4 "Device/Dev_Sbus.h"
 1362              		.file 5 "Device/Dev_CRSF.h"
 1363              		.file 6 "HAL_Lib/CMSIS/Device/ST/STM32H7xx/Include/stm32h743xx.h"
 1364              		.file 7 "HAL_Lib/STM32H7xx_HAL_Driver/Inc/stm32h7xx_hal_def.h"
 1365              		.file 8 "HAL_Lib/STM32H7xx_HAL_Driver/Inc/stm32h7xx_hal_gpio.h"
 1366              		.file 9 "HAL_Lib/STM32H7xx_HAL_Driver/Inc/stm32h7xx_hal_dma.h"
 1367              		.file 10 "HAL_Lib/STM32H7xx_HAL_Driver/Inc/stm32h7xx_hal_uart.h"
 1368              		.file 11 "Bsp/Bsp_GPIO.h"
 1369              		.file 12 "Bsp/Bsp_DMA.h"
 1370              		.file 13 "Bsp/Bsp_Uart.h"
 1371              		.file 14 "Service/Srv_Receiver.h"
 1372              		.file 15 "DataStructure/linked_list.h"
ARM GAS  /var/folders/lx/hc4sn_b53233_zkc9xbbl97r0000gp/T//ccCP9Y0e.s 			page 39


 1373              		.file 16 "Common/error_log.h"
 1374              		.file 17 "<built-in>"
 1375              		.file 18 "System/runtime/runtime.h"
 1376              		.file 19 "System/mmu/mmu.h"
ARM GAS  /var/folders/lx/hc4sn_b53233_zkc9xbbl97r0000gp/T//ccCP9Y0e.s 			page 40


DEFINED SYMBOLS
                            *ABS*:0000000000000000 Srv_Receiver.c
/var/folders/lx/hc4sn_b53233_zkc9xbbl97r0000gp/T//ccCP9Y0e.s:17     .text.SrvReceiver_Create_SPIObj:0000000000000000 $t
/var/folders/lx/hc4sn_b53233_zkc9xbbl97r0000gp/T//ccCP9Y0e.s:24     .text.SrvReceiver_Create_SPIObj:0000000000000000 SrvReceiver_Create_SPIObj
/var/folders/lx/hc4sn_b53233_zkc9xbbl97r0000gp/T//ccCP9Y0e.s:38     .text.SrvReceiver_Set_Invert:0000000000000000 $t
/var/folders/lx/hc4sn_b53233_zkc9xbbl97r0000gp/T//ccCP9Y0e.s:44     .text.SrvReceiver_Set_Invert:0000000000000000 SrvReceiver_Set_Invert
/var/folders/lx/hc4sn_b53233_zkc9xbbl97r0000gp/T//ccCP9Y0e.s:90     .text.SrvReceiver_Check:0000000000000000 $t
/var/folders/lx/hc4sn_b53233_zkc9xbbl97r0000gp/T//ccCP9Y0e.s:96     .text.SrvReceiver_Check:0000000000000000 SrvReceiver_Check
/var/folders/lx/hc4sn_b53233_zkc9xbbl97r0000gp/T//ccCP9Y0e.s:182    .text.SrvReceiver_Get_Value:0000000000000000 $t
/var/folders/lx/hc4sn_b53233_zkc9xbbl97r0000gp/T//ccCP9Y0e.s:188    .text.SrvReceiver_Get_Value:0000000000000000 SrvReceiver_Get_Value
/var/folders/lx/hc4sn_b53233_zkc9xbbl97r0000gp/T//ccCP9Y0e.s:313    .text.SrvReceiver_SerialDecode_Callback:0000000000000000 $t
/var/folders/lx/hc4sn_b53233_zkc9xbbl97r0000gp/T//ccCP9Y0e.s:319    .text.SrvReceiver_SerialDecode_Callback:0000000000000000 SrvReceiver_SerialDecode_Callback
/var/folders/lx/hc4sn_b53233_zkc9xbbl97r0000gp/T//ccCP9Y0e.s:807    .rodata.SrvReceiver_Init.str1.4:0000000000000000 $d
/var/folders/lx/hc4sn_b53233_zkc9xbbl97r0000gp/T//ccCP9Y0e.s:811    .text.SrvReceiver_Init:0000000000000000 $t
/var/folders/lx/hc4sn_b53233_zkc9xbbl97r0000gp/T//ccCP9Y0e.s:817    .text.SrvReceiver_Init:0000000000000000 SrvReceiver_Init
/var/folders/lx/hc4sn_b53233_zkc9xbbl97r0000gp/T//ccCP9Y0e.s:1158   .text.SrvReceiver_Init:0000000000000188 $d
/var/folders/lx/hc4sn_b53233_zkc9xbbl97r0000gp/T//ccCP9Y0e.s:1172   .text.SrvReceiver_Create_UartObj:0000000000000000 $t
/var/folders/lx/hc4sn_b53233_zkc9xbbl97r0000gp/T//ccCP9Y0e.s:1178   .text.SrvReceiver_Create_UartObj:0000000000000000 SrvReceiver_Create_UartObj
/var/folders/lx/hc4sn_b53233_zkc9xbbl97r0000gp/T//ccCP9Y0e.s:1267   .rodata.str1.4:0000000000000000 $d
/var/folders/lx/hc4sn_b53233_zkc9xbbl97r0000gp/T//ccCP9Y0e.s:1305   .data.SrvReceiver:0000000000000000 SrvReceiver
/var/folders/lx/hc4sn_b53233_zkc9xbbl97r0000gp/T//ccCP9Y0e.s:1281   .bss.SrvReceiver_Buff:0000000000000000 $d
/var/folders/lx/hc4sn_b53233_zkc9xbbl97r0000gp/T//ccCP9Y0e.s:1285   .bss.SrvReceiver_Buff:0000000000000000 SrvReceiver_Buff
/var/folders/lx/hc4sn_b53233_zkc9xbbl97r0000gp/T//ccCP9Y0e.s:1288   .bss.SrvReceiver_Error_Handle:0000000000000000 $d
/var/folders/lx/hc4sn_b53233_zkc9xbbl97r0000gp/T//ccCP9Y0e.s:1292   .bss.SrvReceiver_Error_Handle:0000000000000000 SrvReceiver_Error_Handle
/var/folders/lx/hc4sn_b53233_zkc9xbbl97r0000gp/T//ccCP9Y0e.s:1295   .bss.SrvReceiver_Monitor:0000000000000000 $d
/var/folders/lx/hc4sn_b53233_zkc9xbbl97r0000gp/T//ccCP9Y0e.s:1299   .bss.SrvReceiver_Monitor:0000000000000000 SrvReceiver_Monitor
/var/folders/lx/hc4sn_b53233_zkc9xbbl97r0000gp/T//ccCP9Y0e.s:1302   .data.SrvReceiver:0000000000000000 $d
/var/folders/lx/hc4sn_b53233_zkc9xbbl97r0000gp/T//ccCP9Y0e.s:1312   .data.SrvReceiver_ErrorList:0000000000000000 $d
/var/folders/lx/hc4sn_b53233_zkc9xbbl97r0000gp/T//ccCP9Y0e.s:1316   .data.SrvReceiver_ErrorList:0000000000000000 SrvReceiver_ErrorList

UNDEFINED SYMBOLS
Get_CurrentRunningMs
memcpy
memset
MMU_Malloc
MMU_Free
ErrorLog
DevCRSF
BspUart
DevSBUS
