ARM GAS  C:\Users\HUAV\AppData\Local\Temp\cceXbOEJ.s 			page 1


   1              		.cpu cortex-m7
   2              		.eabi_attribute 28, 1
   3              		.eabi_attribute 20, 1
   4              		.eabi_attribute 21, 1
   5              		.eabi_attribute 23, 3
   6              		.eabi_attribute 24, 1
   7              		.eabi_attribute 25, 1
   8              		.eabi_attribute 26, 1
   9              		.eabi_attribute 30, 1
  10              		.eabi_attribute 34, 1
  11              		.eabi_attribute 18, 4
  12              		.file	"stm32h7xx_hal_gpio.c"
  13              		.text
  14              	.Ltext0:
  15              		.cfi_sections	.debug_frame
  16              		.section	.text.HAL_GPIO_Init,"ax",%progbits
  17              		.align	1
  18              		.global	HAL_GPIO_Init
  19              		.arch armv7e-m
  20              		.syntax unified
  21              		.thumb
  22              		.thumb_func
  23              		.fpu fpv5-d16
  25              	HAL_GPIO_Init:
  26              	.LVL0:
  27              	.LFB144:
  28              		.file 1 "HAL_Lib/STM32H7xx_HAL_Driver/Src/stm32h7xx_hal_gpio.c"
   1:HAL_Lib/STM32H7xx_HAL_Driver/Src/stm32h7xx_hal_gpio.c **** /**
   2:HAL_Lib/STM32H7xx_HAL_Driver/Src/stm32h7xx_hal_gpio.c ****   ******************************************************************************
   3:HAL_Lib/STM32H7xx_HAL_Driver/Src/stm32h7xx_hal_gpio.c ****   * @file    stm32h7xx_hal_gpio.c
   4:HAL_Lib/STM32H7xx_HAL_Driver/Src/stm32h7xx_hal_gpio.c ****   * @author  MCD Application Team
   5:HAL_Lib/STM32H7xx_HAL_Driver/Src/stm32h7xx_hal_gpio.c ****   * @brief   GPIO HAL module driver.
   6:HAL_Lib/STM32H7xx_HAL_Driver/Src/stm32h7xx_hal_gpio.c ****   *          This file provides firmware functions to manage the following
   7:HAL_Lib/STM32H7xx_HAL_Driver/Src/stm32h7xx_hal_gpio.c ****   *          functionalities of the General Purpose Input/Output (GPIO) peripheral:
   8:HAL_Lib/STM32H7xx_HAL_Driver/Src/stm32h7xx_hal_gpio.c ****   *           + Initialization and de-initialization functions
   9:HAL_Lib/STM32H7xx_HAL_Driver/Src/stm32h7xx_hal_gpio.c ****   *           + IO operation functions
  10:HAL_Lib/STM32H7xx_HAL_Driver/Src/stm32h7xx_hal_gpio.c ****   *
  11:HAL_Lib/STM32H7xx_HAL_Driver/Src/stm32h7xx_hal_gpio.c ****   ******************************************************************************
  12:HAL_Lib/STM32H7xx_HAL_Driver/Src/stm32h7xx_hal_gpio.c ****   * @attention
  13:HAL_Lib/STM32H7xx_HAL_Driver/Src/stm32h7xx_hal_gpio.c ****   *
  14:HAL_Lib/STM32H7xx_HAL_Driver/Src/stm32h7xx_hal_gpio.c ****   * Copyright (c) 2017 STMicroelectronics.
  15:HAL_Lib/STM32H7xx_HAL_Driver/Src/stm32h7xx_hal_gpio.c ****   * All rights reserved.
  16:HAL_Lib/STM32H7xx_HAL_Driver/Src/stm32h7xx_hal_gpio.c ****   *
  17:HAL_Lib/STM32H7xx_HAL_Driver/Src/stm32h7xx_hal_gpio.c ****   * This software is licensed under terms that can be found in the LICENSE file
  18:HAL_Lib/STM32H7xx_HAL_Driver/Src/stm32h7xx_hal_gpio.c ****   * in the root directory of this software component.
  19:HAL_Lib/STM32H7xx_HAL_Driver/Src/stm32h7xx_hal_gpio.c ****   * If no LICENSE file comes with this software, it is provided AS-IS.
  20:HAL_Lib/STM32H7xx_HAL_Driver/Src/stm32h7xx_hal_gpio.c ****   *
  21:HAL_Lib/STM32H7xx_HAL_Driver/Src/stm32h7xx_hal_gpio.c ****   ******************************************************************************
  22:HAL_Lib/STM32H7xx_HAL_Driver/Src/stm32h7xx_hal_gpio.c ****   @verbatim
  23:HAL_Lib/STM32H7xx_HAL_Driver/Src/stm32h7xx_hal_gpio.c ****   ==============================================================================
  24:HAL_Lib/STM32H7xx_HAL_Driver/Src/stm32h7xx_hal_gpio.c ****                     ##### GPIO Peripheral features #####
  25:HAL_Lib/STM32H7xx_HAL_Driver/Src/stm32h7xx_hal_gpio.c ****   ==============================================================================
  26:HAL_Lib/STM32H7xx_HAL_Driver/Src/stm32h7xx_hal_gpio.c ****   [..]
  27:HAL_Lib/STM32H7xx_HAL_Driver/Src/stm32h7xx_hal_gpio.c ****     (+) Each port bit of the general-purpose I/O (GPIO) ports can be individually
  28:HAL_Lib/STM32H7xx_HAL_Driver/Src/stm32h7xx_hal_gpio.c ****         configured by software in several modes:
  29:HAL_Lib/STM32H7xx_HAL_Driver/Src/stm32h7xx_hal_gpio.c ****         (++) Input mode
  30:HAL_Lib/STM32H7xx_HAL_Driver/Src/stm32h7xx_hal_gpio.c ****         (++) Analog mode
ARM GAS  C:\Users\HUAV\AppData\Local\Temp\cceXbOEJ.s 			page 2


  31:HAL_Lib/STM32H7xx_HAL_Driver/Src/stm32h7xx_hal_gpio.c ****         (++) Output mode
  32:HAL_Lib/STM32H7xx_HAL_Driver/Src/stm32h7xx_hal_gpio.c ****         (++) Alternate function mode
  33:HAL_Lib/STM32H7xx_HAL_Driver/Src/stm32h7xx_hal_gpio.c ****         (++) External interrupt/event lines
  34:HAL_Lib/STM32H7xx_HAL_Driver/Src/stm32h7xx_hal_gpio.c **** 
  35:HAL_Lib/STM32H7xx_HAL_Driver/Src/stm32h7xx_hal_gpio.c ****     (+) During and just after reset, the alternate functions and external interrupt
  36:HAL_Lib/STM32H7xx_HAL_Driver/Src/stm32h7xx_hal_gpio.c ****         lines are not active and the I/O ports are configured in input floating mode.
  37:HAL_Lib/STM32H7xx_HAL_Driver/Src/stm32h7xx_hal_gpio.c **** 
  38:HAL_Lib/STM32H7xx_HAL_Driver/Src/stm32h7xx_hal_gpio.c ****     (+) All GPIO pins have weak internal pull-up and pull-down resistors, which can be
  39:HAL_Lib/STM32H7xx_HAL_Driver/Src/stm32h7xx_hal_gpio.c ****         activated or not.
  40:HAL_Lib/STM32H7xx_HAL_Driver/Src/stm32h7xx_hal_gpio.c **** 
  41:HAL_Lib/STM32H7xx_HAL_Driver/Src/stm32h7xx_hal_gpio.c ****     (+) In Output or Alternate mode, each IO can be configured on open-drain or push-pull
  42:HAL_Lib/STM32H7xx_HAL_Driver/Src/stm32h7xx_hal_gpio.c ****         type and the IO speed can be selected depending on the VDD value.
  43:HAL_Lib/STM32H7xx_HAL_Driver/Src/stm32h7xx_hal_gpio.c **** 
  44:HAL_Lib/STM32H7xx_HAL_Driver/Src/stm32h7xx_hal_gpio.c ****     (+) The microcontroller IO pins are connected to onboard peripherals/modules through a
  45:HAL_Lib/STM32H7xx_HAL_Driver/Src/stm32h7xx_hal_gpio.c ****         multiplexer that allows only one peripheral alternate function (AF) connected
  46:HAL_Lib/STM32H7xx_HAL_Driver/Src/stm32h7xx_hal_gpio.c ****        to an IO pin at a time. In this way, there can be no conflict between peripherals
  47:HAL_Lib/STM32H7xx_HAL_Driver/Src/stm32h7xx_hal_gpio.c ****        sharing the same IO pin.
  48:HAL_Lib/STM32H7xx_HAL_Driver/Src/stm32h7xx_hal_gpio.c **** 
  49:HAL_Lib/STM32H7xx_HAL_Driver/Src/stm32h7xx_hal_gpio.c ****     (+) All ports have external interrupt/event capability. To use external interrupt
  50:HAL_Lib/STM32H7xx_HAL_Driver/Src/stm32h7xx_hal_gpio.c ****         lines, the port must be configured in input mode. All available GPIO pins are
  51:HAL_Lib/STM32H7xx_HAL_Driver/Src/stm32h7xx_hal_gpio.c ****         connected to the 16 external interrupt/event lines from EXTI0 to EXTI15.
  52:HAL_Lib/STM32H7xx_HAL_Driver/Src/stm32h7xx_hal_gpio.c **** 
  53:HAL_Lib/STM32H7xx_HAL_Driver/Src/stm32h7xx_hal_gpio.c ****   The external interrupt/event controller consists of up to 23 edge detectors
  54:HAL_Lib/STM32H7xx_HAL_Driver/Src/stm32h7xx_hal_gpio.c ****         (16 lines are connected to GPIO) for generating event/interrupt requests (each
  55:HAL_Lib/STM32H7xx_HAL_Driver/Src/stm32h7xx_hal_gpio.c ****         input line can be independently configured to select the type (interrupt or event)
  56:HAL_Lib/STM32H7xx_HAL_Driver/Src/stm32h7xx_hal_gpio.c ****         and the corresponding trigger event (rising or falling or both). Each line can
  57:HAL_Lib/STM32H7xx_HAL_Driver/Src/stm32h7xx_hal_gpio.c ****         also be masked independently.
  58:HAL_Lib/STM32H7xx_HAL_Driver/Src/stm32h7xx_hal_gpio.c **** 
  59:HAL_Lib/STM32H7xx_HAL_Driver/Src/stm32h7xx_hal_gpio.c ****                      ##### How to use this driver #####
  60:HAL_Lib/STM32H7xx_HAL_Driver/Src/stm32h7xx_hal_gpio.c ****   ==============================================================================
  61:HAL_Lib/STM32H7xx_HAL_Driver/Src/stm32h7xx_hal_gpio.c ****   [..]
  62:HAL_Lib/STM32H7xx_HAL_Driver/Src/stm32h7xx_hal_gpio.c ****     (#) Enable the GPIO AHB clock using the following function: __HAL_RCC_GPIOx_CLK_ENABLE().
  63:HAL_Lib/STM32H7xx_HAL_Driver/Src/stm32h7xx_hal_gpio.c **** 
  64:HAL_Lib/STM32H7xx_HAL_Driver/Src/stm32h7xx_hal_gpio.c ****     (#) Configure the GPIO pin(s) using HAL_GPIO_Init().
  65:HAL_Lib/STM32H7xx_HAL_Driver/Src/stm32h7xx_hal_gpio.c ****         (++) Configure the IO mode using "Mode" member from GPIO_InitTypeDef structure
  66:HAL_Lib/STM32H7xx_HAL_Driver/Src/stm32h7xx_hal_gpio.c ****         (++) Activate Pull-up, Pull-down resistor using "Pull" member from GPIO_InitTypeDef
  67:HAL_Lib/STM32H7xx_HAL_Driver/Src/stm32h7xx_hal_gpio.c ****              structure.
  68:HAL_Lib/STM32H7xx_HAL_Driver/Src/stm32h7xx_hal_gpio.c ****         (++) In case of Output or alternate function mode selection: the speed is
  69:HAL_Lib/STM32H7xx_HAL_Driver/Src/stm32h7xx_hal_gpio.c ****              configured through "Speed" member from GPIO_InitTypeDef structure.
  70:HAL_Lib/STM32H7xx_HAL_Driver/Src/stm32h7xx_hal_gpio.c ****         (++) In alternate mode is selection, the alternate function connected to the IO
  71:HAL_Lib/STM32H7xx_HAL_Driver/Src/stm32h7xx_hal_gpio.c ****              is configured through "Alternate" member from GPIO_InitTypeDef structure.
  72:HAL_Lib/STM32H7xx_HAL_Driver/Src/stm32h7xx_hal_gpio.c ****         (++) Analog mode is required when a pin is to be used as ADC channel
  73:HAL_Lib/STM32H7xx_HAL_Driver/Src/stm32h7xx_hal_gpio.c ****              or DAC output.
  74:HAL_Lib/STM32H7xx_HAL_Driver/Src/stm32h7xx_hal_gpio.c ****         (++) In case of external interrupt/event selection the "Mode" member from
  75:HAL_Lib/STM32H7xx_HAL_Driver/Src/stm32h7xx_hal_gpio.c ****              GPIO_InitTypeDef structure select the type (interrupt or event) and
  76:HAL_Lib/STM32H7xx_HAL_Driver/Src/stm32h7xx_hal_gpio.c ****              the corresponding trigger event (rising or falling or both).
  77:HAL_Lib/STM32H7xx_HAL_Driver/Src/stm32h7xx_hal_gpio.c **** 
  78:HAL_Lib/STM32H7xx_HAL_Driver/Src/stm32h7xx_hal_gpio.c ****     (#) In case of external interrupt/event mode selection, configure NVIC IRQ priority
  79:HAL_Lib/STM32H7xx_HAL_Driver/Src/stm32h7xx_hal_gpio.c ****         mapped to the EXTI line using HAL_NVIC_SetPriority() and enable it using
  80:HAL_Lib/STM32H7xx_HAL_Driver/Src/stm32h7xx_hal_gpio.c ****         HAL_NVIC_EnableIRQ().
  81:HAL_Lib/STM32H7xx_HAL_Driver/Src/stm32h7xx_hal_gpio.c **** 
  82:HAL_Lib/STM32H7xx_HAL_Driver/Src/stm32h7xx_hal_gpio.c ****     (#) To get the level of a pin configured in input mode use HAL_GPIO_ReadPin().
  83:HAL_Lib/STM32H7xx_HAL_Driver/Src/stm32h7xx_hal_gpio.c **** 
  84:HAL_Lib/STM32H7xx_HAL_Driver/Src/stm32h7xx_hal_gpio.c ****     (#) To set/reset the level of a pin configured in output mode use
  85:HAL_Lib/STM32H7xx_HAL_Driver/Src/stm32h7xx_hal_gpio.c ****         HAL_GPIO_WritePin()/HAL_GPIO_TogglePin().
  86:HAL_Lib/STM32H7xx_HAL_Driver/Src/stm32h7xx_hal_gpio.c **** 
  87:HAL_Lib/STM32H7xx_HAL_Driver/Src/stm32h7xx_hal_gpio.c ****    (#) To lock pin configuration until next reset use HAL_GPIO_LockPin().
ARM GAS  C:\Users\HUAV\AppData\Local\Temp\cceXbOEJ.s 			page 3


  88:HAL_Lib/STM32H7xx_HAL_Driver/Src/stm32h7xx_hal_gpio.c **** 
  89:HAL_Lib/STM32H7xx_HAL_Driver/Src/stm32h7xx_hal_gpio.c **** 
  90:HAL_Lib/STM32H7xx_HAL_Driver/Src/stm32h7xx_hal_gpio.c ****     (#) During and just after reset, the alternate functions are not
  91:HAL_Lib/STM32H7xx_HAL_Driver/Src/stm32h7xx_hal_gpio.c ****         active and the GPIO pins are configured in input floating mode (except JTAG
  92:HAL_Lib/STM32H7xx_HAL_Driver/Src/stm32h7xx_hal_gpio.c ****         pins).
  93:HAL_Lib/STM32H7xx_HAL_Driver/Src/stm32h7xx_hal_gpio.c **** 
  94:HAL_Lib/STM32H7xx_HAL_Driver/Src/stm32h7xx_hal_gpio.c ****     (#) The LSE oscillator pins OSC32_IN and OSC32_OUT can be used as general purpose
  95:HAL_Lib/STM32H7xx_HAL_Driver/Src/stm32h7xx_hal_gpio.c ****         (PC14 and PC15, respectively) when the LSE oscillator is off. The LSE has
  96:HAL_Lib/STM32H7xx_HAL_Driver/Src/stm32h7xx_hal_gpio.c ****         priority over the GPIO function.
  97:HAL_Lib/STM32H7xx_HAL_Driver/Src/stm32h7xx_hal_gpio.c **** 
  98:HAL_Lib/STM32H7xx_HAL_Driver/Src/stm32h7xx_hal_gpio.c ****     (#) The HSE oscillator pins OSC_IN/OSC_OUT can be used as
  99:HAL_Lib/STM32H7xx_HAL_Driver/Src/stm32h7xx_hal_gpio.c ****         general purpose PH0 and PH1, respectively, when the HSE oscillator is off.
 100:HAL_Lib/STM32H7xx_HAL_Driver/Src/stm32h7xx_hal_gpio.c ****         The HSE has priority over the GPIO function.
 101:HAL_Lib/STM32H7xx_HAL_Driver/Src/stm32h7xx_hal_gpio.c **** 
 102:HAL_Lib/STM32H7xx_HAL_Driver/Src/stm32h7xx_hal_gpio.c ****   @endverbatim
 103:HAL_Lib/STM32H7xx_HAL_Driver/Src/stm32h7xx_hal_gpio.c ****   ******************************************************************************
 104:HAL_Lib/STM32H7xx_HAL_Driver/Src/stm32h7xx_hal_gpio.c ****   */
 105:HAL_Lib/STM32H7xx_HAL_Driver/Src/stm32h7xx_hal_gpio.c **** 
 106:HAL_Lib/STM32H7xx_HAL_Driver/Src/stm32h7xx_hal_gpio.c **** /* Includes ------------------------------------------------------------------*/
 107:HAL_Lib/STM32H7xx_HAL_Driver/Src/stm32h7xx_hal_gpio.c **** #include "stm32h7xx_hal.h"
 108:HAL_Lib/STM32H7xx_HAL_Driver/Src/stm32h7xx_hal_gpio.c **** 
 109:HAL_Lib/STM32H7xx_HAL_Driver/Src/stm32h7xx_hal_gpio.c **** /** @addtogroup STM32H7xx_HAL_Driver
 110:HAL_Lib/STM32H7xx_HAL_Driver/Src/stm32h7xx_hal_gpio.c ****   * @{
 111:HAL_Lib/STM32H7xx_HAL_Driver/Src/stm32h7xx_hal_gpio.c ****   */
 112:HAL_Lib/STM32H7xx_HAL_Driver/Src/stm32h7xx_hal_gpio.c **** 
 113:HAL_Lib/STM32H7xx_HAL_Driver/Src/stm32h7xx_hal_gpio.c **** /** @defgroup GPIO  GPIO
 114:HAL_Lib/STM32H7xx_HAL_Driver/Src/stm32h7xx_hal_gpio.c ****   * @brief GPIO HAL module driver
 115:HAL_Lib/STM32H7xx_HAL_Driver/Src/stm32h7xx_hal_gpio.c ****   * @{
 116:HAL_Lib/STM32H7xx_HAL_Driver/Src/stm32h7xx_hal_gpio.c ****   */
 117:HAL_Lib/STM32H7xx_HAL_Driver/Src/stm32h7xx_hal_gpio.c **** 
 118:HAL_Lib/STM32H7xx_HAL_Driver/Src/stm32h7xx_hal_gpio.c **** #ifdef HAL_GPIO_MODULE_ENABLED
 119:HAL_Lib/STM32H7xx_HAL_Driver/Src/stm32h7xx_hal_gpio.c **** 
 120:HAL_Lib/STM32H7xx_HAL_Driver/Src/stm32h7xx_hal_gpio.c **** /* Private typedef -----------------------------------------------------------*/
 121:HAL_Lib/STM32H7xx_HAL_Driver/Src/stm32h7xx_hal_gpio.c **** /* Private defines ------------------------------------------------------------*/
 122:HAL_Lib/STM32H7xx_HAL_Driver/Src/stm32h7xx_hal_gpio.c **** /** @addtogroup GPIO_Private_Constants GPIO Private Constants
 123:HAL_Lib/STM32H7xx_HAL_Driver/Src/stm32h7xx_hal_gpio.c ****   * @{
 124:HAL_Lib/STM32H7xx_HAL_Driver/Src/stm32h7xx_hal_gpio.c ****   */
 125:HAL_Lib/STM32H7xx_HAL_Driver/Src/stm32h7xx_hal_gpio.c **** 
 126:HAL_Lib/STM32H7xx_HAL_Driver/Src/stm32h7xx_hal_gpio.c **** #if defined(DUAL_CORE)
 127:HAL_Lib/STM32H7xx_HAL_Driver/Src/stm32h7xx_hal_gpio.c **** #define EXTI_CPU1             (0x01000000U)
 128:HAL_Lib/STM32H7xx_HAL_Driver/Src/stm32h7xx_hal_gpio.c **** #define EXTI_CPU2             (0x02000000U)
 129:HAL_Lib/STM32H7xx_HAL_Driver/Src/stm32h7xx_hal_gpio.c **** #endif /*DUAL_CORE*/
 130:HAL_Lib/STM32H7xx_HAL_Driver/Src/stm32h7xx_hal_gpio.c **** #define GPIO_NUMBER           (16U)
 131:HAL_Lib/STM32H7xx_HAL_Driver/Src/stm32h7xx_hal_gpio.c **** /**
 132:HAL_Lib/STM32H7xx_HAL_Driver/Src/stm32h7xx_hal_gpio.c ****   * @}
 133:HAL_Lib/STM32H7xx_HAL_Driver/Src/stm32h7xx_hal_gpio.c ****   */
 134:HAL_Lib/STM32H7xx_HAL_Driver/Src/stm32h7xx_hal_gpio.c **** /* Private macro -------------------------------------------------------------*/
 135:HAL_Lib/STM32H7xx_HAL_Driver/Src/stm32h7xx_hal_gpio.c **** /* Private variables ---------------------------------------------------------*/
 136:HAL_Lib/STM32H7xx_HAL_Driver/Src/stm32h7xx_hal_gpio.c **** /* Private function prototypes -----------------------------------------------*/
 137:HAL_Lib/STM32H7xx_HAL_Driver/Src/stm32h7xx_hal_gpio.c **** /* Private functions ---------------------------------------------------------*/
 138:HAL_Lib/STM32H7xx_HAL_Driver/Src/stm32h7xx_hal_gpio.c **** /* Exported functions --------------------------------------------------------*/
 139:HAL_Lib/STM32H7xx_HAL_Driver/Src/stm32h7xx_hal_gpio.c **** /** @defgroup GPIO_Exported_Functions GPIO Exported Functions
 140:HAL_Lib/STM32H7xx_HAL_Driver/Src/stm32h7xx_hal_gpio.c ****   * @{
 141:HAL_Lib/STM32H7xx_HAL_Driver/Src/stm32h7xx_hal_gpio.c ****   */
 142:HAL_Lib/STM32H7xx_HAL_Driver/Src/stm32h7xx_hal_gpio.c **** 
 143:HAL_Lib/STM32H7xx_HAL_Driver/Src/stm32h7xx_hal_gpio.c **** /** @defgroup GPIO_Exported_Functions_Group1 Initialization and de-initialization functions
 144:HAL_Lib/STM32H7xx_HAL_Driver/Src/stm32h7xx_hal_gpio.c ****  *  @brief    Initialization and Configuration functions
ARM GAS  C:\Users\HUAV\AppData\Local\Temp\cceXbOEJ.s 			page 4


 145:HAL_Lib/STM32H7xx_HAL_Driver/Src/stm32h7xx_hal_gpio.c ****  *
 146:HAL_Lib/STM32H7xx_HAL_Driver/Src/stm32h7xx_hal_gpio.c **** @verbatim
 147:HAL_Lib/STM32H7xx_HAL_Driver/Src/stm32h7xx_hal_gpio.c ****  ===============================================================================
 148:HAL_Lib/STM32H7xx_HAL_Driver/Src/stm32h7xx_hal_gpio.c ****               ##### Initialization and de-initialization functions #####
 149:HAL_Lib/STM32H7xx_HAL_Driver/Src/stm32h7xx_hal_gpio.c ****  ===============================================================================
 150:HAL_Lib/STM32H7xx_HAL_Driver/Src/stm32h7xx_hal_gpio.c ****   [..]
 151:HAL_Lib/STM32H7xx_HAL_Driver/Src/stm32h7xx_hal_gpio.c ****     This section provides functions allowing to initialize and de-initialize the GPIOs
 152:HAL_Lib/STM32H7xx_HAL_Driver/Src/stm32h7xx_hal_gpio.c ****     to be ready for use.
 153:HAL_Lib/STM32H7xx_HAL_Driver/Src/stm32h7xx_hal_gpio.c **** 
 154:HAL_Lib/STM32H7xx_HAL_Driver/Src/stm32h7xx_hal_gpio.c **** @endverbatim
 155:HAL_Lib/STM32H7xx_HAL_Driver/Src/stm32h7xx_hal_gpio.c ****   * @{
 156:HAL_Lib/STM32H7xx_HAL_Driver/Src/stm32h7xx_hal_gpio.c ****   */
 157:HAL_Lib/STM32H7xx_HAL_Driver/Src/stm32h7xx_hal_gpio.c **** 
 158:HAL_Lib/STM32H7xx_HAL_Driver/Src/stm32h7xx_hal_gpio.c **** /**
 159:HAL_Lib/STM32H7xx_HAL_Driver/Src/stm32h7xx_hal_gpio.c ****   * @brief  Initializes the GPIOx peripheral according to the specified parameters in the GPIO_Init
 160:HAL_Lib/STM32H7xx_HAL_Driver/Src/stm32h7xx_hal_gpio.c ****   * @param  GPIOx: where x can be (A..K) to select the GPIO peripheral.
 161:HAL_Lib/STM32H7xx_HAL_Driver/Src/stm32h7xx_hal_gpio.c ****   * @param  GPIO_Init: pointer to a GPIO_InitTypeDef structure that contains
 162:HAL_Lib/STM32H7xx_HAL_Driver/Src/stm32h7xx_hal_gpio.c ****   *         the configuration information for the specified GPIO peripheral.
 163:HAL_Lib/STM32H7xx_HAL_Driver/Src/stm32h7xx_hal_gpio.c ****   * @retval None
 164:HAL_Lib/STM32H7xx_HAL_Driver/Src/stm32h7xx_hal_gpio.c ****   */
 165:HAL_Lib/STM32H7xx_HAL_Driver/Src/stm32h7xx_hal_gpio.c **** void HAL_GPIO_Init(GPIO_TypeDef  *GPIOx, GPIO_InitTypeDef *GPIO_Init)
 166:HAL_Lib/STM32H7xx_HAL_Driver/Src/stm32h7xx_hal_gpio.c **** {
  29              		.loc 1 166 1 view -0
  30              		.cfi_startproc
  31              		@ args = 0, pretend = 0, frame = 8
  32              		@ frame_needed = 0, uses_anonymous_args = 0
  33              		@ link register save eliminated.
  34              		.loc 1 166 1 is_stmt 0 view .LVU1
  35 0000 F0B4     		push	{r4, r5, r6, r7}
  36              	.LCFI0:
  37              		.cfi_def_cfa_offset 16
  38              		.cfi_offset 4, -16
  39              		.cfi_offset 5, -12
  40              		.cfi_offset 6, -8
  41              		.cfi_offset 7, -4
  42 0002 82B0     		sub	sp, sp, #8
  43              	.LCFI1:
  44              		.cfi_def_cfa_offset 24
 167:HAL_Lib/STM32H7xx_HAL_Driver/Src/stm32h7xx_hal_gpio.c ****   uint32_t position = 0x00U;
  45              		.loc 1 167 3 is_stmt 1 view .LVU2
  46              	.LVL1:
 168:HAL_Lib/STM32H7xx_HAL_Driver/Src/stm32h7xx_hal_gpio.c ****   uint32_t iocurrent;
  47              		.loc 1 168 3 view .LVU3
 169:HAL_Lib/STM32H7xx_HAL_Driver/Src/stm32h7xx_hal_gpio.c ****   uint32_t temp;
  48              		.loc 1 169 3 view .LVU4
 170:HAL_Lib/STM32H7xx_HAL_Driver/Src/stm32h7xx_hal_gpio.c ****   EXTI_Core_TypeDef *EXTI_CurrentCPU;
  49              		.loc 1 170 3 view .LVU5
 171:HAL_Lib/STM32H7xx_HAL_Driver/Src/stm32h7xx_hal_gpio.c **** 
 172:HAL_Lib/STM32H7xx_HAL_Driver/Src/stm32h7xx_hal_gpio.c **** #if defined(DUAL_CORE) && defined(CORE_CM4)
 173:HAL_Lib/STM32H7xx_HAL_Driver/Src/stm32h7xx_hal_gpio.c ****   EXTI_CurrentCPU = EXTI_D2; /* EXTI for CM4 CPU */
 174:HAL_Lib/STM32H7xx_HAL_Driver/Src/stm32h7xx_hal_gpio.c **** #else
 175:HAL_Lib/STM32H7xx_HAL_Driver/Src/stm32h7xx_hal_gpio.c ****   EXTI_CurrentCPU = EXTI_D1; /* EXTI for CM7 CPU */
  50              		.loc 1 175 3 view .LVU6
 176:HAL_Lib/STM32H7xx_HAL_Driver/Src/stm32h7xx_hal_gpio.c **** #endif
 177:HAL_Lib/STM32H7xx_HAL_Driver/Src/stm32h7xx_hal_gpio.c **** 
 178:HAL_Lib/STM32H7xx_HAL_Driver/Src/stm32h7xx_hal_gpio.c ****   /* Check the parameters */
 179:HAL_Lib/STM32H7xx_HAL_Driver/Src/stm32h7xx_hal_gpio.c ****   assert_param(IS_GPIO_ALL_INSTANCE(GPIOx));
ARM GAS  C:\Users\HUAV\AppData\Local\Temp\cceXbOEJ.s 			page 5


  51              		.loc 1 179 3 view .LVU7
 180:HAL_Lib/STM32H7xx_HAL_Driver/Src/stm32h7xx_hal_gpio.c ****   assert_param(IS_GPIO_PIN(GPIO_Init->Pin));
  52              		.loc 1 180 3 view .LVU8
 181:HAL_Lib/STM32H7xx_HAL_Driver/Src/stm32h7xx_hal_gpio.c ****   assert_param(IS_GPIO_MODE(GPIO_Init->Mode));
  53              		.loc 1 181 3 view .LVU9
 182:HAL_Lib/STM32H7xx_HAL_Driver/Src/stm32h7xx_hal_gpio.c **** 
 183:HAL_Lib/STM32H7xx_HAL_Driver/Src/stm32h7xx_hal_gpio.c ****   /* Configure the port pins */
 184:HAL_Lib/STM32H7xx_HAL_Driver/Src/stm32h7xx_hal_gpio.c ****   while (((GPIO_Init->Pin) >> position) != 0x00U)
  54              		.loc 1 184 3 view .LVU10
 167:HAL_Lib/STM32H7xx_HAL_Driver/Src/stm32h7xx_hal_gpio.c ****   uint32_t iocurrent;
  55              		.loc 1 167 12 is_stmt 0 view .LVU11
  56 0004 0023     		movs	r3, #0
  57              		.loc 1 184 9 view .LVU12
  58 0006 5FE0     		b	.L2
  59              	.LVL2:
  60              	.L25:
 185:HAL_Lib/STM32H7xx_HAL_Driver/Src/stm32h7xx_hal_gpio.c ****   {
 186:HAL_Lib/STM32H7xx_HAL_Driver/Src/stm32h7xx_hal_gpio.c ****     /* Get current io position */
 187:HAL_Lib/STM32H7xx_HAL_Driver/Src/stm32h7xx_hal_gpio.c ****     iocurrent = (GPIO_Init->Pin) & (1UL << position);
 188:HAL_Lib/STM32H7xx_HAL_Driver/Src/stm32h7xx_hal_gpio.c **** 
 189:HAL_Lib/STM32H7xx_HAL_Driver/Src/stm32h7xx_hal_gpio.c ****     if (iocurrent != 0x00U)
 190:HAL_Lib/STM32H7xx_HAL_Driver/Src/stm32h7xx_hal_gpio.c ****     {
 191:HAL_Lib/STM32H7xx_HAL_Driver/Src/stm32h7xx_hal_gpio.c ****       /*--------------------- GPIO Mode Configuration ------------------------*/
 192:HAL_Lib/STM32H7xx_HAL_Driver/Src/stm32h7xx_hal_gpio.c ****       /* In case of Output or Alternate function mode selection */
 193:HAL_Lib/STM32H7xx_HAL_Driver/Src/stm32h7xx_hal_gpio.c ****       if (((GPIO_Init->Mode & GPIO_MODE) == MODE_OUTPUT) || ((GPIO_Init->Mode & GPIO_MODE) == MODE_
 194:HAL_Lib/STM32H7xx_HAL_Driver/Src/stm32h7xx_hal_gpio.c ****       {
 195:HAL_Lib/STM32H7xx_HAL_Driver/Src/stm32h7xx_hal_gpio.c ****         /* Check the Speed parameter */
 196:HAL_Lib/STM32H7xx_HAL_Driver/Src/stm32h7xx_hal_gpio.c ****         assert_param(IS_GPIO_SPEED(GPIO_Init->Speed));
  61              		.loc 1 196 9 is_stmt 1 view .LVU13
 197:HAL_Lib/STM32H7xx_HAL_Driver/Src/stm32h7xx_hal_gpio.c **** 
 198:HAL_Lib/STM32H7xx_HAL_Driver/Src/stm32h7xx_hal_gpio.c ****         /* Configure the IO Speed */
 199:HAL_Lib/STM32H7xx_HAL_Driver/Src/stm32h7xx_hal_gpio.c ****         temp = GPIOx->OSPEEDR;
  62              		.loc 1 199 9 view .LVU14
  63              		.loc 1 199 14 is_stmt 0 view .LVU15
  64 0008 8668     		ldr	r6, [r0, #8]
  65              	.LVL3:
 200:HAL_Lib/STM32H7xx_HAL_Driver/Src/stm32h7xx_hal_gpio.c ****         temp &= ~(GPIO_OSPEEDR_OSPEED0 << (position * 2U));
  66              		.loc 1 200 9 is_stmt 1 view .LVU16
  67              		.loc 1 200 53 is_stmt 0 view .LVU17
  68 000a 5F00     		lsls	r7, r3, #1
  69              		.loc 1 200 40 view .LVU18
  70 000c 0325     		movs	r5, #3
  71 000e BD40     		lsls	r5, r5, r7
  72              		.loc 1 200 14 view .LVU19
  73 0010 26EA0506 		bic	r6, r6, r5
  74              	.LVL4:
 201:HAL_Lib/STM32H7xx_HAL_Driver/Src/stm32h7xx_hal_gpio.c ****         temp |= (GPIO_Init->Speed << (position * 2U));
  75              		.loc 1 201 9 is_stmt 1 view .LVU20
  76              		.loc 1 201 27 is_stmt 0 view .LVU21
  77 0014 CD68     		ldr	r5, [r1, #12]
  78              		.loc 1 201 35 view .LVU22
  79 0016 BD40     		lsls	r5, r5, r7
  80              		.loc 1 201 14 view .LVU23
  81 0018 3543     		orrs	r5, r5, r6
  82              	.LVL5:
 202:HAL_Lib/STM32H7xx_HAL_Driver/Src/stm32h7xx_hal_gpio.c ****         GPIOx->OSPEEDR = temp;
  83              		.loc 1 202 9 is_stmt 1 view .LVU24
ARM GAS  C:\Users\HUAV\AppData\Local\Temp\cceXbOEJ.s 			page 6


  84              		.loc 1 202 24 is_stmt 0 view .LVU25
  85 001a 8560     		str	r5, [r0, #8]
 203:HAL_Lib/STM32H7xx_HAL_Driver/Src/stm32h7xx_hal_gpio.c **** 
 204:HAL_Lib/STM32H7xx_HAL_Driver/Src/stm32h7xx_hal_gpio.c ****         /* Configure the IO Output Type */
 205:HAL_Lib/STM32H7xx_HAL_Driver/Src/stm32h7xx_hal_gpio.c ****         temp = GPIOx->OTYPER;
  86              		.loc 1 205 9 is_stmt 1 view .LVU26
  87              		.loc 1 205 14 is_stmt 0 view .LVU27
  88 001c 4668     		ldr	r6, [r0, #4]
  89              	.LVL6:
 206:HAL_Lib/STM32H7xx_HAL_Driver/Src/stm32h7xx_hal_gpio.c ****         temp &= ~(GPIO_OTYPER_OT0 << position) ;
  90              		.loc 1 206 9 is_stmt 1 view .LVU28
  91              		.loc 1 206 14 is_stmt 0 view .LVU29
  92 001e 26EA0406 		bic	r6, r6, r4
  93              	.LVL7:
 207:HAL_Lib/STM32H7xx_HAL_Driver/Src/stm32h7xx_hal_gpio.c ****         temp |= (((GPIO_Init->Mode & OUTPUT_TYPE) >> OUTPUT_TYPE_Pos) << position);
  94              		.loc 1 207 9 is_stmt 1 view .LVU30
  95              		.loc 1 207 29 is_stmt 0 view .LVU31
  96 0022 4D68     		ldr	r5, [r1, #4]
  97              		.loc 1 207 51 view .LVU32
  98 0024 C5F30014 		ubfx	r4, r5, #4, #1
  99              		.loc 1 207 71 view .LVU33
 100 0028 9C40     		lsls	r4, r4, r3
 101              		.loc 1 207 14 view .LVU34
 102 002a 3443     		orrs	r4, r4, r6
 103              	.LVL8:
 208:HAL_Lib/STM32H7xx_HAL_Driver/Src/stm32h7xx_hal_gpio.c ****         GPIOx->OTYPER = temp;
 104              		.loc 1 208 9 is_stmt 1 view .LVU35
 105              		.loc 1 208 23 is_stmt 0 view .LVU36
 106 002c 4460     		str	r4, [r0, #4]
 107 002e 5AE0     		b	.L4
 108              	.LVL9:
 109              	.L26:
 209:HAL_Lib/STM32H7xx_HAL_Driver/Src/stm32h7xx_hal_gpio.c ****       }
 210:HAL_Lib/STM32H7xx_HAL_Driver/Src/stm32h7xx_hal_gpio.c **** 
 211:HAL_Lib/STM32H7xx_HAL_Driver/Src/stm32h7xx_hal_gpio.c ****       if ((GPIO_Init->Mode & GPIO_MODE) != MODE_ANALOG)
 212:HAL_Lib/STM32H7xx_HAL_Driver/Src/stm32h7xx_hal_gpio.c ****       {
 213:HAL_Lib/STM32H7xx_HAL_Driver/Src/stm32h7xx_hal_gpio.c ****        /* Check the Pull parameter */
 214:HAL_Lib/STM32H7xx_HAL_Driver/Src/stm32h7xx_hal_gpio.c ****        assert_param(IS_GPIO_PULL(GPIO_Init->Pull));
 215:HAL_Lib/STM32H7xx_HAL_Driver/Src/stm32h7xx_hal_gpio.c **** 
 216:HAL_Lib/STM32H7xx_HAL_Driver/Src/stm32h7xx_hal_gpio.c ****       /* Activate the Pull-up or Pull down resistor for the current IO */
 217:HAL_Lib/STM32H7xx_HAL_Driver/Src/stm32h7xx_hal_gpio.c ****       temp = GPIOx->PUPDR;
 218:HAL_Lib/STM32H7xx_HAL_Driver/Src/stm32h7xx_hal_gpio.c ****       temp &= ~(GPIO_PUPDR_PUPD0 << (position * 2U));
 219:HAL_Lib/STM32H7xx_HAL_Driver/Src/stm32h7xx_hal_gpio.c ****       temp |= ((GPIO_Init->Pull) << (position * 2U));
 220:HAL_Lib/STM32H7xx_HAL_Driver/Src/stm32h7xx_hal_gpio.c ****       GPIOx->PUPDR = temp;
 221:HAL_Lib/STM32H7xx_HAL_Driver/Src/stm32h7xx_hal_gpio.c ****       }
 222:HAL_Lib/STM32H7xx_HAL_Driver/Src/stm32h7xx_hal_gpio.c **** 
 223:HAL_Lib/STM32H7xx_HAL_Driver/Src/stm32h7xx_hal_gpio.c ****       /* In case of Alternate function mode selection */
 224:HAL_Lib/STM32H7xx_HAL_Driver/Src/stm32h7xx_hal_gpio.c ****       if ((GPIO_Init->Mode & GPIO_MODE) == MODE_AF)
 225:HAL_Lib/STM32H7xx_HAL_Driver/Src/stm32h7xx_hal_gpio.c ****       {
 226:HAL_Lib/STM32H7xx_HAL_Driver/Src/stm32h7xx_hal_gpio.c ****         /* Check the Alternate function parameters */
 227:HAL_Lib/STM32H7xx_HAL_Driver/Src/stm32h7xx_hal_gpio.c ****         assert_param(IS_GPIO_AF_INSTANCE(GPIOx));
 110              		.loc 1 227 9 is_stmt 1 view .LVU37
 228:HAL_Lib/STM32H7xx_HAL_Driver/Src/stm32h7xx_hal_gpio.c ****         assert_param(IS_GPIO_AF(GPIO_Init->Alternate));
 111              		.loc 1 228 9 view .LVU38
 229:HAL_Lib/STM32H7xx_HAL_Driver/Src/stm32h7xx_hal_gpio.c **** 
 230:HAL_Lib/STM32H7xx_HAL_Driver/Src/stm32h7xx_hal_gpio.c ****         /* Configure Alternate function mapped with the current IO */
 231:HAL_Lib/STM32H7xx_HAL_Driver/Src/stm32h7xx_hal_gpio.c ****         temp = GPIOx->AFR[position >> 3U];
ARM GAS  C:\Users\HUAV\AppData\Local\Temp\cceXbOEJ.s 			page 7


 112              		.loc 1 231 9 view .LVU39
 113              		.loc 1 231 36 is_stmt 0 view .LVU40
 114 0030 DD08     		lsrs	r5, r3, #3
 115              		.loc 1 231 14 view .LVU41
 116 0032 0835     		adds	r5, r5, #8
 117 0034 50F82570 		ldr	r7, [r0, r5, lsl #2]
 118              	.LVL10:
 232:HAL_Lib/STM32H7xx_HAL_Driver/Src/stm32h7xx_hal_gpio.c ****         temp &= ~(0xFU << ((position & 0x07U) * 4U));
 119              		.loc 1 232 9 is_stmt 1 view .LVU42
 120              		.loc 1 232 38 is_stmt 0 view .LVU43
 121 0038 03F00704 		and	r4, r3, #7
 122              		.loc 1 232 47 view .LVU44
 123 003c A600     		lsls	r6, r4, #2
 124              		.loc 1 232 24 view .LVU45
 125 003e 0F24     		movs	r4, #15
 126 0040 B440     		lsls	r4, r4, r6
 127              		.loc 1 232 14 view .LVU46
 128 0042 27EA0407 		bic	r7, r7, r4
 129              	.LVL11:
 233:HAL_Lib/STM32H7xx_HAL_Driver/Src/stm32h7xx_hal_gpio.c ****         temp |= ((GPIO_Init->Alternate) << ((position & 0x07U) * 4U));
 130              		.loc 1 233 9 is_stmt 1 view .LVU47
 131              		.loc 1 233 28 is_stmt 0 view .LVU48
 132 0046 0C69     		ldr	r4, [r1, #16]
 133              		.loc 1 233 41 view .LVU49
 134 0048 B440     		lsls	r4, r4, r6
 135              		.loc 1 233 14 view .LVU50
 136 004a 3C43     		orrs	r4, r4, r7
 137              	.LVL12:
 234:HAL_Lib/STM32H7xx_HAL_Driver/Src/stm32h7xx_hal_gpio.c ****         GPIOx->AFR[position >> 3U] = temp;
 138              		.loc 1 234 9 is_stmt 1 view .LVU51
 139              		.loc 1 234 36 is_stmt 0 view .LVU52
 140 004c 40F82540 		str	r4, [r0, r5, lsl #2]
 141 0050 5DE0     		b	.L6
 142              	.LVL13:
 143              	.L27:
 235:HAL_Lib/STM32H7xx_HAL_Driver/Src/stm32h7xx_hal_gpio.c ****       }
 236:HAL_Lib/STM32H7xx_HAL_Driver/Src/stm32h7xx_hal_gpio.c **** 
 237:HAL_Lib/STM32H7xx_HAL_Driver/Src/stm32h7xx_hal_gpio.c ****       /* Configure IO Direction mode (Input, Output, Alternate or Analog) */
 238:HAL_Lib/STM32H7xx_HAL_Driver/Src/stm32h7xx_hal_gpio.c ****       temp = GPIOx->MODER;
 239:HAL_Lib/STM32H7xx_HAL_Driver/Src/stm32h7xx_hal_gpio.c ****       temp &= ~(GPIO_MODER_MODE0 << (position * 2U));
 240:HAL_Lib/STM32H7xx_HAL_Driver/Src/stm32h7xx_hal_gpio.c ****       temp |= ((GPIO_Init->Mode & GPIO_MODE) << (position * 2U));
 241:HAL_Lib/STM32H7xx_HAL_Driver/Src/stm32h7xx_hal_gpio.c ****       GPIOx->MODER = temp;
 242:HAL_Lib/STM32H7xx_HAL_Driver/Src/stm32h7xx_hal_gpio.c **** 
 243:HAL_Lib/STM32H7xx_HAL_Driver/Src/stm32h7xx_hal_gpio.c ****       /*--------------------- EXTI Mode Configuration ------------------------*/
 244:HAL_Lib/STM32H7xx_HAL_Driver/Src/stm32h7xx_hal_gpio.c ****       /* Configure the External Interrupt or event for the current IO */
 245:HAL_Lib/STM32H7xx_HAL_Driver/Src/stm32h7xx_hal_gpio.c ****       if ((GPIO_Init->Mode & EXTI_MODE) != 0x00U)
 246:HAL_Lib/STM32H7xx_HAL_Driver/Src/stm32h7xx_hal_gpio.c ****       {
 247:HAL_Lib/STM32H7xx_HAL_Driver/Src/stm32h7xx_hal_gpio.c ****         /* Enable SYSCFG Clock */
 248:HAL_Lib/STM32H7xx_HAL_Driver/Src/stm32h7xx_hal_gpio.c ****         __HAL_RCC_SYSCFG_CLK_ENABLE();
 249:HAL_Lib/STM32H7xx_HAL_Driver/Src/stm32h7xx_hal_gpio.c **** 
 250:HAL_Lib/STM32H7xx_HAL_Driver/Src/stm32h7xx_hal_gpio.c ****         temp = SYSCFG->EXTICR[position >> 2U];
 251:HAL_Lib/STM32H7xx_HAL_Driver/Src/stm32h7xx_hal_gpio.c ****         temp &= ~(0x0FUL << (4U * (position & 0x03U)));
 252:HAL_Lib/STM32H7xx_HAL_Driver/Src/stm32h7xx_hal_gpio.c ****         temp |= (GPIO_GET_INDEX(GPIOx) << (4U * (position & 0x03U)));
 144              		.loc 1 252 18 view .LVU53
 145 0052 0924     		movs	r4, #9
 146 0054 00E0     		b	.L7
 147              	.L13:
ARM GAS  C:\Users\HUAV\AppData\Local\Temp\cceXbOEJ.s 			page 8


 148 0056 0024     		movs	r4, #0
 149              	.L7:
 150              		.loc 1 252 40 discriminator 40 view .LVU54
 151 0058 B440     		lsls	r4, r4, r6
 152              		.loc 1 252 14 discriminator 40 view .LVU55
 153 005a 3C43     		orrs	r4, r4, r7
 154              	.LVL14:
 253:HAL_Lib/STM32H7xx_HAL_Driver/Src/stm32h7xx_hal_gpio.c ****         SYSCFG->EXTICR[position >> 2U] = temp;
 155              		.loc 1 253 9 is_stmt 1 discriminator 40 view .LVU56
 156              		.loc 1 253 40 is_stmt 0 discriminator 40 view .LVU57
 157 005c 0235     		adds	r5, r5, #2
 158 005e 5F4E     		ldr	r6, .L28
 159 0060 46F82540 		str	r4, [r6, r5, lsl #2]
 254:HAL_Lib/STM32H7xx_HAL_Driver/Src/stm32h7xx_hal_gpio.c **** 
 255:HAL_Lib/STM32H7xx_HAL_Driver/Src/stm32h7xx_hal_gpio.c ****         /* Clear Rising Falling edge configuration */
 256:HAL_Lib/STM32H7xx_HAL_Driver/Src/stm32h7xx_hal_gpio.c ****         temp = EXTI->RTSR1;
 160              		.loc 1 256 9 is_stmt 1 discriminator 40 view .LVU58
 161              		.loc 1 256 14 is_stmt 0 discriminator 40 view .LVU59
 162 0064 4FF0B044 		mov	r4, #1476395008
 163              	.LVL15:
 164              		.loc 1 256 14 discriminator 40 view .LVU60
 165 0068 2568     		ldr	r5, [r4]
 166              	.LVL16:
 257:HAL_Lib/STM32H7xx_HAL_Driver/Src/stm32h7xx_hal_gpio.c ****         temp &= ~(iocurrent);
 167              		.loc 1 257 9 is_stmt 1 discriminator 40 view .LVU61
 168              		.loc 1 257 17 is_stmt 0 discriminator 40 view .LVU62
 169 006a D443     		mvns	r4, r2
 170              		.loc 1 257 14 discriminator 40 view .LVU63
 171 006c 25EA0206 		bic	r6, r5, r2
 172              	.LVL17:
 258:HAL_Lib/STM32H7xx_HAL_Driver/Src/stm32h7xx_hal_gpio.c ****         if ((GPIO_Init->Mode & TRIGGER_RISING) != 0x00U)
 173              		.loc 1 258 9 is_stmt 1 discriminator 40 view .LVU64
 174              		.loc 1 258 23 is_stmt 0 discriminator 40 view .LVU65
 175 0070 4F68     		ldr	r7, [r1, #4]
 176              		.loc 1 258 12 discriminator 40 view .LVU66
 177 0072 17F4801F 		tst	r7, #1048576
 178 0076 01D0     		beq	.L8
 259:HAL_Lib/STM32H7xx_HAL_Driver/Src/stm32h7xx_hal_gpio.c ****         {
 260:HAL_Lib/STM32H7xx_HAL_Driver/Src/stm32h7xx_hal_gpio.c ****           temp |= iocurrent;
 179              		.loc 1 260 11 is_stmt 1 view .LVU67
 180              		.loc 1 260 16 is_stmt 0 view .LVU68
 181 0078 42EA0506 		orr	r6, r2, r5
 182              	.LVL18:
 183              	.L8:
 261:HAL_Lib/STM32H7xx_HAL_Driver/Src/stm32h7xx_hal_gpio.c ****         }
 262:HAL_Lib/STM32H7xx_HAL_Driver/Src/stm32h7xx_hal_gpio.c ****         EXTI->RTSR1 = temp;
 184              		.loc 1 262 9 is_stmt 1 view .LVU69
 185              		.loc 1 262 21 is_stmt 0 view .LVU70
 186 007c 4FF0B045 		mov	r5, #1476395008
 187 0080 2E60     		str	r6, [r5]
 263:HAL_Lib/STM32H7xx_HAL_Driver/Src/stm32h7xx_hal_gpio.c **** 
 264:HAL_Lib/STM32H7xx_HAL_Driver/Src/stm32h7xx_hal_gpio.c ****         temp = EXTI->FTSR1;
 188              		.loc 1 264 9 is_stmt 1 view .LVU71
 189              		.loc 1 264 14 is_stmt 0 view .LVU72
 190 0082 6E68     		ldr	r6, [r5, #4]
 191              	.LVL19:
 265:HAL_Lib/STM32H7xx_HAL_Driver/Src/stm32h7xx_hal_gpio.c ****         temp &= ~(iocurrent);
ARM GAS  C:\Users\HUAV\AppData\Local\Temp\cceXbOEJ.s 			page 9


 192              		.loc 1 265 9 is_stmt 1 view .LVU73
 193              		.loc 1 265 14 is_stmt 0 view .LVU74
 194 0084 04EA0605 		and	r5, r4, r6
 195              	.LVL20:
 266:HAL_Lib/STM32H7xx_HAL_Driver/Src/stm32h7xx_hal_gpio.c ****         if ((GPIO_Init->Mode & TRIGGER_FALLING) != 0x00U)
 196              		.loc 1 266 9 is_stmt 1 view .LVU75
 197              		.loc 1 266 23 is_stmt 0 view .LVU76
 198 0088 4F68     		ldr	r7, [r1, #4]
 199              		.loc 1 266 12 view .LVU77
 200 008a 17F4001F 		tst	r7, #2097152
 201 008e 01D0     		beq	.L9
 267:HAL_Lib/STM32H7xx_HAL_Driver/Src/stm32h7xx_hal_gpio.c ****         {
 268:HAL_Lib/STM32H7xx_HAL_Driver/Src/stm32h7xx_hal_gpio.c ****           temp |= iocurrent;
 202              		.loc 1 268 11 is_stmt 1 view .LVU78
 203              		.loc 1 268 16 is_stmt 0 view .LVU79
 204 0090 42EA0605 		orr	r5, r2, r6
 205              	.LVL21:
 206              	.L9:
 269:HAL_Lib/STM32H7xx_HAL_Driver/Src/stm32h7xx_hal_gpio.c ****         }
 270:HAL_Lib/STM32H7xx_HAL_Driver/Src/stm32h7xx_hal_gpio.c ****         EXTI->FTSR1 = temp;
 207              		.loc 1 270 9 is_stmt 1 view .LVU80
 208              		.loc 1 270 21 is_stmt 0 view .LVU81
 209 0094 4FF0B046 		mov	r6, #1476395008
 210 0098 7560     		str	r5, [r6, #4]
 271:HAL_Lib/STM32H7xx_HAL_Driver/Src/stm32h7xx_hal_gpio.c **** 
 272:HAL_Lib/STM32H7xx_HAL_Driver/Src/stm32h7xx_hal_gpio.c ****         temp = EXTI_CurrentCPU->EMR1;
 211              		.loc 1 272 9 is_stmt 1 view .LVU82
 212              		.loc 1 272 14 is_stmt 0 view .LVU83
 213 009a 514D     		ldr	r5, .L28+4
 214              	.LVL22:
 215              		.loc 1 272 14 view .LVU84
 216 009c 6D68     		ldr	r5, [r5, #4]
 217              	.LVL23:
 273:HAL_Lib/STM32H7xx_HAL_Driver/Src/stm32h7xx_hal_gpio.c ****         temp &= ~(iocurrent);
 218              		.loc 1 273 9 is_stmt 1 view .LVU85
 219              		.loc 1 273 14 is_stmt 0 view .LVU86
 220 009e 04EA0506 		and	r6, r4, r5
 221              	.LVL24:
 274:HAL_Lib/STM32H7xx_HAL_Driver/Src/stm32h7xx_hal_gpio.c ****         if ((GPIO_Init->Mode & EXTI_EVT) != 0x00U)
 222              		.loc 1 274 9 is_stmt 1 view .LVU87
 223              		.loc 1 274 23 is_stmt 0 view .LVU88
 224 00a2 4F68     		ldr	r7, [r1, #4]
 225              		.loc 1 274 12 view .LVU89
 226 00a4 17F4003F 		tst	r7, #131072
 227 00a8 01D0     		beq	.L10
 275:HAL_Lib/STM32H7xx_HAL_Driver/Src/stm32h7xx_hal_gpio.c ****         {
 276:HAL_Lib/STM32H7xx_HAL_Driver/Src/stm32h7xx_hal_gpio.c ****           temp |= iocurrent;
 228              		.loc 1 276 11 is_stmt 1 view .LVU90
 229              		.loc 1 276 16 is_stmt 0 view .LVU91
 230 00aa 42EA0506 		orr	r6, r2, r5
 231              	.LVL25:
 232              	.L10:
 277:HAL_Lib/STM32H7xx_HAL_Driver/Src/stm32h7xx_hal_gpio.c ****         }
 278:HAL_Lib/STM32H7xx_HAL_Driver/Src/stm32h7xx_hal_gpio.c ****         EXTI_CurrentCPU->EMR1 = temp;
 233              		.loc 1 278 9 is_stmt 1 view .LVU92
 234              		.loc 1 278 31 is_stmt 0 view .LVU93
 235 00ae 4C4D     		ldr	r5, .L28+4
ARM GAS  C:\Users\HUAV\AppData\Local\Temp\cceXbOEJ.s 			page 10


 236 00b0 6E60     		str	r6, [r5, #4]
 279:HAL_Lib/STM32H7xx_HAL_Driver/Src/stm32h7xx_hal_gpio.c **** 
 280:HAL_Lib/STM32H7xx_HAL_Driver/Src/stm32h7xx_hal_gpio.c ****         /* Clear EXTI line configuration */
 281:HAL_Lib/STM32H7xx_HAL_Driver/Src/stm32h7xx_hal_gpio.c ****         temp = EXTI_CurrentCPU->IMR1;
 237              		.loc 1 281 9 is_stmt 1 view .LVU94
 238              		.loc 1 281 14 is_stmt 0 view .LVU95
 239 00b2 2D68     		ldr	r5, [r5]
 240              	.LVL26:
 282:HAL_Lib/STM32H7xx_HAL_Driver/Src/stm32h7xx_hal_gpio.c ****         temp &= ~(iocurrent);
 241              		.loc 1 282 9 is_stmt 1 view .LVU96
 242              		.loc 1 282 14 is_stmt 0 view .LVU97
 243 00b4 2C40     		ands	r4, r4, r5
 244              	.LVL27:
 283:HAL_Lib/STM32H7xx_HAL_Driver/Src/stm32h7xx_hal_gpio.c ****         if ((GPIO_Init->Mode & EXTI_IT) != 0x00U)
 245              		.loc 1 283 9 is_stmt 1 view .LVU98
 246              		.loc 1 283 23 is_stmt 0 view .LVU99
 247 00b6 4E68     		ldr	r6, [r1, #4]
 248              		.loc 1 283 12 view .LVU100
 249 00b8 16F4803F 		tst	r6, #65536
 250 00bc 01D0     		beq	.L11
 284:HAL_Lib/STM32H7xx_HAL_Driver/Src/stm32h7xx_hal_gpio.c ****         {
 285:HAL_Lib/STM32H7xx_HAL_Driver/Src/stm32h7xx_hal_gpio.c ****           temp |= iocurrent;
 251              		.loc 1 285 11 is_stmt 1 view .LVU101
 252              		.loc 1 285 16 is_stmt 0 view .LVU102
 253 00be 42EA0504 		orr	r4, r2, r5
 254              	.LVL28:
 255              	.L11:
 286:HAL_Lib/STM32H7xx_HAL_Driver/Src/stm32h7xx_hal_gpio.c ****         }
 287:HAL_Lib/STM32H7xx_HAL_Driver/Src/stm32h7xx_hal_gpio.c ****         EXTI_CurrentCPU->IMR1 = temp;
 256              		.loc 1 287 9 is_stmt 1 view .LVU103
 257              		.loc 1 287 31 is_stmt 0 view .LVU104
 258 00c2 474A     		ldr	r2, .L28+4
 259              	.LVL29:
 260              		.loc 1 287 31 view .LVU105
 261 00c4 1460     		str	r4, [r2]
 262              	.LVL30:
 263              	.L3:
 288:HAL_Lib/STM32H7xx_HAL_Driver/Src/stm32h7xx_hal_gpio.c ****       }
 289:HAL_Lib/STM32H7xx_HAL_Driver/Src/stm32h7xx_hal_gpio.c ****     }
 290:HAL_Lib/STM32H7xx_HAL_Driver/Src/stm32h7xx_hal_gpio.c **** 
 291:HAL_Lib/STM32H7xx_HAL_Driver/Src/stm32h7xx_hal_gpio.c ****     position++;
 264              		.loc 1 291 5 is_stmt 1 view .LVU106
 265              		.loc 1 291 13 is_stmt 0 view .LVU107
 266 00c6 0133     		adds	r3, r3, #1
 267              	.LVL31:
 268              	.L2:
 184:HAL_Lib/STM32H7xx_HAL_Driver/Src/stm32h7xx_hal_gpio.c ****   {
 269              		.loc 1 184 9 is_stmt 1 view .LVU108
 184:HAL_Lib/STM32H7xx_HAL_Driver/Src/stm32h7xx_hal_gpio.c ****   {
 270              		.loc 1 184 21 is_stmt 0 view .LVU109
 271 00c8 0A68     		ldr	r2, [r1]
 184:HAL_Lib/STM32H7xx_HAL_Driver/Src/stm32h7xx_hal_gpio.c ****   {
 272              		.loc 1 184 9 view .LVU110
 273 00ca 32FA03F4 		lsrs	r4, r2, r3
 274 00ce 00F08280 		beq	.L24
 187:HAL_Lib/STM32H7xx_HAL_Driver/Src/stm32h7xx_hal_gpio.c **** 
 275              		.loc 1 187 5 is_stmt 1 view .LVU111
ARM GAS  C:\Users\HUAV\AppData\Local\Temp\cceXbOEJ.s 			page 11


 187:HAL_Lib/STM32H7xx_HAL_Driver/Src/stm32h7xx_hal_gpio.c **** 
 276              		.loc 1 187 41 is_stmt 0 view .LVU112
 277 00d2 0124     		movs	r4, #1
 278 00d4 9C40     		lsls	r4, r4, r3
 279              	.LVL32:
 189:HAL_Lib/STM32H7xx_HAL_Driver/Src/stm32h7xx_hal_gpio.c ****     {
 280              		.loc 1 189 5 is_stmt 1 view .LVU113
 189:HAL_Lib/STM32H7xx_HAL_Driver/Src/stm32h7xx_hal_gpio.c ****     {
 281              		.loc 1 189 8 is_stmt 0 view .LVU114
 282 00d6 2240     		ands	r2, r4, r2
 283              	.LVL33:
 189:HAL_Lib/STM32H7xx_HAL_Driver/Src/stm32h7xx_hal_gpio.c ****     {
 284              		.loc 1 189 8 view .LVU115
 285 00d8 F5D0     		beq	.L3
 193:HAL_Lib/STM32H7xx_HAL_Driver/Src/stm32h7xx_hal_gpio.c ****       {
 286              		.loc 1 193 7 is_stmt 1 view .LVU116
 193:HAL_Lib/STM32H7xx_HAL_Driver/Src/stm32h7xx_hal_gpio.c ****       {
 287              		.loc 1 193 22 is_stmt 0 view .LVU117
 288 00da 4D68     		ldr	r5, [r1, #4]
 193:HAL_Lib/STM32H7xx_HAL_Driver/Src/stm32h7xx_hal_gpio.c ****       {
 289              		.loc 1 193 29 view .LVU118
 290 00dc 05F00305 		and	r5, r5, #3
 193:HAL_Lib/STM32H7xx_HAL_Driver/Src/stm32h7xx_hal_gpio.c ****       {
 291              		.loc 1 193 58 view .LVU119
 292 00e0 013D     		subs	r5, r5, #1
 193:HAL_Lib/STM32H7xx_HAL_Driver/Src/stm32h7xx_hal_gpio.c ****       {
 293              		.loc 1 193 10 view .LVU120
 294 00e2 012D     		cmp	r5, #1
 295 00e4 90D9     		bls	.L25
 296              	.L4:
 211:HAL_Lib/STM32H7xx_HAL_Driver/Src/stm32h7xx_hal_gpio.c ****       {
 297              		.loc 1 211 7 is_stmt 1 view .LVU121
 211:HAL_Lib/STM32H7xx_HAL_Driver/Src/stm32h7xx_hal_gpio.c ****       {
 298              		.loc 1 211 21 is_stmt 0 view .LVU122
 299 00e6 4C68     		ldr	r4, [r1, #4]
 211:HAL_Lib/STM32H7xx_HAL_Driver/Src/stm32h7xx_hal_gpio.c ****       {
 300              		.loc 1 211 28 view .LVU123
 301 00e8 04F00304 		and	r4, r4, #3
 211:HAL_Lib/STM32H7xx_HAL_Driver/Src/stm32h7xx_hal_gpio.c ****       {
 302              		.loc 1 211 10 view .LVU124
 303 00ec 032C     		cmp	r4, #3
 304 00ee 09D0     		beq	.L5
 214:HAL_Lib/STM32H7xx_HAL_Driver/Src/stm32h7xx_hal_gpio.c **** 
 305              		.loc 1 214 8 is_stmt 1 view .LVU125
 217:HAL_Lib/STM32H7xx_HAL_Driver/Src/stm32h7xx_hal_gpio.c ****       temp &= ~(GPIO_PUPDR_PUPD0 << (position * 2U));
 306              		.loc 1 217 7 view .LVU126
 217:HAL_Lib/STM32H7xx_HAL_Driver/Src/stm32h7xx_hal_gpio.c ****       temp &= ~(GPIO_PUPDR_PUPD0 << (position * 2U));
 307              		.loc 1 217 12 is_stmt 0 view .LVU127
 308 00f0 C568     		ldr	r5, [r0, #12]
 309              	.LVL34:
 218:HAL_Lib/STM32H7xx_HAL_Driver/Src/stm32h7xx_hal_gpio.c ****       temp |= ((GPIO_Init->Pull) << (position * 2U));
 310              		.loc 1 218 7 is_stmt 1 view .LVU128
 218:HAL_Lib/STM32H7xx_HAL_Driver/Src/stm32h7xx_hal_gpio.c ****       temp |= ((GPIO_Init->Pull) << (position * 2U));
 311              		.loc 1 218 47 is_stmt 0 view .LVU129
 312 00f2 5E00     		lsls	r6, r3, #1
 218:HAL_Lib/STM32H7xx_HAL_Driver/Src/stm32h7xx_hal_gpio.c ****       temp |= ((GPIO_Init->Pull) << (position * 2U));
 313              		.loc 1 218 34 view .LVU130
ARM GAS  C:\Users\HUAV\AppData\Local\Temp\cceXbOEJ.s 			page 12


 314 00f4 0324     		movs	r4, #3
 315 00f6 B440     		lsls	r4, r4, r6
 218:HAL_Lib/STM32H7xx_HAL_Driver/Src/stm32h7xx_hal_gpio.c ****       temp |= ((GPIO_Init->Pull) << (position * 2U));
 316              		.loc 1 218 12 view .LVU131
 317 00f8 25EA0405 		bic	r5, r5, r4
 318              	.LVL35:
 219:HAL_Lib/STM32H7xx_HAL_Driver/Src/stm32h7xx_hal_gpio.c ****       GPIOx->PUPDR = temp;
 319              		.loc 1 219 7 is_stmt 1 view .LVU132
 219:HAL_Lib/STM32H7xx_HAL_Driver/Src/stm32h7xx_hal_gpio.c ****       GPIOx->PUPDR = temp;
 320              		.loc 1 219 26 is_stmt 0 view .LVU133
 321 00fc 8C68     		ldr	r4, [r1, #8]
 219:HAL_Lib/STM32H7xx_HAL_Driver/Src/stm32h7xx_hal_gpio.c ****       GPIOx->PUPDR = temp;
 322              		.loc 1 219 34 view .LVU134
 323 00fe B440     		lsls	r4, r4, r6
 219:HAL_Lib/STM32H7xx_HAL_Driver/Src/stm32h7xx_hal_gpio.c ****       GPIOx->PUPDR = temp;
 324              		.loc 1 219 12 view .LVU135
 325 0100 2C43     		orrs	r4, r4, r5
 326              	.LVL36:
 220:HAL_Lib/STM32H7xx_HAL_Driver/Src/stm32h7xx_hal_gpio.c ****       }
 327              		.loc 1 220 7 is_stmt 1 view .LVU136
 220:HAL_Lib/STM32H7xx_HAL_Driver/Src/stm32h7xx_hal_gpio.c ****       }
 328              		.loc 1 220 20 is_stmt 0 view .LVU137
 329 0102 C460     		str	r4, [r0, #12]
 330              	.LVL37:
 331              	.L5:
 224:HAL_Lib/STM32H7xx_HAL_Driver/Src/stm32h7xx_hal_gpio.c ****       {
 332              		.loc 1 224 7 is_stmt 1 view .LVU138
 224:HAL_Lib/STM32H7xx_HAL_Driver/Src/stm32h7xx_hal_gpio.c ****       {
 333              		.loc 1 224 21 is_stmt 0 view .LVU139
 334 0104 4C68     		ldr	r4, [r1, #4]
 224:HAL_Lib/STM32H7xx_HAL_Driver/Src/stm32h7xx_hal_gpio.c ****       {
 335              		.loc 1 224 28 view .LVU140
 336 0106 04F00304 		and	r4, r4, #3
 224:HAL_Lib/STM32H7xx_HAL_Driver/Src/stm32h7xx_hal_gpio.c ****       {
 337              		.loc 1 224 10 view .LVU141
 338 010a 022C     		cmp	r4, #2
 339 010c 90D0     		beq	.L26
 340              	.L6:
 238:HAL_Lib/STM32H7xx_HAL_Driver/Src/stm32h7xx_hal_gpio.c ****       temp &= ~(GPIO_MODER_MODE0 << (position * 2U));
 341              		.loc 1 238 7 is_stmt 1 view .LVU142
 238:HAL_Lib/STM32H7xx_HAL_Driver/Src/stm32h7xx_hal_gpio.c ****       temp &= ~(GPIO_MODER_MODE0 << (position * 2U));
 342              		.loc 1 238 12 is_stmt 0 view .LVU143
 343 010e 0568     		ldr	r5, [r0]
 344              	.LVL38:
 239:HAL_Lib/STM32H7xx_HAL_Driver/Src/stm32h7xx_hal_gpio.c ****       temp |= ((GPIO_Init->Mode & GPIO_MODE) << (position * 2U));
 345              		.loc 1 239 7 is_stmt 1 view .LVU144
 239:HAL_Lib/STM32H7xx_HAL_Driver/Src/stm32h7xx_hal_gpio.c ****       temp |= ((GPIO_Init->Mode & GPIO_MODE) << (position * 2U));
 346              		.loc 1 239 47 is_stmt 0 view .LVU145
 347 0110 5E00     		lsls	r6, r3, #1
 239:HAL_Lib/STM32H7xx_HAL_Driver/Src/stm32h7xx_hal_gpio.c ****       temp |= ((GPIO_Init->Mode & GPIO_MODE) << (position * 2U));
 348              		.loc 1 239 34 view .LVU146
 349 0112 0324     		movs	r4, #3
 350 0114 B440     		lsls	r4, r4, r6
 239:HAL_Lib/STM32H7xx_HAL_Driver/Src/stm32h7xx_hal_gpio.c ****       temp |= ((GPIO_Init->Mode & GPIO_MODE) << (position * 2U));
 351              		.loc 1 239 12 view .LVU147
 352 0116 25EA0405 		bic	r5, r5, r4
 353              	.LVL39:
ARM GAS  C:\Users\HUAV\AppData\Local\Temp\cceXbOEJ.s 			page 13


 240:HAL_Lib/STM32H7xx_HAL_Driver/Src/stm32h7xx_hal_gpio.c ****       GPIOx->MODER = temp;
 354              		.loc 1 240 7 is_stmt 1 view .LVU148
 240:HAL_Lib/STM32H7xx_HAL_Driver/Src/stm32h7xx_hal_gpio.c ****       GPIOx->MODER = temp;
 355              		.loc 1 240 26 is_stmt 0 view .LVU149
 356 011a 4C68     		ldr	r4, [r1, #4]
 240:HAL_Lib/STM32H7xx_HAL_Driver/Src/stm32h7xx_hal_gpio.c ****       GPIOx->MODER = temp;
 357              		.loc 1 240 33 view .LVU150
 358 011c 04F00304 		and	r4, r4, #3
 240:HAL_Lib/STM32H7xx_HAL_Driver/Src/stm32h7xx_hal_gpio.c ****       GPIOx->MODER = temp;
 359              		.loc 1 240 46 view .LVU151
 360 0120 B440     		lsls	r4, r4, r6
 240:HAL_Lib/STM32H7xx_HAL_Driver/Src/stm32h7xx_hal_gpio.c ****       GPIOx->MODER = temp;
 361              		.loc 1 240 12 view .LVU152
 362 0122 2C43     		orrs	r4, r4, r5
 363              	.LVL40:
 241:HAL_Lib/STM32H7xx_HAL_Driver/Src/stm32h7xx_hal_gpio.c **** 
 364              		.loc 1 241 7 is_stmt 1 view .LVU153
 241:HAL_Lib/STM32H7xx_HAL_Driver/Src/stm32h7xx_hal_gpio.c **** 
 365              		.loc 1 241 20 is_stmt 0 view .LVU154
 366 0124 0460     		str	r4, [r0]
 245:HAL_Lib/STM32H7xx_HAL_Driver/Src/stm32h7xx_hal_gpio.c ****       {
 367              		.loc 1 245 7 is_stmt 1 view .LVU155
 245:HAL_Lib/STM32H7xx_HAL_Driver/Src/stm32h7xx_hal_gpio.c ****       {
 368              		.loc 1 245 21 is_stmt 0 view .LVU156
 369 0126 4C68     		ldr	r4, [r1, #4]
 370              	.LVL41:
 245:HAL_Lib/STM32H7xx_HAL_Driver/Src/stm32h7xx_hal_gpio.c ****       {
 371              		.loc 1 245 10 view .LVU157
 372 0128 14F4403F 		tst	r4, #196608
 373 012c CBD0     		beq	.L3
 248:HAL_Lib/STM32H7xx_HAL_Driver/Src/stm32h7xx_hal_gpio.c **** 
 374              		.loc 1 248 9 is_stmt 1 view .LVU158
 375              	.LBB2:
 248:HAL_Lib/STM32H7xx_HAL_Driver/Src/stm32h7xx_hal_gpio.c **** 
 376              		.loc 1 248 9 view .LVU159
 248:HAL_Lib/STM32H7xx_HAL_Driver/Src/stm32h7xx_hal_gpio.c **** 
 377              		.loc 1 248 9 view .LVU160
 378 012e 2D4C     		ldr	r4, .L28+8
 379 0130 D4F8F450 		ldr	r5, [r4, #244]
 380 0134 45F00205 		orr	r5, r5, #2
 381 0138 C4F8F450 		str	r5, [r4, #244]
 382              	.LVL42:
 248:HAL_Lib/STM32H7xx_HAL_Driver/Src/stm32h7xx_hal_gpio.c **** 
 383              		.loc 1 248 9 view .LVU161
 384 013c D4F8F440 		ldr	r4, [r4, #244]
 385 0140 04F00204 		and	r4, r4, #2
 386 0144 0194     		str	r4, [sp, #4]
 248:HAL_Lib/STM32H7xx_HAL_Driver/Src/stm32h7xx_hal_gpio.c **** 
 387              		.loc 1 248 9 view .LVU162
 388 0146 019C     		ldr	r4, [sp, #4]
 389              	.LBE2:
 248:HAL_Lib/STM32H7xx_HAL_Driver/Src/stm32h7xx_hal_gpio.c **** 
 390              		.loc 1 248 9 view .LVU163
 250:HAL_Lib/STM32H7xx_HAL_Driver/Src/stm32h7xx_hal_gpio.c ****         temp &= ~(0x0FUL << (4U * (position & 0x03U)));
 391              		.loc 1 250 9 view .LVU164
 250:HAL_Lib/STM32H7xx_HAL_Driver/Src/stm32h7xx_hal_gpio.c ****         temp &= ~(0x0FUL << (4U * (position & 0x03U)));
 392              		.loc 1 250 40 is_stmt 0 view .LVU165
ARM GAS  C:\Users\HUAV\AppData\Local\Temp\cceXbOEJ.s 			page 14


 393 0148 9D08     		lsrs	r5, r3, #2
 250:HAL_Lib/STM32H7xx_HAL_Driver/Src/stm32h7xx_hal_gpio.c ****         temp &= ~(0x0FUL << (4U * (position & 0x03U)));
 394              		.loc 1 250 14 view .LVU166
 395 014a AE1C     		adds	r6, r5, #2
 396 014c 234C     		ldr	r4, .L28
 397 014e 54F82670 		ldr	r7, [r4, r6, lsl #2]
 398              	.LVL43:
 251:HAL_Lib/STM32H7xx_HAL_Driver/Src/stm32h7xx_hal_gpio.c ****         temp |= (GPIO_GET_INDEX(GPIOx) << (4U * (position & 0x03U)));
 399              		.loc 1 251 9 is_stmt 1 view .LVU167
 251:HAL_Lib/STM32H7xx_HAL_Driver/Src/stm32h7xx_hal_gpio.c ****         temp |= (GPIO_GET_INDEX(GPIOx) << (4U * (position & 0x03U)));
 400              		.loc 1 251 45 is_stmt 0 view .LVU168
 401 0152 03F00304 		and	r4, r3, #3
 251:HAL_Lib/STM32H7xx_HAL_Driver/Src/stm32h7xx_hal_gpio.c ****         temp |= (GPIO_GET_INDEX(GPIOx) << (4U * (position & 0x03U)));
 402              		.loc 1 251 33 view .LVU169
 403 0156 A600     		lsls	r6, r4, #2
 251:HAL_Lib/STM32H7xx_HAL_Driver/Src/stm32h7xx_hal_gpio.c ****         temp |= (GPIO_GET_INDEX(GPIOx) << (4U * (position & 0x03U)));
 404              		.loc 1 251 26 view .LVU170
 405 0158 0F24     		movs	r4, #15
 406 015a B440     		lsls	r4, r4, r6
 251:HAL_Lib/STM32H7xx_HAL_Driver/Src/stm32h7xx_hal_gpio.c ****         temp |= (GPIO_GET_INDEX(GPIOx) << (4U * (position & 0x03U)));
 407              		.loc 1 251 14 view .LVU171
 408 015c 27EA0407 		bic	r7, r7, r4
 409              	.LVL44:
 252:HAL_Lib/STM32H7xx_HAL_Driver/Src/stm32h7xx_hal_gpio.c ****         SYSCFG->EXTICR[position >> 2U] = temp;
 410              		.loc 1 252 9 is_stmt 1 view .LVU172
 252:HAL_Lib/STM32H7xx_HAL_Driver/Src/stm32h7xx_hal_gpio.c ****         SYSCFG->EXTICR[position >> 2U] = temp;
 411              		.loc 1 252 18 is_stmt 0 view .LVU173
 412 0160 214C     		ldr	r4, .L28+12
 413 0162 A042     		cmp	r0, r4
 414 0164 3FF477AF 		beq	.L13
 252:HAL_Lib/STM32H7xx_HAL_Driver/Src/stm32h7xx_hal_gpio.c ****         SYSCFG->EXTICR[position >> 2U] = temp;
 415              		.loc 1 252 18 discriminator 1 view .LVU174
 416 0168 04F58064 		add	r4, r4, #1024
 417 016c A042     		cmp	r0, r4
 418 016e 22D0     		beq	.L14
 252:HAL_Lib/STM32H7xx_HAL_Driver/Src/stm32h7xx_hal_gpio.c ****         SYSCFG->EXTICR[position >> 2U] = temp;
 419              		.loc 1 252 18 discriminator 3 view .LVU175
 420 0170 04F58064 		add	r4, r4, #1024
 421 0174 A042     		cmp	r0, r4
 422 0176 20D0     		beq	.L15
 252:HAL_Lib/STM32H7xx_HAL_Driver/Src/stm32h7xx_hal_gpio.c ****         SYSCFG->EXTICR[position >> 2U] = temp;
 423              		.loc 1 252 18 discriminator 5 view .LVU176
 424 0178 04F58064 		add	r4, r4, #1024
 425 017c A042     		cmp	r0, r4
 426 017e 1ED0     		beq	.L16
 252:HAL_Lib/STM32H7xx_HAL_Driver/Src/stm32h7xx_hal_gpio.c ****         SYSCFG->EXTICR[position >> 2U] = temp;
 427              		.loc 1 252 18 discriminator 7 view .LVU177
 428 0180 04F58064 		add	r4, r4, #1024
 429 0184 A042     		cmp	r0, r4
 430 0186 1CD0     		beq	.L17
 252:HAL_Lib/STM32H7xx_HAL_Driver/Src/stm32h7xx_hal_gpio.c ****         SYSCFG->EXTICR[position >> 2U] = temp;
 431              		.loc 1 252 18 discriminator 9 view .LVU178
 432 0188 04F58064 		add	r4, r4, #1024
 433 018c A042     		cmp	r0, r4
 434 018e 1AD0     		beq	.L18
 252:HAL_Lib/STM32H7xx_HAL_Driver/Src/stm32h7xx_hal_gpio.c ****         SYSCFG->EXTICR[position >> 2U] = temp;
 435              		.loc 1 252 18 discriminator 11 view .LVU179
ARM GAS  C:\Users\HUAV\AppData\Local\Temp\cceXbOEJ.s 			page 15


 436 0190 04F58064 		add	r4, r4, #1024
 437 0194 A042     		cmp	r0, r4
 438 0196 18D0     		beq	.L19
 252:HAL_Lib/STM32H7xx_HAL_Driver/Src/stm32h7xx_hal_gpio.c ****         SYSCFG->EXTICR[position >> 2U] = temp;
 439              		.loc 1 252 18 discriminator 13 view .LVU180
 440 0198 04F58064 		add	r4, r4, #1024
 441 019c A042     		cmp	r0, r4
 442 019e 16D0     		beq	.L20
 252:HAL_Lib/STM32H7xx_HAL_Driver/Src/stm32h7xx_hal_gpio.c ****         SYSCFG->EXTICR[position >> 2U] = temp;
 443              		.loc 1 252 18 discriminator 15 view .LVU181
 444 01a0 04F58064 		add	r4, r4, #1024
 445 01a4 A042     		cmp	r0, r4
 446 01a6 14D0     		beq	.L21
 252:HAL_Lib/STM32H7xx_HAL_Driver/Src/stm32h7xx_hal_gpio.c ****         SYSCFG->EXTICR[position >> 2U] = temp;
 447              		.loc 1 252 18 discriminator 17 view .LVU182
 448 01a8 04F58064 		add	r4, r4, #1024
 449 01ac A042     		cmp	r0, r4
 450 01ae 3FF450AF 		beq	.L27
 252:HAL_Lib/STM32H7xx_HAL_Driver/Src/stm32h7xx_hal_gpio.c ****         SYSCFG->EXTICR[position >> 2U] = temp;
 451              		.loc 1 252 18 view .LVU183
 452 01b2 0A24     		movs	r4, #10
 453 01b4 50E7     		b	.L7
 454              	.L14:
 455 01b6 0124     		movs	r4, #1
 456 01b8 4EE7     		b	.L7
 457              	.L15:
 458 01ba 0224     		movs	r4, #2
 459 01bc 4CE7     		b	.L7
 460              	.L16:
 461 01be 0324     		movs	r4, #3
 462 01c0 4AE7     		b	.L7
 463              	.L17:
 464 01c2 0424     		movs	r4, #4
 465 01c4 48E7     		b	.L7
 466              	.L18:
 467 01c6 0524     		movs	r4, #5
 468 01c8 46E7     		b	.L7
 469              	.L19:
 470 01ca 0624     		movs	r4, #6
 471 01cc 44E7     		b	.L7
 472              	.L20:
 473 01ce 0724     		movs	r4, #7
 474 01d0 42E7     		b	.L7
 475              	.L21:
 476 01d2 0824     		movs	r4, #8
 477 01d4 40E7     		b	.L7
 478              	.LVL45:
 479              	.L24:
 292:HAL_Lib/STM32H7xx_HAL_Driver/Src/stm32h7xx_hal_gpio.c ****   }
 293:HAL_Lib/STM32H7xx_HAL_Driver/Src/stm32h7xx_hal_gpio.c **** }
 480              		.loc 1 293 1 view .LVU184
 481 01d6 02B0     		add	sp, sp, #8
 482              	.LCFI2:
 483              		.cfi_def_cfa_offset 16
 484              		@ sp needed
 485 01d8 F0BC     		pop	{r4, r5, r6, r7}
 486              	.LCFI3:
ARM GAS  C:\Users\HUAV\AppData\Local\Temp\cceXbOEJ.s 			page 16


 487              		.cfi_restore 7
 488              		.cfi_restore 6
 489              		.cfi_restore 5
 490              		.cfi_restore 4
 491              		.cfi_def_cfa_offset 0
 492 01da 7047     		bx	lr
 493              	.L29:
 494              		.align	2
 495              	.L28:
 496 01dc 00040058 		.word	1476396032
 497 01e0 80000058 		.word	1476395136
 498 01e4 00440258 		.word	1476543488
 499 01e8 00000258 		.word	1476526080
 500              		.cfi_endproc
 501              	.LFE144:
 503              		.section	.text.HAL_GPIO_DeInit,"ax",%progbits
 504              		.align	1
 505              		.global	HAL_GPIO_DeInit
 506              		.syntax unified
 507              		.thumb
 508              		.thumb_func
 509              		.fpu fpv5-d16
 511              	HAL_GPIO_DeInit:
 512              	.LVL46:
 513              	.LFB145:
 294:HAL_Lib/STM32H7xx_HAL_Driver/Src/stm32h7xx_hal_gpio.c **** 
 295:HAL_Lib/STM32H7xx_HAL_Driver/Src/stm32h7xx_hal_gpio.c **** /**
 296:HAL_Lib/STM32H7xx_HAL_Driver/Src/stm32h7xx_hal_gpio.c ****   * @brief  De-initializes the GPIOx peripheral registers to their default reset values.
 297:HAL_Lib/STM32H7xx_HAL_Driver/Src/stm32h7xx_hal_gpio.c ****   * @param  GPIOx: where x can be (A..K) to select the GPIO peripheral.
 298:HAL_Lib/STM32H7xx_HAL_Driver/Src/stm32h7xx_hal_gpio.c ****   * @param  GPIO_Pin: specifies the port bit to be written.
 299:HAL_Lib/STM32H7xx_HAL_Driver/Src/stm32h7xx_hal_gpio.c ****   *          This parameter can be one of GPIO_PIN_x where x can be (0..15).
 300:HAL_Lib/STM32H7xx_HAL_Driver/Src/stm32h7xx_hal_gpio.c ****   * @retval None
 301:HAL_Lib/STM32H7xx_HAL_Driver/Src/stm32h7xx_hal_gpio.c ****   */
 302:HAL_Lib/STM32H7xx_HAL_Driver/Src/stm32h7xx_hal_gpio.c **** void HAL_GPIO_DeInit(GPIO_TypeDef  *GPIOx, uint32_t GPIO_Pin)
 303:HAL_Lib/STM32H7xx_HAL_Driver/Src/stm32h7xx_hal_gpio.c **** {
 514              		.loc 1 303 1 is_stmt 1 view -0
 515              		.cfi_startproc
 516              		@ args = 0, pretend = 0, frame = 0
 517              		@ frame_needed = 0, uses_anonymous_args = 0
 304:HAL_Lib/STM32H7xx_HAL_Driver/Src/stm32h7xx_hal_gpio.c ****   uint32_t position = 0x00U;
 518              		.loc 1 304 3 view .LVU186
 305:HAL_Lib/STM32H7xx_HAL_Driver/Src/stm32h7xx_hal_gpio.c ****   uint32_t iocurrent;
 519              		.loc 1 305 3 view .LVU187
 306:HAL_Lib/STM32H7xx_HAL_Driver/Src/stm32h7xx_hal_gpio.c ****   uint32_t tmp;
 520              		.loc 1 306 3 view .LVU188
 307:HAL_Lib/STM32H7xx_HAL_Driver/Src/stm32h7xx_hal_gpio.c ****   EXTI_Core_TypeDef *EXTI_CurrentCPU;
 521              		.loc 1 307 3 view .LVU189
 308:HAL_Lib/STM32H7xx_HAL_Driver/Src/stm32h7xx_hal_gpio.c **** 
 309:HAL_Lib/STM32H7xx_HAL_Driver/Src/stm32h7xx_hal_gpio.c **** #if defined(DUAL_CORE) && defined(CORE_CM4)
 310:HAL_Lib/STM32H7xx_HAL_Driver/Src/stm32h7xx_hal_gpio.c ****   EXTI_CurrentCPU = EXTI_D2; /* EXTI for CM4 CPU */
 311:HAL_Lib/STM32H7xx_HAL_Driver/Src/stm32h7xx_hal_gpio.c **** #else
 312:HAL_Lib/STM32H7xx_HAL_Driver/Src/stm32h7xx_hal_gpio.c ****   EXTI_CurrentCPU = EXTI_D1; /* EXTI for CM7 CPU */
 522              		.loc 1 312 3 view .LVU190
 313:HAL_Lib/STM32H7xx_HAL_Driver/Src/stm32h7xx_hal_gpio.c **** #endif
 314:HAL_Lib/STM32H7xx_HAL_Driver/Src/stm32h7xx_hal_gpio.c **** 
 315:HAL_Lib/STM32H7xx_HAL_Driver/Src/stm32h7xx_hal_gpio.c ****   /* Check the parameters */
 316:HAL_Lib/STM32H7xx_HAL_Driver/Src/stm32h7xx_hal_gpio.c ****   assert_param(IS_GPIO_ALL_INSTANCE(GPIOx));
ARM GAS  C:\Users\HUAV\AppData\Local\Temp\cceXbOEJ.s 			page 17


 523              		.loc 1 316 3 view .LVU191
 317:HAL_Lib/STM32H7xx_HAL_Driver/Src/stm32h7xx_hal_gpio.c ****   assert_param(IS_GPIO_PIN(GPIO_Pin));
 524              		.loc 1 317 3 view .LVU192
 318:HAL_Lib/STM32H7xx_HAL_Driver/Src/stm32h7xx_hal_gpio.c **** 
 319:HAL_Lib/STM32H7xx_HAL_Driver/Src/stm32h7xx_hal_gpio.c ****   /* Configure the port pins */
 320:HAL_Lib/STM32H7xx_HAL_Driver/Src/stm32h7xx_hal_gpio.c ****   while ((GPIO_Pin >> position) != 0x00U)
 525              		.loc 1 320 3 view .LVU193
 304:HAL_Lib/STM32H7xx_HAL_Driver/Src/stm32h7xx_hal_gpio.c ****   uint32_t iocurrent;
 526              		.loc 1 304 12 is_stmt 0 view .LVU194
 527 0000 0023     		movs	r3, #0
 528              		.loc 1 320 9 view .LVU195
 529 0002 96E0     		b	.L47
 530              	.LVL47:
 531              	.L54:
 532              	.LCFI4:
 533              		.cfi_def_cfa_offset 20
 534              		.cfi_offset 4, -20
 535              		.cfi_offset 5, -16
 536              		.cfi_offset 6, -12
 537              		.cfi_offset 7, -8
 538              		.cfi_offset 14, -4
 321:HAL_Lib/STM32H7xx_HAL_Driver/Src/stm32h7xx_hal_gpio.c ****   {
 322:HAL_Lib/STM32H7xx_HAL_Driver/Src/stm32h7xx_hal_gpio.c ****     /* Get current io position */
 323:HAL_Lib/STM32H7xx_HAL_Driver/Src/stm32h7xx_hal_gpio.c ****     iocurrent = GPIO_Pin & (1UL << position) ;
 324:HAL_Lib/STM32H7xx_HAL_Driver/Src/stm32h7xx_hal_gpio.c **** 
 325:HAL_Lib/STM32H7xx_HAL_Driver/Src/stm32h7xx_hal_gpio.c ****     if (iocurrent != 0x00U)
 326:HAL_Lib/STM32H7xx_HAL_Driver/Src/stm32h7xx_hal_gpio.c ****     {
 327:HAL_Lib/STM32H7xx_HAL_Driver/Src/stm32h7xx_hal_gpio.c ****       /*------------------------- EXTI Mode Configuration --------------------*/
 328:HAL_Lib/STM32H7xx_HAL_Driver/Src/stm32h7xx_hal_gpio.c ****       /* Clear the External Interrupt or Event for the current IO */
 329:HAL_Lib/STM32H7xx_HAL_Driver/Src/stm32h7xx_hal_gpio.c ****       tmp = SYSCFG->EXTICR[position >> 2U];
 330:HAL_Lib/STM32H7xx_HAL_Driver/Src/stm32h7xx_hal_gpio.c ****       tmp &= (0x0FUL << (4U * (position & 0x03U)));
 331:HAL_Lib/STM32H7xx_HAL_Driver/Src/stm32h7xx_hal_gpio.c ****       if (tmp == (GPIO_GET_INDEX(GPIOx) << (4U * (position & 0x03U))))
 539              		.loc 1 331 19 view .LVU196
 540 0004 0926     		movs	r6, #9
 541 0006 00E0     		b	.L33
 542              	.L36:
 543 0008 0026     		movs	r6, #0
 544              	.L33:
 545              		.loc 1 331 41 discriminator 40 view .LVU197
 546 000a 06FA04F4 		lsl	r4, r6, r4
 547              		.loc 1 331 10 discriminator 40 view .LVU198
 548 000e AC42     		cmp	r4, r5
 549 0010 71D0     		beq	.L52
 550              	.LVL48:
 551              	.L34:
 332:HAL_Lib/STM32H7xx_HAL_Driver/Src/stm32h7xx_hal_gpio.c ****       {
 333:HAL_Lib/STM32H7xx_HAL_Driver/Src/stm32h7xx_hal_gpio.c ****         /* Clear EXTI line configuration for Current CPU */
 334:HAL_Lib/STM32H7xx_HAL_Driver/Src/stm32h7xx_hal_gpio.c ****         EXTI_CurrentCPU->IMR1 &= ~(iocurrent);
 335:HAL_Lib/STM32H7xx_HAL_Driver/Src/stm32h7xx_hal_gpio.c ****         EXTI_CurrentCPU->EMR1 &= ~(iocurrent);
 336:HAL_Lib/STM32H7xx_HAL_Driver/Src/stm32h7xx_hal_gpio.c **** 
 337:HAL_Lib/STM32H7xx_HAL_Driver/Src/stm32h7xx_hal_gpio.c ****         /* Clear Rising Falling edge configuration */
 338:HAL_Lib/STM32H7xx_HAL_Driver/Src/stm32h7xx_hal_gpio.c ****         EXTI->FTSR1 &= ~(iocurrent);
 339:HAL_Lib/STM32H7xx_HAL_Driver/Src/stm32h7xx_hal_gpio.c ****         EXTI->RTSR1 &= ~(iocurrent);
 340:HAL_Lib/STM32H7xx_HAL_Driver/Src/stm32h7xx_hal_gpio.c **** 
 341:HAL_Lib/STM32H7xx_HAL_Driver/Src/stm32h7xx_hal_gpio.c ****         tmp = 0x0FUL << (4U * (position & 0x03U));
 342:HAL_Lib/STM32H7xx_HAL_Driver/Src/stm32h7xx_hal_gpio.c ****         SYSCFG->EXTICR[position >> 2U] &= ~tmp;
 343:HAL_Lib/STM32H7xx_HAL_Driver/Src/stm32h7xx_hal_gpio.c ****       }
ARM GAS  C:\Users\HUAV\AppData\Local\Temp\cceXbOEJ.s 			page 18


 344:HAL_Lib/STM32H7xx_HAL_Driver/Src/stm32h7xx_hal_gpio.c **** 
 345:HAL_Lib/STM32H7xx_HAL_Driver/Src/stm32h7xx_hal_gpio.c ****       /*------------------------- GPIO Mode Configuration --------------------*/
 346:HAL_Lib/STM32H7xx_HAL_Driver/Src/stm32h7xx_hal_gpio.c ****       /* Configure IO in Analog Mode */
 347:HAL_Lib/STM32H7xx_HAL_Driver/Src/stm32h7xx_hal_gpio.c ****       GPIOx->MODER |= (GPIO_MODER_MODE0 << (position * 2U));
 552              		.loc 1 347 7 is_stmt 1 view .LVU199
 553              		.loc 1 347 20 is_stmt 0 view .LVU200
 554 0012 0568     		ldr	r5, [r0]
 555              		.loc 1 347 54 view .LVU201
 556 0014 5C00     		lsls	r4, r3, #1
 557              		.loc 1 347 41 view .LVU202
 558 0016 0326     		movs	r6, #3
 559 0018 06FA04F4 		lsl	r4, r6, r4
 560              		.loc 1 347 20 view .LVU203
 561 001c 2543     		orrs	r5, r5, r4
 562 001e 0560     		str	r5, [r0]
 348:HAL_Lib/STM32H7xx_HAL_Driver/Src/stm32h7xx_hal_gpio.c **** 
 349:HAL_Lib/STM32H7xx_HAL_Driver/Src/stm32h7xx_hal_gpio.c ****       /* Configure the default Alternate Function in current IO */
 350:HAL_Lib/STM32H7xx_HAL_Driver/Src/stm32h7xx_hal_gpio.c ****       GPIOx->AFR[position >> 3U] &= ~(0xFU << ((position & 0x07U) * 4U)) ;
 563              		.loc 1 350 7 is_stmt 1 view .LVU204
 564              		.loc 1 350 34 is_stmt 0 view .LVU205
 565 0020 23FA06F5 		lsr	r5, r3, r6
 566 0024 0835     		adds	r5, r5, #8
 567 0026 50F82560 		ldr	r6, [r0, r5, lsl #2]
 568              		.loc 1 350 58 view .LVU206
 569 002a 03F00707 		and	r7, r3, #7
 570              		.loc 1 350 67 view .LVU207
 571 002e 4FEA870C 		lsl	ip, r7, #2
 572              	.LVL49:
 573              		.loc 1 350 44 view .LVU208
 574 0032 0F27     		movs	r7, #15
 575 0034 07FA0CF7 		lsl	r7, r7, ip
 576              		.loc 1 350 34 view .LVU209
 577 0038 26EA0706 		bic	r6, r6, r7
 578 003c 40F82560 		str	r6, [r0, r5, lsl #2]
 351:HAL_Lib/STM32H7xx_HAL_Driver/Src/stm32h7xx_hal_gpio.c **** 
 352:HAL_Lib/STM32H7xx_HAL_Driver/Src/stm32h7xx_hal_gpio.c ****       /* Deactivate the Pull-up and Pull-down resistor for the current IO */
 353:HAL_Lib/STM32H7xx_HAL_Driver/Src/stm32h7xx_hal_gpio.c ****       GPIOx->PUPDR &= ~(GPIO_PUPDR_PUPD0 << (position * 2U));
 579              		.loc 1 353 7 is_stmt 1 view .LVU210
 580              		.loc 1 353 20 is_stmt 0 view .LVU211
 581 0040 C568     		ldr	r5, [r0, #12]
 582 0042 25EA0405 		bic	r5, r5, r4
 583 0046 C560     		str	r5, [r0, #12]
 354:HAL_Lib/STM32H7xx_HAL_Driver/Src/stm32h7xx_hal_gpio.c **** 
 355:HAL_Lib/STM32H7xx_HAL_Driver/Src/stm32h7xx_hal_gpio.c ****       /* Configure the default value IO Output Type */
 356:HAL_Lib/STM32H7xx_HAL_Driver/Src/stm32h7xx_hal_gpio.c ****       GPIOx->OTYPER  &= ~(GPIO_OTYPER_OT0 << position) ;
 584              		.loc 1 356 7 is_stmt 1 view .LVU212
 585              		.loc 1 356 22 is_stmt 0 view .LVU213
 586 0048 4568     		ldr	r5, [r0, #4]
 587 004a 25EA0202 		bic	r2, r5, r2
 588 004e 4260     		str	r2, [r0, #4]
 357:HAL_Lib/STM32H7xx_HAL_Driver/Src/stm32h7xx_hal_gpio.c **** 
 358:HAL_Lib/STM32H7xx_HAL_Driver/Src/stm32h7xx_hal_gpio.c ****       /* Configure the default value for IO Speed */
 359:HAL_Lib/STM32H7xx_HAL_Driver/Src/stm32h7xx_hal_gpio.c ****       GPIOx->OSPEEDR &= ~(GPIO_OSPEEDR_OSPEED0 << (position * 2U));
 589              		.loc 1 359 7 is_stmt 1 view .LVU214
 590              		.loc 1 359 22 is_stmt 0 view .LVU215
 591 0050 8268     		ldr	r2, [r0, #8]
 592 0052 22EA0404 		bic	r4, r2, r4
ARM GAS  C:\Users\HUAV\AppData\Local\Temp\cceXbOEJ.s 			page 19


 593 0056 8460     		str	r4, [r0, #8]
 594              	.L32:
 360:HAL_Lib/STM32H7xx_HAL_Driver/Src/stm32h7xx_hal_gpio.c ****     }
 361:HAL_Lib/STM32H7xx_HAL_Driver/Src/stm32h7xx_hal_gpio.c **** 
 362:HAL_Lib/STM32H7xx_HAL_Driver/Src/stm32h7xx_hal_gpio.c ****     position++;
 595              		.loc 1 362 5 is_stmt 1 view .LVU216
 596              		.loc 1 362 13 is_stmt 0 view .LVU217
 597 0058 0133     		adds	r3, r3, #1
 598              	.LVL50:
 320:HAL_Lib/STM32H7xx_HAL_Driver/Src/stm32h7xx_hal_gpio.c ****   {
 599              		.loc 1 320 9 is_stmt 1 view .LVU218
 600 005a 31FA03F2 		lsrs	r2, r1, r3
 601 005e 66D0     		beq	.L53
 323:HAL_Lib/STM32H7xx_HAL_Driver/Src/stm32h7xx_hal_gpio.c **** 
 602              		.loc 1 323 5 view .LVU219
 323:HAL_Lib/STM32H7xx_HAL_Driver/Src/stm32h7xx_hal_gpio.c **** 
 603              		.loc 1 323 33 is_stmt 0 view .LVU220
 604 0060 0122     		movs	r2, #1
 605 0062 9A40     		lsls	r2, r2, r3
 606              	.LVL51:
 325:HAL_Lib/STM32H7xx_HAL_Driver/Src/stm32h7xx_hal_gpio.c ****     {
 607              		.loc 1 325 5 is_stmt 1 view .LVU221
 325:HAL_Lib/STM32H7xx_HAL_Driver/Src/stm32h7xx_hal_gpio.c ****     {
 608              		.loc 1 325 8 is_stmt 0 view .LVU222
 609 0064 12EA010C 		ands	ip, r2, r1
 610              	.LVL52:
 325:HAL_Lib/STM32H7xx_HAL_Driver/Src/stm32h7xx_hal_gpio.c ****     {
 611              		.loc 1 325 8 view .LVU223
 612 0068 F6D0     		beq	.L32
 613              	.L48:
 329:HAL_Lib/STM32H7xx_HAL_Driver/Src/stm32h7xx_hal_gpio.c ****       tmp &= (0x0FUL << (4U * (position & 0x03U)));
 614              		.loc 1 329 7 is_stmt 1 view .LVU224
 329:HAL_Lib/STM32H7xx_HAL_Driver/Src/stm32h7xx_hal_gpio.c ****       tmp &= (0x0FUL << (4U * (position & 0x03U)));
 615              		.loc 1 329 37 is_stmt 0 view .LVU225
 616 006a 9F08     		lsrs	r7, r3, #2
 329:HAL_Lib/STM32H7xx_HAL_Driver/Src/stm32h7xx_hal_gpio.c ****       tmp &= (0x0FUL << (4U * (position & 0x03U)));
 617              		.loc 1 329 11 view .LVU226
 618 006c BD1C     		adds	r5, r7, #2
 619 006e 364C     		ldr	r4, .L57
 620 0070 54F82550 		ldr	r5, [r4, r5, lsl #2]
 621              	.LVL53:
 330:HAL_Lib/STM32H7xx_HAL_Driver/Src/stm32h7xx_hal_gpio.c ****       if (tmp == (GPIO_GET_INDEX(GPIOx) << (4U * (position & 0x03U))))
 622              		.loc 1 330 7 is_stmt 1 view .LVU227
 330:HAL_Lib/STM32H7xx_HAL_Driver/Src/stm32h7xx_hal_gpio.c ****       if (tmp == (GPIO_GET_INDEX(GPIOx) << (4U * (position & 0x03U))))
 623              		.loc 1 330 41 is_stmt 0 view .LVU228
 624 0074 03F00304 		and	r4, r3, #3
 330:HAL_Lib/STM32H7xx_HAL_Driver/Src/stm32h7xx_hal_gpio.c ****       if (tmp == (GPIO_GET_INDEX(GPIOx) << (4U * (position & 0x03U))))
 625              		.loc 1 330 29 view .LVU229
 626 0078 A400     		lsls	r4, r4, #2
 330:HAL_Lib/STM32H7xx_HAL_Driver/Src/stm32h7xx_hal_gpio.c ****       if (tmp == (GPIO_GET_INDEX(GPIOx) << (4U * (position & 0x03U))))
 627              		.loc 1 330 22 view .LVU230
 628 007a 0F26     		movs	r6, #15
 629 007c 06FA04FE 		lsl	lr, r6, r4
 330:HAL_Lib/STM32H7xx_HAL_Driver/Src/stm32h7xx_hal_gpio.c ****       if (tmp == (GPIO_GET_INDEX(GPIOx) << (4U * (position & 0x03U))))
 630              		.loc 1 330 11 view .LVU231
 631 0080 0EEA0505 		and	r5, lr, r5
 632              	.LVL54:
ARM GAS  C:\Users\HUAV\AppData\Local\Temp\cceXbOEJ.s 			page 20


 331:HAL_Lib/STM32H7xx_HAL_Driver/Src/stm32h7xx_hal_gpio.c ****       {
 633              		.loc 1 331 7 is_stmt 1 view .LVU232
 331:HAL_Lib/STM32H7xx_HAL_Driver/Src/stm32h7xx_hal_gpio.c ****       {
 634              		.loc 1 331 19 is_stmt 0 view .LVU233
 635 0084 314E     		ldr	r6, .L57+4
 636 0086 B042     		cmp	r0, r6
 637 0088 BED0     		beq	.L36
 331:HAL_Lib/STM32H7xx_HAL_Driver/Src/stm32h7xx_hal_gpio.c ****       {
 638              		.loc 1 331 19 discriminator 1 view .LVU234
 639 008a 06F58066 		add	r6, r6, #1024
 640 008e B042     		cmp	r0, r6
 641 0090 21D0     		beq	.L37
 331:HAL_Lib/STM32H7xx_HAL_Driver/Src/stm32h7xx_hal_gpio.c ****       {
 642              		.loc 1 331 19 discriminator 3 view .LVU235
 643 0092 06F58066 		add	r6, r6, #1024
 644 0096 B042     		cmp	r0, r6
 645 0098 1FD0     		beq	.L38
 331:HAL_Lib/STM32H7xx_HAL_Driver/Src/stm32h7xx_hal_gpio.c ****       {
 646              		.loc 1 331 19 discriminator 5 view .LVU236
 647 009a 06F58066 		add	r6, r6, #1024
 648 009e B042     		cmp	r0, r6
 649 00a0 1DD0     		beq	.L39
 331:HAL_Lib/STM32H7xx_HAL_Driver/Src/stm32h7xx_hal_gpio.c ****       {
 650              		.loc 1 331 19 discriminator 7 view .LVU237
 651 00a2 06F58066 		add	r6, r6, #1024
 652 00a6 B042     		cmp	r0, r6
 653 00a8 1BD0     		beq	.L40
 331:HAL_Lib/STM32H7xx_HAL_Driver/Src/stm32h7xx_hal_gpio.c ****       {
 654              		.loc 1 331 19 discriminator 9 view .LVU238
 655 00aa 06F58066 		add	r6, r6, #1024
 656 00ae B042     		cmp	r0, r6
 657 00b0 19D0     		beq	.L41
 331:HAL_Lib/STM32H7xx_HAL_Driver/Src/stm32h7xx_hal_gpio.c ****       {
 658              		.loc 1 331 19 discriminator 11 view .LVU239
 659 00b2 06F58066 		add	r6, r6, #1024
 660 00b6 B042     		cmp	r0, r6
 661 00b8 17D0     		beq	.L42
 331:HAL_Lib/STM32H7xx_HAL_Driver/Src/stm32h7xx_hal_gpio.c ****       {
 662              		.loc 1 331 19 discriminator 13 view .LVU240
 663 00ba 06F58066 		add	r6, r6, #1024
 664 00be B042     		cmp	r0, r6
 665 00c0 15D0     		beq	.L43
 331:HAL_Lib/STM32H7xx_HAL_Driver/Src/stm32h7xx_hal_gpio.c ****       {
 666              		.loc 1 331 19 discriminator 15 view .LVU241
 667 00c2 06F58066 		add	r6, r6, #1024
 668 00c6 B042     		cmp	r0, r6
 669 00c8 13D0     		beq	.L44
 331:HAL_Lib/STM32H7xx_HAL_Driver/Src/stm32h7xx_hal_gpio.c ****       {
 670              		.loc 1 331 19 discriminator 17 view .LVU242
 671 00ca 06F58066 		add	r6, r6, #1024
 672 00ce B042     		cmp	r0, r6
 673 00d0 98D0     		beq	.L54
 331:HAL_Lib/STM32H7xx_HAL_Driver/Src/stm32h7xx_hal_gpio.c ****       {
 674              		.loc 1 331 19 view .LVU243
 675 00d2 0A26     		movs	r6, #10
 676 00d4 99E7     		b	.L33
 677              	.L37:
ARM GAS  C:\Users\HUAV\AppData\Local\Temp\cceXbOEJ.s 			page 21


 678 00d6 0126     		movs	r6, #1
 679 00d8 97E7     		b	.L33
 680              	.L38:
 681 00da 0226     		movs	r6, #2
 682 00dc 95E7     		b	.L33
 683              	.L39:
 684 00de 0326     		movs	r6, #3
 685 00e0 93E7     		b	.L33
 686              	.L40:
 687 00e2 0426     		movs	r6, #4
 688 00e4 91E7     		b	.L33
 689              	.L41:
 690 00e6 0526     		movs	r6, #5
 691 00e8 8FE7     		b	.L33
 692              	.L42:
 693 00ea 0626     		movs	r6, #6
 694 00ec 8DE7     		b	.L33
 695              	.L43:
 696 00ee 0726     		movs	r6, #7
 697 00f0 8BE7     		b	.L33
 698              	.L44:
 699 00f2 0826     		movs	r6, #8
 700 00f4 89E7     		b	.L33
 701              	.L52:
 334:HAL_Lib/STM32H7xx_HAL_Driver/Src/stm32h7xx_hal_gpio.c ****         EXTI_CurrentCPU->EMR1 &= ~(iocurrent);
 702              		.loc 1 334 9 is_stmt 1 view .LVU244
 334:HAL_Lib/STM32H7xx_HAL_Driver/Src/stm32h7xx_hal_gpio.c ****         EXTI_CurrentCPU->EMR1 &= ~(iocurrent);
 703              		.loc 1 334 31 is_stmt 0 view .LVU245
 704 00f6 164C     		ldr	r4, .L57+8
 705 00f8 2568     		ldr	r5, [r4]
 706              	.LVL55:
 334:HAL_Lib/STM32H7xx_HAL_Driver/Src/stm32h7xx_hal_gpio.c ****         EXTI_CurrentCPU->EMR1 &= ~(iocurrent);
 707              		.loc 1 334 31 view .LVU246
 708 00fa 25EA0C05 		bic	r5, r5, ip
 709 00fe 2560     		str	r5, [r4]
 335:HAL_Lib/STM32H7xx_HAL_Driver/Src/stm32h7xx_hal_gpio.c **** 
 710              		.loc 1 335 9 is_stmt 1 view .LVU247
 335:HAL_Lib/STM32H7xx_HAL_Driver/Src/stm32h7xx_hal_gpio.c **** 
 711              		.loc 1 335 31 is_stmt 0 view .LVU248
 712 0100 6568     		ldr	r5, [r4, #4]
 713 0102 25EA0C05 		bic	r5, r5, ip
 714 0106 6560     		str	r5, [r4, #4]
 338:HAL_Lib/STM32H7xx_HAL_Driver/Src/stm32h7xx_hal_gpio.c ****         EXTI->RTSR1 &= ~(iocurrent);
 715              		.loc 1 338 9 is_stmt 1 view .LVU249
 338:HAL_Lib/STM32H7xx_HAL_Driver/Src/stm32h7xx_hal_gpio.c ****         EXTI->RTSR1 &= ~(iocurrent);
 716              		.loc 1 338 21 is_stmt 0 view .LVU250
 717 0108 4FF0B044 		mov	r4, #1476395008
 718 010c 6568     		ldr	r5, [r4, #4]
 719 010e 25EA0C05 		bic	r5, r5, ip
 720 0112 6560     		str	r5, [r4, #4]
 339:HAL_Lib/STM32H7xx_HAL_Driver/Src/stm32h7xx_hal_gpio.c **** 
 721              		.loc 1 339 9 is_stmt 1 view .LVU251
 339:HAL_Lib/STM32H7xx_HAL_Driver/Src/stm32h7xx_hal_gpio.c **** 
 722              		.loc 1 339 21 is_stmt 0 view .LVU252
 723 0114 2568     		ldr	r5, [r4]
 724 0116 25EA0C05 		bic	r5, r5, ip
 725 011a 2560     		str	r5, [r4]
ARM GAS  C:\Users\HUAV\AppData\Local\Temp\cceXbOEJ.s 			page 22


 341:HAL_Lib/STM32H7xx_HAL_Driver/Src/stm32h7xx_hal_gpio.c ****         SYSCFG->EXTICR[position >> 2U] &= ~tmp;
 726              		.loc 1 341 9 is_stmt 1 view .LVU253
 727              	.LVL56:
 342:HAL_Lib/STM32H7xx_HAL_Driver/Src/stm32h7xx_hal_gpio.c ****       }
 728              		.loc 1 342 9 view .LVU254
 342:HAL_Lib/STM32H7xx_HAL_Driver/Src/stm32h7xx_hal_gpio.c ****       }
 729              		.loc 1 342 40 is_stmt 0 view .LVU255
 730 011c 0A4D     		ldr	r5, .L57
 731 011e BC1C     		adds	r4, r7, #2
 732 0120 55F82460 		ldr	r6, [r5, r4, lsl #2]
 733 0124 26EA0E06 		bic	r6, r6, lr
 734 0128 45F82460 		str	r6, [r5, r4, lsl #2]
 735 012c 71E7     		b	.L34
 736              	.LVL57:
 737              	.L53:
 363:HAL_Lib/STM32H7xx_HAL_Driver/Src/stm32h7xx_hal_gpio.c ****   }
 364:HAL_Lib/STM32H7xx_HAL_Driver/Src/stm32h7xx_hal_gpio.c **** }
 738              		.loc 1 364 1 view .LVU256
 739 012e F0BD     		pop	{r4, r5, r6, r7, pc}
 740              	.LVL58:
 741              	.L56:
 742              	.LCFI5:
 743              		.cfi_def_cfa_offset 0
 744              		.cfi_restore 4
 745              		.cfi_restore 5
 746              		.cfi_restore 6
 747              		.cfi_restore 7
 748              		.cfi_restore 14
 362:HAL_Lib/STM32H7xx_HAL_Driver/Src/stm32h7xx_hal_gpio.c ****   }
 749              		.loc 1 362 5 is_stmt 1 view .LVU257
 362:HAL_Lib/STM32H7xx_HAL_Driver/Src/stm32h7xx_hal_gpio.c ****   }
 750              		.loc 1 362 13 is_stmt 0 view .LVU258
 751 0130 0133     		adds	r3, r3, #1
 752              	.LVL59:
 753              	.L47:
 320:HAL_Lib/STM32H7xx_HAL_Driver/Src/stm32h7xx_hal_gpio.c ****   {
 754              		.loc 1 320 9 is_stmt 1 view .LVU259
 755 0132 31FA03F2 		lsrs	r2, r1, r3
 756 0136 06D0     		beq	.L55
 323:HAL_Lib/STM32H7xx_HAL_Driver/Src/stm32h7xx_hal_gpio.c **** 
 757              		.loc 1 323 5 view .LVU260
 323:HAL_Lib/STM32H7xx_HAL_Driver/Src/stm32h7xx_hal_gpio.c **** 
 758              		.loc 1 323 33 is_stmt 0 view .LVU261
 759 0138 0122     		movs	r2, #1
 760 013a 9A40     		lsls	r2, r2, r3
 761              	.LVL60:
 325:HAL_Lib/STM32H7xx_HAL_Driver/Src/stm32h7xx_hal_gpio.c ****     {
 762              		.loc 1 325 5 is_stmt 1 view .LVU262
 325:HAL_Lib/STM32H7xx_HAL_Driver/Src/stm32h7xx_hal_gpio.c ****     {
 763              		.loc 1 325 8 is_stmt 0 view .LVU263
 764 013c 12EA010C 		ands	ip, r2, r1
 765              	.LVL61:
 325:HAL_Lib/STM32H7xx_HAL_Driver/Src/stm32h7xx_hal_gpio.c ****     {
 766              		.loc 1 325 8 view .LVU264
 767 0140 F6D0     		beq	.L56
 303:HAL_Lib/STM32H7xx_HAL_Driver/Src/stm32h7xx_hal_gpio.c ****   uint32_t position = 0x00U;
 768              		.loc 1 303 1 view .LVU265
ARM GAS  C:\Users\HUAV\AppData\Local\Temp\cceXbOEJ.s 			page 23


 769 0142 F0B5     		push	{r4, r5, r6, r7, lr}
 770              	.LCFI6:
 771              		.cfi_def_cfa_offset 20
 772              		.cfi_offset 4, -20
 773              		.cfi_offset 5, -16
 774              		.cfi_offset 6, -12
 775              		.cfi_offset 7, -8
 776              		.cfi_offset 14, -4
 777 0144 91E7     		b	.L48
 778              	.LVL62:
 779              	.L55:
 780              	.LCFI7:
 781              		.cfi_def_cfa_offset 0
 782              		.cfi_restore 4
 783              		.cfi_restore 5
 784              		.cfi_restore 6
 785              		.cfi_restore 7
 786              		.cfi_restore 14
 303:HAL_Lib/STM32H7xx_HAL_Driver/Src/stm32h7xx_hal_gpio.c ****   uint32_t position = 0x00U;
 787              		.loc 1 303 1 view .LVU266
 788 0146 7047     		bx	lr
 789              	.L58:
 790              		.align	2
 791              	.L57:
 792 0148 00040058 		.word	1476396032
 793 014c 00000258 		.word	1476526080
 794 0150 80000058 		.word	1476395136
 795              		.cfi_endproc
 796              	.LFE145:
 798              		.section	.text.HAL_GPIO_ReadPin,"ax",%progbits
 799              		.align	1
 800              		.global	HAL_GPIO_ReadPin
 801              		.syntax unified
 802              		.thumb
 803              		.thumb_func
 804              		.fpu fpv5-d16
 806              	HAL_GPIO_ReadPin:
 807              	.LVL63:
 808              	.LFB146:
 365:HAL_Lib/STM32H7xx_HAL_Driver/Src/stm32h7xx_hal_gpio.c **** 
 366:HAL_Lib/STM32H7xx_HAL_Driver/Src/stm32h7xx_hal_gpio.c **** /**
 367:HAL_Lib/STM32H7xx_HAL_Driver/Src/stm32h7xx_hal_gpio.c ****   * @}
 368:HAL_Lib/STM32H7xx_HAL_Driver/Src/stm32h7xx_hal_gpio.c ****   */
 369:HAL_Lib/STM32H7xx_HAL_Driver/Src/stm32h7xx_hal_gpio.c **** 
 370:HAL_Lib/STM32H7xx_HAL_Driver/Src/stm32h7xx_hal_gpio.c **** /** @defgroup GPIO_Exported_Functions_Group2 IO operation functions
 371:HAL_Lib/STM32H7xx_HAL_Driver/Src/stm32h7xx_hal_gpio.c ****  *  @brief GPIO Read, Write, Toggle, Lock and EXTI management functions.
 372:HAL_Lib/STM32H7xx_HAL_Driver/Src/stm32h7xx_hal_gpio.c ****  *
 373:HAL_Lib/STM32H7xx_HAL_Driver/Src/stm32h7xx_hal_gpio.c **** @verbatim
 374:HAL_Lib/STM32H7xx_HAL_Driver/Src/stm32h7xx_hal_gpio.c ****  ===============================================================================
 375:HAL_Lib/STM32H7xx_HAL_Driver/Src/stm32h7xx_hal_gpio.c ****                        ##### IO operation functions #####
 376:HAL_Lib/STM32H7xx_HAL_Driver/Src/stm32h7xx_hal_gpio.c ****  ===============================================================================
 377:HAL_Lib/STM32H7xx_HAL_Driver/Src/stm32h7xx_hal_gpio.c **** 
 378:HAL_Lib/STM32H7xx_HAL_Driver/Src/stm32h7xx_hal_gpio.c **** @endverbatim
 379:HAL_Lib/STM32H7xx_HAL_Driver/Src/stm32h7xx_hal_gpio.c ****   * @{
 380:HAL_Lib/STM32H7xx_HAL_Driver/Src/stm32h7xx_hal_gpio.c ****   */
 381:HAL_Lib/STM32H7xx_HAL_Driver/Src/stm32h7xx_hal_gpio.c **** 
 382:HAL_Lib/STM32H7xx_HAL_Driver/Src/stm32h7xx_hal_gpio.c **** /**
ARM GAS  C:\Users\HUAV\AppData\Local\Temp\cceXbOEJ.s 			page 24


 383:HAL_Lib/STM32H7xx_HAL_Driver/Src/stm32h7xx_hal_gpio.c ****   * @brief  Reads the specified input port pin.
 384:HAL_Lib/STM32H7xx_HAL_Driver/Src/stm32h7xx_hal_gpio.c ****   * @param  GPIOx: where x can be (A..K) to select the GPIO peripheral.
 385:HAL_Lib/STM32H7xx_HAL_Driver/Src/stm32h7xx_hal_gpio.c ****   * @param  GPIO_Pin: specifies the port bit to read.
 386:HAL_Lib/STM32H7xx_HAL_Driver/Src/stm32h7xx_hal_gpio.c ****   *         This parameter can be GPIO_PIN_x where x can be (0..15).
 387:HAL_Lib/STM32H7xx_HAL_Driver/Src/stm32h7xx_hal_gpio.c ****   * @retval The input port pin value.
 388:HAL_Lib/STM32H7xx_HAL_Driver/Src/stm32h7xx_hal_gpio.c ****   */
 389:HAL_Lib/STM32H7xx_HAL_Driver/Src/stm32h7xx_hal_gpio.c **** GPIO_PinState HAL_GPIO_ReadPin(GPIO_TypeDef *GPIOx, uint16_t GPIO_Pin)
 390:HAL_Lib/STM32H7xx_HAL_Driver/Src/stm32h7xx_hal_gpio.c **** {
 809              		.loc 1 390 1 is_stmt 1 view -0
 810              		.cfi_startproc
 811              		@ args = 0, pretend = 0, frame = 0
 812              		@ frame_needed = 0, uses_anonymous_args = 0
 813              		@ link register save eliminated.
 391:HAL_Lib/STM32H7xx_HAL_Driver/Src/stm32h7xx_hal_gpio.c ****   GPIO_PinState bitstatus;
 814              		.loc 1 391 3 view .LVU268
 392:HAL_Lib/STM32H7xx_HAL_Driver/Src/stm32h7xx_hal_gpio.c **** 
 393:HAL_Lib/STM32H7xx_HAL_Driver/Src/stm32h7xx_hal_gpio.c ****   /* Check the parameters */
 394:HAL_Lib/STM32H7xx_HAL_Driver/Src/stm32h7xx_hal_gpio.c ****   assert_param(IS_GPIO_PIN(GPIO_Pin));
 815              		.loc 1 394 3 view .LVU269
 395:HAL_Lib/STM32H7xx_HAL_Driver/Src/stm32h7xx_hal_gpio.c **** 
 396:HAL_Lib/STM32H7xx_HAL_Driver/Src/stm32h7xx_hal_gpio.c ****   if ((GPIOx->IDR & GPIO_Pin) != 0x00U)
 816              		.loc 1 396 3 view .LVU270
 817              		.loc 1 396 13 is_stmt 0 view .LVU271
 818 0000 0369     		ldr	r3, [r0, #16]
 819              		.loc 1 396 6 view .LVU272
 820 0002 1942     		tst	r1, r3
 821 0004 01D0     		beq	.L61
 397:HAL_Lib/STM32H7xx_HAL_Driver/Src/stm32h7xx_hal_gpio.c ****   {
 398:HAL_Lib/STM32H7xx_HAL_Driver/Src/stm32h7xx_hal_gpio.c ****     bitstatus = GPIO_PIN_SET;
 822              		.loc 1 398 15 view .LVU273
 823 0006 0120     		movs	r0, #1
 824              	.LVL64:
 825              		.loc 1 398 15 view .LVU274
 826 0008 7047     		bx	lr
 827              	.LVL65:
 828              	.L61:
 399:HAL_Lib/STM32H7xx_HAL_Driver/Src/stm32h7xx_hal_gpio.c ****   }
 400:HAL_Lib/STM32H7xx_HAL_Driver/Src/stm32h7xx_hal_gpio.c ****   else
 401:HAL_Lib/STM32H7xx_HAL_Driver/Src/stm32h7xx_hal_gpio.c ****   {
 402:HAL_Lib/STM32H7xx_HAL_Driver/Src/stm32h7xx_hal_gpio.c ****     bitstatus = GPIO_PIN_RESET;
 829              		.loc 1 402 15 view .LVU275
 830 000a 0020     		movs	r0, #0
 831              	.LVL66:
 403:HAL_Lib/STM32H7xx_HAL_Driver/Src/stm32h7xx_hal_gpio.c ****   }
 404:HAL_Lib/STM32H7xx_HAL_Driver/Src/stm32h7xx_hal_gpio.c ****   return bitstatus;
 832              		.loc 1 404 3 is_stmt 1 view .LVU276
 405:HAL_Lib/STM32H7xx_HAL_Driver/Src/stm32h7xx_hal_gpio.c **** }
 833              		.loc 1 405 1 is_stmt 0 view .LVU277
 834 000c 7047     		bx	lr
 835              		.cfi_endproc
 836              	.LFE146:
 838              		.section	.text.HAL_GPIO_WritePin,"ax",%progbits
 839              		.align	1
 840              		.global	HAL_GPIO_WritePin
 841              		.syntax unified
 842              		.thumb
 843              		.thumb_func
ARM GAS  C:\Users\HUAV\AppData\Local\Temp\cceXbOEJ.s 			page 25


 844              		.fpu fpv5-d16
 846              	HAL_GPIO_WritePin:
 847              	.LVL67:
 848              	.LFB147:
 406:HAL_Lib/STM32H7xx_HAL_Driver/Src/stm32h7xx_hal_gpio.c **** 
 407:HAL_Lib/STM32H7xx_HAL_Driver/Src/stm32h7xx_hal_gpio.c **** /**
 408:HAL_Lib/STM32H7xx_HAL_Driver/Src/stm32h7xx_hal_gpio.c ****   * @brief  Sets or clears the selected data port bit.
 409:HAL_Lib/STM32H7xx_HAL_Driver/Src/stm32h7xx_hal_gpio.c ****   *
 410:HAL_Lib/STM32H7xx_HAL_Driver/Src/stm32h7xx_hal_gpio.c ****   * @note   This function uses GPIOx_BSRR register to allow atomic read/modify
 411:HAL_Lib/STM32H7xx_HAL_Driver/Src/stm32h7xx_hal_gpio.c ****   *         accesses. In this way, there is no risk of an IRQ occurring between
 412:HAL_Lib/STM32H7xx_HAL_Driver/Src/stm32h7xx_hal_gpio.c ****   *         the read and the modify access.
 413:HAL_Lib/STM32H7xx_HAL_Driver/Src/stm32h7xx_hal_gpio.c ****   *
 414:HAL_Lib/STM32H7xx_HAL_Driver/Src/stm32h7xx_hal_gpio.c ****   * @param  GPIOx: where x can be (A..K) to select the GPIO peripheral.
 415:HAL_Lib/STM32H7xx_HAL_Driver/Src/stm32h7xx_hal_gpio.c ****   * @param  GPIO_Pin: specifies the port bit to be written.
 416:HAL_Lib/STM32H7xx_HAL_Driver/Src/stm32h7xx_hal_gpio.c ****   *          This parameter can be one of GPIO_PIN_x where x can be (0..15).
 417:HAL_Lib/STM32H7xx_HAL_Driver/Src/stm32h7xx_hal_gpio.c ****   * @param  PinState: specifies the value to be written to the selected bit.
 418:HAL_Lib/STM32H7xx_HAL_Driver/Src/stm32h7xx_hal_gpio.c ****   *          This parameter can be one of the GPIO_PinState enum values:
 419:HAL_Lib/STM32H7xx_HAL_Driver/Src/stm32h7xx_hal_gpio.c ****   *            @arg GPIO_PIN_RESET: to clear the port pin
 420:HAL_Lib/STM32H7xx_HAL_Driver/Src/stm32h7xx_hal_gpio.c ****   *            @arg GPIO_PIN_SET: to set the port pin
 421:HAL_Lib/STM32H7xx_HAL_Driver/Src/stm32h7xx_hal_gpio.c ****   * @retval None
 422:HAL_Lib/STM32H7xx_HAL_Driver/Src/stm32h7xx_hal_gpio.c ****   */
 423:HAL_Lib/STM32H7xx_HAL_Driver/Src/stm32h7xx_hal_gpio.c **** void HAL_GPIO_WritePin(GPIO_TypeDef *GPIOx, uint16_t GPIO_Pin, GPIO_PinState PinState)
 424:HAL_Lib/STM32H7xx_HAL_Driver/Src/stm32h7xx_hal_gpio.c **** {
 849              		.loc 1 424 1 is_stmt 1 view -0
 850              		.cfi_startproc
 851              		@ args = 0, pretend = 0, frame = 0
 852              		@ frame_needed = 0, uses_anonymous_args = 0
 853              		@ link register save eliminated.
 425:HAL_Lib/STM32H7xx_HAL_Driver/Src/stm32h7xx_hal_gpio.c ****   /* Check the parameters */
 426:HAL_Lib/STM32H7xx_HAL_Driver/Src/stm32h7xx_hal_gpio.c ****   assert_param(IS_GPIO_PIN(GPIO_Pin));
 854              		.loc 1 426 3 view .LVU279
 427:HAL_Lib/STM32H7xx_HAL_Driver/Src/stm32h7xx_hal_gpio.c ****   assert_param(IS_GPIO_PIN_ACTION(PinState));
 855              		.loc 1 427 3 view .LVU280
 428:HAL_Lib/STM32H7xx_HAL_Driver/Src/stm32h7xx_hal_gpio.c **** 
 429:HAL_Lib/STM32H7xx_HAL_Driver/Src/stm32h7xx_hal_gpio.c ****   if (PinState != GPIO_PIN_RESET)
 856              		.loc 1 429 3 view .LVU281
 857              		.loc 1 429 6 is_stmt 0 view .LVU282
 858 0000 0AB1     		cbz	r2, .L63
 430:HAL_Lib/STM32H7xx_HAL_Driver/Src/stm32h7xx_hal_gpio.c ****   {
 431:HAL_Lib/STM32H7xx_HAL_Driver/Src/stm32h7xx_hal_gpio.c ****     GPIOx->BSRR = GPIO_Pin;
 859              		.loc 1 431 5 is_stmt 1 view .LVU283
 860              		.loc 1 431 17 is_stmt 0 view .LVU284
 861 0002 8161     		str	r1, [r0, #24]
 862 0004 7047     		bx	lr
 863              	.L63:
 432:HAL_Lib/STM32H7xx_HAL_Driver/Src/stm32h7xx_hal_gpio.c ****   }
 433:HAL_Lib/STM32H7xx_HAL_Driver/Src/stm32h7xx_hal_gpio.c ****   else
 434:HAL_Lib/STM32H7xx_HAL_Driver/Src/stm32h7xx_hal_gpio.c ****   {
 435:HAL_Lib/STM32H7xx_HAL_Driver/Src/stm32h7xx_hal_gpio.c ****     GPIOx->BSRR = (uint32_t)GPIO_Pin << GPIO_NUMBER;
 864              		.loc 1 435 5 is_stmt 1 view .LVU285
 865              		.loc 1 435 38 is_stmt 0 view .LVU286
 866 0006 0904     		lsls	r1, r1, #16
 867              	.LVL68:
 868              		.loc 1 435 17 view .LVU287
 869 0008 8161     		str	r1, [r0, #24]
 436:HAL_Lib/STM32H7xx_HAL_Driver/Src/stm32h7xx_hal_gpio.c ****   }
 437:HAL_Lib/STM32H7xx_HAL_Driver/Src/stm32h7xx_hal_gpio.c **** }
ARM GAS  C:\Users\HUAV\AppData\Local\Temp\cceXbOEJ.s 			page 26


 870              		.loc 1 437 1 view .LVU288
 871 000a 7047     		bx	lr
 872              		.cfi_endproc
 873              	.LFE147:
 875              		.section	.text.HAL_GPIO_TogglePin,"ax",%progbits
 876              		.align	1
 877              		.global	HAL_GPIO_TogglePin
 878              		.syntax unified
 879              		.thumb
 880              		.thumb_func
 881              		.fpu fpv5-d16
 883              	HAL_GPIO_TogglePin:
 884              	.LVL69:
 885              	.LFB148:
 438:HAL_Lib/STM32H7xx_HAL_Driver/Src/stm32h7xx_hal_gpio.c **** 
 439:HAL_Lib/STM32H7xx_HAL_Driver/Src/stm32h7xx_hal_gpio.c **** /**
 440:HAL_Lib/STM32H7xx_HAL_Driver/Src/stm32h7xx_hal_gpio.c ****   * @brief  Toggles the specified GPIO pins.
 441:HAL_Lib/STM32H7xx_HAL_Driver/Src/stm32h7xx_hal_gpio.c ****   * @param  GPIOx: Where x can be (A..K) to select the GPIO peripheral.
 442:HAL_Lib/STM32H7xx_HAL_Driver/Src/stm32h7xx_hal_gpio.c ****   * @param  GPIO_Pin: Specifies the pins to be toggled.
 443:HAL_Lib/STM32H7xx_HAL_Driver/Src/stm32h7xx_hal_gpio.c ****   * @retval None
 444:HAL_Lib/STM32H7xx_HAL_Driver/Src/stm32h7xx_hal_gpio.c ****   */
 445:HAL_Lib/STM32H7xx_HAL_Driver/Src/stm32h7xx_hal_gpio.c **** void HAL_GPIO_TogglePin(GPIO_TypeDef *GPIOx, uint16_t GPIO_Pin)
 446:HAL_Lib/STM32H7xx_HAL_Driver/Src/stm32h7xx_hal_gpio.c **** {
 886              		.loc 1 446 1 is_stmt 1 view -0
 887              		.cfi_startproc
 888              		@ args = 0, pretend = 0, frame = 0
 889              		@ frame_needed = 0, uses_anonymous_args = 0
 890              		@ link register save eliminated.
 447:HAL_Lib/STM32H7xx_HAL_Driver/Src/stm32h7xx_hal_gpio.c ****   uint32_t odr;
 891              		.loc 1 447 3 view .LVU290
 448:HAL_Lib/STM32H7xx_HAL_Driver/Src/stm32h7xx_hal_gpio.c **** 
 449:HAL_Lib/STM32H7xx_HAL_Driver/Src/stm32h7xx_hal_gpio.c ****   /* Check the parameters */
 450:HAL_Lib/STM32H7xx_HAL_Driver/Src/stm32h7xx_hal_gpio.c ****   assert_param(IS_GPIO_PIN(GPIO_Pin));
 892              		.loc 1 450 3 view .LVU291
 451:HAL_Lib/STM32H7xx_HAL_Driver/Src/stm32h7xx_hal_gpio.c **** 
 452:HAL_Lib/STM32H7xx_HAL_Driver/Src/stm32h7xx_hal_gpio.c ****   /* get current Output Data Register value */
 453:HAL_Lib/STM32H7xx_HAL_Driver/Src/stm32h7xx_hal_gpio.c ****   odr = GPIOx->ODR;
 893              		.loc 1 453 3 view .LVU292
 894              		.loc 1 453 7 is_stmt 0 view .LVU293
 895 0000 4369     		ldr	r3, [r0, #20]
 896              	.LVL70:
 454:HAL_Lib/STM32H7xx_HAL_Driver/Src/stm32h7xx_hal_gpio.c **** 
 455:HAL_Lib/STM32H7xx_HAL_Driver/Src/stm32h7xx_hal_gpio.c ****   /* Set selected pins that were at low level, and reset ones that were high */
 456:HAL_Lib/STM32H7xx_HAL_Driver/Src/stm32h7xx_hal_gpio.c ****   GPIOx->BSRR = ((odr & GPIO_Pin) << GPIO_NUMBER) | (~odr & GPIO_Pin);
 897              		.loc 1 456 3 is_stmt 1 view .LVU294
 898              		.loc 1 456 23 is_stmt 0 view .LVU295
 899 0002 01EA0302 		and	r2, r1, r3
 900              		.loc 1 456 59 view .LVU296
 901 0006 21EA0301 		bic	r1, r1, r3
 902              	.LVL71:
 903              		.loc 1 456 51 view .LVU297
 904 000a 41EA0241 		orr	r1, r1, r2, lsl #16
 905              		.loc 1 456 15 view .LVU298
 906 000e 8161     		str	r1, [r0, #24]
 457:HAL_Lib/STM32H7xx_HAL_Driver/Src/stm32h7xx_hal_gpio.c **** }
 907              		.loc 1 457 1 view .LVU299
 908 0010 7047     		bx	lr
ARM GAS  C:\Users\HUAV\AppData\Local\Temp\cceXbOEJ.s 			page 27


 909              		.cfi_endproc
 910              	.LFE148:
 912              		.section	.text.HAL_GPIO_LockPin,"ax",%progbits
 913              		.align	1
 914              		.global	HAL_GPIO_LockPin
 915              		.syntax unified
 916              		.thumb
 917              		.thumb_func
 918              		.fpu fpv5-d16
 920              	HAL_GPIO_LockPin:
 921              	.LVL72:
 922              	.LFB149:
 458:HAL_Lib/STM32H7xx_HAL_Driver/Src/stm32h7xx_hal_gpio.c **** 
 459:HAL_Lib/STM32H7xx_HAL_Driver/Src/stm32h7xx_hal_gpio.c **** /**
 460:HAL_Lib/STM32H7xx_HAL_Driver/Src/stm32h7xx_hal_gpio.c ****   * @brief  Locks GPIO Pins configuration registers.
 461:HAL_Lib/STM32H7xx_HAL_Driver/Src/stm32h7xx_hal_gpio.c ****   * @note   The locked registers are GPIOx_MODER, GPIOx_OTYPER, GPIOx_OSPEEDR,
 462:HAL_Lib/STM32H7xx_HAL_Driver/Src/stm32h7xx_hal_gpio.c ****   *         GPIOx_PUPDR, GPIOx_AFRL and GPIOx_AFRH.
 463:HAL_Lib/STM32H7xx_HAL_Driver/Src/stm32h7xx_hal_gpio.c ****   * @note   The configuration of the locked GPIO pins can no longer be modified
 464:HAL_Lib/STM32H7xx_HAL_Driver/Src/stm32h7xx_hal_gpio.c ****   *         until the next reset.
 465:HAL_Lib/STM32H7xx_HAL_Driver/Src/stm32h7xx_hal_gpio.c ****   * @param  GPIOx: where x can be (A..K) to select the GPIO peripheral for STM32H7 family
 466:HAL_Lib/STM32H7xx_HAL_Driver/Src/stm32h7xx_hal_gpio.c ****   * @param  GPIO_Pin: specifies the port bit to be locked.
 467:HAL_Lib/STM32H7xx_HAL_Driver/Src/stm32h7xx_hal_gpio.c ****   *         This parameter can be any combination of GPIO_PIN_x where x can be (0..15).
 468:HAL_Lib/STM32H7xx_HAL_Driver/Src/stm32h7xx_hal_gpio.c ****   * @retval None
 469:HAL_Lib/STM32H7xx_HAL_Driver/Src/stm32h7xx_hal_gpio.c ****   */
 470:HAL_Lib/STM32H7xx_HAL_Driver/Src/stm32h7xx_hal_gpio.c **** HAL_StatusTypeDef HAL_GPIO_LockPin(GPIO_TypeDef *GPIOx, uint16_t GPIO_Pin)
 471:HAL_Lib/STM32H7xx_HAL_Driver/Src/stm32h7xx_hal_gpio.c **** {
 923              		.loc 1 471 1 is_stmt 1 view -0
 924              		.cfi_startproc
 925              		@ args = 0, pretend = 0, frame = 8
 926              		@ frame_needed = 0, uses_anonymous_args = 0
 927              		@ link register save eliminated.
 928              		.loc 1 471 1 is_stmt 0 view .LVU301
 929 0000 82B0     		sub	sp, sp, #8
 930              	.LCFI8:
 931              		.cfi_def_cfa_offset 8
 472:HAL_Lib/STM32H7xx_HAL_Driver/Src/stm32h7xx_hal_gpio.c ****   __IO uint32_t tmp = GPIO_LCKR_LCKK;
 932              		.loc 1 472 3 is_stmt 1 view .LVU302
 933              		.loc 1 472 17 is_stmt 0 view .LVU303
 934 0002 4FF48033 		mov	r3, #65536
 935 0006 0193     		str	r3, [sp, #4]
 473:HAL_Lib/STM32H7xx_HAL_Driver/Src/stm32h7xx_hal_gpio.c **** 
 474:HAL_Lib/STM32H7xx_HAL_Driver/Src/stm32h7xx_hal_gpio.c ****   /* Check the parameters */
 475:HAL_Lib/STM32H7xx_HAL_Driver/Src/stm32h7xx_hal_gpio.c ****   assert_param(IS_GPIO_LOCK_INSTANCE(GPIOx));
 936              		.loc 1 475 3 is_stmt 1 view .LVU304
 476:HAL_Lib/STM32H7xx_HAL_Driver/Src/stm32h7xx_hal_gpio.c ****   assert_param(IS_GPIO_PIN(GPIO_Pin));
 937              		.loc 1 476 3 view .LVU305
 477:HAL_Lib/STM32H7xx_HAL_Driver/Src/stm32h7xx_hal_gpio.c **** 
 478:HAL_Lib/STM32H7xx_HAL_Driver/Src/stm32h7xx_hal_gpio.c ****   /* Apply lock key write sequence */
 479:HAL_Lib/STM32H7xx_HAL_Driver/Src/stm32h7xx_hal_gpio.c ****   tmp |= GPIO_Pin;
 938              		.loc 1 479 3 view .LVU306
 939              		.loc 1 479 7 is_stmt 0 view .LVU307
 940 0008 019B     		ldr	r3, [sp, #4]
 941 000a 0B43     		orrs	r3, r3, r1
 942 000c 0193     		str	r3, [sp, #4]
 480:HAL_Lib/STM32H7xx_HAL_Driver/Src/stm32h7xx_hal_gpio.c ****   /* Set LCKx bit(s): LCKK='1' + LCK[15-0] */
 481:HAL_Lib/STM32H7xx_HAL_Driver/Src/stm32h7xx_hal_gpio.c ****   GPIOx->LCKR = tmp;
 943              		.loc 1 481 3 is_stmt 1 view .LVU308
ARM GAS  C:\Users\HUAV\AppData\Local\Temp\cceXbOEJ.s 			page 28


 944              		.loc 1 481 15 is_stmt 0 view .LVU309
 945 000e 019B     		ldr	r3, [sp, #4]
 946 0010 C361     		str	r3, [r0, #28]
 482:HAL_Lib/STM32H7xx_HAL_Driver/Src/stm32h7xx_hal_gpio.c ****   /* Reset LCKx bit(s): LCKK='0' + LCK[15-0] */
 483:HAL_Lib/STM32H7xx_HAL_Driver/Src/stm32h7xx_hal_gpio.c ****   GPIOx->LCKR = GPIO_Pin;
 947              		.loc 1 483 3 is_stmt 1 view .LVU310
 948              		.loc 1 483 15 is_stmt 0 view .LVU311
 949 0012 C161     		str	r1, [r0, #28]
 484:HAL_Lib/STM32H7xx_HAL_Driver/Src/stm32h7xx_hal_gpio.c ****   /* Set LCKx bit(s): LCKK='1' + LCK[15-0] */
 485:HAL_Lib/STM32H7xx_HAL_Driver/Src/stm32h7xx_hal_gpio.c ****   GPIOx->LCKR = tmp;
 950              		.loc 1 485 3 is_stmt 1 view .LVU312
 951              		.loc 1 485 15 is_stmt 0 view .LVU313
 952 0014 019B     		ldr	r3, [sp, #4]
 953 0016 C361     		str	r3, [r0, #28]
 486:HAL_Lib/STM32H7xx_HAL_Driver/Src/stm32h7xx_hal_gpio.c ****   /* Read LCKK register. This read is mandatory to complete key lock sequence*/
 487:HAL_Lib/STM32H7xx_HAL_Driver/Src/stm32h7xx_hal_gpio.c ****   tmp = GPIOx->LCKR;
 954              		.loc 1 487 3 is_stmt 1 view .LVU314
 955              		.loc 1 487 14 is_stmt 0 view .LVU315
 956 0018 C369     		ldr	r3, [r0, #28]
 957              		.loc 1 487 7 view .LVU316
 958 001a 0193     		str	r3, [sp, #4]
 488:HAL_Lib/STM32H7xx_HAL_Driver/Src/stm32h7xx_hal_gpio.c **** 
 489:HAL_Lib/STM32H7xx_HAL_Driver/Src/stm32h7xx_hal_gpio.c ****   /* read again in order to confirm lock is active */
 490:HAL_Lib/STM32H7xx_HAL_Driver/Src/stm32h7xx_hal_gpio.c ****   if ((GPIOx->LCKR & GPIO_LCKR_LCKK) != 0x00U)
 959              		.loc 1 490 3 is_stmt 1 view .LVU317
 960              		.loc 1 490 13 is_stmt 0 view .LVU318
 961 001c C369     		ldr	r3, [r0, #28]
 962              		.loc 1 490 6 view .LVU319
 963 001e 13F4803F 		tst	r3, #65536
 964 0022 02D0     		beq	.L68
 491:HAL_Lib/STM32H7xx_HAL_Driver/Src/stm32h7xx_hal_gpio.c ****   {
 492:HAL_Lib/STM32H7xx_HAL_Driver/Src/stm32h7xx_hal_gpio.c ****     return HAL_OK;
 965              		.loc 1 492 12 view .LVU320
 966 0024 0020     		movs	r0, #0
 967              	.LVL73:
 968              	.L67:
 493:HAL_Lib/STM32H7xx_HAL_Driver/Src/stm32h7xx_hal_gpio.c ****   }
 494:HAL_Lib/STM32H7xx_HAL_Driver/Src/stm32h7xx_hal_gpio.c ****   else
 495:HAL_Lib/STM32H7xx_HAL_Driver/Src/stm32h7xx_hal_gpio.c ****   {
 496:HAL_Lib/STM32H7xx_HAL_Driver/Src/stm32h7xx_hal_gpio.c ****     return HAL_ERROR;
 497:HAL_Lib/STM32H7xx_HAL_Driver/Src/stm32h7xx_hal_gpio.c ****   }
 498:HAL_Lib/STM32H7xx_HAL_Driver/Src/stm32h7xx_hal_gpio.c **** }
 969              		.loc 1 498 1 view .LVU321
 970 0026 02B0     		add	sp, sp, #8
 971              	.LCFI9:
 972              		.cfi_remember_state
 973              		.cfi_def_cfa_offset 0
 974              		@ sp needed
 975 0028 7047     		bx	lr
 976              	.LVL74:
 977              	.L68:
 978              	.LCFI10:
 979              		.cfi_restore_state
 496:HAL_Lib/STM32H7xx_HAL_Driver/Src/stm32h7xx_hal_gpio.c ****   }
 980              		.loc 1 496 12 view .LVU322
 981 002a 0120     		movs	r0, #1
 982              	.LVL75:
ARM GAS  C:\Users\HUAV\AppData\Local\Temp\cceXbOEJ.s 			page 29


 496:HAL_Lib/STM32H7xx_HAL_Driver/Src/stm32h7xx_hal_gpio.c ****   }
 983              		.loc 1 496 12 view .LVU323
 984 002c FBE7     		b	.L67
 985              		.cfi_endproc
 986              	.LFE149:
 988              		.section	.text.HAL_GPIO_EXTI_Callback,"ax",%progbits
 989              		.align	1
 990              		.weak	HAL_GPIO_EXTI_Callback
 991              		.syntax unified
 992              		.thumb
 993              		.thumb_func
 994              		.fpu fpv5-d16
 996              	HAL_GPIO_EXTI_Callback:
 997              	.LVL76:
 998              	.LFB151:
 499:HAL_Lib/STM32H7xx_HAL_Driver/Src/stm32h7xx_hal_gpio.c **** 
 500:HAL_Lib/STM32H7xx_HAL_Driver/Src/stm32h7xx_hal_gpio.c **** /**
 501:HAL_Lib/STM32H7xx_HAL_Driver/Src/stm32h7xx_hal_gpio.c ****   * @brief  Handle EXTI interrupt request.
 502:HAL_Lib/STM32H7xx_HAL_Driver/Src/stm32h7xx_hal_gpio.c ****   * @param  GPIO_Pin: Specifies the port pin connected to corresponding EXTI line.
 503:HAL_Lib/STM32H7xx_HAL_Driver/Src/stm32h7xx_hal_gpio.c ****   * @retval None
 504:HAL_Lib/STM32H7xx_HAL_Driver/Src/stm32h7xx_hal_gpio.c ****   */
 505:HAL_Lib/STM32H7xx_HAL_Driver/Src/stm32h7xx_hal_gpio.c **** void HAL_GPIO_EXTI_IRQHandler(uint16_t GPIO_Pin)
 506:HAL_Lib/STM32H7xx_HAL_Driver/Src/stm32h7xx_hal_gpio.c **** {
 507:HAL_Lib/STM32H7xx_HAL_Driver/Src/stm32h7xx_hal_gpio.c **** #if defined(DUAL_CORE) && defined(CORE_CM4)
 508:HAL_Lib/STM32H7xx_HAL_Driver/Src/stm32h7xx_hal_gpio.c ****   if (__HAL_GPIO_EXTID2_GET_IT(GPIO_Pin) != 0x00U)
 509:HAL_Lib/STM32H7xx_HAL_Driver/Src/stm32h7xx_hal_gpio.c ****   {
 510:HAL_Lib/STM32H7xx_HAL_Driver/Src/stm32h7xx_hal_gpio.c ****     __HAL_GPIO_EXTID2_CLEAR_IT(GPIO_Pin);
 511:HAL_Lib/STM32H7xx_HAL_Driver/Src/stm32h7xx_hal_gpio.c ****     HAL_GPIO_EXTI_Callback(GPIO_Pin);
 512:HAL_Lib/STM32H7xx_HAL_Driver/Src/stm32h7xx_hal_gpio.c ****   }
 513:HAL_Lib/STM32H7xx_HAL_Driver/Src/stm32h7xx_hal_gpio.c **** #else
 514:HAL_Lib/STM32H7xx_HAL_Driver/Src/stm32h7xx_hal_gpio.c ****   /* EXTI line interrupt detected */
 515:HAL_Lib/STM32H7xx_HAL_Driver/Src/stm32h7xx_hal_gpio.c ****   if (__HAL_GPIO_EXTI_GET_IT(GPIO_Pin) != 0x00U)
 516:HAL_Lib/STM32H7xx_HAL_Driver/Src/stm32h7xx_hal_gpio.c ****   {
 517:HAL_Lib/STM32H7xx_HAL_Driver/Src/stm32h7xx_hal_gpio.c ****     __HAL_GPIO_EXTI_CLEAR_IT(GPIO_Pin);
 518:HAL_Lib/STM32H7xx_HAL_Driver/Src/stm32h7xx_hal_gpio.c ****     HAL_GPIO_EXTI_Callback(GPIO_Pin);
 519:HAL_Lib/STM32H7xx_HAL_Driver/Src/stm32h7xx_hal_gpio.c ****   }
 520:HAL_Lib/STM32H7xx_HAL_Driver/Src/stm32h7xx_hal_gpio.c **** #endif
 521:HAL_Lib/STM32H7xx_HAL_Driver/Src/stm32h7xx_hal_gpio.c **** }
 522:HAL_Lib/STM32H7xx_HAL_Driver/Src/stm32h7xx_hal_gpio.c **** 
 523:HAL_Lib/STM32H7xx_HAL_Driver/Src/stm32h7xx_hal_gpio.c **** /**
 524:HAL_Lib/STM32H7xx_HAL_Driver/Src/stm32h7xx_hal_gpio.c ****   * @brief  EXTI line detection callback.
 525:HAL_Lib/STM32H7xx_HAL_Driver/Src/stm32h7xx_hal_gpio.c ****   * @param  GPIO_Pin: Specifies the port pin connected to corresponding EXTI line.
 526:HAL_Lib/STM32H7xx_HAL_Driver/Src/stm32h7xx_hal_gpio.c ****   * @retval None
 527:HAL_Lib/STM32H7xx_HAL_Driver/Src/stm32h7xx_hal_gpio.c ****   */
 528:HAL_Lib/STM32H7xx_HAL_Driver/Src/stm32h7xx_hal_gpio.c **** __weak void HAL_GPIO_EXTI_Callback(uint16_t GPIO_Pin)
 529:HAL_Lib/STM32H7xx_HAL_Driver/Src/stm32h7xx_hal_gpio.c **** {
 999              		.loc 1 529 1 is_stmt 1 view -0
 1000              		.cfi_startproc
 1001              		@ args = 0, pretend = 0, frame = 0
 1002              		@ frame_needed = 0, uses_anonymous_args = 0
 1003              		@ link register save eliminated.
 530:HAL_Lib/STM32H7xx_HAL_Driver/Src/stm32h7xx_hal_gpio.c ****   /* Prevent unused argument(s) compilation warning */
 531:HAL_Lib/STM32H7xx_HAL_Driver/Src/stm32h7xx_hal_gpio.c ****   UNUSED(GPIO_Pin);
 1004              		.loc 1 531 3 view .LVU325
 532:HAL_Lib/STM32H7xx_HAL_Driver/Src/stm32h7xx_hal_gpio.c **** 
 533:HAL_Lib/STM32H7xx_HAL_Driver/Src/stm32h7xx_hal_gpio.c ****   /* NOTE: This function Should not be modified, when the callback is needed,
 534:HAL_Lib/STM32H7xx_HAL_Driver/Src/stm32h7xx_hal_gpio.c ****            the HAL_GPIO_EXTI_Callback could be implemented in the user file
ARM GAS  C:\Users\HUAV\AppData\Local\Temp\cceXbOEJ.s 			page 30


 535:HAL_Lib/STM32H7xx_HAL_Driver/Src/stm32h7xx_hal_gpio.c ****    */
 536:HAL_Lib/STM32H7xx_HAL_Driver/Src/stm32h7xx_hal_gpio.c **** }
 1005              		.loc 1 536 1 is_stmt 0 view .LVU326
 1006 0000 7047     		bx	lr
 1007              		.cfi_endproc
 1008              	.LFE151:
 1010              		.section	.text.HAL_GPIO_EXTI_IRQHandler,"ax",%progbits
 1011              		.align	1
 1012              		.global	HAL_GPIO_EXTI_IRQHandler
 1013              		.syntax unified
 1014              		.thumb
 1015              		.thumb_func
 1016              		.fpu fpv5-d16
 1018              	HAL_GPIO_EXTI_IRQHandler:
 1019              	.LVL77:
 1020              	.LFB150:
 506:HAL_Lib/STM32H7xx_HAL_Driver/Src/stm32h7xx_hal_gpio.c **** #if defined(DUAL_CORE) && defined(CORE_CM4)
 1021              		.loc 1 506 1 is_stmt 1 view -0
 1022              		.cfi_startproc
 1023              		@ args = 0, pretend = 0, frame = 0
 1024              		@ frame_needed = 0, uses_anonymous_args = 0
 506:HAL_Lib/STM32H7xx_HAL_Driver/Src/stm32h7xx_hal_gpio.c **** #if defined(DUAL_CORE) && defined(CORE_CM4)
 1025              		.loc 1 506 1 is_stmt 0 view .LVU328
 1026 0000 08B5     		push	{r3, lr}
 1027              	.LCFI11:
 1028              		.cfi_def_cfa_offset 8
 1029              		.cfi_offset 3, -8
 1030              		.cfi_offset 14, -4
 515:HAL_Lib/STM32H7xx_HAL_Driver/Src/stm32h7xx_hal_gpio.c ****   {
 1031              		.loc 1 515 3 is_stmt 1 view .LVU329
 515:HAL_Lib/STM32H7xx_HAL_Driver/Src/stm32h7xx_hal_gpio.c ****   {
 1032              		.loc 1 515 7 is_stmt 0 view .LVU330
 1033 0002 4FF0B043 		mov	r3, #1476395008
 1034 0006 D3F88830 		ldr	r3, [r3, #136]
 515:HAL_Lib/STM32H7xx_HAL_Driver/Src/stm32h7xx_hal_gpio.c ****   {
 1035              		.loc 1 515 6 view .LVU331
 1036 000a 0342     		tst	r3, r0
 1037 000c 00D1     		bne	.L74
 1038              	.LVL78:
 1039              	.L71:
 521:HAL_Lib/STM32H7xx_HAL_Driver/Src/stm32h7xx_hal_gpio.c **** 
 1040              		.loc 1 521 1 view .LVU332
 1041 000e 08BD     		pop	{r3, pc}
 1042              	.LVL79:
 1043              	.L74:
 517:HAL_Lib/STM32H7xx_HAL_Driver/Src/stm32h7xx_hal_gpio.c ****     HAL_GPIO_EXTI_Callback(GPIO_Pin);
 1044              		.loc 1 517 5 is_stmt 1 view .LVU333
 1045 0010 4FF0B043 		mov	r3, #1476395008
 1046 0014 C3F88800 		str	r0, [r3, #136]
 518:HAL_Lib/STM32H7xx_HAL_Driver/Src/stm32h7xx_hal_gpio.c ****   }
 1047              		.loc 1 518 5 view .LVU334
 1048 0018 FFF7FEFF 		bl	HAL_GPIO_EXTI_Callback
 1049              	.LVL80:
 521:HAL_Lib/STM32H7xx_HAL_Driver/Src/stm32h7xx_hal_gpio.c **** 
 1050              		.loc 1 521 1 is_stmt 0 view .LVU335
 1051 001c F7E7     		b	.L71
 1052              		.cfi_endproc
ARM GAS  C:\Users\HUAV\AppData\Local\Temp\cceXbOEJ.s 			page 31


 1053              	.LFE150:
 1055              		.text
 1056              	.Letext0:
 1057              		.file 2 "d:\\software\\zephyr_env_gcc\\gcc-arm-none-eabi-9-2019-q4-major-win32\\arm-none-eabi\\inc
 1058              		.file 3 "d:\\software\\zephyr_env_gcc\\gcc-arm-none-eabi-9-2019-q4-major-win32\\arm-none-eabi\\inc
 1059              		.file 4 "HAL_Lib/CMSIS/Core/Include/core_cm7.h"
 1060              		.file 5 "HAL_Lib/CMSIS/Device/ST/STM32H7xx/Include/system_stm32h7xx.h"
 1061              		.file 6 "HAL_Lib/CMSIS/Device/ST/STM32H7xx/Include/stm32h743xx.h"
 1062              		.file 7 "d:\\software\\zephyr_env_gcc\\gcc-arm-none-eabi-9-2019-q4-major-win32\\arm-none-eabi\\inc
 1063              		.file 8 "d:\\software\\zephyr_env_gcc\\gcc-arm-none-eabi-9-2019-q4-major-win32\\arm-none-eabi\\inc
 1064              		.file 9 "d:\\software\\zephyr_env_gcc\\gcc-arm-none-eabi-9-2019-q4-major-win32\\lib\\gcc\\arm-none
 1065              		.file 10 "d:\\software\\zephyr_env_gcc\\gcc-arm-none-eabi-9-2019-q4-major-win32\\arm-none-eabi\\in
 1066              		.file 11 "d:\\software\\zephyr_env_gcc\\gcc-arm-none-eabi-9-2019-q4-major-win32\\arm-none-eabi\\in
 1067              		.file 12 "HAL_Lib/STM32H7xx_HAL_Driver/Inc/stm32h7xx_hal_def.h"
 1068              		.file 13 "HAL_Lib/STM32H7xx_HAL_Driver/Inc/stm32h7xx_hal_gpio.h"
 1069              		.file 14 "HAL_Lib/STM32H7xx_HAL_Driver/Inc/stm32h7xx_hal_flash.h"
 1070              		.file 15 "HAL_Lib/STM32H7xx_HAL_Driver/Inc/stm32h7xx_hal_uart.h"
 1071              		.file 16 "HAL_Lib/STM32H7xx_HAL_Driver/Inc/stm32h7xx_hal.h"
ARM GAS  C:\Users\HUAV\AppData\Local\Temp\cceXbOEJ.s 			page 32

