ARM GAS  C:\Users\HUAV\AppData\Local\Temp\ccTib3Ek.s 			page 1


   1              		.cpu cortex-m7
   2              		.arch armv7e-m
   3              		.fpu fpv5-d16
   4              		.eabi_attribute 28, 1
   5              		.eabi_attribute 20, 1
   6              		.eabi_attribute 21, 1
   7              		.eabi_attribute 23, 3
   8              		.eabi_attribute 24, 1
   9              		.eabi_attribute 25, 1
  10              		.eabi_attribute 26, 1
  11              		.eabi_attribute 30, 1
  12              		.eabi_attribute 34, 1
  13              		.eabi_attribute 18, 4
  14              		.file	"stm32h7xx_hal.c"
  15              		.text
  16              	.Ltext0:
  17              		.cfi_sections	.debug_frame
  18              		.section	.text.HAL_MspInit,"ax",%progbits
  19              		.align	1
  20              		.weak	HAL_MspInit
  21              		.syntax unified
  22              		.thumb
  23              		.thumb_func
  25              	HAL_MspInit:
  26              	.LFB146:
  27              		.file 1 "HAL_Lib/STM32H7xx_HAL_Driver/Src/stm32h7xx_hal.c"
   1:HAL_Lib/STM32H7xx_HAL_Driver/Src/stm32h7xx_hal.c **** /**
   2:HAL_Lib/STM32H7xx_HAL_Driver/Src/stm32h7xx_hal.c ****   ******************************************************************************
   3:HAL_Lib/STM32H7xx_HAL_Driver/Src/stm32h7xx_hal.c ****   * @file    stm32h7xx_hal.c
   4:HAL_Lib/STM32H7xx_HAL_Driver/Src/stm32h7xx_hal.c ****   * @author  MCD Application Team
   5:HAL_Lib/STM32H7xx_HAL_Driver/Src/stm32h7xx_hal.c ****   * @brief   HAL module driver.
   6:HAL_Lib/STM32H7xx_HAL_Driver/Src/stm32h7xx_hal.c ****   *          This is the common part of the HAL initialization
   7:HAL_Lib/STM32H7xx_HAL_Driver/Src/stm32h7xx_hal.c ****   *
   8:HAL_Lib/STM32H7xx_HAL_Driver/Src/stm32h7xx_hal.c ****   ******************************************************************************
   9:HAL_Lib/STM32H7xx_HAL_Driver/Src/stm32h7xx_hal.c ****   * @attention
  10:HAL_Lib/STM32H7xx_HAL_Driver/Src/stm32h7xx_hal.c ****   *
  11:HAL_Lib/STM32H7xx_HAL_Driver/Src/stm32h7xx_hal.c ****   * Copyright (c) 2017 STMicroelectronics.
  12:HAL_Lib/STM32H7xx_HAL_Driver/Src/stm32h7xx_hal.c ****   * All rights reserved.
  13:HAL_Lib/STM32H7xx_HAL_Driver/Src/stm32h7xx_hal.c ****   *
  14:HAL_Lib/STM32H7xx_HAL_Driver/Src/stm32h7xx_hal.c ****   * This software is licensed under terms that can be found in the LICENSE file
  15:HAL_Lib/STM32H7xx_HAL_Driver/Src/stm32h7xx_hal.c ****   * in the root directory of this software component.
  16:HAL_Lib/STM32H7xx_HAL_Driver/Src/stm32h7xx_hal.c ****   * If no LICENSE file comes with this software, it is provided AS-IS.
  17:HAL_Lib/STM32H7xx_HAL_Driver/Src/stm32h7xx_hal.c ****   *
  18:HAL_Lib/STM32H7xx_HAL_Driver/Src/stm32h7xx_hal.c ****   ******************************************************************************
  19:HAL_Lib/STM32H7xx_HAL_Driver/Src/stm32h7xx_hal.c ****   @verbatim
  20:HAL_Lib/STM32H7xx_HAL_Driver/Src/stm32h7xx_hal.c ****   ==============================================================================
  21:HAL_Lib/STM32H7xx_HAL_Driver/Src/stm32h7xx_hal.c ****                      ##### How to use this driver #####
  22:HAL_Lib/STM32H7xx_HAL_Driver/Src/stm32h7xx_hal.c ****   ==============================================================================
  23:HAL_Lib/STM32H7xx_HAL_Driver/Src/stm32h7xx_hal.c ****     [..]
  24:HAL_Lib/STM32H7xx_HAL_Driver/Src/stm32h7xx_hal.c ****     The common HAL driver contains a set of generic and common APIs that can be
  25:HAL_Lib/STM32H7xx_HAL_Driver/Src/stm32h7xx_hal.c ****     used by the PPP peripheral drivers and the user to start using the HAL.
  26:HAL_Lib/STM32H7xx_HAL_Driver/Src/stm32h7xx_hal.c ****     [..]
  27:HAL_Lib/STM32H7xx_HAL_Driver/Src/stm32h7xx_hal.c ****     The HAL contains two APIs' categories:
  28:HAL_Lib/STM32H7xx_HAL_Driver/Src/stm32h7xx_hal.c ****          (+) Common HAL APIs
  29:HAL_Lib/STM32H7xx_HAL_Driver/Src/stm32h7xx_hal.c ****          (+) Services HAL APIs
  30:HAL_Lib/STM32H7xx_HAL_Driver/Src/stm32h7xx_hal.c **** 
  31:HAL_Lib/STM32H7xx_HAL_Driver/Src/stm32h7xx_hal.c ****   @endverbatim
ARM GAS  C:\Users\HUAV\AppData\Local\Temp\ccTib3Ek.s 			page 2


  32:HAL_Lib/STM32H7xx_HAL_Driver/Src/stm32h7xx_hal.c ****   ******************************************************************************
  33:HAL_Lib/STM32H7xx_HAL_Driver/Src/stm32h7xx_hal.c ****   */
  34:HAL_Lib/STM32H7xx_HAL_Driver/Src/stm32h7xx_hal.c **** 
  35:HAL_Lib/STM32H7xx_HAL_Driver/Src/stm32h7xx_hal.c **** /* Includes ------------------------------------------------------------------*/
  36:HAL_Lib/STM32H7xx_HAL_Driver/Src/stm32h7xx_hal.c **** #include "stm32h7xx_hal.h"
  37:HAL_Lib/STM32H7xx_HAL_Driver/Src/stm32h7xx_hal.c **** 
  38:HAL_Lib/STM32H7xx_HAL_Driver/Src/stm32h7xx_hal.c **** /** @addtogroup STM32H7xx_HAL_Driver
  39:HAL_Lib/STM32H7xx_HAL_Driver/Src/stm32h7xx_hal.c ****  * @{
  40:HAL_Lib/STM32H7xx_HAL_Driver/Src/stm32h7xx_hal.c ****  */
  41:HAL_Lib/STM32H7xx_HAL_Driver/Src/stm32h7xx_hal.c **** 
  42:HAL_Lib/STM32H7xx_HAL_Driver/Src/stm32h7xx_hal.c **** /** @defgroup HAL  HAL
  43:HAL_Lib/STM32H7xx_HAL_Driver/Src/stm32h7xx_hal.c ****  * @brief HAL module driver.
  44:HAL_Lib/STM32H7xx_HAL_Driver/Src/stm32h7xx_hal.c ****  * @{
  45:HAL_Lib/STM32H7xx_HAL_Driver/Src/stm32h7xx_hal.c ****  */
  46:HAL_Lib/STM32H7xx_HAL_Driver/Src/stm32h7xx_hal.c **** 
  47:HAL_Lib/STM32H7xx_HAL_Driver/Src/stm32h7xx_hal.c **** /* Private typedef -----------------------------------------------------------*/
  48:HAL_Lib/STM32H7xx_HAL_Driver/Src/stm32h7xx_hal.c **** /* Private define ------------------------------------------------------------*/
  49:HAL_Lib/STM32H7xx_HAL_Driver/Src/stm32h7xx_hal.c **** /**
  50:HAL_Lib/STM32H7xx_HAL_Driver/Src/stm32h7xx_hal.c ****  * @brief STM32H7xx HAL Driver version number V1.10.1
  51:HAL_Lib/STM32H7xx_HAL_Driver/Src/stm32h7xx_hal.c ****  */
  52:HAL_Lib/STM32H7xx_HAL_Driver/Src/stm32h7xx_hal.c **** #define __STM32H7xx_HAL_VERSION_MAIN (0x01UL) /*!< [31:24] main version */
  53:HAL_Lib/STM32H7xx_HAL_Driver/Src/stm32h7xx_hal.c **** #define __STM32H7xx_HAL_VERSION_SUB1 (0x0AUL) /*!< [23:16] sub1 version */
  54:HAL_Lib/STM32H7xx_HAL_Driver/Src/stm32h7xx_hal.c **** #define __STM32H7xx_HAL_VERSION_SUB2 (0x01UL) /*!< [15:8]  sub2 version */
  55:HAL_Lib/STM32H7xx_HAL_Driver/Src/stm32h7xx_hal.c **** #define __STM32H7xx_HAL_VERSION_RC (0x00UL)   /*!< [7:0]  release candidate */
  56:HAL_Lib/STM32H7xx_HAL_Driver/Src/stm32h7xx_hal.c **** #define __STM32H7xx_HAL_VERSION ((__STM32H7xx_HAL_VERSION_MAIN << 24) | (__STM32H7xx_HAL_VERSION_SU
  57:HAL_Lib/STM32H7xx_HAL_Driver/Src/stm32h7xx_hal.c **** 
  58:HAL_Lib/STM32H7xx_HAL_Driver/Src/stm32h7xx_hal.c **** #define IDCODE_DEVID_MASK ((uint32_t)0x00000FFF)
  59:HAL_Lib/STM32H7xx_HAL_Driver/Src/stm32h7xx_hal.c **** #define VREFBUF_TIMEOUT_VALUE (uint32_t)10 /* 10 ms  */
  60:HAL_Lib/STM32H7xx_HAL_Driver/Src/stm32h7xx_hal.c **** 
  61:HAL_Lib/STM32H7xx_HAL_Driver/Src/stm32h7xx_hal.c **** /* Private macro -------------------------------------------------------------*/
  62:HAL_Lib/STM32H7xx_HAL_Driver/Src/stm32h7xx_hal.c **** /* Private variables ---------------------------------------------------------*/
  63:HAL_Lib/STM32H7xx_HAL_Driver/Src/stm32h7xx_hal.c **** /* Exported variables --------------------------------------------------------*/
  64:HAL_Lib/STM32H7xx_HAL_Driver/Src/stm32h7xx_hal.c **** 
  65:HAL_Lib/STM32H7xx_HAL_Driver/Src/stm32h7xx_hal.c **** /** @defgroup HAL_Exported_Variables HAL Exported Variables
  66:HAL_Lib/STM32H7xx_HAL_Driver/Src/stm32h7xx_hal.c ****  * @{
  67:HAL_Lib/STM32H7xx_HAL_Driver/Src/stm32h7xx_hal.c ****  */
  68:HAL_Lib/STM32H7xx_HAL_Driver/Src/stm32h7xx_hal.c **** __IO uint32_t uwTick;
  69:HAL_Lib/STM32H7xx_HAL_Driver/Src/stm32h7xx_hal.c **** uint32_t uwTickPrio = (1UL << __NVIC_PRIO_BITS);        /* Invalid PRIO */
  70:HAL_Lib/STM32H7xx_HAL_Driver/Src/stm32h7xx_hal.c **** HAL_TickFreqTypeDef uwTickFreq = HAL_TICK_FREQ_DEFAULT; /* 1KHz */
  71:HAL_Lib/STM32H7xx_HAL_Driver/Src/stm32h7xx_hal.c **** /**
  72:HAL_Lib/STM32H7xx_HAL_Driver/Src/stm32h7xx_hal.c ****  * @}
  73:HAL_Lib/STM32H7xx_HAL_Driver/Src/stm32h7xx_hal.c ****  */
  74:HAL_Lib/STM32H7xx_HAL_Driver/Src/stm32h7xx_hal.c **** 
  75:HAL_Lib/STM32H7xx_HAL_Driver/Src/stm32h7xx_hal.c **** /* Private function prototypes -----------------------------------------------*/
  76:HAL_Lib/STM32H7xx_HAL_Driver/Src/stm32h7xx_hal.c **** /* Private functions ---------------------------------------------------------*/
  77:HAL_Lib/STM32H7xx_HAL_Driver/Src/stm32h7xx_hal.c **** 
  78:HAL_Lib/STM32H7xx_HAL_Driver/Src/stm32h7xx_hal.c **** /** @defgroup HAL_Private_Functions  HAL Private Functions
  79:HAL_Lib/STM32H7xx_HAL_Driver/Src/stm32h7xx_hal.c ****  * @{
  80:HAL_Lib/STM32H7xx_HAL_Driver/Src/stm32h7xx_hal.c ****  */
  81:HAL_Lib/STM32H7xx_HAL_Driver/Src/stm32h7xx_hal.c **** 
  82:HAL_Lib/STM32H7xx_HAL_Driver/Src/stm32h7xx_hal.c **** /** @defgroup HAL_Group1 Initialization and de-initialization Functions
  83:HAL_Lib/STM32H7xx_HAL_Driver/Src/stm32h7xx_hal.c ****  *  @brief    Initialization and de-initialization functions
  84:HAL_Lib/STM32H7xx_HAL_Driver/Src/stm32h7xx_hal.c ****  *
  85:HAL_Lib/STM32H7xx_HAL_Driver/Src/stm32h7xx_hal.c **** @verbatim
  86:HAL_Lib/STM32H7xx_HAL_Driver/Src/stm32h7xx_hal.c ****  ===============================================================================
  87:HAL_Lib/STM32H7xx_HAL_Driver/Src/stm32h7xx_hal.c ****               ##### Initialization and de-initialization functions #####
  88:HAL_Lib/STM32H7xx_HAL_Driver/Src/stm32h7xx_hal.c ****  ===============================================================================
ARM GAS  C:\Users\HUAV\AppData\Local\Temp\ccTib3Ek.s 			page 3


  89:HAL_Lib/STM32H7xx_HAL_Driver/Src/stm32h7xx_hal.c ****     [..]  This section provides functions allowing to:
  90:HAL_Lib/STM32H7xx_HAL_Driver/Src/stm32h7xx_hal.c ****       (+) Initializes the Flash interface the NVIC allocation and initial clock
  91:HAL_Lib/STM32H7xx_HAL_Driver/Src/stm32h7xx_hal.c ****           configuration. It initializes the systick also when timeout is needed
  92:HAL_Lib/STM32H7xx_HAL_Driver/Src/stm32h7xx_hal.c ****           and the backup domain when enabled.
  93:HAL_Lib/STM32H7xx_HAL_Driver/Src/stm32h7xx_hal.c ****       (+) De-Initializes common part of the HAL.
  94:HAL_Lib/STM32H7xx_HAL_Driver/Src/stm32h7xx_hal.c ****       (+) Configure The time base source to have 1ms time base with a dedicated
  95:HAL_Lib/STM32H7xx_HAL_Driver/Src/stm32h7xx_hal.c ****           Tick interrupt priority.
  96:HAL_Lib/STM32H7xx_HAL_Driver/Src/stm32h7xx_hal.c ****         (++) SysTick timer is used by default as source of time base, but user
  97:HAL_Lib/STM32H7xx_HAL_Driver/Src/stm32h7xx_hal.c ****              can eventually implement his proper time base source (a general purpose
  98:HAL_Lib/STM32H7xx_HAL_Driver/Src/stm32h7xx_hal.c ****              timer for example or other time source), keeping in mind that Time base
  99:HAL_Lib/STM32H7xx_HAL_Driver/Src/stm32h7xx_hal.c ****              duration should be kept 1ms since PPP_TIMEOUT_VALUEs are defined and
 100:HAL_Lib/STM32H7xx_HAL_Driver/Src/stm32h7xx_hal.c ****              handled in milliseconds basis.
 101:HAL_Lib/STM32H7xx_HAL_Driver/Src/stm32h7xx_hal.c ****         (++) Time base configuration function (HAL_InitTick ()) is called automatically
 102:HAL_Lib/STM32H7xx_HAL_Driver/Src/stm32h7xx_hal.c ****              at the beginning of the program after reset by HAL_Init() or at any time
 103:HAL_Lib/STM32H7xx_HAL_Driver/Src/stm32h7xx_hal.c ****              when clock is configured, by HAL_RCC_ClockConfig().
 104:HAL_Lib/STM32H7xx_HAL_Driver/Src/stm32h7xx_hal.c ****         (++) Source of time base is configured  to generate interrupts at regular
 105:HAL_Lib/STM32H7xx_HAL_Driver/Src/stm32h7xx_hal.c ****              time intervals. Care must be taken if HAL_Delay() is called from a
 106:HAL_Lib/STM32H7xx_HAL_Driver/Src/stm32h7xx_hal.c ****              peripheral ISR process, the Tick interrupt line must have higher priority
 107:HAL_Lib/STM32H7xx_HAL_Driver/Src/stm32h7xx_hal.c ****             (numerically lower) than the peripheral interrupt. Otherwise the caller
 108:HAL_Lib/STM32H7xx_HAL_Driver/Src/stm32h7xx_hal.c ****             ISR process will be blocked.
 109:HAL_Lib/STM32H7xx_HAL_Driver/Src/stm32h7xx_hal.c ****        (++) functions affecting time base configurations are declared as __weak
 110:HAL_Lib/STM32H7xx_HAL_Driver/Src/stm32h7xx_hal.c ****              to make  override possible  in case of other  implementations in user file.
 111:HAL_Lib/STM32H7xx_HAL_Driver/Src/stm32h7xx_hal.c **** @endverbatim
 112:HAL_Lib/STM32H7xx_HAL_Driver/Src/stm32h7xx_hal.c ****   * @{
 113:HAL_Lib/STM32H7xx_HAL_Driver/Src/stm32h7xx_hal.c ****   */
 114:HAL_Lib/STM32H7xx_HAL_Driver/Src/stm32h7xx_hal.c **** 
 115:HAL_Lib/STM32H7xx_HAL_Driver/Src/stm32h7xx_hal.c **** /**
 116:HAL_Lib/STM32H7xx_HAL_Driver/Src/stm32h7xx_hal.c ****  * @brief  This function is used to initialize the HAL Library; it must be the first
 117:HAL_Lib/STM32H7xx_HAL_Driver/Src/stm32h7xx_hal.c ****  *         instruction to be executed in the main program (before to call any other
 118:HAL_Lib/STM32H7xx_HAL_Driver/Src/stm32h7xx_hal.c ****  *         HAL function), it performs the following:
 119:HAL_Lib/STM32H7xx_HAL_Driver/Src/stm32h7xx_hal.c ****  *           Configures the SysTick to generate an interrupt each 1 millisecond,
 120:HAL_Lib/STM32H7xx_HAL_Driver/Src/stm32h7xx_hal.c ****  *           which is clocked by the HSI (at this stage, the clock is not yet
 121:HAL_Lib/STM32H7xx_HAL_Driver/Src/stm32h7xx_hal.c ****  *           configured and thus the system is running from the internal HSI at 16 MHz).
 122:HAL_Lib/STM32H7xx_HAL_Driver/Src/stm32h7xx_hal.c ****  *           Set NVIC Group Priority to 4.
 123:HAL_Lib/STM32H7xx_HAL_Driver/Src/stm32h7xx_hal.c ****  *           Calls the HAL_MspInit() callback function defined in user file
 124:HAL_Lib/STM32H7xx_HAL_Driver/Src/stm32h7xx_hal.c ****  *           "stm32h7xx_hal_msp.c" to do the global low level hardware initialization
 125:HAL_Lib/STM32H7xx_HAL_Driver/Src/stm32h7xx_hal.c ****  *
 126:HAL_Lib/STM32H7xx_HAL_Driver/Src/stm32h7xx_hal.c ****  * @note   SysTick is used as time base for the HAL_Delay() function, the application
 127:HAL_Lib/STM32H7xx_HAL_Driver/Src/stm32h7xx_hal.c ****  *         need to ensure that the SysTick time base is always set to 1 millisecond
 128:HAL_Lib/STM32H7xx_HAL_Driver/Src/stm32h7xx_hal.c ****  *         to have correct HAL operation.
 129:HAL_Lib/STM32H7xx_HAL_Driver/Src/stm32h7xx_hal.c ****  * @retval HAL status
 130:HAL_Lib/STM32H7xx_HAL_Driver/Src/stm32h7xx_hal.c ****  */
 131:HAL_Lib/STM32H7xx_HAL_Driver/Src/stm32h7xx_hal.c **** HAL_StatusTypeDef HAL_Init(void)
 132:HAL_Lib/STM32H7xx_HAL_Driver/Src/stm32h7xx_hal.c **** {
 133:HAL_Lib/STM32H7xx_HAL_Driver/Src/stm32h7xx_hal.c **** 
 134:HAL_Lib/STM32H7xx_HAL_Driver/Src/stm32h7xx_hal.c ****   uint32_t common_system_clock;
 135:HAL_Lib/STM32H7xx_HAL_Driver/Src/stm32h7xx_hal.c **** 
 136:HAL_Lib/STM32H7xx_HAL_Driver/Src/stm32h7xx_hal.c **** #if defined(DUAL_CORE) && defined(CORE_CM4)
 137:HAL_Lib/STM32H7xx_HAL_Driver/Src/stm32h7xx_hal.c ****   /* Configure Cortex-M4 Instruction cache through ART accelerator */
 138:HAL_Lib/STM32H7xx_HAL_Driver/Src/stm32h7xx_hal.c ****   __HAL_RCC_ART_CLK_ENABLE();                  /* Enable the Cortex-M4 ART Clock */
 139:HAL_Lib/STM32H7xx_HAL_Driver/Src/stm32h7xx_hal.c ****   __HAL_ART_CONFIG_BASE_ADDRESS(0x08100000UL); /* Configure the Cortex-M4 ART Base address to the F
 140:HAL_Lib/STM32H7xx_HAL_Driver/Src/stm32h7xx_hal.c ****   __HAL_ART_ENABLE();                          /* Enable the Cortex-M4 ART */
 141:HAL_Lib/STM32H7xx_HAL_Driver/Src/stm32h7xx_hal.c **** #endif                                         /* DUAL_CORE &&  CORE_CM4 */
 142:HAL_Lib/STM32H7xx_HAL_Driver/Src/stm32h7xx_hal.c **** 
 143:HAL_Lib/STM32H7xx_HAL_Driver/Src/stm32h7xx_hal.c ****   /* Set Interrupt Group Priority */
 144:HAL_Lib/STM32H7xx_HAL_Driver/Src/stm32h7xx_hal.c ****   HAL_NVIC_SetPriorityGrouping(NVIC_PRIORITYGROUP_4);
 145:HAL_Lib/STM32H7xx_HAL_Driver/Src/stm32h7xx_hal.c **** 
ARM GAS  C:\Users\HUAV\AppData\Local\Temp\ccTib3Ek.s 			page 4


 146:HAL_Lib/STM32H7xx_HAL_Driver/Src/stm32h7xx_hal.c ****   /* Update the SystemCoreClock global variable */
 147:HAL_Lib/STM32H7xx_HAL_Driver/Src/stm32h7xx_hal.c **** #if defined(RCC_D1CFGR_D1CPRE)
 148:HAL_Lib/STM32H7xx_HAL_Driver/Src/stm32h7xx_hal.c ****   common_system_clock = HAL_RCC_GetSysClockFreq() >> ((D1CorePrescTable[(RCC->D1CFGR & RCC_D1CFGR_D
 149:HAL_Lib/STM32H7xx_HAL_Driver/Src/stm32h7xx_hal.c **** #else
 150:HAL_Lib/STM32H7xx_HAL_Driver/Src/stm32h7xx_hal.c ****   common_system_clock = HAL_RCC_GetSysClockFreq() >> ((D1CorePrescTable[(RCC->CDCFGR1 & RCC_CDCFGR1
 151:HAL_Lib/STM32H7xx_HAL_Driver/Src/stm32h7xx_hal.c **** #endif
 152:HAL_Lib/STM32H7xx_HAL_Driver/Src/stm32h7xx_hal.c **** 
 153:HAL_Lib/STM32H7xx_HAL_Driver/Src/stm32h7xx_hal.c ****   /* Update the SystemD2Clock global variable */
 154:HAL_Lib/STM32H7xx_HAL_Driver/Src/stm32h7xx_hal.c **** #if defined(RCC_D1CFGR_HPRE)
 155:HAL_Lib/STM32H7xx_HAL_Driver/Src/stm32h7xx_hal.c ****   SystemD2Clock = (common_system_clock >> ((D1CorePrescTable[(RCC->D1CFGR & RCC_D1CFGR_HPRE) >> RCC
 156:HAL_Lib/STM32H7xx_HAL_Driver/Src/stm32h7xx_hal.c **** #else
 157:HAL_Lib/STM32H7xx_HAL_Driver/Src/stm32h7xx_hal.c ****   SystemD2Clock = (common_system_clock >> ((D1CorePrescTable[(RCC->CDCFGR1 & RCC_CDCFGR1_HPRE) >> R
 158:HAL_Lib/STM32H7xx_HAL_Driver/Src/stm32h7xx_hal.c **** #endif
 159:HAL_Lib/STM32H7xx_HAL_Driver/Src/stm32h7xx_hal.c **** 
 160:HAL_Lib/STM32H7xx_HAL_Driver/Src/stm32h7xx_hal.c **** #if defined(DUAL_CORE) && defined(CORE_CM4)
 161:HAL_Lib/STM32H7xx_HAL_Driver/Src/stm32h7xx_hal.c ****   SystemCoreClock = SystemD2Clock;
 162:HAL_Lib/STM32H7xx_HAL_Driver/Src/stm32h7xx_hal.c **** #else
 163:HAL_Lib/STM32H7xx_HAL_Driver/Src/stm32h7xx_hal.c ****   SystemCoreClock = common_system_clock;
 164:HAL_Lib/STM32H7xx_HAL_Driver/Src/stm32h7xx_hal.c **** #endif /* DUAL_CORE && CORE_CM4 */
 165:HAL_Lib/STM32H7xx_HAL_Driver/Src/stm32h7xx_hal.c **** 
 166:HAL_Lib/STM32H7xx_HAL_Driver/Src/stm32h7xx_hal.c ****   /* Use systick as time base source and configure 1ms tick (default clock after Reset is HSI) */
 167:HAL_Lib/STM32H7xx_HAL_Driver/Src/stm32h7xx_hal.c ****   if (HAL_InitTick(TICK_INT_PRIORITY) != HAL_OK)
 168:HAL_Lib/STM32H7xx_HAL_Driver/Src/stm32h7xx_hal.c ****   {
 169:HAL_Lib/STM32H7xx_HAL_Driver/Src/stm32h7xx_hal.c ****     return HAL_ERROR;
 170:HAL_Lib/STM32H7xx_HAL_Driver/Src/stm32h7xx_hal.c ****   }
 171:HAL_Lib/STM32H7xx_HAL_Driver/Src/stm32h7xx_hal.c **** 
 172:HAL_Lib/STM32H7xx_HAL_Driver/Src/stm32h7xx_hal.c ****   /* Init the low level hardware */
 173:HAL_Lib/STM32H7xx_HAL_Driver/Src/stm32h7xx_hal.c ****   HAL_MspInit();
 174:HAL_Lib/STM32H7xx_HAL_Driver/Src/stm32h7xx_hal.c **** 
 175:HAL_Lib/STM32H7xx_HAL_Driver/Src/stm32h7xx_hal.c ****   /* Return function status */
 176:HAL_Lib/STM32H7xx_HAL_Driver/Src/stm32h7xx_hal.c ****   return HAL_OK;
 177:HAL_Lib/STM32H7xx_HAL_Driver/Src/stm32h7xx_hal.c **** }
 178:HAL_Lib/STM32H7xx_HAL_Driver/Src/stm32h7xx_hal.c **** 
 179:HAL_Lib/STM32H7xx_HAL_Driver/Src/stm32h7xx_hal.c **** /**
 180:HAL_Lib/STM32H7xx_HAL_Driver/Src/stm32h7xx_hal.c ****  * @brief  This function de-Initializes common part of the HAL and stops the systick.
 181:HAL_Lib/STM32H7xx_HAL_Driver/Src/stm32h7xx_hal.c ****  *         This function is optional.
 182:HAL_Lib/STM32H7xx_HAL_Driver/Src/stm32h7xx_hal.c ****  * @retval HAL status
 183:HAL_Lib/STM32H7xx_HAL_Driver/Src/stm32h7xx_hal.c ****  */
 184:HAL_Lib/STM32H7xx_HAL_Driver/Src/stm32h7xx_hal.c **** HAL_StatusTypeDef HAL_DeInit(void)
 185:HAL_Lib/STM32H7xx_HAL_Driver/Src/stm32h7xx_hal.c **** {
 186:HAL_Lib/STM32H7xx_HAL_Driver/Src/stm32h7xx_hal.c ****   /* Reset of all peripherals */
 187:HAL_Lib/STM32H7xx_HAL_Driver/Src/stm32h7xx_hal.c ****   __HAL_RCC_AHB3_FORCE_RESET();
 188:HAL_Lib/STM32H7xx_HAL_Driver/Src/stm32h7xx_hal.c ****   __HAL_RCC_AHB3_RELEASE_RESET();
 189:HAL_Lib/STM32H7xx_HAL_Driver/Src/stm32h7xx_hal.c **** 
 190:HAL_Lib/STM32H7xx_HAL_Driver/Src/stm32h7xx_hal.c ****   __HAL_RCC_AHB1_FORCE_RESET();
 191:HAL_Lib/STM32H7xx_HAL_Driver/Src/stm32h7xx_hal.c ****   __HAL_RCC_AHB1_RELEASE_RESET();
 192:HAL_Lib/STM32H7xx_HAL_Driver/Src/stm32h7xx_hal.c **** 
 193:HAL_Lib/STM32H7xx_HAL_Driver/Src/stm32h7xx_hal.c ****   __HAL_RCC_AHB2_FORCE_RESET();
 194:HAL_Lib/STM32H7xx_HAL_Driver/Src/stm32h7xx_hal.c ****   __HAL_RCC_AHB2_RELEASE_RESET();
 195:HAL_Lib/STM32H7xx_HAL_Driver/Src/stm32h7xx_hal.c **** 
 196:HAL_Lib/STM32H7xx_HAL_Driver/Src/stm32h7xx_hal.c ****   __HAL_RCC_AHB4_FORCE_RESET();
 197:HAL_Lib/STM32H7xx_HAL_Driver/Src/stm32h7xx_hal.c ****   __HAL_RCC_AHB4_RELEASE_RESET();
 198:HAL_Lib/STM32H7xx_HAL_Driver/Src/stm32h7xx_hal.c **** 
 199:HAL_Lib/STM32H7xx_HAL_Driver/Src/stm32h7xx_hal.c ****   __HAL_RCC_APB3_FORCE_RESET();
 200:HAL_Lib/STM32H7xx_HAL_Driver/Src/stm32h7xx_hal.c ****   __HAL_RCC_APB3_RELEASE_RESET();
 201:HAL_Lib/STM32H7xx_HAL_Driver/Src/stm32h7xx_hal.c **** 
 202:HAL_Lib/STM32H7xx_HAL_Driver/Src/stm32h7xx_hal.c ****   __HAL_RCC_APB1L_FORCE_RESET();
ARM GAS  C:\Users\HUAV\AppData\Local\Temp\ccTib3Ek.s 			page 5


 203:HAL_Lib/STM32H7xx_HAL_Driver/Src/stm32h7xx_hal.c ****   __HAL_RCC_APB1L_RELEASE_RESET();
 204:HAL_Lib/STM32H7xx_HAL_Driver/Src/stm32h7xx_hal.c **** 
 205:HAL_Lib/STM32H7xx_HAL_Driver/Src/stm32h7xx_hal.c ****   __HAL_RCC_APB1H_FORCE_RESET();
 206:HAL_Lib/STM32H7xx_HAL_Driver/Src/stm32h7xx_hal.c ****   __HAL_RCC_APB1H_RELEASE_RESET();
 207:HAL_Lib/STM32H7xx_HAL_Driver/Src/stm32h7xx_hal.c **** 
 208:HAL_Lib/STM32H7xx_HAL_Driver/Src/stm32h7xx_hal.c ****   __HAL_RCC_APB2_FORCE_RESET();
 209:HAL_Lib/STM32H7xx_HAL_Driver/Src/stm32h7xx_hal.c ****   __HAL_RCC_APB2_RELEASE_RESET();
 210:HAL_Lib/STM32H7xx_HAL_Driver/Src/stm32h7xx_hal.c **** 
 211:HAL_Lib/STM32H7xx_HAL_Driver/Src/stm32h7xx_hal.c ****   __HAL_RCC_APB4_FORCE_RESET();
 212:HAL_Lib/STM32H7xx_HAL_Driver/Src/stm32h7xx_hal.c ****   __HAL_RCC_APB4_RELEASE_RESET();
 213:HAL_Lib/STM32H7xx_HAL_Driver/Src/stm32h7xx_hal.c **** 
 214:HAL_Lib/STM32H7xx_HAL_Driver/Src/stm32h7xx_hal.c ****   /* De-Init the low level hardware */
 215:HAL_Lib/STM32H7xx_HAL_Driver/Src/stm32h7xx_hal.c ****   HAL_MspDeInit();
 216:HAL_Lib/STM32H7xx_HAL_Driver/Src/stm32h7xx_hal.c **** 
 217:HAL_Lib/STM32H7xx_HAL_Driver/Src/stm32h7xx_hal.c ****   /* Return function status */
 218:HAL_Lib/STM32H7xx_HAL_Driver/Src/stm32h7xx_hal.c ****   return HAL_OK;
 219:HAL_Lib/STM32H7xx_HAL_Driver/Src/stm32h7xx_hal.c **** }
 220:HAL_Lib/STM32H7xx_HAL_Driver/Src/stm32h7xx_hal.c **** 
 221:HAL_Lib/STM32H7xx_HAL_Driver/Src/stm32h7xx_hal.c **** /**
 222:HAL_Lib/STM32H7xx_HAL_Driver/Src/stm32h7xx_hal.c ****  * @brief  Initializes the MSP.
 223:HAL_Lib/STM32H7xx_HAL_Driver/Src/stm32h7xx_hal.c ****  * @retval None
 224:HAL_Lib/STM32H7xx_HAL_Driver/Src/stm32h7xx_hal.c ****  */
 225:HAL_Lib/STM32H7xx_HAL_Driver/Src/stm32h7xx_hal.c **** __weak void HAL_MspInit(void)
 226:HAL_Lib/STM32H7xx_HAL_Driver/Src/stm32h7xx_hal.c **** {
  28              		.loc 1 226 1 view -0
  29              		.cfi_startproc
  30              		@ args = 0, pretend = 0, frame = 0
  31              		@ frame_needed = 0, uses_anonymous_args = 0
  32              		@ link register save eliminated.
 227:HAL_Lib/STM32H7xx_HAL_Driver/Src/stm32h7xx_hal.c ****   /* NOTE : This function Should not be modified, when the callback is needed,
 228:HAL_Lib/STM32H7xx_HAL_Driver/Src/stm32h7xx_hal.c ****             the HAL_MspInit could be implemented in the user file
 229:HAL_Lib/STM32H7xx_HAL_Driver/Src/stm32h7xx_hal.c ****    */
 230:HAL_Lib/STM32H7xx_HAL_Driver/Src/stm32h7xx_hal.c **** }
  33              		.loc 1 230 1 view .LVU1
  34 0000 7047     		bx	lr
  35              		.cfi_endproc
  36              	.LFE146:
  38              		.section	.text.HAL_MspDeInit,"ax",%progbits
  39              		.align	1
  40              		.weak	HAL_MspDeInit
  41              		.syntax unified
  42              		.thumb
  43              		.thumb_func
  45              	HAL_MspDeInit:
  46              	.LFB147:
 231:HAL_Lib/STM32H7xx_HAL_Driver/Src/stm32h7xx_hal.c **** 
 232:HAL_Lib/STM32H7xx_HAL_Driver/Src/stm32h7xx_hal.c **** /**
 233:HAL_Lib/STM32H7xx_HAL_Driver/Src/stm32h7xx_hal.c ****  * @brief  DeInitializes the MSP.
 234:HAL_Lib/STM32H7xx_HAL_Driver/Src/stm32h7xx_hal.c ****  * @retval None
 235:HAL_Lib/STM32H7xx_HAL_Driver/Src/stm32h7xx_hal.c ****  */
 236:HAL_Lib/STM32H7xx_HAL_Driver/Src/stm32h7xx_hal.c **** __weak void HAL_MspDeInit(void)
 237:HAL_Lib/STM32H7xx_HAL_Driver/Src/stm32h7xx_hal.c **** {
  47              		.loc 1 237 1 view -0
  48              		.cfi_startproc
  49              		@ args = 0, pretend = 0, frame = 0
  50              		@ frame_needed = 0, uses_anonymous_args = 0
  51              		@ link register save eliminated.
ARM GAS  C:\Users\HUAV\AppData\Local\Temp\ccTib3Ek.s 			page 6


 238:HAL_Lib/STM32H7xx_HAL_Driver/Src/stm32h7xx_hal.c ****   /* NOTE : This function Should not be modified, when the callback is needed,
 239:HAL_Lib/STM32H7xx_HAL_Driver/Src/stm32h7xx_hal.c ****             the HAL_MspDeInit could be implemented in the user file
 240:HAL_Lib/STM32H7xx_HAL_Driver/Src/stm32h7xx_hal.c ****    */
 241:HAL_Lib/STM32H7xx_HAL_Driver/Src/stm32h7xx_hal.c **** }
  52              		.loc 1 241 1 view .LVU3
  53 0000 7047     		bx	lr
  54              		.cfi_endproc
  55              	.LFE147:
  57              		.section	.text.HAL_DeInit,"ax",%progbits
  58              		.align	1
  59              		.global	HAL_DeInit
  60              		.syntax unified
  61              		.thumb
  62              		.thumb_func
  64              	HAL_DeInit:
  65              	.LFB145:
 185:HAL_Lib/STM32H7xx_HAL_Driver/Src/stm32h7xx_hal.c ****   /* Reset of all peripherals */
  66              		.loc 1 185 1 view -0
  67              		.cfi_startproc
  68              		@ args = 0, pretend = 0, frame = 0
  69              		@ frame_needed = 0, uses_anonymous_args = 0
  70 0000 10B5     		push	{r4, lr}
  71              	.LCFI0:
  72              		.cfi_def_cfa_offset 8
  73              		.cfi_offset 4, -8
  74              		.cfi_offset 14, -4
 187:HAL_Lib/STM32H7xx_HAL_Driver/Src/stm32h7xx_hal.c ****   __HAL_RCC_AHB3_RELEASE_RESET();
  75              		.loc 1 187 3 view .LVU5
  76 0002 194B     		ldr	r3, .L5
  77 0004 194A     		ldr	r2, .L5+4
  78 0006 DA67     		str	r2, [r3, #124]
 188:HAL_Lib/STM32H7xx_HAL_Driver/Src/stm32h7xx_hal.c **** 
  79              		.loc 1 188 3 view .LVU6
  80 0008 0024     		movs	r4, #0
  81 000a DC67     		str	r4, [r3, #124]
 190:HAL_Lib/STM32H7xx_HAL_Driver/Src/stm32h7xx_hal.c ****   __HAL_RCC_AHB1_RELEASE_RESET();
  82              		.loc 1 190 3 view .LVU7
  83 000c 184A     		ldr	r2, .L5+8
  84 000e C3F88020 		str	r2, [r3, #128]
 191:HAL_Lib/STM32H7xx_HAL_Driver/Src/stm32h7xx_hal.c **** 
  85              		.loc 1 191 3 view .LVU8
  86 0012 C3F88040 		str	r4, [r3, #128]
 193:HAL_Lib/STM32H7xx_HAL_Driver/Src/stm32h7xx_hal.c ****   __HAL_RCC_AHB2_RELEASE_RESET();
  87              		.loc 1 193 3 view .LVU9
  88 0016 40F27122 		movw	r2, #625
  89 001a C3F88420 		str	r2, [r3, #132]
 194:HAL_Lib/STM32H7xx_HAL_Driver/Src/stm32h7xx_hal.c **** 
  90              		.loc 1 194 3 view .LVU10
  91 001e C3F88440 		str	r4, [r3, #132]
 196:HAL_Lib/STM32H7xx_HAL_Driver/Src/stm32h7xx_hal.c ****   __HAL_RCC_AHB4_RELEASE_RESET();
  92              		.loc 1 196 3 view .LVU11
  93 0022 144A     		ldr	r2, .L5+12
  94 0024 C3F88820 		str	r2, [r3, #136]
 197:HAL_Lib/STM32H7xx_HAL_Driver/Src/stm32h7xx_hal.c **** 
  95              		.loc 1 197 3 view .LVU12
  96 0028 C3F88840 		str	r4, [r3, #136]
 199:HAL_Lib/STM32H7xx_HAL_Driver/Src/stm32h7xx_hal.c ****   __HAL_RCC_APB3_RELEASE_RESET();
ARM GAS  C:\Users\HUAV\AppData\Local\Temp\ccTib3Ek.s 			page 7


  97              		.loc 1 199 3 view .LVU13
  98 002c 1822     		movs	r2, #24
  99 002e C3F88C20 		str	r2, [r3, #140]
 200:HAL_Lib/STM32H7xx_HAL_Driver/Src/stm32h7xx_hal.c **** 
 100              		.loc 1 200 3 view .LVU14
 101 0032 C3F88C40 		str	r4, [r3, #140]
 202:HAL_Lib/STM32H7xx_HAL_Driver/Src/stm32h7xx_hal.c ****   __HAL_RCC_APB1L_RELEASE_RESET();
 102              		.loc 1 202 3 view .LVU15
 103 0036 104A     		ldr	r2, .L5+16
 104 0038 C3F89020 		str	r2, [r3, #144]
 203:HAL_Lib/STM32H7xx_HAL_Driver/Src/stm32h7xx_hal.c **** 
 105              		.loc 1 203 3 view .LVU16
 106 003c C3F89040 		str	r4, [r3, #144]
 205:HAL_Lib/STM32H7xx_HAL_Driver/Src/stm32h7xx_hal.c ****   __HAL_RCC_APB1H_RELEASE_RESET();
 107              		.loc 1 205 3 view .LVU17
 108 0040 4FF49B72 		mov	r2, #310
 109 0044 C3F89420 		str	r2, [r3, #148]
 206:HAL_Lib/STM32H7xx_HAL_Driver/Src/stm32h7xx_hal.c **** 
 110              		.loc 1 206 3 view .LVU18
 111 0048 C3F89440 		str	r4, [r3, #148]
 208:HAL_Lib/STM32H7xx_HAL_Driver/Src/stm32h7xx_hal.c ****   __HAL_RCC_APB2_RELEASE_RESET();
 112              		.loc 1 208 3 view .LVU19
 113 004c 0B4A     		ldr	r2, .L5+20
 114 004e C3F89820 		str	r2, [r3, #152]
 209:HAL_Lib/STM32H7xx_HAL_Driver/Src/stm32h7xx_hal.c **** 
 115              		.loc 1 209 3 view .LVU20
 116 0052 C3F89840 		str	r4, [r3, #152]
 211:HAL_Lib/STM32H7xx_HAL_Driver/Src/stm32h7xx_hal.c ****   __HAL_RCC_APB4_RELEASE_RESET();
 117              		.loc 1 211 3 view .LVU21
 118 0056 0A4A     		ldr	r2, .L5+24
 119 0058 C3F89C20 		str	r2, [r3, #156]
 212:HAL_Lib/STM32H7xx_HAL_Driver/Src/stm32h7xx_hal.c **** 
 120              		.loc 1 212 3 view .LVU22
 121 005c C3F89C40 		str	r4, [r3, #156]
 215:HAL_Lib/STM32H7xx_HAL_Driver/Src/stm32h7xx_hal.c **** 
 122              		.loc 1 215 3 view .LVU23
 123 0060 FFF7FEFF 		bl	HAL_MspDeInit
 124              	.LVL0:
 218:HAL_Lib/STM32H7xx_HAL_Driver/Src/stm32h7xx_hal.c **** }
 125              		.loc 1 218 3 view .LVU24
 219:HAL_Lib/STM32H7xx_HAL_Driver/Src/stm32h7xx_hal.c **** 
 126              		.loc 1 219 1 is_stmt 0 view .LVU25
 127 0064 2046     		mov	r0, r4
 128 0066 10BD     		pop	{r4, pc}
 129              	.L6:
 130              		.align	2
 131              	.L5:
 132 0068 00440258 		.word	1476543488
 133 006c 31500100 		.word	86065
 134 0070 23C0000A 		.word	167821347
 135 0074 FF072803 		.word	52955135
 136 0078 FFC3FFE8 		.word	-385891329
 137 007c 3330D731 		.word	836186163
 138 0080 AADE2000 		.word	2154154
 139              		.cfi_endproc
 140              	.LFE145:
 142              		.section	.text.HAL_InitTick,"ax",%progbits
ARM GAS  C:\Users\HUAV\AppData\Local\Temp\ccTib3Ek.s 			page 8


 143              		.align	1
 144              		.weak	HAL_InitTick
 145              		.syntax unified
 146              		.thumb
 147              		.thumb_func
 149              	HAL_InitTick:
 150              	.LVL1:
 151              	.LFB148:
 242:HAL_Lib/STM32H7xx_HAL_Driver/Src/stm32h7xx_hal.c **** 
 243:HAL_Lib/STM32H7xx_HAL_Driver/Src/stm32h7xx_hal.c **** /**
 244:HAL_Lib/STM32H7xx_HAL_Driver/Src/stm32h7xx_hal.c ****  * @brief This function configures the source of the time base.
 245:HAL_Lib/STM32H7xx_HAL_Driver/Src/stm32h7xx_hal.c ****  *        The time source is configured  to have 1ms time base with a dedicated
 246:HAL_Lib/STM32H7xx_HAL_Driver/Src/stm32h7xx_hal.c ****  *        Tick interrupt priority.
 247:HAL_Lib/STM32H7xx_HAL_Driver/Src/stm32h7xx_hal.c ****  * @note This function is called  automatically at the beginning of program after
 248:HAL_Lib/STM32H7xx_HAL_Driver/Src/stm32h7xx_hal.c ****  *       reset by HAL_Init() or at any time when clock is reconfigured  by HAL_RCC_ClockConfig().
 249:HAL_Lib/STM32H7xx_HAL_Driver/Src/stm32h7xx_hal.c ****  * @note In the default implementation, SysTick timer is the source of time base.
 250:HAL_Lib/STM32H7xx_HAL_Driver/Src/stm32h7xx_hal.c ****  *       It is used to generate interrupts at regular time intervals.
 251:HAL_Lib/STM32H7xx_HAL_Driver/Src/stm32h7xx_hal.c ****  *       Care must be taken if HAL_Delay() is called from a peripheral ISR process,
 252:HAL_Lib/STM32H7xx_HAL_Driver/Src/stm32h7xx_hal.c ****  *       The the SysTick interrupt must have higher priority (numerically lower)
 253:HAL_Lib/STM32H7xx_HAL_Driver/Src/stm32h7xx_hal.c ****  *       than the peripheral interrupt. Otherwise the caller ISR process will be blocked.
 254:HAL_Lib/STM32H7xx_HAL_Driver/Src/stm32h7xx_hal.c ****  *       The function is declared as __weak  to be overwritten  in case of other
 255:HAL_Lib/STM32H7xx_HAL_Driver/Src/stm32h7xx_hal.c ****  *       implementation  in user file.
 256:HAL_Lib/STM32H7xx_HAL_Driver/Src/stm32h7xx_hal.c ****  * @param TickPriority: Tick interrupt priority.
 257:HAL_Lib/STM32H7xx_HAL_Driver/Src/stm32h7xx_hal.c ****  * @retval HAL status
 258:HAL_Lib/STM32H7xx_HAL_Driver/Src/stm32h7xx_hal.c ****  */
 259:HAL_Lib/STM32H7xx_HAL_Driver/Src/stm32h7xx_hal.c **** __weak HAL_StatusTypeDef HAL_InitTick(uint32_t TickPriority)
 260:HAL_Lib/STM32H7xx_HAL_Driver/Src/stm32h7xx_hal.c **** {
 152              		.loc 1 260 1 is_stmt 1 view -0
 153              		.cfi_startproc
 154              		@ args = 0, pretend = 0, frame = 0
 155              		@ frame_needed = 0, uses_anonymous_args = 0
 261:HAL_Lib/STM32H7xx_HAL_Driver/Src/stm32h7xx_hal.c ****   /* Check uwTickFreq for MisraC 2012 (even if uwTickFreq is a enum type that don't take the value 
 262:HAL_Lib/STM32H7xx_HAL_Driver/Src/stm32h7xx_hal.c ****   if ((uint32_t)uwTickFreq == 0UL)
 156              		.loc 1 262 3 view .LVU27
 157              		.loc 1 262 28 is_stmt 0 view .LVU28
 158 0000 104B     		ldr	r3, .L18
 159 0002 1B78     		ldrb	r3, [r3]	@ zero_extendqisi2
 160              		.loc 1 262 6 view .LVU29
 161 0004 0BB9     		cbnz	r3, .L16
 263:HAL_Lib/STM32H7xx_HAL_Driver/Src/stm32h7xx_hal.c ****   {
 264:HAL_Lib/STM32H7xx_HAL_Driver/Src/stm32h7xx_hal.c ****     return HAL_ERROR;
 162              		.loc 1 264 12 view .LVU30
 163 0006 0120     		movs	r0, #1
 164              	.LVL2:
 265:HAL_Lib/STM32H7xx_HAL_Driver/Src/stm32h7xx_hal.c ****   }
 266:HAL_Lib/STM32H7xx_HAL_Driver/Src/stm32h7xx_hal.c **** 
 267:HAL_Lib/STM32H7xx_HAL_Driver/Src/stm32h7xx_hal.c ****   /* Configure the SysTick to have interrupt in 1ms time basis*/
 268:HAL_Lib/STM32H7xx_HAL_Driver/Src/stm32h7xx_hal.c ****   if (HAL_SYSTICK_Config(SystemCoreClock / (1000UL / (uint32_t)uwTickFreq)) > 0U)
 269:HAL_Lib/STM32H7xx_HAL_Driver/Src/stm32h7xx_hal.c ****   {
 270:HAL_Lib/STM32H7xx_HAL_Driver/Src/stm32h7xx_hal.c ****     return HAL_ERROR;
 271:HAL_Lib/STM32H7xx_HAL_Driver/Src/stm32h7xx_hal.c ****   }
 272:HAL_Lib/STM32H7xx_HAL_Driver/Src/stm32h7xx_hal.c **** 
 273:HAL_Lib/STM32H7xx_HAL_Driver/Src/stm32h7xx_hal.c ****   /* Configure the SysTick IRQ priority */
 274:HAL_Lib/STM32H7xx_HAL_Driver/Src/stm32h7xx_hal.c ****   if (TickPriority < (1UL << __NVIC_PRIO_BITS))
 275:HAL_Lib/STM32H7xx_HAL_Driver/Src/stm32h7xx_hal.c ****   {
 276:HAL_Lib/STM32H7xx_HAL_Driver/Src/stm32h7xx_hal.c ****     HAL_NVIC_SetPriority(SysTick_IRQn, TickPriority, 0U);
 277:HAL_Lib/STM32H7xx_HAL_Driver/Src/stm32h7xx_hal.c ****     uwTickPrio = TickPriority;
ARM GAS  C:\Users\HUAV\AppData\Local\Temp\ccTib3Ek.s 			page 9


 278:HAL_Lib/STM32H7xx_HAL_Driver/Src/stm32h7xx_hal.c ****   }
 279:HAL_Lib/STM32H7xx_HAL_Driver/Src/stm32h7xx_hal.c ****   else
 280:HAL_Lib/STM32H7xx_HAL_Driver/Src/stm32h7xx_hal.c ****   {
 281:HAL_Lib/STM32H7xx_HAL_Driver/Src/stm32h7xx_hal.c ****     return HAL_ERROR;
 282:HAL_Lib/STM32H7xx_HAL_Driver/Src/stm32h7xx_hal.c ****   }
 283:HAL_Lib/STM32H7xx_HAL_Driver/Src/stm32h7xx_hal.c **** 
 284:HAL_Lib/STM32H7xx_HAL_Driver/Src/stm32h7xx_hal.c ****   /* Return function status */
 285:HAL_Lib/STM32H7xx_HAL_Driver/Src/stm32h7xx_hal.c ****   return HAL_OK;
 286:HAL_Lib/STM32H7xx_HAL_Driver/Src/stm32h7xx_hal.c **** }
 165              		.loc 1 286 1 view .LVU31
 166 0008 7047     		bx	lr
 167              	.LVL3:
 168              	.L16:
 260:HAL_Lib/STM32H7xx_HAL_Driver/Src/stm32h7xx_hal.c ****   /* Check uwTickFreq for MisraC 2012 (even if uwTickFreq is a enum type that don't take the value 
 169              		.loc 1 260 1 view .LVU32
 170 000a 10B5     		push	{r4, lr}
 171              	.LCFI1:
 172              		.cfi_def_cfa_offset 8
 173              		.cfi_offset 4, -8
 174              		.cfi_offset 14, -4
 175 000c 0446     		mov	r4, r0
 268:HAL_Lib/STM32H7xx_HAL_Driver/Src/stm32h7xx_hal.c ****   {
 176              		.loc 1 268 3 is_stmt 1 view .LVU33
 268:HAL_Lib/STM32H7xx_HAL_Driver/Src/stm32h7xx_hal.c ****   {
 177              		.loc 1 268 52 is_stmt 0 view .LVU34
 178 000e 4FF47A70 		mov	r0, #1000
 179              	.LVL4:
 268:HAL_Lib/STM32H7xx_HAL_Driver/Src/stm32h7xx_hal.c ****   {
 180              		.loc 1 268 52 view .LVU35
 181 0012 B0FBF3F3 		udiv	r3, r0, r3
 268:HAL_Lib/STM32H7xx_HAL_Driver/Src/stm32h7xx_hal.c ****   {
 182              		.loc 1 268 7 view .LVU36
 183 0016 0C4A     		ldr	r2, .L18+4
 184 0018 1068     		ldr	r0, [r2]
 185 001a B0FBF3F0 		udiv	r0, r0, r3
 186 001e FFF7FEFF 		bl	HAL_SYSTICK_Config
 187              	.LVL5:
 268:HAL_Lib/STM32H7xx_HAL_Driver/Src/stm32h7xx_hal.c ****   {
 188              		.loc 1 268 6 view .LVU37
 189 0022 68B9     		cbnz	r0, .L10
 274:HAL_Lib/STM32H7xx_HAL_Driver/Src/stm32h7xx_hal.c ****   {
 190              		.loc 1 274 3 is_stmt 1 view .LVU38
 274:HAL_Lib/STM32H7xx_HAL_Driver/Src/stm32h7xx_hal.c ****   {
 191              		.loc 1 274 6 is_stmt 0 view .LVU39
 192 0024 0F2C     		cmp	r4, #15
 193 0026 01D9     		bls	.L17
 281:HAL_Lib/STM32H7xx_HAL_Driver/Src/stm32h7xx_hal.c ****   }
 194              		.loc 1 281 12 view .LVU40
 195 0028 0120     		movs	r0, #1
 196 002a 0AE0     		b	.L8
 197              	.L17:
 276:HAL_Lib/STM32H7xx_HAL_Driver/Src/stm32h7xx_hal.c ****     uwTickPrio = TickPriority;
 198              		.loc 1 276 5 is_stmt 1 view .LVU41
 199 002c 0022     		movs	r2, #0
 200 002e 2146     		mov	r1, r4
 201 0030 4FF0FF30 		mov	r0, #-1
 202 0034 FFF7FEFF 		bl	HAL_NVIC_SetPriority
ARM GAS  C:\Users\HUAV\AppData\Local\Temp\ccTib3Ek.s 			page 10


 203              	.LVL6:
 277:HAL_Lib/STM32H7xx_HAL_Driver/Src/stm32h7xx_hal.c ****   }
 204              		.loc 1 277 5 view .LVU42
 277:HAL_Lib/STM32H7xx_HAL_Driver/Src/stm32h7xx_hal.c ****   }
 205              		.loc 1 277 16 is_stmt 0 view .LVU43
 206 0038 044B     		ldr	r3, .L18+8
 207 003a 1C60     		str	r4, [r3]
 285:HAL_Lib/STM32H7xx_HAL_Driver/Src/stm32h7xx_hal.c **** }
 208              		.loc 1 285 3 is_stmt 1 view .LVU44
 285:HAL_Lib/STM32H7xx_HAL_Driver/Src/stm32h7xx_hal.c **** }
 209              		.loc 1 285 10 is_stmt 0 view .LVU45
 210 003c 0020     		movs	r0, #0
 211 003e 00E0     		b	.L8
 212              	.L10:
 270:HAL_Lib/STM32H7xx_HAL_Driver/Src/stm32h7xx_hal.c ****   }
 213              		.loc 1 270 12 view .LVU46
 214 0040 0120     		movs	r0, #1
 215              	.L8:
 216              		.loc 1 286 1 view .LVU47
 217 0042 10BD     		pop	{r4, pc}
 218              	.LVL7:
 219              	.L19:
 220              		.loc 1 286 1 view .LVU48
 221              		.align	2
 222              	.L18:
 223 0044 00000000 		.word	.LANCHOR0
 224 0048 00000000 		.word	SystemCoreClock
 225 004c 00000000 		.word	.LANCHOR1
 226              		.cfi_endproc
 227              	.LFE148:
 229              		.section	.text.HAL_Init,"ax",%progbits
 230              		.align	1
 231              		.global	HAL_Init
 232              		.syntax unified
 233              		.thumb
 234              		.thumb_func
 236              	HAL_Init:
 237              	.LFB144:
 132:HAL_Lib/STM32H7xx_HAL_Driver/Src/stm32h7xx_hal.c **** 
 238              		.loc 1 132 1 is_stmt 1 view -0
 239              		.cfi_startproc
 240              		@ args = 0, pretend = 0, frame = 0
 241              		@ frame_needed = 0, uses_anonymous_args = 0
 242 0000 10B5     		push	{r4, lr}
 243              	.LCFI2:
 244              		.cfi_def_cfa_offset 8
 245              		.cfi_offset 4, -8
 246              		.cfi_offset 14, -4
 134:HAL_Lib/STM32H7xx_HAL_Driver/Src/stm32h7xx_hal.c **** 
 247              		.loc 1 134 3 view .LVU50
 144:HAL_Lib/STM32H7xx_HAL_Driver/Src/stm32h7xx_hal.c **** 
 248              		.loc 1 144 3 view .LVU51
 249 0002 0320     		movs	r0, #3
 250 0004 FFF7FEFF 		bl	HAL_NVIC_SetPriorityGrouping
 251              	.LVL8:
 148:HAL_Lib/STM32H7xx_HAL_Driver/Src/stm32h7xx_hal.c **** #else
 252              		.loc 1 148 3 view .LVU52
ARM GAS  C:\Users\HUAV\AppData\Local\Temp\ccTib3Ek.s 			page 11


 148:HAL_Lib/STM32H7xx_HAL_Driver/Src/stm32h7xx_hal.c **** #else
 253              		.loc 1 148 25 is_stmt 0 view .LVU53
 254 0008 FFF7FEFF 		bl	HAL_RCC_GetSysClockFreq
 255              	.LVL9:
 148:HAL_Lib/STM32H7xx_HAL_Driver/Src/stm32h7xx_hal.c **** #else
 256              		.loc 1 148 77 view .LVU54
 257 000c 0F49     		ldr	r1, .L25
 258 000e 8B69     		ldr	r3, [r1, #24]
 148:HAL_Lib/STM32H7xx_HAL_Driver/Src/stm32h7xx_hal.c **** #else
 259              		.loc 1 148 107 view .LVU55
 260 0010 C3F30323 		ubfx	r3, r3, #8, #4
 148:HAL_Lib/STM32H7xx_HAL_Driver/Src/stm32h7xx_hal.c **** #else
 261              		.loc 1 148 72 view .LVU56
 262 0014 0E4A     		ldr	r2, .L25+4
 263 0016 D35C     		ldrb	r3, [r2, r3]	@ zero_extendqisi2
 148:HAL_Lib/STM32H7xx_HAL_Driver/Src/stm32h7xx_hal.c **** #else
 264              		.loc 1 148 134 view .LVU57
 265 0018 03F01F03 		and	r3, r3, #31
 148:HAL_Lib/STM32H7xx_HAL_Driver/Src/stm32h7xx_hal.c **** #else
 266              		.loc 1 148 23 view .LVU58
 267 001c D840     		lsrs	r0, r0, r3
 268              	.LVL10:
 155:HAL_Lib/STM32H7xx_HAL_Driver/Src/stm32h7xx_hal.c **** #else
 269              		.loc 1 155 3 is_stmt 1 view .LVU59
 155:HAL_Lib/STM32H7xx_HAL_Driver/Src/stm32h7xx_hal.c **** #else
 270              		.loc 1 155 66 is_stmt 0 view .LVU60
 271 001e 8B69     		ldr	r3, [r1, #24]
 155:HAL_Lib/STM32H7xx_HAL_Driver/Src/stm32h7xx_hal.c **** #else
 272              		.loc 1 155 94 view .LVU61
 273 0020 03F00F03 		and	r3, r3, #15
 155:HAL_Lib/STM32H7xx_HAL_Driver/Src/stm32h7xx_hal.c **** #else
 274              		.loc 1 155 61 view .LVU62
 275 0024 D35C     		ldrb	r3, [r2, r3]	@ zero_extendqisi2
 155:HAL_Lib/STM32H7xx_HAL_Driver/Src/stm32h7xx_hal.c **** #else
 276              		.loc 1 155 119 view .LVU63
 277 0026 03F01F03 		and	r3, r3, #31
 155:HAL_Lib/STM32H7xx_HAL_Driver/Src/stm32h7xx_hal.c **** #else
 278              		.loc 1 155 40 view .LVU64
 279 002a 20FA03F3 		lsr	r3, r0, r3
 155:HAL_Lib/STM32H7xx_HAL_Driver/Src/stm32h7xx_hal.c **** #else
 280              		.loc 1 155 17 view .LVU65
 281 002e 094A     		ldr	r2, .L25+8
 282 0030 1360     		str	r3, [r2]
 163:HAL_Lib/STM32H7xx_HAL_Driver/Src/stm32h7xx_hal.c **** #endif /* DUAL_CORE && CORE_CM4 */
 283              		.loc 1 163 3 is_stmt 1 view .LVU66
 163:HAL_Lib/STM32H7xx_HAL_Driver/Src/stm32h7xx_hal.c **** #endif /* DUAL_CORE && CORE_CM4 */
 284              		.loc 1 163 19 is_stmt 0 view .LVU67
 285 0032 094B     		ldr	r3, .L25+12
 286 0034 1860     		str	r0, [r3]
 167:HAL_Lib/STM32H7xx_HAL_Driver/Src/stm32h7xx_hal.c ****   {
 287              		.loc 1 167 3 is_stmt 1 view .LVU68
 167:HAL_Lib/STM32H7xx_HAL_Driver/Src/stm32h7xx_hal.c ****   {
 288              		.loc 1 167 7 is_stmt 0 view .LVU69
 289 0036 0E20     		movs	r0, #14
 290              	.LVL11:
 167:HAL_Lib/STM32H7xx_HAL_Driver/Src/stm32h7xx_hal.c ****   {
 291              		.loc 1 167 7 view .LVU70
ARM GAS  C:\Users\HUAV\AppData\Local\Temp\ccTib3Ek.s 			page 12


 292 0038 FFF7FEFF 		bl	HAL_InitTick
 293              	.LVL12:
 167:HAL_Lib/STM32H7xx_HAL_Driver/Src/stm32h7xx_hal.c ****   {
 294              		.loc 1 167 6 view .LVU71
 295 003c 10B1     		cbz	r0, .L24
 169:HAL_Lib/STM32H7xx_HAL_Driver/Src/stm32h7xx_hal.c ****   }
 296              		.loc 1 169 12 view .LVU72
 297 003e 0124     		movs	r4, #1
 298              	.L21:
 177:HAL_Lib/STM32H7xx_HAL_Driver/Src/stm32h7xx_hal.c **** 
 299              		.loc 1 177 1 view .LVU73
 300 0040 2046     		mov	r0, r4
 301 0042 10BD     		pop	{r4, pc}
 302              	.L24:
 303 0044 0446     		mov	r4, r0
 173:HAL_Lib/STM32H7xx_HAL_Driver/Src/stm32h7xx_hal.c **** 
 304              		.loc 1 173 3 is_stmt 1 view .LVU74
 305 0046 FFF7FEFF 		bl	HAL_MspInit
 306              	.LVL13:
 176:HAL_Lib/STM32H7xx_HAL_Driver/Src/stm32h7xx_hal.c **** }
 307              		.loc 1 176 3 view .LVU75
 176:HAL_Lib/STM32H7xx_HAL_Driver/Src/stm32h7xx_hal.c **** }
 308              		.loc 1 176 10 is_stmt 0 view .LVU76
 309 004a F9E7     		b	.L21
 310              	.L26:
 311              		.align	2
 312              	.L25:
 313 004c 00440258 		.word	1476543488
 314 0050 00000000 		.word	D1CorePrescTable
 315 0054 00000000 		.word	SystemD2Clock
 316 0058 00000000 		.word	SystemCoreClock
 317              		.cfi_endproc
 318              	.LFE144:
 320              		.section	.text.HAL_IncTick,"ax",%progbits
 321              		.align	1
 322              		.weak	HAL_IncTick
 323              		.syntax unified
 324              		.thumb
 325              		.thumb_func
 327              	HAL_IncTick:
 328              	.LFB149:
 287:HAL_Lib/STM32H7xx_HAL_Driver/Src/stm32h7xx_hal.c **** 
 288:HAL_Lib/STM32H7xx_HAL_Driver/Src/stm32h7xx_hal.c **** /**
 289:HAL_Lib/STM32H7xx_HAL_Driver/Src/stm32h7xx_hal.c ****  * @}
 290:HAL_Lib/STM32H7xx_HAL_Driver/Src/stm32h7xx_hal.c ****  */
 291:HAL_Lib/STM32H7xx_HAL_Driver/Src/stm32h7xx_hal.c **** 
 292:HAL_Lib/STM32H7xx_HAL_Driver/Src/stm32h7xx_hal.c **** /** @defgroup HAL_Group2 HAL Control functions
 293:HAL_Lib/STM32H7xx_HAL_Driver/Src/stm32h7xx_hal.c ****  *  @brief    HAL Control functions
 294:HAL_Lib/STM32H7xx_HAL_Driver/Src/stm32h7xx_hal.c ****  *
 295:HAL_Lib/STM32H7xx_HAL_Driver/Src/stm32h7xx_hal.c **** @verbatim
 296:HAL_Lib/STM32H7xx_HAL_Driver/Src/stm32h7xx_hal.c ****  ===============================================================================
 297:HAL_Lib/STM32H7xx_HAL_Driver/Src/stm32h7xx_hal.c ****                       ##### HAL Control functions #####
 298:HAL_Lib/STM32H7xx_HAL_Driver/Src/stm32h7xx_hal.c ****  ===============================================================================
 299:HAL_Lib/STM32H7xx_HAL_Driver/Src/stm32h7xx_hal.c ****     [..]  This section provides functions allowing to:
 300:HAL_Lib/STM32H7xx_HAL_Driver/Src/stm32h7xx_hal.c ****       (+) Provide a tick value in millisecond
 301:HAL_Lib/STM32H7xx_HAL_Driver/Src/stm32h7xx_hal.c ****       (+) Provide a blocking delay in millisecond
 302:HAL_Lib/STM32H7xx_HAL_Driver/Src/stm32h7xx_hal.c ****       (+) Suspend the time base source interrupt
ARM GAS  C:\Users\HUAV\AppData\Local\Temp\ccTib3Ek.s 			page 13


 303:HAL_Lib/STM32H7xx_HAL_Driver/Src/stm32h7xx_hal.c ****       (+) Resume the time base source interrupt
 304:HAL_Lib/STM32H7xx_HAL_Driver/Src/stm32h7xx_hal.c ****       (+) Get the HAL API driver version
 305:HAL_Lib/STM32H7xx_HAL_Driver/Src/stm32h7xx_hal.c ****       (+) Get the device identifier
 306:HAL_Lib/STM32H7xx_HAL_Driver/Src/stm32h7xx_hal.c ****       (+) Get the device revision identifier
 307:HAL_Lib/STM32H7xx_HAL_Driver/Src/stm32h7xx_hal.c ****       (+) Enable/Disable Debug module during SLEEP mode
 308:HAL_Lib/STM32H7xx_HAL_Driver/Src/stm32h7xx_hal.c ****       (+) Enable/Disable Debug module during STOP mode
 309:HAL_Lib/STM32H7xx_HAL_Driver/Src/stm32h7xx_hal.c ****       (+) Enable/Disable Debug module during STANDBY mode
 310:HAL_Lib/STM32H7xx_HAL_Driver/Src/stm32h7xx_hal.c **** 
 311:HAL_Lib/STM32H7xx_HAL_Driver/Src/stm32h7xx_hal.c **** @endverbatim
 312:HAL_Lib/STM32H7xx_HAL_Driver/Src/stm32h7xx_hal.c ****   * @{
 313:HAL_Lib/STM32H7xx_HAL_Driver/Src/stm32h7xx_hal.c ****   */
 314:HAL_Lib/STM32H7xx_HAL_Driver/Src/stm32h7xx_hal.c **** 
 315:HAL_Lib/STM32H7xx_HAL_Driver/Src/stm32h7xx_hal.c **** /**
 316:HAL_Lib/STM32H7xx_HAL_Driver/Src/stm32h7xx_hal.c ****  * @brief This function is called to increment  a global variable "uwTick"
 317:HAL_Lib/STM32H7xx_HAL_Driver/Src/stm32h7xx_hal.c ****  *        used as application time base.
 318:HAL_Lib/STM32H7xx_HAL_Driver/Src/stm32h7xx_hal.c ****  * @note In the default implementation, this variable is incremented each 1ms
 319:HAL_Lib/STM32H7xx_HAL_Driver/Src/stm32h7xx_hal.c ****  *       in Systick ISR.
 320:HAL_Lib/STM32H7xx_HAL_Driver/Src/stm32h7xx_hal.c ****  * @note This function is declared as __weak to be overwritten in case of other
 321:HAL_Lib/STM32H7xx_HAL_Driver/Src/stm32h7xx_hal.c ****  *      implementations in user file.
 322:HAL_Lib/STM32H7xx_HAL_Driver/Src/stm32h7xx_hal.c ****  * @retval None
 323:HAL_Lib/STM32H7xx_HAL_Driver/Src/stm32h7xx_hal.c ****  */
 324:HAL_Lib/STM32H7xx_HAL_Driver/Src/stm32h7xx_hal.c **** __weak void HAL_IncTick(void)
 325:HAL_Lib/STM32H7xx_HAL_Driver/Src/stm32h7xx_hal.c **** {
 329              		.loc 1 325 1 is_stmt 1 view -0
 330              		.cfi_startproc
 331              		@ args = 0, pretend = 0, frame = 0
 332              		@ frame_needed = 0, uses_anonymous_args = 0
 333              		@ link register save eliminated.
 326:HAL_Lib/STM32H7xx_HAL_Driver/Src/stm32h7xx_hal.c ****   uwTick += (uint32_t)uwTickFreq;
 334              		.loc 1 326 3 view .LVU78
 335              		.loc 1 326 13 is_stmt 0 view .LVU79
 336 0000 034B     		ldr	r3, .L28
 337 0002 1B78     		ldrb	r3, [r3]	@ zero_extendqisi2
 338              		.loc 1 326 10 view .LVU80
 339 0004 034A     		ldr	r2, .L28+4
 340 0006 1168     		ldr	r1, [r2]
 341 0008 0B44     		add	r3, r3, r1
 342 000a 1360     		str	r3, [r2]
 327:HAL_Lib/STM32H7xx_HAL_Driver/Src/stm32h7xx_hal.c **** }
 343              		.loc 1 327 1 view .LVU81
 344 000c 7047     		bx	lr
 345              	.L29:
 346 000e 00BF     		.align	2
 347              	.L28:
 348 0010 00000000 		.word	.LANCHOR0
 349 0014 00000000 		.word	.LANCHOR2
 350              		.cfi_endproc
 351              	.LFE149:
 353              		.section	.text.HAL_GetTick,"ax",%progbits
 354              		.align	1
 355              		.weak	HAL_GetTick
 356              		.syntax unified
 357              		.thumb
 358              		.thumb_func
 360              	HAL_GetTick:
 361              	.LFB150:
 328:HAL_Lib/STM32H7xx_HAL_Driver/Src/stm32h7xx_hal.c **** 
ARM GAS  C:\Users\HUAV\AppData\Local\Temp\ccTib3Ek.s 			page 14


 329:HAL_Lib/STM32H7xx_HAL_Driver/Src/stm32h7xx_hal.c **** /**
 330:HAL_Lib/STM32H7xx_HAL_Driver/Src/stm32h7xx_hal.c ****  * @brief Provides a tick value in millisecond.
 331:HAL_Lib/STM32H7xx_HAL_Driver/Src/stm32h7xx_hal.c ****  * @note This function is declared as __weak to be overwritten in case of other
 332:HAL_Lib/STM32H7xx_HAL_Driver/Src/stm32h7xx_hal.c ****  *       implementations in user file.
 333:HAL_Lib/STM32H7xx_HAL_Driver/Src/stm32h7xx_hal.c ****  * @retval tick value
 334:HAL_Lib/STM32H7xx_HAL_Driver/Src/stm32h7xx_hal.c ****  */
 335:HAL_Lib/STM32H7xx_HAL_Driver/Src/stm32h7xx_hal.c **** __weak uint32_t HAL_GetTick(void)
 336:HAL_Lib/STM32H7xx_HAL_Driver/Src/stm32h7xx_hal.c **** {
 362              		.loc 1 336 1 is_stmt 1 view -0
 363              		.cfi_startproc
 364              		@ args = 0, pretend = 0, frame = 0
 365              		@ frame_needed = 0, uses_anonymous_args = 0
 366              		@ link register save eliminated.
 337:HAL_Lib/STM32H7xx_HAL_Driver/Src/stm32h7xx_hal.c ****   return uwTick;
 367              		.loc 1 337 3 view .LVU83
 368              		.loc 1 337 10 is_stmt 0 view .LVU84
 369 0000 014B     		ldr	r3, .L31
 370 0002 1868     		ldr	r0, [r3]
 338:HAL_Lib/STM32H7xx_HAL_Driver/Src/stm32h7xx_hal.c **** }
 371              		.loc 1 338 1 view .LVU85
 372 0004 7047     		bx	lr
 373              	.L32:
 374 0006 00BF     		.align	2
 375              	.L31:
 376 0008 00000000 		.word	.LANCHOR2
 377              		.cfi_endproc
 378              	.LFE150:
 380              		.section	.text.HAL_GetTickPrio,"ax",%progbits
 381              		.align	1
 382              		.global	HAL_GetTickPrio
 383              		.syntax unified
 384              		.thumb
 385              		.thumb_func
 387              	HAL_GetTickPrio:
 388              	.LFB151:
 339:HAL_Lib/STM32H7xx_HAL_Driver/Src/stm32h7xx_hal.c **** 
 340:HAL_Lib/STM32H7xx_HAL_Driver/Src/stm32h7xx_hal.c **** /**
 341:HAL_Lib/STM32H7xx_HAL_Driver/Src/stm32h7xx_hal.c ****  * @brief This function returns a tick priority.
 342:HAL_Lib/STM32H7xx_HAL_Driver/Src/stm32h7xx_hal.c ****  * @retval tick priority
 343:HAL_Lib/STM32H7xx_HAL_Driver/Src/stm32h7xx_hal.c ****  */
 344:HAL_Lib/STM32H7xx_HAL_Driver/Src/stm32h7xx_hal.c **** uint32_t HAL_GetTickPrio(void)
 345:HAL_Lib/STM32H7xx_HAL_Driver/Src/stm32h7xx_hal.c **** {
 389              		.loc 1 345 1 is_stmt 1 view -0
 390              		.cfi_startproc
 391              		@ args = 0, pretend = 0, frame = 0
 392              		@ frame_needed = 0, uses_anonymous_args = 0
 393              		@ link register save eliminated.
 346:HAL_Lib/STM32H7xx_HAL_Driver/Src/stm32h7xx_hal.c ****   return uwTickPrio;
 394              		.loc 1 346 3 view .LVU87
 347:HAL_Lib/STM32H7xx_HAL_Driver/Src/stm32h7xx_hal.c **** }
 395              		.loc 1 347 1 is_stmt 0 view .LVU88
 396 0000 014B     		ldr	r3, .L34
 397 0002 1868     		ldr	r0, [r3]
 398 0004 7047     		bx	lr
 399              	.L35:
 400 0006 00BF     		.align	2
 401              	.L34:
ARM GAS  C:\Users\HUAV\AppData\Local\Temp\ccTib3Ek.s 			page 15


 402 0008 00000000 		.word	.LANCHOR1
 403              		.cfi_endproc
 404              	.LFE151:
 406              		.section	.text.HAL_SetTickFreq,"ax",%progbits
 407              		.align	1
 408              		.global	HAL_SetTickFreq
 409              		.syntax unified
 410              		.thumb
 411              		.thumb_func
 413              	HAL_SetTickFreq:
 414              	.LVL14:
 415              	.LFB152:
 348:HAL_Lib/STM32H7xx_HAL_Driver/Src/stm32h7xx_hal.c **** 
 349:HAL_Lib/STM32H7xx_HAL_Driver/Src/stm32h7xx_hal.c **** /**
 350:HAL_Lib/STM32H7xx_HAL_Driver/Src/stm32h7xx_hal.c ****  * @brief Set new tick Freq.
 351:HAL_Lib/STM32H7xx_HAL_Driver/Src/stm32h7xx_hal.c ****  * @retval Status
 352:HAL_Lib/STM32H7xx_HAL_Driver/Src/stm32h7xx_hal.c ****  */
 353:HAL_Lib/STM32H7xx_HAL_Driver/Src/stm32h7xx_hal.c **** HAL_StatusTypeDef HAL_SetTickFreq(HAL_TickFreqTypeDef Freq)
 354:HAL_Lib/STM32H7xx_HAL_Driver/Src/stm32h7xx_hal.c **** {
 416              		.loc 1 354 1 is_stmt 1 view -0
 417              		.cfi_startproc
 418              		@ args = 0, pretend = 0, frame = 0
 419              		@ frame_needed = 0, uses_anonymous_args = 0
 420              		.loc 1 354 1 is_stmt 0 view .LVU90
 421 0000 10B5     		push	{r4, lr}
 422              	.LCFI3:
 423              		.cfi_def_cfa_offset 8
 424              		.cfi_offset 4, -8
 425              		.cfi_offset 14, -4
 355:HAL_Lib/STM32H7xx_HAL_Driver/Src/stm32h7xx_hal.c ****   HAL_StatusTypeDef status = HAL_OK;
 426              		.loc 1 355 3 is_stmt 1 view .LVU91
 427              	.LVL15:
 356:HAL_Lib/STM32H7xx_HAL_Driver/Src/stm32h7xx_hal.c ****   HAL_TickFreqTypeDef prevTickFreq;
 428              		.loc 1 356 3 view .LVU92
 357:HAL_Lib/STM32H7xx_HAL_Driver/Src/stm32h7xx_hal.c **** 
 358:HAL_Lib/STM32H7xx_HAL_Driver/Src/stm32h7xx_hal.c ****   assert_param(IS_TICKFREQ(Freq));
 429              		.loc 1 358 3 view .LVU93
 359:HAL_Lib/STM32H7xx_HAL_Driver/Src/stm32h7xx_hal.c **** 
 360:HAL_Lib/STM32H7xx_HAL_Driver/Src/stm32h7xx_hal.c ****   if (uwTickFreq != Freq)
 430              		.loc 1 360 3 view .LVU94
 431              		.loc 1 360 18 is_stmt 0 view .LVU95
 432 0002 084B     		ldr	r3, .L41
 433 0004 1C78     		ldrb	r4, [r3]	@ zero_extendqisi2
 434              		.loc 1 360 6 view .LVU96
 435 0006 8442     		cmp	r4, r0
 436 0008 01D1     		bne	.L40
 355:HAL_Lib/STM32H7xx_HAL_Driver/Src/stm32h7xx_hal.c ****   HAL_TickFreqTypeDef prevTickFreq;
 437              		.loc 1 355 21 view .LVU97
 438 000a 0020     		movs	r0, #0
 439              	.LVL16:
 440              	.L37:
 361:HAL_Lib/STM32H7xx_HAL_Driver/Src/stm32h7xx_hal.c ****   {
 362:HAL_Lib/STM32H7xx_HAL_Driver/Src/stm32h7xx_hal.c **** 
 363:HAL_Lib/STM32H7xx_HAL_Driver/Src/stm32h7xx_hal.c ****     /* Back up uwTickFreq frequency */
 364:HAL_Lib/STM32H7xx_HAL_Driver/Src/stm32h7xx_hal.c ****     prevTickFreq = uwTickFreq;
 365:HAL_Lib/STM32H7xx_HAL_Driver/Src/stm32h7xx_hal.c **** 
 366:HAL_Lib/STM32H7xx_HAL_Driver/Src/stm32h7xx_hal.c ****     /* Update uwTickFreq global variable used by HAL_InitTick() */
ARM GAS  C:\Users\HUAV\AppData\Local\Temp\ccTib3Ek.s 			page 16


 367:HAL_Lib/STM32H7xx_HAL_Driver/Src/stm32h7xx_hal.c ****     uwTickFreq = Freq;
 368:HAL_Lib/STM32H7xx_HAL_Driver/Src/stm32h7xx_hal.c **** 
 369:HAL_Lib/STM32H7xx_HAL_Driver/Src/stm32h7xx_hal.c ****     /* Apply the new tick Freq  */
 370:HAL_Lib/STM32H7xx_HAL_Driver/Src/stm32h7xx_hal.c ****     status = HAL_InitTick(uwTickPrio);
 371:HAL_Lib/STM32H7xx_HAL_Driver/Src/stm32h7xx_hal.c ****     if (status != HAL_OK)
 372:HAL_Lib/STM32H7xx_HAL_Driver/Src/stm32h7xx_hal.c ****     {
 373:HAL_Lib/STM32H7xx_HAL_Driver/Src/stm32h7xx_hal.c ****       /* Restore previous tick frequency */
 374:HAL_Lib/STM32H7xx_HAL_Driver/Src/stm32h7xx_hal.c ****       uwTickFreq = prevTickFreq;
 375:HAL_Lib/STM32H7xx_HAL_Driver/Src/stm32h7xx_hal.c ****     }
 376:HAL_Lib/STM32H7xx_HAL_Driver/Src/stm32h7xx_hal.c ****   }
 377:HAL_Lib/STM32H7xx_HAL_Driver/Src/stm32h7xx_hal.c **** 
 378:HAL_Lib/STM32H7xx_HAL_Driver/Src/stm32h7xx_hal.c ****   return status;
 441              		.loc 1 378 3 is_stmt 1 view .LVU98
 379:HAL_Lib/STM32H7xx_HAL_Driver/Src/stm32h7xx_hal.c **** }
 442              		.loc 1 379 1 is_stmt 0 view .LVU99
 443 000c 10BD     		pop	{r4, pc}
 444              	.LVL17:
 445              	.L40:
 364:HAL_Lib/STM32H7xx_HAL_Driver/Src/stm32h7xx_hal.c **** 
 446              		.loc 1 364 5 is_stmt 1 view .LVU100
 367:HAL_Lib/STM32H7xx_HAL_Driver/Src/stm32h7xx_hal.c **** 
 447              		.loc 1 367 5 view .LVU101
 367:HAL_Lib/STM32H7xx_HAL_Driver/Src/stm32h7xx_hal.c **** 
 448              		.loc 1 367 16 is_stmt 0 view .LVU102
 449 000e 1870     		strb	r0, [r3]
 370:HAL_Lib/STM32H7xx_HAL_Driver/Src/stm32h7xx_hal.c ****     if (status != HAL_OK)
 450              		.loc 1 370 5 is_stmt 1 view .LVU103
 370:HAL_Lib/STM32H7xx_HAL_Driver/Src/stm32h7xx_hal.c ****     if (status != HAL_OK)
 451              		.loc 1 370 14 is_stmt 0 view .LVU104
 452 0010 054B     		ldr	r3, .L41+4
 453 0012 1868     		ldr	r0, [r3]
 454              	.LVL18:
 370:HAL_Lib/STM32H7xx_HAL_Driver/Src/stm32h7xx_hal.c ****     if (status != HAL_OK)
 455              		.loc 1 370 14 view .LVU105
 456 0014 FFF7FEFF 		bl	HAL_InitTick
 457              	.LVL19:
 371:HAL_Lib/STM32H7xx_HAL_Driver/Src/stm32h7xx_hal.c ****     {
 458              		.loc 1 371 5 is_stmt 1 view .LVU106
 371:HAL_Lib/STM32H7xx_HAL_Driver/Src/stm32h7xx_hal.c ****     {
 459              		.loc 1 371 8 is_stmt 0 view .LVU107
 460 0018 0028     		cmp	r0, #0
 461 001a F7D0     		beq	.L37
 374:HAL_Lib/STM32H7xx_HAL_Driver/Src/stm32h7xx_hal.c ****     }
 462              		.loc 1 374 7 is_stmt 1 view .LVU108
 374:HAL_Lib/STM32H7xx_HAL_Driver/Src/stm32h7xx_hal.c ****     }
 463              		.loc 1 374 18 is_stmt 0 view .LVU109
 464 001c 014B     		ldr	r3, .L41
 465 001e 1C70     		strb	r4, [r3]
 466 0020 F4E7     		b	.L37
 467              	.L42:
 468 0022 00BF     		.align	2
 469              	.L41:
 470 0024 00000000 		.word	.LANCHOR0
 471 0028 00000000 		.word	.LANCHOR1
 472              		.cfi_endproc
 473              	.LFE152:
 475              		.section	.text.HAL_GetTickFreq,"ax",%progbits
ARM GAS  C:\Users\HUAV\AppData\Local\Temp\ccTib3Ek.s 			page 17


 476              		.align	1
 477              		.global	HAL_GetTickFreq
 478              		.syntax unified
 479              		.thumb
 480              		.thumb_func
 482              	HAL_GetTickFreq:
 483              	.LFB153:
 380:HAL_Lib/STM32H7xx_HAL_Driver/Src/stm32h7xx_hal.c **** 
 381:HAL_Lib/STM32H7xx_HAL_Driver/Src/stm32h7xx_hal.c **** /**
 382:HAL_Lib/STM32H7xx_HAL_Driver/Src/stm32h7xx_hal.c ****  * @brief Return tick frequency.
 383:HAL_Lib/STM32H7xx_HAL_Driver/Src/stm32h7xx_hal.c ****  * @retval tick period in Hz
 384:HAL_Lib/STM32H7xx_HAL_Driver/Src/stm32h7xx_hal.c ****  */
 385:HAL_Lib/STM32H7xx_HAL_Driver/Src/stm32h7xx_hal.c **** HAL_TickFreqTypeDef HAL_GetTickFreq(void)
 386:HAL_Lib/STM32H7xx_HAL_Driver/Src/stm32h7xx_hal.c **** {
 484              		.loc 1 386 1 is_stmt 1 view -0
 485              		.cfi_startproc
 486              		@ args = 0, pretend = 0, frame = 0
 487              		@ frame_needed = 0, uses_anonymous_args = 0
 488              		@ link register save eliminated.
 387:HAL_Lib/STM32H7xx_HAL_Driver/Src/stm32h7xx_hal.c ****   return uwTickFreq;
 489              		.loc 1 387 3 view .LVU111
 388:HAL_Lib/STM32H7xx_HAL_Driver/Src/stm32h7xx_hal.c **** }
 490              		.loc 1 388 1 is_stmt 0 view .LVU112
 491 0000 014B     		ldr	r3, .L44
 492 0002 1878     		ldrb	r0, [r3]	@ zero_extendqisi2
 493 0004 7047     		bx	lr
 494              	.L45:
 495 0006 00BF     		.align	2
 496              	.L44:
 497 0008 00000000 		.word	.LANCHOR0
 498              		.cfi_endproc
 499              	.LFE153:
 501              		.section	.text.HAL_Delay,"ax",%progbits
 502              		.align	1
 503              		.weak	HAL_Delay
 504              		.syntax unified
 505              		.thumb
 506              		.thumb_func
 508              	HAL_Delay:
 509              	.LVL20:
 510              	.LFB154:
 389:HAL_Lib/STM32H7xx_HAL_Driver/Src/stm32h7xx_hal.c **** 
 390:HAL_Lib/STM32H7xx_HAL_Driver/Src/stm32h7xx_hal.c **** /**
 391:HAL_Lib/STM32H7xx_HAL_Driver/Src/stm32h7xx_hal.c ****  * @brief This function provides minimum delay (in milliseconds) based
 392:HAL_Lib/STM32H7xx_HAL_Driver/Src/stm32h7xx_hal.c ****  *        on variable incremented.
 393:HAL_Lib/STM32H7xx_HAL_Driver/Src/stm32h7xx_hal.c ****  * @note In the default implementation , SysTick timer is the source of time base.
 394:HAL_Lib/STM32H7xx_HAL_Driver/Src/stm32h7xx_hal.c ****  *       It is used to generate interrupts at regular time intervals where uwTick
 395:HAL_Lib/STM32H7xx_HAL_Driver/Src/stm32h7xx_hal.c ****  *       is incremented.
 396:HAL_Lib/STM32H7xx_HAL_Driver/Src/stm32h7xx_hal.c ****  * @note This function is declared as __weak to be overwritten in case of other
 397:HAL_Lib/STM32H7xx_HAL_Driver/Src/stm32h7xx_hal.c ****  *       implementations in user file.
 398:HAL_Lib/STM32H7xx_HAL_Driver/Src/stm32h7xx_hal.c ****  * @param Delay  specifies the delay time length, in milliseconds.
 399:HAL_Lib/STM32H7xx_HAL_Driver/Src/stm32h7xx_hal.c ****  * @retval None
 400:HAL_Lib/STM32H7xx_HAL_Driver/Src/stm32h7xx_hal.c ****  */
 401:HAL_Lib/STM32H7xx_HAL_Driver/Src/stm32h7xx_hal.c **** __weak void HAL_Delay(uint32_t Delay)
 402:HAL_Lib/STM32H7xx_HAL_Driver/Src/stm32h7xx_hal.c **** {
 511              		.loc 1 402 1 is_stmt 1 view -0
 512              		.cfi_startproc
ARM GAS  C:\Users\HUAV\AppData\Local\Temp\ccTib3Ek.s 			page 18


 513              		@ args = 0, pretend = 0, frame = 0
 514              		@ frame_needed = 0, uses_anonymous_args = 0
 515              		.loc 1 402 1 is_stmt 0 view .LVU114
 516 0000 38B5     		push	{r3, r4, r5, lr}
 517              	.LCFI4:
 518              		.cfi_def_cfa_offset 16
 519              		.cfi_offset 3, -16
 520              		.cfi_offset 4, -12
 521              		.cfi_offset 5, -8
 522              		.cfi_offset 14, -4
 523 0002 0446     		mov	r4, r0
 403:HAL_Lib/STM32H7xx_HAL_Driver/Src/stm32h7xx_hal.c ****   uint32_t tickstart = HAL_GetTick();
 524              		.loc 1 403 3 is_stmt 1 view .LVU115
 525              		.loc 1 403 24 is_stmt 0 view .LVU116
 526 0004 FFF7FEFF 		bl	HAL_GetTick
 527              	.LVL21:
 528              		.loc 1 403 24 view .LVU117
 529 0008 0546     		mov	r5, r0
 530              	.LVL22:
 404:HAL_Lib/STM32H7xx_HAL_Driver/Src/stm32h7xx_hal.c ****   uint32_t wait = Delay;
 531              		.loc 1 404 3 is_stmt 1 view .LVU118
 405:HAL_Lib/STM32H7xx_HAL_Driver/Src/stm32h7xx_hal.c **** 
 406:HAL_Lib/STM32H7xx_HAL_Driver/Src/stm32h7xx_hal.c ****   /* Add a freq to guarantee minimum wait */
 407:HAL_Lib/STM32H7xx_HAL_Driver/Src/stm32h7xx_hal.c ****   if (wait < HAL_MAX_DELAY)
 532              		.loc 1 407 3 view .LVU119
 533              		.loc 1 407 6 is_stmt 0 view .LVU120
 534 000a B4F1FF3F 		cmp	r4, #-1
 535 000e 02D0     		beq	.L48
 408:HAL_Lib/STM32H7xx_HAL_Driver/Src/stm32h7xx_hal.c ****   {
 409:HAL_Lib/STM32H7xx_HAL_Driver/Src/stm32h7xx_hal.c ****     wait += (uint32_t)(uwTickFreq);
 536              		.loc 1 409 5 is_stmt 1 view .LVU121
 537              		.loc 1 409 13 is_stmt 0 view .LVU122
 538 0010 044B     		ldr	r3, .L50
 539 0012 1B78     		ldrb	r3, [r3]	@ zero_extendqisi2
 540              		.loc 1 409 10 view .LVU123
 541 0014 1C44     		add	r4, r4, r3
 542              	.LVL23:
 543              	.L48:
 410:HAL_Lib/STM32H7xx_HAL_Driver/Src/stm32h7xx_hal.c ****   }
 411:HAL_Lib/STM32H7xx_HAL_Driver/Src/stm32h7xx_hal.c **** 
 412:HAL_Lib/STM32H7xx_HAL_Driver/Src/stm32h7xx_hal.c ****   while ((HAL_GetTick() - tickstart) < wait)
 413:HAL_Lib/STM32H7xx_HAL_Driver/Src/stm32h7xx_hal.c ****   {
 414:HAL_Lib/STM32H7xx_HAL_Driver/Src/stm32h7xx_hal.c ****   }
 544              		.loc 1 414 3 is_stmt 1 discriminator 1 view .LVU124
 412:HAL_Lib/STM32H7xx_HAL_Driver/Src/stm32h7xx_hal.c ****   {
 545              		.loc 1 412 9 discriminator 1 view .LVU125
 412:HAL_Lib/STM32H7xx_HAL_Driver/Src/stm32h7xx_hal.c ****   {
 546              		.loc 1 412 11 is_stmt 0 discriminator 1 view .LVU126
 547 0016 FFF7FEFF 		bl	HAL_GetTick
 548              	.LVL24:
 412:HAL_Lib/STM32H7xx_HAL_Driver/Src/stm32h7xx_hal.c ****   {
 549              		.loc 1 412 25 discriminator 1 view .LVU127
 550 001a 401B     		subs	r0, r0, r5
 412:HAL_Lib/STM32H7xx_HAL_Driver/Src/stm32h7xx_hal.c ****   {
 551              		.loc 1 412 9 discriminator 1 view .LVU128
 552 001c A042     		cmp	r0, r4
 553 001e FAD3     		bcc	.L48
ARM GAS  C:\Users\HUAV\AppData\Local\Temp\ccTib3Ek.s 			page 19


 415:HAL_Lib/STM32H7xx_HAL_Driver/Src/stm32h7xx_hal.c **** }
 554              		.loc 1 415 1 view .LVU129
 555 0020 38BD     		pop	{r3, r4, r5, pc}
 556              	.LVL25:
 557              	.L51:
 558              		.loc 1 415 1 view .LVU130
 559 0022 00BF     		.align	2
 560              	.L50:
 561 0024 00000000 		.word	.LANCHOR0
 562              		.cfi_endproc
 563              	.LFE154:
 565              		.section	.text.HAL_SuspendTick,"ax",%progbits
 566              		.align	1
 567              		.weak	HAL_SuspendTick
 568              		.syntax unified
 569              		.thumb
 570              		.thumb_func
 572              	HAL_SuspendTick:
 573              	.LFB155:
 416:HAL_Lib/STM32H7xx_HAL_Driver/Src/stm32h7xx_hal.c **** 
 417:HAL_Lib/STM32H7xx_HAL_Driver/Src/stm32h7xx_hal.c **** /**
 418:HAL_Lib/STM32H7xx_HAL_Driver/Src/stm32h7xx_hal.c ****  * @brief Suspend Tick increment.
 419:HAL_Lib/STM32H7xx_HAL_Driver/Src/stm32h7xx_hal.c ****  * @note In the default implementation , SysTick timer is the source of time base. It is
 420:HAL_Lib/STM32H7xx_HAL_Driver/Src/stm32h7xx_hal.c ****  *       used to generate interrupts at regular time intervals. Once HAL_SuspendTick()
 421:HAL_Lib/STM32H7xx_HAL_Driver/Src/stm32h7xx_hal.c ****  *       is called, the the SysTick interrupt will be disabled and so Tick increment
 422:HAL_Lib/STM32H7xx_HAL_Driver/Src/stm32h7xx_hal.c ****  *       is suspended.
 423:HAL_Lib/STM32H7xx_HAL_Driver/Src/stm32h7xx_hal.c ****  * @note This function is declared as __weak to be overwritten in case of other
 424:HAL_Lib/STM32H7xx_HAL_Driver/Src/stm32h7xx_hal.c ****  *       implementations in user file.
 425:HAL_Lib/STM32H7xx_HAL_Driver/Src/stm32h7xx_hal.c ****  * @retval None
 426:HAL_Lib/STM32H7xx_HAL_Driver/Src/stm32h7xx_hal.c ****  */
 427:HAL_Lib/STM32H7xx_HAL_Driver/Src/stm32h7xx_hal.c **** __weak void HAL_SuspendTick(void)
 428:HAL_Lib/STM32H7xx_HAL_Driver/Src/stm32h7xx_hal.c **** {
 574              		.loc 1 428 1 is_stmt 1 view -0
 575              		.cfi_startproc
 576              		@ args = 0, pretend = 0, frame = 0
 577              		@ frame_needed = 0, uses_anonymous_args = 0
 578              		@ link register save eliminated.
 429:HAL_Lib/STM32H7xx_HAL_Driver/Src/stm32h7xx_hal.c ****   /* Disable SysTick Interrupt */
 430:HAL_Lib/STM32H7xx_HAL_Driver/Src/stm32h7xx_hal.c ****   SysTick->CTRL &= ~SysTick_CTRL_TICKINT_Msk;
 579              		.loc 1 430 3 view .LVU132
 580              		.loc 1 430 17 is_stmt 0 view .LVU133
 581 0000 4FF0E022 		mov	r2, #-536813568
 582 0004 1369     		ldr	r3, [r2, #16]
 583 0006 23F00203 		bic	r3, r3, #2
 584 000a 1361     		str	r3, [r2, #16]
 431:HAL_Lib/STM32H7xx_HAL_Driver/Src/stm32h7xx_hal.c **** }
 585              		.loc 1 431 1 view .LVU134
 586 000c 7047     		bx	lr
 587              		.cfi_endproc
 588              	.LFE155:
 590              		.section	.text.HAL_ResumeTick,"ax",%progbits
 591              		.align	1
 592              		.weak	HAL_ResumeTick
 593              		.syntax unified
 594              		.thumb
 595              		.thumb_func
 597              	HAL_ResumeTick:
ARM GAS  C:\Users\HUAV\AppData\Local\Temp\ccTib3Ek.s 			page 20


 598              	.LFB156:
 432:HAL_Lib/STM32H7xx_HAL_Driver/Src/stm32h7xx_hal.c **** 
 433:HAL_Lib/STM32H7xx_HAL_Driver/Src/stm32h7xx_hal.c **** /**
 434:HAL_Lib/STM32H7xx_HAL_Driver/Src/stm32h7xx_hal.c ****  * @brief Resume Tick increment.
 435:HAL_Lib/STM32H7xx_HAL_Driver/Src/stm32h7xx_hal.c ****  * @note In the default implementation , SysTick timer is the source of time base. It is
 436:HAL_Lib/STM32H7xx_HAL_Driver/Src/stm32h7xx_hal.c ****  *       used to generate interrupts at regular time intervals. Once HAL_ResumeTick()
 437:HAL_Lib/STM32H7xx_HAL_Driver/Src/stm32h7xx_hal.c ****  *       is called, the the SysTick interrupt will be enabled and so Tick increment
 438:HAL_Lib/STM32H7xx_HAL_Driver/Src/stm32h7xx_hal.c ****  *       is resumed.
 439:HAL_Lib/STM32H7xx_HAL_Driver/Src/stm32h7xx_hal.c ****  * @note This function is declared as __weak to be overwritten in case of other
 440:HAL_Lib/STM32H7xx_HAL_Driver/Src/stm32h7xx_hal.c ****  *       implementations in user file.
 441:HAL_Lib/STM32H7xx_HAL_Driver/Src/stm32h7xx_hal.c ****  * @retval None
 442:HAL_Lib/STM32H7xx_HAL_Driver/Src/stm32h7xx_hal.c ****  */
 443:HAL_Lib/STM32H7xx_HAL_Driver/Src/stm32h7xx_hal.c **** __weak void HAL_ResumeTick(void)
 444:HAL_Lib/STM32H7xx_HAL_Driver/Src/stm32h7xx_hal.c **** {
 599              		.loc 1 444 1 is_stmt 1 view -0
 600              		.cfi_startproc
 601              		@ args = 0, pretend = 0, frame = 0
 602              		@ frame_needed = 0, uses_anonymous_args = 0
 603              		@ link register save eliminated.
 445:HAL_Lib/STM32H7xx_HAL_Driver/Src/stm32h7xx_hal.c ****   /* Enable SysTick Interrupt */
 446:HAL_Lib/STM32H7xx_HAL_Driver/Src/stm32h7xx_hal.c ****   SysTick->CTRL |= SysTick_CTRL_TICKINT_Msk;
 604              		.loc 1 446 3 view .LVU136
 605              		.loc 1 446 17 is_stmt 0 view .LVU137
 606 0000 4FF0E022 		mov	r2, #-536813568
 607 0004 1369     		ldr	r3, [r2, #16]
 608 0006 43F00203 		orr	r3, r3, #2
 609 000a 1361     		str	r3, [r2, #16]
 447:HAL_Lib/STM32H7xx_HAL_Driver/Src/stm32h7xx_hal.c **** }
 610              		.loc 1 447 1 view .LVU138
 611 000c 7047     		bx	lr
 612              		.cfi_endproc
 613              	.LFE156:
 615              		.section	.text.HAL_GetHalVersion,"ax",%progbits
 616              		.align	1
 617              		.global	HAL_GetHalVersion
 618              		.syntax unified
 619              		.thumb
 620              		.thumb_func
 622              	HAL_GetHalVersion:
 623              	.LFB157:
 448:HAL_Lib/STM32H7xx_HAL_Driver/Src/stm32h7xx_hal.c **** 
 449:HAL_Lib/STM32H7xx_HAL_Driver/Src/stm32h7xx_hal.c **** /**
 450:HAL_Lib/STM32H7xx_HAL_Driver/Src/stm32h7xx_hal.c ****  * @brief  Returns the HAL revision
 451:HAL_Lib/STM32H7xx_HAL_Driver/Src/stm32h7xx_hal.c ****  * @retval version : 0xXYZR (8bits for each decimal, R for RC)
 452:HAL_Lib/STM32H7xx_HAL_Driver/Src/stm32h7xx_hal.c ****  */
 453:HAL_Lib/STM32H7xx_HAL_Driver/Src/stm32h7xx_hal.c **** uint32_t HAL_GetHalVersion(void)
 454:HAL_Lib/STM32H7xx_HAL_Driver/Src/stm32h7xx_hal.c **** {
 624              		.loc 1 454 1 is_stmt 1 view -0
 625              		.cfi_startproc
 626              		@ args = 0, pretend = 0, frame = 0
 627              		@ frame_needed = 0, uses_anonymous_args = 0
 628              		@ link register save eliminated.
 455:HAL_Lib/STM32H7xx_HAL_Driver/Src/stm32h7xx_hal.c ****   return __STM32H7xx_HAL_VERSION;
 629              		.loc 1 455 3 view .LVU140
 456:HAL_Lib/STM32H7xx_HAL_Driver/Src/stm32h7xx_hal.c **** }
 630              		.loc 1 456 1 is_stmt 0 view .LVU141
 631 0000 0048     		ldr	r0, .L55
ARM GAS  C:\Users\HUAV\AppData\Local\Temp\ccTib3Ek.s 			page 21


 632 0002 7047     		bx	lr
 633              	.L56:
 634              		.align	2
 635              	.L55:
 636 0004 00010A01 		.word	17432832
 637              		.cfi_endproc
 638              	.LFE157:
 640              		.section	.text.HAL_GetREVID,"ax",%progbits
 641              		.align	1
 642              		.global	HAL_GetREVID
 643              		.syntax unified
 644              		.thumb
 645              		.thumb_func
 647              	HAL_GetREVID:
 648              	.LFB158:
 457:HAL_Lib/STM32H7xx_HAL_Driver/Src/stm32h7xx_hal.c **** 
 458:HAL_Lib/STM32H7xx_HAL_Driver/Src/stm32h7xx_hal.c **** /**
 459:HAL_Lib/STM32H7xx_HAL_Driver/Src/stm32h7xx_hal.c ****  * @brief  Returns the device revision identifier.
 460:HAL_Lib/STM32H7xx_HAL_Driver/Src/stm32h7xx_hal.c ****  * @retval Device revision identifier
 461:HAL_Lib/STM32H7xx_HAL_Driver/Src/stm32h7xx_hal.c ****  */
 462:HAL_Lib/STM32H7xx_HAL_Driver/Src/stm32h7xx_hal.c **** uint32_t HAL_GetREVID(void)
 463:HAL_Lib/STM32H7xx_HAL_Driver/Src/stm32h7xx_hal.c **** {
 649              		.loc 1 463 1 is_stmt 1 view -0
 650              		.cfi_startproc
 651              		@ args = 0, pretend = 0, frame = 0
 652              		@ frame_needed = 0, uses_anonymous_args = 0
 653              		@ link register save eliminated.
 464:HAL_Lib/STM32H7xx_HAL_Driver/Src/stm32h7xx_hal.c ****   return ((DBGMCU->IDCODE) >> 16);
 654              		.loc 1 464 3 view .LVU143
 655              		.loc 1 464 18 is_stmt 0 view .LVU144
 656 0000 014B     		ldr	r3, .L58
 657 0002 1868     		ldr	r0, [r3]
 465:HAL_Lib/STM32H7xx_HAL_Driver/Src/stm32h7xx_hal.c **** }
 658              		.loc 1 465 1 view .LVU145
 659 0004 000C     		lsrs	r0, r0, #16
 660 0006 7047     		bx	lr
 661              	.L59:
 662              		.align	2
 663              	.L58:
 664 0008 0010005C 		.word	1543507968
 665              		.cfi_endproc
 666              	.LFE158:
 668              		.section	.text.HAL_GetDEVID,"ax",%progbits
 669              		.align	1
 670              		.global	HAL_GetDEVID
 671              		.syntax unified
 672              		.thumb
 673              		.thumb_func
 675              	HAL_GetDEVID:
 676              	.LFB159:
 466:HAL_Lib/STM32H7xx_HAL_Driver/Src/stm32h7xx_hal.c **** 
 467:HAL_Lib/STM32H7xx_HAL_Driver/Src/stm32h7xx_hal.c **** /**
 468:HAL_Lib/STM32H7xx_HAL_Driver/Src/stm32h7xx_hal.c ****  * @brief  Returns the device identifier.
 469:HAL_Lib/STM32H7xx_HAL_Driver/Src/stm32h7xx_hal.c ****  * @retval Device identifier
 470:HAL_Lib/STM32H7xx_HAL_Driver/Src/stm32h7xx_hal.c ****  */
 471:HAL_Lib/STM32H7xx_HAL_Driver/Src/stm32h7xx_hal.c **** uint32_t HAL_GetDEVID(void)
 472:HAL_Lib/STM32H7xx_HAL_Driver/Src/stm32h7xx_hal.c **** {
ARM GAS  C:\Users\HUAV\AppData\Local\Temp\ccTib3Ek.s 			page 22


 677              		.loc 1 472 1 is_stmt 1 view -0
 678              		.cfi_startproc
 679              		@ args = 0, pretend = 0, frame = 0
 680              		@ frame_needed = 0, uses_anonymous_args = 0
 681              		@ link register save eliminated.
 473:HAL_Lib/STM32H7xx_HAL_Driver/Src/stm32h7xx_hal.c ****   return ((DBGMCU->IDCODE) & IDCODE_DEVID_MASK);
 682              		.loc 1 473 3 view .LVU147
 683              		.loc 1 473 18 is_stmt 0 view .LVU148
 684 0000 024B     		ldr	r3, .L61
 685 0002 1868     		ldr	r0, [r3]
 474:HAL_Lib/STM32H7xx_HAL_Driver/Src/stm32h7xx_hal.c **** }
 686              		.loc 1 474 1 view .LVU149
 687 0004 C0F30B00 		ubfx	r0, r0, #0, #12
 688 0008 7047     		bx	lr
 689              	.L62:
 690 000a 00BF     		.align	2
 691              	.L61:
 692 000c 0010005C 		.word	1543507968
 693              		.cfi_endproc
 694              	.LFE159:
 696              		.section	.text.HAL_GetUIDw0,"ax",%progbits
 697              		.align	1
 698              		.global	HAL_GetUIDw0
 699              		.syntax unified
 700              		.thumb
 701              		.thumb_func
 703              	HAL_GetUIDw0:
 704              	.LFB160:
 475:HAL_Lib/STM32H7xx_HAL_Driver/Src/stm32h7xx_hal.c **** 
 476:HAL_Lib/STM32H7xx_HAL_Driver/Src/stm32h7xx_hal.c **** /**
 477:HAL_Lib/STM32H7xx_HAL_Driver/Src/stm32h7xx_hal.c ****  * @brief  Return the first word of the unique device identifier (UID based on 96 bits)
 478:HAL_Lib/STM32H7xx_HAL_Driver/Src/stm32h7xx_hal.c ****  * @retval Device identifier
 479:HAL_Lib/STM32H7xx_HAL_Driver/Src/stm32h7xx_hal.c ****  */
 480:HAL_Lib/STM32H7xx_HAL_Driver/Src/stm32h7xx_hal.c **** uint32_t HAL_GetUIDw0(void)
 481:HAL_Lib/STM32H7xx_HAL_Driver/Src/stm32h7xx_hal.c **** {
 705              		.loc 1 481 1 is_stmt 1 view -0
 706              		.cfi_startproc
 707              		@ args = 0, pretend = 0, frame = 0
 708              		@ frame_needed = 0, uses_anonymous_args = 0
 709              		@ link register save eliminated.
 482:HAL_Lib/STM32H7xx_HAL_Driver/Src/stm32h7xx_hal.c ****   return (READ_REG(*((uint32_t *)UID_BASE)));
 710              		.loc 1 482 3 view .LVU151
 483:HAL_Lib/STM32H7xx_HAL_Driver/Src/stm32h7xx_hal.c **** }
 711              		.loc 1 483 1 is_stmt 0 view .LVU152
 712 0000 014B     		ldr	r3, .L64
 713 0002 D3F80008 		ldr	r0, [r3, #2048]
 714 0006 7047     		bx	lr
 715              	.L65:
 716              		.align	2
 717              	.L64:
 718 0008 00E0F11F 		.word	535945216
 719              		.cfi_endproc
 720              	.LFE160:
 722              		.section	.text.HAL_GetUIDw1,"ax",%progbits
 723              		.align	1
 724              		.global	HAL_GetUIDw1
 725              		.syntax unified
ARM GAS  C:\Users\HUAV\AppData\Local\Temp\ccTib3Ek.s 			page 23


 726              		.thumb
 727              		.thumb_func
 729              	HAL_GetUIDw1:
 730              	.LFB161:
 484:HAL_Lib/STM32H7xx_HAL_Driver/Src/stm32h7xx_hal.c **** 
 485:HAL_Lib/STM32H7xx_HAL_Driver/Src/stm32h7xx_hal.c **** /**
 486:HAL_Lib/STM32H7xx_HAL_Driver/Src/stm32h7xx_hal.c ****  * @brief  Return the second word of the unique device identifier (UID based on 96 bits)
 487:HAL_Lib/STM32H7xx_HAL_Driver/Src/stm32h7xx_hal.c ****  * @retval Device identifier
 488:HAL_Lib/STM32H7xx_HAL_Driver/Src/stm32h7xx_hal.c ****  */
 489:HAL_Lib/STM32H7xx_HAL_Driver/Src/stm32h7xx_hal.c **** uint32_t HAL_GetUIDw1(void)
 490:HAL_Lib/STM32H7xx_HAL_Driver/Src/stm32h7xx_hal.c **** {
 731              		.loc 1 490 1 is_stmt 1 view -0
 732              		.cfi_startproc
 733              		@ args = 0, pretend = 0, frame = 0
 734              		@ frame_needed = 0, uses_anonymous_args = 0
 735              		@ link register save eliminated.
 491:HAL_Lib/STM32H7xx_HAL_Driver/Src/stm32h7xx_hal.c ****   return (READ_REG(*((uint32_t *)(UID_BASE + 4U))));
 736              		.loc 1 491 3 view .LVU154
 492:HAL_Lib/STM32H7xx_HAL_Driver/Src/stm32h7xx_hal.c **** }
 737              		.loc 1 492 1 is_stmt 0 view .LVU155
 738 0000 014B     		ldr	r3, .L67
 739 0002 D3F80408 		ldr	r0, [r3, #2052]
 740 0006 7047     		bx	lr
 741              	.L68:
 742              		.align	2
 743              	.L67:
 744 0008 00E0F11F 		.word	535945216
 745              		.cfi_endproc
 746              	.LFE161:
 748              		.section	.text.HAL_GetUIDw2,"ax",%progbits
 749              		.align	1
 750              		.global	HAL_GetUIDw2
 751              		.syntax unified
 752              		.thumb
 753              		.thumb_func
 755              	HAL_GetUIDw2:
 756              	.LFB162:
 493:HAL_Lib/STM32H7xx_HAL_Driver/Src/stm32h7xx_hal.c **** 
 494:HAL_Lib/STM32H7xx_HAL_Driver/Src/stm32h7xx_hal.c **** /**
 495:HAL_Lib/STM32H7xx_HAL_Driver/Src/stm32h7xx_hal.c ****  * @brief  Return the third word of the unique device identifier (UID based on 96 bits)
 496:HAL_Lib/STM32H7xx_HAL_Driver/Src/stm32h7xx_hal.c ****  * @retval Device identifier
 497:HAL_Lib/STM32H7xx_HAL_Driver/Src/stm32h7xx_hal.c ****  */
 498:HAL_Lib/STM32H7xx_HAL_Driver/Src/stm32h7xx_hal.c **** uint32_t HAL_GetUIDw2(void)
 499:HAL_Lib/STM32H7xx_HAL_Driver/Src/stm32h7xx_hal.c **** {
 757              		.loc 1 499 1 is_stmt 1 view -0
 758              		.cfi_startproc
 759              		@ args = 0, pretend = 0, frame = 0
 760              		@ frame_needed = 0, uses_anonymous_args = 0
 761              		@ link register save eliminated.
 500:HAL_Lib/STM32H7xx_HAL_Driver/Src/stm32h7xx_hal.c ****   return (READ_REG(*((uint32_t *)(UID_BASE + 8U))));
 762              		.loc 1 500 3 view .LVU157
 501:HAL_Lib/STM32H7xx_HAL_Driver/Src/stm32h7xx_hal.c **** }
 763              		.loc 1 501 1 is_stmt 0 view .LVU158
 764 0000 014B     		ldr	r3, .L70
 765 0002 D3F80808 		ldr	r0, [r3, #2056]
 766 0006 7047     		bx	lr
 767              	.L71:
ARM GAS  C:\Users\HUAV\AppData\Local\Temp\ccTib3Ek.s 			page 24


 768              		.align	2
 769              	.L70:
 770 0008 00E0F11F 		.word	535945216
 771              		.cfi_endproc
 772              	.LFE162:
 774              		.section	.text.HAL_SYSCFG_VREFBUF_VoltageScalingConfig,"ax",%progbits
 775              		.align	1
 776              		.global	HAL_SYSCFG_VREFBUF_VoltageScalingConfig
 777              		.syntax unified
 778              		.thumb
 779              		.thumb_func
 781              	HAL_SYSCFG_VREFBUF_VoltageScalingConfig:
 782              	.LVL26:
 783              	.LFB163:
 502:HAL_Lib/STM32H7xx_HAL_Driver/Src/stm32h7xx_hal.c **** 
 503:HAL_Lib/STM32H7xx_HAL_Driver/Src/stm32h7xx_hal.c **** /**
 504:HAL_Lib/STM32H7xx_HAL_Driver/Src/stm32h7xx_hal.c ****  * @brief Configure the internal voltage reference buffer voltage scale.
 505:HAL_Lib/STM32H7xx_HAL_Driver/Src/stm32h7xx_hal.c ****  * @param VoltageScaling  specifies the output voltage to achieve
 506:HAL_Lib/STM32H7xx_HAL_Driver/Src/stm32h7xx_hal.c ****  *          This parameter can be one of the following values:
 507:HAL_Lib/STM32H7xx_HAL_Driver/Src/stm32h7xx_hal.c ****  *            @arg SYSCFG_VREFBUF_VOLTAGE_SCALE0: VREF_OUT1 around 2.5 V.
 508:HAL_Lib/STM32H7xx_HAL_Driver/Src/stm32h7xx_hal.c ****  *                                                This requires VDDA equal to or higher than 2.8 V.
 509:HAL_Lib/STM32H7xx_HAL_Driver/Src/stm32h7xx_hal.c ****  *            @arg SYSCFG_VREFBUF_VOLTAGE_SCALE1: VREF_OUT2 around 2.048 V.
 510:HAL_Lib/STM32H7xx_HAL_Driver/Src/stm32h7xx_hal.c ****  *                                                This requires VDDA equal to or higher than 2.4 V.
 511:HAL_Lib/STM32H7xx_HAL_Driver/Src/stm32h7xx_hal.c ****  *            @arg SYSCFG_VREFBUF_VOLTAGE_SCALE2: VREF_OUT3 around 1.8 V.
 512:HAL_Lib/STM32H7xx_HAL_Driver/Src/stm32h7xx_hal.c ****  *                                                This requires VDDA equal to or higher than 2.1 V.
 513:HAL_Lib/STM32H7xx_HAL_Driver/Src/stm32h7xx_hal.c ****  *            @arg SYSCFG_VREFBUF_VOLTAGE_SCALE3: VREF_OUT4 around 1.5 V.
 514:HAL_Lib/STM32H7xx_HAL_Driver/Src/stm32h7xx_hal.c ****  *                                                This requires VDDA equal to or higher than 1.8 V.
 515:HAL_Lib/STM32H7xx_HAL_Driver/Src/stm32h7xx_hal.c ****  * @retval None
 516:HAL_Lib/STM32H7xx_HAL_Driver/Src/stm32h7xx_hal.c ****  */
 517:HAL_Lib/STM32H7xx_HAL_Driver/Src/stm32h7xx_hal.c **** void HAL_SYSCFG_VREFBUF_VoltageScalingConfig(uint32_t VoltageScaling)
 518:HAL_Lib/STM32H7xx_HAL_Driver/Src/stm32h7xx_hal.c **** {
 784              		.loc 1 518 1 is_stmt 1 view -0
 785              		.cfi_startproc
 786              		@ args = 0, pretend = 0, frame = 0
 787              		@ frame_needed = 0, uses_anonymous_args = 0
 788              		@ link register save eliminated.
 519:HAL_Lib/STM32H7xx_HAL_Driver/Src/stm32h7xx_hal.c ****   /* Check the parameters */
 520:HAL_Lib/STM32H7xx_HAL_Driver/Src/stm32h7xx_hal.c ****   assert_param(IS_SYSCFG_VREFBUF_VOLTAGE_SCALE(VoltageScaling));
 789              		.loc 1 520 3 view .LVU160
 521:HAL_Lib/STM32H7xx_HAL_Driver/Src/stm32h7xx_hal.c **** 
 522:HAL_Lib/STM32H7xx_HAL_Driver/Src/stm32h7xx_hal.c ****   MODIFY_REG(VREFBUF->CSR, VREFBUF_CSR_VRS, VoltageScaling);
 790              		.loc 1 522 3 view .LVU161
 791 0000 034A     		ldr	r2, .L73
 792 0002 1368     		ldr	r3, [r2]
 793 0004 23F07003 		bic	r3, r3, #112
 794 0008 0343     		orrs	r3, r3, r0
 795 000a 1360     		str	r3, [r2]
 523:HAL_Lib/STM32H7xx_HAL_Driver/Src/stm32h7xx_hal.c **** }
 796              		.loc 1 523 1 is_stmt 0 view .LVU162
 797 000c 7047     		bx	lr
 798              	.L74:
 799 000e 00BF     		.align	2
 800              	.L73:
 801 0010 003C0058 		.word	1476410368
 802              		.cfi_endproc
 803              	.LFE163:
 805              		.section	.text.HAL_SYSCFG_VREFBUF_HighImpedanceConfig,"ax",%progbits
ARM GAS  C:\Users\HUAV\AppData\Local\Temp\ccTib3Ek.s 			page 25


 806              		.align	1
 807              		.global	HAL_SYSCFG_VREFBUF_HighImpedanceConfig
 808              		.syntax unified
 809              		.thumb
 810              		.thumb_func
 812              	HAL_SYSCFG_VREFBUF_HighImpedanceConfig:
 813              	.LVL27:
 814              	.LFB164:
 524:HAL_Lib/STM32H7xx_HAL_Driver/Src/stm32h7xx_hal.c **** 
 525:HAL_Lib/STM32H7xx_HAL_Driver/Src/stm32h7xx_hal.c **** /**
 526:HAL_Lib/STM32H7xx_HAL_Driver/Src/stm32h7xx_hal.c ****  * @brief Configure the internal voltage reference buffer high impedance mode.
 527:HAL_Lib/STM32H7xx_HAL_Driver/Src/stm32h7xx_hal.c ****  * @param Mode  specifies the high impedance mode
 528:HAL_Lib/STM32H7xx_HAL_Driver/Src/stm32h7xx_hal.c ****  *          This parameter can be one of the following values:
 529:HAL_Lib/STM32H7xx_HAL_Driver/Src/stm32h7xx_hal.c ****  *            @arg SYSCFG_VREFBUF_HIGH_IMPEDANCE_DISABLE: VREF+ pin is internally connect to VREFIN
 530:HAL_Lib/STM32H7xx_HAL_Driver/Src/stm32h7xx_hal.c ****  *            @arg SYSCFG_VREFBUF_HIGH_IMPEDANCE_ENABLE: VREF+ pin is high impedance.
 531:HAL_Lib/STM32H7xx_HAL_Driver/Src/stm32h7xx_hal.c ****  * @retval None
 532:HAL_Lib/STM32H7xx_HAL_Driver/Src/stm32h7xx_hal.c ****  */
 533:HAL_Lib/STM32H7xx_HAL_Driver/Src/stm32h7xx_hal.c **** void HAL_SYSCFG_VREFBUF_HighImpedanceConfig(uint32_t Mode)
 534:HAL_Lib/STM32H7xx_HAL_Driver/Src/stm32h7xx_hal.c **** {
 815              		.loc 1 534 1 is_stmt 1 view -0
 816              		.cfi_startproc
 817              		@ args = 0, pretend = 0, frame = 0
 818              		@ frame_needed = 0, uses_anonymous_args = 0
 819              		@ link register save eliminated.
 535:HAL_Lib/STM32H7xx_HAL_Driver/Src/stm32h7xx_hal.c ****   /* Check the parameters */
 536:HAL_Lib/STM32H7xx_HAL_Driver/Src/stm32h7xx_hal.c ****   assert_param(IS_SYSCFG_VREFBUF_HIGH_IMPEDANCE(Mode));
 820              		.loc 1 536 3 view .LVU164
 537:HAL_Lib/STM32H7xx_HAL_Driver/Src/stm32h7xx_hal.c **** 
 538:HAL_Lib/STM32H7xx_HAL_Driver/Src/stm32h7xx_hal.c ****   MODIFY_REG(VREFBUF->CSR, VREFBUF_CSR_HIZ, Mode);
 821              		.loc 1 538 3 view .LVU165
 822 0000 034A     		ldr	r2, .L76
 823 0002 1368     		ldr	r3, [r2]
 824 0004 23F00203 		bic	r3, r3, #2
 825 0008 0343     		orrs	r3, r3, r0
 826 000a 1360     		str	r3, [r2]
 539:HAL_Lib/STM32H7xx_HAL_Driver/Src/stm32h7xx_hal.c **** }
 827              		.loc 1 539 1 is_stmt 0 view .LVU166
 828 000c 7047     		bx	lr
 829              	.L77:
 830 000e 00BF     		.align	2
 831              	.L76:
 832 0010 003C0058 		.word	1476410368
 833              		.cfi_endproc
 834              	.LFE164:
 836              		.section	.text.HAL_SYSCFG_VREFBUF_TrimmingConfig,"ax",%progbits
 837              		.align	1
 838              		.global	HAL_SYSCFG_VREFBUF_TrimmingConfig
 839              		.syntax unified
 840              		.thumb
 841              		.thumb_func
 843              	HAL_SYSCFG_VREFBUF_TrimmingConfig:
 844              	.LVL28:
 845              	.LFB165:
 540:HAL_Lib/STM32H7xx_HAL_Driver/Src/stm32h7xx_hal.c **** 
 541:HAL_Lib/STM32H7xx_HAL_Driver/Src/stm32h7xx_hal.c **** /**
 542:HAL_Lib/STM32H7xx_HAL_Driver/Src/stm32h7xx_hal.c ****  * @brief  Tune the Internal Voltage Reference buffer (VREFBUF).
 543:HAL_Lib/STM32H7xx_HAL_Driver/Src/stm32h7xx_hal.c ****  * @retval None
ARM GAS  C:\Users\HUAV\AppData\Local\Temp\ccTib3Ek.s 			page 26


 544:HAL_Lib/STM32H7xx_HAL_Driver/Src/stm32h7xx_hal.c ****  */
 545:HAL_Lib/STM32H7xx_HAL_Driver/Src/stm32h7xx_hal.c **** void HAL_SYSCFG_VREFBUF_TrimmingConfig(uint32_t TrimmingValue)
 546:HAL_Lib/STM32H7xx_HAL_Driver/Src/stm32h7xx_hal.c **** {
 846              		.loc 1 546 1 is_stmt 1 view -0
 847              		.cfi_startproc
 848              		@ args = 0, pretend = 0, frame = 0
 849              		@ frame_needed = 0, uses_anonymous_args = 0
 850              		@ link register save eliminated.
 547:HAL_Lib/STM32H7xx_HAL_Driver/Src/stm32h7xx_hal.c ****   /* Check the parameters */
 548:HAL_Lib/STM32H7xx_HAL_Driver/Src/stm32h7xx_hal.c ****   assert_param(IS_SYSCFG_VREFBUF_TRIMMING(TrimmingValue));
 851              		.loc 1 548 3 view .LVU168
 549:HAL_Lib/STM32H7xx_HAL_Driver/Src/stm32h7xx_hal.c **** 
 550:HAL_Lib/STM32H7xx_HAL_Driver/Src/stm32h7xx_hal.c ****   MODIFY_REG(VREFBUF->CCR, VREFBUF_CCR_TRIM, TrimmingValue);
 852              		.loc 1 550 3 view .LVU169
 853 0000 034A     		ldr	r2, .L79
 854 0002 5368     		ldr	r3, [r2, #4]
 855 0004 23F03F03 		bic	r3, r3, #63
 856 0008 0343     		orrs	r3, r3, r0
 857 000a 5360     		str	r3, [r2, #4]
 551:HAL_Lib/STM32H7xx_HAL_Driver/Src/stm32h7xx_hal.c **** }
 858              		.loc 1 551 1 is_stmt 0 view .LVU170
 859 000c 7047     		bx	lr
 860              	.L80:
 861 000e 00BF     		.align	2
 862              	.L79:
 863 0010 003C0058 		.word	1476410368
 864              		.cfi_endproc
 865              	.LFE165:
 867              		.section	.text.HAL_SYSCFG_EnableVREFBUF,"ax",%progbits
 868              		.align	1
 869              		.global	HAL_SYSCFG_EnableVREFBUF
 870              		.syntax unified
 871              		.thumb
 872              		.thumb_func
 874              	HAL_SYSCFG_EnableVREFBUF:
 875              	.LFB166:
 552:HAL_Lib/STM32H7xx_HAL_Driver/Src/stm32h7xx_hal.c **** 
 553:HAL_Lib/STM32H7xx_HAL_Driver/Src/stm32h7xx_hal.c **** /**
 554:HAL_Lib/STM32H7xx_HAL_Driver/Src/stm32h7xx_hal.c ****  * @brief  Enable the Internal Voltage Reference buffer (VREFBUF).
 555:HAL_Lib/STM32H7xx_HAL_Driver/Src/stm32h7xx_hal.c ****  * @retval HAL_OK/HAL_TIMEOUT
 556:HAL_Lib/STM32H7xx_HAL_Driver/Src/stm32h7xx_hal.c ****  */
 557:HAL_Lib/STM32H7xx_HAL_Driver/Src/stm32h7xx_hal.c **** HAL_StatusTypeDef HAL_SYSCFG_EnableVREFBUF(void)
 558:HAL_Lib/STM32H7xx_HAL_Driver/Src/stm32h7xx_hal.c **** {
 876              		.loc 1 558 1 is_stmt 1 view -0
 877              		.cfi_startproc
 878              		@ args = 0, pretend = 0, frame = 0
 879              		@ frame_needed = 0, uses_anonymous_args = 0
 880 0000 10B5     		push	{r4, lr}
 881              	.LCFI5:
 882              		.cfi_def_cfa_offset 8
 883              		.cfi_offset 4, -8
 884              		.cfi_offset 14, -4
 559:HAL_Lib/STM32H7xx_HAL_Driver/Src/stm32h7xx_hal.c ****   uint32_t tickstart;
 885              		.loc 1 559 3 view .LVU172
 560:HAL_Lib/STM32H7xx_HAL_Driver/Src/stm32h7xx_hal.c **** 
 561:HAL_Lib/STM32H7xx_HAL_Driver/Src/stm32h7xx_hal.c ****   SET_BIT(VREFBUF->CSR, VREFBUF_CSR_ENVR);
 886              		.loc 1 561 3 view .LVU173
ARM GAS  C:\Users\HUAV\AppData\Local\Temp\ccTib3Ek.s 			page 27


 887 0002 0B4A     		ldr	r2, .L88
 888 0004 1368     		ldr	r3, [r2]
 889 0006 43F00103 		orr	r3, r3, #1
 890 000a 1360     		str	r3, [r2]
 562:HAL_Lib/STM32H7xx_HAL_Driver/Src/stm32h7xx_hal.c **** 
 563:HAL_Lib/STM32H7xx_HAL_Driver/Src/stm32h7xx_hal.c ****   /* Get Start Tick*/
 564:HAL_Lib/STM32H7xx_HAL_Driver/Src/stm32h7xx_hal.c ****   tickstart = HAL_GetTick();
 891              		.loc 1 564 3 view .LVU174
 892              		.loc 1 564 15 is_stmt 0 view .LVU175
 893 000c FFF7FEFF 		bl	HAL_GetTick
 894              	.LVL29:
 895 0010 0446     		mov	r4, r0
 896              	.LVL30:
 565:HAL_Lib/STM32H7xx_HAL_Driver/Src/stm32h7xx_hal.c **** 
 566:HAL_Lib/STM32H7xx_HAL_Driver/Src/stm32h7xx_hal.c ****   /* Wait for VRR bit  */
 567:HAL_Lib/STM32H7xx_HAL_Driver/Src/stm32h7xx_hal.c ****   while (READ_BIT(VREFBUF->CSR, VREFBUF_CSR_VRR) == 0UL)
 897              		.loc 1 567 3 is_stmt 1 view .LVU176
 898              	.L82:
 899              		.loc 1 567 9 view .LVU177
 900              		.loc 1 567 10 is_stmt 0 view .LVU178
 901 0012 074B     		ldr	r3, .L88
 902 0014 1B68     		ldr	r3, [r3]
 903              		.loc 1 567 9 view .LVU179
 904 0016 13F0080F 		tst	r3, #8
 905 001a 06D1     		bne	.L87
 568:HAL_Lib/STM32H7xx_HAL_Driver/Src/stm32h7xx_hal.c ****   {
 569:HAL_Lib/STM32H7xx_HAL_Driver/Src/stm32h7xx_hal.c ****     if ((HAL_GetTick() - tickstart) > VREFBUF_TIMEOUT_VALUE)
 906              		.loc 1 569 5 is_stmt 1 view .LVU180
 907              		.loc 1 569 10 is_stmt 0 view .LVU181
 908 001c FFF7FEFF 		bl	HAL_GetTick
 909              	.LVL31:
 910              		.loc 1 569 24 view .LVU182
 911 0020 001B     		subs	r0, r0, r4
 912              		.loc 1 569 8 view .LVU183
 913 0022 0A28     		cmp	r0, #10
 914 0024 F5D9     		bls	.L82
 570:HAL_Lib/STM32H7xx_HAL_Driver/Src/stm32h7xx_hal.c ****     {
 571:HAL_Lib/STM32H7xx_HAL_Driver/Src/stm32h7xx_hal.c ****       return HAL_TIMEOUT;
 915              		.loc 1 571 14 view .LVU184
 916 0026 0320     		movs	r0, #3
 917 0028 00E0     		b	.L83
 918              	.L87:
 572:HAL_Lib/STM32H7xx_HAL_Driver/Src/stm32h7xx_hal.c ****     }
 573:HAL_Lib/STM32H7xx_HAL_Driver/Src/stm32h7xx_hal.c ****   }
 574:HAL_Lib/STM32H7xx_HAL_Driver/Src/stm32h7xx_hal.c **** 
 575:HAL_Lib/STM32H7xx_HAL_Driver/Src/stm32h7xx_hal.c ****   return HAL_OK;
 919              		.loc 1 575 10 view .LVU185
 920 002a 0020     		movs	r0, #0
 921              	.L83:
 576:HAL_Lib/STM32H7xx_HAL_Driver/Src/stm32h7xx_hal.c **** }
 922              		.loc 1 576 1 view .LVU186
 923 002c 10BD     		pop	{r4, pc}
 924              	.LVL32:
 925              	.L89:
 926              		.loc 1 576 1 view .LVU187
 927 002e 00BF     		.align	2
 928              	.L88:
ARM GAS  C:\Users\HUAV\AppData\Local\Temp\ccTib3Ek.s 			page 28


 929 0030 003C0058 		.word	1476410368
 930              		.cfi_endproc
 931              	.LFE166:
 933              		.section	.text.HAL_SYSCFG_DisableVREFBUF,"ax",%progbits
 934              		.align	1
 935              		.global	HAL_SYSCFG_DisableVREFBUF
 936              		.syntax unified
 937              		.thumb
 938              		.thumb_func
 940              	HAL_SYSCFG_DisableVREFBUF:
 941              	.LFB167:
 577:HAL_Lib/STM32H7xx_HAL_Driver/Src/stm32h7xx_hal.c **** 
 578:HAL_Lib/STM32H7xx_HAL_Driver/Src/stm32h7xx_hal.c **** /**
 579:HAL_Lib/STM32H7xx_HAL_Driver/Src/stm32h7xx_hal.c ****  * @brief  Disable the Internal Voltage Reference buffer (VREFBUF).
 580:HAL_Lib/STM32H7xx_HAL_Driver/Src/stm32h7xx_hal.c ****  *
 581:HAL_Lib/STM32H7xx_HAL_Driver/Src/stm32h7xx_hal.c ****  * @retval None
 582:HAL_Lib/STM32H7xx_HAL_Driver/Src/stm32h7xx_hal.c ****  */
 583:HAL_Lib/STM32H7xx_HAL_Driver/Src/stm32h7xx_hal.c **** void HAL_SYSCFG_DisableVREFBUF(void)
 584:HAL_Lib/STM32H7xx_HAL_Driver/Src/stm32h7xx_hal.c **** {
 942              		.loc 1 584 1 is_stmt 1 view -0
 943              		.cfi_startproc
 944              		@ args = 0, pretend = 0, frame = 0
 945              		@ frame_needed = 0, uses_anonymous_args = 0
 946              		@ link register save eliminated.
 585:HAL_Lib/STM32H7xx_HAL_Driver/Src/stm32h7xx_hal.c ****   CLEAR_BIT(VREFBUF->CSR, VREFBUF_CSR_ENVR);
 947              		.loc 1 585 3 view .LVU189
 948 0000 024A     		ldr	r2, .L91
 949 0002 1368     		ldr	r3, [r2]
 950 0004 23F00103 		bic	r3, r3, #1
 951 0008 1360     		str	r3, [r2]
 586:HAL_Lib/STM32H7xx_HAL_Driver/Src/stm32h7xx_hal.c **** }
 952              		.loc 1 586 1 is_stmt 0 view .LVU190
 953 000a 7047     		bx	lr
 954              	.L92:
 955              		.align	2
 956              	.L91:
 957 000c 003C0058 		.word	1476410368
 958              		.cfi_endproc
 959              	.LFE167:
 961              		.section	.text.HAL_SYSCFG_ETHInterfaceSelect,"ax",%progbits
 962              		.align	1
 963              		.global	HAL_SYSCFG_ETHInterfaceSelect
 964              		.syntax unified
 965              		.thumb
 966              		.thumb_func
 968              	HAL_SYSCFG_ETHInterfaceSelect:
 969              	.LVL33:
 970              	.LFB168:
 587:HAL_Lib/STM32H7xx_HAL_Driver/Src/stm32h7xx_hal.c **** 
 588:HAL_Lib/STM32H7xx_HAL_Driver/Src/stm32h7xx_hal.c **** #if defined(SYSCFG_PMCR_EPIS_SEL)
 589:HAL_Lib/STM32H7xx_HAL_Driver/Src/stm32h7xx_hal.c **** /**
 590:HAL_Lib/STM32H7xx_HAL_Driver/Src/stm32h7xx_hal.c ****  * @brief  Ethernet PHY Interface Selection either MII or RMII
 591:HAL_Lib/STM32H7xx_HAL_Driver/Src/stm32h7xx_hal.c ****  * @param  SYSCFG_ETHInterface: Selects the Ethernet PHY interface
 592:HAL_Lib/STM32H7xx_HAL_Driver/Src/stm32h7xx_hal.c ****  *   This parameter can be one of the following values:
 593:HAL_Lib/STM32H7xx_HAL_Driver/Src/stm32h7xx_hal.c ****  *   @arg SYSCFG_ETH_MII : Select the Media Independent Interface
 594:HAL_Lib/STM32H7xx_HAL_Driver/Src/stm32h7xx_hal.c ****  *   @arg SYSCFG_ETH_RMII: Select the Reduced Media Independent Interface
 595:HAL_Lib/STM32H7xx_HAL_Driver/Src/stm32h7xx_hal.c ****  * @retval None
ARM GAS  C:\Users\HUAV\AppData\Local\Temp\ccTib3Ek.s 			page 29


 596:HAL_Lib/STM32H7xx_HAL_Driver/Src/stm32h7xx_hal.c ****  */
 597:HAL_Lib/STM32H7xx_HAL_Driver/Src/stm32h7xx_hal.c **** void HAL_SYSCFG_ETHInterfaceSelect(uint32_t SYSCFG_ETHInterface)
 598:HAL_Lib/STM32H7xx_HAL_Driver/Src/stm32h7xx_hal.c **** {
 971              		.loc 1 598 1 is_stmt 1 view -0
 972              		.cfi_startproc
 973              		@ args = 0, pretend = 0, frame = 0
 974              		@ frame_needed = 0, uses_anonymous_args = 0
 975              		@ link register save eliminated.
 599:HAL_Lib/STM32H7xx_HAL_Driver/Src/stm32h7xx_hal.c ****   /* Check the parameter */
 600:HAL_Lib/STM32H7xx_HAL_Driver/Src/stm32h7xx_hal.c ****   assert_param(IS_SYSCFG_ETHERNET_CONFIG(SYSCFG_ETHInterface));
 976              		.loc 1 600 3 view .LVU192
 601:HAL_Lib/STM32H7xx_HAL_Driver/Src/stm32h7xx_hal.c **** 
 602:HAL_Lib/STM32H7xx_HAL_Driver/Src/stm32h7xx_hal.c ****   MODIFY_REG(SYSCFG->PMCR, SYSCFG_PMCR_EPIS_SEL, (uint32_t)(SYSCFG_ETHInterface));
 977              		.loc 1 602 3 view .LVU193
 978 0000 034A     		ldr	r2, .L94
 979 0002 5368     		ldr	r3, [r2, #4]
 980 0004 23F46003 		bic	r3, r3, #14680064
 981 0008 0343     		orrs	r3, r3, r0
 982 000a 5360     		str	r3, [r2, #4]
 603:HAL_Lib/STM32H7xx_HAL_Driver/Src/stm32h7xx_hal.c **** }
 983              		.loc 1 603 1 is_stmt 0 view .LVU194
 984 000c 7047     		bx	lr
 985              	.L95:
 986 000e 00BF     		.align	2
 987              	.L94:
 988 0010 00040058 		.word	1476396032
 989              		.cfi_endproc
 990              	.LFE168:
 992              		.section	.text.HAL_SYSCFG_AnalogSwitchConfig,"ax",%progbits
 993              		.align	1
 994              		.global	HAL_SYSCFG_AnalogSwitchConfig
 995              		.syntax unified
 996              		.thumb
 997              		.thumb_func
 999              	HAL_SYSCFG_AnalogSwitchConfig:
 1000              	.LVL34:
 1001              	.LFB169:
 604:HAL_Lib/STM32H7xx_HAL_Driver/Src/stm32h7xx_hal.c **** #endif /* SYSCFG_PMCR_EPIS_SEL */
 605:HAL_Lib/STM32H7xx_HAL_Driver/Src/stm32h7xx_hal.c **** 
 606:HAL_Lib/STM32H7xx_HAL_Driver/Src/stm32h7xx_hal.c **** /**
 607:HAL_Lib/STM32H7xx_HAL_Driver/Src/stm32h7xx_hal.c ****  * @brief  Analog Switch control for dual analog pads.
 608:HAL_Lib/STM32H7xx_HAL_Driver/Src/stm32h7xx_hal.c ****  * @param  SYSCFG_AnalogSwitch: Selects the analog pad
 609:HAL_Lib/STM32H7xx_HAL_Driver/Src/stm32h7xx_hal.c ****  *   This parameter can be one or a combination of the following values:
 610:HAL_Lib/STM32H7xx_HAL_Driver/Src/stm32h7xx_hal.c ****  *   @arg SYSCFG_SWITCH_PA0 : Select PA0 analog switch
 611:HAL_Lib/STM32H7xx_HAL_Driver/Src/stm32h7xx_hal.c ****  *   @arg SYSCFG_SWITCH_PA1:  Select PA1 analog switch
 612:HAL_Lib/STM32H7xx_HAL_Driver/Src/stm32h7xx_hal.c ****  *   @arg SYSCFG_SWITCH_PC2 : Select PC2 analog switch
 613:HAL_Lib/STM32H7xx_HAL_Driver/Src/stm32h7xx_hal.c ****  *   @arg SYSCFG_SWITCH_PC3:  Select PC3 analog switch
 614:HAL_Lib/STM32H7xx_HAL_Driver/Src/stm32h7xx_hal.c ****  * @param  SYSCFG_SwitchState: Open or Close the analog switch between dual pads (PXn and PXn_C)
 615:HAL_Lib/STM32H7xx_HAL_Driver/Src/stm32h7xx_hal.c ****  *   This parameter can be one or a combination of the following values:
 616:HAL_Lib/STM32H7xx_HAL_Driver/Src/stm32h7xx_hal.c ****  *   @arg SYSCFG_SWITCH_PA0_OPEN
 617:HAL_Lib/STM32H7xx_HAL_Driver/Src/stm32h7xx_hal.c ****  *   @arg SYSCFG_SWITCH_PA0_CLOSE
 618:HAL_Lib/STM32H7xx_HAL_Driver/Src/stm32h7xx_hal.c ****  *   @arg SYSCFG_SWITCH_PA1_OPEN
 619:HAL_Lib/STM32H7xx_HAL_Driver/Src/stm32h7xx_hal.c ****  *   @arg SYSCFG_SWITCH_PA1_CLOSE
 620:HAL_Lib/STM32H7xx_HAL_Driver/Src/stm32h7xx_hal.c ****  *   @arg SYSCFG_SWITCH_PC2_OPEN
 621:HAL_Lib/STM32H7xx_HAL_Driver/Src/stm32h7xx_hal.c ****  *   @arg SYSCFG_SWITCH_PC2_CLOSE
 622:HAL_Lib/STM32H7xx_HAL_Driver/Src/stm32h7xx_hal.c ****  *   @arg SYSCFG_SWITCH_PC3_OPEN
 623:HAL_Lib/STM32H7xx_HAL_Driver/Src/stm32h7xx_hal.c ****  *   @arg SYSCFG_SWITCH_PC3_CLOSE
ARM GAS  C:\Users\HUAV\AppData\Local\Temp\ccTib3Ek.s 			page 30


 624:HAL_Lib/STM32H7xx_HAL_Driver/Src/stm32h7xx_hal.c ****  * @retval None
 625:HAL_Lib/STM32H7xx_HAL_Driver/Src/stm32h7xx_hal.c ****  */
 626:HAL_Lib/STM32H7xx_HAL_Driver/Src/stm32h7xx_hal.c **** 
 627:HAL_Lib/STM32H7xx_HAL_Driver/Src/stm32h7xx_hal.c **** void HAL_SYSCFG_AnalogSwitchConfig(uint32_t SYSCFG_AnalogSwitch, uint32_t SYSCFG_SwitchState)
 628:HAL_Lib/STM32H7xx_HAL_Driver/Src/stm32h7xx_hal.c **** {
 1002              		.loc 1 628 1 is_stmt 1 view -0
 1003              		.cfi_startproc
 1004              		@ args = 0, pretend = 0, frame = 0
 1005              		@ frame_needed = 0, uses_anonymous_args = 0
 1006              		@ link register save eliminated.
 629:HAL_Lib/STM32H7xx_HAL_Driver/Src/stm32h7xx_hal.c ****   /* Check the parameter */
 630:HAL_Lib/STM32H7xx_HAL_Driver/Src/stm32h7xx_hal.c ****   assert_param(IS_SYSCFG_ANALOG_SWITCH(SYSCFG_AnalogSwitch));
 1007              		.loc 1 630 3 view .LVU196
 631:HAL_Lib/STM32H7xx_HAL_Driver/Src/stm32h7xx_hal.c ****   assert_param(IS_SYSCFG_SWITCH_STATE(SYSCFG_SwitchState));
 1008              		.loc 1 631 3 view .LVU197
 632:HAL_Lib/STM32H7xx_HAL_Driver/Src/stm32h7xx_hal.c **** 
 633:HAL_Lib/STM32H7xx_HAL_Driver/Src/stm32h7xx_hal.c ****   MODIFY_REG(SYSCFG->PMCR, (uint32_t)SYSCFG_AnalogSwitch, (uint32_t)(SYSCFG_SwitchState));
 1009              		.loc 1 633 3 view .LVU198
 1010 0000 034A     		ldr	r2, .L97
 1011 0002 5368     		ldr	r3, [r2, #4]
 1012 0004 23EA0003 		bic	r3, r3, r0
 1013 0008 0B43     		orrs	r3, r3, r1
 1014 000a 5360     		str	r3, [r2, #4]
 634:HAL_Lib/STM32H7xx_HAL_Driver/Src/stm32h7xx_hal.c **** }
 1015              		.loc 1 634 1 is_stmt 0 view .LVU199
 1016 000c 7047     		bx	lr
 1017              	.L98:
 1018 000e 00BF     		.align	2
 1019              	.L97:
 1020 0010 00040058 		.word	1476396032
 1021              		.cfi_endproc
 1022              	.LFE169:
 1024              		.section	.text.HAL_SYSCFG_EnableBOOST,"ax",%progbits
 1025              		.align	1
 1026              		.global	HAL_SYSCFG_EnableBOOST
 1027              		.syntax unified
 1028              		.thumb
 1029              		.thumb_func
 1031              	HAL_SYSCFG_EnableBOOST:
 1032              	.LFB170:
 635:HAL_Lib/STM32H7xx_HAL_Driver/Src/stm32h7xx_hal.c **** 
 636:HAL_Lib/STM32H7xx_HAL_Driver/Src/stm32h7xx_hal.c **** #if defined(SYSCFG_PMCR_BOOSTEN)
 637:HAL_Lib/STM32H7xx_HAL_Driver/Src/stm32h7xx_hal.c **** /**
 638:HAL_Lib/STM32H7xx_HAL_Driver/Src/stm32h7xx_hal.c ****  * @brief  Enables the booster to reduce the total harmonic distortion of the analog
 639:HAL_Lib/STM32H7xx_HAL_Driver/Src/stm32h7xx_hal.c ****  *         switch when the supply voltage is lower than 2.7 V.
 640:HAL_Lib/STM32H7xx_HAL_Driver/Src/stm32h7xx_hal.c ****  * @note   Activating the booster allows to guaranty the analog switch AC performance
 641:HAL_Lib/STM32H7xx_HAL_Driver/Src/stm32h7xx_hal.c ****  *         when the supply voltage is below 2.7 V: in this case, the analog switch
 642:HAL_Lib/STM32H7xx_HAL_Driver/Src/stm32h7xx_hal.c ****  *         performance is the same on the full voltage range
 643:HAL_Lib/STM32H7xx_HAL_Driver/Src/stm32h7xx_hal.c ****  * @retval None
 644:HAL_Lib/STM32H7xx_HAL_Driver/Src/stm32h7xx_hal.c ****  */
 645:HAL_Lib/STM32H7xx_HAL_Driver/Src/stm32h7xx_hal.c **** void HAL_SYSCFG_EnableBOOST(void)
 646:HAL_Lib/STM32H7xx_HAL_Driver/Src/stm32h7xx_hal.c **** {
 1033              		.loc 1 646 1 is_stmt 1 view -0
 1034              		.cfi_startproc
 1035              		@ args = 0, pretend = 0, frame = 0
 1036              		@ frame_needed = 0, uses_anonymous_args = 0
 1037              		@ link register save eliminated.
ARM GAS  C:\Users\HUAV\AppData\Local\Temp\ccTib3Ek.s 			page 31


 647:HAL_Lib/STM32H7xx_HAL_Driver/Src/stm32h7xx_hal.c ****   SET_BIT(SYSCFG->PMCR, SYSCFG_PMCR_BOOSTEN);
 1038              		.loc 1 647 3 view .LVU201
 1039 0000 024A     		ldr	r2, .L100
 1040 0002 5368     		ldr	r3, [r2, #4]
 1041 0004 43F48073 		orr	r3, r3, #256
 1042 0008 5360     		str	r3, [r2, #4]
 648:HAL_Lib/STM32H7xx_HAL_Driver/Src/stm32h7xx_hal.c **** }
 1043              		.loc 1 648 1 is_stmt 0 view .LVU202
 1044 000a 7047     		bx	lr
 1045              	.L101:
 1046              		.align	2
 1047              	.L100:
 1048 000c 00040058 		.word	1476396032
 1049              		.cfi_endproc
 1050              	.LFE170:
 1052              		.section	.text.HAL_SYSCFG_DisableBOOST,"ax",%progbits
 1053              		.align	1
 1054              		.global	HAL_SYSCFG_DisableBOOST
 1055              		.syntax unified
 1056              		.thumb
 1057              		.thumb_func
 1059              	HAL_SYSCFG_DisableBOOST:
 1060              	.LFB171:
 649:HAL_Lib/STM32H7xx_HAL_Driver/Src/stm32h7xx_hal.c **** 
 650:HAL_Lib/STM32H7xx_HAL_Driver/Src/stm32h7xx_hal.c **** /**
 651:HAL_Lib/STM32H7xx_HAL_Driver/Src/stm32h7xx_hal.c ****  * @brief  Disables the booster
 652:HAL_Lib/STM32H7xx_HAL_Driver/Src/stm32h7xx_hal.c ****  * @note   Activating the booster allows to guaranty the analog switch AC performance
 653:HAL_Lib/STM32H7xx_HAL_Driver/Src/stm32h7xx_hal.c ****  *         when the supply voltage is below 2.7 V: in this case, the analog switch
 654:HAL_Lib/STM32H7xx_HAL_Driver/Src/stm32h7xx_hal.c ****  *         performance is the same on the full voltage range
 655:HAL_Lib/STM32H7xx_HAL_Driver/Src/stm32h7xx_hal.c ****  * @retval None
 656:HAL_Lib/STM32H7xx_HAL_Driver/Src/stm32h7xx_hal.c ****  */
 657:HAL_Lib/STM32H7xx_HAL_Driver/Src/stm32h7xx_hal.c **** void HAL_SYSCFG_DisableBOOST(void)
 658:HAL_Lib/STM32H7xx_HAL_Driver/Src/stm32h7xx_hal.c **** {
 1061              		.loc 1 658 1 is_stmt 1 view -0
 1062              		.cfi_startproc
 1063              		@ args = 0, pretend = 0, frame = 0
 1064              		@ frame_needed = 0, uses_anonymous_args = 0
 1065              		@ link register save eliminated.
 659:HAL_Lib/STM32H7xx_HAL_Driver/Src/stm32h7xx_hal.c ****   CLEAR_BIT(SYSCFG->PMCR, SYSCFG_PMCR_BOOSTEN);
 1066              		.loc 1 659 3 view .LVU204
 1067 0000 024A     		ldr	r2, .L103
 1068 0002 5368     		ldr	r3, [r2, #4]
 1069 0004 23F48073 		bic	r3, r3, #256
 1070 0008 5360     		str	r3, [r2, #4]
 660:HAL_Lib/STM32H7xx_HAL_Driver/Src/stm32h7xx_hal.c **** }
 1071              		.loc 1 660 1 is_stmt 0 view .LVU205
 1072 000a 7047     		bx	lr
 1073              	.L104:
 1074              		.align	2
 1075              	.L103:
 1076 000c 00040058 		.word	1476396032
 1077              		.cfi_endproc
 1078              	.LFE171:
 1080              		.section	.text.HAL_SYSCFG_CM7BootAddConfig,"ax",%progbits
 1081              		.align	1
 1082              		.global	HAL_SYSCFG_CM7BootAddConfig
 1083              		.syntax unified
ARM GAS  C:\Users\HUAV\AppData\Local\Temp\ccTib3Ek.s 			page 32


 1084              		.thumb
 1085              		.thumb_func
 1087              	HAL_SYSCFG_CM7BootAddConfig:
 1088              	.LVL35:
 1089              	.LFB172:
 661:HAL_Lib/STM32H7xx_HAL_Driver/Src/stm32h7xx_hal.c **** #endif /* SYSCFG_PMCR_BOOSTEN */
 662:HAL_Lib/STM32H7xx_HAL_Driver/Src/stm32h7xx_hal.c **** 
 663:HAL_Lib/STM32H7xx_HAL_Driver/Src/stm32h7xx_hal.c **** #if defined(SYSCFG_UR2_BOOT_ADD0) || defined(SYSCFG_UR2_BCM7_ADD0)
 664:HAL_Lib/STM32H7xx_HAL_Driver/Src/stm32h7xx_hal.c **** /**
 665:HAL_Lib/STM32H7xx_HAL_Driver/Src/stm32h7xx_hal.c ****  * @brief  BootCM7 address 0 configuration
 666:HAL_Lib/STM32H7xx_HAL_Driver/Src/stm32h7xx_hal.c ****  * @param  BootRegister :Specifies the Boot Address register (Address0 or Address1)
 667:HAL_Lib/STM32H7xx_HAL_Driver/Src/stm32h7xx_hal.c ****  *   This parameter can be one of the following values:
 668:HAL_Lib/STM32H7xx_HAL_Driver/Src/stm32h7xx_hal.c ****  *   @arg SYSCFG_BOOT_ADDR0 : Select the boot address0
 669:HAL_Lib/STM32H7xx_HAL_Driver/Src/stm32h7xx_hal.c ****  *   @arg SYSCFG_BOOT_ADDR1:  Select the boot address1
 670:HAL_Lib/STM32H7xx_HAL_Driver/Src/stm32h7xx_hal.c ****  * @param  BootAddress :Specifies the CM7 Boot Address to be loaded in Address0 or Address1
 671:HAL_Lib/STM32H7xx_HAL_Driver/Src/stm32h7xx_hal.c ****  * @retval None
 672:HAL_Lib/STM32H7xx_HAL_Driver/Src/stm32h7xx_hal.c ****  */
 673:HAL_Lib/STM32H7xx_HAL_Driver/Src/stm32h7xx_hal.c **** void HAL_SYSCFG_CM7BootAddConfig(uint32_t BootRegister, uint32_t BootAddress)
 674:HAL_Lib/STM32H7xx_HAL_Driver/Src/stm32h7xx_hal.c **** {
 1090              		.loc 1 674 1 is_stmt 1 view -0
 1091              		.cfi_startproc
 1092              		@ args = 0, pretend = 0, frame = 0
 1093              		@ frame_needed = 0, uses_anonymous_args = 0
 1094              		@ link register save eliminated.
 675:HAL_Lib/STM32H7xx_HAL_Driver/Src/stm32h7xx_hal.c ****   /* Check the parameters */
 676:HAL_Lib/STM32H7xx_HAL_Driver/Src/stm32h7xx_hal.c ****   assert_param(IS_SYSCFG_BOOT_REGISTER(BootRegister));
 1095              		.loc 1 676 3 view .LVU207
 677:HAL_Lib/STM32H7xx_HAL_Driver/Src/stm32h7xx_hal.c ****   assert_param(IS_SYSCFG_BOOT_ADDRESS(BootAddress));
 1096              		.loc 1 677 3 view .LVU208
 678:HAL_Lib/STM32H7xx_HAL_Driver/Src/stm32h7xx_hal.c ****   if (BootRegister == SYSCFG_BOOT_ADDR0)
 1097              		.loc 1 678 3 view .LVU209
 1098              		.loc 1 678 6 is_stmt 0 view .LVU210
 1099 0000 48B9     		cbnz	r0, .L106
 679:HAL_Lib/STM32H7xx_HAL_Driver/Src/stm32h7xx_hal.c ****   {
 680:HAL_Lib/STM32H7xx_HAL_Driver/Src/stm32h7xx_hal.c ****     /* Configure CM7 BOOT ADD0 */
 681:HAL_Lib/STM32H7xx_HAL_Driver/Src/stm32h7xx_hal.c **** #if defined(DUAL_CORE)
 682:HAL_Lib/STM32H7xx_HAL_Driver/Src/stm32h7xx_hal.c ****     MODIFY_REG(SYSCFG->UR2, SYSCFG_UR2_BCM7_ADD0, ((BootAddress >> 16) << SYSCFG_UR2_BCM7_ADD0_Pos)
 683:HAL_Lib/STM32H7xx_HAL_Driver/Src/stm32h7xx_hal.c **** #else
 684:HAL_Lib/STM32H7xx_HAL_Driver/Src/stm32h7xx_hal.c ****     MODIFY_REG(SYSCFG->UR2, SYSCFG_UR2_BOOT_ADD0, ((BootAddress >> 16) << SYSCFG_UR2_BOOT_ADD0_Pos)
 1100              		.loc 1 684 5 is_stmt 1 view .LVU211
 1101 0002 0A48     		ldr	r0, .L108
 1102              	.LVL36:
 1103              		.loc 1 684 5 is_stmt 0 view .LVU212
 1104 0004 D0F80833 		ldr	r3, [r0, #776]
 1105 0008 9BB2     		uxth	r3, r3
 1106 000a 094A     		ldr	r2, .L108+4
 1107 000c 0A40     		ands	r2, r2, r1
 1108 000e 1343     		orrs	r3, r3, r2
 1109 0010 C0F80833 		str	r3, [r0, #776]
 1110 0014 7047     		bx	lr
 1111              	.LVL37:
 1112              	.L106:
 685:HAL_Lib/STM32H7xx_HAL_Driver/Src/stm32h7xx_hal.c **** #endif /*DUAL_CORE*/
 686:HAL_Lib/STM32H7xx_HAL_Driver/Src/stm32h7xx_hal.c ****   }
 687:HAL_Lib/STM32H7xx_HAL_Driver/Src/stm32h7xx_hal.c ****   else
 688:HAL_Lib/STM32H7xx_HAL_Driver/Src/stm32h7xx_hal.c ****   {
 689:HAL_Lib/STM32H7xx_HAL_Driver/Src/stm32h7xx_hal.c ****     /* Configure CM7 BOOT ADD1 */
ARM GAS  C:\Users\HUAV\AppData\Local\Temp\ccTib3Ek.s 			page 33


 690:HAL_Lib/STM32H7xx_HAL_Driver/Src/stm32h7xx_hal.c **** #if defined(DUAL_CORE)
 691:HAL_Lib/STM32H7xx_HAL_Driver/Src/stm32h7xx_hal.c ****     MODIFY_REG(SYSCFG->UR3, SYSCFG_UR3_BCM7_ADD1, (BootAddress >> 16));
 692:HAL_Lib/STM32H7xx_HAL_Driver/Src/stm32h7xx_hal.c **** #else
 693:HAL_Lib/STM32H7xx_HAL_Driver/Src/stm32h7xx_hal.c ****     MODIFY_REG(SYSCFG->UR3, SYSCFG_UR3_BOOT_ADD1, (BootAddress >> 16));
 1113              		.loc 1 693 5 is_stmt 1 view .LVU213
 1114 0016 054A     		ldr	r2, .L108
 1115 0018 D2F80C03 		ldr	r0, [r2, #780]
 1116              	.LVL38:
 1117              		.loc 1 693 5 is_stmt 0 view .LVU214
 1118 001c 044B     		ldr	r3, .L108+4
 1119 001e 0340     		ands	r3, r3, r0
 1120 0020 43EA1141 		orr	r1, r3, r1, lsr #16
 1121              	.LVL39:
 1122              		.loc 1 693 5 view .LVU215
 1123 0024 C2F80C13 		str	r1, [r2, #780]
 694:HAL_Lib/STM32H7xx_HAL_Driver/Src/stm32h7xx_hal.c **** #endif /*DUAL_CORE*/
 695:HAL_Lib/STM32H7xx_HAL_Driver/Src/stm32h7xx_hal.c ****   }
 696:HAL_Lib/STM32H7xx_HAL_Driver/Src/stm32h7xx_hal.c **** }
 1124              		.loc 1 696 1 view .LVU216
 1125 0028 7047     		bx	lr
 1126              	.L109:
 1127 002a 00BF     		.align	2
 1128              	.L108:
 1129 002c 00040058 		.word	1476396032
 1130 0030 0000FFFF 		.word	-65536
 1131              		.cfi_endproc
 1132              	.LFE172:
 1134              		.section	.text.HAL_EnableCompensationCell,"ax",%progbits
 1135              		.align	1
 1136              		.global	HAL_EnableCompensationCell
 1137              		.syntax unified
 1138              		.thumb
 1139              		.thumb_func
 1141              	HAL_EnableCompensationCell:
 1142              	.LFB173:
 697:HAL_Lib/STM32H7xx_HAL_Driver/Src/stm32h7xx_hal.c **** #endif /* SYSCFG_UR2_BOOT_ADD0 || SYSCFG_UR2_BCM7_ADD0 */
 698:HAL_Lib/STM32H7xx_HAL_Driver/Src/stm32h7xx_hal.c **** 
 699:HAL_Lib/STM32H7xx_HAL_Driver/Src/stm32h7xx_hal.c **** #if defined(DUAL_CORE)
 700:HAL_Lib/STM32H7xx_HAL_Driver/Src/stm32h7xx_hal.c **** /**
 701:HAL_Lib/STM32H7xx_HAL_Driver/Src/stm32h7xx_hal.c ****  * @brief  BootCM4 address 0 configuration
 702:HAL_Lib/STM32H7xx_HAL_Driver/Src/stm32h7xx_hal.c ****  * @param  BootRegister :Specifies the Boot Address register (Address0 or Address1)
 703:HAL_Lib/STM32H7xx_HAL_Driver/Src/stm32h7xx_hal.c ****  *   This parameter can be one of the following values:
 704:HAL_Lib/STM32H7xx_HAL_Driver/Src/stm32h7xx_hal.c ****  *   @arg SYSCFG_BOOT_ADDR0 : Select the boot address0
 705:HAL_Lib/STM32H7xx_HAL_Driver/Src/stm32h7xx_hal.c ****  *   @arg SYSCFG_BOOT_ADDR1:  Select the boot address1
 706:HAL_Lib/STM32H7xx_HAL_Driver/Src/stm32h7xx_hal.c ****  * @param  BootAddress :Specifies the CM4 Boot Address to be loaded in Address0 or Address1
 707:HAL_Lib/STM32H7xx_HAL_Driver/Src/stm32h7xx_hal.c ****  * @retval None
 708:HAL_Lib/STM32H7xx_HAL_Driver/Src/stm32h7xx_hal.c ****  */
 709:HAL_Lib/STM32H7xx_HAL_Driver/Src/stm32h7xx_hal.c **** void HAL_SYSCFG_CM4BootAddConfig(uint32_t BootRegister, uint32_t BootAddress)
 710:HAL_Lib/STM32H7xx_HAL_Driver/Src/stm32h7xx_hal.c **** {
 711:HAL_Lib/STM32H7xx_HAL_Driver/Src/stm32h7xx_hal.c ****   /* Check the parameters */
 712:HAL_Lib/STM32H7xx_HAL_Driver/Src/stm32h7xx_hal.c ****   assert_param(IS_SYSCFG_BOOT_REGISTER(BootRegister));
 713:HAL_Lib/STM32H7xx_HAL_Driver/Src/stm32h7xx_hal.c ****   assert_param(IS_SYSCFG_BOOT_ADDRESS(BootAddress));
 714:HAL_Lib/STM32H7xx_HAL_Driver/Src/stm32h7xx_hal.c **** 
 715:HAL_Lib/STM32H7xx_HAL_Driver/Src/stm32h7xx_hal.c ****   if (BootRegister == SYSCFG_BOOT_ADDR0)
 716:HAL_Lib/STM32H7xx_HAL_Driver/Src/stm32h7xx_hal.c ****   {
 717:HAL_Lib/STM32H7xx_HAL_Driver/Src/stm32h7xx_hal.c ****     /* Configure CM4 BOOT ADD0 */
 718:HAL_Lib/STM32H7xx_HAL_Driver/Src/stm32h7xx_hal.c ****     MODIFY_REG(SYSCFG->UR3, SYSCFG_UR3_BCM4_ADD0, ((BootAddress >> 16) << SYSCFG_UR3_BCM4_ADD0_Pos)
ARM GAS  C:\Users\HUAV\AppData\Local\Temp\ccTib3Ek.s 			page 34


 719:HAL_Lib/STM32H7xx_HAL_Driver/Src/stm32h7xx_hal.c ****   }
 720:HAL_Lib/STM32H7xx_HAL_Driver/Src/stm32h7xx_hal.c **** 
 721:HAL_Lib/STM32H7xx_HAL_Driver/Src/stm32h7xx_hal.c ****   else
 722:HAL_Lib/STM32H7xx_HAL_Driver/Src/stm32h7xx_hal.c ****   {
 723:HAL_Lib/STM32H7xx_HAL_Driver/Src/stm32h7xx_hal.c ****     /* Configure CM4 BOOT ADD1 */
 724:HAL_Lib/STM32H7xx_HAL_Driver/Src/stm32h7xx_hal.c ****     MODIFY_REG(SYSCFG->UR4, SYSCFG_UR4_BCM4_ADD1, (BootAddress >> 16));
 725:HAL_Lib/STM32H7xx_HAL_Driver/Src/stm32h7xx_hal.c ****   }
 726:HAL_Lib/STM32H7xx_HAL_Driver/Src/stm32h7xx_hal.c **** }
 727:HAL_Lib/STM32H7xx_HAL_Driver/Src/stm32h7xx_hal.c **** 
 728:HAL_Lib/STM32H7xx_HAL_Driver/Src/stm32h7xx_hal.c **** /**
 729:HAL_Lib/STM32H7xx_HAL_Driver/Src/stm32h7xx_hal.c ****  * @brief  Enables the Cortex-M7 boot
 730:HAL_Lib/STM32H7xx_HAL_Driver/Src/stm32h7xx_hal.c ****  * @retval None
 731:HAL_Lib/STM32H7xx_HAL_Driver/Src/stm32h7xx_hal.c ****  */
 732:HAL_Lib/STM32H7xx_HAL_Driver/Src/stm32h7xx_hal.c **** void HAL_SYSCFG_EnableCM7BOOT(void)
 733:HAL_Lib/STM32H7xx_HAL_Driver/Src/stm32h7xx_hal.c **** {
 734:HAL_Lib/STM32H7xx_HAL_Driver/Src/stm32h7xx_hal.c ****   SET_BIT(SYSCFG->UR1, SYSCFG_UR1_BCM7);
 735:HAL_Lib/STM32H7xx_HAL_Driver/Src/stm32h7xx_hal.c **** }
 736:HAL_Lib/STM32H7xx_HAL_Driver/Src/stm32h7xx_hal.c **** 
 737:HAL_Lib/STM32H7xx_HAL_Driver/Src/stm32h7xx_hal.c **** /**
 738:HAL_Lib/STM32H7xx_HAL_Driver/Src/stm32h7xx_hal.c ****  * @brief  Disables the Cortex-M7 boot
 739:HAL_Lib/STM32H7xx_HAL_Driver/Src/stm32h7xx_hal.c ****  * @note   Disabling the boot will gate the CPU clock
 740:HAL_Lib/STM32H7xx_HAL_Driver/Src/stm32h7xx_hal.c ****  * @retval None
 741:HAL_Lib/STM32H7xx_HAL_Driver/Src/stm32h7xx_hal.c ****  */
 742:HAL_Lib/STM32H7xx_HAL_Driver/Src/stm32h7xx_hal.c **** void HAL_SYSCFG_DisableCM7BOOT(void)
 743:HAL_Lib/STM32H7xx_HAL_Driver/Src/stm32h7xx_hal.c **** {
 744:HAL_Lib/STM32H7xx_HAL_Driver/Src/stm32h7xx_hal.c ****   CLEAR_BIT(SYSCFG->UR1, SYSCFG_UR1_BCM7);
 745:HAL_Lib/STM32H7xx_HAL_Driver/Src/stm32h7xx_hal.c **** }
 746:HAL_Lib/STM32H7xx_HAL_Driver/Src/stm32h7xx_hal.c **** 
 747:HAL_Lib/STM32H7xx_HAL_Driver/Src/stm32h7xx_hal.c **** /**
 748:HAL_Lib/STM32H7xx_HAL_Driver/Src/stm32h7xx_hal.c ****  * @brief  Enables the Cortex-M4 boot
 749:HAL_Lib/STM32H7xx_HAL_Driver/Src/stm32h7xx_hal.c ****  * @retval None
 750:HAL_Lib/STM32H7xx_HAL_Driver/Src/stm32h7xx_hal.c ****  */
 751:HAL_Lib/STM32H7xx_HAL_Driver/Src/stm32h7xx_hal.c **** void HAL_SYSCFG_EnableCM4BOOT(void)
 752:HAL_Lib/STM32H7xx_HAL_Driver/Src/stm32h7xx_hal.c **** {
 753:HAL_Lib/STM32H7xx_HAL_Driver/Src/stm32h7xx_hal.c ****   SET_BIT(SYSCFG->UR1, SYSCFG_UR1_BCM4);
 754:HAL_Lib/STM32H7xx_HAL_Driver/Src/stm32h7xx_hal.c **** }
 755:HAL_Lib/STM32H7xx_HAL_Driver/Src/stm32h7xx_hal.c **** 
 756:HAL_Lib/STM32H7xx_HAL_Driver/Src/stm32h7xx_hal.c **** /**
 757:HAL_Lib/STM32H7xx_HAL_Driver/Src/stm32h7xx_hal.c ****  * @brief  Disables the Cortex-M4 boot
 758:HAL_Lib/STM32H7xx_HAL_Driver/Src/stm32h7xx_hal.c ****  * @note   Disabling the boot will gate the CPU clock
 759:HAL_Lib/STM32H7xx_HAL_Driver/Src/stm32h7xx_hal.c ****  * @retval None
 760:HAL_Lib/STM32H7xx_HAL_Driver/Src/stm32h7xx_hal.c ****  */
 761:HAL_Lib/STM32H7xx_HAL_Driver/Src/stm32h7xx_hal.c **** void HAL_SYSCFG_DisableCM4BOOT(void)
 762:HAL_Lib/STM32H7xx_HAL_Driver/Src/stm32h7xx_hal.c **** {
 763:HAL_Lib/STM32H7xx_HAL_Driver/Src/stm32h7xx_hal.c ****   CLEAR_BIT(SYSCFG->UR1, SYSCFG_UR1_BCM4);
 764:HAL_Lib/STM32H7xx_HAL_Driver/Src/stm32h7xx_hal.c **** }
 765:HAL_Lib/STM32H7xx_HAL_Driver/Src/stm32h7xx_hal.c **** #endif /*DUAL_CORE*/
 766:HAL_Lib/STM32H7xx_HAL_Driver/Src/stm32h7xx_hal.c **** /**
 767:HAL_Lib/STM32H7xx_HAL_Driver/Src/stm32h7xx_hal.c ****  * @brief  Enables the I/O Compensation Cell.
 768:HAL_Lib/STM32H7xx_HAL_Driver/Src/stm32h7xx_hal.c ****  * @note   The I/O compensation cell can be used only when the device supply
 769:HAL_Lib/STM32H7xx_HAL_Driver/Src/stm32h7xx_hal.c ****  *         voltage ranges from 1.62 to 2.0 V and from 2.7 to 3.6 V.
 770:HAL_Lib/STM32H7xx_HAL_Driver/Src/stm32h7xx_hal.c ****  * @retval None
 771:HAL_Lib/STM32H7xx_HAL_Driver/Src/stm32h7xx_hal.c ****  */
 772:HAL_Lib/STM32H7xx_HAL_Driver/Src/stm32h7xx_hal.c **** void HAL_EnableCompensationCell(void)
 773:HAL_Lib/STM32H7xx_HAL_Driver/Src/stm32h7xx_hal.c **** {
 1143              		.loc 1 773 1 is_stmt 1 view -0
 1144              		.cfi_startproc
ARM GAS  C:\Users\HUAV\AppData\Local\Temp\ccTib3Ek.s 			page 35


 1145              		@ args = 0, pretend = 0, frame = 0
 1146              		@ frame_needed = 0, uses_anonymous_args = 0
 1147              		@ link register save eliminated.
 774:HAL_Lib/STM32H7xx_HAL_Driver/Src/stm32h7xx_hal.c ****   SET_BIT(SYSCFG->CCCSR, SYSCFG_CCCSR_EN);
 1148              		.loc 1 774 3 view .LVU218
 1149 0000 024A     		ldr	r2, .L111
 1150 0002 136A     		ldr	r3, [r2, #32]
 1151 0004 43F00103 		orr	r3, r3, #1
 1152 0008 1362     		str	r3, [r2, #32]
 775:HAL_Lib/STM32H7xx_HAL_Driver/Src/stm32h7xx_hal.c **** }
 1153              		.loc 1 775 1 is_stmt 0 view .LVU219
 1154 000a 7047     		bx	lr
 1155              	.L112:
 1156              		.align	2
 1157              	.L111:
 1158 000c 00040058 		.word	1476396032
 1159              		.cfi_endproc
 1160              	.LFE173:
 1162              		.section	.text.HAL_DisableCompensationCell,"ax",%progbits
 1163              		.align	1
 1164              		.global	HAL_DisableCompensationCell
 1165              		.syntax unified
 1166              		.thumb
 1167              		.thumb_func
 1169              	HAL_DisableCompensationCell:
 1170              	.LFB174:
 776:HAL_Lib/STM32H7xx_HAL_Driver/Src/stm32h7xx_hal.c **** 
 777:HAL_Lib/STM32H7xx_HAL_Driver/Src/stm32h7xx_hal.c **** /**
 778:HAL_Lib/STM32H7xx_HAL_Driver/Src/stm32h7xx_hal.c ****  * @brief  Power-down the I/O Compensation Cell.
 779:HAL_Lib/STM32H7xx_HAL_Driver/Src/stm32h7xx_hal.c ****  * @note   The I/O compensation cell can be used only when the device supply
 780:HAL_Lib/STM32H7xx_HAL_Driver/Src/stm32h7xx_hal.c ****  *         voltage ranges from 1.62 to 2.0 V and from 2.7 to 3.6 V.
 781:HAL_Lib/STM32H7xx_HAL_Driver/Src/stm32h7xx_hal.c ****  * @retval None
 782:HAL_Lib/STM32H7xx_HAL_Driver/Src/stm32h7xx_hal.c ****  */
 783:HAL_Lib/STM32H7xx_HAL_Driver/Src/stm32h7xx_hal.c **** void HAL_DisableCompensationCell(void)
 784:HAL_Lib/STM32H7xx_HAL_Driver/Src/stm32h7xx_hal.c **** {
 1171              		.loc 1 784 1 is_stmt 1 view -0
 1172              		.cfi_startproc
 1173              		@ args = 0, pretend = 0, frame = 0
 1174              		@ frame_needed = 0, uses_anonymous_args = 0
 1175              		@ link register save eliminated.
 785:HAL_Lib/STM32H7xx_HAL_Driver/Src/stm32h7xx_hal.c ****   CLEAR_BIT(SYSCFG->CCCSR, SYSCFG_CCCSR_EN);
 1176              		.loc 1 785 3 view .LVU221
 1177 0000 024A     		ldr	r2, .L114
 1178 0002 136A     		ldr	r3, [r2, #32]
 1179 0004 23F00103 		bic	r3, r3, #1
 1180 0008 1362     		str	r3, [r2, #32]
 786:HAL_Lib/STM32H7xx_HAL_Driver/Src/stm32h7xx_hal.c **** }
 1181              		.loc 1 786 1 is_stmt 0 view .LVU222
 1182 000a 7047     		bx	lr
 1183              	.L115:
 1184              		.align	2
 1185              	.L114:
 1186 000c 00040058 		.word	1476396032
 1187              		.cfi_endproc
 1188              	.LFE174:
 1190              		.section	.text.HAL_SYSCFG_EnableIOSpeedOptimize,"ax",%progbits
 1191              		.align	1
ARM GAS  C:\Users\HUAV\AppData\Local\Temp\ccTib3Ek.s 			page 36


 1192              		.global	HAL_SYSCFG_EnableIOSpeedOptimize
 1193              		.syntax unified
 1194              		.thumb
 1195              		.thumb_func
 1197              	HAL_SYSCFG_EnableIOSpeedOptimize:
 1198              	.LFB175:
 787:HAL_Lib/STM32H7xx_HAL_Driver/Src/stm32h7xx_hal.c **** 
 788:HAL_Lib/STM32H7xx_HAL_Driver/Src/stm32h7xx_hal.c **** /**
 789:HAL_Lib/STM32H7xx_HAL_Driver/Src/stm32h7xx_hal.c ****  * @brief  To Enable optimize the I/O speed when the product voltage is low.
 790:HAL_Lib/STM32H7xx_HAL_Driver/Src/stm32h7xx_hal.c ****  * @note   This bit is active only if PRODUCT_BELOW_25V user option bit is set. It must be
 791:HAL_Lib/STM32H7xx_HAL_Driver/Src/stm32h7xx_hal.c ****  *         used only if the product supply voltage is below 2.5 V. Setting this bit when VDD is
 792:HAL_Lib/STM32H7xx_HAL_Driver/Src/stm32h7xx_hal.c ****  *         higher than 2.5 V might be destructive.
 793:HAL_Lib/STM32H7xx_HAL_Driver/Src/stm32h7xx_hal.c ****  * @retval None
 794:HAL_Lib/STM32H7xx_HAL_Driver/Src/stm32h7xx_hal.c ****  */
 795:HAL_Lib/STM32H7xx_HAL_Driver/Src/stm32h7xx_hal.c **** void HAL_SYSCFG_EnableIOSpeedOptimize(void)
 796:HAL_Lib/STM32H7xx_HAL_Driver/Src/stm32h7xx_hal.c **** {
 1199              		.loc 1 796 1 is_stmt 1 view -0
 1200              		.cfi_startproc
 1201              		@ args = 0, pretend = 0, frame = 0
 1202              		@ frame_needed = 0, uses_anonymous_args = 0
 1203              		@ link register save eliminated.
 797:HAL_Lib/STM32H7xx_HAL_Driver/Src/stm32h7xx_hal.c **** #if defined(SYSCFG_CCCSR_HSLV)
 798:HAL_Lib/STM32H7xx_HAL_Driver/Src/stm32h7xx_hal.c ****   SET_BIT(SYSCFG->CCCSR, SYSCFG_CCCSR_HSLV);
 1204              		.loc 1 798 3 view .LVU224
 1205 0000 024A     		ldr	r2, .L117
 1206 0002 136A     		ldr	r3, [r2, #32]
 1207 0004 43F48033 		orr	r3, r3, #65536
 1208 0008 1362     		str	r3, [r2, #32]
 799:HAL_Lib/STM32H7xx_HAL_Driver/Src/stm32h7xx_hal.c **** #else
 800:HAL_Lib/STM32H7xx_HAL_Driver/Src/stm32h7xx_hal.c ****   SET_BIT(SYSCFG->CCCSR, (SYSCFG_CCCSR_HSLV0 | SYSCFG_CCCSR_HSLV1 | SYSCFG_CCCSR_HSLV2 | SYSCFG_CCC
 801:HAL_Lib/STM32H7xx_HAL_Driver/Src/stm32h7xx_hal.c **** #endif /* SYSCFG_CCCSR_HSLV */
 802:HAL_Lib/STM32H7xx_HAL_Driver/Src/stm32h7xx_hal.c **** }
 1209              		.loc 1 802 1 is_stmt 0 view .LVU225
 1210 000a 7047     		bx	lr
 1211              	.L118:
 1212              		.align	2
 1213              	.L117:
 1214 000c 00040058 		.word	1476396032
 1215              		.cfi_endproc
 1216              	.LFE175:
 1218              		.section	.text.HAL_SYSCFG_DisableIOSpeedOptimize,"ax",%progbits
 1219              		.align	1
 1220              		.global	HAL_SYSCFG_DisableIOSpeedOptimize
 1221              		.syntax unified
 1222              		.thumb
 1223              		.thumb_func
 1225              	HAL_SYSCFG_DisableIOSpeedOptimize:
 1226              	.LFB176:
 803:HAL_Lib/STM32H7xx_HAL_Driver/Src/stm32h7xx_hal.c **** 
 804:HAL_Lib/STM32H7xx_HAL_Driver/Src/stm32h7xx_hal.c **** /**
 805:HAL_Lib/STM32H7xx_HAL_Driver/Src/stm32h7xx_hal.c ****  * @brief  To Disable optimize the I/O speed when the product voltage is low.
 806:HAL_Lib/STM32H7xx_HAL_Driver/Src/stm32h7xx_hal.c ****  * @note   This bit is active only if PRODUCT_BELOW_25V user option bit is set. It must be
 807:HAL_Lib/STM32H7xx_HAL_Driver/Src/stm32h7xx_hal.c ****  *         used only if the product supply voltage is below 2.5 V. Setting this bit when VDD is
 808:HAL_Lib/STM32H7xx_HAL_Driver/Src/stm32h7xx_hal.c ****  *         higher than 2.5 V might be destructive.
 809:HAL_Lib/STM32H7xx_HAL_Driver/Src/stm32h7xx_hal.c ****  * @retval None
 810:HAL_Lib/STM32H7xx_HAL_Driver/Src/stm32h7xx_hal.c ****  */
 811:HAL_Lib/STM32H7xx_HAL_Driver/Src/stm32h7xx_hal.c **** void HAL_SYSCFG_DisableIOSpeedOptimize(void)
ARM GAS  C:\Users\HUAV\AppData\Local\Temp\ccTib3Ek.s 			page 37


 812:HAL_Lib/STM32H7xx_HAL_Driver/Src/stm32h7xx_hal.c **** {
 1227              		.loc 1 812 1 is_stmt 1 view -0
 1228              		.cfi_startproc
 1229              		@ args = 0, pretend = 0, frame = 0
 1230              		@ frame_needed = 0, uses_anonymous_args = 0
 1231              		@ link register save eliminated.
 813:HAL_Lib/STM32H7xx_HAL_Driver/Src/stm32h7xx_hal.c **** #if defined(SYSCFG_CCCSR_HSLV)
 814:HAL_Lib/STM32H7xx_HAL_Driver/Src/stm32h7xx_hal.c ****   CLEAR_BIT(SYSCFG->CCCSR, SYSCFG_CCCSR_HSLV);
 1232              		.loc 1 814 3 view .LVU227
 1233 0000 024A     		ldr	r2, .L120
 1234 0002 136A     		ldr	r3, [r2, #32]
 1235 0004 23F48033 		bic	r3, r3, #65536
 1236 0008 1362     		str	r3, [r2, #32]
 815:HAL_Lib/STM32H7xx_HAL_Driver/Src/stm32h7xx_hal.c **** #else
 816:HAL_Lib/STM32H7xx_HAL_Driver/Src/stm32h7xx_hal.c ****   CLEAR_BIT(SYSCFG->CCCSR, (SYSCFG_CCCSR_HSLV0 | SYSCFG_CCCSR_HSLV1 | SYSCFG_CCCSR_HSLV2 | SYSCFG_C
 817:HAL_Lib/STM32H7xx_HAL_Driver/Src/stm32h7xx_hal.c **** #endif /* SYSCFG_CCCSR_HSLV */
 818:HAL_Lib/STM32H7xx_HAL_Driver/Src/stm32h7xx_hal.c **** }
 1237              		.loc 1 818 1 is_stmt 0 view .LVU228
 1238 000a 7047     		bx	lr
 1239              	.L121:
 1240              		.align	2
 1241              	.L120:
 1242 000c 00040058 		.word	1476396032
 1243              		.cfi_endproc
 1244              	.LFE176:
 1246              		.section	.text.HAL_SYSCFG_CompensationCodeSelect,"ax",%progbits
 1247              		.align	1
 1248              		.global	HAL_SYSCFG_CompensationCodeSelect
 1249              		.syntax unified
 1250              		.thumb
 1251              		.thumb_func
 1253              	HAL_SYSCFG_CompensationCodeSelect:
 1254              	.LVL40:
 1255              	.LFB177:
 819:HAL_Lib/STM32H7xx_HAL_Driver/Src/stm32h7xx_hal.c **** 
 820:HAL_Lib/STM32H7xx_HAL_Driver/Src/stm32h7xx_hal.c **** /**
 821:HAL_Lib/STM32H7xx_HAL_Driver/Src/stm32h7xx_hal.c ****  * @brief  Code selection for the I/O Compensation cell
 822:HAL_Lib/STM32H7xx_HAL_Driver/Src/stm32h7xx_hal.c ****  * @param  SYSCFG_CompCode: Selects the code to be applied for the I/O compensation cell
 823:HAL_Lib/STM32H7xx_HAL_Driver/Src/stm32h7xx_hal.c ****  *   This parameter can be one of the following values:
 824:HAL_Lib/STM32H7xx_HAL_Driver/Src/stm32h7xx_hal.c ****  *   @arg SYSCFG_CELL_CODE : Select Code from the cell (available in the SYSCFG_CCVR)
 825:HAL_Lib/STM32H7xx_HAL_Driver/Src/stm32h7xx_hal.c ****  *   @arg SYSCFG_REGISTER_CODE: Select Code from the SYSCFG compensation cell code register (SYSCFG
 826:HAL_Lib/STM32H7xx_HAL_Driver/Src/stm32h7xx_hal.c ****  * @retval None
 827:HAL_Lib/STM32H7xx_HAL_Driver/Src/stm32h7xx_hal.c ****  */
 828:HAL_Lib/STM32H7xx_HAL_Driver/Src/stm32h7xx_hal.c **** void HAL_SYSCFG_CompensationCodeSelect(uint32_t SYSCFG_CompCode)
 829:HAL_Lib/STM32H7xx_HAL_Driver/Src/stm32h7xx_hal.c **** {
 1256              		.loc 1 829 1 is_stmt 1 view -0
 1257              		.cfi_startproc
 1258              		@ args = 0, pretend = 0, frame = 0
 1259              		@ frame_needed = 0, uses_anonymous_args = 0
 1260              		@ link register save eliminated.
 830:HAL_Lib/STM32H7xx_HAL_Driver/Src/stm32h7xx_hal.c ****   /* Check the parameter */
 831:HAL_Lib/STM32H7xx_HAL_Driver/Src/stm32h7xx_hal.c ****   assert_param(IS_SYSCFG_CODE_SELECT(SYSCFG_CompCode));
 1261              		.loc 1 831 3 view .LVU230
 832:HAL_Lib/STM32H7xx_HAL_Driver/Src/stm32h7xx_hal.c ****   MODIFY_REG(SYSCFG->CCCSR, SYSCFG_CCCSR_CS, (uint32_t)(SYSCFG_CompCode));
 1262              		.loc 1 832 3 view .LVU231
 1263 0000 034A     		ldr	r2, .L123
 1264 0002 136A     		ldr	r3, [r2, #32]
ARM GAS  C:\Users\HUAV\AppData\Local\Temp\ccTib3Ek.s 			page 38


 1265 0004 23F00203 		bic	r3, r3, #2
 1266 0008 0343     		orrs	r3, r3, r0
 1267 000a 1362     		str	r3, [r2, #32]
 833:HAL_Lib/STM32H7xx_HAL_Driver/Src/stm32h7xx_hal.c **** }
 1268              		.loc 1 833 1 is_stmt 0 view .LVU232
 1269 000c 7047     		bx	lr
 1270              	.L124:
 1271 000e 00BF     		.align	2
 1272              	.L123:
 1273 0010 00040058 		.word	1476396032
 1274              		.cfi_endproc
 1275              	.LFE177:
 1277              		.section	.text.HAL_SYSCFG_CompensationCodeConfig,"ax",%progbits
 1278              		.align	1
 1279              		.global	HAL_SYSCFG_CompensationCodeConfig
 1280              		.syntax unified
 1281              		.thumb
 1282              		.thumb_func
 1284              	HAL_SYSCFG_CompensationCodeConfig:
 1285              	.LVL41:
 1286              	.LFB178:
 834:HAL_Lib/STM32H7xx_HAL_Driver/Src/stm32h7xx_hal.c **** 
 835:HAL_Lib/STM32H7xx_HAL_Driver/Src/stm32h7xx_hal.c **** /**
 836:HAL_Lib/STM32H7xx_HAL_Driver/Src/stm32h7xx_hal.c ****  * @brief  Code selection for the I/O Compensation cell
 837:HAL_Lib/STM32H7xx_HAL_Driver/Src/stm32h7xx_hal.c ****  * @param  SYSCFG_PMOSCode: PMOS compensation code
 838:HAL_Lib/STM32H7xx_HAL_Driver/Src/stm32h7xx_hal.c ****  *         This code is applied to the I/O compensation cell when the CS bit of the
 839:HAL_Lib/STM32H7xx_HAL_Driver/Src/stm32h7xx_hal.c ****  *          SYSCFG_CMPCR is set
 840:HAL_Lib/STM32H7xx_HAL_Driver/Src/stm32h7xx_hal.c ****  * @param  SYSCFG_NMOSCode: NMOS compensation code
 841:HAL_Lib/STM32H7xx_HAL_Driver/Src/stm32h7xx_hal.c ****  *         This code is applied to the I/O compensation cell when the CS bit of the
 842:HAL_Lib/STM32H7xx_HAL_Driver/Src/stm32h7xx_hal.c ****  *          SYSCFG_CMPCR is set
 843:HAL_Lib/STM32H7xx_HAL_Driver/Src/stm32h7xx_hal.c ****  * @retval None
 844:HAL_Lib/STM32H7xx_HAL_Driver/Src/stm32h7xx_hal.c ****  */
 845:HAL_Lib/STM32H7xx_HAL_Driver/Src/stm32h7xx_hal.c **** void HAL_SYSCFG_CompensationCodeConfig(uint32_t SYSCFG_PMOSCode, uint32_t SYSCFG_NMOSCode)
 846:HAL_Lib/STM32H7xx_HAL_Driver/Src/stm32h7xx_hal.c **** {
 1287              		.loc 1 846 1 is_stmt 1 view -0
 1288              		.cfi_startproc
 1289              		@ args = 0, pretend = 0, frame = 0
 1290              		@ frame_needed = 0, uses_anonymous_args = 0
 1291              		@ link register save eliminated.
 847:HAL_Lib/STM32H7xx_HAL_Driver/Src/stm32h7xx_hal.c ****   /* Check the parameter */
 848:HAL_Lib/STM32H7xx_HAL_Driver/Src/stm32h7xx_hal.c ****   assert_param(IS_SYSCFG_CODE_CONFIG(SYSCFG_PMOSCode));
 1292              		.loc 1 848 3 view .LVU234
 849:HAL_Lib/STM32H7xx_HAL_Driver/Src/stm32h7xx_hal.c ****   assert_param(IS_SYSCFG_CODE_CONFIG(SYSCFG_NMOSCode));
 1293              		.loc 1 849 3 view .LVU235
 850:HAL_Lib/STM32H7xx_HAL_Driver/Src/stm32h7xx_hal.c ****   MODIFY_REG(SYSCFG->CCCR, SYSCFG_CCCR_NCC | SYSCFG_CCCR_PCC, (((uint32_t)(SYSCFG_PMOSCode) << 4) |
 1294              		.loc 1 850 3 view .LVU236
 1295 0000 044A     		ldr	r2, .L126
 1296 0002 936A     		ldr	r3, [r2, #40]
 1297 0004 23F0FF03 		bic	r3, r3, #255
 1298 0008 41EA0011 		orr	r1, r1, r0, lsl #4
 1299              	.LVL42:
 1300              		.loc 1 850 3 is_stmt 0 view .LVU237
 1301 000c 0B43     		orrs	r3, r3, r1
 1302 000e 9362     		str	r3, [r2, #40]
 851:HAL_Lib/STM32H7xx_HAL_Driver/Src/stm32h7xx_hal.c **** }
 1303              		.loc 1 851 1 view .LVU238
 1304 0010 7047     		bx	lr
ARM GAS  C:\Users\HUAV\AppData\Local\Temp\ccTib3Ek.s 			page 39


 1305              	.L127:
 1306 0012 00BF     		.align	2
 1307              	.L126:
 1308 0014 00040058 		.word	1476396032
 1309              		.cfi_endproc
 1310              	.LFE178:
 1312              		.section	.text.HAL_DBGMCU_EnableDBGSleepMode,"ax",%progbits
 1313              		.align	1
 1314              		.global	HAL_DBGMCU_EnableDBGSleepMode
 1315              		.syntax unified
 1316              		.thumb
 1317              		.thumb_func
 1319              	HAL_DBGMCU_EnableDBGSleepMode:
 1320              	.LFB179:
 852:HAL_Lib/STM32H7xx_HAL_Driver/Src/stm32h7xx_hal.c **** 
 853:HAL_Lib/STM32H7xx_HAL_Driver/Src/stm32h7xx_hal.c **** #if defined(SYSCFG_CCCR_NCC_MMC)
 854:HAL_Lib/STM32H7xx_HAL_Driver/Src/stm32h7xx_hal.c **** /**
 855:HAL_Lib/STM32H7xx_HAL_Driver/Src/stm32h7xx_hal.c ****  * @brief  Code selection for the I/O Compensation cell
 856:HAL_Lib/STM32H7xx_HAL_Driver/Src/stm32h7xx_hal.c ****  * @param  SYSCFG_PMOSCode: VDDMMC PMOS compensation code
 857:HAL_Lib/STM32H7xx_HAL_Driver/Src/stm32h7xx_hal.c ****  *         This code is applied to the I/O compensation cell when the CS bit of the
 858:HAL_Lib/STM32H7xx_HAL_Driver/Src/stm32h7xx_hal.c ****  *          SYSCFG_CMPCR is set
 859:HAL_Lib/STM32H7xx_HAL_Driver/Src/stm32h7xx_hal.c ****  * @param  SYSCFG_NMOSCode: VDDMMC NMOS compensation code
 860:HAL_Lib/STM32H7xx_HAL_Driver/Src/stm32h7xx_hal.c ****  *         This code is applied to the I/O compensation cell when the CS bit of the
 861:HAL_Lib/STM32H7xx_HAL_Driver/Src/stm32h7xx_hal.c ****  *          SYSCFG_CMPCR is set
 862:HAL_Lib/STM32H7xx_HAL_Driver/Src/stm32h7xx_hal.c ****  * @retval None
 863:HAL_Lib/STM32H7xx_HAL_Driver/Src/stm32h7xx_hal.c ****  */
 864:HAL_Lib/STM32H7xx_HAL_Driver/Src/stm32h7xx_hal.c **** void HAL_SYSCFG_VDDMMC_CompensationCodeConfig(uint32_t SYSCFG_PMOSCode, uint32_t SYSCFG_NMOSCode)
 865:HAL_Lib/STM32H7xx_HAL_Driver/Src/stm32h7xx_hal.c **** {
 866:HAL_Lib/STM32H7xx_HAL_Driver/Src/stm32h7xx_hal.c ****   /* Check the parameter */
 867:HAL_Lib/STM32H7xx_HAL_Driver/Src/stm32h7xx_hal.c ****   assert_param(IS_SYSCFG_CODE_CONFIG(SYSCFG_PMOSCode));
 868:HAL_Lib/STM32H7xx_HAL_Driver/Src/stm32h7xx_hal.c ****   assert_param(IS_SYSCFG_CODE_CONFIG(SYSCFG_NMOSCode));
 869:HAL_Lib/STM32H7xx_HAL_Driver/Src/stm32h7xx_hal.c ****   MODIFY_REG(SYSCFG->CCCR, (SYSCFG_CCCR_NCC_MMC | SYSCFG_CCCR_PCC_MMC), (((uint32_t)(SYSCFG_PMOSCod
 870:HAL_Lib/STM32H7xx_HAL_Driver/Src/stm32h7xx_hal.c **** }
 871:HAL_Lib/STM32H7xx_HAL_Driver/Src/stm32h7xx_hal.c **** #endif /* SYSCFG_CCCR_NCC_MMC */
 872:HAL_Lib/STM32H7xx_HAL_Driver/Src/stm32h7xx_hal.c **** 
 873:HAL_Lib/STM32H7xx_HAL_Driver/Src/stm32h7xx_hal.c **** #if defined(SYSCFG_ADC2ALT_ADC2_ROUT0)
 874:HAL_Lib/STM32H7xx_HAL_Driver/Src/stm32h7xx_hal.c **** /** @brief  SYSCFG ADC2 internal input alternate connection macros
 875:HAL_Lib/STM32H7xx_HAL_Driver/Src/stm32h7xx_hal.c ****  * @param Adc2AltRout0 This parameter can be a value of :
 876:HAL_Lib/STM32H7xx_HAL_Driver/Src/stm32h7xx_hal.c ****  *     @arg @ref SYSCFG_ADC2_ROUT0_DAC1_1   DAC1_out1 connected to ADC2 VINP[16]
 877:HAL_Lib/STM32H7xx_HAL_Driver/Src/stm32h7xx_hal.c ****  *     @arg @ref SYSCFG_ADC2_ROUT0_VBAT4    VBAT/4 connected to ADC2 VINP[16]
 878:HAL_Lib/STM32H7xx_HAL_Driver/Src/stm32h7xx_hal.c ****  */
 879:HAL_Lib/STM32H7xx_HAL_Driver/Src/stm32h7xx_hal.c **** void HAL_SYSCFG_ADC2ALT_Rout0Config(uint32_t Adc2AltRout0)
 880:HAL_Lib/STM32H7xx_HAL_Driver/Src/stm32h7xx_hal.c **** {
 881:HAL_Lib/STM32H7xx_HAL_Driver/Src/stm32h7xx_hal.c ****   /* Check the parameters */
 882:HAL_Lib/STM32H7xx_HAL_Driver/Src/stm32h7xx_hal.c ****   assert_param(IS_SYSCFG_ADC2ALT_ROUT0(Adc2AltRout0));
 883:HAL_Lib/STM32H7xx_HAL_Driver/Src/stm32h7xx_hal.c **** 
 884:HAL_Lib/STM32H7xx_HAL_Driver/Src/stm32h7xx_hal.c ****   MODIFY_REG(SYSCFG->ADC2ALT, SYSCFG_ADC2ALT_ADC2_ROUT0, Adc2AltRout0);
 885:HAL_Lib/STM32H7xx_HAL_Driver/Src/stm32h7xx_hal.c **** }
 886:HAL_Lib/STM32H7xx_HAL_Driver/Src/stm32h7xx_hal.c **** /**
 887:HAL_Lib/STM32H7xx_HAL_Driver/Src/stm32h7xx_hal.c ****  * @}
 888:HAL_Lib/STM32H7xx_HAL_Driver/Src/stm32h7xx_hal.c ****  */
 889:HAL_Lib/STM32H7xx_HAL_Driver/Src/stm32h7xx_hal.c **** #endif /*SYSCFG_ADC2ALT_ADC2_ROUT0*/
 890:HAL_Lib/STM32H7xx_HAL_Driver/Src/stm32h7xx_hal.c **** 
 891:HAL_Lib/STM32H7xx_HAL_Driver/Src/stm32h7xx_hal.c **** #if defined(SYSCFG_ADC2ALT_ADC2_ROUT1)
 892:HAL_Lib/STM32H7xx_HAL_Driver/Src/stm32h7xx_hal.c **** /** @brief  SYSCFG ADC2 internal input alternate connection macros
 893:HAL_Lib/STM32H7xx_HAL_Driver/Src/stm32h7xx_hal.c ****  * @param Adc2AltRout1  This parameter can be a value of :
 894:HAL_Lib/STM32H7xx_HAL_Driver/Src/stm32h7xx_hal.c ****  *     @arg @ref SYSCFG_ADC2_ROUT1_DAC1_2   DAC1_out2 connected to ADC2 VINP[17]
ARM GAS  C:\Users\HUAV\AppData\Local\Temp\ccTib3Ek.s 			page 40


 895:HAL_Lib/STM32H7xx_HAL_Driver/Src/stm32h7xx_hal.c ****  *     @arg @ref SYSCFG_ADC2_ROUT1_VREFINT  VREFINT connected to ADC2 VINP[17]
 896:HAL_Lib/STM32H7xx_HAL_Driver/Src/stm32h7xx_hal.c ****  */
 897:HAL_Lib/STM32H7xx_HAL_Driver/Src/stm32h7xx_hal.c **** void HAL_SYSCFG_ADC2ALT_Rout1Config(uint32_t Adc2AltRout1)
 898:HAL_Lib/STM32H7xx_HAL_Driver/Src/stm32h7xx_hal.c **** {
 899:HAL_Lib/STM32H7xx_HAL_Driver/Src/stm32h7xx_hal.c ****   /* Check the parameters */
 900:HAL_Lib/STM32H7xx_HAL_Driver/Src/stm32h7xx_hal.c ****   assert_param(IS_SYSCFG_ADC2ALT_ROUT1(Adc2AltRout1));
 901:HAL_Lib/STM32H7xx_HAL_Driver/Src/stm32h7xx_hal.c **** 
 902:HAL_Lib/STM32H7xx_HAL_Driver/Src/stm32h7xx_hal.c ****   MODIFY_REG(SYSCFG->ADC2ALT, SYSCFG_ADC2ALT_ADC2_ROUT1, Adc2AltRout1);
 903:HAL_Lib/STM32H7xx_HAL_Driver/Src/stm32h7xx_hal.c **** }
 904:HAL_Lib/STM32H7xx_HAL_Driver/Src/stm32h7xx_hal.c **** /**
 905:HAL_Lib/STM32H7xx_HAL_Driver/Src/stm32h7xx_hal.c ****  * @}
 906:HAL_Lib/STM32H7xx_HAL_Driver/Src/stm32h7xx_hal.c ****  */
 907:HAL_Lib/STM32H7xx_HAL_Driver/Src/stm32h7xx_hal.c **** #endif /*SYSCFG_ADC2ALT_ADC2_ROUT1*/
 908:HAL_Lib/STM32H7xx_HAL_Driver/Src/stm32h7xx_hal.c **** 
 909:HAL_Lib/STM32H7xx_HAL_Driver/Src/stm32h7xx_hal.c **** /**
 910:HAL_Lib/STM32H7xx_HAL_Driver/Src/stm32h7xx_hal.c ****  * @brief  Enable the Debug Module during Domain1/CDomain SLEEP mode
 911:HAL_Lib/STM32H7xx_HAL_Driver/Src/stm32h7xx_hal.c ****  * @retval None
 912:HAL_Lib/STM32H7xx_HAL_Driver/Src/stm32h7xx_hal.c ****  */
 913:HAL_Lib/STM32H7xx_HAL_Driver/Src/stm32h7xx_hal.c **** void HAL_DBGMCU_EnableDBGSleepMode(void)
 914:HAL_Lib/STM32H7xx_HAL_Driver/Src/stm32h7xx_hal.c **** {
 1321              		.loc 1 914 1 is_stmt 1 view -0
 1322              		.cfi_startproc
 1323              		@ args = 0, pretend = 0, frame = 0
 1324              		@ frame_needed = 0, uses_anonymous_args = 0
 1325              		@ link register save eliminated.
 915:HAL_Lib/STM32H7xx_HAL_Driver/Src/stm32h7xx_hal.c ****   SET_BIT(DBGMCU->CR, DBGMCU_CR_DBG_SLEEPD1);
 1326              		.loc 1 915 3 view .LVU240
 1327 0000 024A     		ldr	r2, .L129
 1328 0002 5368     		ldr	r3, [r2, #4]
 1329 0004 43F00103 		orr	r3, r3, #1
 1330 0008 5360     		str	r3, [r2, #4]
 916:HAL_Lib/STM32H7xx_HAL_Driver/Src/stm32h7xx_hal.c **** }
 1331              		.loc 1 916 1 is_stmt 0 view .LVU241
 1332 000a 7047     		bx	lr
 1333              	.L130:
 1334              		.align	2
 1335              	.L129:
 1336 000c 0010005C 		.word	1543507968
 1337              		.cfi_endproc
 1338              	.LFE179:
 1340              		.section	.text.HAL_DBGMCU_DisableDBGSleepMode,"ax",%progbits
 1341              		.align	1
 1342              		.global	HAL_DBGMCU_DisableDBGSleepMode
 1343              		.syntax unified
 1344              		.thumb
 1345              		.thumb_func
 1347              	HAL_DBGMCU_DisableDBGSleepMode:
 1348              	.LFB180:
 917:HAL_Lib/STM32H7xx_HAL_Driver/Src/stm32h7xx_hal.c **** 
 918:HAL_Lib/STM32H7xx_HAL_Driver/Src/stm32h7xx_hal.c **** /**
 919:HAL_Lib/STM32H7xx_HAL_Driver/Src/stm32h7xx_hal.c ****  * @brief  Disable the Debug Module during Domain1/CDomain SLEEP mode
 920:HAL_Lib/STM32H7xx_HAL_Driver/Src/stm32h7xx_hal.c ****  * @retval None
 921:HAL_Lib/STM32H7xx_HAL_Driver/Src/stm32h7xx_hal.c ****  */
 922:HAL_Lib/STM32H7xx_HAL_Driver/Src/stm32h7xx_hal.c **** void HAL_DBGMCU_DisableDBGSleepMode(void)
 923:HAL_Lib/STM32H7xx_HAL_Driver/Src/stm32h7xx_hal.c **** {
 1349              		.loc 1 923 1 is_stmt 1 view -0
 1350              		.cfi_startproc
ARM GAS  C:\Users\HUAV\AppData\Local\Temp\ccTib3Ek.s 			page 41


 1351              		@ args = 0, pretend = 0, frame = 0
 1352              		@ frame_needed = 0, uses_anonymous_args = 0
 1353              		@ link register save eliminated.
 924:HAL_Lib/STM32H7xx_HAL_Driver/Src/stm32h7xx_hal.c ****   CLEAR_BIT(DBGMCU->CR, DBGMCU_CR_DBG_SLEEPD1);
 1354              		.loc 1 924 3 view .LVU243
 1355 0000 024A     		ldr	r2, .L132
 1356 0002 5368     		ldr	r3, [r2, #4]
 1357 0004 23F00103 		bic	r3, r3, #1
 1358 0008 5360     		str	r3, [r2, #4]
 925:HAL_Lib/STM32H7xx_HAL_Driver/Src/stm32h7xx_hal.c **** }
 1359              		.loc 1 925 1 is_stmt 0 view .LVU244
 1360 000a 7047     		bx	lr
 1361              	.L133:
 1362              		.align	2
 1363              	.L132:
 1364 000c 0010005C 		.word	1543507968
 1365              		.cfi_endproc
 1366              	.LFE180:
 1368              		.section	.text.HAL_DBGMCU_EnableDBGStopMode,"ax",%progbits
 1369              		.align	1
 1370              		.global	HAL_DBGMCU_EnableDBGStopMode
 1371              		.syntax unified
 1372              		.thumb
 1373              		.thumb_func
 1375              	HAL_DBGMCU_EnableDBGStopMode:
 1376              	.LFB181:
 926:HAL_Lib/STM32H7xx_HAL_Driver/Src/stm32h7xx_hal.c **** 
 927:HAL_Lib/STM32H7xx_HAL_Driver/Src/stm32h7xx_hal.c **** /**
 928:HAL_Lib/STM32H7xx_HAL_Driver/Src/stm32h7xx_hal.c ****  * @brief  Enable the Debug Module during Domain1/CDomain STOP mode
 929:HAL_Lib/STM32H7xx_HAL_Driver/Src/stm32h7xx_hal.c ****  * @retval None
 930:HAL_Lib/STM32H7xx_HAL_Driver/Src/stm32h7xx_hal.c ****  */
 931:HAL_Lib/STM32H7xx_HAL_Driver/Src/stm32h7xx_hal.c **** void HAL_DBGMCU_EnableDBGStopMode(void)
 932:HAL_Lib/STM32H7xx_HAL_Driver/Src/stm32h7xx_hal.c **** {
 1377              		.loc 1 932 1 is_stmt 1 view -0
 1378              		.cfi_startproc
 1379              		@ args = 0, pretend = 0, frame = 0
 1380              		@ frame_needed = 0, uses_anonymous_args = 0
 1381              		@ link register save eliminated.
 933:HAL_Lib/STM32H7xx_HAL_Driver/Src/stm32h7xx_hal.c ****   SET_BIT(DBGMCU->CR, DBGMCU_CR_DBG_STOPD1);
 1382              		.loc 1 933 3 view .LVU246
 1383 0000 024A     		ldr	r2, .L135
 1384 0002 5368     		ldr	r3, [r2, #4]
 1385 0004 43F00203 		orr	r3, r3, #2
 1386 0008 5360     		str	r3, [r2, #4]
 934:HAL_Lib/STM32H7xx_HAL_Driver/Src/stm32h7xx_hal.c **** }
 1387              		.loc 1 934 1 is_stmt 0 view .LVU247
 1388 000a 7047     		bx	lr
 1389              	.L136:
 1390              		.align	2
 1391              	.L135:
 1392 000c 0010005C 		.word	1543507968
 1393              		.cfi_endproc
 1394              	.LFE181:
 1396              		.section	.text.HAL_DBGMCU_DisableDBGStopMode,"ax",%progbits
 1397              		.align	1
 1398              		.global	HAL_DBGMCU_DisableDBGStopMode
 1399              		.syntax unified
ARM GAS  C:\Users\HUAV\AppData\Local\Temp\ccTib3Ek.s 			page 42


 1400              		.thumb
 1401              		.thumb_func
 1403              	HAL_DBGMCU_DisableDBGStopMode:
 1404              	.LFB182:
 935:HAL_Lib/STM32H7xx_HAL_Driver/Src/stm32h7xx_hal.c **** 
 936:HAL_Lib/STM32H7xx_HAL_Driver/Src/stm32h7xx_hal.c **** /**
 937:HAL_Lib/STM32H7xx_HAL_Driver/Src/stm32h7xx_hal.c ****  * @brief  Disable the Debug Module during Domain1/CDomain STOP mode
 938:HAL_Lib/STM32H7xx_HAL_Driver/Src/stm32h7xx_hal.c ****  * @retval None
 939:HAL_Lib/STM32H7xx_HAL_Driver/Src/stm32h7xx_hal.c ****  */
 940:HAL_Lib/STM32H7xx_HAL_Driver/Src/stm32h7xx_hal.c **** void HAL_DBGMCU_DisableDBGStopMode(void)
 941:HAL_Lib/STM32H7xx_HAL_Driver/Src/stm32h7xx_hal.c **** {
 1405              		.loc 1 941 1 is_stmt 1 view -0
 1406              		.cfi_startproc
 1407              		@ args = 0, pretend = 0, frame = 0
 1408              		@ frame_needed = 0, uses_anonymous_args = 0
 1409              		@ link register save eliminated.
 942:HAL_Lib/STM32H7xx_HAL_Driver/Src/stm32h7xx_hal.c ****   CLEAR_BIT(DBGMCU->CR, DBGMCU_CR_DBG_STOPD1);
 1410              		.loc 1 942 3 view .LVU249
 1411 0000 024A     		ldr	r2, .L138
 1412 0002 5368     		ldr	r3, [r2, #4]
 1413 0004 23F00203 		bic	r3, r3, #2
 1414 0008 5360     		str	r3, [r2, #4]
 943:HAL_Lib/STM32H7xx_HAL_Driver/Src/stm32h7xx_hal.c **** }
 1415              		.loc 1 943 1 is_stmt 0 view .LVU250
 1416 000a 7047     		bx	lr
 1417              	.L139:
 1418              		.align	2
 1419              	.L138:
 1420 000c 0010005C 		.word	1543507968
 1421              		.cfi_endproc
 1422              	.LFE182:
 1424              		.section	.text.HAL_DBGMCU_EnableDBGStandbyMode,"ax",%progbits
 1425              		.align	1
 1426              		.global	HAL_DBGMCU_EnableDBGStandbyMode
 1427              		.syntax unified
 1428              		.thumb
 1429              		.thumb_func
 1431              	HAL_DBGMCU_EnableDBGStandbyMode:
 1432              	.LFB183:
 944:HAL_Lib/STM32H7xx_HAL_Driver/Src/stm32h7xx_hal.c **** 
 945:HAL_Lib/STM32H7xx_HAL_Driver/Src/stm32h7xx_hal.c **** /**
 946:HAL_Lib/STM32H7xx_HAL_Driver/Src/stm32h7xx_hal.c ****  * @brief  Enable the Debug Module during Domain1/CDomain STANDBY mode
 947:HAL_Lib/STM32H7xx_HAL_Driver/Src/stm32h7xx_hal.c ****  * @retval None
 948:HAL_Lib/STM32H7xx_HAL_Driver/Src/stm32h7xx_hal.c ****  */
 949:HAL_Lib/STM32H7xx_HAL_Driver/Src/stm32h7xx_hal.c **** void HAL_DBGMCU_EnableDBGStandbyMode(void)
 950:HAL_Lib/STM32H7xx_HAL_Driver/Src/stm32h7xx_hal.c **** {
 1433              		.loc 1 950 1 is_stmt 1 view -0
 1434              		.cfi_startproc
 1435              		@ args = 0, pretend = 0, frame = 0
 1436              		@ frame_needed = 0, uses_anonymous_args = 0
 1437              		@ link register save eliminated.
 951:HAL_Lib/STM32H7xx_HAL_Driver/Src/stm32h7xx_hal.c ****   SET_BIT(DBGMCU->CR, DBGMCU_CR_DBG_STANDBYD1);
 1438              		.loc 1 951 3 view .LVU252
 1439 0000 024A     		ldr	r2, .L141
 1440 0002 5368     		ldr	r3, [r2, #4]
 1441 0004 43F00403 		orr	r3, r3, #4
 1442 0008 5360     		str	r3, [r2, #4]
ARM GAS  C:\Users\HUAV\AppData\Local\Temp\ccTib3Ek.s 			page 43


 952:HAL_Lib/STM32H7xx_HAL_Driver/Src/stm32h7xx_hal.c **** }
 1443              		.loc 1 952 1 is_stmt 0 view .LVU253
 1444 000a 7047     		bx	lr
 1445              	.L142:
 1446              		.align	2
 1447              	.L141:
 1448 000c 0010005C 		.word	1543507968
 1449              		.cfi_endproc
 1450              	.LFE183:
 1452              		.section	.text.HAL_DBGMCU_DisableDBGStandbyMode,"ax",%progbits
 1453              		.align	1
 1454              		.global	HAL_DBGMCU_DisableDBGStandbyMode
 1455              		.syntax unified
 1456              		.thumb
 1457              		.thumb_func
 1459              	HAL_DBGMCU_DisableDBGStandbyMode:
 1460              	.LFB184:
 953:HAL_Lib/STM32H7xx_HAL_Driver/Src/stm32h7xx_hal.c **** 
 954:HAL_Lib/STM32H7xx_HAL_Driver/Src/stm32h7xx_hal.c **** /**
 955:HAL_Lib/STM32H7xx_HAL_Driver/Src/stm32h7xx_hal.c ****  * @brief  Disable the Debug Module during Domain1/CDomain STANDBY mode
 956:HAL_Lib/STM32H7xx_HAL_Driver/Src/stm32h7xx_hal.c ****  * @retval None
 957:HAL_Lib/STM32H7xx_HAL_Driver/Src/stm32h7xx_hal.c ****  */
 958:HAL_Lib/STM32H7xx_HAL_Driver/Src/stm32h7xx_hal.c **** void HAL_DBGMCU_DisableDBGStandbyMode(void)
 959:HAL_Lib/STM32H7xx_HAL_Driver/Src/stm32h7xx_hal.c **** {
 1461              		.loc 1 959 1 is_stmt 1 view -0
 1462              		.cfi_startproc
 1463              		@ args = 0, pretend = 0, frame = 0
 1464              		@ frame_needed = 0, uses_anonymous_args = 0
 1465              		@ link register save eliminated.
 960:HAL_Lib/STM32H7xx_HAL_Driver/Src/stm32h7xx_hal.c ****   CLEAR_BIT(DBGMCU->CR, DBGMCU_CR_DBG_STANDBYD1);
 1466              		.loc 1 960 3 view .LVU255
 1467 0000 024A     		ldr	r2, .L144
 1468 0002 5368     		ldr	r3, [r2, #4]
 1469 0004 23F00403 		bic	r3, r3, #4
 1470 0008 5360     		str	r3, [r2, #4]
 961:HAL_Lib/STM32H7xx_HAL_Driver/Src/stm32h7xx_hal.c **** }
 1471              		.loc 1 961 1 is_stmt 0 view .LVU256
 1472 000a 7047     		bx	lr
 1473              	.L145:
 1474              		.align	2
 1475              	.L144:
 1476 000c 0010005C 		.word	1543507968
 1477              		.cfi_endproc
 1478              	.LFE184:
 1480              		.section	.text.HAL_SetFMCMemorySwappingConfig,"ax",%progbits
 1481              		.align	1
 1482              		.global	HAL_SetFMCMemorySwappingConfig
 1483              		.syntax unified
 1484              		.thumb
 1485              		.thumb_func
 1487              	HAL_SetFMCMemorySwappingConfig:
 1488              	.LVL43:
 1489              	.LFB185:
 962:HAL_Lib/STM32H7xx_HAL_Driver/Src/stm32h7xx_hal.c **** 
 963:HAL_Lib/STM32H7xx_HAL_Driver/Src/stm32h7xx_hal.c **** #if defined(DUAL_CORE)
 964:HAL_Lib/STM32H7xx_HAL_Driver/Src/stm32h7xx_hal.c **** /**
 965:HAL_Lib/STM32H7xx_HAL_Driver/Src/stm32h7xx_hal.c ****  * @brief  Enable the Debug Module during Domain1 SLEEP mode
ARM GAS  C:\Users\HUAV\AppData\Local\Temp\ccTib3Ek.s 			page 44


 966:HAL_Lib/STM32H7xx_HAL_Driver/Src/stm32h7xx_hal.c ****  * @retval None
 967:HAL_Lib/STM32H7xx_HAL_Driver/Src/stm32h7xx_hal.c ****  */
 968:HAL_Lib/STM32H7xx_HAL_Driver/Src/stm32h7xx_hal.c **** void HAL_EnableDomain2DBGSleepMode(void)
 969:HAL_Lib/STM32H7xx_HAL_Driver/Src/stm32h7xx_hal.c **** {
 970:HAL_Lib/STM32H7xx_HAL_Driver/Src/stm32h7xx_hal.c ****   SET_BIT(DBGMCU->CR, DBGMCU_CR_DBG_SLEEPD2);
 971:HAL_Lib/STM32H7xx_HAL_Driver/Src/stm32h7xx_hal.c **** }
 972:HAL_Lib/STM32H7xx_HAL_Driver/Src/stm32h7xx_hal.c **** 
 973:HAL_Lib/STM32H7xx_HAL_Driver/Src/stm32h7xx_hal.c **** /**
 974:HAL_Lib/STM32H7xx_HAL_Driver/Src/stm32h7xx_hal.c ****  * @brief  Disable the Debug Module during Domain2 SLEEP mode
 975:HAL_Lib/STM32H7xx_HAL_Driver/Src/stm32h7xx_hal.c ****  * @retval None
 976:HAL_Lib/STM32H7xx_HAL_Driver/Src/stm32h7xx_hal.c ****  */
 977:HAL_Lib/STM32H7xx_HAL_Driver/Src/stm32h7xx_hal.c **** void HAL_DisableDomain2DBGSleepMode(void)
 978:HAL_Lib/STM32H7xx_HAL_Driver/Src/stm32h7xx_hal.c **** {
 979:HAL_Lib/STM32H7xx_HAL_Driver/Src/stm32h7xx_hal.c ****   CLEAR_BIT(DBGMCU->CR, DBGMCU_CR_DBG_SLEEPD2);
 980:HAL_Lib/STM32H7xx_HAL_Driver/Src/stm32h7xx_hal.c **** }
 981:HAL_Lib/STM32H7xx_HAL_Driver/Src/stm32h7xx_hal.c **** 
 982:HAL_Lib/STM32H7xx_HAL_Driver/Src/stm32h7xx_hal.c **** /**
 983:HAL_Lib/STM32H7xx_HAL_Driver/Src/stm32h7xx_hal.c ****  * @brief  Enable the Debug Module during Domain2 STOP mode
 984:HAL_Lib/STM32H7xx_HAL_Driver/Src/stm32h7xx_hal.c ****  * @retval None
 985:HAL_Lib/STM32H7xx_HAL_Driver/Src/stm32h7xx_hal.c ****  */
 986:HAL_Lib/STM32H7xx_HAL_Driver/Src/stm32h7xx_hal.c **** void HAL_EnableDomain2DBGStopMode(void)
 987:HAL_Lib/STM32H7xx_HAL_Driver/Src/stm32h7xx_hal.c **** {
 988:HAL_Lib/STM32H7xx_HAL_Driver/Src/stm32h7xx_hal.c ****   SET_BIT(DBGMCU->CR, DBGMCU_CR_DBG_STOPD2);
 989:HAL_Lib/STM32H7xx_HAL_Driver/Src/stm32h7xx_hal.c **** }
 990:HAL_Lib/STM32H7xx_HAL_Driver/Src/stm32h7xx_hal.c **** 
 991:HAL_Lib/STM32H7xx_HAL_Driver/Src/stm32h7xx_hal.c **** /**
 992:HAL_Lib/STM32H7xx_HAL_Driver/Src/stm32h7xx_hal.c ****  * @brief  Disable the Debug Module during Domain2 STOP mode
 993:HAL_Lib/STM32H7xx_HAL_Driver/Src/stm32h7xx_hal.c ****  * @retval None
 994:HAL_Lib/STM32H7xx_HAL_Driver/Src/stm32h7xx_hal.c ****  */
 995:HAL_Lib/STM32H7xx_HAL_Driver/Src/stm32h7xx_hal.c **** void HAL_DisableDomain2DBGStopMode(void)
 996:HAL_Lib/STM32H7xx_HAL_Driver/Src/stm32h7xx_hal.c **** {
 997:HAL_Lib/STM32H7xx_HAL_Driver/Src/stm32h7xx_hal.c ****   CLEAR_BIT(DBGMCU->CR, DBGMCU_CR_DBG_STOPD2);
 998:HAL_Lib/STM32H7xx_HAL_Driver/Src/stm32h7xx_hal.c **** }
 999:HAL_Lib/STM32H7xx_HAL_Driver/Src/stm32h7xx_hal.c **** 
1000:HAL_Lib/STM32H7xx_HAL_Driver/Src/stm32h7xx_hal.c **** /**
1001:HAL_Lib/STM32H7xx_HAL_Driver/Src/stm32h7xx_hal.c ****  * @brief  Enable the Debug Module during Domain2 STANDBY mode
1002:HAL_Lib/STM32H7xx_HAL_Driver/Src/stm32h7xx_hal.c ****  * @retval None
1003:HAL_Lib/STM32H7xx_HAL_Driver/Src/stm32h7xx_hal.c ****  */
1004:HAL_Lib/STM32H7xx_HAL_Driver/Src/stm32h7xx_hal.c **** void HAL_EnableDomain2DBGStandbyMode(void)
1005:HAL_Lib/STM32H7xx_HAL_Driver/Src/stm32h7xx_hal.c **** {
1006:HAL_Lib/STM32H7xx_HAL_Driver/Src/stm32h7xx_hal.c ****   SET_BIT(DBGMCU->CR, DBGMCU_CR_DBG_STANDBYD2);
1007:HAL_Lib/STM32H7xx_HAL_Driver/Src/stm32h7xx_hal.c **** }
1008:HAL_Lib/STM32H7xx_HAL_Driver/Src/stm32h7xx_hal.c **** 
1009:HAL_Lib/STM32H7xx_HAL_Driver/Src/stm32h7xx_hal.c **** /**
1010:HAL_Lib/STM32H7xx_HAL_Driver/Src/stm32h7xx_hal.c ****  * @brief  Disable the Debug Module during Domain2 STANDBY mode
1011:HAL_Lib/STM32H7xx_HAL_Driver/Src/stm32h7xx_hal.c ****  * @retval None
1012:HAL_Lib/STM32H7xx_HAL_Driver/Src/stm32h7xx_hal.c ****  */
1013:HAL_Lib/STM32H7xx_HAL_Driver/Src/stm32h7xx_hal.c **** void HAL_DisableDomain2DBGStandbyMode(void)
1014:HAL_Lib/STM32H7xx_HAL_Driver/Src/stm32h7xx_hal.c **** {
1015:HAL_Lib/STM32H7xx_HAL_Driver/Src/stm32h7xx_hal.c ****   CLEAR_BIT(DBGMCU->CR, DBGMCU_CR_DBG_STANDBYD2);
1016:HAL_Lib/STM32H7xx_HAL_Driver/Src/stm32h7xx_hal.c **** }
1017:HAL_Lib/STM32H7xx_HAL_Driver/Src/stm32h7xx_hal.c **** #endif /*DUAL_CORE*/
1018:HAL_Lib/STM32H7xx_HAL_Driver/Src/stm32h7xx_hal.c **** 
1019:HAL_Lib/STM32H7xx_HAL_Driver/Src/stm32h7xx_hal.c **** #if defined(DBGMCU_CR_DBG_STOPD3)
1020:HAL_Lib/STM32H7xx_HAL_Driver/Src/stm32h7xx_hal.c **** /**
1021:HAL_Lib/STM32H7xx_HAL_Driver/Src/stm32h7xx_hal.c ****  * @brief  Enable the Debug Module during Domain3/SRDomain STOP mode
1022:HAL_Lib/STM32H7xx_HAL_Driver/Src/stm32h7xx_hal.c ****  * @retval None
ARM GAS  C:\Users\HUAV\AppData\Local\Temp\ccTib3Ek.s 			page 45


1023:HAL_Lib/STM32H7xx_HAL_Driver/Src/stm32h7xx_hal.c ****  */
1024:HAL_Lib/STM32H7xx_HAL_Driver/Src/stm32h7xx_hal.c **** void HAL_EnableDomain3DBGStopMode(void)
1025:HAL_Lib/STM32H7xx_HAL_Driver/Src/stm32h7xx_hal.c **** {
1026:HAL_Lib/STM32H7xx_HAL_Driver/Src/stm32h7xx_hal.c ****   SET_BIT(DBGMCU->CR, DBGMCU_CR_DBG_STOPD3);
1027:HAL_Lib/STM32H7xx_HAL_Driver/Src/stm32h7xx_hal.c **** }
1028:HAL_Lib/STM32H7xx_HAL_Driver/Src/stm32h7xx_hal.c **** 
1029:HAL_Lib/STM32H7xx_HAL_Driver/Src/stm32h7xx_hal.c **** /**
1030:HAL_Lib/STM32H7xx_HAL_Driver/Src/stm32h7xx_hal.c ****  * @brief  Disable the Debug Module during Domain3/SRDomain STOP mode
1031:HAL_Lib/STM32H7xx_HAL_Driver/Src/stm32h7xx_hal.c ****  * @retval None
1032:HAL_Lib/STM32H7xx_HAL_Driver/Src/stm32h7xx_hal.c ****  */
1033:HAL_Lib/STM32H7xx_HAL_Driver/Src/stm32h7xx_hal.c **** void HAL_DisableDomain3DBGStopMode(void)
1034:HAL_Lib/STM32H7xx_HAL_Driver/Src/stm32h7xx_hal.c **** {
1035:HAL_Lib/STM32H7xx_HAL_Driver/Src/stm32h7xx_hal.c ****   CLEAR_BIT(DBGMCU->CR, DBGMCU_CR_DBG_STOPD3);
1036:HAL_Lib/STM32H7xx_HAL_Driver/Src/stm32h7xx_hal.c **** }
1037:HAL_Lib/STM32H7xx_HAL_Driver/Src/stm32h7xx_hal.c **** #endif /*DBGMCU_CR_DBG_STOPD3*/
1038:HAL_Lib/STM32H7xx_HAL_Driver/Src/stm32h7xx_hal.c **** 
1039:HAL_Lib/STM32H7xx_HAL_Driver/Src/stm32h7xx_hal.c **** #if defined(DBGMCU_CR_DBG_STANDBYD3)
1040:HAL_Lib/STM32H7xx_HAL_Driver/Src/stm32h7xx_hal.c **** /**
1041:HAL_Lib/STM32H7xx_HAL_Driver/Src/stm32h7xx_hal.c ****  * @brief  Enable the Debug Module during Domain3/SRDomain STANDBY mode
1042:HAL_Lib/STM32H7xx_HAL_Driver/Src/stm32h7xx_hal.c ****  * @retval None
1043:HAL_Lib/STM32H7xx_HAL_Driver/Src/stm32h7xx_hal.c ****  */
1044:HAL_Lib/STM32H7xx_HAL_Driver/Src/stm32h7xx_hal.c **** void HAL_EnableDomain3DBGStandbyMode(void)
1045:HAL_Lib/STM32H7xx_HAL_Driver/Src/stm32h7xx_hal.c **** {
1046:HAL_Lib/STM32H7xx_HAL_Driver/Src/stm32h7xx_hal.c ****   SET_BIT(DBGMCU->CR, DBGMCU_CR_DBG_STANDBYD3);
1047:HAL_Lib/STM32H7xx_HAL_Driver/Src/stm32h7xx_hal.c **** }
1048:HAL_Lib/STM32H7xx_HAL_Driver/Src/stm32h7xx_hal.c **** 
1049:HAL_Lib/STM32H7xx_HAL_Driver/Src/stm32h7xx_hal.c **** /**
1050:HAL_Lib/STM32H7xx_HAL_Driver/Src/stm32h7xx_hal.c ****  * @brief  Disable the Debug Module during Domain3/SRDomain STANDBY mode
1051:HAL_Lib/STM32H7xx_HAL_Driver/Src/stm32h7xx_hal.c ****  * @retval None
1052:HAL_Lib/STM32H7xx_HAL_Driver/Src/stm32h7xx_hal.c ****  */
1053:HAL_Lib/STM32H7xx_HAL_Driver/Src/stm32h7xx_hal.c **** void HAL_DisableDomain3DBGStandbyMode(void)
1054:HAL_Lib/STM32H7xx_HAL_Driver/Src/stm32h7xx_hal.c **** {
1055:HAL_Lib/STM32H7xx_HAL_Driver/Src/stm32h7xx_hal.c ****   CLEAR_BIT(DBGMCU->CR, DBGMCU_CR_DBG_STANDBYD3);
1056:HAL_Lib/STM32H7xx_HAL_Driver/Src/stm32h7xx_hal.c **** }
1057:HAL_Lib/STM32H7xx_HAL_Driver/Src/stm32h7xx_hal.c **** #endif /*DBGMCU_CR_DBG_STANDBYD3*/
1058:HAL_Lib/STM32H7xx_HAL_Driver/Src/stm32h7xx_hal.c **** 
1059:HAL_Lib/STM32H7xx_HAL_Driver/Src/stm32h7xx_hal.c **** /**
1060:HAL_Lib/STM32H7xx_HAL_Driver/Src/stm32h7xx_hal.c ****   * @brief  Set the FMC Memory Mapping Swapping config.
1061:HAL_Lib/STM32H7xx_HAL_Driver/Src/stm32h7xx_hal.c ****   * @param  BankMapConfig: Defines the FMC Bank mapping configuration. This parameter can be
1062:HAL_Lib/STM32H7xx_HAL_Driver/Src/stm32h7xx_hal.c ****             FMC_SWAPBMAP_DISABLE, FMC_SWAPBMAP_SDRAM_SRAM, FMC_SWAPBMAP_SDRAMB2
1063:HAL_Lib/STM32H7xx_HAL_Driver/Src/stm32h7xx_hal.c ****   * @retval HAL state
1064:HAL_Lib/STM32H7xx_HAL_Driver/Src/stm32h7xx_hal.c ****   */
1065:HAL_Lib/STM32H7xx_HAL_Driver/Src/stm32h7xx_hal.c **** void HAL_SetFMCMemorySwappingConfig(uint32_t BankMapConfig)
1066:HAL_Lib/STM32H7xx_HAL_Driver/Src/stm32h7xx_hal.c **** {
 1490              		.loc 1 1066 1 is_stmt 1 view -0
 1491              		.cfi_startproc
 1492              		@ args = 0, pretend = 0, frame = 0
 1493              		@ frame_needed = 0, uses_anonymous_args = 0
 1494              		@ link register save eliminated.
1067:HAL_Lib/STM32H7xx_HAL_Driver/Src/stm32h7xx_hal.c ****   /* Check the parameter */
1068:HAL_Lib/STM32H7xx_HAL_Driver/Src/stm32h7xx_hal.c ****   assert_param(IS_FMC_SWAPBMAP_MODE(BankMapConfig));
 1495              		.loc 1 1068 3 view .LVU258
1069:HAL_Lib/STM32H7xx_HAL_Driver/Src/stm32h7xx_hal.c ****   MODIFY_REG(FMC_Bank1_R->BTCR[0], FMC_BCR1_BMAP, BankMapConfig);
 1496              		.loc 1 1069 3 view .LVU259
 1497 0000 034A     		ldr	r2, .L147
 1498 0002 1368     		ldr	r3, [r2]
 1499 0004 23F04073 		bic	r3, r3, #50331648
ARM GAS  C:\Users\HUAV\AppData\Local\Temp\ccTib3Ek.s 			page 46


 1500 0008 0343     		orrs	r3, r3, r0
 1501 000a 1360     		str	r3, [r2]
1070:HAL_Lib/STM32H7xx_HAL_Driver/Src/stm32h7xx_hal.c **** }
 1502              		.loc 1 1070 1 is_stmt 0 view .LVU260
 1503 000c 7047     		bx	lr
 1504              	.L148:
 1505 000e 00BF     		.align	2
 1506              	.L147:
 1507 0010 00400052 		.word	1375748096
 1508              		.cfi_endproc
 1509              	.LFE185:
 1511              		.section	.text.HAL_GetFMCMemorySwappingConfig,"ax",%progbits
 1512              		.align	1
 1513              		.global	HAL_GetFMCMemorySwappingConfig
 1514              		.syntax unified
 1515              		.thumb
 1516              		.thumb_func
 1518              	HAL_GetFMCMemorySwappingConfig:
 1519              	.LFB186:
1071:HAL_Lib/STM32H7xx_HAL_Driver/Src/stm32h7xx_hal.c **** 
1072:HAL_Lib/STM32H7xx_HAL_Driver/Src/stm32h7xx_hal.c **** /**
1073:HAL_Lib/STM32H7xx_HAL_Driver/Src/stm32h7xx_hal.c ****   * @brief  Get FMC Bank mapping mode.
1074:HAL_Lib/STM32H7xx_HAL_Driver/Src/stm32h7xx_hal.c ****   * @retval The FMC Bank mapping mode. This parameter can be
1075:HAL_Lib/STM32H7xx_HAL_Driver/Src/stm32h7xx_hal.c ****             FMC_SWAPBMAP_DISABLE, FMC_SWAPBMAP_SDRAM_SRAM, FMC_SWAPBMAP_SDRAMB2
1076:HAL_Lib/STM32H7xx_HAL_Driver/Src/stm32h7xx_hal.c **** */
1077:HAL_Lib/STM32H7xx_HAL_Driver/Src/stm32h7xx_hal.c **** uint32_t HAL_GetFMCMemorySwappingConfig(void)
1078:HAL_Lib/STM32H7xx_HAL_Driver/Src/stm32h7xx_hal.c **** {
 1520              		.loc 1 1078 1 is_stmt 1 view -0
 1521              		.cfi_startproc
 1522              		@ args = 0, pretend = 0, frame = 0
 1523              		@ frame_needed = 0, uses_anonymous_args = 0
 1524              		@ link register save eliminated.
1079:HAL_Lib/STM32H7xx_HAL_Driver/Src/stm32h7xx_hal.c ****   return READ_BIT(FMC_Bank1_R->BTCR[0], FMC_BCR1_BMAP);
 1525              		.loc 1 1079 3 view .LVU262
 1526              		.loc 1 1079 10 is_stmt 0 view .LVU263
 1527 0000 024B     		ldr	r3, .L150
 1528 0002 1868     		ldr	r0, [r3]
1080:HAL_Lib/STM32H7xx_HAL_Driver/Src/stm32h7xx_hal.c **** }
 1529              		.loc 1 1080 1 view .LVU264
 1530 0004 00F04070 		and	r0, r0, #50331648
 1531 0008 7047     		bx	lr
 1532              	.L151:
 1533 000a 00BF     		.align	2
 1534              	.L150:
 1535 000c 00400052 		.word	1375748096
 1536              		.cfi_endproc
 1537              	.LFE186:
 1539              		.section	.text.HAL_EXTI_EdgeConfig,"ax",%progbits
 1540              		.align	1
 1541              		.global	HAL_EXTI_EdgeConfig
 1542              		.syntax unified
 1543              		.thumb
 1544              		.thumb_func
 1546              	HAL_EXTI_EdgeConfig:
 1547              	.LVL44:
 1548              	.LFB187:
1081:HAL_Lib/STM32H7xx_HAL_Driver/Src/stm32h7xx_hal.c **** 
ARM GAS  C:\Users\HUAV\AppData\Local\Temp\ccTib3Ek.s 			page 47


1082:HAL_Lib/STM32H7xx_HAL_Driver/Src/stm32h7xx_hal.c **** /**
1083:HAL_Lib/STM32H7xx_HAL_Driver/Src/stm32h7xx_hal.c ****  * @brief  Configure the EXTI input event line edge
1084:HAL_Lib/STM32H7xx_HAL_Driver/Src/stm32h7xx_hal.c ****  * @note    No edge configuration for direct lines but for configurable lines:(EXTI_LINE0..EXTI_LIN
1085:HAL_Lib/STM32H7xx_HAL_Driver/Src/stm32h7xx_hal.c ****  *          EXTI_LINE49,EXTI_LINE51,EXTI_LINE82,EXTI_LINE84,EXTI_LINE85 and EXTI_LINE86.
1086:HAL_Lib/STM32H7xx_HAL_Driver/Src/stm32h7xx_hal.c ****  * @param   EXTI_Line: Specifies the EXTI LINE, it can be one of the following values,
1087:HAL_Lib/STM32H7xx_HAL_Driver/Src/stm32h7xx_hal.c ****  *         (EXTI_LINE0....EXTI_LINE87)excluding :line45, line81,line83 which are reserved
1088:HAL_Lib/STM32H7xx_HAL_Driver/Src/stm32h7xx_hal.c ****  * @param   EXTI_Edge: Specifies  EXTI line Edge used.
1089:HAL_Lib/STM32H7xx_HAL_Driver/Src/stm32h7xx_hal.c ****  *          This parameter can be one of the following values :
1090:HAL_Lib/STM32H7xx_HAL_Driver/Src/stm32h7xx_hal.c ****  *   @arg EXTI_RISING_EDGE : Configurable line, with Rising edge trigger detection
1091:HAL_Lib/STM32H7xx_HAL_Driver/Src/stm32h7xx_hal.c ****  *   @arg EXTI_FALLING_EDGE: Configurable line, with Falling edge trigger detection
1092:HAL_Lib/STM32H7xx_HAL_Driver/Src/stm32h7xx_hal.c ****  * @retval None
1093:HAL_Lib/STM32H7xx_HAL_Driver/Src/stm32h7xx_hal.c ****  */
1094:HAL_Lib/STM32H7xx_HAL_Driver/Src/stm32h7xx_hal.c **** void HAL_EXTI_EdgeConfig(uint32_t EXTI_Line, uint32_t EXTI_Edge)
1095:HAL_Lib/STM32H7xx_HAL_Driver/Src/stm32h7xx_hal.c **** {
 1549              		.loc 1 1095 1 is_stmt 1 view -0
 1550              		.cfi_startproc
 1551              		@ args = 0, pretend = 0, frame = 0
 1552              		@ frame_needed = 0, uses_anonymous_args = 0
 1553              		@ link register save eliminated.
 1554              		.loc 1 1095 1 is_stmt 0 view .LVU266
 1555 0000 30B4     		push	{r4, r5}
 1556              	.LCFI6:
 1557              		.cfi_def_cfa_offset 8
 1558              		.cfi_offset 4, -8
 1559              		.cfi_offset 5, -4
1096:HAL_Lib/STM32H7xx_HAL_Driver/Src/stm32h7xx_hal.c ****   /* Check the parameter */
1097:HAL_Lib/STM32H7xx_HAL_Driver/Src/stm32h7xx_hal.c ****   assert_param(IS_HAL_EXTI_CONFIG_LINE(EXTI_Line));
 1560              		.loc 1 1097 3 is_stmt 1 view .LVU267
1098:HAL_Lib/STM32H7xx_HAL_Driver/Src/stm32h7xx_hal.c ****   assert_param(IS_EXTI_EDGE_LINE(EXTI_Edge));
 1561              		.loc 1 1098 3 view .LVU268
1099:HAL_Lib/STM32H7xx_HAL_Driver/Src/stm32h7xx_hal.c **** 
1100:HAL_Lib/STM32H7xx_HAL_Driver/Src/stm32h7xx_hal.c ****   /* Clear Rising Falling edge configuration */
1101:HAL_Lib/STM32H7xx_HAL_Driver/Src/stm32h7xx_hal.c ****   CLEAR_BIT(*(__IO uint32_t *)(((uint32_t) & (EXTI->FTSR1)) + ((EXTI_Line >> 5) * 0x20UL)), (uint32
 1562              		.loc 1 1101 3 view .LVU269
 1563 0002 4309     		lsrs	r3, r0, #5
 1564 0004 20F01F0C 		bic	ip, r0, #31
 1565 0008 114C     		ldr	r4, .L156
 1566 000a 5CF80450 		ldr	r5, [ip, r4]
 1567 000e 00F01F00 		and	r0, r0, #31
 1568              	.LVL45:
 1569              		.loc 1 1101 3 is_stmt 0 view .LVU270
 1570 0012 0122     		movs	r2, #1
 1571 0014 02FA00F0 		lsl	r0, r2, r0
 1572 0018 25EA0005 		bic	r5, r5, r0
 1573 001c 4CF80450 		str	r5, [ip, r4]
1102:HAL_Lib/STM32H7xx_HAL_Driver/Src/stm32h7xx_hal.c ****   CLEAR_BIT(*(__IO uint32_t *)(((uint32_t) & (EXTI->RTSR1)) + ((EXTI_Line >> 5) * 0x20UL)), (uint32
 1574              		.loc 1 1102 3 is_stmt 1 view .LVU271
 1575 0020 03F13073 		add	r3, r3, #46137344
 1576 0024 5B01     		lsls	r3, r3, #5
 1577 0026 1A68     		ldr	r2, [r3]
 1578 0028 22EA0002 		bic	r2, r2, r0
 1579 002c 1A60     		str	r2, [r3]
1103:HAL_Lib/STM32H7xx_HAL_Driver/Src/stm32h7xx_hal.c **** 
1104:HAL_Lib/STM32H7xx_HAL_Driver/Src/stm32h7xx_hal.c ****   if ((EXTI_Edge & EXTI_RISING_EDGE) == EXTI_RISING_EDGE)
 1580              		.loc 1 1104 3 view .LVU272
 1581              		.loc 1 1104 6 is_stmt 0 view .LVU273
 1582 002e 11F4801F 		tst	r1, #1048576
ARM GAS  C:\Users\HUAV\AppData\Local\Temp\ccTib3Ek.s 			page 48


 1583 0032 02D0     		beq	.L153
1105:HAL_Lib/STM32H7xx_HAL_Driver/Src/stm32h7xx_hal.c ****   {
1106:HAL_Lib/STM32H7xx_HAL_Driver/Src/stm32h7xx_hal.c ****     SET_BIT(*(__IO uint32_t *)(((uint32_t) & (EXTI->RTSR1)) + ((EXTI_Line >> 5) * 0x20UL)), (uint32
 1584              		.loc 1 1106 5 is_stmt 1 view .LVU274
 1585 0034 1A68     		ldr	r2, [r3]
 1586 0036 0243     		orrs	r2, r2, r0
 1587 0038 1A60     		str	r2, [r3]
 1588              	.L153:
1107:HAL_Lib/STM32H7xx_HAL_Driver/Src/stm32h7xx_hal.c ****   }
1108:HAL_Lib/STM32H7xx_HAL_Driver/Src/stm32h7xx_hal.c ****   if ((EXTI_Edge & EXTI_FALLING_EDGE) == EXTI_FALLING_EDGE)
 1589              		.loc 1 1108 3 view .LVU275
 1590              		.loc 1 1108 6 is_stmt 0 view .LVU276
 1591 003a 11F4001F 		tst	r1, #2097152
 1592 003e 04D0     		beq	.L152
1109:HAL_Lib/STM32H7xx_HAL_Driver/Src/stm32h7xx_hal.c ****   {
1110:HAL_Lib/STM32H7xx_HAL_Driver/Src/stm32h7xx_hal.c ****     SET_BIT(*(__IO uint32_t *)(((uint32_t) & (EXTI->FTSR1)) + ((EXTI_Line >> 5) * 0x20UL)), (uint32
 1593              		.loc 1 1110 5 is_stmt 1 view .LVU277
 1594 0040 5CF80430 		ldr	r3, [ip, r4]
 1595 0044 1843     		orrs	r0, r0, r3
 1596 0046 4CF80400 		str	r0, [ip, r4]
 1597              	.L152:
1111:HAL_Lib/STM32H7xx_HAL_Driver/Src/stm32h7xx_hal.c ****   }
1112:HAL_Lib/STM32H7xx_HAL_Driver/Src/stm32h7xx_hal.c **** }
 1598              		.loc 1 1112 1 is_stmt 0 view .LVU278
 1599 004a 30BC     		pop	{r4, r5}
 1600              	.LCFI7:
 1601              		.cfi_restore 5
 1602              		.cfi_restore 4
 1603              		.cfi_def_cfa_offset 0
 1604 004c 7047     		bx	lr
 1605              	.L157:
 1606 004e 00BF     		.align	2
 1607              	.L156:
 1608 0050 04000058 		.word	1476395012
 1609              		.cfi_endproc
 1610              	.LFE187:
 1612              		.section	.text.HAL_EXTI_GenerateSWInterrupt,"ax",%progbits
 1613              		.align	1
 1614              		.global	HAL_EXTI_GenerateSWInterrupt
 1615              		.syntax unified
 1616              		.thumb
 1617              		.thumb_func
 1619              	HAL_EXTI_GenerateSWInterrupt:
 1620              	.LVL46:
 1621              	.LFB188:
1113:HAL_Lib/STM32H7xx_HAL_Driver/Src/stm32h7xx_hal.c **** 
1114:HAL_Lib/STM32H7xx_HAL_Driver/Src/stm32h7xx_hal.c **** /**
1115:HAL_Lib/STM32H7xx_HAL_Driver/Src/stm32h7xx_hal.c ****  * @brief  Generates a Software interrupt on selected EXTI line.
1116:HAL_Lib/STM32H7xx_HAL_Driver/Src/stm32h7xx_hal.c ****  * @param   EXTI_Line: Specifies the EXTI LINE, it can be one of the following values,
1117:HAL_Lib/STM32H7xx_HAL_Driver/Src/stm32h7xx_hal.c ****  *          (EXTI_LINE0..EXTI_LINE21),EXTI_LINE49,EXTI_LINE51,EXTI_LINE82,EXTI_LINE84,EXTI_LINE85 a
1118:HAL_Lib/STM32H7xx_HAL_Driver/Src/stm32h7xx_hal.c ****  * @retval None
1119:HAL_Lib/STM32H7xx_HAL_Driver/Src/stm32h7xx_hal.c ****  */
1120:HAL_Lib/STM32H7xx_HAL_Driver/Src/stm32h7xx_hal.c **** void HAL_EXTI_GenerateSWInterrupt(uint32_t EXTI_Line)
1121:HAL_Lib/STM32H7xx_HAL_Driver/Src/stm32h7xx_hal.c **** {
 1622              		.loc 1 1121 1 is_stmt 1 view -0
 1623              		.cfi_startproc
 1624              		@ args = 0, pretend = 0, frame = 0
ARM GAS  C:\Users\HUAV\AppData\Local\Temp\ccTib3Ek.s 			page 49


 1625              		@ frame_needed = 0, uses_anonymous_args = 0
 1626              		@ link register save eliminated.
1122:HAL_Lib/STM32H7xx_HAL_Driver/Src/stm32h7xx_hal.c ****   /* Check the parameters */
1123:HAL_Lib/STM32H7xx_HAL_Driver/Src/stm32h7xx_hal.c ****   assert_param(IS_HAL_EXTI_CONFIG_LINE(EXTI_Line));
 1627              		.loc 1 1123 3 view .LVU280
1124:HAL_Lib/STM32H7xx_HAL_Driver/Src/stm32h7xx_hal.c **** 
1125:HAL_Lib/STM32H7xx_HAL_Driver/Src/stm32h7xx_hal.c ****   SET_BIT(*(__IO uint32_t *)(((uint32_t) & (EXTI->SWIER1)) + ((EXTI_Line >> 5) * 0x20UL)), (uint32_
 1628              		.loc 1 1125 3 view .LVU281
 1629 0000 20F01F0C 		bic	ip, r0, #31
 1630 0004 0549     		ldr	r1, .L159
 1631 0006 5CF80130 		ldr	r3, [ip, r1]
 1632 000a 00F01F00 		and	r0, r0, #31
 1633              	.LVL47:
 1634              		.loc 1 1125 3 is_stmt 0 view .LVU282
 1635 000e 0122     		movs	r2, #1
 1636 0010 02FA00F0 		lsl	r0, r2, r0
 1637 0014 1843     		orrs	r0, r0, r3
 1638 0016 4CF80100 		str	r0, [ip, r1]
1126:HAL_Lib/STM32H7xx_HAL_Driver/Src/stm32h7xx_hal.c **** }
 1639              		.loc 1 1126 1 view .LVU283
 1640 001a 7047     		bx	lr
 1641              	.L160:
 1642              		.align	2
 1643              	.L159:
 1644 001c 08000058 		.word	1476395016
 1645              		.cfi_endproc
 1646              	.LFE188:
 1648              		.section	.text.HAL_EXTI_D1_ClearFlag,"ax",%progbits
 1649              		.align	1
 1650              		.global	HAL_EXTI_D1_ClearFlag
 1651              		.syntax unified
 1652              		.thumb
 1653              		.thumb_func
 1655              	HAL_EXTI_D1_ClearFlag:
 1656              	.LVL48:
 1657              	.LFB189:
1127:HAL_Lib/STM32H7xx_HAL_Driver/Src/stm32h7xx_hal.c **** 
1128:HAL_Lib/STM32H7xx_HAL_Driver/Src/stm32h7xx_hal.c **** /**
1129:HAL_Lib/STM32H7xx_HAL_Driver/Src/stm32h7xx_hal.c ****  * @brief  Clears the EXTI's line pending flags for Domain D1
1130:HAL_Lib/STM32H7xx_HAL_Driver/Src/stm32h7xx_hal.c ****  * @param   EXTI_Line: Specifies the EXTI LINE, it can be one of the following values,
1131:HAL_Lib/STM32H7xx_HAL_Driver/Src/stm32h7xx_hal.c ****  *         (EXTI_LINE0....EXTI_LINE87)excluding :line45, line81,line83 which are reserved
1132:HAL_Lib/STM32H7xx_HAL_Driver/Src/stm32h7xx_hal.c ****  * @retval None
1133:HAL_Lib/STM32H7xx_HAL_Driver/Src/stm32h7xx_hal.c ****  */
1134:HAL_Lib/STM32H7xx_HAL_Driver/Src/stm32h7xx_hal.c **** void HAL_EXTI_D1_ClearFlag(uint32_t EXTI_Line)
1135:HAL_Lib/STM32H7xx_HAL_Driver/Src/stm32h7xx_hal.c **** {
 1658              		.loc 1 1135 1 is_stmt 1 view -0
 1659              		.cfi_startproc
 1660              		@ args = 0, pretend = 0, frame = 0
 1661              		@ frame_needed = 0, uses_anonymous_args = 0
 1662              		@ link register save eliminated.
1136:HAL_Lib/STM32H7xx_HAL_Driver/Src/stm32h7xx_hal.c ****   /* Check the parameters */
1137:HAL_Lib/STM32H7xx_HAL_Driver/Src/stm32h7xx_hal.c ****   assert_param(IS_EXTI_D1_LINE(EXTI_Line));
 1663              		.loc 1 1137 3 view .LVU285
1138:HAL_Lib/STM32H7xx_HAL_Driver/Src/stm32h7xx_hal.c ****   WRITE_REG(*(__IO uint32_t *)(((uint32_t) & (EXTI_D1->PR1)) + ((EXTI_Line >> 5) * 0x10UL)), (uint3
 1664              		.loc 1 1138 3 view .LVU286
 1665 0000 00F01F02 		and	r2, r0, #31
 1666 0004 4009     		lsrs	r0, r0, #5
ARM GAS  C:\Users\HUAV\AppData\Local\Temp\ccTib3Ek.s 			page 50


 1667              	.LVL49:
 1668              		.loc 1 1138 3 is_stmt 0 view .LVU287
 1669 0006 0001     		lsls	r0, r0, #4
 1670 0008 0123     		movs	r3, #1
 1671 000a 9340     		lsls	r3, r3, r2
 1672 000c 014A     		ldr	r2, .L162
 1673 000e 8350     		str	r3, [r0, r2]
1139:HAL_Lib/STM32H7xx_HAL_Driver/Src/stm32h7xx_hal.c **** }
 1674              		.loc 1 1139 1 view .LVU288
 1675 0010 7047     		bx	lr
 1676              	.L163:
 1677 0012 00BF     		.align	2
 1678              	.L162:
 1679 0014 88000058 		.word	1476395144
 1680              		.cfi_endproc
 1681              	.LFE189:
 1683              		.section	.text.HAL_EXTI_D1_EventInputConfig,"ax",%progbits
 1684              		.align	1
 1685              		.global	HAL_EXTI_D1_EventInputConfig
 1686              		.syntax unified
 1687              		.thumb
 1688              		.thumb_func
 1690              	HAL_EXTI_D1_EventInputConfig:
 1691              	.LVL50:
 1692              	.LFB190:
1140:HAL_Lib/STM32H7xx_HAL_Driver/Src/stm32h7xx_hal.c **** 
1141:HAL_Lib/STM32H7xx_HAL_Driver/Src/stm32h7xx_hal.c **** #if defined(DUAL_CORE)
1142:HAL_Lib/STM32H7xx_HAL_Driver/Src/stm32h7xx_hal.c **** /**
1143:HAL_Lib/STM32H7xx_HAL_Driver/Src/stm32h7xx_hal.c ****  * @brief  Clears the EXTI's line pending flags for Domain D2
1144:HAL_Lib/STM32H7xx_HAL_Driver/Src/stm32h7xx_hal.c ****  * @param   EXTI_Line: Specifies the EXTI LINE, it can be one of the following values,
1145:HAL_Lib/STM32H7xx_HAL_Driver/Src/stm32h7xx_hal.c ****  *         (EXTI_LINE0....EXTI_LINE87)excluding :line45, line81,line83 which are reserved
1146:HAL_Lib/STM32H7xx_HAL_Driver/Src/stm32h7xx_hal.c ****  * @retval None
1147:HAL_Lib/STM32H7xx_HAL_Driver/Src/stm32h7xx_hal.c ****  */
1148:HAL_Lib/STM32H7xx_HAL_Driver/Src/stm32h7xx_hal.c **** void HAL_EXTI_D2_ClearFlag(uint32_t EXTI_Line)
1149:HAL_Lib/STM32H7xx_HAL_Driver/Src/stm32h7xx_hal.c **** {
1150:HAL_Lib/STM32H7xx_HAL_Driver/Src/stm32h7xx_hal.c ****   /* Check the parameters */
1151:HAL_Lib/STM32H7xx_HAL_Driver/Src/stm32h7xx_hal.c ****   assert_param(IS_EXTI_D2_LINE(EXTI_Line));
1152:HAL_Lib/STM32H7xx_HAL_Driver/Src/stm32h7xx_hal.c ****   WRITE_REG(*(__IO uint32_t *)(((uint32_t) & (EXTI_D2->PR1)) + ((EXTI_Line >> 5) * 0x10UL)), (uint3
1153:HAL_Lib/STM32H7xx_HAL_Driver/Src/stm32h7xx_hal.c **** }
1154:HAL_Lib/STM32H7xx_HAL_Driver/Src/stm32h7xx_hal.c **** 
1155:HAL_Lib/STM32H7xx_HAL_Driver/Src/stm32h7xx_hal.c **** #endif /*DUAL_CORE*/
1156:HAL_Lib/STM32H7xx_HAL_Driver/Src/stm32h7xx_hal.c **** /**
1157:HAL_Lib/STM32H7xx_HAL_Driver/Src/stm32h7xx_hal.c ****   * @brief  Configure the EXTI input event line for Domain D1
1158:HAL_Lib/STM32H7xx_HAL_Driver/Src/stm32h7xx_hal.c ****   * @param   EXTI_Line: Specifies the EXTI LINE, it can be one of the following values,
1159:HAL_Lib/STM32H7xx_HAL_Driver/Src/stm32h7xx_hal.c ****   *         (EXTI_LINE0....EXTI_LINE87)excluding :line45, line81,line83 which are reserved
1160:HAL_Lib/STM32H7xx_HAL_Driver/Src/stm32h7xx_hal.c ****   * @param   EXTI_Mode: Specifies which EXTI line is used as interrupt or an event.
1161:HAL_Lib/STM32H7xx_HAL_Driver/Src/stm32h7xx_hal.c ****   *          This parameter can be one or a combination of the following values :
1162:HAL_Lib/STM32H7xx_HAL_Driver/Src/stm32h7xx_hal.c ****   *   @arg EXTI_MODE_IT :  Interrupt Mode selected
1163:HAL_Lib/STM32H7xx_HAL_Driver/Src/stm32h7xx_hal.c ****   *   @arg EXTI_MODE_EVT : Event Mode selected
1164:HAL_Lib/STM32H7xx_HAL_Driver/Src/stm32h7xx_hal.c ****   * @param   EXTI_LineCmd controls (Enable/Disable) the EXTI line.
1165:HAL_Lib/STM32H7xx_HAL_Driver/Src/stm32h7xx_hal.c **** 
1166:HAL_Lib/STM32H7xx_HAL_Driver/Src/stm32h7xx_hal.c ****   * @retval None
1167:HAL_Lib/STM32H7xx_HAL_Driver/Src/stm32h7xx_hal.c ****   */
1168:HAL_Lib/STM32H7xx_HAL_Driver/Src/stm32h7xx_hal.c **** void HAL_EXTI_D1_EventInputConfig(uint32_t EXTI_Line, uint32_t EXTI_Mode, uint32_t EXTI_LineCmd)
1169:HAL_Lib/STM32H7xx_HAL_Driver/Src/stm32h7xx_hal.c **** {
 1693              		.loc 1 1169 1 is_stmt 1 view -0
 1694              		.cfi_startproc
ARM GAS  C:\Users\HUAV\AppData\Local\Temp\ccTib3Ek.s 			page 51


 1695              		@ args = 0, pretend = 0, frame = 0
 1696              		@ frame_needed = 0, uses_anonymous_args = 0
 1697              		.loc 1 1169 1 is_stmt 0 view .LVU290
 1698 0000 10B5     		push	{r4, lr}
 1699              	.LCFI8:
 1700              		.cfi_def_cfa_offset 8
 1701              		.cfi_offset 4, -8
 1702              		.cfi_offset 14, -4
1170:HAL_Lib/STM32H7xx_HAL_Driver/Src/stm32h7xx_hal.c ****   /* Check the parameter */
1171:HAL_Lib/STM32H7xx_HAL_Driver/Src/stm32h7xx_hal.c ****   assert_param(IS_EXTI_D1_LINE(EXTI_Line));
 1703              		.loc 1 1171 3 is_stmt 1 view .LVU291
1172:HAL_Lib/STM32H7xx_HAL_Driver/Src/stm32h7xx_hal.c ****   assert_param(IS_EXTI_MODE_LINE(EXTI_Mode));
 1704              		.loc 1 1172 3 view .LVU292
1173:HAL_Lib/STM32H7xx_HAL_Driver/Src/stm32h7xx_hal.c **** 
1174:HAL_Lib/STM32H7xx_HAL_Driver/Src/stm32h7xx_hal.c ****   if ((EXTI_Mode & EXTI_MODE_IT) == EXTI_MODE_IT)
 1705              		.loc 1 1174 3 view .LVU293
 1706              		.loc 1 1174 6 is_stmt 0 view .LVU294
 1707 0002 11F4803F 		tst	r1, #65536
 1708 0006 0ED0     		beq	.L165
1175:HAL_Lib/STM32H7xx_HAL_Driver/Src/stm32h7xx_hal.c ****   {
1176:HAL_Lib/STM32H7xx_HAL_Driver/Src/stm32h7xx_hal.c ****     if (EXTI_LineCmd == 0UL)
 1709              		.loc 1 1176 5 is_stmt 1 view .LVU295
 1710              		.loc 1 1176 8 is_stmt 0 view .LVU296
 1711 0008 EAB9     		cbnz	r2, .L166
1177:HAL_Lib/STM32H7xx_HAL_Driver/Src/stm32h7xx_hal.c ****     {
1178:HAL_Lib/STM32H7xx_HAL_Driver/Src/stm32h7xx_hal.c ****       /* Clear EXTI line configuration */
1179:HAL_Lib/STM32H7xx_HAL_Driver/Src/stm32h7xx_hal.c ****       CLEAR_BIT(*(__IO uint32_t *)(((uint32_t) & (EXTI_D1->IMR1)) + ((EXTI_Line >> 5) * 0x10UL)), (
 1712              		.loc 1 1179 7 is_stmt 1 view .LVU297
 1713 000a 1C4B     		ldr	r3, .L170
 1714 000c 03EB5013 		add	r3, r3, r0, lsr #5
 1715 0010 1B01     		lsls	r3, r3, #4
 1716 0012 1C68     		ldr	r4, [r3]
 1717 0014 00F01F0E 		and	lr, r0, #31
 1718 0018 4FF0010C 		mov	ip, #1
 1719 001c 0CFA0EFC 		lsl	ip, ip, lr
 1720 0020 24EA0C04 		bic	r4, r4, ip
 1721 0024 1C60     		str	r4, [r3]
 1722              	.L165:
1180:HAL_Lib/STM32H7xx_HAL_Driver/Src/stm32h7xx_hal.c ****     }
1181:HAL_Lib/STM32H7xx_HAL_Driver/Src/stm32h7xx_hal.c ****     else
1182:HAL_Lib/STM32H7xx_HAL_Driver/Src/stm32h7xx_hal.c ****     {
1183:HAL_Lib/STM32H7xx_HAL_Driver/Src/stm32h7xx_hal.c ****       SET_BIT(*(__IO uint32_t *)(((uint32_t) & (EXTI_D1->IMR1)) + ((EXTI_Line >> 5) * 0x10UL)), (ui
1184:HAL_Lib/STM32H7xx_HAL_Driver/Src/stm32h7xx_hal.c ****     }
1185:HAL_Lib/STM32H7xx_HAL_Driver/Src/stm32h7xx_hal.c ****   }
1186:HAL_Lib/STM32H7xx_HAL_Driver/Src/stm32h7xx_hal.c **** 
1187:HAL_Lib/STM32H7xx_HAL_Driver/Src/stm32h7xx_hal.c ****   if ((EXTI_Mode & EXTI_MODE_EVT) == EXTI_MODE_EVT)
 1723              		.loc 1 1187 3 view .LVU298
 1724              		.loc 1 1187 6 is_stmt 0 view .LVU299
 1725 0026 11F4003F 		tst	r1, #131072
 1726 002a 0BD0     		beq	.L164
1188:HAL_Lib/STM32H7xx_HAL_Driver/Src/stm32h7xx_hal.c ****   {
1189:HAL_Lib/STM32H7xx_HAL_Driver/Src/stm32h7xx_hal.c ****     if (EXTI_LineCmd == 0UL)
 1727              		.loc 1 1189 5 is_stmt 1 view .LVU300
 1728              		.loc 1 1189 8 is_stmt 0 view .LVU301
 1729 002c D2B9     		cbnz	r2, .L168
1190:HAL_Lib/STM32H7xx_HAL_Driver/Src/stm32h7xx_hal.c ****     {
1191:HAL_Lib/STM32H7xx_HAL_Driver/Src/stm32h7xx_hal.c ****       /* Clear EXTI line configuration */
ARM GAS  C:\Users\HUAV\AppData\Local\Temp\ccTib3Ek.s 			page 52


1192:HAL_Lib/STM32H7xx_HAL_Driver/Src/stm32h7xx_hal.c ****       CLEAR_BIT(*(__IO uint32_t *)(((uint32_t) & (EXTI_D1->EMR1)) + ((EXTI_Line >> 5) * 0x10UL)), (
 1730              		.loc 1 1192 7 is_stmt 1 view .LVU302
 1731 002e 4309     		lsrs	r3, r0, #5
 1732 0030 1B01     		lsls	r3, r3, #4
 1733 0032 1349     		ldr	r1, .L170+4
 1734              	.LVL51:
 1735              		.loc 1 1192 7 is_stmt 0 view .LVU303
 1736 0034 5A58     		ldr	r2, [r3, r1]
 1737              	.LVL52:
 1738              		.loc 1 1192 7 view .LVU304
 1739 0036 00F01F04 		and	r4, r0, #31
 1740 003a 0120     		movs	r0, #1
 1741              	.LVL53:
 1742              		.loc 1 1192 7 view .LVU305
 1743 003c A040     		lsls	r0, r0, r4
 1744 003e 22EA0000 		bic	r0, r2, r0
 1745 0042 5850     		str	r0, [r3, r1]
 1746              	.L164:
1193:HAL_Lib/STM32H7xx_HAL_Driver/Src/stm32h7xx_hal.c ****     }
1194:HAL_Lib/STM32H7xx_HAL_Driver/Src/stm32h7xx_hal.c ****     else
1195:HAL_Lib/STM32H7xx_HAL_Driver/Src/stm32h7xx_hal.c ****     {
1196:HAL_Lib/STM32H7xx_HAL_Driver/Src/stm32h7xx_hal.c ****       SET_BIT(*(__IO uint32_t *)(((uint32_t) & (EXTI_D1->EMR1)) + ((EXTI_Line >> 5) * 0x10UL)), (ui
1197:HAL_Lib/STM32H7xx_HAL_Driver/Src/stm32h7xx_hal.c ****     }
1198:HAL_Lib/STM32H7xx_HAL_Driver/Src/stm32h7xx_hal.c ****   }
1199:HAL_Lib/STM32H7xx_HAL_Driver/Src/stm32h7xx_hal.c **** }
 1747              		.loc 1 1199 1 view .LVU306
 1748 0044 10BD     		pop	{r4, pc}
 1749              	.LVL54:
 1750              	.L166:
1183:HAL_Lib/STM32H7xx_HAL_Driver/Src/stm32h7xx_hal.c ****     }
 1751              		.loc 1 1183 7 is_stmt 1 view .LVU307
 1752 0046 0D4B     		ldr	r3, .L170
 1753 0048 03EB5013 		add	r3, r3, r0, lsr #5
 1754 004c 1B01     		lsls	r3, r3, #4
 1755 004e 1C68     		ldr	r4, [r3]
 1756 0050 00F01F0E 		and	lr, r0, #31
 1757 0054 4FF0010C 		mov	ip, #1
 1758 0058 0CFA0EFC 		lsl	ip, ip, lr
 1759 005c 44EA0C04 		orr	r4, r4, ip
 1760 0060 1C60     		str	r4, [r3]
 1761 0062 E0E7     		b	.L165
 1762              	.L168:
1196:HAL_Lib/STM32H7xx_HAL_Driver/Src/stm32h7xx_hal.c ****     }
 1763              		.loc 1 1196 7 view .LVU308
 1764 0064 4309     		lsrs	r3, r0, #5
 1765 0066 1B01     		lsls	r3, r3, #4
 1766 0068 054C     		ldr	r4, .L170+4
 1767 006a 1A59     		ldr	r2, [r3, r4]
 1768              	.LVL55:
1196:HAL_Lib/STM32H7xx_HAL_Driver/Src/stm32h7xx_hal.c ****     }
 1769              		.loc 1 1196 7 is_stmt 0 view .LVU309
 1770 006c 00F01F00 		and	r0, r0, #31
 1771              	.LVL56:
1196:HAL_Lib/STM32H7xx_HAL_Driver/Src/stm32h7xx_hal.c ****     }
 1772              		.loc 1 1196 7 view .LVU310
 1773 0070 0121     		movs	r1, #1
 1774              	.LVL57:
ARM GAS  C:\Users\HUAV\AppData\Local\Temp\ccTib3Ek.s 			page 53


1196:HAL_Lib/STM32H7xx_HAL_Driver/Src/stm32h7xx_hal.c ****     }
 1775              		.loc 1 1196 7 view .LVU311
 1776 0072 01FA00F0 		lsl	r0, r1, r0
 1777 0076 1043     		orrs	r0, r0, r2
 1778 0078 1851     		str	r0, [r3, r4]
 1779              		.loc 1 1199 1 view .LVU312
 1780 007a E3E7     		b	.L164
 1781              	.L171:
 1782              		.align	2
 1783              	.L170:
 1784 007c 08008005 		.word	92274696
 1785 0080 84000058 		.word	1476395140
 1786              		.cfi_endproc
 1787              	.LFE190:
 1789              		.section	.text.HAL_EXTI_D3_EventInputConfig,"ax",%progbits
 1790              		.align	1
 1791              		.global	HAL_EXTI_D3_EventInputConfig
 1792              		.syntax unified
 1793              		.thumb
 1794              		.thumb_func
 1796              	HAL_EXTI_D3_EventInputConfig:
 1797              	.LVL58:
 1798              	.LFB191:
1200:HAL_Lib/STM32H7xx_HAL_Driver/Src/stm32h7xx_hal.c **** 
1201:HAL_Lib/STM32H7xx_HAL_Driver/Src/stm32h7xx_hal.c **** #if defined(DUAL_CORE)
1202:HAL_Lib/STM32H7xx_HAL_Driver/Src/stm32h7xx_hal.c **** /**
1203:HAL_Lib/STM32H7xx_HAL_Driver/Src/stm32h7xx_hal.c ****   * @brief  Configure the EXTI input event line for Domain D2
1204:HAL_Lib/STM32H7xx_HAL_Driver/Src/stm32h7xx_hal.c ****   * @param   EXTI_Line: Specifies the EXTI LINE, it can be one of the following values,
1205:HAL_Lib/STM32H7xx_HAL_Driver/Src/stm32h7xx_hal.c ****   *         (EXTI_LINE0....EXTI_LINE87)excluding :line45, line81,line83 which are reserved
1206:HAL_Lib/STM32H7xx_HAL_Driver/Src/stm32h7xx_hal.c ****   * @param   EXTI_Mode: Specifies which EXTI line is used as interrupt or an event.
1207:HAL_Lib/STM32H7xx_HAL_Driver/Src/stm32h7xx_hal.c ****   *          This parameter can be one or a combination of the following values :
1208:HAL_Lib/STM32H7xx_HAL_Driver/Src/stm32h7xx_hal.c ****   *   @arg EXTI_MODE_IT :  Interrupt Mode selected
1209:HAL_Lib/STM32H7xx_HAL_Driver/Src/stm32h7xx_hal.c ****   *   @arg EXTI_MODE_EVT : Event Mode selected
1210:HAL_Lib/STM32H7xx_HAL_Driver/Src/stm32h7xx_hal.c ****   * @param   EXTI_LineCmd controls (Enable/Disable) the EXTI line.
1211:HAL_Lib/STM32H7xx_HAL_Driver/Src/stm32h7xx_hal.c **** 
1212:HAL_Lib/STM32H7xx_HAL_Driver/Src/stm32h7xx_hal.c ****   * @retval None
1213:HAL_Lib/STM32H7xx_HAL_Driver/Src/stm32h7xx_hal.c ****   */
1214:HAL_Lib/STM32H7xx_HAL_Driver/Src/stm32h7xx_hal.c **** void HAL_EXTI_D2_EventInputConfig(uint32_t EXTI_Line, uint32_t EXTI_Mode, uint32_t EXTI_LineCmd)
1215:HAL_Lib/STM32H7xx_HAL_Driver/Src/stm32h7xx_hal.c **** {
1216:HAL_Lib/STM32H7xx_HAL_Driver/Src/stm32h7xx_hal.c ****   /* Check the parameter */
1217:HAL_Lib/STM32H7xx_HAL_Driver/Src/stm32h7xx_hal.c ****   assert_param(IS_EXTI_D2_LINE(EXTI_Line));
1218:HAL_Lib/STM32H7xx_HAL_Driver/Src/stm32h7xx_hal.c ****   assert_param(IS_EXTI_MODE_LINE(EXTI_Mode));
1219:HAL_Lib/STM32H7xx_HAL_Driver/Src/stm32h7xx_hal.c **** 
1220:HAL_Lib/STM32H7xx_HAL_Driver/Src/stm32h7xx_hal.c ****   if ((EXTI_Mode & EXTI_MODE_IT) == EXTI_MODE_IT)
1221:HAL_Lib/STM32H7xx_HAL_Driver/Src/stm32h7xx_hal.c ****   {
1222:HAL_Lib/STM32H7xx_HAL_Driver/Src/stm32h7xx_hal.c ****     if (EXTI_LineCmd == 0UL)
1223:HAL_Lib/STM32H7xx_HAL_Driver/Src/stm32h7xx_hal.c ****     {
1224:HAL_Lib/STM32H7xx_HAL_Driver/Src/stm32h7xx_hal.c ****       /* Clear EXTI line configuration */
1225:HAL_Lib/STM32H7xx_HAL_Driver/Src/stm32h7xx_hal.c ****       CLEAR_BIT(*(__IO uint32_t *)(((uint32_t) & (EXTI_D2->IMR1)) + ((EXTI_Line >> 5) * 0x10UL)), (
1226:HAL_Lib/STM32H7xx_HAL_Driver/Src/stm32h7xx_hal.c ****     }
1227:HAL_Lib/STM32H7xx_HAL_Driver/Src/stm32h7xx_hal.c ****     else
1228:HAL_Lib/STM32H7xx_HAL_Driver/Src/stm32h7xx_hal.c ****     {
1229:HAL_Lib/STM32H7xx_HAL_Driver/Src/stm32h7xx_hal.c ****       SET_BIT(*(__IO uint32_t *)(((uint32_t) & (EXTI_D2->IMR1)) + ((EXTI_Line >> 5) * 0x10UL)), (ui
1230:HAL_Lib/STM32H7xx_HAL_Driver/Src/stm32h7xx_hal.c ****     }
1231:HAL_Lib/STM32H7xx_HAL_Driver/Src/stm32h7xx_hal.c ****   }
1232:HAL_Lib/STM32H7xx_HAL_Driver/Src/stm32h7xx_hal.c **** 
1233:HAL_Lib/STM32H7xx_HAL_Driver/Src/stm32h7xx_hal.c ****   if ((EXTI_Mode & EXTI_MODE_EVT) == EXTI_MODE_EVT)
ARM GAS  C:\Users\HUAV\AppData\Local\Temp\ccTib3Ek.s 			page 54


1234:HAL_Lib/STM32H7xx_HAL_Driver/Src/stm32h7xx_hal.c ****   {
1235:HAL_Lib/STM32H7xx_HAL_Driver/Src/stm32h7xx_hal.c ****     if (EXTI_LineCmd == 0UL)
1236:HAL_Lib/STM32H7xx_HAL_Driver/Src/stm32h7xx_hal.c ****     {
1237:HAL_Lib/STM32H7xx_HAL_Driver/Src/stm32h7xx_hal.c ****       /* Clear EXTI line configuration */
1238:HAL_Lib/STM32H7xx_HAL_Driver/Src/stm32h7xx_hal.c ****       CLEAR_BIT(*(__IO uint32_t *)(((uint32_t) & (EXTI_D2->EMR1)) + ((EXTI_Line >> 5) * 0x10UL)), (
1239:HAL_Lib/STM32H7xx_HAL_Driver/Src/stm32h7xx_hal.c ****     }
1240:HAL_Lib/STM32H7xx_HAL_Driver/Src/stm32h7xx_hal.c ****     else
1241:HAL_Lib/STM32H7xx_HAL_Driver/Src/stm32h7xx_hal.c ****     {
1242:HAL_Lib/STM32H7xx_HAL_Driver/Src/stm32h7xx_hal.c ****       SET_BIT(*(__IO uint32_t *)(((uint32_t) & (EXTI_D2->EMR1)) + ((EXTI_Line >> 5) * 0x10UL)), (ui
1243:HAL_Lib/STM32H7xx_HAL_Driver/Src/stm32h7xx_hal.c ****     }
1244:HAL_Lib/STM32H7xx_HAL_Driver/Src/stm32h7xx_hal.c ****   }
1245:HAL_Lib/STM32H7xx_HAL_Driver/Src/stm32h7xx_hal.c **** }
1246:HAL_Lib/STM32H7xx_HAL_Driver/Src/stm32h7xx_hal.c **** #endif /*DUAL_CORE*/
1247:HAL_Lib/STM32H7xx_HAL_Driver/Src/stm32h7xx_hal.c **** 
1248:HAL_Lib/STM32H7xx_HAL_Driver/Src/stm32h7xx_hal.c **** /**
1249:HAL_Lib/STM32H7xx_HAL_Driver/Src/stm32h7xx_hal.c ****  * @brief  Configure the EXTI input event line for Domain D3
1250:HAL_Lib/STM32H7xx_HAL_Driver/Src/stm32h7xx_hal.c ****  * @param   EXTI_Line: Specifies the EXTI LINE, it can be one of the following values,
1251:HAL_Lib/STM32H7xx_HAL_Driver/Src/stm32h7xx_hal.c ****  *         (EXTI_LINE0...EXTI_LINE15),(EXTI_LINE19...EXTI_LINE21),EXTI_LINE25, EXTI_LINE34,
1252:HAL_Lib/STM32H7xx_HAL_Driver/Src/stm32h7xx_hal.c ****  *          EXTI_LINE35,EXTI_LINE41,(EXTI_LINE48...EXTI_LINE53)
1253:HAL_Lib/STM32H7xx_HAL_Driver/Src/stm32h7xx_hal.c ****  * @param   EXTI_LineCmd controls (Enable/Disable) the EXTI line.
1254:HAL_Lib/STM32H7xx_HAL_Driver/Src/stm32h7xx_hal.c ****  * @param   EXTI_ClearSrc: Specifies the clear source of D3 pending event.
1255:HAL_Lib/STM32H7xx_HAL_Driver/Src/stm32h7xx_hal.c ****  *          This parameter can be one of the following values :
1256:HAL_Lib/STM32H7xx_HAL_Driver/Src/stm32h7xx_hal.c ****  *   @arg BDMA_CH6_CLEAR : BDMA ch6 event selected as D3 domain pendclear source
1257:HAL_Lib/STM32H7xx_HAL_Driver/Src/stm32h7xx_hal.c ****  *   @arg BDMA_CH7_CLEAR : BDMA ch7 event selected as D3 domain pendclear source
1258:HAL_Lib/STM32H7xx_HAL_Driver/Src/stm32h7xx_hal.c ****  *   @arg LPTIM4_OUT_CLEAR : LPTIM4 out selected as D3 domain pendclear source
1259:HAL_Lib/STM32H7xx_HAL_Driver/Src/stm32h7xx_hal.c ****  *   @arg LPTIM5_OUT_CLEAR : LPTIM5 out selected as D3 domain pendclear source
1260:HAL_Lib/STM32H7xx_HAL_Driver/Src/stm32h7xx_hal.c ****  * @retval None
1261:HAL_Lib/STM32H7xx_HAL_Driver/Src/stm32h7xx_hal.c ****  */
1262:HAL_Lib/STM32H7xx_HAL_Driver/Src/stm32h7xx_hal.c **** void HAL_EXTI_D3_EventInputConfig(uint32_t EXTI_Line, uint32_t EXTI_LineCmd, uint32_t EXTI_ClearSrc
1263:HAL_Lib/STM32H7xx_HAL_Driver/Src/stm32h7xx_hal.c **** {
 1799              		.loc 1 1263 1 is_stmt 1 view -0
 1800              		.cfi_startproc
 1801              		@ args = 0, pretend = 0, frame = 0
 1802              		@ frame_needed = 0, uses_anonymous_args = 0
 1803              		.loc 1 1263 1 is_stmt 0 view .LVU314
 1804 0000 10B5     		push	{r4, lr}
 1805              	.LCFI9:
 1806              		.cfi_def_cfa_offset 8
 1807              		.cfi_offset 4, -8
 1808              		.cfi_offset 14, -4
1264:HAL_Lib/STM32H7xx_HAL_Driver/Src/stm32h7xx_hal.c ****   __IO uint32_t *pRegv;
 1809              		.loc 1 1264 3 is_stmt 1 view .LVU315
1265:HAL_Lib/STM32H7xx_HAL_Driver/Src/stm32h7xx_hal.c **** 
1266:HAL_Lib/STM32H7xx_HAL_Driver/Src/stm32h7xx_hal.c ****   /* Check the parameter */
1267:HAL_Lib/STM32H7xx_HAL_Driver/Src/stm32h7xx_hal.c ****   assert_param(IS_EXTI_D3_LINE(EXTI_Line));
 1810              		.loc 1 1267 3 view .LVU316
1268:HAL_Lib/STM32H7xx_HAL_Driver/Src/stm32h7xx_hal.c ****   assert_param(IS_EXTI_D3_CLEAR(EXTI_ClearSrc));
 1811              		.loc 1 1268 3 view .LVU317
1269:HAL_Lib/STM32H7xx_HAL_Driver/Src/stm32h7xx_hal.c **** 
1270:HAL_Lib/STM32H7xx_HAL_Driver/Src/stm32h7xx_hal.c ****   if (EXTI_LineCmd == 0UL)
 1812              		.loc 1 1270 3 view .LVU318
 1813              		.loc 1 1270 6 is_stmt 0 view .LVU319
 1814 0002 11BB     		cbnz	r1, .L173
1271:HAL_Lib/STM32H7xx_HAL_Driver/Src/stm32h7xx_hal.c ****   {
1272:HAL_Lib/STM32H7xx_HAL_Driver/Src/stm32h7xx_hal.c ****     /* Clear EXTI line configuration */
1273:HAL_Lib/STM32H7xx_HAL_Driver/Src/stm32h7xx_hal.c ****     CLEAR_BIT(*(__IO uint32_t *)(((uint32_t) & (EXTI->D3PMR1)) + ((EXTI_Line >> 5) * 0x20UL)), (uin
 1815              		.loc 1 1273 5 is_stmt 1 view .LVU320
ARM GAS  C:\Users\HUAV\AppData\Local\Temp\ccTib3Ek.s 			page 55


 1816 0004 20F01F03 		bic	r3, r0, #31
 1817 0008 194C     		ldr	r4, .L178
 1818 000a 1959     		ldr	r1, [r3, r4]
 1819              	.LVL59:
 1820              		.loc 1 1273 5 is_stmt 0 view .LVU321
 1821 000c 00F01F0E 		and	lr, r0, #31
 1822 0010 4FF0010C 		mov	ip, #1
 1823 0014 0CFA0EFC 		lsl	ip, ip, lr
 1824 0018 21EA0C01 		bic	r1, r1, ip
 1825 001c 1951     		str	r1, [r3, r4]
 1826              	.L174:
1274:HAL_Lib/STM32H7xx_HAL_Driver/Src/stm32h7xx_hal.c ****   }
1275:HAL_Lib/STM32H7xx_HAL_Driver/Src/stm32h7xx_hal.c ****   else
1276:HAL_Lib/STM32H7xx_HAL_Driver/Src/stm32h7xx_hal.c ****   {
1277:HAL_Lib/STM32H7xx_HAL_Driver/Src/stm32h7xx_hal.c ****     SET_BIT(*(__IO uint32_t *)(((uint32_t) & (EXTI->D3PMR1)) + ((EXTI_Line >> 5) * 0x20UL)), (uint3
1278:HAL_Lib/STM32H7xx_HAL_Driver/Src/stm32h7xx_hal.c ****   }
1279:HAL_Lib/STM32H7xx_HAL_Driver/Src/stm32h7xx_hal.c **** 
1280:HAL_Lib/STM32H7xx_HAL_Driver/Src/stm32h7xx_hal.c ****   if (((EXTI_Line >> 4) % 2UL) == 0UL)
 1827              		.loc 1 1280 3 is_stmt 1 view .LVU322
 1828              		.loc 1 1280 6 is_stmt 0 view .LVU323
 1829 001e 10F0100F 		tst	r0, #16
 1830 0022 20D1     		bne	.L175
1281:HAL_Lib/STM32H7xx_HAL_Driver/Src/stm32h7xx_hal.c ****   {
1282:HAL_Lib/STM32H7xx_HAL_Driver/Src/stm32h7xx_hal.c ****     pRegv = (__IO uint32_t *)(((uint32_t) & (EXTI->D3PCR1L)) + ((EXTI_Line >> 5) * 0x20UL));
 1831              		.loc 1 1282 5 is_stmt 1 view .LVU324
 1832              		.loc 1 1282 82 is_stmt 0 view .LVU325
 1833 0024 20F01F03 		bic	r3, r0, #31
 1834              		.loc 1 1282 62 view .LVU326
 1835 0028 1249     		ldr	r1, .L178+4
 1836 002a 1944     		add	r1, r1, r3
 1837              	.LVL60:
 1838              	.L176:
1283:HAL_Lib/STM32H7xx_HAL_Driver/Src/stm32h7xx_hal.c ****   }
1284:HAL_Lib/STM32H7xx_HAL_Driver/Src/stm32h7xx_hal.c ****   else
1285:HAL_Lib/STM32H7xx_HAL_Driver/Src/stm32h7xx_hal.c ****   {
1286:HAL_Lib/STM32H7xx_HAL_Driver/Src/stm32h7xx_hal.c ****     pRegv = (__IO uint32_t *)(((uint32_t) & (EXTI->D3PCR1H)) + ((EXTI_Line >> 5) * 0x20UL));
1287:HAL_Lib/STM32H7xx_HAL_Driver/Src/stm32h7xx_hal.c ****   }
1288:HAL_Lib/STM32H7xx_HAL_Driver/Src/stm32h7xx_hal.c ****   MODIFY_REG(*pRegv, (uint32_t)(3UL << ((EXTI_Line * 2UL) & 0x1FUL)), (uint32_t)(EXTI_ClearSrc << (
 1839              		.loc 1 1288 3 is_stmt 1 view .LVU327
 1840 002c 0B68     		ldr	r3, [r1]
 1841 002e 4000     		lsls	r0, r0, #1
 1842              	.LVL61:
 1843              		.loc 1 1288 3 is_stmt 0 view .LVU328
 1844 0030 00F01E00 		and	r0, r0, #30
 1845 0034 4FF0030C 		mov	ip, #3
 1846 0038 0CFA00FC 		lsl	ip, ip, r0
 1847 003c 23EA0C03 		bic	r3, r3, ip
 1848 0040 02FA00F0 		lsl	r0, r2, r0
 1849 0044 1843     		orrs	r0, r0, r3
 1850 0046 0860     		str	r0, [r1]
1289:HAL_Lib/STM32H7xx_HAL_Driver/Src/stm32h7xx_hal.c **** }
 1851              		.loc 1 1289 1 view .LVU329
 1852 0048 10BD     		pop	{r4, pc}
 1853              	.LVL62:
 1854              	.L173:
1277:HAL_Lib/STM32H7xx_HAL_Driver/Src/stm32h7xx_hal.c ****   }
 1855              		.loc 1 1277 5 is_stmt 1 view .LVU330
ARM GAS  C:\Users\HUAV\AppData\Local\Temp\ccTib3Ek.s 			page 56


 1856 004a 20F01F03 		bic	r3, r0, #31
 1857 004e 084C     		ldr	r4, .L178
 1858 0050 1959     		ldr	r1, [r3, r4]
 1859              	.LVL63:
1277:HAL_Lib/STM32H7xx_HAL_Driver/Src/stm32h7xx_hal.c ****   }
 1860              		.loc 1 1277 5 is_stmt 0 view .LVU331
 1861 0052 00F01F0E 		and	lr, r0, #31
 1862 0056 4FF0010C 		mov	ip, #1
 1863 005a 0CFA0EFC 		lsl	ip, ip, lr
 1864 005e 41EA0C01 		orr	r1, r1, ip
 1865 0062 1951     		str	r1, [r3, r4]
 1866 0064 DBE7     		b	.L174
 1867              	.L175:
1286:HAL_Lib/STM32H7xx_HAL_Driver/Src/stm32h7xx_hal.c ****   }
 1868              		.loc 1 1286 5 is_stmt 1 view .LVU332
1286:HAL_Lib/STM32H7xx_HAL_Driver/Src/stm32h7xx_hal.c ****   }
 1869              		.loc 1 1286 82 is_stmt 0 view .LVU333
 1870 0066 20F01F03 		bic	r3, r0, #31
1286:HAL_Lib/STM32H7xx_HAL_Driver/Src/stm32h7xx_hal.c ****   }
 1871              		.loc 1 1286 62 view .LVU334
 1872 006a 0349     		ldr	r1, .L178+8
 1873 006c 1944     		add	r1, r1, r3
 1874              	.LVL64:
1286:HAL_Lib/STM32H7xx_HAL_Driver/Src/stm32h7xx_hal.c ****   }
 1875              		.loc 1 1286 62 view .LVU335
 1876 006e DDE7     		b	.L176
 1877              	.L179:
 1878              		.align	2
 1879              	.L178:
 1880 0070 0C000058 		.word	1476395020
 1881 0074 10000058 		.word	1476395024
 1882 0078 14000058 		.word	1476395028
 1883              		.cfi_endproc
 1884              	.LFE191:
 1886              		.global	uwTickFreq
 1887              		.global	uwTickPrio
 1888              		.global	uwTick
 1889              		.section	.bss.uwTick,"aw",%nobits
 1890              		.align	2
 1891              		.set	.LANCHOR2,. + 0
 1894              	uwTick:
 1895 0000 00000000 		.space	4
 1896              		.section	.data.uwTickFreq,"aw"
 1897              		.set	.LANCHOR0,. + 0
 1900              	uwTickFreq:
 1901 0000 01       		.byte	1
 1902              		.section	.data.uwTickPrio,"aw"
 1903              		.align	2
 1904              		.set	.LANCHOR1,. + 0
 1907              	uwTickPrio:
 1908 0000 10000000 		.word	16
 1909              		.text
 1910              	.Letext0:
 1911              		.file 2 "c:\\program files (x86)\\gnu arm embedded toolchain\\10 2021.10\\arm-none-eabi\\include\\
 1912              		.file 3 "c:\\program files (x86)\\gnu arm embedded toolchain\\10 2021.10\\arm-none-eabi\\include\\
 1913              		.file 4 "HAL_Lib/CMSIS/Core/Include/core_cm7.h"
 1914              		.file 5 "HAL_Lib/CMSIS/Device/ST/STM32H7xx/Include/system_stm32h7xx.h"
ARM GAS  C:\Users\HUAV\AppData\Local\Temp\ccTib3Ek.s 			page 57


 1915              		.file 6 "HAL_Lib/CMSIS/Device/ST/STM32H7xx/Include/stm32h743xx.h"
 1916              		.file 7 "HAL_Lib/STM32H7xx_HAL_Driver/Inc/stm32h7xx_hal_def.h"
 1917              		.file 8 "HAL_Lib/STM32H7xx_HAL_Driver/Inc/stm32h7xx_hal.h"
 1918              		.file 9 "HAL_Lib/STM32H7xx_HAL_Driver/Inc/stm32h7xx_hal_cortex.h"
 1919              		.file 10 "HAL_Lib/STM32H7xx_HAL_Driver/Inc/stm32h7xx_hal_rcc.h"
ARM GAS  C:\Users\HUAV\AppData\Local\Temp\ccTib3Ek.s 			page 58

