ARM GAS  C:\Users\huav\AppData\Local\Temp\cclSeZk7.s 			page 1


   1              		.cpu cortex-m7
   2              		.eabi_attribute 28, 1
   3              		.eabi_attribute 20, 1
   4              		.eabi_attribute 21, 1
   5              		.eabi_attribute 23, 3
   6              		.eabi_attribute 24, 1
   7              		.eabi_attribute 25, 1
   8              		.eabi_attribute 26, 1
   9              		.eabi_attribute 30, 1
  10              		.eabi_attribute 34, 1
  11              		.eabi_attribute 18, 4
  12              		.file	"stm32h7xx_hal_pcd_ex.c"
  13              		.text
  14              	.Ltext0:
  15              		.cfi_sections	.debug_frame
  16              		.section	.text.HAL_PCDEx_SetTxFiFo,"ax",%progbits
  17              		.align	1
  18              		.global	HAL_PCDEx_SetTxFiFo
  19              		.arch armv7e-m
  20              		.syntax unified
  21              		.thumb
  22              		.thumb_func
  23              		.fpu fpv5-d16
  25              	HAL_PCDEx_SetTxFiFo:
  26              	.LVL0:
  27              	.LFB144:
  28              		.file 1 "HAL_Lib/STM32H7xx_HAL_Driver/Src/stm32h7xx_hal_pcd_ex.c"
   1:HAL_Lib/STM32H7xx_HAL_Driver/Src/stm32h7xx_hal_pcd_ex.c **** /**
   2:HAL_Lib/STM32H7xx_HAL_Driver/Src/stm32h7xx_hal_pcd_ex.c ****   ******************************************************************************
   3:HAL_Lib/STM32H7xx_HAL_Driver/Src/stm32h7xx_hal_pcd_ex.c ****   * @file    stm32h7xx_hal_pcd_ex.c
   4:HAL_Lib/STM32H7xx_HAL_Driver/Src/stm32h7xx_hal_pcd_ex.c ****   * @author  MCD Application Team
   5:HAL_Lib/STM32H7xx_HAL_Driver/Src/stm32h7xx_hal_pcd_ex.c ****   * @brief   PCD Extended HAL module driver.
   6:HAL_Lib/STM32H7xx_HAL_Driver/Src/stm32h7xx_hal_pcd_ex.c ****   *          This file provides firmware functions to manage the following
   7:HAL_Lib/STM32H7xx_HAL_Driver/Src/stm32h7xx_hal_pcd_ex.c ****   *          functionalities of the USB Peripheral Controller:
   8:HAL_Lib/STM32H7xx_HAL_Driver/Src/stm32h7xx_hal_pcd_ex.c ****   *           + Extended features functions
   9:HAL_Lib/STM32H7xx_HAL_Driver/Src/stm32h7xx_hal_pcd_ex.c ****   *
  10:HAL_Lib/STM32H7xx_HAL_Driver/Src/stm32h7xx_hal_pcd_ex.c ****   ******************************************************************************
  11:HAL_Lib/STM32H7xx_HAL_Driver/Src/stm32h7xx_hal_pcd_ex.c ****   * @attention
  12:HAL_Lib/STM32H7xx_HAL_Driver/Src/stm32h7xx_hal_pcd_ex.c ****   *
  13:HAL_Lib/STM32H7xx_HAL_Driver/Src/stm32h7xx_hal_pcd_ex.c ****   * Copyright (c) 2017 STMicroelectronics.
  14:HAL_Lib/STM32H7xx_HAL_Driver/Src/stm32h7xx_hal_pcd_ex.c ****   * All rights reserved.
  15:HAL_Lib/STM32H7xx_HAL_Driver/Src/stm32h7xx_hal_pcd_ex.c ****   *
  16:HAL_Lib/STM32H7xx_HAL_Driver/Src/stm32h7xx_hal_pcd_ex.c ****   * This software is licensed under terms that can be found in the LICENSE file
  17:HAL_Lib/STM32H7xx_HAL_Driver/Src/stm32h7xx_hal_pcd_ex.c ****   * in the root directory of this software component.
  18:HAL_Lib/STM32H7xx_HAL_Driver/Src/stm32h7xx_hal_pcd_ex.c ****   * If no LICENSE file comes with this software, it is provided AS-IS.
  19:HAL_Lib/STM32H7xx_HAL_Driver/Src/stm32h7xx_hal_pcd_ex.c ****   *
  20:HAL_Lib/STM32H7xx_HAL_Driver/Src/stm32h7xx_hal_pcd_ex.c ****   ******************************************************************************
  21:HAL_Lib/STM32H7xx_HAL_Driver/Src/stm32h7xx_hal_pcd_ex.c ****   */
  22:HAL_Lib/STM32H7xx_HAL_Driver/Src/stm32h7xx_hal_pcd_ex.c **** 
  23:HAL_Lib/STM32H7xx_HAL_Driver/Src/stm32h7xx_hal_pcd_ex.c **** /* Includes ------------------------------------------------------------------*/
  24:HAL_Lib/STM32H7xx_HAL_Driver/Src/stm32h7xx_hal_pcd_ex.c **** #include "stm32h7xx_hal.h"
  25:HAL_Lib/STM32H7xx_HAL_Driver/Src/stm32h7xx_hal_pcd_ex.c **** 
  26:HAL_Lib/STM32H7xx_HAL_Driver/Src/stm32h7xx_hal_pcd_ex.c **** /** @addtogroup STM32H7xx_HAL_Driver
  27:HAL_Lib/STM32H7xx_HAL_Driver/Src/stm32h7xx_hal_pcd_ex.c ****   * @{
  28:HAL_Lib/STM32H7xx_HAL_Driver/Src/stm32h7xx_hal_pcd_ex.c ****   */
  29:HAL_Lib/STM32H7xx_HAL_Driver/Src/stm32h7xx_hal_pcd_ex.c **** 
  30:HAL_Lib/STM32H7xx_HAL_Driver/Src/stm32h7xx_hal_pcd_ex.c **** /** @defgroup PCDEx PCDEx
ARM GAS  C:\Users\huav\AppData\Local\Temp\cclSeZk7.s 			page 2


  31:HAL_Lib/STM32H7xx_HAL_Driver/Src/stm32h7xx_hal_pcd_ex.c ****   * @brief PCD Extended HAL module driver
  32:HAL_Lib/STM32H7xx_HAL_Driver/Src/stm32h7xx_hal_pcd_ex.c ****   * @{
  33:HAL_Lib/STM32H7xx_HAL_Driver/Src/stm32h7xx_hal_pcd_ex.c ****   */
  34:HAL_Lib/STM32H7xx_HAL_Driver/Src/stm32h7xx_hal_pcd_ex.c **** 
  35:HAL_Lib/STM32H7xx_HAL_Driver/Src/stm32h7xx_hal_pcd_ex.c **** #ifdef HAL_PCD_MODULE_ENABLED
  36:HAL_Lib/STM32H7xx_HAL_Driver/Src/stm32h7xx_hal_pcd_ex.c **** 
  37:HAL_Lib/STM32H7xx_HAL_Driver/Src/stm32h7xx_hal_pcd_ex.c **** #if defined (USB_OTG_FS) || defined (USB_OTG_HS)
  38:HAL_Lib/STM32H7xx_HAL_Driver/Src/stm32h7xx_hal_pcd_ex.c **** /* Private types -------------------------------------------------------------*/
  39:HAL_Lib/STM32H7xx_HAL_Driver/Src/stm32h7xx_hal_pcd_ex.c **** /* Private variables ---------------------------------------------------------*/
  40:HAL_Lib/STM32H7xx_HAL_Driver/Src/stm32h7xx_hal_pcd_ex.c **** /* Private constants ---------------------------------------------------------*/
  41:HAL_Lib/STM32H7xx_HAL_Driver/Src/stm32h7xx_hal_pcd_ex.c **** /* Private macros ------------------------------------------------------------*/
  42:HAL_Lib/STM32H7xx_HAL_Driver/Src/stm32h7xx_hal_pcd_ex.c **** /* Private functions ---------------------------------------------------------*/
  43:HAL_Lib/STM32H7xx_HAL_Driver/Src/stm32h7xx_hal_pcd_ex.c **** /* Exported functions --------------------------------------------------------*/
  44:HAL_Lib/STM32H7xx_HAL_Driver/Src/stm32h7xx_hal_pcd_ex.c **** 
  45:HAL_Lib/STM32H7xx_HAL_Driver/Src/stm32h7xx_hal_pcd_ex.c **** /** @defgroup PCDEx_Exported_Functions PCDEx Exported Functions
  46:HAL_Lib/STM32H7xx_HAL_Driver/Src/stm32h7xx_hal_pcd_ex.c ****   * @{
  47:HAL_Lib/STM32H7xx_HAL_Driver/Src/stm32h7xx_hal_pcd_ex.c ****   */
  48:HAL_Lib/STM32H7xx_HAL_Driver/Src/stm32h7xx_hal_pcd_ex.c **** 
  49:HAL_Lib/STM32H7xx_HAL_Driver/Src/stm32h7xx_hal_pcd_ex.c **** /** @defgroup PCDEx_Exported_Functions_Group1 Peripheral Control functions
  50:HAL_Lib/STM32H7xx_HAL_Driver/Src/stm32h7xx_hal_pcd_ex.c ****   * @brief    PCDEx control functions
  51:HAL_Lib/STM32H7xx_HAL_Driver/Src/stm32h7xx_hal_pcd_ex.c ****   *
  52:HAL_Lib/STM32H7xx_HAL_Driver/Src/stm32h7xx_hal_pcd_ex.c **** @verbatim
  53:HAL_Lib/STM32H7xx_HAL_Driver/Src/stm32h7xx_hal_pcd_ex.c ****  ===============================================================================
  54:HAL_Lib/STM32H7xx_HAL_Driver/Src/stm32h7xx_hal_pcd_ex.c ****                  ##### Extended features functions #####
  55:HAL_Lib/STM32H7xx_HAL_Driver/Src/stm32h7xx_hal_pcd_ex.c ****  ===============================================================================
  56:HAL_Lib/STM32H7xx_HAL_Driver/Src/stm32h7xx_hal_pcd_ex.c ****     [..]  This section provides functions allowing to:
  57:HAL_Lib/STM32H7xx_HAL_Driver/Src/stm32h7xx_hal_pcd_ex.c ****       (+) Update FIFO configuration
  58:HAL_Lib/STM32H7xx_HAL_Driver/Src/stm32h7xx_hal_pcd_ex.c **** 
  59:HAL_Lib/STM32H7xx_HAL_Driver/Src/stm32h7xx_hal_pcd_ex.c **** @endverbatim
  60:HAL_Lib/STM32H7xx_HAL_Driver/Src/stm32h7xx_hal_pcd_ex.c ****   * @{
  61:HAL_Lib/STM32H7xx_HAL_Driver/Src/stm32h7xx_hal_pcd_ex.c ****   */
  62:HAL_Lib/STM32H7xx_HAL_Driver/Src/stm32h7xx_hal_pcd_ex.c **** #if defined (USB_OTG_FS) || defined (USB_OTG_HS)
  63:HAL_Lib/STM32H7xx_HAL_Driver/Src/stm32h7xx_hal_pcd_ex.c **** /**
  64:HAL_Lib/STM32H7xx_HAL_Driver/Src/stm32h7xx_hal_pcd_ex.c ****   * @brief  Set Tx FIFO
  65:HAL_Lib/STM32H7xx_HAL_Driver/Src/stm32h7xx_hal_pcd_ex.c ****   * @param  hpcd PCD handle
  66:HAL_Lib/STM32H7xx_HAL_Driver/Src/stm32h7xx_hal_pcd_ex.c ****   * @param  fifo The number of Tx fifo
  67:HAL_Lib/STM32H7xx_HAL_Driver/Src/stm32h7xx_hal_pcd_ex.c ****   * @param  size Fifo size
  68:HAL_Lib/STM32H7xx_HAL_Driver/Src/stm32h7xx_hal_pcd_ex.c ****   * @retval HAL status
  69:HAL_Lib/STM32H7xx_HAL_Driver/Src/stm32h7xx_hal_pcd_ex.c ****   */
  70:HAL_Lib/STM32H7xx_HAL_Driver/Src/stm32h7xx_hal_pcd_ex.c **** HAL_StatusTypeDef HAL_PCDEx_SetTxFiFo(PCD_HandleTypeDef *hpcd, uint8_t fifo, uint16_t size)
  71:HAL_Lib/STM32H7xx_HAL_Driver/Src/stm32h7xx_hal_pcd_ex.c **** {
  29              		.loc 1 71 1 view -0
  30              		.cfi_startproc
  31              		@ args = 0, pretend = 0, frame = 0
  32              		@ frame_needed = 0, uses_anonymous_args = 0
  33              		@ link register save eliminated.
  34              		.loc 1 71 1 is_stmt 0 view .LVU1
  35 0000 10B4     		push	{r4}
  36              	.LCFI0:
  37              		.cfi_def_cfa_offset 4
  38              		.cfi_offset 4, -4
  72:HAL_Lib/STM32H7xx_HAL_Driver/Src/stm32h7xx_hal_pcd_ex.c ****   uint8_t i;
  39              		.loc 1 72 3 is_stmt 1 view .LVU2
  73:HAL_Lib/STM32H7xx_HAL_Driver/Src/stm32h7xx_hal_pcd_ex.c ****   uint32_t Tx_Offset;
  40              		.loc 1 73 3 view .LVU3
  74:HAL_Lib/STM32H7xx_HAL_Driver/Src/stm32h7xx_hal_pcd_ex.c **** 
  75:HAL_Lib/STM32H7xx_HAL_Driver/Src/stm32h7xx_hal_pcd_ex.c ****   /*  TXn min size = 16 words. (n  : Transmit FIFO index)
ARM GAS  C:\Users\huav\AppData\Local\Temp\cclSeZk7.s 			page 3


  76:HAL_Lib/STM32H7xx_HAL_Driver/Src/stm32h7xx_hal_pcd_ex.c ****       When a TxFIFO is not used, the Configuration should be as follows:
  77:HAL_Lib/STM32H7xx_HAL_Driver/Src/stm32h7xx_hal_pcd_ex.c ****           case 1 :  n > m    and Txn is not used    (n,m  : Transmit FIFO indexes)
  78:HAL_Lib/STM32H7xx_HAL_Driver/Src/stm32h7xx_hal_pcd_ex.c ****          --> Txm can use the space allocated for Txn.
  79:HAL_Lib/STM32H7xx_HAL_Driver/Src/stm32h7xx_hal_pcd_ex.c ****          case2  :  n < m    and Txn is not used    (n,m  : Transmit FIFO indexes)
  80:HAL_Lib/STM32H7xx_HAL_Driver/Src/stm32h7xx_hal_pcd_ex.c ****          --> Txn should be configured with the minimum space of 16 words
  81:HAL_Lib/STM32H7xx_HAL_Driver/Src/stm32h7xx_hal_pcd_ex.c ****      The FIFO is used optimally when used TxFIFOs are allocated in the top
  82:HAL_Lib/STM32H7xx_HAL_Driver/Src/stm32h7xx_hal_pcd_ex.c ****          of the FIFO.Ex: use EP1 and EP2 as IN instead of EP1 and EP3 as IN ones.
  83:HAL_Lib/STM32H7xx_HAL_Driver/Src/stm32h7xx_hal_pcd_ex.c ****      When DMA is used 3n * FIFO locations should be reserved for internal DMA registers */
  84:HAL_Lib/STM32H7xx_HAL_Driver/Src/stm32h7xx_hal_pcd_ex.c **** 
  85:HAL_Lib/STM32H7xx_HAL_Driver/Src/stm32h7xx_hal_pcd_ex.c ****   Tx_Offset = hpcd->Instance->GRXFSIZ;
  41              		.loc 1 85 3 view .LVU4
  42              		.loc 1 85 19 is_stmt 0 view .LVU5
  43 0002 0468     		ldr	r4, [r0]
  44              		.loc 1 85 13 view .LVU6
  45 0004 606A     		ldr	r0, [r4, #36]
  46              	.LVL1:
  86:HAL_Lib/STM32H7xx_HAL_Driver/Src/stm32h7xx_hal_pcd_ex.c **** 
  87:HAL_Lib/STM32H7xx_HAL_Driver/Src/stm32h7xx_hal_pcd_ex.c ****   if (fifo == 0U)
  47              		.loc 1 87 3 is_stmt 1 view .LVU7
  48              		.loc 1 87 6 is_stmt 0 view .LVU8
  49 0006 31B9     		cbnz	r1, .L2
  88:HAL_Lib/STM32H7xx_HAL_Driver/Src/stm32h7xx_hal_pcd_ex.c ****   {
  89:HAL_Lib/STM32H7xx_HAL_Driver/Src/stm32h7xx_hal_pcd_ex.c ****     hpcd->Instance->DIEPTXF0_HNPTXFSIZ = ((uint32_t)size << 16) | Tx_Offset;
  50              		.loc 1 89 5 is_stmt 1 view .LVU9
  51              		.loc 1 89 65 is_stmt 0 view .LVU10
  52 0008 40EA0240 		orr	r0, r0, r2, lsl #16
  53              	.LVL2:
  54              		.loc 1 89 40 view .LVU11
  55 000c A062     		str	r0, [r4, #40]
  56              	.LVL3:
  57              	.L3:
  90:HAL_Lib/STM32H7xx_HAL_Driver/Src/stm32h7xx_hal_pcd_ex.c ****   }
  91:HAL_Lib/STM32H7xx_HAL_Driver/Src/stm32h7xx_hal_pcd_ex.c ****   else
  92:HAL_Lib/STM32H7xx_HAL_Driver/Src/stm32h7xx_hal_pcd_ex.c ****   {
  93:HAL_Lib/STM32H7xx_HAL_Driver/Src/stm32h7xx_hal_pcd_ex.c ****     Tx_Offset += (hpcd->Instance->DIEPTXF0_HNPTXFSIZ) >> 16;
  94:HAL_Lib/STM32H7xx_HAL_Driver/Src/stm32h7xx_hal_pcd_ex.c ****     for (i = 0U; i < (fifo - 1U); i++)
  95:HAL_Lib/STM32H7xx_HAL_Driver/Src/stm32h7xx_hal_pcd_ex.c ****     {
  96:HAL_Lib/STM32H7xx_HAL_Driver/Src/stm32h7xx_hal_pcd_ex.c ****       Tx_Offset += (hpcd->Instance->DIEPTXF[i] >> 16);
  97:HAL_Lib/STM32H7xx_HAL_Driver/Src/stm32h7xx_hal_pcd_ex.c ****     }
  98:HAL_Lib/STM32H7xx_HAL_Driver/Src/stm32h7xx_hal_pcd_ex.c **** 
  99:HAL_Lib/STM32H7xx_HAL_Driver/Src/stm32h7xx_hal_pcd_ex.c ****     /* Multiply Tx_Size by 2 to get higher performance */
 100:HAL_Lib/STM32H7xx_HAL_Driver/Src/stm32h7xx_hal_pcd_ex.c ****     hpcd->Instance->DIEPTXF[fifo - 1U] = ((uint32_t)size << 16) | Tx_Offset;
 101:HAL_Lib/STM32H7xx_HAL_Driver/Src/stm32h7xx_hal_pcd_ex.c ****   }
 102:HAL_Lib/STM32H7xx_HAL_Driver/Src/stm32h7xx_hal_pcd_ex.c **** 
 103:HAL_Lib/STM32H7xx_HAL_Driver/Src/stm32h7xx_hal_pcd_ex.c ****   return HAL_OK;
  58              		.loc 1 103 3 is_stmt 1 view .LVU12
 104:HAL_Lib/STM32H7xx_HAL_Driver/Src/stm32h7xx_hal_pcd_ex.c **** }
  59              		.loc 1 104 1 is_stmt 0 view .LVU13
  60 000e 0020     		movs	r0, #0
  61 0010 5DF8044B 		ldr	r4, [sp], #4
  62              	.LCFI1:
  63              		.cfi_remember_state
  64              		.cfi_restore 4
  65              		.cfi_def_cfa_offset 0
  66 0014 7047     		bx	lr
  67              	.LVL4:
  68              	.L2:
ARM GAS  C:\Users\huav\AppData\Local\Temp\cclSeZk7.s 			page 4


  69              	.LCFI2:
  70              		.cfi_restore_state
  71              		.loc 1 104 1 view .LVU14
  72 0016 8C46     		mov	ip, r1
  93:HAL_Lib/STM32H7xx_HAL_Driver/Src/stm32h7xx_hal_pcd_ex.c ****     for (i = 0U; i < (fifo - 1U); i++)
  73              		.loc 1 93 5 is_stmt 1 view .LVU15
  93:HAL_Lib/STM32H7xx_HAL_Driver/Src/stm32h7xx_hal_pcd_ex.c ****     for (i = 0U; i < (fifo - 1U); i++)
  74              		.loc 1 93 33 is_stmt 0 view .LVU16
  75 0018 A36A     		ldr	r3, [r4, #40]
  93:HAL_Lib/STM32H7xx_HAL_Driver/Src/stm32h7xx_hal_pcd_ex.c ****     for (i = 0U; i < (fifo - 1U); i++)
  76              		.loc 1 93 15 view .LVU17
  77 001a 00EB1340 		add	r0, r0, r3, lsr #16
  78              	.LVL5:
  94:HAL_Lib/STM32H7xx_HAL_Driver/Src/stm32h7xx_hal_pcd_ex.c ****     {
  79              		.loc 1 94 5 is_stmt 1 view .LVU18
  94:HAL_Lib/STM32H7xx_HAL_Driver/Src/stm32h7xx_hal_pcd_ex.c ****     {
  80              		.loc 1 94 12 is_stmt 0 view .LVU19
  81 001e 0023     		movs	r3, #0
  94:HAL_Lib/STM32H7xx_HAL_Driver/Src/stm32h7xx_hal_pcd_ex.c ****     {
  82              		.loc 1 94 5 view .LVU20
  83 0020 08E0     		b	.L4
  84              	.LVL6:
  85              	.L5:
  96:HAL_Lib/STM32H7xx_HAL_Driver/Src/stm32h7xx_hal_pcd_ex.c ****     }
  86              		.loc 1 96 7 is_stmt 1 discriminator 3 view .LVU21
  96:HAL_Lib/STM32H7xx_HAL_Driver/Src/stm32h7xx_hal_pcd_ex.c ****     }
  87              		.loc 1 96 44 is_stmt 0 discriminator 3 view .LVU22
  88 0022 03F14001 		add	r1, r3, #64
  89 0026 04EB8101 		add	r1, r4, r1, lsl #2
  90 002a 4968     		ldr	r1, [r1, #4]
  96:HAL_Lib/STM32H7xx_HAL_Driver/Src/stm32h7xx_hal_pcd_ex.c ****     }
  91              		.loc 1 96 17 discriminator 3 view .LVU23
  92 002c 00EB1140 		add	r0, r0, r1, lsr #16
  93              	.LVL7:
  94:HAL_Lib/STM32H7xx_HAL_Driver/Src/stm32h7xx_hal_pcd_ex.c ****     {
  94              		.loc 1 94 35 is_stmt 1 discriminator 3 view .LVU24
  94:HAL_Lib/STM32H7xx_HAL_Driver/Src/stm32h7xx_hal_pcd_ex.c ****     {
  95              		.loc 1 94 36 is_stmt 0 discriminator 3 view .LVU25
  96 0030 0133     		adds	r3, r3, #1
  97              	.LVL8:
  94:HAL_Lib/STM32H7xx_HAL_Driver/Src/stm32h7xx_hal_pcd_ex.c ****     {
  98              		.loc 1 94 36 discriminator 3 view .LVU26
  99 0032 DBB2     		uxtb	r3, r3
 100              	.LVL9:
 101              	.L4:
  94:HAL_Lib/STM32H7xx_HAL_Driver/Src/stm32h7xx_hal_pcd_ex.c ****     {
 102              		.loc 1 94 18 is_stmt 1 discriminator 1 view .LVU27
  94:HAL_Lib/STM32H7xx_HAL_Driver/Src/stm32h7xx_hal_pcd_ex.c ****     {
 103              		.loc 1 94 28 is_stmt 0 discriminator 1 view .LVU28
 104 0034 0CF1FF31 		add	r1, ip, #-1
  94:HAL_Lib/STM32H7xx_HAL_Driver/Src/stm32h7xx_hal_pcd_ex.c ****     {
 105              		.loc 1 94 5 discriminator 1 view .LVU29
 106 0038 8B42     		cmp	r3, r1
 107 003a F2D3     		bcc	.L5
 100:HAL_Lib/STM32H7xx_HAL_Driver/Src/stm32h7xx_hal_pcd_ex.c ****   }
 108              		.loc 1 100 5 is_stmt 1 view .LVU30
 100:HAL_Lib/STM32H7xx_HAL_Driver/Src/stm32h7xx_hal_pcd_ex.c ****   }
ARM GAS  C:\Users\huav\AppData\Local\Temp\cclSeZk7.s 			page 5


 109              		.loc 1 100 65 is_stmt 0 view .LVU31
 110 003c 40EA0240 		orr	r0, r0, r2, lsl #16
 111              	.LVL10:
 100:HAL_Lib/STM32H7xx_HAL_Driver/Src/stm32h7xx_hal_pcd_ex.c ****   }
 112              		.loc 1 100 40 view .LVU32
 113 0040 0CF13F01 		add	r1, ip, #63
 114 0044 04EB8101 		add	r1, r4, r1, lsl #2
 115 0048 4860     		str	r0, [r1, #4]
 116 004a E0E7     		b	.L3
 117              		.cfi_endproc
 118              	.LFE144:
 120              		.section	.text.HAL_PCDEx_SetRxFiFo,"ax",%progbits
 121              		.align	1
 122              		.global	HAL_PCDEx_SetRxFiFo
 123              		.syntax unified
 124              		.thumb
 125              		.thumb_func
 126              		.fpu fpv5-d16
 128              	HAL_PCDEx_SetRxFiFo:
 129              	.LVL11:
 130              	.LFB145:
 105:HAL_Lib/STM32H7xx_HAL_Driver/Src/stm32h7xx_hal_pcd_ex.c **** 
 106:HAL_Lib/STM32H7xx_HAL_Driver/Src/stm32h7xx_hal_pcd_ex.c **** /**
 107:HAL_Lib/STM32H7xx_HAL_Driver/Src/stm32h7xx_hal_pcd_ex.c ****   * @brief  Set Rx FIFO
 108:HAL_Lib/STM32H7xx_HAL_Driver/Src/stm32h7xx_hal_pcd_ex.c ****   * @param  hpcd PCD handle
 109:HAL_Lib/STM32H7xx_HAL_Driver/Src/stm32h7xx_hal_pcd_ex.c ****   * @param  size Size of Rx fifo
 110:HAL_Lib/STM32H7xx_HAL_Driver/Src/stm32h7xx_hal_pcd_ex.c ****   * @retval HAL status
 111:HAL_Lib/STM32H7xx_HAL_Driver/Src/stm32h7xx_hal_pcd_ex.c ****   */
 112:HAL_Lib/STM32H7xx_HAL_Driver/Src/stm32h7xx_hal_pcd_ex.c **** HAL_StatusTypeDef HAL_PCDEx_SetRxFiFo(PCD_HandleTypeDef *hpcd, uint16_t size)
 113:HAL_Lib/STM32H7xx_HAL_Driver/Src/stm32h7xx_hal_pcd_ex.c **** {
 131              		.loc 1 113 1 is_stmt 1 view -0
 132              		.cfi_startproc
 133              		@ args = 0, pretend = 0, frame = 0
 134              		@ frame_needed = 0, uses_anonymous_args = 0
 135              		@ link register save eliminated.
 114:HAL_Lib/STM32H7xx_HAL_Driver/Src/stm32h7xx_hal_pcd_ex.c ****   hpcd->Instance->GRXFSIZ = size;
 136              		.loc 1 114 3 view .LVU34
 137              		.loc 1 114 7 is_stmt 0 view .LVU35
 138 0000 0368     		ldr	r3, [r0]
 139              		.loc 1 114 27 view .LVU36
 140 0002 5962     		str	r1, [r3, #36]
 115:HAL_Lib/STM32H7xx_HAL_Driver/Src/stm32h7xx_hal_pcd_ex.c **** 
 116:HAL_Lib/STM32H7xx_HAL_Driver/Src/stm32h7xx_hal_pcd_ex.c ****   return HAL_OK;
 141              		.loc 1 116 3 is_stmt 1 view .LVU37
 117:HAL_Lib/STM32H7xx_HAL_Driver/Src/stm32h7xx_hal_pcd_ex.c **** }
 142              		.loc 1 117 1 is_stmt 0 view .LVU38
 143 0004 0020     		movs	r0, #0
 144              	.LVL12:
 145              		.loc 1 117 1 view .LVU39
 146 0006 7047     		bx	lr
 147              		.cfi_endproc
 148              	.LFE145:
 150              		.section	.text.HAL_PCDEx_ActivateLPM,"ax",%progbits
 151              		.align	1
 152              		.global	HAL_PCDEx_ActivateLPM
 153              		.syntax unified
 154              		.thumb
ARM GAS  C:\Users\huav\AppData\Local\Temp\cclSeZk7.s 			page 6


 155              		.thumb_func
 156              		.fpu fpv5-d16
 158              	HAL_PCDEx_ActivateLPM:
 159              	.LVL13:
 160              	.LFB146:
 118:HAL_Lib/STM32H7xx_HAL_Driver/Src/stm32h7xx_hal_pcd_ex.c **** 
 119:HAL_Lib/STM32H7xx_HAL_Driver/Src/stm32h7xx_hal_pcd_ex.c **** /**
 120:HAL_Lib/STM32H7xx_HAL_Driver/Src/stm32h7xx_hal_pcd_ex.c ****   * @brief  Activate LPM feature.
 121:HAL_Lib/STM32H7xx_HAL_Driver/Src/stm32h7xx_hal_pcd_ex.c ****   * @param  hpcd PCD handle
 122:HAL_Lib/STM32H7xx_HAL_Driver/Src/stm32h7xx_hal_pcd_ex.c ****   * @retval HAL status
 123:HAL_Lib/STM32H7xx_HAL_Driver/Src/stm32h7xx_hal_pcd_ex.c ****   */
 124:HAL_Lib/STM32H7xx_HAL_Driver/Src/stm32h7xx_hal_pcd_ex.c **** HAL_StatusTypeDef HAL_PCDEx_ActivateLPM(PCD_HandleTypeDef *hpcd)
 125:HAL_Lib/STM32H7xx_HAL_Driver/Src/stm32h7xx_hal_pcd_ex.c **** {
 161              		.loc 1 125 1 is_stmt 1 view -0
 162              		.cfi_startproc
 163              		@ args = 0, pretend = 0, frame = 0
 164              		@ frame_needed = 0, uses_anonymous_args = 0
 165              		@ link register save eliminated.
 166              		.loc 1 125 1 is_stmt 0 view .LVU41
 167 0000 0346     		mov	r3, r0
 126:HAL_Lib/STM32H7xx_HAL_Driver/Src/stm32h7xx_hal_pcd_ex.c ****   USB_OTG_GlobalTypeDef *USBx = hpcd->Instance;
 168              		.loc 1 126 3 is_stmt 1 view .LVU42
 169              		.loc 1 126 26 is_stmt 0 view .LVU43
 170 0002 0268     		ldr	r2, [r0]
 171              	.LVL14:
 127:HAL_Lib/STM32H7xx_HAL_Driver/Src/stm32h7xx_hal_pcd_ex.c **** 
 128:HAL_Lib/STM32H7xx_HAL_Driver/Src/stm32h7xx_hal_pcd_ex.c ****   hpcd->lpm_active = 1U;
 172              		.loc 1 128 3 is_stmt 1 view .LVU44
 173              		.loc 1 128 20 is_stmt 0 view .LVU45
 174 0004 0121     		movs	r1, #1
 175 0006 C0F8FC13 		str	r1, [r0, #1020]
 129:HAL_Lib/STM32H7xx_HAL_Driver/Src/stm32h7xx_hal_pcd_ex.c ****   hpcd->LPM_State = LPM_L0;
 176              		.loc 1 129 3 is_stmt 1 view .LVU46
 177              		.loc 1 129 19 is_stmt 0 view .LVU47
 178 000a 0020     		movs	r0, #0
 179              	.LVL15:
 180              		.loc 1 129 19 view .LVU48
 181 000c 83F8F403 		strb	r0, [r3, #1012]
 130:HAL_Lib/STM32H7xx_HAL_Driver/Src/stm32h7xx_hal_pcd_ex.c ****   USBx->GINTMSK |= USB_OTG_GINTMSK_LPMINTM;
 182              		.loc 1 130 3 is_stmt 1 view .LVU49
 183              		.loc 1 130 17 is_stmt 0 view .LVU50
 184 0010 9369     		ldr	r3, [r2, #24]
 185              	.LVL16:
 186              		.loc 1 130 17 view .LVU51
 187 0012 43F00063 		orr	r3, r3, #134217728
 188 0016 9361     		str	r3, [r2, #24]
 131:HAL_Lib/STM32H7xx_HAL_Driver/Src/stm32h7xx_hal_pcd_ex.c ****   USBx->GLPMCFG |= (USB_OTG_GLPMCFG_LPMEN | USB_OTG_GLPMCFG_LPMACK | USB_OTG_GLPMCFG_ENBESL);
 189              		.loc 1 131 3 is_stmt 1 view .LVU52
 190              		.loc 1 131 17 is_stmt 0 view .LVU53
 191 0018 516D     		ldr	r1, [r2, #84]
 192 001a 024B     		ldr	r3, .L9
 193 001c 0B43     		orrs	r3, r3, r1
 194 001e 5365     		str	r3, [r2, #84]
 132:HAL_Lib/STM32H7xx_HAL_Driver/Src/stm32h7xx_hal_pcd_ex.c **** 
 133:HAL_Lib/STM32H7xx_HAL_Driver/Src/stm32h7xx_hal_pcd_ex.c ****   return HAL_OK;
 195              		.loc 1 133 3 is_stmt 1 view .LVU54
 134:HAL_Lib/STM32H7xx_HAL_Driver/Src/stm32h7xx_hal_pcd_ex.c **** }
ARM GAS  C:\Users\huav\AppData\Local\Temp\cclSeZk7.s 			page 7


 196              		.loc 1 134 1 is_stmt 0 view .LVU55
 197 0020 7047     		bx	lr
 198              	.L10:
 199 0022 00BF     		.align	2
 200              	.L9:
 201 0024 03000010 		.word	268435459
 202              		.cfi_endproc
 203              	.LFE146:
 205              		.section	.text.HAL_PCDEx_DeActivateLPM,"ax",%progbits
 206              		.align	1
 207              		.global	HAL_PCDEx_DeActivateLPM
 208              		.syntax unified
 209              		.thumb
 210              		.thumb_func
 211              		.fpu fpv5-d16
 213              	HAL_PCDEx_DeActivateLPM:
 214              	.LVL17:
 215              	.LFB147:
 135:HAL_Lib/STM32H7xx_HAL_Driver/Src/stm32h7xx_hal_pcd_ex.c **** 
 136:HAL_Lib/STM32H7xx_HAL_Driver/Src/stm32h7xx_hal_pcd_ex.c **** /**
 137:HAL_Lib/STM32H7xx_HAL_Driver/Src/stm32h7xx_hal_pcd_ex.c ****   * @brief  Deactivate LPM feature.
 138:HAL_Lib/STM32H7xx_HAL_Driver/Src/stm32h7xx_hal_pcd_ex.c ****   * @param  hpcd PCD handle
 139:HAL_Lib/STM32H7xx_HAL_Driver/Src/stm32h7xx_hal_pcd_ex.c ****   * @retval HAL status
 140:HAL_Lib/STM32H7xx_HAL_Driver/Src/stm32h7xx_hal_pcd_ex.c ****   */
 141:HAL_Lib/STM32H7xx_HAL_Driver/Src/stm32h7xx_hal_pcd_ex.c **** HAL_StatusTypeDef HAL_PCDEx_DeActivateLPM(PCD_HandleTypeDef *hpcd)
 142:HAL_Lib/STM32H7xx_HAL_Driver/Src/stm32h7xx_hal_pcd_ex.c **** {
 216              		.loc 1 142 1 is_stmt 1 view -0
 217              		.cfi_startproc
 218              		@ args = 0, pretend = 0, frame = 0
 219              		@ frame_needed = 0, uses_anonymous_args = 0
 220              		@ link register save eliminated.
 221              		.loc 1 142 1 is_stmt 0 view .LVU57
 222 0000 0246     		mov	r2, r0
 143:HAL_Lib/STM32H7xx_HAL_Driver/Src/stm32h7xx_hal_pcd_ex.c ****   USB_OTG_GlobalTypeDef *USBx = hpcd->Instance;
 223              		.loc 1 143 3 is_stmt 1 view .LVU58
 224              		.loc 1 143 26 is_stmt 0 view .LVU59
 225 0002 0368     		ldr	r3, [r0]
 226              	.LVL18:
 144:HAL_Lib/STM32H7xx_HAL_Driver/Src/stm32h7xx_hal_pcd_ex.c **** 
 145:HAL_Lib/STM32H7xx_HAL_Driver/Src/stm32h7xx_hal_pcd_ex.c ****   hpcd->lpm_active = 0U;
 227              		.loc 1 145 3 is_stmt 1 view .LVU60
 228              		.loc 1 145 20 is_stmt 0 view .LVU61
 229 0004 0020     		movs	r0, #0
 230              	.LVL19:
 231              		.loc 1 145 20 view .LVU62
 232 0006 C2F8FC03 		str	r0, [r2, #1020]
 146:HAL_Lib/STM32H7xx_HAL_Driver/Src/stm32h7xx_hal_pcd_ex.c ****   USBx->GINTMSK &= ~USB_OTG_GINTMSK_LPMINTM;
 233              		.loc 1 146 3 is_stmt 1 view .LVU63
 234              		.loc 1 146 17 is_stmt 0 view .LVU64
 235 000a 9A69     		ldr	r2, [r3, #24]
 236              	.LVL20:
 237              		.loc 1 146 17 view .LVU65
 238 000c 22F00062 		bic	r2, r2, #134217728
 239 0010 9A61     		str	r2, [r3, #24]
 147:HAL_Lib/STM32H7xx_HAL_Driver/Src/stm32h7xx_hal_pcd_ex.c ****   USBx->GLPMCFG &= ~(USB_OTG_GLPMCFG_LPMEN | USB_OTG_GLPMCFG_LPMACK | USB_OTG_GLPMCFG_ENBESL);
 240              		.loc 1 147 3 is_stmt 1 view .LVU66
 241              		.loc 1 147 17 is_stmt 0 view .LVU67
ARM GAS  C:\Users\huav\AppData\Local\Temp\cclSeZk7.s 			page 8


 242 0012 596D     		ldr	r1, [r3, #84]
 243 0014 014A     		ldr	r2, .L12
 244 0016 0A40     		ands	r2, r2, r1
 245 0018 5A65     		str	r2, [r3, #84]
 148:HAL_Lib/STM32H7xx_HAL_Driver/Src/stm32h7xx_hal_pcd_ex.c **** 
 149:HAL_Lib/STM32H7xx_HAL_Driver/Src/stm32h7xx_hal_pcd_ex.c ****   return HAL_OK;
 246              		.loc 1 149 3 is_stmt 1 view .LVU68
 150:HAL_Lib/STM32H7xx_HAL_Driver/Src/stm32h7xx_hal_pcd_ex.c **** }
 247              		.loc 1 150 1 is_stmt 0 view .LVU69
 248 001a 7047     		bx	lr
 249              	.L13:
 250              		.align	2
 251              	.L12:
 252 001c FCFFFFEF 		.word	-268435460
 253              		.cfi_endproc
 254              	.LFE147:
 256              		.section	.text.HAL_PCDEx_ActivateBCD,"ax",%progbits
 257              		.align	1
 258              		.global	HAL_PCDEx_ActivateBCD
 259              		.syntax unified
 260              		.thumb
 261              		.thumb_func
 262              		.fpu fpv5-d16
 264              	HAL_PCDEx_ActivateBCD:
 265              	.LVL21:
 266              	.LFB149:
 151:HAL_Lib/STM32H7xx_HAL_Driver/Src/stm32h7xx_hal_pcd_ex.c **** 
 152:HAL_Lib/STM32H7xx_HAL_Driver/Src/stm32h7xx_hal_pcd_ex.c **** 
 153:HAL_Lib/STM32H7xx_HAL_Driver/Src/stm32h7xx_hal_pcd_ex.c **** /**
 154:HAL_Lib/STM32H7xx_HAL_Driver/Src/stm32h7xx_hal_pcd_ex.c ****   * @brief  Handle BatteryCharging Process.
 155:HAL_Lib/STM32H7xx_HAL_Driver/Src/stm32h7xx_hal_pcd_ex.c ****   * @param  hpcd PCD handle
 156:HAL_Lib/STM32H7xx_HAL_Driver/Src/stm32h7xx_hal_pcd_ex.c ****   * @retval HAL status
 157:HAL_Lib/STM32H7xx_HAL_Driver/Src/stm32h7xx_hal_pcd_ex.c ****   */
 158:HAL_Lib/STM32H7xx_HAL_Driver/Src/stm32h7xx_hal_pcd_ex.c **** void HAL_PCDEx_BCD_VBUSDetect(PCD_HandleTypeDef *hpcd)
 159:HAL_Lib/STM32H7xx_HAL_Driver/Src/stm32h7xx_hal_pcd_ex.c **** {
 160:HAL_Lib/STM32H7xx_HAL_Driver/Src/stm32h7xx_hal_pcd_ex.c ****   USB_OTG_GlobalTypeDef *USBx = hpcd->Instance;
 161:HAL_Lib/STM32H7xx_HAL_Driver/Src/stm32h7xx_hal_pcd_ex.c ****   uint32_t tickstart = HAL_GetTick();
 162:HAL_Lib/STM32H7xx_HAL_Driver/Src/stm32h7xx_hal_pcd_ex.c **** 
 163:HAL_Lib/STM32H7xx_HAL_Driver/Src/stm32h7xx_hal_pcd_ex.c ****   /* Enable DCD : Data Contact Detect */
 164:HAL_Lib/STM32H7xx_HAL_Driver/Src/stm32h7xx_hal_pcd_ex.c ****   USBx->GCCFG |= USB_OTG_GCCFG_DCDEN;
 165:HAL_Lib/STM32H7xx_HAL_Driver/Src/stm32h7xx_hal_pcd_ex.c **** 
 166:HAL_Lib/STM32H7xx_HAL_Driver/Src/stm32h7xx_hal_pcd_ex.c ****   /* Wait Detect flag or a timeout is happen */
 167:HAL_Lib/STM32H7xx_HAL_Driver/Src/stm32h7xx_hal_pcd_ex.c ****   while ((USBx->GCCFG & USB_OTG_GCCFG_DCDET) == 0U)
 168:HAL_Lib/STM32H7xx_HAL_Driver/Src/stm32h7xx_hal_pcd_ex.c ****   {
 169:HAL_Lib/STM32H7xx_HAL_Driver/Src/stm32h7xx_hal_pcd_ex.c ****     /* Check for the Timeout */
 170:HAL_Lib/STM32H7xx_HAL_Driver/Src/stm32h7xx_hal_pcd_ex.c ****     if ((HAL_GetTick() - tickstart) > 1000U)
 171:HAL_Lib/STM32H7xx_HAL_Driver/Src/stm32h7xx_hal_pcd_ex.c ****     {
 172:HAL_Lib/STM32H7xx_HAL_Driver/Src/stm32h7xx_hal_pcd_ex.c **** #if (USE_HAL_PCD_REGISTER_CALLBACKS == 1U)
 173:HAL_Lib/STM32H7xx_HAL_Driver/Src/stm32h7xx_hal_pcd_ex.c ****       hpcd->BCDCallback(hpcd, PCD_BCD_ERROR);
 174:HAL_Lib/STM32H7xx_HAL_Driver/Src/stm32h7xx_hal_pcd_ex.c **** #else
 175:HAL_Lib/STM32H7xx_HAL_Driver/Src/stm32h7xx_hal_pcd_ex.c ****       HAL_PCDEx_BCD_Callback(hpcd, PCD_BCD_ERROR);
 176:HAL_Lib/STM32H7xx_HAL_Driver/Src/stm32h7xx_hal_pcd_ex.c **** #endif /* USE_HAL_PCD_REGISTER_CALLBACKS */
 177:HAL_Lib/STM32H7xx_HAL_Driver/Src/stm32h7xx_hal_pcd_ex.c **** 
 178:HAL_Lib/STM32H7xx_HAL_Driver/Src/stm32h7xx_hal_pcd_ex.c ****       return;
 179:HAL_Lib/STM32H7xx_HAL_Driver/Src/stm32h7xx_hal_pcd_ex.c ****     }
 180:HAL_Lib/STM32H7xx_HAL_Driver/Src/stm32h7xx_hal_pcd_ex.c ****   }
 181:HAL_Lib/STM32H7xx_HAL_Driver/Src/stm32h7xx_hal_pcd_ex.c **** 
ARM GAS  C:\Users\huav\AppData\Local\Temp\cclSeZk7.s 			page 9


 182:HAL_Lib/STM32H7xx_HAL_Driver/Src/stm32h7xx_hal_pcd_ex.c ****   /* Right response got */
 183:HAL_Lib/STM32H7xx_HAL_Driver/Src/stm32h7xx_hal_pcd_ex.c ****   HAL_Delay(200U);
 184:HAL_Lib/STM32H7xx_HAL_Driver/Src/stm32h7xx_hal_pcd_ex.c **** 
 185:HAL_Lib/STM32H7xx_HAL_Driver/Src/stm32h7xx_hal_pcd_ex.c ****   /* Check Detect flag*/
 186:HAL_Lib/STM32H7xx_HAL_Driver/Src/stm32h7xx_hal_pcd_ex.c ****   if ((USBx->GCCFG & USB_OTG_GCCFG_DCDET) == USB_OTG_GCCFG_DCDET)
 187:HAL_Lib/STM32H7xx_HAL_Driver/Src/stm32h7xx_hal_pcd_ex.c ****   {
 188:HAL_Lib/STM32H7xx_HAL_Driver/Src/stm32h7xx_hal_pcd_ex.c **** #if (USE_HAL_PCD_REGISTER_CALLBACKS == 1U)
 189:HAL_Lib/STM32H7xx_HAL_Driver/Src/stm32h7xx_hal_pcd_ex.c ****     hpcd->BCDCallback(hpcd, PCD_BCD_CONTACT_DETECTION);
 190:HAL_Lib/STM32H7xx_HAL_Driver/Src/stm32h7xx_hal_pcd_ex.c **** #else
 191:HAL_Lib/STM32H7xx_HAL_Driver/Src/stm32h7xx_hal_pcd_ex.c ****     HAL_PCDEx_BCD_Callback(hpcd, PCD_BCD_CONTACT_DETECTION);
 192:HAL_Lib/STM32H7xx_HAL_Driver/Src/stm32h7xx_hal_pcd_ex.c **** #endif /* USE_HAL_PCD_REGISTER_CALLBACKS */
 193:HAL_Lib/STM32H7xx_HAL_Driver/Src/stm32h7xx_hal_pcd_ex.c ****   }
 194:HAL_Lib/STM32H7xx_HAL_Driver/Src/stm32h7xx_hal_pcd_ex.c **** 
 195:HAL_Lib/STM32H7xx_HAL_Driver/Src/stm32h7xx_hal_pcd_ex.c ****   /*Primary detection: checks if connected to Standard Downstream Port
 196:HAL_Lib/STM32H7xx_HAL_Driver/Src/stm32h7xx_hal_pcd_ex.c ****   (without charging capability) */
 197:HAL_Lib/STM32H7xx_HAL_Driver/Src/stm32h7xx_hal_pcd_ex.c ****   USBx->GCCFG &= ~ USB_OTG_GCCFG_DCDEN;
 198:HAL_Lib/STM32H7xx_HAL_Driver/Src/stm32h7xx_hal_pcd_ex.c ****   HAL_Delay(50U);
 199:HAL_Lib/STM32H7xx_HAL_Driver/Src/stm32h7xx_hal_pcd_ex.c ****   USBx->GCCFG |=  USB_OTG_GCCFG_PDEN;
 200:HAL_Lib/STM32H7xx_HAL_Driver/Src/stm32h7xx_hal_pcd_ex.c ****   HAL_Delay(50U);
 201:HAL_Lib/STM32H7xx_HAL_Driver/Src/stm32h7xx_hal_pcd_ex.c **** 
 202:HAL_Lib/STM32H7xx_HAL_Driver/Src/stm32h7xx_hal_pcd_ex.c ****   if ((USBx->GCCFG & USB_OTG_GCCFG_PDET) == 0U)
 203:HAL_Lib/STM32H7xx_HAL_Driver/Src/stm32h7xx_hal_pcd_ex.c ****   {
 204:HAL_Lib/STM32H7xx_HAL_Driver/Src/stm32h7xx_hal_pcd_ex.c ****     /* Case of Standard Downstream Port */
 205:HAL_Lib/STM32H7xx_HAL_Driver/Src/stm32h7xx_hal_pcd_ex.c **** #if (USE_HAL_PCD_REGISTER_CALLBACKS == 1U)
 206:HAL_Lib/STM32H7xx_HAL_Driver/Src/stm32h7xx_hal_pcd_ex.c ****     hpcd->BCDCallback(hpcd, PCD_BCD_STD_DOWNSTREAM_PORT);
 207:HAL_Lib/STM32H7xx_HAL_Driver/Src/stm32h7xx_hal_pcd_ex.c **** #else
 208:HAL_Lib/STM32H7xx_HAL_Driver/Src/stm32h7xx_hal_pcd_ex.c ****     HAL_PCDEx_BCD_Callback(hpcd, PCD_BCD_STD_DOWNSTREAM_PORT);
 209:HAL_Lib/STM32H7xx_HAL_Driver/Src/stm32h7xx_hal_pcd_ex.c **** #endif /* USE_HAL_PCD_REGISTER_CALLBACKS */
 210:HAL_Lib/STM32H7xx_HAL_Driver/Src/stm32h7xx_hal_pcd_ex.c ****   }
 211:HAL_Lib/STM32H7xx_HAL_Driver/Src/stm32h7xx_hal_pcd_ex.c ****   else
 212:HAL_Lib/STM32H7xx_HAL_Driver/Src/stm32h7xx_hal_pcd_ex.c ****   {
 213:HAL_Lib/STM32H7xx_HAL_Driver/Src/stm32h7xx_hal_pcd_ex.c ****     /* start secondary detection to check connection to Charging Downstream
 214:HAL_Lib/STM32H7xx_HAL_Driver/Src/stm32h7xx_hal_pcd_ex.c ****     Port or Dedicated Charging Port */
 215:HAL_Lib/STM32H7xx_HAL_Driver/Src/stm32h7xx_hal_pcd_ex.c ****     USBx->GCCFG &= ~ USB_OTG_GCCFG_PDEN;
 216:HAL_Lib/STM32H7xx_HAL_Driver/Src/stm32h7xx_hal_pcd_ex.c ****     HAL_Delay(50U);
 217:HAL_Lib/STM32H7xx_HAL_Driver/Src/stm32h7xx_hal_pcd_ex.c ****     USBx->GCCFG |=  USB_OTG_GCCFG_SDEN;
 218:HAL_Lib/STM32H7xx_HAL_Driver/Src/stm32h7xx_hal_pcd_ex.c ****     HAL_Delay(50U);
 219:HAL_Lib/STM32H7xx_HAL_Driver/Src/stm32h7xx_hal_pcd_ex.c **** 
 220:HAL_Lib/STM32H7xx_HAL_Driver/Src/stm32h7xx_hal_pcd_ex.c ****     if ((USBx->GCCFG & USB_OTG_GCCFG_SDET) == USB_OTG_GCCFG_SDET)
 221:HAL_Lib/STM32H7xx_HAL_Driver/Src/stm32h7xx_hal_pcd_ex.c ****     {
 222:HAL_Lib/STM32H7xx_HAL_Driver/Src/stm32h7xx_hal_pcd_ex.c ****       /* case Dedicated Charging Port  */
 223:HAL_Lib/STM32H7xx_HAL_Driver/Src/stm32h7xx_hal_pcd_ex.c **** #if (USE_HAL_PCD_REGISTER_CALLBACKS == 1U)
 224:HAL_Lib/STM32H7xx_HAL_Driver/Src/stm32h7xx_hal_pcd_ex.c ****       hpcd->BCDCallback(hpcd, PCD_BCD_DEDICATED_CHARGING_PORT);
 225:HAL_Lib/STM32H7xx_HAL_Driver/Src/stm32h7xx_hal_pcd_ex.c **** #else
 226:HAL_Lib/STM32H7xx_HAL_Driver/Src/stm32h7xx_hal_pcd_ex.c ****       HAL_PCDEx_BCD_Callback(hpcd, PCD_BCD_DEDICATED_CHARGING_PORT);
 227:HAL_Lib/STM32H7xx_HAL_Driver/Src/stm32h7xx_hal_pcd_ex.c **** #endif /* USE_HAL_PCD_REGISTER_CALLBACKS */
 228:HAL_Lib/STM32H7xx_HAL_Driver/Src/stm32h7xx_hal_pcd_ex.c ****     }
 229:HAL_Lib/STM32H7xx_HAL_Driver/Src/stm32h7xx_hal_pcd_ex.c ****     else
 230:HAL_Lib/STM32H7xx_HAL_Driver/Src/stm32h7xx_hal_pcd_ex.c ****     {
 231:HAL_Lib/STM32H7xx_HAL_Driver/Src/stm32h7xx_hal_pcd_ex.c ****       /* case Charging Downstream Port  */
 232:HAL_Lib/STM32H7xx_HAL_Driver/Src/stm32h7xx_hal_pcd_ex.c **** #if (USE_HAL_PCD_REGISTER_CALLBACKS == 1U)
 233:HAL_Lib/STM32H7xx_HAL_Driver/Src/stm32h7xx_hal_pcd_ex.c ****       hpcd->BCDCallback(hpcd, PCD_BCD_CHARGING_DOWNSTREAM_PORT);
 234:HAL_Lib/STM32H7xx_HAL_Driver/Src/stm32h7xx_hal_pcd_ex.c **** #else
 235:HAL_Lib/STM32H7xx_HAL_Driver/Src/stm32h7xx_hal_pcd_ex.c ****       HAL_PCDEx_BCD_Callback(hpcd, PCD_BCD_CHARGING_DOWNSTREAM_PORT);
 236:HAL_Lib/STM32H7xx_HAL_Driver/Src/stm32h7xx_hal_pcd_ex.c **** #endif /* USE_HAL_PCD_REGISTER_CALLBACKS */
 237:HAL_Lib/STM32H7xx_HAL_Driver/Src/stm32h7xx_hal_pcd_ex.c ****     }
 238:HAL_Lib/STM32H7xx_HAL_Driver/Src/stm32h7xx_hal_pcd_ex.c ****   }
ARM GAS  C:\Users\huav\AppData\Local\Temp\cclSeZk7.s 			page 10


 239:HAL_Lib/STM32H7xx_HAL_Driver/Src/stm32h7xx_hal_pcd_ex.c **** 
 240:HAL_Lib/STM32H7xx_HAL_Driver/Src/stm32h7xx_hal_pcd_ex.c ****   /* Battery Charging capability discovery finished */
 241:HAL_Lib/STM32H7xx_HAL_Driver/Src/stm32h7xx_hal_pcd_ex.c ****   (void)HAL_PCDEx_DeActivateBCD(hpcd);
 242:HAL_Lib/STM32H7xx_HAL_Driver/Src/stm32h7xx_hal_pcd_ex.c **** 
 243:HAL_Lib/STM32H7xx_HAL_Driver/Src/stm32h7xx_hal_pcd_ex.c **** #if (USE_HAL_PCD_REGISTER_CALLBACKS == 1U)
 244:HAL_Lib/STM32H7xx_HAL_Driver/Src/stm32h7xx_hal_pcd_ex.c ****   hpcd->BCDCallback(hpcd, PCD_BCD_DISCOVERY_COMPLETED);
 245:HAL_Lib/STM32H7xx_HAL_Driver/Src/stm32h7xx_hal_pcd_ex.c **** #else
 246:HAL_Lib/STM32H7xx_HAL_Driver/Src/stm32h7xx_hal_pcd_ex.c ****   HAL_PCDEx_BCD_Callback(hpcd, PCD_BCD_DISCOVERY_COMPLETED);
 247:HAL_Lib/STM32H7xx_HAL_Driver/Src/stm32h7xx_hal_pcd_ex.c **** #endif /* USE_HAL_PCD_REGISTER_CALLBACKS */
 248:HAL_Lib/STM32H7xx_HAL_Driver/Src/stm32h7xx_hal_pcd_ex.c **** }
 249:HAL_Lib/STM32H7xx_HAL_Driver/Src/stm32h7xx_hal_pcd_ex.c **** 
 250:HAL_Lib/STM32H7xx_HAL_Driver/Src/stm32h7xx_hal_pcd_ex.c **** /**
 251:HAL_Lib/STM32H7xx_HAL_Driver/Src/stm32h7xx_hal_pcd_ex.c ****   * @brief  Activate BatteryCharging feature.
 252:HAL_Lib/STM32H7xx_HAL_Driver/Src/stm32h7xx_hal_pcd_ex.c ****   * @param  hpcd PCD handle
 253:HAL_Lib/STM32H7xx_HAL_Driver/Src/stm32h7xx_hal_pcd_ex.c ****   * @retval HAL status
 254:HAL_Lib/STM32H7xx_HAL_Driver/Src/stm32h7xx_hal_pcd_ex.c ****   */
 255:HAL_Lib/STM32H7xx_HAL_Driver/Src/stm32h7xx_hal_pcd_ex.c **** HAL_StatusTypeDef HAL_PCDEx_ActivateBCD(PCD_HandleTypeDef *hpcd)
 256:HAL_Lib/STM32H7xx_HAL_Driver/Src/stm32h7xx_hal_pcd_ex.c **** {
 267              		.loc 1 256 1 is_stmt 1 view -0
 268              		.cfi_startproc
 269              		@ args = 0, pretend = 0, frame = 0
 270              		@ frame_needed = 0, uses_anonymous_args = 0
 271              		@ link register save eliminated.
 257:HAL_Lib/STM32H7xx_HAL_Driver/Src/stm32h7xx_hal_pcd_ex.c ****   USB_OTG_GlobalTypeDef *USBx = hpcd->Instance;
 272              		.loc 1 257 3 view .LVU71
 273              		.loc 1 257 26 is_stmt 0 view .LVU72
 274 0000 0368     		ldr	r3, [r0]
 275              	.LVL22:
 258:HAL_Lib/STM32H7xx_HAL_Driver/Src/stm32h7xx_hal_pcd_ex.c **** 
 259:HAL_Lib/STM32H7xx_HAL_Driver/Src/stm32h7xx_hal_pcd_ex.c ****   USBx->GCCFG &= ~(USB_OTG_GCCFG_PDEN);
 276              		.loc 1 259 3 is_stmt 1 view .LVU73
 277              		.loc 1 259 15 is_stmt 0 view .LVU74
 278 0002 9A6B     		ldr	r2, [r3, #56]
 279 0004 22F40022 		bic	r2, r2, #524288
 280 0008 9A63     		str	r2, [r3, #56]
 260:HAL_Lib/STM32H7xx_HAL_Driver/Src/stm32h7xx_hal_pcd_ex.c ****   USBx->GCCFG &= ~(USB_OTG_GCCFG_SDEN);
 281              		.loc 1 260 3 is_stmt 1 view .LVU75
 282              		.loc 1 260 15 is_stmt 0 view .LVU76
 283 000a 9A6B     		ldr	r2, [r3, #56]
 284 000c 22F48012 		bic	r2, r2, #1048576
 285 0010 9A63     		str	r2, [r3, #56]
 261:HAL_Lib/STM32H7xx_HAL_Driver/Src/stm32h7xx_hal_pcd_ex.c **** 
 262:HAL_Lib/STM32H7xx_HAL_Driver/Src/stm32h7xx_hal_pcd_ex.c ****   /* Power Down USB transceiver  */
 263:HAL_Lib/STM32H7xx_HAL_Driver/Src/stm32h7xx_hal_pcd_ex.c ****   USBx->GCCFG &= ~(USB_OTG_GCCFG_PWRDWN);
 286              		.loc 1 263 3 is_stmt 1 view .LVU77
 287              		.loc 1 263 15 is_stmt 0 view .LVU78
 288 0012 9A6B     		ldr	r2, [r3, #56]
 289 0014 22F48032 		bic	r2, r2, #65536
 290 0018 9A63     		str	r2, [r3, #56]
 264:HAL_Lib/STM32H7xx_HAL_Driver/Src/stm32h7xx_hal_pcd_ex.c **** 
 265:HAL_Lib/STM32H7xx_HAL_Driver/Src/stm32h7xx_hal_pcd_ex.c ****   /* Enable Battery charging */
 266:HAL_Lib/STM32H7xx_HAL_Driver/Src/stm32h7xx_hal_pcd_ex.c ****   USBx->GCCFG |= USB_OTG_GCCFG_BCDEN;
 291              		.loc 1 266 3 is_stmt 1 view .LVU79
 292              		.loc 1 266 15 is_stmt 0 view .LVU80
 293 001a 9A6B     		ldr	r2, [r3, #56]
 294 001c 42F40032 		orr	r2, r2, #131072
 295 0020 9A63     		str	r2, [r3, #56]
ARM GAS  C:\Users\huav\AppData\Local\Temp\cclSeZk7.s 			page 11


 267:HAL_Lib/STM32H7xx_HAL_Driver/Src/stm32h7xx_hal_pcd_ex.c **** 
 268:HAL_Lib/STM32H7xx_HAL_Driver/Src/stm32h7xx_hal_pcd_ex.c ****   hpcd->battery_charging_active = 1U;
 296              		.loc 1 268 3 is_stmt 1 view .LVU81
 297              		.loc 1 268 33 is_stmt 0 view .LVU82
 298 0022 0123     		movs	r3, #1
 299              	.LVL23:
 300              		.loc 1 268 33 view .LVU83
 301 0024 C0F80034 		str	r3, [r0, #1024]
 269:HAL_Lib/STM32H7xx_HAL_Driver/Src/stm32h7xx_hal_pcd_ex.c **** 
 270:HAL_Lib/STM32H7xx_HAL_Driver/Src/stm32h7xx_hal_pcd_ex.c ****   return HAL_OK;
 302              		.loc 1 270 3 is_stmt 1 view .LVU84
 271:HAL_Lib/STM32H7xx_HAL_Driver/Src/stm32h7xx_hal_pcd_ex.c **** }
 303              		.loc 1 271 1 is_stmt 0 view .LVU85
 304 0028 0020     		movs	r0, #0
 305              	.LVL24:
 306              		.loc 1 271 1 view .LVU86
 307 002a 7047     		bx	lr
 308              		.cfi_endproc
 309              	.LFE149:
 311              		.section	.text.HAL_PCDEx_DeActivateBCD,"ax",%progbits
 312              		.align	1
 313              		.global	HAL_PCDEx_DeActivateBCD
 314              		.syntax unified
 315              		.thumb
 316              		.thumb_func
 317              		.fpu fpv5-d16
 319              	HAL_PCDEx_DeActivateBCD:
 320              	.LVL25:
 321              	.LFB150:
 272:HAL_Lib/STM32H7xx_HAL_Driver/Src/stm32h7xx_hal_pcd_ex.c **** 
 273:HAL_Lib/STM32H7xx_HAL_Driver/Src/stm32h7xx_hal_pcd_ex.c **** /**
 274:HAL_Lib/STM32H7xx_HAL_Driver/Src/stm32h7xx_hal_pcd_ex.c ****   * @brief  Deactivate BatteryCharging feature.
 275:HAL_Lib/STM32H7xx_HAL_Driver/Src/stm32h7xx_hal_pcd_ex.c ****   * @param  hpcd PCD handle
 276:HAL_Lib/STM32H7xx_HAL_Driver/Src/stm32h7xx_hal_pcd_ex.c ****   * @retval HAL status
 277:HAL_Lib/STM32H7xx_HAL_Driver/Src/stm32h7xx_hal_pcd_ex.c ****   */
 278:HAL_Lib/STM32H7xx_HAL_Driver/Src/stm32h7xx_hal_pcd_ex.c **** HAL_StatusTypeDef HAL_PCDEx_DeActivateBCD(PCD_HandleTypeDef *hpcd)
 279:HAL_Lib/STM32H7xx_HAL_Driver/Src/stm32h7xx_hal_pcd_ex.c **** {
 322              		.loc 1 279 1 is_stmt 1 view -0
 323              		.cfi_startproc
 324              		@ args = 0, pretend = 0, frame = 0
 325              		@ frame_needed = 0, uses_anonymous_args = 0
 326              		@ link register save eliminated.
 327              		.loc 1 279 1 is_stmt 0 view .LVU88
 328 0000 0246     		mov	r2, r0
 280:HAL_Lib/STM32H7xx_HAL_Driver/Src/stm32h7xx_hal_pcd_ex.c ****   USB_OTG_GlobalTypeDef *USBx = hpcd->Instance;
 329              		.loc 1 280 3 is_stmt 1 view .LVU89
 330              		.loc 1 280 26 is_stmt 0 view .LVU90
 331 0002 0368     		ldr	r3, [r0]
 332              	.LVL26:
 281:HAL_Lib/STM32H7xx_HAL_Driver/Src/stm32h7xx_hal_pcd_ex.c **** 
 282:HAL_Lib/STM32H7xx_HAL_Driver/Src/stm32h7xx_hal_pcd_ex.c ****   USBx->GCCFG &= ~(USB_OTG_GCCFG_SDEN);
 333              		.loc 1 282 3 is_stmt 1 view .LVU91
 334              		.loc 1 282 15 is_stmt 0 view .LVU92
 335 0004 996B     		ldr	r1, [r3, #56]
 336 0006 21F48011 		bic	r1, r1, #1048576
 337 000a 9963     		str	r1, [r3, #56]
 283:HAL_Lib/STM32H7xx_HAL_Driver/Src/stm32h7xx_hal_pcd_ex.c ****   USBx->GCCFG &= ~(USB_OTG_GCCFG_PDEN);
ARM GAS  C:\Users\huav\AppData\Local\Temp\cclSeZk7.s 			page 12


 338              		.loc 1 283 3 is_stmt 1 view .LVU93
 339              		.loc 1 283 15 is_stmt 0 view .LVU94
 340 000c 996B     		ldr	r1, [r3, #56]
 341 000e 21F40021 		bic	r1, r1, #524288
 342 0012 9963     		str	r1, [r3, #56]
 284:HAL_Lib/STM32H7xx_HAL_Driver/Src/stm32h7xx_hal_pcd_ex.c **** 
 285:HAL_Lib/STM32H7xx_HAL_Driver/Src/stm32h7xx_hal_pcd_ex.c ****   /* Disable Battery charging */
 286:HAL_Lib/STM32H7xx_HAL_Driver/Src/stm32h7xx_hal_pcd_ex.c ****   USBx->GCCFG &= ~(USB_OTG_GCCFG_BCDEN);
 343              		.loc 1 286 3 is_stmt 1 view .LVU95
 344              		.loc 1 286 15 is_stmt 0 view .LVU96
 345 0014 996B     		ldr	r1, [r3, #56]
 346 0016 21F40031 		bic	r1, r1, #131072
 347 001a 9963     		str	r1, [r3, #56]
 287:HAL_Lib/STM32H7xx_HAL_Driver/Src/stm32h7xx_hal_pcd_ex.c **** 
 288:HAL_Lib/STM32H7xx_HAL_Driver/Src/stm32h7xx_hal_pcd_ex.c ****   hpcd->battery_charging_active = 0U;
 348              		.loc 1 288 3 is_stmt 1 view .LVU97
 349              		.loc 1 288 33 is_stmt 0 view .LVU98
 350 001c 0020     		movs	r0, #0
 351              	.LVL27:
 352              		.loc 1 288 33 view .LVU99
 353 001e C2F80004 		str	r0, [r2, #1024]
 289:HAL_Lib/STM32H7xx_HAL_Driver/Src/stm32h7xx_hal_pcd_ex.c **** 
 290:HAL_Lib/STM32H7xx_HAL_Driver/Src/stm32h7xx_hal_pcd_ex.c ****   return HAL_OK;
 354              		.loc 1 290 3 is_stmt 1 view .LVU100
 291:HAL_Lib/STM32H7xx_HAL_Driver/Src/stm32h7xx_hal_pcd_ex.c **** }
 355              		.loc 1 291 1 is_stmt 0 view .LVU101
 356 0022 7047     		bx	lr
 357              		.cfi_endproc
 358              	.LFE150:
 360              		.section	.text.HAL_PCDEx_LPM_Callback,"ax",%progbits
 361              		.align	1
 362              		.weak	HAL_PCDEx_LPM_Callback
 363              		.syntax unified
 364              		.thumb
 365              		.thumb_func
 366              		.fpu fpv5-d16
 368              	HAL_PCDEx_LPM_Callback:
 369              	.LVL28:
 370              	.LFB151:
 292:HAL_Lib/STM32H7xx_HAL_Driver/Src/stm32h7xx_hal_pcd_ex.c **** 
 293:HAL_Lib/STM32H7xx_HAL_Driver/Src/stm32h7xx_hal_pcd_ex.c **** #endif /* defined (USB_OTG_FS) || defined (USB_OTG_HS) */
 294:HAL_Lib/STM32H7xx_HAL_Driver/Src/stm32h7xx_hal_pcd_ex.c **** 
 295:HAL_Lib/STM32H7xx_HAL_Driver/Src/stm32h7xx_hal_pcd_ex.c **** /**
 296:HAL_Lib/STM32H7xx_HAL_Driver/Src/stm32h7xx_hal_pcd_ex.c ****   * @brief  Send LPM message to user layer callback.
 297:HAL_Lib/STM32H7xx_HAL_Driver/Src/stm32h7xx_hal_pcd_ex.c ****   * @param  hpcd PCD handle
 298:HAL_Lib/STM32H7xx_HAL_Driver/Src/stm32h7xx_hal_pcd_ex.c ****   * @param  msg LPM message
 299:HAL_Lib/STM32H7xx_HAL_Driver/Src/stm32h7xx_hal_pcd_ex.c ****   * @retval HAL status
 300:HAL_Lib/STM32H7xx_HAL_Driver/Src/stm32h7xx_hal_pcd_ex.c ****   */
 301:HAL_Lib/STM32H7xx_HAL_Driver/Src/stm32h7xx_hal_pcd_ex.c **** __weak void HAL_PCDEx_LPM_Callback(PCD_HandleTypeDef *hpcd, PCD_LPM_MsgTypeDef msg)
 302:HAL_Lib/STM32H7xx_HAL_Driver/Src/stm32h7xx_hal_pcd_ex.c **** {
 371              		.loc 1 302 1 is_stmt 1 view -0
 372              		.cfi_startproc
 373              		@ args = 0, pretend = 0, frame = 0
 374              		@ frame_needed = 0, uses_anonymous_args = 0
 375              		@ link register save eliminated.
 303:HAL_Lib/STM32H7xx_HAL_Driver/Src/stm32h7xx_hal_pcd_ex.c ****   /* Prevent unused argument(s) compilation warning */
 304:HAL_Lib/STM32H7xx_HAL_Driver/Src/stm32h7xx_hal_pcd_ex.c ****   UNUSED(hpcd);
ARM GAS  C:\Users\huav\AppData\Local\Temp\cclSeZk7.s 			page 13


 376              		.loc 1 304 3 view .LVU103
 305:HAL_Lib/STM32H7xx_HAL_Driver/Src/stm32h7xx_hal_pcd_ex.c ****   UNUSED(msg);
 377              		.loc 1 305 3 view .LVU104
 306:HAL_Lib/STM32H7xx_HAL_Driver/Src/stm32h7xx_hal_pcd_ex.c **** 
 307:HAL_Lib/STM32H7xx_HAL_Driver/Src/stm32h7xx_hal_pcd_ex.c ****   /* NOTE : This function should not be modified, when the callback is needed,
 308:HAL_Lib/STM32H7xx_HAL_Driver/Src/stm32h7xx_hal_pcd_ex.c ****             the HAL_PCDEx_LPM_Callback could be implemented in the user file
 309:HAL_Lib/STM32H7xx_HAL_Driver/Src/stm32h7xx_hal_pcd_ex.c ****    */
 310:HAL_Lib/STM32H7xx_HAL_Driver/Src/stm32h7xx_hal_pcd_ex.c **** }
 378              		.loc 1 310 1 is_stmt 0 view .LVU105
 379 0000 7047     		bx	lr
 380              		.cfi_endproc
 381              	.LFE151:
 383              		.section	.text.HAL_PCDEx_BCD_Callback,"ax",%progbits
 384              		.align	1
 385              		.weak	HAL_PCDEx_BCD_Callback
 386              		.syntax unified
 387              		.thumb
 388              		.thumb_func
 389              		.fpu fpv5-d16
 391              	HAL_PCDEx_BCD_Callback:
 392              	.LVL29:
 393              	.LFB152:
 311:HAL_Lib/STM32H7xx_HAL_Driver/Src/stm32h7xx_hal_pcd_ex.c **** 
 312:HAL_Lib/STM32H7xx_HAL_Driver/Src/stm32h7xx_hal_pcd_ex.c **** /**
 313:HAL_Lib/STM32H7xx_HAL_Driver/Src/stm32h7xx_hal_pcd_ex.c ****   * @brief  Send BatteryCharging message to user layer callback.
 314:HAL_Lib/STM32H7xx_HAL_Driver/Src/stm32h7xx_hal_pcd_ex.c ****   * @param  hpcd PCD handle
 315:HAL_Lib/STM32H7xx_HAL_Driver/Src/stm32h7xx_hal_pcd_ex.c ****   * @param  msg LPM message
 316:HAL_Lib/STM32H7xx_HAL_Driver/Src/stm32h7xx_hal_pcd_ex.c ****   * @retval HAL status
 317:HAL_Lib/STM32H7xx_HAL_Driver/Src/stm32h7xx_hal_pcd_ex.c ****   */
 318:HAL_Lib/STM32H7xx_HAL_Driver/Src/stm32h7xx_hal_pcd_ex.c **** __weak void HAL_PCDEx_BCD_Callback(PCD_HandleTypeDef *hpcd, PCD_BCD_MsgTypeDef msg)
 319:HAL_Lib/STM32H7xx_HAL_Driver/Src/stm32h7xx_hal_pcd_ex.c **** {
 394              		.loc 1 319 1 is_stmt 1 view -0
 395              		.cfi_startproc
 396              		@ args = 0, pretend = 0, frame = 0
 397              		@ frame_needed = 0, uses_anonymous_args = 0
 398              		@ link register save eliminated.
 320:HAL_Lib/STM32H7xx_HAL_Driver/Src/stm32h7xx_hal_pcd_ex.c ****   /* Prevent unused argument(s) compilation warning */
 321:HAL_Lib/STM32H7xx_HAL_Driver/Src/stm32h7xx_hal_pcd_ex.c ****   UNUSED(hpcd);
 399              		.loc 1 321 3 view .LVU107
 322:HAL_Lib/STM32H7xx_HAL_Driver/Src/stm32h7xx_hal_pcd_ex.c ****   UNUSED(msg);
 400              		.loc 1 322 3 view .LVU108
 323:HAL_Lib/STM32H7xx_HAL_Driver/Src/stm32h7xx_hal_pcd_ex.c **** 
 324:HAL_Lib/STM32H7xx_HAL_Driver/Src/stm32h7xx_hal_pcd_ex.c ****   /* NOTE : This function should not be modified, when the callback is needed,
 325:HAL_Lib/STM32H7xx_HAL_Driver/Src/stm32h7xx_hal_pcd_ex.c ****             the HAL_PCDEx_BCD_Callback could be implemented in the user file
 326:HAL_Lib/STM32H7xx_HAL_Driver/Src/stm32h7xx_hal_pcd_ex.c ****    */
 327:HAL_Lib/STM32H7xx_HAL_Driver/Src/stm32h7xx_hal_pcd_ex.c **** }
 401              		.loc 1 327 1 is_stmt 0 view .LVU109
 402 0000 7047     		bx	lr
 403              		.cfi_endproc
 404              	.LFE152:
 406              		.section	.text.HAL_PCDEx_BCD_VBUSDetect,"ax",%progbits
 407              		.align	1
 408              		.global	HAL_PCDEx_BCD_VBUSDetect
 409              		.syntax unified
 410              		.thumb
 411              		.thumb_func
 412              		.fpu fpv5-d16
ARM GAS  C:\Users\huav\AppData\Local\Temp\cclSeZk7.s 			page 14


 414              	HAL_PCDEx_BCD_VBUSDetect:
 415              	.LVL30:
 416              	.LFB148:
 159:HAL_Lib/STM32H7xx_HAL_Driver/Src/stm32h7xx_hal_pcd_ex.c ****   USB_OTG_GlobalTypeDef *USBx = hpcd->Instance;
 417              		.loc 1 159 1 is_stmt 1 view -0
 418              		.cfi_startproc
 419              		@ args = 0, pretend = 0, frame = 0
 420              		@ frame_needed = 0, uses_anonymous_args = 0
 159:HAL_Lib/STM32H7xx_HAL_Driver/Src/stm32h7xx_hal_pcd_ex.c ****   USB_OTG_GlobalTypeDef *USBx = hpcd->Instance;
 421              		.loc 1 159 1 is_stmt 0 view .LVU111
 422 0000 70B5     		push	{r4, r5, r6, lr}
 423              	.LCFI3:
 424              		.cfi_def_cfa_offset 16
 425              		.cfi_offset 4, -16
 426              		.cfi_offset 5, -12
 427              		.cfi_offset 6, -8
 428              		.cfi_offset 14, -4
 429 0002 0646     		mov	r6, r0
 160:HAL_Lib/STM32H7xx_HAL_Driver/Src/stm32h7xx_hal_pcd_ex.c ****   uint32_t tickstart = HAL_GetTick();
 430              		.loc 1 160 3 is_stmt 1 view .LVU112
 160:HAL_Lib/STM32H7xx_HAL_Driver/Src/stm32h7xx_hal_pcd_ex.c ****   uint32_t tickstart = HAL_GetTick();
 431              		.loc 1 160 26 is_stmt 0 view .LVU113
 432 0004 0468     		ldr	r4, [r0]
 433              	.LVL31:
 161:HAL_Lib/STM32H7xx_HAL_Driver/Src/stm32h7xx_hal_pcd_ex.c **** 
 434              		.loc 1 161 3 is_stmt 1 view .LVU114
 161:HAL_Lib/STM32H7xx_HAL_Driver/Src/stm32h7xx_hal_pcd_ex.c **** 
 435              		.loc 1 161 24 is_stmt 0 view .LVU115
 436 0006 FFF7FEFF 		bl	HAL_GetTick
 437              	.LVL32:
 161:HAL_Lib/STM32H7xx_HAL_Driver/Src/stm32h7xx_hal_pcd_ex.c **** 
 438              		.loc 1 161 24 view .LVU116
 439 000a 0546     		mov	r5, r0
 440              	.LVL33:
 164:HAL_Lib/STM32H7xx_HAL_Driver/Src/stm32h7xx_hal_pcd_ex.c **** 
 441              		.loc 1 164 3 is_stmt 1 view .LVU117
 164:HAL_Lib/STM32H7xx_HAL_Driver/Src/stm32h7xx_hal_pcd_ex.c **** 
 442              		.loc 1 164 15 is_stmt 0 view .LVU118
 443 000c A36B     		ldr	r3, [r4, #56]
 444 000e 43F48023 		orr	r3, r3, #262144
 445 0012 A363     		str	r3, [r4, #56]
 167:HAL_Lib/STM32H7xx_HAL_Driver/Src/stm32h7xx_hal_pcd_ex.c ****   {
 446              		.loc 1 167 3 is_stmt 1 view .LVU119
 447              	.LVL34:
 448              	.L19:
 167:HAL_Lib/STM32H7xx_HAL_Driver/Src/stm32h7xx_hal_pcd_ex.c ****   {
 449              		.loc 1 167 9 view .LVU120
 167:HAL_Lib/STM32H7xx_HAL_Driver/Src/stm32h7xx_hal_pcd_ex.c ****   {
 450              		.loc 1 167 15 is_stmt 0 view .LVU121
 451 0014 A36B     		ldr	r3, [r4, #56]
 167:HAL_Lib/STM32H7xx_HAL_Driver/Src/stm32h7xx_hal_pcd_ex.c ****   {
 452              		.loc 1 167 9 view .LVU122
 453 0016 13F0010F 		tst	r3, #1
 454 001a 0AD1     		bne	.L27
 170:HAL_Lib/STM32H7xx_HAL_Driver/Src/stm32h7xx_hal_pcd_ex.c ****     {
 455              		.loc 1 170 5 is_stmt 1 view .LVU123
 170:HAL_Lib/STM32H7xx_HAL_Driver/Src/stm32h7xx_hal_pcd_ex.c ****     {
ARM GAS  C:\Users\huav\AppData\Local\Temp\cclSeZk7.s 			page 15


 456              		.loc 1 170 10 is_stmt 0 view .LVU124
 457 001c FFF7FEFF 		bl	HAL_GetTick
 458              	.LVL35:
 170:HAL_Lib/STM32H7xx_HAL_Driver/Src/stm32h7xx_hal_pcd_ex.c ****     {
 459              		.loc 1 170 24 view .LVU125
 460 0020 401B     		subs	r0, r0, r5
 170:HAL_Lib/STM32H7xx_HAL_Driver/Src/stm32h7xx_hal_pcd_ex.c ****     {
 461              		.loc 1 170 8 view .LVU126
 462 0022 B0F57A7F 		cmp	r0, #1000
 463 0026 F5D9     		bls	.L19
 175:HAL_Lib/STM32H7xx_HAL_Driver/Src/stm32h7xx_hal_pcd_ex.c **** #endif /* USE_HAL_PCD_REGISTER_CALLBACKS */
 464              		.loc 1 175 7 is_stmt 1 view .LVU127
 465 0028 FF21     		movs	r1, #255
 466 002a 3046     		mov	r0, r6
 467 002c FFF7FEFF 		bl	HAL_PCDEx_BCD_Callback
 468              	.LVL36:
 178:HAL_Lib/STM32H7xx_HAL_Driver/Src/stm32h7xx_hal_pcd_ex.c ****     }
 469              		.loc 1 178 7 view .LVU128
 470 0030 23E0     		b	.L18
 471              	.L27:
 183:HAL_Lib/STM32H7xx_HAL_Driver/Src/stm32h7xx_hal_pcd_ex.c **** 
 472              		.loc 1 183 3 view .LVU129
 473 0032 C820     		movs	r0, #200
 474 0034 FFF7FEFF 		bl	HAL_Delay
 475              	.LVL37:
 186:HAL_Lib/STM32H7xx_HAL_Driver/Src/stm32h7xx_hal_pcd_ex.c ****   {
 476              		.loc 1 186 3 view .LVU130
 186:HAL_Lib/STM32H7xx_HAL_Driver/Src/stm32h7xx_hal_pcd_ex.c ****   {
 477              		.loc 1 186 12 is_stmt 0 view .LVU131
 478 0038 A36B     		ldr	r3, [r4, #56]
 186:HAL_Lib/STM32H7xx_HAL_Driver/Src/stm32h7xx_hal_pcd_ex.c ****   {
 479              		.loc 1 186 6 view .LVU132
 480 003a 13F0010F 		tst	r3, #1
 481 003e 1DD1     		bne	.L28
 482              	.L22:
 197:HAL_Lib/STM32H7xx_HAL_Driver/Src/stm32h7xx_hal_pcd_ex.c ****   HAL_Delay(50U);
 483              		.loc 1 197 3 is_stmt 1 view .LVU133
 197:HAL_Lib/STM32H7xx_HAL_Driver/Src/stm32h7xx_hal_pcd_ex.c ****   HAL_Delay(50U);
 484              		.loc 1 197 15 is_stmt 0 view .LVU134
 485 0040 A36B     		ldr	r3, [r4, #56]
 486 0042 23F48023 		bic	r3, r3, #262144
 487 0046 A363     		str	r3, [r4, #56]
 198:HAL_Lib/STM32H7xx_HAL_Driver/Src/stm32h7xx_hal_pcd_ex.c ****   USBx->GCCFG |=  USB_OTG_GCCFG_PDEN;
 488              		.loc 1 198 3 is_stmt 1 view .LVU135
 489 0048 3220     		movs	r0, #50
 490 004a FFF7FEFF 		bl	HAL_Delay
 491              	.LVL38:
 199:HAL_Lib/STM32H7xx_HAL_Driver/Src/stm32h7xx_hal_pcd_ex.c ****   HAL_Delay(50U);
 492              		.loc 1 199 3 view .LVU136
 199:HAL_Lib/STM32H7xx_HAL_Driver/Src/stm32h7xx_hal_pcd_ex.c ****   HAL_Delay(50U);
 493              		.loc 1 199 15 is_stmt 0 view .LVU137
 494 004e A36B     		ldr	r3, [r4, #56]
 495 0050 43F40023 		orr	r3, r3, #524288
 496 0054 A363     		str	r3, [r4, #56]
 200:HAL_Lib/STM32H7xx_HAL_Driver/Src/stm32h7xx_hal_pcd_ex.c **** 
 497              		.loc 1 200 3 is_stmt 1 view .LVU138
 498 0056 3220     		movs	r0, #50
ARM GAS  C:\Users\huav\AppData\Local\Temp\cclSeZk7.s 			page 16


 499 0058 FFF7FEFF 		bl	HAL_Delay
 500              	.LVL39:
 202:HAL_Lib/STM32H7xx_HAL_Driver/Src/stm32h7xx_hal_pcd_ex.c ****   {
 501              		.loc 1 202 3 view .LVU139
 202:HAL_Lib/STM32H7xx_HAL_Driver/Src/stm32h7xx_hal_pcd_ex.c ****   {
 502              		.loc 1 202 12 is_stmt 0 view .LVU140
 503 005c A36B     		ldr	r3, [r4, #56]
 202:HAL_Lib/STM32H7xx_HAL_Driver/Src/stm32h7xx_hal_pcd_ex.c ****   {
 504              		.loc 1 202 6 view .LVU141
 505 005e 13F0020F 		tst	r3, #2
 506 0062 10D1     		bne	.L23
 208:HAL_Lib/STM32H7xx_HAL_Driver/Src/stm32h7xx_hal_pcd_ex.c **** #endif /* USE_HAL_PCD_REGISTER_CALLBACKS */
 507              		.loc 1 208 5 is_stmt 1 view .LVU142
 508 0064 FD21     		movs	r1, #253
 509 0066 3046     		mov	r0, r6
 510 0068 FFF7FEFF 		bl	HAL_PCDEx_BCD_Callback
 511              	.LVL40:
 512              	.L24:
 241:HAL_Lib/STM32H7xx_HAL_Driver/Src/stm32h7xx_hal_pcd_ex.c **** 
 513              		.loc 1 241 3 view .LVU143
 241:HAL_Lib/STM32H7xx_HAL_Driver/Src/stm32h7xx_hal_pcd_ex.c **** 
 514              		.loc 1 241 9 is_stmt 0 view .LVU144
 515 006c 3046     		mov	r0, r6
 516 006e FFF7FEFF 		bl	HAL_PCDEx_DeActivateBCD
 517              	.LVL41:
 246:HAL_Lib/STM32H7xx_HAL_Driver/Src/stm32h7xx_hal_pcd_ex.c **** #endif /* USE_HAL_PCD_REGISTER_CALLBACKS */
 518              		.loc 1 246 3 is_stmt 1 view .LVU145
 519 0072 0021     		movs	r1, #0
 520 0074 3046     		mov	r0, r6
 521 0076 FFF7FEFF 		bl	HAL_PCDEx_BCD_Callback
 522              	.LVL42:
 523              	.L18:
 248:HAL_Lib/STM32H7xx_HAL_Driver/Src/stm32h7xx_hal_pcd_ex.c **** 
 524              		.loc 1 248 1 is_stmt 0 view .LVU146
 525 007a 70BD     		pop	{r4, r5, r6, pc}
 526              	.LVL43:
 527              	.L28:
 191:HAL_Lib/STM32H7xx_HAL_Driver/Src/stm32h7xx_hal_pcd_ex.c **** #endif /* USE_HAL_PCD_REGISTER_CALLBACKS */
 528              		.loc 1 191 5 is_stmt 1 view .LVU147
 529 007c FE21     		movs	r1, #254
 530 007e 3046     		mov	r0, r6
 531 0080 FFF7FEFF 		bl	HAL_PCDEx_BCD_Callback
 532              	.LVL44:
 533 0084 DCE7     		b	.L22
 534              	.L23:
 215:HAL_Lib/STM32H7xx_HAL_Driver/Src/stm32h7xx_hal_pcd_ex.c ****     HAL_Delay(50U);
 535              		.loc 1 215 5 view .LVU148
 215:HAL_Lib/STM32H7xx_HAL_Driver/Src/stm32h7xx_hal_pcd_ex.c ****     HAL_Delay(50U);
 536              		.loc 1 215 17 is_stmt 0 view .LVU149
 537 0086 A36B     		ldr	r3, [r4, #56]
 538 0088 23F40023 		bic	r3, r3, #524288
 539 008c A363     		str	r3, [r4, #56]
 216:HAL_Lib/STM32H7xx_HAL_Driver/Src/stm32h7xx_hal_pcd_ex.c ****     USBx->GCCFG |=  USB_OTG_GCCFG_SDEN;
 540              		.loc 1 216 5 is_stmt 1 view .LVU150
 541 008e 3220     		movs	r0, #50
 542 0090 FFF7FEFF 		bl	HAL_Delay
 543              	.LVL45:
ARM GAS  C:\Users\huav\AppData\Local\Temp\cclSeZk7.s 			page 17


 217:HAL_Lib/STM32H7xx_HAL_Driver/Src/stm32h7xx_hal_pcd_ex.c ****     HAL_Delay(50U);
 544              		.loc 1 217 5 view .LVU151
 217:HAL_Lib/STM32H7xx_HAL_Driver/Src/stm32h7xx_hal_pcd_ex.c ****     HAL_Delay(50U);
 545              		.loc 1 217 17 is_stmt 0 view .LVU152
 546 0094 A36B     		ldr	r3, [r4, #56]
 547 0096 43F48013 		orr	r3, r3, #1048576
 548 009a A363     		str	r3, [r4, #56]
 218:HAL_Lib/STM32H7xx_HAL_Driver/Src/stm32h7xx_hal_pcd_ex.c **** 
 549              		.loc 1 218 5 is_stmt 1 view .LVU153
 550 009c 3220     		movs	r0, #50
 551 009e FFF7FEFF 		bl	HAL_Delay
 552              	.LVL46:
 220:HAL_Lib/STM32H7xx_HAL_Driver/Src/stm32h7xx_hal_pcd_ex.c ****     {
 553              		.loc 1 220 5 view .LVU154
 220:HAL_Lib/STM32H7xx_HAL_Driver/Src/stm32h7xx_hal_pcd_ex.c ****     {
 554              		.loc 1 220 14 is_stmt 0 view .LVU155
 555 00a2 A36B     		ldr	r3, [r4, #56]
 220:HAL_Lib/STM32H7xx_HAL_Driver/Src/stm32h7xx_hal_pcd_ex.c ****     {
 556              		.loc 1 220 8 view .LVU156
 557 00a4 13F0040F 		tst	r3, #4
 558 00a8 04D0     		beq	.L25
 226:HAL_Lib/STM32H7xx_HAL_Driver/Src/stm32h7xx_hal_pcd_ex.c **** #endif /* USE_HAL_PCD_REGISTER_CALLBACKS */
 559              		.loc 1 226 7 is_stmt 1 view .LVU157
 560 00aa FB21     		movs	r1, #251
 561 00ac 3046     		mov	r0, r6
 562 00ae FFF7FEFF 		bl	HAL_PCDEx_BCD_Callback
 563              	.LVL47:
 564 00b2 DBE7     		b	.L24
 565              	.L25:
 235:HAL_Lib/STM32H7xx_HAL_Driver/Src/stm32h7xx_hal_pcd_ex.c **** #endif /* USE_HAL_PCD_REGISTER_CALLBACKS */
 566              		.loc 1 235 7 view .LVU158
 567 00b4 FC21     		movs	r1, #252
 568 00b6 3046     		mov	r0, r6
 569 00b8 FFF7FEFF 		bl	HAL_PCDEx_BCD_Callback
 570              	.LVL48:
 571 00bc D6E7     		b	.L24
 572              		.cfi_endproc
 573              	.LFE148:
 575              		.text
 576              	.Letext0:
 577              		.file 2 "c:\\program files (x86)\\gnu arm embedded toolchain\\10 2020-q4-major\\arm-none-eabi\\inc
 578              		.file 3 "c:\\program files (x86)\\gnu arm embedded toolchain\\10 2020-q4-major\\arm-none-eabi\\inc
 579              		.file 4 "HAL_Lib/CMSIS/Device/ST/STM32H7xx/Include/stm32h743xx.h"
 580              		.file 5 "HAL_Lib/STM32H7xx_HAL_Driver/Inc/stm32h7xx_hal_def.h"
 581              		.file 6 "HAL_Lib/STM32H7xx_HAL_Driver/Inc/stm32h7xx_ll_usb.h"
 582              		.file 7 "HAL_Lib/STM32H7xx_HAL_Driver/Inc/stm32h7xx_hal_pcd.h"
 583              		.file 8 "HAL_Lib/STM32H7xx_HAL_Driver/Inc/stm32h7xx_hal.h"
ARM GAS  C:\Users\huav\AppData\Local\Temp\cclSeZk7.s 			page 18

