ARM GAS  C:\Users\huav\AppData\Local\Temp\ccAdXOYH.s 			page 1


   1              		.cpu cortex-m7
   2              		.eabi_attribute 28, 1
   3              		.eabi_attribute 20, 1
   4              		.eabi_attribute 21, 1
   5              		.eabi_attribute 23, 3
   6              		.eabi_attribute 24, 1
   7              		.eabi_attribute 25, 1
   8              		.eabi_attribute 26, 1
   9              		.eabi_attribute 30, 1
  10              		.eabi_attribute 34, 1
  11              		.eabi_attribute 18, 4
  12              		.file	"stm32h7xx_it.c"
  13              		.text
  14              	.Ltext0:
  15              		.cfi_sections	.debug_frame
  16              		.section	.text.NMI_Handler,"ax",%progbits
  17              		.align	1
  18              		.global	NMI_Handler
  19              		.arch armv7e-m
  20              		.syntax unified
  21              		.thumb
  22              		.thumb_func
  23              		.fpu fpv5-d16
  25              	NMI_Handler:
  26              	.LFB336:
  27              		.file 1 "HAL_Lib/Core/Src/stm32h7xx_it.c"
   1:HAL_Lib/Core/Src/stm32h7xx_it.c **** #include "stm32h7xx_it.h"
   2:HAL_Lib/Core/Src/stm32h7xx_it.c **** #include "kernel.h"
   3:HAL_Lib/Core/Src/stm32h7xx_it.c **** #include "runtime.h"
   4:HAL_Lib/Core/Src/stm32h7xx_it.c **** #include "scheduler.h"
   5:HAL_Lib/Core/Src/stm32h7xx_it.c **** #include "stm32h7xx_hal_gpio.h"
   6:HAL_Lib/Core/Src/stm32h7xx_it.c **** 
   7:HAL_Lib/Core/Src/stm32h7xx_it.c **** extern PCD_HandleTypeDef hpcd_USB_OTG_FS;
   8:HAL_Lib/Core/Src/stm32h7xx_it.c **** 
   9:HAL_Lib/Core/Src/stm32h7xx_it.c **** void NMI_Handler(void)
  10:HAL_Lib/Core/Src/stm32h7xx_it.c **** {
  28              		.loc 1 10 1 view -0
  29              		.cfi_startproc
  30              		@ Volatile: function does not return.
  31              		@ args = 0, pretend = 0, frame = 0
  32              		@ frame_needed = 0, uses_anonymous_args = 0
  33              		@ link register save eliminated.
  34              	.L2:
  11:HAL_Lib/Core/Src/stm32h7xx_it.c ****   while (1)
  35              		.loc 1 11 3 discriminator 1 view .LVU1
  12:HAL_Lib/Core/Src/stm32h7xx_it.c ****   {
  13:HAL_Lib/Core/Src/stm32h7xx_it.c ****   }
  36              		.loc 1 13 3 discriminator 1 view .LVU2
  11:HAL_Lib/Core/Src/stm32h7xx_it.c ****   while (1)
  37              		.loc 1 11 9 discriminator 1 view .LVU3
  38 0000 FEE7     		b	.L2
  39              		.cfi_endproc
  40              	.LFE336:
  42              		.section	.text.HardFault_Handler,"ax",%progbits
  43              		.align	1
  44              		.global	HardFault_Handler
  45              		.syntax unified
ARM GAS  C:\Users\huav\AppData\Local\Temp\ccAdXOYH.s 			page 2


  46              		.thumb
  47              		.thumb_func
  48              		.fpu fpv5-d16
  50              	HardFault_Handler:
  51              	.LFB337:
  14:HAL_Lib/Core/Src/stm32h7xx_it.c **** }
  15:HAL_Lib/Core/Src/stm32h7xx_it.c **** 
  16:HAL_Lib/Core/Src/stm32h7xx_it.c **** void HardFault_Handler(void)
  17:HAL_Lib/Core/Src/stm32h7xx_it.c **** {
  52              		.loc 1 17 1 view -0
  53              		.cfi_startproc
  54              		@ Volatile: function does not return.
  55              		@ args = 0, pretend = 0, frame = 0
  56              		@ frame_needed = 0, uses_anonymous_args = 0
  57              		@ link register save eliminated.
  58              	.L4:
  18:HAL_Lib/Core/Src/stm32h7xx_it.c ****   while (1)
  59              		.loc 1 18 3 discriminator 1 view .LVU5
  19:HAL_Lib/Core/Src/stm32h7xx_it.c ****   {
  20:HAL_Lib/Core/Src/stm32h7xx_it.c ****   }
  60              		.loc 1 20 3 discriminator 1 view .LVU6
  18:HAL_Lib/Core/Src/stm32h7xx_it.c ****   while (1)
  61              		.loc 1 18 9 discriminator 1 view .LVU7
  62 0000 FEE7     		b	.L4
  63              		.cfi_endproc
  64              	.LFE337:
  66              		.section	.text.MemManage_Handler,"ax",%progbits
  67              		.align	1
  68              		.global	MemManage_Handler
  69              		.syntax unified
  70              		.thumb
  71              		.thumb_func
  72              		.fpu fpv5-d16
  74              	MemManage_Handler:
  75              	.LFB338:
  21:HAL_Lib/Core/Src/stm32h7xx_it.c **** }
  22:HAL_Lib/Core/Src/stm32h7xx_it.c **** 
  23:HAL_Lib/Core/Src/stm32h7xx_it.c **** void MemManage_Handler(void)
  24:HAL_Lib/Core/Src/stm32h7xx_it.c **** {
  76              		.loc 1 24 1 view -0
  77              		.cfi_startproc
  78              		@ Volatile: function does not return.
  79              		@ args = 0, pretend = 0, frame = 0
  80              		@ frame_needed = 0, uses_anonymous_args = 0
  81              		@ link register save eliminated.
  82              	.L6:
  25:HAL_Lib/Core/Src/stm32h7xx_it.c ****   while (1)
  83              		.loc 1 25 3 discriminator 1 view .LVU9
  26:HAL_Lib/Core/Src/stm32h7xx_it.c ****   {
  27:HAL_Lib/Core/Src/stm32h7xx_it.c ****   }
  84              		.loc 1 27 3 discriminator 1 view .LVU10
  25:HAL_Lib/Core/Src/stm32h7xx_it.c ****   while (1)
  85              		.loc 1 25 9 discriminator 1 view .LVU11
  86 0000 FEE7     		b	.L6
  87              		.cfi_endproc
  88              	.LFE338:
  90              		.section	.text.BusFault_Handler,"ax",%progbits
ARM GAS  C:\Users\huav\AppData\Local\Temp\ccAdXOYH.s 			page 3


  91              		.align	1
  92              		.global	BusFault_Handler
  93              		.syntax unified
  94              		.thumb
  95              		.thumb_func
  96              		.fpu fpv5-d16
  98              	BusFault_Handler:
  99              	.LFB339:
  28:HAL_Lib/Core/Src/stm32h7xx_it.c **** }
  29:HAL_Lib/Core/Src/stm32h7xx_it.c **** 
  30:HAL_Lib/Core/Src/stm32h7xx_it.c **** void BusFault_Handler(void)
  31:HAL_Lib/Core/Src/stm32h7xx_it.c **** {
 100              		.loc 1 31 1 view -0
 101              		.cfi_startproc
 102              		@ Volatile: function does not return.
 103              		@ args = 0, pretend = 0, frame = 0
 104              		@ frame_needed = 0, uses_anonymous_args = 0
 105              		@ link register save eliminated.
 106              	.L8:
  32:HAL_Lib/Core/Src/stm32h7xx_it.c ****   while (1)
 107              		.loc 1 32 3 discriminator 1 view .LVU13
  33:HAL_Lib/Core/Src/stm32h7xx_it.c ****   {
  34:HAL_Lib/Core/Src/stm32h7xx_it.c ****   }
 108              		.loc 1 34 3 discriminator 1 view .LVU14
  32:HAL_Lib/Core/Src/stm32h7xx_it.c ****   while (1)
 109              		.loc 1 32 9 discriminator 1 view .LVU15
 110 0000 FEE7     		b	.L8
 111              		.cfi_endproc
 112              	.LFE339:
 114              		.section	.text.UsageFault_Handler,"ax",%progbits
 115              		.align	1
 116              		.global	UsageFault_Handler
 117              		.syntax unified
 118              		.thumb
 119              		.thumb_func
 120              		.fpu fpv5-d16
 122              	UsageFault_Handler:
 123              	.LFB340:
  35:HAL_Lib/Core/Src/stm32h7xx_it.c **** }
  36:HAL_Lib/Core/Src/stm32h7xx_it.c **** 
  37:HAL_Lib/Core/Src/stm32h7xx_it.c **** void UsageFault_Handler(void)
  38:HAL_Lib/Core/Src/stm32h7xx_it.c **** {
 124              		.loc 1 38 1 view -0
 125              		.cfi_startproc
 126              		@ Volatile: function does not return.
 127              		@ args = 0, pretend = 0, frame = 0
 128              		@ frame_needed = 0, uses_anonymous_args = 0
 129              		@ link register save eliminated.
 130              	.L10:
  39:HAL_Lib/Core/Src/stm32h7xx_it.c ****   while (1)
 131              		.loc 1 39 3 discriminator 1 view .LVU17
  40:HAL_Lib/Core/Src/stm32h7xx_it.c ****   {
  41:HAL_Lib/Core/Src/stm32h7xx_it.c ****   }
 132              		.loc 1 41 3 discriminator 1 view .LVU18
  39:HAL_Lib/Core/Src/stm32h7xx_it.c ****   while (1)
 133              		.loc 1 39 9 discriminator 1 view .LVU19
 134 0000 FEE7     		b	.L10
ARM GAS  C:\Users\huav\AppData\Local\Temp\ccAdXOYH.s 			page 4


 135              		.cfi_endproc
 136              	.LFE340:
 138              		.section	.text.SVC_Handler,"ax",%progbits
 139              		.align	1
 140              		.global	SVC_Handler
 141              		.syntax unified
 142              		.thumb
 143              		.thumb_func
 144              		.fpu fpv5-d16
 146              	SVC_Handler:
 147              	.LFB341:
  42:HAL_Lib/Core/Src/stm32h7xx_it.c **** }
  43:HAL_Lib/Core/Src/stm32h7xx_it.c **** 
  44:HAL_Lib/Core/Src/stm32h7xx_it.c **** void SVC_Handler(void)
  45:HAL_Lib/Core/Src/stm32h7xx_it.c **** {
 148              		.loc 1 45 1 view -0
 149              		.cfi_startproc
 150              		@ args = 0, pretend = 0, frame = 0
 151              		@ frame_needed = 0, uses_anonymous_args = 0
 152 0000 08B5     		push	{r3, lr}
 153              	.LCFI0:
 154              		.cfi_def_cfa_offset 8
 155              		.cfi_offset 3, -8
 156              		.cfi_offset 14, -4
  46:HAL_Lib/Core/Src/stm32h7xx_it.c ****   Os_LoadFirstTask();
 157              		.loc 1 46 3 view .LVU21
 158 0002 FFF7FEFF 		bl	Os_LoadFirstTask
 159              	.LVL0:
  47:HAL_Lib/Core/Src/stm32h7xx_it.c **** }
 160              		.loc 1 47 1 is_stmt 0 view .LVU22
 161 0006 08BD     		pop	{r3, pc}
 162              		.cfi_endproc
 163              	.LFE341:
 165              		.section	.text.DebugMon_Handler,"ax",%progbits
 166              		.align	1
 167              		.global	DebugMon_Handler
 168              		.syntax unified
 169              		.thumb
 170              		.thumb_func
 171              		.fpu fpv5-d16
 173              	DebugMon_Handler:
 174              	.LFB342:
  48:HAL_Lib/Core/Src/stm32h7xx_it.c **** 
  49:HAL_Lib/Core/Src/stm32h7xx_it.c **** void DebugMon_Handler(void)
  50:HAL_Lib/Core/Src/stm32h7xx_it.c **** {
 175              		.loc 1 50 1 is_stmt 1 view -0
 176              		.cfi_startproc
 177              		@ args = 0, pretend = 0, frame = 0
 178              		@ frame_needed = 0, uses_anonymous_args = 0
 179              		@ link register save eliminated.
  51:HAL_Lib/Core/Src/stm32h7xx_it.c **** }
 180              		.loc 1 51 1 view .LVU24
 181 0000 7047     		bx	lr
 182              		.cfi_endproc
 183              	.LFE342:
 185              		.section	.text.PendSV_Handler,"ax",%progbits
 186              		.align	1
ARM GAS  C:\Users\huav\AppData\Local\Temp\ccAdXOYH.s 			page 5


 187              		.global	PendSV_Handler
 188              		.syntax unified
 189              		.thumb
 190              		.thumb_func
 191              		.fpu fpv5-d16
 193              	PendSV_Handler:
 194              	.LFB343:
  52:HAL_Lib/Core/Src/stm32h7xx_it.c **** 
  53:HAL_Lib/Core/Src/stm32h7xx_it.c **** void PendSV_Handler(void)
  54:HAL_Lib/Core/Src/stm32h7xx_it.c **** {
 195              		.loc 1 54 1 view -0
 196              		.cfi_startproc
 197              		@ args = 0, pretend = 0, frame = 0
 198              		@ frame_needed = 0, uses_anonymous_args = 0
 199 0000 08B5     		push	{r3, lr}
 200              	.LCFI1:
 201              		.cfi_def_cfa_offset 8
 202              		.cfi_offset 3, -8
 203              		.cfi_offset 14, -4
  55:HAL_Lib/Core/Src/stm32h7xx_it.c ****   Os_SwitchContext();
 204              		.loc 1 55 3 view .LVU26
 205 0002 FFF7FEFF 		bl	Os_SwitchContext
 206              	.LVL1:
  56:HAL_Lib/Core/Src/stm32h7xx_it.c **** }
 207              		.loc 1 56 1 is_stmt 0 view .LVU27
 208 0006 08BD     		pop	{r3, pc}
 209              		.cfi_endproc
 210              	.LFE343:
 212              		.section	.text.SysTick_Handler,"ax",%progbits
 213              		.align	1
 214              		.global	SysTick_Handler
 215              		.syntax unified
 216              		.thumb
 217              		.thumb_func
 218              		.fpu fpv5-d16
 220              	SysTick_Handler:
 221              	.LFB344:
  57:HAL_Lib/Core/Src/stm32h7xx_it.c **** 
  58:HAL_Lib/Core/Src/stm32h7xx_it.c **** void SysTick_Handler(void)
  59:HAL_Lib/Core/Src/stm32h7xx_it.c **** {
 222              		.loc 1 59 1 is_stmt 1 view -0
 223              		.cfi_startproc
 224              		@ args = 0, pretend = 0, frame = 0
 225              		@ frame_needed = 0, uses_anonymous_args = 0
 226 0000 08B5     		push	{r3, lr}
 227              	.LCFI2:
 228              		.cfi_def_cfa_offset 8
 229              		.cfi_offset 3, -8
 230              		.cfi_offset 14, -4
  60:HAL_Lib/Core/Src/stm32h7xx_it.c ****   static uint32_t time_base = 0;
 231              		.loc 1 60 3 view .LVU29
  61:HAL_Lib/Core/Src/stm32h7xx_it.c **** 
  62:HAL_Lib/Core/Src/stm32h7xx_it.c ****   /* Os relay on */
  63:HAL_Lib/Core/Src/stm32h7xx_it.c ****   Runtime_Tick();
 232              		.loc 1 63 3 view .LVU30
 233 0002 FFF7FEFF 		bl	Runtime_Tick
 234              	.LVL2:
ARM GAS  C:\Users\huav\AppData\Local\Temp\ccAdXOYH.s 			page 6


  64:HAL_Lib/Core/Src/stm32h7xx_it.c **** 
  65:HAL_Lib/Core/Src/stm32h7xx_it.c ****   /* periph relay on */
  66:HAL_Lib/Core/Src/stm32h7xx_it.c ****   if (time_base / REAL_1MS)
 235              		.loc 1 66 3 view .LVU31
 236              		.loc 1 66 7 is_stmt 0 view .LVU32
 237 0006 094B     		ldr	r3, .L20
 238 0008 1B68     		ldr	r3, [r3]
 239              		.loc 1 66 6 view .LVU33
 240 000a B3F57A7F 		cmp	r3, #1000
 241 000e 05D3     		bcc	.L17
  67:HAL_Lib/Core/Src/stm32h7xx_it.c ****   {
  68:HAL_Lib/Core/Src/stm32h7xx_it.c ****     time_base = 0;
 242              		.loc 1 68 5 is_stmt 1 view .LVU34
 243              		.loc 1 68 15 is_stmt 0 view .LVU35
 244 0010 064B     		ldr	r3, .L20
 245 0012 0022     		movs	r2, #0
 246 0014 1A60     		str	r2, [r3]
  69:HAL_Lib/Core/Src/stm32h7xx_it.c ****     HAL_IncTick();
 247              		.loc 1 69 5 is_stmt 1 view .LVU36
 248 0016 FFF7FEFF 		bl	HAL_IncTick
 249              	.LVL3:
 250              	.L16:
  70:HAL_Lib/Core/Src/stm32h7xx_it.c ****   }
  71:HAL_Lib/Core/Src/stm32h7xx_it.c ****   else
  72:HAL_Lib/Core/Src/stm32h7xx_it.c ****   {
  73:HAL_Lib/Core/Src/stm32h7xx_it.c ****     time_base += Runtime_GetTickBase();
  74:HAL_Lib/Core/Src/stm32h7xx_it.c ****   }
  75:HAL_Lib/Core/Src/stm32h7xx_it.c **** }
 251              		.loc 1 75 1 is_stmt 0 view .LVU37
 252 001a 08BD     		pop	{r3, pc}
 253              	.L17:
  73:HAL_Lib/Core/Src/stm32h7xx_it.c ****   }
 254              		.loc 1 73 5 is_stmt 1 view .LVU38
  73:HAL_Lib/Core/Src/stm32h7xx_it.c ****   }
 255              		.loc 1 73 18 is_stmt 0 view .LVU39
 256 001c FFF7FEFF 		bl	Runtime_GetTickBase
 257              	.LVL4:
  73:HAL_Lib/Core/Src/stm32h7xx_it.c ****   }
 258              		.loc 1 73 15 view .LVU40
 259 0020 024A     		ldr	r2, .L20
 260 0022 1368     		ldr	r3, [r2]
 261 0024 0344     		add	r3, r3, r0
 262 0026 1360     		str	r3, [r2]
 263              		.loc 1 75 1 view .LVU41
 264 0028 F7E7     		b	.L16
 265              	.L21:
 266 002a 00BF     		.align	2
 267              	.L20:
 268 002c 00000000 		.word	.LANCHOR0
 269              		.cfi_endproc
 270              	.LFE344:
 272              		.section	.text.OTG_FS_IRQHandler,"ax",%progbits
 273              		.align	1
 274              		.global	OTG_FS_IRQHandler
 275              		.syntax unified
 276              		.thumb
 277              		.thumb_func
ARM GAS  C:\Users\huav\AppData\Local\Temp\ccAdXOYH.s 			page 7


 278              		.fpu fpv5-d16
 280              	OTG_FS_IRQHandler:
 281              	.LFB345:
  76:HAL_Lib/Core/Src/stm32h7xx_it.c **** 
  77:HAL_Lib/Core/Src/stm32h7xx_it.c **** void OTG_FS_IRQHandler(void)
  78:HAL_Lib/Core/Src/stm32h7xx_it.c **** {
 282              		.loc 1 78 1 is_stmt 1 view -0
 283              		.cfi_startproc
 284              		@ args = 0, pretend = 0, frame = 0
 285              		@ frame_needed = 0, uses_anonymous_args = 0
 286 0000 08B5     		push	{r3, lr}
 287              	.LCFI3:
 288              		.cfi_def_cfa_offset 8
 289              		.cfi_offset 3, -8
 290              		.cfi_offset 14, -4
  79:HAL_Lib/Core/Src/stm32h7xx_it.c ****   HAL_PCD_IRQHandler(&hpcd_USB_OTG_FS);
 291              		.loc 1 79 3 view .LVU43
 292 0002 0248     		ldr	r0, .L24
 293 0004 FFF7FEFF 		bl	HAL_PCD_IRQHandler
 294              	.LVL5:
  80:HAL_Lib/Core/Src/stm32h7xx_it.c **** }
 295              		.loc 1 80 1 is_stmt 0 view .LVU44
 296 0008 08BD     		pop	{r3, pc}
 297              	.L25:
 298 000a 00BF     		.align	2
 299              	.L24:
 300 000c 00000000 		.word	hpcd_USB_OTG_FS
 301              		.cfi_endproc
 302              	.LFE345:
 304              		.section	.text.EXTI0_IRQHandler,"ax",%progbits
 305              		.align	1
 306              		.global	EXTI0_IRQHandler
 307              		.syntax unified
 308              		.thumb
 309              		.thumb_func
 310              		.fpu fpv5-d16
 312              	EXTI0_IRQHandler:
 313              	.LFB346:
  81:HAL_Lib/Core/Src/stm32h7xx_it.c **** 
  82:HAL_Lib/Core/Src/stm32h7xx_it.c **** void EXTI0_IRQHandler(void)
  83:HAL_Lib/Core/Src/stm32h7xx_it.c **** {
 314              		.loc 1 83 1 is_stmt 1 view -0
 315              		.cfi_startproc
 316              		@ args = 0, pretend = 0, frame = 0
 317              		@ frame_needed = 0, uses_anonymous_args = 0
 318 0000 08B5     		push	{r3, lr}
 319              	.LCFI4:
 320              		.cfi_def_cfa_offset 8
 321              		.cfi_offset 3, -8
 322              		.cfi_offset 14, -4
  84:HAL_Lib/Core/Src/stm32h7xx_it.c ****   HAL_GPIO_EXTI_IRQHandler(GPIO_PIN_0);
 323              		.loc 1 84 3 view .LVU46
 324 0002 0120     		movs	r0, #1
 325 0004 FFF7FEFF 		bl	HAL_GPIO_EXTI_IRQHandler
 326              	.LVL6:
  85:HAL_Lib/Core/Src/stm32h7xx_it.c **** }
 327              		.loc 1 85 1 is_stmt 0 view .LVU47
ARM GAS  C:\Users\huav\AppData\Local\Temp\ccAdXOYH.s 			page 8


 328 0008 08BD     		pop	{r3, pc}
 329              		.cfi_endproc
 330              	.LFE346:
 332              		.section	.text.EXTI1_IRQHandler,"ax",%progbits
 333              		.align	1
 334              		.global	EXTI1_IRQHandler
 335              		.syntax unified
 336              		.thumb
 337              		.thumb_func
 338              		.fpu fpv5-d16
 340              	EXTI1_IRQHandler:
 341              	.LFB347:
  86:HAL_Lib/Core/Src/stm32h7xx_it.c **** 
  87:HAL_Lib/Core/Src/stm32h7xx_it.c **** void EXTI1_IRQHandler(void)
  88:HAL_Lib/Core/Src/stm32h7xx_it.c **** {
 342              		.loc 1 88 1 is_stmt 1 view -0
 343              		.cfi_startproc
 344              		@ args = 0, pretend = 0, frame = 0
 345              		@ frame_needed = 0, uses_anonymous_args = 0
 346 0000 08B5     		push	{r3, lr}
 347              	.LCFI5:
 348              		.cfi_def_cfa_offset 8
 349              		.cfi_offset 3, -8
 350              		.cfi_offset 14, -4
  89:HAL_Lib/Core/Src/stm32h7xx_it.c ****   HAL_GPIO_EXTI_IRQHandler(GPIO_PIN_1);
 351              		.loc 1 89 3 view .LVU49
 352 0002 0220     		movs	r0, #2
 353 0004 FFF7FEFF 		bl	HAL_GPIO_EXTI_IRQHandler
 354              	.LVL7:
  90:HAL_Lib/Core/Src/stm32h7xx_it.c **** }
 355              		.loc 1 90 1 is_stmt 0 view .LVU50
 356 0008 08BD     		pop	{r3, pc}
 357              		.cfi_endproc
 358              	.LFE347:
 360              		.section	.text.EXTI2_IRQHandler,"ax",%progbits
 361              		.align	1
 362              		.global	EXTI2_IRQHandler
 363              		.syntax unified
 364              		.thumb
 365              		.thumb_func
 366              		.fpu fpv5-d16
 368              	EXTI2_IRQHandler:
 369              	.LFB348:
  91:HAL_Lib/Core/Src/stm32h7xx_it.c **** 
  92:HAL_Lib/Core/Src/stm32h7xx_it.c **** void EXTI2_IRQHandler(void)
  93:HAL_Lib/Core/Src/stm32h7xx_it.c **** {
 370              		.loc 1 93 1 is_stmt 1 view -0
 371              		.cfi_startproc
 372              		@ args = 0, pretend = 0, frame = 0
 373              		@ frame_needed = 0, uses_anonymous_args = 0
 374 0000 08B5     		push	{r3, lr}
 375              	.LCFI6:
 376              		.cfi_def_cfa_offset 8
 377              		.cfi_offset 3, -8
 378              		.cfi_offset 14, -4
  94:HAL_Lib/Core/Src/stm32h7xx_it.c ****   HAL_GPIO_EXTI_IRQHandler(GPIO_PIN_2);
 379              		.loc 1 94 3 view .LVU52
ARM GAS  C:\Users\huav\AppData\Local\Temp\ccAdXOYH.s 			page 9


 380 0002 0420     		movs	r0, #4
 381 0004 FFF7FEFF 		bl	HAL_GPIO_EXTI_IRQHandler
 382              	.LVL8:
  95:HAL_Lib/Core/Src/stm32h7xx_it.c **** }
 383              		.loc 1 95 1 is_stmt 0 view .LVU53
 384 0008 08BD     		pop	{r3, pc}
 385              		.cfi_endproc
 386              	.LFE348:
 388              		.section	.text.EXTI3_IRQHandler,"ax",%progbits
 389              		.align	1
 390              		.global	EXTI3_IRQHandler
 391              		.syntax unified
 392              		.thumb
 393              		.thumb_func
 394              		.fpu fpv5-d16
 396              	EXTI3_IRQHandler:
 397              	.LFB349:
  96:HAL_Lib/Core/Src/stm32h7xx_it.c **** 
  97:HAL_Lib/Core/Src/stm32h7xx_it.c **** void EXTI3_IRQHandler(void)
  98:HAL_Lib/Core/Src/stm32h7xx_it.c **** {
 398              		.loc 1 98 1 is_stmt 1 view -0
 399              		.cfi_startproc
 400              		@ args = 0, pretend = 0, frame = 0
 401              		@ frame_needed = 0, uses_anonymous_args = 0
 402 0000 08B5     		push	{r3, lr}
 403              	.LCFI7:
 404              		.cfi_def_cfa_offset 8
 405              		.cfi_offset 3, -8
 406              		.cfi_offset 14, -4
  99:HAL_Lib/Core/Src/stm32h7xx_it.c ****   HAL_GPIO_EXTI_IRQHandler(GPIO_PIN_3);
 407              		.loc 1 99 3 view .LVU55
 408 0002 0820     		movs	r0, #8
 409 0004 FFF7FEFF 		bl	HAL_GPIO_EXTI_IRQHandler
 410              	.LVL9:
 100:HAL_Lib/Core/Src/stm32h7xx_it.c **** }
 411              		.loc 1 100 1 is_stmt 0 view .LVU56
 412 0008 08BD     		pop	{r3, pc}
 413              		.cfi_endproc
 414              	.LFE349:
 416              		.section	.text.EXTI4_IRQHandler,"ax",%progbits
 417              		.align	1
 418              		.global	EXTI4_IRQHandler
 419              		.syntax unified
 420              		.thumb
 421              		.thumb_func
 422              		.fpu fpv5-d16
 424              	EXTI4_IRQHandler:
 425              	.LFB350:
 101:HAL_Lib/Core/Src/stm32h7xx_it.c **** 
 102:HAL_Lib/Core/Src/stm32h7xx_it.c **** void EXTI4_IRQHandler(void)
 103:HAL_Lib/Core/Src/stm32h7xx_it.c **** {
 426              		.loc 1 103 1 is_stmt 1 view -0
 427              		.cfi_startproc
 428              		@ args = 0, pretend = 0, frame = 0
 429              		@ frame_needed = 0, uses_anonymous_args = 0
 430 0000 08B5     		push	{r3, lr}
 431              	.LCFI8:
ARM GAS  C:\Users\huav\AppData\Local\Temp\ccAdXOYH.s 			page 10


 432              		.cfi_def_cfa_offset 8
 433              		.cfi_offset 3, -8
 434              		.cfi_offset 14, -4
 104:HAL_Lib/Core/Src/stm32h7xx_it.c ****   HAL_GPIO_EXTI_IRQHandler(GPIO_PIN_4);
 435              		.loc 1 104 3 view .LVU58
 436 0002 1020     		movs	r0, #16
 437 0004 FFF7FEFF 		bl	HAL_GPIO_EXTI_IRQHandler
 438              	.LVL10:
 105:HAL_Lib/Core/Src/stm32h7xx_it.c **** }
 439              		.loc 1 105 1 is_stmt 0 view .LVU59
 440 0008 08BD     		pop	{r3, pc}
 441              		.cfi_endproc
 442              	.LFE350:
 444              		.section	.text.EXTI9_5_IRQHandler,"ax",%progbits
 445              		.align	1
 446              		.global	EXTI9_5_IRQHandler
 447              		.syntax unified
 448              		.thumb
 449              		.thumb_func
 450              		.fpu fpv5-d16
 452              	EXTI9_5_IRQHandler:
 453              	.LFB351:
 106:HAL_Lib/Core/Src/stm32h7xx_it.c **** 
 107:HAL_Lib/Core/Src/stm32h7xx_it.c **** void EXTI9_5_IRQHandler(void)
 108:HAL_Lib/Core/Src/stm32h7xx_it.c **** {
 454              		.loc 1 108 1 is_stmt 1 view -0
 455              		.cfi_startproc
 456              		@ args = 0, pretend = 0, frame = 0
 457              		@ frame_needed = 0, uses_anonymous_args = 0
 458 0000 08B5     		push	{r3, lr}
 459              	.LCFI9:
 460              		.cfi_def_cfa_offset 8
 461              		.cfi_offset 3, -8
 462              		.cfi_offset 14, -4
 109:HAL_Lib/Core/Src/stm32h7xx_it.c ****   HAL_GPIO_EXTI_IRQHandler(GPIO_PIN_5);
 463              		.loc 1 109 3 view .LVU61
 464 0002 2020     		movs	r0, #32
 465 0004 FFF7FEFF 		bl	HAL_GPIO_EXTI_IRQHandler
 466              	.LVL11:
 110:HAL_Lib/Core/Src/stm32h7xx_it.c ****   HAL_GPIO_EXTI_IRQHandler(GPIO_PIN_6);
 467              		.loc 1 110 3 view .LVU62
 468 0008 4020     		movs	r0, #64
 469 000a FFF7FEFF 		bl	HAL_GPIO_EXTI_IRQHandler
 470              	.LVL12:
 111:HAL_Lib/Core/Src/stm32h7xx_it.c ****   HAL_GPIO_EXTI_IRQHandler(GPIO_PIN_7);
 471              		.loc 1 111 3 view .LVU63
 472 000e 8020     		movs	r0, #128
 473 0010 FFF7FEFF 		bl	HAL_GPIO_EXTI_IRQHandler
 474              	.LVL13:
 112:HAL_Lib/Core/Src/stm32h7xx_it.c ****   HAL_GPIO_EXTI_IRQHandler(GPIO_PIN_8);
 475              		.loc 1 112 3 view .LVU64
 476 0014 4FF48070 		mov	r0, #256
 477 0018 FFF7FEFF 		bl	HAL_GPIO_EXTI_IRQHandler
 478              	.LVL14:
 113:HAL_Lib/Core/Src/stm32h7xx_it.c ****   HAL_GPIO_EXTI_IRQHandler(GPIO_PIN_9);
 479              		.loc 1 113 3 view .LVU65
 480 001c 4FF40070 		mov	r0, #512
ARM GAS  C:\Users\huav\AppData\Local\Temp\ccAdXOYH.s 			page 11


 481 0020 FFF7FEFF 		bl	HAL_GPIO_EXTI_IRQHandler
 482              	.LVL15:
 114:HAL_Lib/Core/Src/stm32h7xx_it.c **** }
 483              		.loc 1 114 1 is_stmt 0 view .LVU66
 484 0024 08BD     		pop	{r3, pc}
 485              		.cfi_endproc
 486              	.LFE351:
 488              		.section	.text.EXTI15_10_IRQHandler,"ax",%progbits
 489              		.align	1
 490              		.global	EXTI15_10_IRQHandler
 491              		.syntax unified
 492              		.thumb
 493              		.thumb_func
 494              		.fpu fpv5-d16
 496              	EXTI15_10_IRQHandler:
 497              	.LFB352:
 115:HAL_Lib/Core/Src/stm32h7xx_it.c **** 
 116:HAL_Lib/Core/Src/stm32h7xx_it.c **** void EXTI15_10_IRQHandler(void)
 117:HAL_Lib/Core/Src/stm32h7xx_it.c **** {
 498              		.loc 1 117 1 is_stmt 1 view -0
 499              		.cfi_startproc
 500              		@ args = 0, pretend = 0, frame = 0
 501              		@ frame_needed = 0, uses_anonymous_args = 0
 502 0000 08B5     		push	{r3, lr}
 503              	.LCFI10:
 504              		.cfi_def_cfa_offset 8
 505              		.cfi_offset 3, -8
 506              		.cfi_offset 14, -4
 118:HAL_Lib/Core/Src/stm32h7xx_it.c ****   HAL_GPIO_EXTI_IRQHandler(GPIO_PIN_10);
 507              		.loc 1 118 3 view .LVU68
 508 0002 4FF48060 		mov	r0, #1024
 509 0006 FFF7FEFF 		bl	HAL_GPIO_EXTI_IRQHandler
 510              	.LVL16:
 119:HAL_Lib/Core/Src/stm32h7xx_it.c ****   HAL_GPIO_EXTI_IRQHandler(GPIO_PIN_11);
 511              		.loc 1 119 3 view .LVU69
 512 000a 4FF40060 		mov	r0, #2048
 513 000e FFF7FEFF 		bl	HAL_GPIO_EXTI_IRQHandler
 514              	.LVL17:
 120:HAL_Lib/Core/Src/stm32h7xx_it.c ****   HAL_GPIO_EXTI_IRQHandler(GPIO_PIN_12);
 515              		.loc 1 120 3 view .LVU70
 516 0012 4FF48050 		mov	r0, #4096
 517 0016 FFF7FEFF 		bl	HAL_GPIO_EXTI_IRQHandler
 518              	.LVL18:
 121:HAL_Lib/Core/Src/stm32h7xx_it.c ****   HAL_GPIO_EXTI_IRQHandler(GPIO_PIN_13);
 519              		.loc 1 121 3 view .LVU71
 520 001a 4FF40050 		mov	r0, #8192
 521 001e FFF7FEFF 		bl	HAL_GPIO_EXTI_IRQHandler
 522              	.LVL19:
 122:HAL_Lib/Core/Src/stm32h7xx_it.c ****   HAL_GPIO_EXTI_IRQHandler(GPIO_PIN_14);
 523              		.loc 1 122 3 view .LVU72
 524 0022 4FF48040 		mov	r0, #16384
 525 0026 FFF7FEFF 		bl	HAL_GPIO_EXTI_IRQHandler
 526              	.LVL20:
 123:HAL_Lib/Core/Src/stm32h7xx_it.c ****   HAL_GPIO_EXTI_IRQHandler(GPIO_PIN_15);
 527              		.loc 1 123 3 view .LVU73
 528 002a 4FF40040 		mov	r0, #32768
 529 002e FFF7FEFF 		bl	HAL_GPIO_EXTI_IRQHandler
ARM GAS  C:\Users\huav\AppData\Local\Temp\ccAdXOYH.s 			page 12


 530              	.LVL21:
 124:HAL_Lib/Core/Src/stm32h7xx_it.c **** }...
 531              		.loc 1 124 1 is_stmt 0 view .LVU74
 532 0032 08BD     		pop	{r3, pc}
 533              		.cfi_endproc
 534              	.LFE352:
 536              		.section	.bss.time_base.0,"aw",%nobits
 537              		.align	2
 538              		.set	.LANCHOR0,. + 0
 541              	time_base.0:
 542 0000 00000000 		.space	4
 543              		.text
 544              	.Letext0:
 545              		.file 2 "c:\\program files (x86)\\gnu arm embedded toolchain\\10 2020-q4-major\\arm-none-eabi\\inc
 546              		.file 3 "c:\\program files (x86)\\gnu arm embedded toolchain\\10 2020-q4-major\\arm-none-eabi\\inc
 547              		.file 4 "HAL_Lib/CMSIS/Device/ST/STM32H7xx/Include/stm32h743xx.h"
 548              		.file 5 "HAL_Lib/STM32H7xx_HAL_Driver/Inc/stm32h7xx_hal_def.h"
 549              		.file 6 "HAL_Lib/STM32H7xx_HAL_Driver/Inc/stm32h7xx_ll_usb.h"
 550              		.file 7 "HAL_Lib/STM32H7xx_HAL_Driver/Inc/stm32h7xx_hal_pcd.h"
 551              		.file 8 "HAL_Lib/STM32H7xx_HAL_Driver/Inc/stm32h7xx_hal_gpio.h"
 552              		.file 9 "System/runtime/runtime.h"
 553              		.file 10 "HAL_Lib/STM32H7xx_HAL_Driver/Inc/stm32h7xx_hal.h"
 554              		.file 11 "System/scheduler/scheduler.h"
ARM GAS  C:\Users\huav\AppData\Local\Temp\ccAdXOYH.s 			page 13


DEFINED SYMBOLS
                            *ABS*:00000000 stm32h7xx_it.c
C:\Users\huav\AppData\Local\Temp\ccAdXOYH.s:17     .text.NMI_Handler:00000000 $t
C:\Users\huav\AppData\Local\Temp\ccAdXOYH.s:25     .text.NMI_Handler:00000000 NMI_Handler
C:\Users\huav\AppData\Local\Temp\ccAdXOYH.s:43     .text.HardFault_Handler:00000000 $t
C:\Users\huav\AppData\Local\Temp\ccAdXOYH.s:50     .text.HardFault_Handler:00000000 HardFault_Handler
C:\Users\huav\AppData\Local\Temp\ccAdXOYH.s:67     .text.MemManage_Handler:00000000 $t
C:\Users\huav\AppData\Local\Temp\ccAdXOYH.s:74     .text.MemManage_Handler:00000000 MemManage_Handler
C:\Users\huav\AppData\Local\Temp\ccAdXOYH.s:91     .text.BusFault_Handler:00000000 $t
C:\Users\huav\AppData\Local\Temp\ccAdXOYH.s:98     .text.BusFault_Handler:00000000 BusFault_Handler
C:\Users\huav\AppData\Local\Temp\ccAdXOYH.s:115    .text.UsageFault_Handler:00000000 $t
C:\Users\huav\AppData\Local\Temp\ccAdXOYH.s:122    .text.UsageFault_Handler:00000000 UsageFault_Handler
C:\Users\huav\AppData\Local\Temp\ccAdXOYH.s:139    .text.SVC_Handler:00000000 $t
C:\Users\huav\AppData\Local\Temp\ccAdXOYH.s:146    .text.SVC_Handler:00000000 SVC_Handler
C:\Users\huav\AppData\Local\Temp\ccAdXOYH.s:166    .text.DebugMon_Handler:00000000 $t
C:\Users\huav\AppData\Local\Temp\ccAdXOYH.s:173    .text.DebugMon_Handler:00000000 DebugMon_Handler
C:\Users\huav\AppData\Local\Temp\ccAdXOYH.s:186    .text.PendSV_Handler:00000000 $t
C:\Users\huav\AppData\Local\Temp\ccAdXOYH.s:193    .text.PendSV_Handler:00000000 PendSV_Handler
C:\Users\huav\AppData\Local\Temp\ccAdXOYH.s:213    .text.SysTick_Handler:00000000 $t
C:\Users\huav\AppData\Local\Temp\ccAdXOYH.s:220    .text.SysTick_Handler:00000000 SysTick_Handler
C:\Users\huav\AppData\Local\Temp\ccAdXOYH.s:268    .text.SysTick_Handler:0000002c $d
C:\Users\huav\AppData\Local\Temp\ccAdXOYH.s:273    .text.OTG_FS_IRQHandler:00000000 $t
C:\Users\huav\AppData\Local\Temp\ccAdXOYH.s:280    .text.OTG_FS_IRQHandler:00000000 OTG_FS_IRQHandler
C:\Users\huav\AppData\Local\Temp\ccAdXOYH.s:300    .text.OTG_FS_IRQHandler:0000000c $d
C:\Users\huav\AppData\Local\Temp\ccAdXOYH.s:305    .text.EXTI0_IRQHandler:00000000 $t
C:\Users\huav\AppData\Local\Temp\ccAdXOYH.s:312    .text.EXTI0_IRQHandler:00000000 EXTI0_IRQHandler
C:\Users\huav\AppData\Local\Temp\ccAdXOYH.s:333    .text.EXTI1_IRQHandler:00000000 $t
C:\Users\huav\AppData\Local\Temp\ccAdXOYH.s:340    .text.EXTI1_IRQHandler:00000000 EXTI1_IRQHandler
C:\Users\huav\AppData\Local\Temp\ccAdXOYH.s:361    .text.EXTI2_IRQHandler:00000000 $t
C:\Users\huav\AppData\Local\Temp\ccAdXOYH.s:368    .text.EXTI2_IRQHandler:00000000 EXTI2_IRQHandler
C:\Users\huav\AppData\Local\Temp\ccAdXOYH.s:389    .text.EXTI3_IRQHandler:00000000 $t
C:\Users\huav\AppData\Local\Temp\ccAdXOYH.s:396    .text.EXTI3_IRQHandler:00000000 EXTI3_IRQHandler
C:\Users\huav\AppData\Local\Temp\ccAdXOYH.s:417    .text.EXTI4_IRQHandler:00000000 $t
C:\Users\huav\AppData\Local\Temp\ccAdXOYH.s:424    .text.EXTI4_IRQHandler:00000000 EXTI4_IRQHandler
C:\Users\huav\AppData\Local\Temp\ccAdXOYH.s:445    .text.EXTI9_5_IRQHandler:00000000 $t
C:\Users\huav\AppData\Local\Temp\ccAdXOYH.s:452    .text.EXTI9_5_IRQHandler:00000000 EXTI9_5_IRQHandler
C:\Users\huav\AppData\Local\Temp\ccAdXOYH.s:489    .text.EXTI15_10_IRQHandler:00000000 $t
C:\Users\huav\AppData\Local\Temp\ccAdXOYH.s:496    .text.EXTI15_10_IRQHandler:00000000 EXTI15_10_IRQHandler
C:\Users\huav\AppData\Local\Temp\ccAdXOYH.s:537    .bss.time_base.0:00000000 $d
C:\Users\huav\AppData\Local\Temp\ccAdXOYH.s:541    .bss.time_base.0:00000000 time_base.0

UNDEFINED SYMBOLS
Os_LoadFirstTask
Os_SwitchContext
Runtime_Tick
HAL_IncTick
Runtime_GetTickBase
HAL_PCD_IRQHandler
hpcd_USB_OTG_FS
HAL_GPIO_EXTI_IRQHandler
