ARM GAS  /var/folders/lx/hc4sn_b53233_zkc9xbbl97r0000gp/T//ccEeCci2.s 			page 1


   1              		.cpu cortex-m7
   2              		.eabi_attribute 28, 1
   3              		.eabi_attribute 20, 1
   4              		.eabi_attribute 21, 1
   5              		.eabi_attribute 23, 3
   6              		.eabi_attribute 24, 1
   7              		.eabi_attribute 25, 1
   8              		.eabi_attribute 26, 1
   9              		.eabi_attribute 30, 1
  10              		.eabi_attribute 34, 1
  11              		.eabi_attribute 18, 4
  12              		.file	"stm32h7xx_it.c"
  13              		.text
  14              	.Ltext0:
  15              		.cfi_sections	.debug_frame
  16              		.section	.text.NMI_Handler,"ax",%progbits
  17              		.align	1
  18              		.global	NMI_Handler
  19              		.arch armv7e-m
  20              		.syntax unified
  21              		.thumb
  22              		.thumb_func
  23              		.fpu fpv5-d16
  25              	NMI_Handler:
  26              	.LFB147:
  27              		.file 1 "HAL_Lib/Core/Src/stm32h7xx_it.c"
   1:HAL_Lib/Core/Src/stm32h7xx_it.c **** #include "stm32h7xx_it.h"
   2:HAL_Lib/Core/Src/stm32h7xx_it.c **** #include "stm32h7xx_hal.h"
   3:HAL_Lib/Core/Src/stm32h7xx_it.c **** #include "kernel.h"
   4:HAL_Lib/Core/Src/stm32h7xx_it.c **** #include "runtime.h"
   5:HAL_Lib/Core/Src/stm32h7xx_it.c **** #include "scheduler.h"
   6:HAL_Lib/Core/Src/stm32h7xx_it.c **** #include "stm32h7xx_hal_gpio.h"
   7:HAL_Lib/Core/Src/stm32h7xx_it.c **** #include "IO_Definition.h"
   8:HAL_Lib/Core/Src/stm32h7xx_it.c **** #include "debug_util.h"
   9:HAL_Lib/Core/Src/stm32h7xx_it.c **** #include "DIskIO.h"
  10:HAL_Lib/Core/Src/stm32h7xx_it.c **** #include "DataPipe.h"
  11:HAL_Lib/Core/Src/stm32h7xx_it.c **** #include "Bsp_DMA.h"
  12:HAL_Lib/Core/Src/stm32h7xx_it.c **** #include "Bsp_Uart.h"
  13:HAL_Lib/Core/Src/stm32h7xx_it.c **** 
  14:HAL_Lib/Core/Src/stm32h7xx_it.c **** extern PCD_HandleTypeDef hpcd_USB_OTG_FS;
  15:HAL_Lib/Core/Src/stm32h7xx_it.c **** extern DevCard_Obj_TypeDef DevTFCard_Obj;
  16:HAL_Lib/Core/Src/stm32h7xx_it.c **** extern DMA_HandleTypeDef DataPipe_DMA;
  17:HAL_Lib/Core/Src/stm32h7xx_it.c **** 
  18:HAL_Lib/Core/Src/stm32h7xx_it.c **** void NMI_Handler(void)
  19:HAL_Lib/Core/Src/stm32h7xx_it.c **** {
  28              		.loc 1 19 1 view -0
  29              		.cfi_startproc
  30              		@ Volatile: function does not return.
  31              		@ args = 0, pretend = 0, frame = 0
  32              		@ frame_needed = 0, uses_anonymous_args = 0
  33              		@ link register save eliminated.
  34              	.L2:
  20:HAL_Lib/Core/Src/stm32h7xx_it.c ****   while (1)
  35              		.loc 1 20 3 discriminator 1 view .LVU1
  21:HAL_Lib/Core/Src/stm32h7xx_it.c ****   {
  22:HAL_Lib/Core/Src/stm32h7xx_it.c ****   }
  36              		.loc 1 22 3 discriminator 1 view .LVU2
ARM GAS  /var/folders/lx/hc4sn_b53233_zkc9xbbl97r0000gp/T//ccEeCci2.s 			page 2


  20:HAL_Lib/Core/Src/stm32h7xx_it.c ****   while (1)
  37              		.loc 1 20 9 discriminator 1 view .LVU3
  38 0000 FEE7     		b	.L2
  39              		.cfi_endproc
  40              	.LFE147:
  42              		.section	.text.HardFault_Handler,"ax",%progbits
  43              		.align	1
  44              		.global	HardFault_Handler
  45              		.syntax unified
  46              		.thumb
  47              		.thumb_func
  48              		.fpu fpv5-d16
  50              	HardFault_Handler:
  51              	.LFB148:
  23:HAL_Lib/Core/Src/stm32h7xx_it.c **** }
  24:HAL_Lib/Core/Src/stm32h7xx_it.c **** 
  25:HAL_Lib/Core/Src/stm32h7xx_it.c **** void HardFault_Handler(void)
  26:HAL_Lib/Core/Src/stm32h7xx_it.c **** {
  52              		.loc 1 26 1 view -0
  53              		.cfi_startproc
  54              		@ Volatile: function does not return.
  55              		@ args = 0, pretend = 0, frame = 0
  56              		@ frame_needed = 0, uses_anonymous_args = 0
  57              		@ link register save eliminated.
  58              	.L4:
  27:HAL_Lib/Core/Src/stm32h7xx_it.c ****   while (1)
  59              		.loc 1 27 3 discriminator 1 view .LVU5
  28:HAL_Lib/Core/Src/stm32h7xx_it.c ****   {
  29:HAL_Lib/Core/Src/stm32h7xx_it.c ****   }
  60              		.loc 1 29 3 discriminator 1 view .LVU6
  27:HAL_Lib/Core/Src/stm32h7xx_it.c ****   while (1)
  61              		.loc 1 27 9 discriminator 1 view .LVU7
  62 0000 FEE7     		b	.L4
  63              		.cfi_endproc
  64              	.LFE148:
  66              		.section	.text.MemManage_Handler,"ax",%progbits
  67              		.align	1
  68              		.global	MemManage_Handler
  69              		.syntax unified
  70              		.thumb
  71              		.thumb_func
  72              		.fpu fpv5-d16
  74              	MemManage_Handler:
  75              	.LFB149:
  30:HAL_Lib/Core/Src/stm32h7xx_it.c **** }
  31:HAL_Lib/Core/Src/stm32h7xx_it.c **** 
  32:HAL_Lib/Core/Src/stm32h7xx_it.c **** void MemManage_Handler(void)
  33:HAL_Lib/Core/Src/stm32h7xx_it.c **** {
  76              		.loc 1 33 1 view -0
  77              		.cfi_startproc
  78              		@ Volatile: function does not return.
  79              		@ args = 0, pretend = 0, frame = 0
  80              		@ frame_needed = 0, uses_anonymous_args = 0
  81              		@ link register save eliminated.
  82              	.L6:
  34:HAL_Lib/Core/Src/stm32h7xx_it.c ****   while (1)
  83              		.loc 1 34 3 discriminator 1 view .LVU9
ARM GAS  /var/folders/lx/hc4sn_b53233_zkc9xbbl97r0000gp/T//ccEeCci2.s 			page 3


  35:HAL_Lib/Core/Src/stm32h7xx_it.c ****   {
  36:HAL_Lib/Core/Src/stm32h7xx_it.c ****   }
  84              		.loc 1 36 3 discriminator 1 view .LVU10
  34:HAL_Lib/Core/Src/stm32h7xx_it.c ****   while (1)
  85              		.loc 1 34 9 discriminator 1 view .LVU11
  86 0000 FEE7     		b	.L6
  87              		.cfi_endproc
  88              	.LFE149:
  90              		.section	.text.BusFault_Handler,"ax",%progbits
  91              		.align	1
  92              		.global	BusFault_Handler
  93              		.syntax unified
  94              		.thumb
  95              		.thumb_func
  96              		.fpu fpv5-d16
  98              	BusFault_Handler:
  99              	.LFB150:
  37:HAL_Lib/Core/Src/stm32h7xx_it.c **** }
  38:HAL_Lib/Core/Src/stm32h7xx_it.c **** 
  39:HAL_Lib/Core/Src/stm32h7xx_it.c **** void BusFault_Handler(void)
  40:HAL_Lib/Core/Src/stm32h7xx_it.c **** {
 100              		.loc 1 40 1 view -0
 101              		.cfi_startproc
 102              		@ Volatile: function does not return.
 103              		@ args = 0, pretend = 0, frame = 0
 104              		@ frame_needed = 0, uses_anonymous_args = 0
 105              		@ link register save eliminated.
 106              	.L8:
  41:HAL_Lib/Core/Src/stm32h7xx_it.c ****   while (1)
 107              		.loc 1 41 3 discriminator 1 view .LVU13
  42:HAL_Lib/Core/Src/stm32h7xx_it.c ****   {
  43:HAL_Lib/Core/Src/stm32h7xx_it.c ****   }
 108              		.loc 1 43 3 discriminator 1 view .LVU14
  41:HAL_Lib/Core/Src/stm32h7xx_it.c ****   while (1)
 109              		.loc 1 41 9 discriminator 1 view .LVU15
 110 0000 FEE7     		b	.L8
 111              		.cfi_endproc
 112              	.LFE150:
 114              		.section	.text.UsageFault_Handler,"ax",%progbits
 115              		.align	1
 116              		.global	UsageFault_Handler
 117              		.syntax unified
 118              		.thumb
 119              		.thumb_func
 120              		.fpu fpv5-d16
 122              	UsageFault_Handler:
 123              	.LFB151:
  44:HAL_Lib/Core/Src/stm32h7xx_it.c **** }
  45:HAL_Lib/Core/Src/stm32h7xx_it.c **** 
  46:HAL_Lib/Core/Src/stm32h7xx_it.c **** void UsageFault_Handler(void)
  47:HAL_Lib/Core/Src/stm32h7xx_it.c **** {
 124              		.loc 1 47 1 view -0
 125              		.cfi_startproc
 126              		@ Volatile: function does not return.
 127              		@ args = 0, pretend = 0, frame = 0
 128              		@ frame_needed = 0, uses_anonymous_args = 0
 129              		@ link register save eliminated.
ARM GAS  /var/folders/lx/hc4sn_b53233_zkc9xbbl97r0000gp/T//ccEeCci2.s 			page 4


 130              	.L10:
  48:HAL_Lib/Core/Src/stm32h7xx_it.c ****   while (1)
 131              		.loc 1 48 3 discriminator 1 view .LVU17
  49:HAL_Lib/Core/Src/stm32h7xx_it.c ****   {
  50:HAL_Lib/Core/Src/stm32h7xx_it.c ****   }
 132              		.loc 1 50 3 discriminator 1 view .LVU18
  48:HAL_Lib/Core/Src/stm32h7xx_it.c ****   while (1)
 133              		.loc 1 48 9 discriminator 1 view .LVU19
 134 0000 FEE7     		b	.L10
 135              		.cfi_endproc
 136              	.LFE151:
 138              		.section	.text.SVC_Handler,"ax",%progbits
 139              		.align	1
 140              		.global	SVC_Handler
 141              		.syntax unified
 142              		.thumb
 143              		.thumb_func
 144              		.fpu fpv5-d16
 146              	SVC_Handler:
 147              	.LFB152:
  51:HAL_Lib/Core/Src/stm32h7xx_it.c **** }
  52:HAL_Lib/Core/Src/stm32h7xx_it.c **** 
  53:HAL_Lib/Core/Src/stm32h7xx_it.c **** void SVC_Handler(void)
  54:HAL_Lib/Core/Src/stm32h7xx_it.c **** {
 148              		.loc 1 54 1 view -0
 149              		.cfi_startproc
 150              		@ args = 0, pretend = 0, frame = 0
 151              		@ frame_needed = 0, uses_anonymous_args = 0
 152 0000 08B5     		push	{r3, lr}
 153              	.LCFI0:
 154              		.cfi_def_cfa_offset 8
 155              		.cfi_offset 3, -8
 156              		.cfi_offset 14, -4
  55:HAL_Lib/Core/Src/stm32h7xx_it.c ****   Runtime_Start();
 157              		.loc 1 55 3 view .LVU21
 158 0002 FFF7FEFF 		bl	Runtime_Start
 159              	.LVL0:
  56:HAL_Lib/Core/Src/stm32h7xx_it.c ****   Os_LoadFirstTask();
 160              		.loc 1 56 3 view .LVU22
 161 0006 FFF7FEFF 		bl	Os_LoadFirstTask
 162              	.LVL1:
  57:HAL_Lib/Core/Src/stm32h7xx_it.c **** }
 163              		.loc 1 57 1 is_stmt 0 view .LVU23
 164 000a 08BD     		pop	{r3, pc}
 165              		.cfi_endproc
 166              	.LFE152:
 168              		.section	.text.DebugMon_Handler,"ax",%progbits
 169              		.align	1
 170              		.global	DebugMon_Handler
 171              		.syntax unified
 172              		.thumb
 173              		.thumb_func
 174              		.fpu fpv5-d16
 176              	DebugMon_Handler:
 177              	.LFB153:
  58:HAL_Lib/Core/Src/stm32h7xx_it.c **** 
  59:HAL_Lib/Core/Src/stm32h7xx_it.c **** void DebugMon_Handler(void)
ARM GAS  /var/folders/lx/hc4sn_b53233_zkc9xbbl97r0000gp/T//ccEeCci2.s 			page 5


  60:HAL_Lib/Core/Src/stm32h7xx_it.c **** {
 178              		.loc 1 60 1 is_stmt 1 view -0
 179              		.cfi_startproc
 180              		@ args = 0, pretend = 0, frame = 0
 181              		@ frame_needed = 0, uses_anonymous_args = 0
 182              		@ link register save eliminated.
  61:HAL_Lib/Core/Src/stm32h7xx_it.c **** }
 183              		.loc 1 61 1 view .LVU25
 184 0000 7047     		bx	lr
 185              		.cfi_endproc
 186              	.LFE153:
 188              		.section	.text.PendSV_Handler,"ax",%progbits
 189              		.align	1
 190              		.global	PendSV_Handler
 191              		.syntax unified
 192              		.thumb
 193              		.thumb_func
 194              		.fpu fpv5-d16
 196              	PendSV_Handler:
 197              	.LFB154:
  62:HAL_Lib/Core/Src/stm32h7xx_it.c **** 
  63:HAL_Lib/Core/Src/stm32h7xx_it.c **** void PendSV_Handler(void)
  64:HAL_Lib/Core/Src/stm32h7xx_it.c **** {
 198              		.loc 1 64 1 view -0
 199              		.cfi_startproc
 200              		@ args = 0, pretend = 0, frame = 0
 201              		@ frame_needed = 0, uses_anonymous_args = 0
 202 0000 08B5     		push	{r3, lr}
 203              	.LCFI1:
 204              		.cfi_def_cfa_offset 8
 205              		.cfi_offset 3, -8
 206              		.cfi_offset 14, -4
  65:HAL_Lib/Core/Src/stm32h7xx_it.c ****   Os_SwitchContext();
 207              		.loc 1 65 3 view .LVU27
 208 0002 FFF7FEFF 		bl	Os_SwitchContext
 209              	.LVL2:
  66:HAL_Lib/Core/Src/stm32h7xx_it.c **** }
 210              		.loc 1 66 1 is_stmt 0 view .LVU28
 211 0006 08BD     		pop	{r3, pc}
 212              		.cfi_endproc
 213              	.LFE154:
 215              		.section	.text.SysTick_Handler,"ax",%progbits
 216              		.align	1
 217              		.global	SysTick_Handler
 218              		.syntax unified
 219              		.thumb
 220              		.thumb_func
 221              		.fpu fpv5-d16
 223              	SysTick_Handler:
 224              	.LFB155:
  67:HAL_Lib/Core/Src/stm32h7xx_it.c **** 
  68:HAL_Lib/Core/Src/stm32h7xx_it.c **** void SysTick_Handler(void)
  69:HAL_Lib/Core/Src/stm32h7xx_it.c **** {
 225              		.loc 1 69 1 is_stmt 1 view -0
 226              		.cfi_startproc
 227              		@ args = 0, pretend = 0, frame = 0
 228              		@ frame_needed = 0, uses_anonymous_args = 0
ARM GAS  /var/folders/lx/hc4sn_b53233_zkc9xbbl97r0000gp/T//ccEeCci2.s 			page 6


 229 0000 70B5     		push	{r4, r5, r6, lr}
 230              	.LCFI2:
 231              		.cfi_def_cfa_offset 16
 232              		.cfi_offset 4, -16
 233              		.cfi_offset 5, -12
 234              		.cfi_offset 6, -8
 235              		.cfi_offset 14, -4
  70:HAL_Lib/Core/Src/stm32h7xx_it.c ****   static uint32_t time_base = 0;
 236              		.loc 1 70 3 view .LVU30
  71:HAL_Lib/Core/Src/stm32h7xx_it.c **** 
  72:HAL_Lib/Core/Src/stm32h7xx_it.c ****   DebugPin.ctl(Debug_PB3, true);
 237              		.loc 1 72 3 view .LVU31
 238              		.loc 1 72 11 is_stmt 0 view .LVU32
 239 0002 114D     		ldr	r5, .L21
 240              		.loc 1 72 3 view .LVU33
 241 0004 114C     		ldr	r4, .L21+4
 242 0006 0123     		movs	r3, #1
 243 0008 94E80700 		ldm	r4, {r0, r1, r2}
 244 000c 6E68     		ldr	r6, [r5, #4]
 245 000e B047     		blx	r6
 246              	.LVL3:
  73:HAL_Lib/Core/Src/stm32h7xx_it.c **** 
  74:HAL_Lib/Core/Src/stm32h7xx_it.c ****   /* Os relay on */
  75:HAL_Lib/Core/Src/stm32h7xx_it.c ****   Runtime_Tick();
 247              		.loc 1 75 3 is_stmt 1 view .LVU34
 248 0010 FFF7FEFF 		bl	Runtime_Tick
 249              	.LVL4:
  76:HAL_Lib/Core/Src/stm32h7xx_it.c **** 
  77:HAL_Lib/Core/Src/stm32h7xx_it.c ****   DebugPin.ctl(Debug_PB3, false);
 250              		.loc 1 77 3 view .LVU35
 251              		.loc 1 77 11 is_stmt 0 view .LVU36
 252 0014 6D68     		ldr	r5, [r5, #4]
 253              		.loc 1 77 3 view .LVU37
 254 0016 0023     		movs	r3, #0
 255 0018 94E80700 		ldm	r4, {r0, r1, r2}
 256 001c A847     		blx	r5
 257              	.LVL5:
  78:HAL_Lib/Core/Src/stm32h7xx_it.c **** 
  79:HAL_Lib/Core/Src/stm32h7xx_it.c ****   /* periph relay on */
  80:HAL_Lib/Core/Src/stm32h7xx_it.c ****   if (time_base == REAL_1MS - Runtime_GetTickBase())
 258              		.loc 1 80 3 is_stmt 1 view .LVU38
 259              		.loc 1 80 31 is_stmt 0 view .LVU39
 260 001e FFF7FEFF 		bl	Runtime_GetTickBase
 261              	.LVL6:
 262              		.loc 1 80 29 view .LVU40
 263 0022 C0F57A70 		rsb	r0, r0, #1000
 264              		.loc 1 80 17 view .LVU41
 265 0026 0A4B     		ldr	r3, .L21+8
 266 0028 1B68     		ldr	r3, [r3]
 267              		.loc 1 80 6 view .LVU42
 268 002a 9842     		cmp	r0, r3
 269 002c 06D0     		beq	.L20
  81:HAL_Lib/Core/Src/stm32h7xx_it.c ****   {
  82:HAL_Lib/Core/Src/stm32h7xx_it.c ****     time_base = 0;
  83:HAL_Lib/Core/Src/stm32h7xx_it.c ****     HAL_IncTick();
  84:HAL_Lib/Core/Src/stm32h7xx_it.c ****   }
  85:HAL_Lib/Core/Src/stm32h7xx_it.c ****   else
ARM GAS  /var/folders/lx/hc4sn_b53233_zkc9xbbl97r0000gp/T//ccEeCci2.s 			page 7


  86:HAL_Lib/Core/Src/stm32h7xx_it.c ****   {
  87:HAL_Lib/Core/Src/stm32h7xx_it.c ****     time_base += Runtime_GetTickBase();
 270              		.loc 1 87 5 is_stmt 1 view .LVU43
 271              		.loc 1 87 18 is_stmt 0 view .LVU44
 272 002e FFF7FEFF 		bl	Runtime_GetTickBase
 273              	.LVL7:
 274              		.loc 1 87 15 view .LVU45
 275 0032 074A     		ldr	r2, .L21+8
 276 0034 1368     		ldr	r3, [r2]
 277 0036 0344     		add	r3, r3, r0
 278 0038 1360     		str	r3, [r2]
 279              	.L16:
  88:HAL_Lib/Core/Src/stm32h7xx_it.c ****   }
  89:HAL_Lib/Core/Src/stm32h7xx_it.c **** }
 280              		.loc 1 89 1 view .LVU46
 281 003a 70BD     		pop	{r4, r5, r6, pc}
 282              	.L20:
  82:HAL_Lib/Core/Src/stm32h7xx_it.c ****     HAL_IncTick();
 283              		.loc 1 82 5 is_stmt 1 view .LVU47
  82:HAL_Lib/Core/Src/stm32h7xx_it.c ****     HAL_IncTick();
 284              		.loc 1 82 15 is_stmt 0 view .LVU48
 285 003c 044B     		ldr	r3, .L21+8
 286 003e 0022     		movs	r2, #0
 287 0040 1A60     		str	r2, [r3]
  83:HAL_Lib/Core/Src/stm32h7xx_it.c ****   }
 288              		.loc 1 83 5 is_stmt 1 view .LVU49
 289 0042 FFF7FEFF 		bl	HAL_IncTick
 290              	.LVL8:
 291 0046 F8E7     		b	.L16
 292              	.L22:
 293              		.align	2
 294              	.L21:
 295 0048 00000000 		.word	DebugPin
 296 004c 00000000 		.word	Debug_PB3
 297 0050 00000000 		.word	.LANCHOR0
 298              		.cfi_endproc
 299              	.LFE155:
 301              		.section	.text.OTG_FS_IRQHandler,"ax",%progbits
 302              		.align	1
 303              		.global	OTG_FS_IRQHandler
 304              		.syntax unified
 305              		.thumb
 306              		.thumb_func
 307              		.fpu fpv5-d16
 309              	OTG_FS_IRQHandler:
 310              	.LFB156:
  90:HAL_Lib/Core/Src/stm32h7xx_it.c **** 
  91:HAL_Lib/Core/Src/stm32h7xx_it.c **** void OTG_FS_IRQHandler(void)
  92:HAL_Lib/Core/Src/stm32h7xx_it.c **** {
 311              		.loc 1 92 1 view -0
 312              		.cfi_startproc
 313              		@ args = 0, pretend = 0, frame = 0
 314              		@ frame_needed = 0, uses_anonymous_args = 0
 315 0000 08B5     		push	{r3, lr}
 316              	.LCFI3:
 317              		.cfi_def_cfa_offset 8
 318              		.cfi_offset 3, -8
ARM GAS  /var/folders/lx/hc4sn_b53233_zkc9xbbl97r0000gp/T//ccEeCci2.s 			page 8


 319              		.cfi_offset 14, -4
  93:HAL_Lib/Core/Src/stm32h7xx_it.c ****   HAL_PCD_IRQHandler(&hpcd_USB_OTG_FS);
 320              		.loc 1 93 3 view .LVU51
 321 0002 0248     		ldr	r0, .L25
 322 0004 FFF7FEFF 		bl	HAL_PCD_IRQHandler
 323              	.LVL9:
  94:HAL_Lib/Core/Src/stm32h7xx_it.c **** }
 324              		.loc 1 94 1 is_stmt 0 view .LVU52
 325 0008 08BD     		pop	{r3, pc}
 326              	.L26:
 327 000a 00BF     		.align	2
 328              	.L25:
 329 000c 00000000 		.word	hpcd_USB_OTG_FS
 330              		.cfi_endproc
 331              	.LFE156:
 333              		.section	.text.EXTI0_IRQHandler,"ax",%progbits
 334              		.align	1
 335              		.global	EXTI0_IRQHandler
 336              		.syntax unified
 337              		.thumb
 338              		.thumb_func
 339              		.fpu fpv5-d16
 341              	EXTI0_IRQHandler:
 342              	.LFB157:
  95:HAL_Lib/Core/Src/stm32h7xx_it.c **** 
  96:HAL_Lib/Core/Src/stm32h7xx_it.c **** void EXTI0_IRQHandler(void)
  97:HAL_Lib/Core/Src/stm32h7xx_it.c **** {
 343              		.loc 1 97 1 is_stmt 1 view -0
 344              		.cfi_startproc
 345              		@ args = 0, pretend = 0, frame = 0
 346              		@ frame_needed = 0, uses_anonymous_args = 0
 347 0000 08B5     		push	{r3, lr}
 348              	.LCFI4:
 349              		.cfi_def_cfa_offset 8
 350              		.cfi_offset 3, -8
 351              		.cfi_offset 14, -4
  98:HAL_Lib/Core/Src/stm32h7xx_it.c ****   HAL_GPIO_EXTI_IRQHandler(GPIO_PIN_0);
 352              		.loc 1 98 3 view .LVU54
 353 0002 0120     		movs	r0, #1
 354 0004 FFF7FEFF 		bl	HAL_GPIO_EXTI_IRQHandler
 355              	.LVL10:
  99:HAL_Lib/Core/Src/stm32h7xx_it.c **** }
 356              		.loc 1 99 1 is_stmt 0 view .LVU55
 357 0008 08BD     		pop	{r3, pc}
 358              		.cfi_endproc
 359              	.LFE157:
 361              		.section	.text.EXTI1_IRQHandler,"ax",%progbits
 362              		.align	1
 363              		.global	EXTI1_IRQHandler
 364              		.syntax unified
 365              		.thumb
 366              		.thumb_func
 367              		.fpu fpv5-d16
 369              	EXTI1_IRQHandler:
 370              	.LFB158:
 100:HAL_Lib/Core/Src/stm32h7xx_it.c **** 
 101:HAL_Lib/Core/Src/stm32h7xx_it.c **** void EXTI1_IRQHandler(void)
ARM GAS  /var/folders/lx/hc4sn_b53233_zkc9xbbl97r0000gp/T//ccEeCci2.s 			page 9


 102:HAL_Lib/Core/Src/stm32h7xx_it.c **** {
 371              		.loc 1 102 1 is_stmt 1 view -0
 372              		.cfi_startproc
 373              		@ args = 0, pretend = 0, frame = 0
 374              		@ frame_needed = 0, uses_anonymous_args = 0
 375 0000 08B5     		push	{r3, lr}
 376              	.LCFI5:
 377              		.cfi_def_cfa_offset 8
 378              		.cfi_offset 3, -8
 379              		.cfi_offset 14, -4
 103:HAL_Lib/Core/Src/stm32h7xx_it.c ****   HAL_GPIO_EXTI_IRQHandler(GPIO_PIN_1);
 380              		.loc 1 103 3 view .LVU57
 381 0002 0220     		movs	r0, #2
 382 0004 FFF7FEFF 		bl	HAL_GPIO_EXTI_IRQHandler
 383              	.LVL11:
 104:HAL_Lib/Core/Src/stm32h7xx_it.c **** }
 384              		.loc 1 104 1 is_stmt 0 view .LVU58
 385 0008 08BD     		pop	{r3, pc}
 386              		.cfi_endproc
 387              	.LFE158:
 389              		.section	.text.EXTI2_IRQHandler,"ax",%progbits
 390              		.align	1
 391              		.global	EXTI2_IRQHandler
 392              		.syntax unified
 393              		.thumb
 394              		.thumb_func
 395              		.fpu fpv5-d16
 397              	EXTI2_IRQHandler:
 398              	.LFB159:
 105:HAL_Lib/Core/Src/stm32h7xx_it.c **** 
 106:HAL_Lib/Core/Src/stm32h7xx_it.c **** void EXTI2_IRQHandler(void)
 107:HAL_Lib/Core/Src/stm32h7xx_it.c **** {
 399              		.loc 1 107 1 is_stmt 1 view -0
 400              		.cfi_startproc
 401              		@ args = 0, pretend = 0, frame = 0
 402              		@ frame_needed = 0, uses_anonymous_args = 0
 403 0000 08B5     		push	{r3, lr}
 404              	.LCFI6:
 405              		.cfi_def_cfa_offset 8
 406              		.cfi_offset 3, -8
 407              		.cfi_offset 14, -4
 108:HAL_Lib/Core/Src/stm32h7xx_it.c ****   HAL_GPIO_EXTI_IRQHandler(GPIO_PIN_2);
 408              		.loc 1 108 3 view .LVU60
 409 0002 0420     		movs	r0, #4
 410 0004 FFF7FEFF 		bl	HAL_GPIO_EXTI_IRQHandler
 411              	.LVL12:
 109:HAL_Lib/Core/Src/stm32h7xx_it.c **** }
 412              		.loc 1 109 1 is_stmt 0 view .LVU61
 413 0008 08BD     		pop	{r3, pc}
 414              		.cfi_endproc
 415              	.LFE159:
 417              		.section	.text.EXTI3_IRQHandler,"ax",%progbits
 418              		.align	1
 419              		.global	EXTI3_IRQHandler
 420              		.syntax unified
 421              		.thumb
 422              		.thumb_func
ARM GAS  /var/folders/lx/hc4sn_b53233_zkc9xbbl97r0000gp/T//ccEeCci2.s 			page 10


 423              		.fpu fpv5-d16
 425              	EXTI3_IRQHandler:
 426              	.LFB160:
 110:HAL_Lib/Core/Src/stm32h7xx_it.c **** 
 111:HAL_Lib/Core/Src/stm32h7xx_it.c **** void EXTI3_IRQHandler(void)
 112:HAL_Lib/Core/Src/stm32h7xx_it.c **** {
 427              		.loc 1 112 1 is_stmt 1 view -0
 428              		.cfi_startproc
 429              		@ args = 0, pretend = 0, frame = 0
 430              		@ frame_needed = 0, uses_anonymous_args = 0
 431 0000 08B5     		push	{r3, lr}
 432              	.LCFI7:
 433              		.cfi_def_cfa_offset 8
 434              		.cfi_offset 3, -8
 435              		.cfi_offset 14, -4
 113:HAL_Lib/Core/Src/stm32h7xx_it.c ****   HAL_GPIO_EXTI_IRQHandler(GPIO_PIN_3);
 436              		.loc 1 113 3 view .LVU63
 437 0002 0820     		movs	r0, #8
 438 0004 FFF7FEFF 		bl	HAL_GPIO_EXTI_IRQHandler
 439              	.LVL13:
 114:HAL_Lib/Core/Src/stm32h7xx_it.c **** }
 440              		.loc 1 114 1 is_stmt 0 view .LVU64
 441 0008 08BD     		pop	{r3, pc}
 442              		.cfi_endproc
 443              	.LFE160:
 445              		.section	.text.EXTI4_IRQHandler,"ax",%progbits
 446              		.align	1
 447              		.global	EXTI4_IRQHandler
 448              		.syntax unified
 449              		.thumb
 450              		.thumb_func
 451              		.fpu fpv5-d16
 453              	EXTI4_IRQHandler:
 454              	.LFB161:
 115:HAL_Lib/Core/Src/stm32h7xx_it.c **** 
 116:HAL_Lib/Core/Src/stm32h7xx_it.c **** void EXTI4_IRQHandler(void)
 117:HAL_Lib/Core/Src/stm32h7xx_it.c **** {
 455              		.loc 1 117 1 is_stmt 1 view -0
 456              		.cfi_startproc
 457              		@ args = 0, pretend = 0, frame = 0
 458              		@ frame_needed = 0, uses_anonymous_args = 0
 459 0000 08B5     		push	{r3, lr}
 460              	.LCFI8:
 461              		.cfi_def_cfa_offset 8
 462              		.cfi_offset 3, -8
 463              		.cfi_offset 14, -4
 118:HAL_Lib/Core/Src/stm32h7xx_it.c ****   HAL_GPIO_EXTI_IRQHandler(GPIO_PIN_4);
 464              		.loc 1 118 3 view .LVU66
 465 0002 1020     		movs	r0, #16
 466 0004 FFF7FEFF 		bl	HAL_GPIO_EXTI_IRQHandler
 467              	.LVL14:
 119:HAL_Lib/Core/Src/stm32h7xx_it.c **** }
 468              		.loc 1 119 1 is_stmt 0 view .LVU67
 469 0008 08BD     		pop	{r3, pc}
 470              		.cfi_endproc
 471              	.LFE161:
 473              		.section	.text.EXTI9_5_IRQHandler,"ax",%progbits
ARM GAS  /var/folders/lx/hc4sn_b53233_zkc9xbbl97r0000gp/T//ccEeCci2.s 			page 11


 474              		.align	1
 475              		.global	EXTI9_5_IRQHandler
 476              		.syntax unified
 477              		.thumb
 478              		.thumb_func
 479              		.fpu fpv5-d16
 481              	EXTI9_5_IRQHandler:
 482              	.LFB162:
 120:HAL_Lib/Core/Src/stm32h7xx_it.c **** 
 121:HAL_Lib/Core/Src/stm32h7xx_it.c **** void EXTI9_5_IRQHandler(void)
 122:HAL_Lib/Core/Src/stm32h7xx_it.c **** {
 483              		.loc 1 122 1 is_stmt 1 view -0
 484              		.cfi_startproc
 485              		@ args = 0, pretend = 0, frame = 0
 486              		@ frame_needed = 0, uses_anonymous_args = 0
 487 0000 08B5     		push	{r3, lr}
 488              	.LCFI9:
 489              		.cfi_def_cfa_offset 8
 490              		.cfi_offset 3, -8
 491              		.cfi_offset 14, -4
 123:HAL_Lib/Core/Src/stm32h7xx_it.c ****   HAL_GPIO_EXTI_IRQHandler(GPIO_PIN_5);
 492              		.loc 1 123 3 view .LVU69
 493 0002 2020     		movs	r0, #32
 494 0004 FFF7FEFF 		bl	HAL_GPIO_EXTI_IRQHandler
 495              	.LVL15:
 124:HAL_Lib/Core/Src/stm32h7xx_it.c ****   HAL_GPIO_EXTI_IRQHandler(GPIO_PIN_6);
 496              		.loc 1 124 3 view .LVU70
 497 0008 4020     		movs	r0, #64
 498 000a FFF7FEFF 		bl	HAL_GPIO_EXTI_IRQHandler
 499              	.LVL16:
 125:HAL_Lib/Core/Src/stm32h7xx_it.c ****   HAL_GPIO_EXTI_IRQHandler(GPIO_PIN_7);
 500              		.loc 1 125 3 view .LVU71
 501 000e 8020     		movs	r0, #128
 502 0010 FFF7FEFF 		bl	HAL_GPIO_EXTI_IRQHandler
 503              	.LVL17:
 126:HAL_Lib/Core/Src/stm32h7xx_it.c ****   HAL_GPIO_EXTI_IRQHandler(GPIO_PIN_8);
 504              		.loc 1 126 3 view .LVU72
 505 0014 4FF48070 		mov	r0, #256
 506 0018 FFF7FEFF 		bl	HAL_GPIO_EXTI_IRQHandler
 507              	.LVL18:
 127:HAL_Lib/Core/Src/stm32h7xx_it.c ****   HAL_GPIO_EXTI_IRQHandler(GPIO_PIN_9);
 508              		.loc 1 127 3 view .LVU73
 509 001c 4FF40070 		mov	r0, #512
 510 0020 FFF7FEFF 		bl	HAL_GPIO_EXTI_IRQHandler
 511              	.LVL19:
 128:HAL_Lib/Core/Src/stm32h7xx_it.c **** }
 512              		.loc 1 128 1 is_stmt 0 view .LVU74
 513 0024 08BD     		pop	{r3, pc}
 514              		.cfi_endproc
 515              	.LFE162:
 517              		.section	.text.EXTI15_10_IRQHandler,"ax",%progbits
 518              		.align	1
 519              		.global	EXTI15_10_IRQHandler
 520              		.syntax unified
 521              		.thumb
 522              		.thumb_func
 523              		.fpu fpv5-d16
ARM GAS  /var/folders/lx/hc4sn_b53233_zkc9xbbl97r0000gp/T//ccEeCci2.s 			page 12


 525              	EXTI15_10_IRQHandler:
 526              	.LFB163:
 129:HAL_Lib/Core/Src/stm32h7xx_it.c **** 
 130:HAL_Lib/Core/Src/stm32h7xx_it.c **** void EXTI15_10_IRQHandler(void)
 131:HAL_Lib/Core/Src/stm32h7xx_it.c **** {
 527              		.loc 1 131 1 is_stmt 1 view -0
 528              		.cfi_startproc
 529              		@ args = 0, pretend = 0, frame = 0
 530              		@ frame_needed = 0, uses_anonymous_args = 0
 531 0000 08B5     		push	{r3, lr}
 532              	.LCFI10:
 533              		.cfi_def_cfa_offset 8
 534              		.cfi_offset 3, -8
 535              		.cfi_offset 14, -4
 132:HAL_Lib/Core/Src/stm32h7xx_it.c ****   HAL_GPIO_EXTI_IRQHandler(GPIO_PIN_10);
 536              		.loc 1 132 3 view .LVU76
 537 0002 4FF48060 		mov	r0, #1024
 538 0006 FFF7FEFF 		bl	HAL_GPIO_EXTI_IRQHandler
 539              	.LVL20:
 133:HAL_Lib/Core/Src/stm32h7xx_it.c ****   HAL_GPIO_EXTI_IRQHandler(GPIO_PIN_11);
 540              		.loc 1 133 3 view .LVU77
 541 000a 4FF40060 		mov	r0, #2048
 542 000e FFF7FEFF 		bl	HAL_GPIO_EXTI_IRQHandler
 543              	.LVL21:
 134:HAL_Lib/Core/Src/stm32h7xx_it.c ****   HAL_GPIO_EXTI_IRQHandler(GPIO_PIN_12);
 544              		.loc 1 134 3 view .LVU78
 545 0012 4FF48050 		mov	r0, #4096
 546 0016 FFF7FEFF 		bl	HAL_GPIO_EXTI_IRQHandler
 547              	.LVL22:
 135:HAL_Lib/Core/Src/stm32h7xx_it.c ****   HAL_GPIO_EXTI_IRQHandler(GPIO_PIN_13);
 548              		.loc 1 135 3 view .LVU79
 549 001a 4FF40050 		mov	r0, #8192
 550 001e FFF7FEFF 		bl	HAL_GPIO_EXTI_IRQHandler
 551              	.LVL23:
 136:HAL_Lib/Core/Src/stm32h7xx_it.c ****   HAL_GPIO_EXTI_IRQHandler(GPIO_PIN_14);
 552              		.loc 1 136 3 view .LVU80
 553 0022 4FF48040 		mov	r0, #16384
 554 0026 FFF7FEFF 		bl	HAL_GPIO_EXTI_IRQHandler
 555              	.LVL24:
 137:HAL_Lib/Core/Src/stm32h7xx_it.c ****   HAL_GPIO_EXTI_IRQHandler(GPIO_PIN_15);
 556              		.loc 1 137 3 view .LVU81
 557 002a 4FF40040 		mov	r0, #32768
 558 002e FFF7FEFF 		bl	HAL_GPIO_EXTI_IRQHandler
 559              	.LVL25:
 138:HAL_Lib/Core/Src/stm32h7xx_it.c **** }
 560              		.loc 1 138 1 is_stmt 0 view .LVU82
 561 0032 08BD     		pop	{r3, pc}
 562              		.cfi_endproc
 563              	.LFE163:
 565              		.section	.text.SDMMC1_IRQHandler,"ax",%progbits
 566              		.align	1
 567              		.global	SDMMC1_IRQHandler
 568              		.syntax unified
 569              		.thumb
 570              		.thumb_func
 571              		.fpu fpv5-d16
 573              	SDMMC1_IRQHandler:
ARM GAS  /var/folders/lx/hc4sn_b53233_zkc9xbbl97r0000gp/T//ccEeCci2.s 			page 13


 574              	.LFB164:
 139:HAL_Lib/Core/Src/stm32h7xx_it.c **** 
 140:HAL_Lib/Core/Src/stm32h7xx_it.c **** void SDMMC1_IRQHandler(void)
 141:HAL_Lib/Core/Src/stm32h7xx_it.c **** {
 575              		.loc 1 141 1 is_stmt 1 view -0
 576              		.cfi_startproc
 577              		@ args = 0, pretend = 0, frame = 0
 578              		@ frame_needed = 0, uses_anonymous_args = 0
 579 0000 08B5     		push	{r3, lr}
 580              	.LCFI11:
 581              		.cfi_def_cfa_offset 8
 582              		.cfi_offset 3, -8
 583              		.cfi_offset 14, -4
 142:HAL_Lib/Core/Src/stm32h7xx_it.c ****   HAL_SD_IRQHandler(&DevTFCard_Obj.SDMMC_Obj.hdl);
 584              		.loc 1 142 3 view .LVU84
 585 0002 0248     		ldr	r0, .L43
 586 0004 FFF7FEFF 		bl	HAL_SD_IRQHandler
 587              	.LVL26:
 143:HAL_Lib/Core/Src/stm32h7xx_it.c **** }
 588              		.loc 1 143 1 is_stmt 0 view .LVU85
 589 0008 08BD     		pop	{r3, pc}
 590              	.L44:
 591 000a 00BF     		.align	2
 592              	.L43:
 593 000c 04000000 		.word	DevTFCard_Obj+4
 594              		.cfi_endproc
 595              	.LFE164:
 597              		.section	.text.MDMA_IRQHandler,"ax",%progbits
 598              		.align	1
 599              		.global	MDMA_IRQHandler
 600              		.syntax unified
 601              		.thumb
 602              		.thumb_func
 603              		.fpu fpv5-d16
 605              	MDMA_IRQHandler:
 606              	.LFB165:
 144:HAL_Lib/Core/Src/stm32h7xx_it.c **** 
 145:HAL_Lib/Core/Src/stm32h7xx_it.c **** void MDMA_IRQHandler(void)
 146:HAL_Lib/Core/Src/stm32h7xx_it.c **** {
 607              		.loc 1 146 1 is_stmt 1 view -0
 608              		.cfi_startproc
 609              		@ args = 0, pretend = 0, frame = 0
 610              		@ frame_needed = 0, uses_anonymous_args = 0
 611 0000 08B5     		push	{r3, lr}
 612              	.LCFI12:
 613              		.cfi_def_cfa_offset 8
 614              		.cfi_offset 3, -8
 615              		.cfi_offset 14, -4
 147:HAL_Lib/Core/Src/stm32h7xx_it.c ****   HAL_MDMA_IRQHandler(&DevTFCard_Obj.SDMMC_Obj.mdma);
 616              		.loc 1 147 3 view .LVU87
 617 0002 0248     		ldr	r0, .L47
 618 0004 FFF7FEFF 		bl	HAL_MDMA_IRQHandler
 619              	.LVL27:
 148:HAL_Lib/Core/Src/stm32h7xx_it.c **** }
 620              		.loc 1 148 1 is_stmt 0 view .LVU88
 621 0008 08BD     		pop	{r3, pc}
 622              	.L48:
ARM GAS  /var/folders/lx/hc4sn_b53233_zkc9xbbl97r0000gp/T//ccEeCci2.s 			page 14


 623 000a 00BF     		.align	2
 624              	.L47:
 625 000c 84000000 		.word	DevTFCard_Obj+132
 626              		.cfi_endproc
 627              	.LFE165:
 629              		.section	.text.DMA2_Stream7_IRQHandler,"ax",%progbits
 630              		.align	1
 631              		.global	DMA2_Stream7_IRQHandler
 632              		.syntax unified
 633              		.thumb
 634              		.thumb_func
 635              		.fpu fpv5-d16
 637              	DMA2_Stream7_IRQHandler:
 638              	.LFB166:
 149:HAL_Lib/Core/Src/stm32h7xx_it.c **** 
 150:HAL_Lib/Core/Src/stm32h7xx_it.c **** void DMA2_Stream7_IRQHandler(void)
 151:HAL_Lib/Core/Src/stm32h7xx_it.c **** {
 639              		.loc 1 151 1 is_stmt 1 view -0
 640              		.cfi_startproc
 641              		@ args = 0, pretend = 0, frame = 0
 642              		@ frame_needed = 0, uses_anonymous_args = 0
 643 0000 08B5     		push	{r3, lr}
 644              	.LCFI13:
 645              		.cfi_def_cfa_offset 8
 646              		.cfi_offset 3, -8
 647              		.cfi_offset 14, -4
 152:HAL_Lib/Core/Src/stm32h7xx_it.c ****   HAL_DMA_IRQHandler(&DataPipe_DMA);
 648              		.loc 1 152 3 view .LVU90
 649 0002 0248     		ldr	r0, .L51
 650 0004 FFF7FEFF 		bl	HAL_DMA_IRQHandler
 651              	.LVL28:
 153:HAL_Lib/Core/Src/stm32h7xx_it.c **** }
 652              		.loc 1 153 1 is_stmt 0 view .LVU91
 653 0008 08BD     		pop	{r3, pc}
 654              	.L52:
 655 000a 00BF     		.align	2
 656              	.L51:
 657 000c 00000000 		.word	DataPipe_DMA
 658              		.cfi_endproc
 659              	.LFE166:
 661              		.section	.text.DMA1_Stream0_IRQHandler,"ax",%progbits
 662              		.align	1
 663              		.global	DMA1_Stream0_IRQHandler
 664              		.syntax unified
 665              		.thumb
 666              		.thumb_func
 667              		.fpu fpv5-d16
 669              	DMA1_Stream0_IRQHandler:
 670              	.LFB167:
 154:HAL_Lib/Core/Src/stm32h7xx_it.c **** 
 155:HAL_Lib/Core/Src/stm32h7xx_it.c **** void DMA1_Stream0_IRQHandler(void)
 156:HAL_Lib/Core/Src/stm32h7xx_it.c **** {
 671              		.loc 1 156 1 is_stmt 1 view -0
 672              		.cfi_startproc
 673              		@ args = 0, pretend = 0, frame = 0
 674              		@ frame_needed = 0, uses_anonymous_args = 0
 675 0000 08B5     		push	{r3, lr}
ARM GAS  /var/folders/lx/hc4sn_b53233_zkc9xbbl97r0000gp/T//ccEeCci2.s 			page 15


 676              	.LCFI14:
 677              		.cfi_def_cfa_offset 8
 678              		.cfi_offset 3, -8
 679              		.cfi_offset 14, -4
 157:HAL_Lib/Core/Src/stm32h7xx_it.c ****   DMA_HandleTypeDef *hdl = NULL;
 680              		.loc 1 157 3 view .LVU93
 681              	.LVL29:
 158:HAL_Lib/Core/Src/stm32h7xx_it.c ****   hdl = BspDMA.get_handle(Bsp_DMA_1, Bsp_DMA_Stream_0);
 682              		.loc 1 158 3 view .LVU94
 683              		.loc 1 158 15 is_stmt 0 view .LVU95
 684 0002 044B     		ldr	r3, .L56
 685 0004 9B68     		ldr	r3, [r3, #8]
 686              		.loc 1 158 9 view .LVU96
 687 0006 0021     		movs	r1, #0
 688 0008 0846     		mov	r0, r1
 689 000a 9847     		blx	r3
 690              	.LVL30:
 159:HAL_Lib/Core/Src/stm32h7xx_it.c **** 
 160:HAL_Lib/Core/Src/stm32h7xx_it.c ****   if (hdl)
 691              		.loc 1 160 3 is_stmt 1 view .LVU97
 692              		.loc 1 160 6 is_stmt 0 view .LVU98
 693 000c 08B1     		cbz	r0, .L53
 161:HAL_Lib/Core/Src/stm32h7xx_it.c ****     HAL_DMA_IRQHandler(hdl);
 694              		.loc 1 161 5 is_stmt 1 view .LVU99
 695 000e FFF7FEFF 		bl	HAL_DMA_IRQHandler
 696              	.LVL31:
 697              	.L53:
 162:HAL_Lib/Core/Src/stm32h7xx_it.c **** }
 698              		.loc 1 162 1 is_stmt 0 view .LVU100
 699 0012 08BD     		pop	{r3, pc}
 700              	.L57:
 701              		.align	2
 702              	.L56:
 703 0014 00000000 		.word	BspDMA
 704              		.cfi_endproc
 705              	.LFE167:
 707              		.section	.text.DMA1_Stream1_IRQHandler,"ax",%progbits
 708              		.align	1
 709              		.global	DMA1_Stream1_IRQHandler
 710              		.syntax unified
 711              		.thumb
 712              		.thumb_func
 713              		.fpu fpv5-d16
 715              	DMA1_Stream1_IRQHandler:
 716              	.LFB168:
 163:HAL_Lib/Core/Src/stm32h7xx_it.c **** 
 164:HAL_Lib/Core/Src/stm32h7xx_it.c **** void DMA1_Stream1_IRQHandler(void)
 165:HAL_Lib/Core/Src/stm32h7xx_it.c **** {
 717              		.loc 1 165 1 is_stmt 1 view -0
 718              		.cfi_startproc
 719              		@ args = 0, pretend = 0, frame = 0
 720              		@ frame_needed = 0, uses_anonymous_args = 0
 721 0000 08B5     		push	{r3, lr}
 722              	.LCFI15:
 723              		.cfi_def_cfa_offset 8
 724              		.cfi_offset 3, -8
 725              		.cfi_offset 14, -4
ARM GAS  /var/folders/lx/hc4sn_b53233_zkc9xbbl97r0000gp/T//ccEeCci2.s 			page 16


 166:HAL_Lib/Core/Src/stm32h7xx_it.c ****   DMA_HandleTypeDef *hdl = NULL;
 726              		.loc 1 166 3 view .LVU102
 727              	.LVL32:
 167:HAL_Lib/Core/Src/stm32h7xx_it.c ****   hdl = BspDMA.get_handle(Bsp_DMA_1, Bsp_DMA_Stream_1);
 728              		.loc 1 167 3 view .LVU103
 729              		.loc 1 167 15 is_stmt 0 view .LVU104
 730 0002 044B     		ldr	r3, .L61
 731 0004 9B68     		ldr	r3, [r3, #8]
 732              		.loc 1 167 9 view .LVU105
 733 0006 0121     		movs	r1, #1
 734 0008 0020     		movs	r0, #0
 735 000a 9847     		blx	r3
 736              	.LVL33:
 168:HAL_Lib/Core/Src/stm32h7xx_it.c **** 
 169:HAL_Lib/Core/Src/stm32h7xx_it.c ****   if (hdl)
 737              		.loc 1 169 3 is_stmt 1 view .LVU106
 738              		.loc 1 169 6 is_stmt 0 view .LVU107
 739 000c 08B1     		cbz	r0, .L58
 170:HAL_Lib/Core/Src/stm32h7xx_it.c ****     HAL_DMA_IRQHandler(hdl);
 740              		.loc 1 170 5 is_stmt 1 view .LVU108
 741 000e FFF7FEFF 		bl	HAL_DMA_IRQHandler
 742              	.LVL34:
 743              	.L58:
 171:HAL_Lib/Core/Src/stm32h7xx_it.c **** }
 744              		.loc 1 171 1 is_stmt 0 view .LVU109
 745 0012 08BD     		pop	{r3, pc}
 746              	.L62:
 747              		.align	2
 748              	.L61:
 749 0014 00000000 		.word	BspDMA
 750              		.cfi_endproc
 751              	.LFE168:
 753              		.section	.text.DMA1_Stream2_IRQHandler,"ax",%progbits
 754              		.align	1
 755              		.global	DMA1_Stream2_IRQHandler
 756              		.syntax unified
 757              		.thumb
 758              		.thumb_func
 759              		.fpu fpv5-d16
 761              	DMA1_Stream2_IRQHandler:
 762              	.LFB169:
 172:HAL_Lib/Core/Src/stm32h7xx_it.c **** 
 173:HAL_Lib/Core/Src/stm32h7xx_it.c **** void DMA1_Stream2_IRQHandler(void)
 174:HAL_Lib/Core/Src/stm32h7xx_it.c **** {
 763              		.loc 1 174 1 is_stmt 1 view -0
 764              		.cfi_startproc
 765              		@ args = 0, pretend = 0, frame = 0
 766              		@ frame_needed = 0, uses_anonymous_args = 0
 767 0000 08B5     		push	{r3, lr}
 768              	.LCFI16:
 769              		.cfi_def_cfa_offset 8
 770              		.cfi_offset 3, -8
 771              		.cfi_offset 14, -4
 175:HAL_Lib/Core/Src/stm32h7xx_it.c ****   DMA_HandleTypeDef *hdl = NULL;
 772              		.loc 1 175 3 view .LVU111
 773              	.LVL35:
 176:HAL_Lib/Core/Src/stm32h7xx_it.c ****   hdl = BspDMA.get_handle(Bsp_DMA_1, Bsp_DMA_Stream_2);
ARM GAS  /var/folders/lx/hc4sn_b53233_zkc9xbbl97r0000gp/T//ccEeCci2.s 			page 17


 774              		.loc 1 176 3 view .LVU112
 775              		.loc 1 176 15 is_stmt 0 view .LVU113
 776 0002 044B     		ldr	r3, .L66
 777 0004 9B68     		ldr	r3, [r3, #8]
 778              		.loc 1 176 9 view .LVU114
 779 0006 0221     		movs	r1, #2
 780 0008 0020     		movs	r0, #0
 781 000a 9847     		blx	r3
 782              	.LVL36:
 177:HAL_Lib/Core/Src/stm32h7xx_it.c **** 
 178:HAL_Lib/Core/Src/stm32h7xx_it.c ****   if (hdl)
 783              		.loc 1 178 3 is_stmt 1 view .LVU115
 784              		.loc 1 178 6 is_stmt 0 view .LVU116
 785 000c 08B1     		cbz	r0, .L63
 179:HAL_Lib/Core/Src/stm32h7xx_it.c ****     HAL_DMA_IRQHandler(hdl);
 786              		.loc 1 179 5 is_stmt 1 view .LVU117
 787 000e FFF7FEFF 		bl	HAL_DMA_IRQHandler
 788              	.LVL37:
 789              	.L63:
 180:HAL_Lib/Core/Src/stm32h7xx_it.c **** }
 790              		.loc 1 180 1 is_stmt 0 view .LVU118
 791 0012 08BD     		pop	{r3, pc}
 792              	.L67:
 793              		.align	2
 794              	.L66:
 795 0014 00000000 		.word	BspDMA
 796              		.cfi_endproc
 797              	.LFE169:
 799              		.section	.text.DMA1_Stream3_IRQHandler,"ax",%progbits
 800              		.align	1
 801              		.global	DMA1_Stream3_IRQHandler
 802              		.syntax unified
 803              		.thumb
 804              		.thumb_func
 805              		.fpu fpv5-d16
 807              	DMA1_Stream3_IRQHandler:
 808              	.LFB170:
 181:HAL_Lib/Core/Src/stm32h7xx_it.c **** 
 182:HAL_Lib/Core/Src/stm32h7xx_it.c **** void DMA1_Stream3_IRQHandler(void)
 183:HAL_Lib/Core/Src/stm32h7xx_it.c **** {
 809              		.loc 1 183 1 is_stmt 1 view -0
 810              		.cfi_startproc
 811              		@ args = 0, pretend = 0, frame = 0
 812              		@ frame_needed = 0, uses_anonymous_args = 0
 813 0000 08B5     		push	{r3, lr}
 814              	.LCFI17:
 815              		.cfi_def_cfa_offset 8
 816              		.cfi_offset 3, -8
 817              		.cfi_offset 14, -4
 184:HAL_Lib/Core/Src/stm32h7xx_it.c ****   DMA_HandleTypeDef *hdl = NULL;
 818              		.loc 1 184 3 view .LVU120
 819              	.LVL38:
 185:HAL_Lib/Core/Src/stm32h7xx_it.c ****   hdl = BspDMA.get_handle(Bsp_DMA_1, Bsp_DMA_Stream_3);
 820              		.loc 1 185 3 view .LVU121
 821              		.loc 1 185 15 is_stmt 0 view .LVU122
 822 0002 044B     		ldr	r3, .L71
 823 0004 9B68     		ldr	r3, [r3, #8]
ARM GAS  /var/folders/lx/hc4sn_b53233_zkc9xbbl97r0000gp/T//ccEeCci2.s 			page 18


 824              		.loc 1 185 9 view .LVU123
 825 0006 0321     		movs	r1, #3
 826 0008 0020     		movs	r0, #0
 827 000a 9847     		blx	r3
 828              	.LVL39:
 186:HAL_Lib/Core/Src/stm32h7xx_it.c **** 
 187:HAL_Lib/Core/Src/stm32h7xx_it.c ****   if (hdl)
 829              		.loc 1 187 3 is_stmt 1 view .LVU124
 830              		.loc 1 187 6 is_stmt 0 view .LVU125
 831 000c 08B1     		cbz	r0, .L68
 188:HAL_Lib/Core/Src/stm32h7xx_it.c ****     HAL_DMA_IRQHandler(hdl);
 832              		.loc 1 188 5 is_stmt 1 view .LVU126
 833 000e FFF7FEFF 		bl	HAL_DMA_IRQHandler
 834              	.LVL40:
 835              	.L68:
 189:HAL_Lib/Core/Src/stm32h7xx_it.c **** }
 836              		.loc 1 189 1 is_stmt 0 view .LVU127
 837 0012 08BD     		pop	{r3, pc}
 838              	.L72:
 839              		.align	2
 840              	.L71:
 841 0014 00000000 		.word	BspDMA
 842              		.cfi_endproc
 843              	.LFE170:
 845              		.section	.text.DMA1_Stream4_IRQHandler,"ax",%progbits
 846              		.align	1
 847              		.global	DMA1_Stream4_IRQHandler
 848              		.syntax unified
 849              		.thumb
 850              		.thumb_func
 851              		.fpu fpv5-d16
 853              	DMA1_Stream4_IRQHandler:
 854              	.LFB171:
 190:HAL_Lib/Core/Src/stm32h7xx_it.c **** 
 191:HAL_Lib/Core/Src/stm32h7xx_it.c **** void DMA1_Stream4_IRQHandler(void)
 192:HAL_Lib/Core/Src/stm32h7xx_it.c **** {
 855              		.loc 1 192 1 is_stmt 1 view -0
 856              		.cfi_startproc
 857              		@ args = 0, pretend = 0, frame = 0
 858              		@ frame_needed = 0, uses_anonymous_args = 0
 859 0000 08B5     		push	{r3, lr}
 860              	.LCFI18:
 861              		.cfi_def_cfa_offset 8
 862              		.cfi_offset 3, -8
 863              		.cfi_offset 14, -4
 193:HAL_Lib/Core/Src/stm32h7xx_it.c ****   DMA_HandleTypeDef *hdl = NULL;
 864              		.loc 1 193 3 view .LVU129
 865              	.LVL41:
 194:HAL_Lib/Core/Src/stm32h7xx_it.c ****   hdl = BspDMA.get_handle(Bsp_DMA_1, Bsp_DMA_Stream_4);
 866              		.loc 1 194 3 view .LVU130
 867              		.loc 1 194 15 is_stmt 0 view .LVU131
 868 0002 044B     		ldr	r3, .L76
 869 0004 9B68     		ldr	r3, [r3, #8]
 870              		.loc 1 194 9 view .LVU132
 871 0006 0421     		movs	r1, #4
 872 0008 0020     		movs	r0, #0
 873 000a 9847     		blx	r3
ARM GAS  /var/folders/lx/hc4sn_b53233_zkc9xbbl97r0000gp/T//ccEeCci2.s 			page 19


 874              	.LVL42:
 195:HAL_Lib/Core/Src/stm32h7xx_it.c **** 
 196:HAL_Lib/Core/Src/stm32h7xx_it.c ****   if (hdl)
 875              		.loc 1 196 3 is_stmt 1 view .LVU133
 876              		.loc 1 196 6 is_stmt 0 view .LVU134
 877 000c 08B1     		cbz	r0, .L73
 197:HAL_Lib/Core/Src/stm32h7xx_it.c ****     HAL_DMA_IRQHandler(hdl);
 878              		.loc 1 197 5 is_stmt 1 view .LVU135
 879 000e FFF7FEFF 		bl	HAL_DMA_IRQHandler
 880              	.LVL43:
 881              	.L73:
 198:HAL_Lib/Core/Src/stm32h7xx_it.c **** }
 882              		.loc 1 198 1 is_stmt 0 view .LVU136
 883 0012 08BD     		pop	{r3, pc}
 884              	.L77:
 885              		.align	2
 886              	.L76:
 887 0014 00000000 		.word	BspDMA
 888              		.cfi_endproc
 889              	.LFE171:
 891              		.section	.text.DMA1_Stream5_IRQHandler,"ax",%progbits
 892              		.align	1
 893              		.global	DMA1_Stream5_IRQHandler
 894              		.syntax unified
 895              		.thumb
 896              		.thumb_func
 897              		.fpu fpv5-d16
 899              	DMA1_Stream5_IRQHandler:
 900              	.LFB172:
 199:HAL_Lib/Core/Src/stm32h7xx_it.c **** 
 200:HAL_Lib/Core/Src/stm32h7xx_it.c **** void DMA1_Stream5_IRQHandler(void)
 201:HAL_Lib/Core/Src/stm32h7xx_it.c **** {
 901              		.loc 1 201 1 is_stmt 1 view -0
 902              		.cfi_startproc
 903              		@ args = 0, pretend = 0, frame = 0
 904              		@ frame_needed = 0, uses_anonymous_args = 0
 905 0000 08B5     		push	{r3, lr}
 906              	.LCFI19:
 907              		.cfi_def_cfa_offset 8
 908              		.cfi_offset 3, -8
 909              		.cfi_offset 14, -4
 202:HAL_Lib/Core/Src/stm32h7xx_it.c ****   DMA_HandleTypeDef *hdl = NULL;
 910              		.loc 1 202 3 view .LVU138
 911              	.LVL44:
 203:HAL_Lib/Core/Src/stm32h7xx_it.c ****   hdl = BspDMA.get_handle(Bsp_DMA_1, Bsp_DMA_Stream_5);
 912              		.loc 1 203 3 view .LVU139
 913              		.loc 1 203 15 is_stmt 0 view .LVU140
 914 0002 044B     		ldr	r3, .L81
 915 0004 9B68     		ldr	r3, [r3, #8]
 916              		.loc 1 203 9 view .LVU141
 917 0006 0521     		movs	r1, #5
 918 0008 0020     		movs	r0, #0
 919 000a 9847     		blx	r3
 920              	.LVL45:
 204:HAL_Lib/Core/Src/stm32h7xx_it.c **** 
 205:HAL_Lib/Core/Src/stm32h7xx_it.c ****   if (hdl)
 921              		.loc 1 205 3 is_stmt 1 view .LVU142
ARM GAS  /var/folders/lx/hc4sn_b53233_zkc9xbbl97r0000gp/T//ccEeCci2.s 			page 20


 922              		.loc 1 205 6 is_stmt 0 view .LVU143
 923 000c 08B1     		cbz	r0, .L78
 206:HAL_Lib/Core/Src/stm32h7xx_it.c ****     HAL_DMA_IRQHandler(hdl);
 924              		.loc 1 206 5 is_stmt 1 view .LVU144
 925 000e FFF7FEFF 		bl	HAL_DMA_IRQHandler
 926              	.LVL46:
 927              	.L78:
 207:HAL_Lib/Core/Src/stm32h7xx_it.c **** }
 928              		.loc 1 207 1 is_stmt 0 view .LVU145
 929 0012 08BD     		pop	{r3, pc}
 930              	.L82:
 931              		.align	2
 932              	.L81:
 933 0014 00000000 		.word	BspDMA
 934              		.cfi_endproc
 935              	.LFE172:
 937              		.section	.text.UART4_IRQHandler,"ax",%progbits
 938              		.align	1
 939              		.global	UART4_IRQHandler
 940              		.syntax unified
 941              		.thumb
 942              		.thumb_func
 943              		.fpu fpv5-d16
 945              	UART4_IRQHandler:
 946              	.LFB173:
 208:HAL_Lib/Core/Src/stm32h7xx_it.c **** 
 209:HAL_Lib/Core/Src/stm32h7xx_it.c **** void UART4_IRQHandler(void)
 210:HAL_Lib/Core/Src/stm32h7xx_it.c **** {
 947              		.loc 1 210 1 is_stmt 1 view -0
 948              		.cfi_startproc
 949              		@ args = 0, pretend = 0, frame = 0
 950              		@ frame_needed = 0, uses_anonymous_args = 0
 951 0000 08B5     		push	{r3, lr}
 952              	.LCFI20:
 953              		.cfi_def_cfa_offset 8
 954              		.cfi_offset 3, -8
 955              		.cfi_offset 14, -4
 211:HAL_Lib/Core/Src/stm32h7xx_it.c ****   UART_HandleTypeDef *hdl = NULL;
 956              		.loc 1 211 3 view .LVU147
 957              	.LVL47:
 212:HAL_Lib/Core/Src/stm32h7xx_it.c ****   UART_Idle_Callback(BspUART_Port_4);
 958              		.loc 1 212 3 view .LVU148
 959 0002 0020     		movs	r0, #0
 960 0004 FFF7FEFF 		bl	UART_Idle_Callback
 961              	.LVL48:
 213:HAL_Lib/Core/Src/stm32h7xx_it.c ****   hdl = BspUart_GetObj_Handle(BspUART_Port_4);
 962              		.loc 1 213 3 view .LVU149
 963              		.loc 1 213 9 is_stmt 0 view .LVU150
 964 0008 0020     		movs	r0, #0
 965 000a FFF7FEFF 		bl	BspUart_GetObj_Handle
 966              	.LVL49:
 214:HAL_Lib/Core/Src/stm32h7xx_it.c **** 
 215:HAL_Lib/Core/Src/stm32h7xx_it.c ****   if (hdl && (hdl->Instance == UART4))
 967              		.loc 1 215 3 is_stmt 1 view .LVU151
 968              		.loc 1 215 6 is_stmt 0 view .LVU152
 969 000e 18B1     		cbz	r0, .L83
 970              		.loc 1 215 18 discriminator 1 view .LVU153
ARM GAS  /var/folders/lx/hc4sn_b53233_zkc9xbbl97r0000gp/T//ccEeCci2.s 			page 21


 971 0010 0168     		ldr	r1, [r0]
 972              		.loc 1 215 11 discriminator 1 view .LVU154
 973 0012 034A     		ldr	r2, .L87
 974 0014 9142     		cmp	r1, r2
 975 0016 00D0     		beq	.L86
 976              	.LVL50:
 977              	.L83:
 216:HAL_Lib/Core/Src/stm32h7xx_it.c ****     HAL_UART_IRQHandler(hdl);
 217:HAL_Lib/Core/Src/stm32h7xx_it.c **** }
 978              		.loc 1 217 1 view .LVU155
 979 0018 08BD     		pop	{r3, pc}
 980              	.LVL51:
 981              	.L86:
 216:HAL_Lib/Core/Src/stm32h7xx_it.c ****     HAL_UART_IRQHandler(hdl);
 982              		.loc 1 216 5 is_stmt 1 view .LVU156
 983 001a FFF7FEFF 		bl	HAL_UART_IRQHandler
 984              	.LVL52:
 985              		.loc 1 217 1 is_stmt 0 view .LVU157
 986 001e FBE7     		b	.L83
 987              	.L88:
 988              		.align	2
 989              	.L87:
 990 0020 004C0040 		.word	1073761280
 991              		.cfi_endproc
 992              	.LFE173:
 994              		.section	.text.USART6_IRQHandler,"ax",%progbits
 995              		.align	1
 996              		.global	USART6_IRQHandler
 997              		.syntax unified
 998              		.thumb
 999              		.thumb_func
 1000              		.fpu fpv5-d16
 1002              	USART6_IRQHandler:
 1003              	.LFB174:
 218:HAL_Lib/Core/Src/stm32h7xx_it.c **** 
 219:HAL_Lib/Core/Src/stm32h7xx_it.c **** void USART6_IRQHandler(void)
 220:HAL_Lib/Core/Src/stm32h7xx_it.c **** {
 1004              		.loc 1 220 1 is_stmt 1 view -0
 1005              		.cfi_startproc
 1006              		@ args = 0, pretend = 0, frame = 0
 1007              		@ frame_needed = 0, uses_anonymous_args = 0
 1008 0000 08B5     		push	{r3, lr}
 1009              	.LCFI21:
 1010              		.cfi_def_cfa_offset 8
 1011              		.cfi_offset 3, -8
 1012              		.cfi_offset 14, -4
 221:HAL_Lib/Core/Src/stm32h7xx_it.c ****   UART_HandleTypeDef *hdl = NULL;
 1013              		.loc 1 221 3 view .LVU159
 1014              	.LVL53:
 222:HAL_Lib/Core/Src/stm32h7xx_it.c ****   UART_Idle_Callback(BspUART_Port_6);
 1015              		.loc 1 222 3 view .LVU160
 1016 0002 0120     		movs	r0, #1
 1017 0004 FFF7FEFF 		bl	UART_Idle_Callback
 1018              	.LVL54:
 223:HAL_Lib/Core/Src/stm32h7xx_it.c ****   hdl = BspUart_GetObj_Handle(BspUART_Port_6);
 1019              		.loc 1 223 3 view .LVU161
 1020              		.loc 1 223 9 is_stmt 0 view .LVU162
ARM GAS  /var/folders/lx/hc4sn_b53233_zkc9xbbl97r0000gp/T//ccEeCci2.s 			page 22


 1021 0008 0120     		movs	r0, #1
 1022 000a FFF7FEFF 		bl	BspUart_GetObj_Handle
 1023              	.LVL55:
 224:HAL_Lib/Core/Src/stm32h7xx_it.c **** 
 225:HAL_Lib/Core/Src/stm32h7xx_it.c ****   if (hdl && (hdl->Instance == USART6))
 1024              		.loc 1 225 3 is_stmt 1 view .LVU163
 1025              		.loc 1 225 6 is_stmt 0 view .LVU164
 1026 000e 18B1     		cbz	r0, .L89
 1027              		.loc 1 225 18 discriminator 1 view .LVU165
 1028 0010 0168     		ldr	r1, [r0]
 1029              		.loc 1 225 11 discriminator 1 view .LVU166
 1030 0012 034A     		ldr	r2, .L93
 1031 0014 9142     		cmp	r1, r2
 1032 0016 00D0     		beq	.L92
 1033              	.LVL56:
 1034              	.L89:
 226:HAL_Lib/Core/Src/stm32h7xx_it.c ****     HAL_UART_IRQHandler(hdl);
 227:HAL_Lib/Core/Src/stm32h7xx_it.c **** }
 1035              		.loc 1 227 1 view .LVU167
 1036 0018 08BD     		pop	{r3, pc}
 1037              	.LVL57:
 1038              	.L92:
 226:HAL_Lib/Core/Src/stm32h7xx_it.c ****     HAL_UART_IRQHandler(hdl);
 1039              		.loc 1 226 5 is_stmt 1 view .LVU168
 1040 001a FFF7FEFF 		bl	HAL_UART_IRQHandler
 1041              	.LVL58:
 1042              		.loc 1 227 1 is_stmt 0 view .LVU169
 1043 001e FBE7     		b	.L89
 1044              	.L94:
 1045              		.align	2
 1046              	.L93:
 1047 0020 00140140 		.word	1073812480
 1048              		.cfi_endproc
 1049              	.LFE174:
 1051              		.section	.text.UART7_IRQHandler,"ax",%progbits
 1052              		.align	1
 1053              		.global	UART7_IRQHandler
 1054              		.syntax unified
 1055              		.thumb
 1056              		.thumb_func
 1057              		.fpu fpv5-d16
 1059              	UART7_IRQHandler:
 1060              	.LFB175:
 228:HAL_Lib/Core/Src/stm32h7xx_it.c **** 
 229:HAL_Lib/Core/Src/stm32h7xx_it.c **** void UART7_IRQHandler(void)
 230:HAL_Lib/Core/Src/stm32h7xx_it.c **** {
 1061              		.loc 1 230 1 is_stmt 1 view -0
 1062              		.cfi_startproc
 1063              		@ args = 0, pretend = 0, frame = 0
 1064              		@ frame_needed = 0, uses_anonymous_args = 0
 1065 0000 08B5     		push	{r3, lr}
 1066              	.LCFI22:
 1067              		.cfi_def_cfa_offset 8
 1068              		.cfi_offset 3, -8
 1069              		.cfi_offset 14, -4
 231:HAL_Lib/Core/Src/stm32h7xx_it.c ****   UART_HandleTypeDef *hdl = NULL;
 1070              		.loc 1 231 3 view .LVU171
ARM GAS  /var/folders/lx/hc4sn_b53233_zkc9xbbl97r0000gp/T//ccEeCci2.s 			page 23


 1071              	.LVL59:
 232:HAL_Lib/Core/Src/stm32h7xx_it.c ****   UART_Idle_Callback(BspUART_Port_7);
 1072              		.loc 1 232 3 view .LVU172
 1073 0002 0220     		movs	r0, #2
 1074 0004 FFF7FEFF 		bl	UART_Idle_Callback
 1075              	.LVL60:
 233:HAL_Lib/Core/Src/stm32h7xx_it.c ****   hdl = BspUart_GetObj_Handle(BspUART_Port_7);
 1076              		.loc 1 233 3 view .LVU173
 1077              		.loc 1 233 9 is_stmt 0 view .LVU174
 1078 0008 0220     		movs	r0, #2
 1079 000a FFF7FEFF 		bl	BspUart_GetObj_Handle
 1080              	.LVL61:
 234:HAL_Lib/Core/Src/stm32h7xx_it.c **** 
 235:HAL_Lib/Core/Src/stm32h7xx_it.c ****   if (hdl && (hdl->Instance == UART7))
 1081              		.loc 1 235 3 is_stmt 1 view .LVU175
 1082              		.loc 1 235 6 is_stmt 0 view .LVU176
 1083 000e 18B1     		cbz	r0, .L95
 1084              		.loc 1 235 18 discriminator 1 view .LVU177
 1085 0010 0168     		ldr	r1, [r0]
 1086              		.loc 1 235 11 discriminator 1 view .LVU178
 1087 0012 034A     		ldr	r2, .L99
 1088 0014 9142     		cmp	r1, r2
 1089 0016 00D0     		beq	.L98
 1090              	.LVL62:
 1091              	.L95:
 236:HAL_Lib/Core/Src/stm32h7xx_it.c ****     HAL_UART_IRQHandler(hdl);
 237:HAL_Lib/Core/Src/stm32h7xx_it.c **** }
 1092              		.loc 1 237 1 view .LVU179
 1093 0018 08BD     		pop	{r3, pc}
 1094              	.LVL63:
 1095              	.L98:
 236:HAL_Lib/Core/Src/stm32h7xx_it.c ****     HAL_UART_IRQHandler(hdl);
 1096              		.loc 1 236 5 is_stmt 1 view .LVU180
 1097 001a FFF7FEFF 		bl	HAL_UART_IRQHandler
 1098              	.LVL64:
 1099              		.loc 1 237 1 is_stmt 0 view .LVU181
 1100 001e FBE7     		b	.L95
 1101              	.L100:
 1102              		.align	2
 1103              	.L99:
 1104 0020 00780040 		.word	1073772544
 1105              		.cfi_endproc
 1106              	.LFE175:
 1108              		.section	.bss.time_base.0,"aw",%nobits
 1109              		.align	2
 1110              		.set	.LANCHOR0,. + 0
 1113              	time_base.0:
 1114 0000 00000000 		.space	4
 1115              		.text
 1116              	.Letext0:
 1117              		.file 2 "/usr/local/arm-none-eabi-gcc/gcc-arm-none-eabi-10-2020-q4-major/arm-none-eabi/include/mac
 1118              		.file 3 "/usr/local/arm-none-eabi-gcc/gcc-arm-none-eabi-10-2020-q4-major/arm-none-eabi/include/sys
 1119              		.file 4 "HAL_Lib/CMSIS/Device/ST/STM32H7xx/Include/stm32h743xx.h"
 1120              		.file 5 "HAL_Lib/STM32H7xx_HAL_Driver/Inc/stm32h7xx_hal_def.h"
 1121              		.file 6 "HAL_Lib/STM32H7xx_HAL_Driver/Inc/stm32h7xx_hal_gpio.h"
 1122              		.file 7 "HAL_Lib/STM32H7xx_HAL_Driver/Inc/stm32h7xx_hal_dma.h"
 1123              		.file 8 "HAL_Lib/STM32H7xx_HAL_Driver/Inc/stm32h7xx_hal_mdma.h"
ARM GAS  /var/folders/lx/hc4sn_b53233_zkc9xbbl97r0000gp/T//ccEeCci2.s 			page 24


 1124              		.file 9 "HAL_Lib/STM32H7xx_HAL_Driver/Inc/stm32h7xx_ll_sdmmc.h"
 1125              		.file 10 "HAL_Lib/STM32H7xx_HAL_Driver/Inc/stm32h7xx_hal_sd.h"
 1126              		.file 11 "HAL_Lib/STM32H7xx_HAL_Driver/Inc/stm32h7xx_hal_uart.h"
 1127              		.file 12 "HAL_Lib/STM32H7xx_HAL_Driver/Inc/stm32h7xx_ll_usb.h"
 1128              		.file 13 "HAL_Lib/STM32H7xx_HAL_Driver/Inc/stm32h7xx_hal_pcd.h"
 1129              		.file 14 "Bsp/Bsp_GPIO.h"
 1130              		.file 15 "debug/debug_util.h"
 1131              		.file 16 "IO_Def/IO_Definition.h"
 1132              		.file 17 "Bsp/Bsp_SDMMC.h"
 1133              		.file 18 "Device/Dev_Card.h"
 1134              		.file 19 "Bsp/Bsp_DMA.h"
 1135              		.file 20 "Bsp/Bsp_Uart.h"
 1136              		.file 21 "System/runtime/runtime.h"
 1137              		.file 22 "HAL_Lib/STM32H7xx_HAL_Driver/Inc/stm32h7xx_hal.h"
 1138              		.file 23 "System/scheduler/scheduler.h"
ARM GAS  /var/folders/lx/hc4sn_b53233_zkc9xbbl97r0000gp/T//ccEeCci2.s 			page 25


DEFINED SYMBOLS
                            *ABS*:0000000000000000 stm32h7xx_it.c
/var/folders/lx/hc4sn_b53233_zkc9xbbl97r0000gp/T//ccEeCci2.s:17     .text.NMI_Handler:0000000000000000 $t
/var/folders/lx/hc4sn_b53233_zkc9xbbl97r0000gp/T//ccEeCci2.s:25     .text.NMI_Handler:0000000000000000 NMI_Handler
/var/folders/lx/hc4sn_b53233_zkc9xbbl97r0000gp/T//ccEeCci2.s:43     .text.HardFault_Handler:0000000000000000 $t
/var/folders/lx/hc4sn_b53233_zkc9xbbl97r0000gp/T//ccEeCci2.s:50     .text.HardFault_Handler:0000000000000000 HardFault_Handler
/var/folders/lx/hc4sn_b53233_zkc9xbbl97r0000gp/T//ccEeCci2.s:67     .text.MemManage_Handler:0000000000000000 $t
/var/folders/lx/hc4sn_b53233_zkc9xbbl97r0000gp/T//ccEeCci2.s:74     .text.MemManage_Handler:0000000000000000 MemManage_Handler
/var/folders/lx/hc4sn_b53233_zkc9xbbl97r0000gp/T//ccEeCci2.s:91     .text.BusFault_Handler:0000000000000000 $t
/var/folders/lx/hc4sn_b53233_zkc9xbbl97r0000gp/T//ccEeCci2.s:98     .text.BusFault_Handler:0000000000000000 BusFault_Handler
/var/folders/lx/hc4sn_b53233_zkc9xbbl97r0000gp/T//ccEeCci2.s:115    .text.UsageFault_Handler:0000000000000000 $t
/var/folders/lx/hc4sn_b53233_zkc9xbbl97r0000gp/T//ccEeCci2.s:122    .text.UsageFault_Handler:0000000000000000 UsageFault_Handler
/var/folders/lx/hc4sn_b53233_zkc9xbbl97r0000gp/T//ccEeCci2.s:139    .text.SVC_Handler:0000000000000000 $t
/var/folders/lx/hc4sn_b53233_zkc9xbbl97r0000gp/T//ccEeCci2.s:146    .text.SVC_Handler:0000000000000000 SVC_Handler
/var/folders/lx/hc4sn_b53233_zkc9xbbl97r0000gp/T//ccEeCci2.s:169    .text.DebugMon_Handler:0000000000000000 $t
/var/folders/lx/hc4sn_b53233_zkc9xbbl97r0000gp/T//ccEeCci2.s:176    .text.DebugMon_Handler:0000000000000000 DebugMon_Handler
/var/folders/lx/hc4sn_b53233_zkc9xbbl97r0000gp/T//ccEeCci2.s:189    .text.PendSV_Handler:0000000000000000 $t
/var/folders/lx/hc4sn_b53233_zkc9xbbl97r0000gp/T//ccEeCci2.s:196    .text.PendSV_Handler:0000000000000000 PendSV_Handler
/var/folders/lx/hc4sn_b53233_zkc9xbbl97r0000gp/T//ccEeCci2.s:216    .text.SysTick_Handler:0000000000000000 $t
/var/folders/lx/hc4sn_b53233_zkc9xbbl97r0000gp/T//ccEeCci2.s:223    .text.SysTick_Handler:0000000000000000 SysTick_Handler
/var/folders/lx/hc4sn_b53233_zkc9xbbl97r0000gp/T//ccEeCci2.s:295    .text.SysTick_Handler:0000000000000048 $d
/var/folders/lx/hc4sn_b53233_zkc9xbbl97r0000gp/T//ccEeCci2.s:302    .text.OTG_FS_IRQHandler:0000000000000000 $t
/var/folders/lx/hc4sn_b53233_zkc9xbbl97r0000gp/T//ccEeCci2.s:309    .text.OTG_FS_IRQHandler:0000000000000000 OTG_FS_IRQHandler
/var/folders/lx/hc4sn_b53233_zkc9xbbl97r0000gp/T//ccEeCci2.s:329    .text.OTG_FS_IRQHandler:000000000000000c $d
/var/folders/lx/hc4sn_b53233_zkc9xbbl97r0000gp/T//ccEeCci2.s:334    .text.EXTI0_IRQHandler:0000000000000000 $t
/var/folders/lx/hc4sn_b53233_zkc9xbbl97r0000gp/T//ccEeCci2.s:341    .text.EXTI0_IRQHandler:0000000000000000 EXTI0_IRQHandler
/var/folders/lx/hc4sn_b53233_zkc9xbbl97r0000gp/T//ccEeCci2.s:362    .text.EXTI1_IRQHandler:0000000000000000 $t
/var/folders/lx/hc4sn_b53233_zkc9xbbl97r0000gp/T//ccEeCci2.s:369    .text.EXTI1_IRQHandler:0000000000000000 EXTI1_IRQHandler
/var/folders/lx/hc4sn_b53233_zkc9xbbl97r0000gp/T//ccEeCci2.s:390    .text.EXTI2_IRQHandler:0000000000000000 $t
/var/folders/lx/hc4sn_b53233_zkc9xbbl97r0000gp/T//ccEeCci2.s:397    .text.EXTI2_IRQHandler:0000000000000000 EXTI2_IRQHandler
/var/folders/lx/hc4sn_b53233_zkc9xbbl97r0000gp/T//ccEeCci2.s:418    .text.EXTI3_IRQHandler:0000000000000000 $t
/var/folders/lx/hc4sn_b53233_zkc9xbbl97r0000gp/T//ccEeCci2.s:425    .text.EXTI3_IRQHandler:0000000000000000 EXTI3_IRQHandler
/var/folders/lx/hc4sn_b53233_zkc9xbbl97r0000gp/T//ccEeCci2.s:446    .text.EXTI4_IRQHandler:0000000000000000 $t
/var/folders/lx/hc4sn_b53233_zkc9xbbl97r0000gp/T//ccEeCci2.s:453    .text.EXTI4_IRQHandler:0000000000000000 EXTI4_IRQHandler
/var/folders/lx/hc4sn_b53233_zkc9xbbl97r0000gp/T//ccEeCci2.s:474    .text.EXTI9_5_IRQHandler:0000000000000000 $t
/var/folders/lx/hc4sn_b53233_zkc9xbbl97r0000gp/T//ccEeCci2.s:481    .text.EXTI9_5_IRQHandler:0000000000000000 EXTI9_5_IRQHandler
/var/folders/lx/hc4sn_b53233_zkc9xbbl97r0000gp/T//ccEeCci2.s:518    .text.EXTI15_10_IRQHandler:0000000000000000 $t
/var/folders/lx/hc4sn_b53233_zkc9xbbl97r0000gp/T//ccEeCci2.s:525    .text.EXTI15_10_IRQHandler:0000000000000000 EXTI15_10_IRQHandler
/var/folders/lx/hc4sn_b53233_zkc9xbbl97r0000gp/T//ccEeCci2.s:566    .text.SDMMC1_IRQHandler:0000000000000000 $t
/var/folders/lx/hc4sn_b53233_zkc9xbbl97r0000gp/T//ccEeCci2.s:573    .text.SDMMC1_IRQHandler:0000000000000000 SDMMC1_IRQHandler
/var/folders/lx/hc4sn_b53233_zkc9xbbl97r0000gp/T//ccEeCci2.s:593    .text.SDMMC1_IRQHandler:000000000000000c $d
/var/folders/lx/hc4sn_b53233_zkc9xbbl97r0000gp/T//ccEeCci2.s:598    .text.MDMA_IRQHandler:0000000000000000 $t
/var/folders/lx/hc4sn_b53233_zkc9xbbl97r0000gp/T//ccEeCci2.s:605    .text.MDMA_IRQHandler:0000000000000000 MDMA_IRQHandler
/var/folders/lx/hc4sn_b53233_zkc9xbbl97r0000gp/T//ccEeCci2.s:625    .text.MDMA_IRQHandler:000000000000000c $d
/var/folders/lx/hc4sn_b53233_zkc9xbbl97r0000gp/T//ccEeCci2.s:630    .text.DMA2_Stream7_IRQHandler:0000000000000000 $t
/var/folders/lx/hc4sn_b53233_zkc9xbbl97r0000gp/T//ccEeCci2.s:637    .text.DMA2_Stream7_IRQHandler:0000000000000000 DMA2_Stream7_IRQHandler
/var/folders/lx/hc4sn_b53233_zkc9xbbl97r0000gp/T//ccEeCci2.s:657    .text.DMA2_Stream7_IRQHandler:000000000000000c $d
/var/folders/lx/hc4sn_b53233_zkc9xbbl97r0000gp/T//ccEeCci2.s:662    .text.DMA1_Stream0_IRQHandler:0000000000000000 $t
/var/folders/lx/hc4sn_b53233_zkc9xbbl97r0000gp/T//ccEeCci2.s:669    .text.DMA1_Stream0_IRQHandler:0000000000000000 DMA1_Stream0_IRQHandler
/var/folders/lx/hc4sn_b53233_zkc9xbbl97r0000gp/T//ccEeCci2.s:703    .text.DMA1_Stream0_IRQHandler:0000000000000014 $d
/var/folders/lx/hc4sn_b53233_zkc9xbbl97r0000gp/T//ccEeCci2.s:708    .text.DMA1_Stream1_IRQHandler:0000000000000000 $t
/var/folders/lx/hc4sn_b53233_zkc9xbbl97r0000gp/T//ccEeCci2.s:715    .text.DMA1_Stream1_IRQHandler:0000000000000000 DMA1_Stream1_IRQHandler
/var/folders/lx/hc4sn_b53233_zkc9xbbl97r0000gp/T//ccEeCci2.s:749    .text.DMA1_Stream1_IRQHandler:0000000000000014 $d
/var/folders/lx/hc4sn_b53233_zkc9xbbl97r0000gp/T//ccEeCci2.s:754    .text.DMA1_Stream2_IRQHandler:0000000000000000 $t
/var/folders/lx/hc4sn_b53233_zkc9xbbl97r0000gp/T//ccEeCci2.s:761    .text.DMA1_Stream2_IRQHandler:0000000000000000 DMA1_Stream2_IRQHandler
/var/folders/lx/hc4sn_b53233_zkc9xbbl97r0000gp/T//ccEeCci2.s:795    .text.DMA1_Stream2_IRQHandler:0000000000000014 $d
/var/folders/lx/hc4sn_b53233_zkc9xbbl97r0000gp/T//ccEeCci2.s:800    .text.DMA1_Stream3_IRQHandler:0000000000000000 $t
ARM GAS  /var/folders/lx/hc4sn_b53233_zkc9xbbl97r0000gp/T//ccEeCci2.s 			page 26


/var/folders/lx/hc4sn_b53233_zkc9xbbl97r0000gp/T//ccEeCci2.s:807    .text.DMA1_Stream3_IRQHandler:0000000000000000 DMA1_Stream3_IRQHandler
/var/folders/lx/hc4sn_b53233_zkc9xbbl97r0000gp/T//ccEeCci2.s:841    .text.DMA1_Stream3_IRQHandler:0000000000000014 $d
/var/folders/lx/hc4sn_b53233_zkc9xbbl97r0000gp/T//ccEeCci2.s:846    .text.DMA1_Stream4_IRQHandler:0000000000000000 $t
/var/folders/lx/hc4sn_b53233_zkc9xbbl97r0000gp/T//ccEeCci2.s:853    .text.DMA1_Stream4_IRQHandler:0000000000000000 DMA1_Stream4_IRQHandler
/var/folders/lx/hc4sn_b53233_zkc9xbbl97r0000gp/T//ccEeCci2.s:887    .text.DMA1_Stream4_IRQHandler:0000000000000014 $d
/var/folders/lx/hc4sn_b53233_zkc9xbbl97r0000gp/T//ccEeCci2.s:892    .text.DMA1_Stream5_IRQHandler:0000000000000000 $t
/var/folders/lx/hc4sn_b53233_zkc9xbbl97r0000gp/T//ccEeCci2.s:899    .text.DMA1_Stream5_IRQHandler:0000000000000000 DMA1_Stream5_IRQHandler
/var/folders/lx/hc4sn_b53233_zkc9xbbl97r0000gp/T//ccEeCci2.s:933    .text.DMA1_Stream5_IRQHandler:0000000000000014 $d
/var/folders/lx/hc4sn_b53233_zkc9xbbl97r0000gp/T//ccEeCci2.s:938    .text.UART4_IRQHandler:0000000000000000 $t
/var/folders/lx/hc4sn_b53233_zkc9xbbl97r0000gp/T//ccEeCci2.s:945    .text.UART4_IRQHandler:0000000000000000 UART4_IRQHandler
/var/folders/lx/hc4sn_b53233_zkc9xbbl97r0000gp/T//ccEeCci2.s:990    .text.UART4_IRQHandler:0000000000000020 $d
/var/folders/lx/hc4sn_b53233_zkc9xbbl97r0000gp/T//ccEeCci2.s:995    .text.USART6_IRQHandler:0000000000000000 $t
/var/folders/lx/hc4sn_b53233_zkc9xbbl97r0000gp/T//ccEeCci2.s:1002   .text.USART6_IRQHandler:0000000000000000 USART6_IRQHandler
/var/folders/lx/hc4sn_b53233_zkc9xbbl97r0000gp/T//ccEeCci2.s:1047   .text.USART6_IRQHandler:0000000000000020 $d
/var/folders/lx/hc4sn_b53233_zkc9xbbl97r0000gp/T//ccEeCci2.s:1052   .text.UART7_IRQHandler:0000000000000000 $t
/var/folders/lx/hc4sn_b53233_zkc9xbbl97r0000gp/T//ccEeCci2.s:1059   .text.UART7_IRQHandler:0000000000000000 UART7_IRQHandler
/var/folders/lx/hc4sn_b53233_zkc9xbbl97r0000gp/T//ccEeCci2.s:1104   .text.UART7_IRQHandler:0000000000000020 $d
/var/folders/lx/hc4sn_b53233_zkc9xbbl97r0000gp/T//ccEeCci2.s:1109   .bss.time_base.0:0000000000000000 $d
/var/folders/lx/hc4sn_b53233_zkc9xbbl97r0000gp/T//ccEeCci2.s:1113   .bss.time_base.0:0000000000000000 time_base.0

UNDEFINED SYMBOLS
Runtime_Start
Os_LoadFirstTask
Os_SwitchContext
Runtime_Tick
Runtime_GetTickBase
HAL_IncTick
DebugPin
Debug_PB3
HAL_PCD_IRQHandler
hpcd_USB_OTG_FS
HAL_GPIO_EXTI_IRQHandler
HAL_SD_IRQHandler
DevTFCard_Obj
HAL_MDMA_IRQHandler
HAL_DMA_IRQHandler
DataPipe_DMA
BspDMA
UART_Idle_Callback
BspUart_GetObj_Handle
HAL_UART_IRQHandler
