ARM GAS  C:\Users\HUAV\AppData\Local\Temp\ccKNGijo.s 			page 1


   1              		.cpu cortex-m7
   2              		.eabi_attribute 28, 1
   3              		.eabi_attribute 20, 1
   4              		.eabi_attribute 21, 1
   5              		.eabi_attribute 23, 3
   6              		.eabi_attribute 24, 1
   7              		.eabi_attribute 25, 1
   8              		.eabi_attribute 26, 1
   9              		.eabi_attribute 30, 1
  10              		.eabi_attribute 34, 1
  11              		.eabi_attribute 18, 4
  12              		.file	"stm32h7xx_hal_exti.c"
  13              		.text
  14              	.Ltext0:
  15              		.cfi_sections	.debug_frame
  16              		.section	.text.HAL_EXTI_SetConfigLine,"ax",%progbits
  17              		.align	1
  18              		.global	HAL_EXTI_SetConfigLine
  19              		.arch armv7e-m
  20              		.syntax unified
  21              		.thumb
  22              		.thumb_func
  23              		.fpu fpv5-d16
  25              	HAL_EXTI_SetConfigLine:
  26              	.LVL0:
  27              	.LFB144:
  28              		.file 1 "HAL_Lib/STM32H7xx_HAL_Driver/Src/stm32h7xx_hal_exti.c"
   1:HAL_Lib/STM32H7xx_HAL_Driver/Src/stm32h7xx_hal_exti.c **** /**
   2:HAL_Lib/STM32H7xx_HAL_Driver/Src/stm32h7xx_hal_exti.c ****   ******************************************************************************
   3:HAL_Lib/STM32H7xx_HAL_Driver/Src/stm32h7xx_hal_exti.c ****   * @file    stm32h7xx_hal_exti.c
   4:HAL_Lib/STM32H7xx_HAL_Driver/Src/stm32h7xx_hal_exti.c ****   * @author  MCD Application Team
   5:HAL_Lib/STM32H7xx_HAL_Driver/Src/stm32h7xx_hal_exti.c ****   * @brief   EXTI HAL module driver.
   6:HAL_Lib/STM32H7xx_HAL_Driver/Src/stm32h7xx_hal_exti.c ****   *          This file provides firmware functions to manage the following
   7:HAL_Lib/STM32H7xx_HAL_Driver/Src/stm32h7xx_hal_exti.c ****   *          functionalities of the General Purpose Input/Output (EXTI) peripheral:
   8:HAL_Lib/STM32H7xx_HAL_Driver/Src/stm32h7xx_hal_exti.c ****   *           + Initialization and de-initialization functions
   9:HAL_Lib/STM32H7xx_HAL_Driver/Src/stm32h7xx_hal_exti.c ****   *           + IO operation functions
  10:HAL_Lib/STM32H7xx_HAL_Driver/Src/stm32h7xx_hal_exti.c ****   *
  11:HAL_Lib/STM32H7xx_HAL_Driver/Src/stm32h7xx_hal_exti.c ****   ******************************************************************************
  12:HAL_Lib/STM32H7xx_HAL_Driver/Src/stm32h7xx_hal_exti.c ****   * @attention
  13:HAL_Lib/STM32H7xx_HAL_Driver/Src/stm32h7xx_hal_exti.c ****   *
  14:HAL_Lib/STM32H7xx_HAL_Driver/Src/stm32h7xx_hal_exti.c ****   * Copyright (c) 2017 STMicroelectronics.
  15:HAL_Lib/STM32H7xx_HAL_Driver/Src/stm32h7xx_hal_exti.c ****   * All rights reserved.
  16:HAL_Lib/STM32H7xx_HAL_Driver/Src/stm32h7xx_hal_exti.c ****   *
  17:HAL_Lib/STM32H7xx_HAL_Driver/Src/stm32h7xx_hal_exti.c ****   * This software is licensed under terms that can be found in the LICENSE file
  18:HAL_Lib/STM32H7xx_HAL_Driver/Src/stm32h7xx_hal_exti.c ****   * in the root directory of this software component.
  19:HAL_Lib/STM32H7xx_HAL_Driver/Src/stm32h7xx_hal_exti.c ****   * If no LICENSE file comes with this software, it is provided AS-IS.
  20:HAL_Lib/STM32H7xx_HAL_Driver/Src/stm32h7xx_hal_exti.c ****   *
  21:HAL_Lib/STM32H7xx_HAL_Driver/Src/stm32h7xx_hal_exti.c ****   ******************************************************************************
  22:HAL_Lib/STM32H7xx_HAL_Driver/Src/stm32h7xx_hal_exti.c ****   @verbatim
  23:HAL_Lib/STM32H7xx_HAL_Driver/Src/stm32h7xx_hal_exti.c ****   ==============================================================================
  24:HAL_Lib/STM32H7xx_HAL_Driver/Src/stm32h7xx_hal_exti.c ****                     ##### EXTI Peripheral features #####
  25:HAL_Lib/STM32H7xx_HAL_Driver/Src/stm32h7xx_hal_exti.c ****   ==============================================================================
  26:HAL_Lib/STM32H7xx_HAL_Driver/Src/stm32h7xx_hal_exti.c ****   [..]
  27:HAL_Lib/STM32H7xx_HAL_Driver/Src/stm32h7xx_hal_exti.c ****     (+) Each Exti line can be configured within this driver.
  28:HAL_Lib/STM32H7xx_HAL_Driver/Src/stm32h7xx_hal_exti.c **** 
  29:HAL_Lib/STM32H7xx_HAL_Driver/Src/stm32h7xx_hal_exti.c ****     (+) Exti line can be configured in 3 different modes
  30:HAL_Lib/STM32H7xx_HAL_Driver/Src/stm32h7xx_hal_exti.c ****         (++) Interrupt (CORE1 or CORE2 in case of dual core line )
ARM GAS  C:\Users\HUAV\AppData\Local\Temp\ccKNGijo.s 			page 2


  31:HAL_Lib/STM32H7xx_HAL_Driver/Src/stm32h7xx_hal_exti.c ****         (++) Event (CORE1 or CORE2 in case of dual core line )
  32:HAL_Lib/STM32H7xx_HAL_Driver/Src/stm32h7xx_hal_exti.c ****         (++) a combination of the previous
  33:HAL_Lib/STM32H7xx_HAL_Driver/Src/stm32h7xx_hal_exti.c **** 
  34:HAL_Lib/STM32H7xx_HAL_Driver/Src/stm32h7xx_hal_exti.c ****     (+) Configurable Exti lines can be configured with 3 different triggers
  35:HAL_Lib/STM32H7xx_HAL_Driver/Src/stm32h7xx_hal_exti.c ****         (++) Rising
  36:HAL_Lib/STM32H7xx_HAL_Driver/Src/stm32h7xx_hal_exti.c ****         (++) Falling
  37:HAL_Lib/STM32H7xx_HAL_Driver/Src/stm32h7xx_hal_exti.c ****         (++) Both of them
  38:HAL_Lib/STM32H7xx_HAL_Driver/Src/stm32h7xx_hal_exti.c **** 
  39:HAL_Lib/STM32H7xx_HAL_Driver/Src/stm32h7xx_hal_exti.c ****     (+) When set in interrupt mode, configurable Exti lines have two diffenrents
  40:HAL_Lib/STM32H7xx_HAL_Driver/Src/stm32h7xx_hal_exti.c ****         interrupt pending registers which allow to distinguish which transition
  41:HAL_Lib/STM32H7xx_HAL_Driver/Src/stm32h7xx_hal_exti.c ****         occurs:
  42:HAL_Lib/STM32H7xx_HAL_Driver/Src/stm32h7xx_hal_exti.c ****         (++) Rising edge pending interrupt
  43:HAL_Lib/STM32H7xx_HAL_Driver/Src/stm32h7xx_hal_exti.c ****         (++) Falling
  44:HAL_Lib/STM32H7xx_HAL_Driver/Src/stm32h7xx_hal_exti.c **** 
  45:HAL_Lib/STM32H7xx_HAL_Driver/Src/stm32h7xx_hal_exti.c ****     (+) Exti lines 0 to 15 are linked to gpio pin number 0 to 15. Gpio port can
  46:HAL_Lib/STM32H7xx_HAL_Driver/Src/stm32h7xx_hal_exti.c ****         be selected through multiplexer.
  47:HAL_Lib/STM32H7xx_HAL_Driver/Src/stm32h7xx_hal_exti.c **** 
  48:HAL_Lib/STM32H7xx_HAL_Driver/Src/stm32h7xx_hal_exti.c ****     (+) PendClearSource used to set the D3 Smart Run Domain autoamtic pend clear source.
  49:HAL_Lib/STM32H7xx_HAL_Driver/Src/stm32h7xx_hal_exti.c ****         It is applicable for line with wkaeup target is Any (CPU1 , CPU2 and D3 smart run domain).
  50:HAL_Lib/STM32H7xx_HAL_Driver/Src/stm32h7xx_hal_exti.c ****         Value can be one of the following:
  51:HAL_Lib/STM32H7xx_HAL_Driver/Src/stm32h7xx_hal_exti.c ****         (++)  EXTI_D3_PENDCLR_SRC_NONE : no pend clear source is selected :
  52:HAL_Lib/STM32H7xx_HAL_Driver/Src/stm32h7xx_hal_exti.c ****               In this case corresponding bit of D2PMRx register is set to 0
  53:HAL_Lib/STM32H7xx_HAL_Driver/Src/stm32h7xx_hal_exti.c ****                 (+++) On a configurable Line : the D3 domain wakeup signal is
  54:HAL_Lib/STM32H7xx_HAL_Driver/Src/stm32h7xx_hal_exti.c ****                       automatically cleared after after the Delay + Rising Edge detect
  55:HAL_Lib/STM32H7xx_HAL_Driver/Src/stm32h7xx_hal_exti.c ****                 (+++) On a direct Line : the D3 domain wakeup signal is
  56:HAL_Lib/STM32H7xx_HAL_Driver/Src/stm32h7xx_hal_exti.c ****                       cleared after the direct event input signal is cleared
  57:HAL_Lib/STM32H7xx_HAL_Driver/Src/stm32h7xx_hal_exti.c **** 
  58:HAL_Lib/STM32H7xx_HAL_Driver/Src/stm32h7xx_hal_exti.c ****         (++)  EXTI_D3_PENDCLR_SRC_DMACH6 : no pend clear source is selected :
  59:HAL_Lib/STM32H7xx_HAL_Driver/Src/stm32h7xx_hal_exti.c ****               In this case corresponding bit of D2PMRx register is set to 1
  60:HAL_Lib/STM32H7xx_HAL_Driver/Src/stm32h7xx_hal_exti.c ****               and corresponding bits(2) of D3PCRxL/H is set to b00 :
  61:HAL_Lib/STM32H7xx_HAL_Driver/Src/stm32h7xx_hal_exti.c ****                 DMA ch6 event selected as D3 domain pendclear source
  62:HAL_Lib/STM32H7xx_HAL_Driver/Src/stm32h7xx_hal_exti.c **** 
  63:HAL_Lib/STM32H7xx_HAL_Driver/Src/stm32h7xx_hal_exti.c ****         (++)  EXTI_D3_PENDCLR_SRC_DMACH7 : no pend clear source is selected :
  64:HAL_Lib/STM32H7xx_HAL_Driver/Src/stm32h7xx_hal_exti.c ****               In this case corresponding bit of D2PMRx register is set to 1
  65:HAL_Lib/STM32H7xx_HAL_Driver/Src/stm32h7xx_hal_exti.c ****               and corresponding bits(2) of D3PCRxL/H is set to b01 :
  66:HAL_Lib/STM32H7xx_HAL_Driver/Src/stm32h7xx_hal_exti.c ****                 DMA ch7 event selected as D3 domain pendclear source
  67:HAL_Lib/STM32H7xx_HAL_Driver/Src/stm32h7xx_hal_exti.c **** 
  68:HAL_Lib/STM32H7xx_HAL_Driver/Src/stm32h7xx_hal_exti.c ****         (++)  EXTI_D3_PENDCLR_SRC_LPTIM4 : no pend clear source is selected :
  69:HAL_Lib/STM32H7xx_HAL_Driver/Src/stm32h7xx_hal_exti.c ****               In this case corresponding bit of D2PMRx register is set to 1
  70:HAL_Lib/STM32H7xx_HAL_Driver/Src/stm32h7xx_hal_exti.c ****               and corresponding bits(2) of D3PCRxL/H is set to b10 :
  71:HAL_Lib/STM32H7xx_HAL_Driver/Src/stm32h7xx_hal_exti.c ****                 LPTIM4 out selected as D3 domain pendclear source
  72:HAL_Lib/STM32H7xx_HAL_Driver/Src/stm32h7xx_hal_exti.c **** 
  73:HAL_Lib/STM32H7xx_HAL_Driver/Src/stm32h7xx_hal_exti.c ****         (++)  EXTI_D3_PENDCLR_SRC_LPTIM5 : no pend clear source is selected :
  74:HAL_Lib/STM32H7xx_HAL_Driver/Src/stm32h7xx_hal_exti.c ****               In this case corresponding bit of D2PMRx register is set to 1
  75:HAL_Lib/STM32H7xx_HAL_Driver/Src/stm32h7xx_hal_exti.c ****               and corresponding bits(2) of D3PCRxL/H is set to b11 :
  76:HAL_Lib/STM32H7xx_HAL_Driver/Src/stm32h7xx_hal_exti.c ****                 LPTIM5 out selected as D3 domain pendclear source
  77:HAL_Lib/STM32H7xx_HAL_Driver/Src/stm32h7xx_hal_exti.c **** 
  78:HAL_Lib/STM32H7xx_HAL_Driver/Src/stm32h7xx_hal_exti.c **** 
  79:HAL_Lib/STM32H7xx_HAL_Driver/Src/stm32h7xx_hal_exti.c ****                      ##### How to use this driver #####
  80:HAL_Lib/STM32H7xx_HAL_Driver/Src/stm32h7xx_hal_exti.c ****   ==============================================================================
  81:HAL_Lib/STM32H7xx_HAL_Driver/Src/stm32h7xx_hal_exti.c ****   [..]
  82:HAL_Lib/STM32H7xx_HAL_Driver/Src/stm32h7xx_hal_exti.c **** 
  83:HAL_Lib/STM32H7xx_HAL_Driver/Src/stm32h7xx_hal_exti.c ****     (#) Configure the EXTI line using HAL_EXTI_SetConfigLine().
  84:HAL_Lib/STM32H7xx_HAL_Driver/Src/stm32h7xx_hal_exti.c ****         (++) Choose the interrupt line number by setting "Line" member from
  85:HAL_Lib/STM32H7xx_HAL_Driver/Src/stm32h7xx_hal_exti.c ****              EXTI_ConfigTypeDef structure.
  86:HAL_Lib/STM32H7xx_HAL_Driver/Src/stm32h7xx_hal_exti.c ****         (++) Configure the interrupt and/or event mode using "Mode" member from
  87:HAL_Lib/STM32H7xx_HAL_Driver/Src/stm32h7xx_hal_exti.c ****              EXTI_ConfigTypeDef structure.
ARM GAS  C:\Users\HUAV\AppData\Local\Temp\ccKNGijo.s 			page 3


  88:HAL_Lib/STM32H7xx_HAL_Driver/Src/stm32h7xx_hal_exti.c ****         (++) For configurable lines, configure rising and/or falling trigger
  89:HAL_Lib/STM32H7xx_HAL_Driver/Src/stm32h7xx_hal_exti.c ****              "Trigger" member from EXTI_ConfigTypeDef structure.
  90:HAL_Lib/STM32H7xx_HAL_Driver/Src/stm32h7xx_hal_exti.c ****         (++) For Exti lines linked to gpio, choose gpio port using "GPIOSel"
  91:HAL_Lib/STM32H7xx_HAL_Driver/Src/stm32h7xx_hal_exti.c ****              member from GPIO_InitTypeDef structure.
  92:HAL_Lib/STM32H7xx_HAL_Driver/Src/stm32h7xx_hal_exti.c ****         (++) For Exti lines with wkaeup target is Any (CPU1 , CPU2 and D3 smart run domain),
  93:HAL_Lib/STM32H7xx_HAL_Driver/Src/stm32h7xx_hal_exti.c ****              choose gpio D3 PendClearSource using PendClearSource
  94:HAL_Lib/STM32H7xx_HAL_Driver/Src/stm32h7xx_hal_exti.c ****              member from EXTI_PendClear_Source structure.
  95:HAL_Lib/STM32H7xx_HAL_Driver/Src/stm32h7xx_hal_exti.c **** 
  96:HAL_Lib/STM32H7xx_HAL_Driver/Src/stm32h7xx_hal_exti.c ****     (#) Get current Exti configuration of a dedicated line using
  97:HAL_Lib/STM32H7xx_HAL_Driver/Src/stm32h7xx_hal_exti.c ****         HAL_EXTI_GetConfigLine().
  98:HAL_Lib/STM32H7xx_HAL_Driver/Src/stm32h7xx_hal_exti.c ****         (++) Provide exiting handle as parameter.
  99:HAL_Lib/STM32H7xx_HAL_Driver/Src/stm32h7xx_hal_exti.c ****         (++) Provide pointer on EXTI_ConfigTypeDef structure as second parameter.
 100:HAL_Lib/STM32H7xx_HAL_Driver/Src/stm32h7xx_hal_exti.c **** 
 101:HAL_Lib/STM32H7xx_HAL_Driver/Src/stm32h7xx_hal_exti.c ****     (#) Clear Exti configuration of a dedicated line using HAL_EXTI_GetConfigLine().
 102:HAL_Lib/STM32H7xx_HAL_Driver/Src/stm32h7xx_hal_exti.c ****         (++) Provide exiting handle as parameter.
 103:HAL_Lib/STM32H7xx_HAL_Driver/Src/stm32h7xx_hal_exti.c **** 
 104:HAL_Lib/STM32H7xx_HAL_Driver/Src/stm32h7xx_hal_exti.c ****     (#) Register callback to treat Exti interrupts using HAL_EXTI_RegisterCallback().
 105:HAL_Lib/STM32H7xx_HAL_Driver/Src/stm32h7xx_hal_exti.c ****         (++) Provide exiting handle as first parameter.
 106:HAL_Lib/STM32H7xx_HAL_Driver/Src/stm32h7xx_hal_exti.c ****         (++) Provide which callback will be registered using one value from
 107:HAL_Lib/STM32H7xx_HAL_Driver/Src/stm32h7xx_hal_exti.c ****              EXTI_CallbackIDTypeDef.
 108:HAL_Lib/STM32H7xx_HAL_Driver/Src/stm32h7xx_hal_exti.c ****         (++) Provide callback function pointer.
 109:HAL_Lib/STM32H7xx_HAL_Driver/Src/stm32h7xx_hal_exti.c **** 
 110:HAL_Lib/STM32H7xx_HAL_Driver/Src/stm32h7xx_hal_exti.c ****     (#) Get interrupt pending bit using HAL_EXTI_GetPending().
 111:HAL_Lib/STM32H7xx_HAL_Driver/Src/stm32h7xx_hal_exti.c **** 
 112:HAL_Lib/STM32H7xx_HAL_Driver/Src/stm32h7xx_hal_exti.c ****     (#) Clear interrupt pending bit using HAL_EXTI_GetPending().
 113:HAL_Lib/STM32H7xx_HAL_Driver/Src/stm32h7xx_hal_exti.c **** 
 114:HAL_Lib/STM32H7xx_HAL_Driver/Src/stm32h7xx_hal_exti.c ****     (#) Generate software interrupt using HAL_EXTI_GenerateSWI().
 115:HAL_Lib/STM32H7xx_HAL_Driver/Src/stm32h7xx_hal_exti.c **** 
 116:HAL_Lib/STM32H7xx_HAL_Driver/Src/stm32h7xx_hal_exti.c ****   @endverbatim
 117:HAL_Lib/STM32H7xx_HAL_Driver/Src/stm32h7xx_hal_exti.c ****   */
 118:HAL_Lib/STM32H7xx_HAL_Driver/Src/stm32h7xx_hal_exti.c **** 
 119:HAL_Lib/STM32H7xx_HAL_Driver/Src/stm32h7xx_hal_exti.c **** /* Includes ------------------------------------------------------------------*/
 120:HAL_Lib/STM32H7xx_HAL_Driver/Src/stm32h7xx_hal_exti.c **** #include "stm32h7xx_hal.h"
 121:HAL_Lib/STM32H7xx_HAL_Driver/Src/stm32h7xx_hal_exti.c **** 
 122:HAL_Lib/STM32H7xx_HAL_Driver/Src/stm32h7xx_hal_exti.c **** /** @addtogroup STM32H7xx_HAL_Driver
 123:HAL_Lib/STM32H7xx_HAL_Driver/Src/stm32h7xx_hal_exti.c ****   * @{
 124:HAL_Lib/STM32H7xx_HAL_Driver/Src/stm32h7xx_hal_exti.c ****   */
 125:HAL_Lib/STM32H7xx_HAL_Driver/Src/stm32h7xx_hal_exti.c **** 
 126:HAL_Lib/STM32H7xx_HAL_Driver/Src/stm32h7xx_hal_exti.c **** /** @addtogroup EXTI
 127:HAL_Lib/STM32H7xx_HAL_Driver/Src/stm32h7xx_hal_exti.c ****   * @{
 128:HAL_Lib/STM32H7xx_HAL_Driver/Src/stm32h7xx_hal_exti.c ****   */
 129:HAL_Lib/STM32H7xx_HAL_Driver/Src/stm32h7xx_hal_exti.c **** 
 130:HAL_Lib/STM32H7xx_HAL_Driver/Src/stm32h7xx_hal_exti.c **** #ifdef HAL_EXTI_MODULE_ENABLED
 131:HAL_Lib/STM32H7xx_HAL_Driver/Src/stm32h7xx_hal_exti.c **** 
 132:HAL_Lib/STM32H7xx_HAL_Driver/Src/stm32h7xx_hal_exti.c **** /* Private typedef -----------------------------------------------------------*/
 133:HAL_Lib/STM32H7xx_HAL_Driver/Src/stm32h7xx_hal_exti.c **** /* Private defines ------------------------------------------------------------*/
 134:HAL_Lib/STM32H7xx_HAL_Driver/Src/stm32h7xx_hal_exti.c **** /** @defgroup EXTI_Private_Constants EXTI Private Constants
 135:HAL_Lib/STM32H7xx_HAL_Driver/Src/stm32h7xx_hal_exti.c ****   * @{
 136:HAL_Lib/STM32H7xx_HAL_Driver/Src/stm32h7xx_hal_exti.c ****   */
 137:HAL_Lib/STM32H7xx_HAL_Driver/Src/stm32h7xx_hal_exti.c **** #define EXTI_MODE_OFFSET                    0x04U   /* 0x10: offset between CPU IMR/EMR registers *
 138:HAL_Lib/STM32H7xx_HAL_Driver/Src/stm32h7xx_hal_exti.c **** #define EXTI_CONFIG_OFFSET                  0x08U   /* 0x20: offset between CPU Rising/Falling conf
 139:HAL_Lib/STM32H7xx_HAL_Driver/Src/stm32h7xx_hal_exti.c **** /**
 140:HAL_Lib/STM32H7xx_HAL_Driver/Src/stm32h7xx_hal_exti.c ****   * @}
 141:HAL_Lib/STM32H7xx_HAL_Driver/Src/stm32h7xx_hal_exti.c ****   */
 142:HAL_Lib/STM32H7xx_HAL_Driver/Src/stm32h7xx_hal_exti.c **** 
 143:HAL_Lib/STM32H7xx_HAL_Driver/Src/stm32h7xx_hal_exti.c **** /* Private macros ------------------------------------------------------------*/
 144:HAL_Lib/STM32H7xx_HAL_Driver/Src/stm32h7xx_hal_exti.c **** /* Private variables ---------------------------------------------------------*/
ARM GAS  C:\Users\HUAV\AppData\Local\Temp\ccKNGijo.s 			page 4


 145:HAL_Lib/STM32H7xx_HAL_Driver/Src/stm32h7xx_hal_exti.c **** /* Private function prototypes -----------------------------------------------*/
 146:HAL_Lib/STM32H7xx_HAL_Driver/Src/stm32h7xx_hal_exti.c **** /* Exported functions --------------------------------------------------------*/
 147:HAL_Lib/STM32H7xx_HAL_Driver/Src/stm32h7xx_hal_exti.c **** 
 148:HAL_Lib/STM32H7xx_HAL_Driver/Src/stm32h7xx_hal_exti.c **** /** @addtogroup EXTI_Exported_Functions
 149:HAL_Lib/STM32H7xx_HAL_Driver/Src/stm32h7xx_hal_exti.c ****   * @{
 150:HAL_Lib/STM32H7xx_HAL_Driver/Src/stm32h7xx_hal_exti.c ****   */
 151:HAL_Lib/STM32H7xx_HAL_Driver/Src/stm32h7xx_hal_exti.c **** 
 152:HAL_Lib/STM32H7xx_HAL_Driver/Src/stm32h7xx_hal_exti.c **** /** @addtogroup EXTI_Exported_Functions_Group1
 153:HAL_Lib/STM32H7xx_HAL_Driver/Src/stm32h7xx_hal_exti.c ****  *  @brief    Configuration functions
 154:HAL_Lib/STM32H7xx_HAL_Driver/Src/stm32h7xx_hal_exti.c ****  *
 155:HAL_Lib/STM32H7xx_HAL_Driver/Src/stm32h7xx_hal_exti.c **** @verbatim
 156:HAL_Lib/STM32H7xx_HAL_Driver/Src/stm32h7xx_hal_exti.c ****  ===============================================================================
 157:HAL_Lib/STM32H7xx_HAL_Driver/Src/stm32h7xx_hal_exti.c ****               ##### Configuration functions #####
 158:HAL_Lib/STM32H7xx_HAL_Driver/Src/stm32h7xx_hal_exti.c ****  ===============================================================================
 159:HAL_Lib/STM32H7xx_HAL_Driver/Src/stm32h7xx_hal_exti.c **** 
 160:HAL_Lib/STM32H7xx_HAL_Driver/Src/stm32h7xx_hal_exti.c **** @endverbatim
 161:HAL_Lib/STM32H7xx_HAL_Driver/Src/stm32h7xx_hal_exti.c ****   * @{
 162:HAL_Lib/STM32H7xx_HAL_Driver/Src/stm32h7xx_hal_exti.c ****   */
 163:HAL_Lib/STM32H7xx_HAL_Driver/Src/stm32h7xx_hal_exti.c **** 
 164:HAL_Lib/STM32H7xx_HAL_Driver/Src/stm32h7xx_hal_exti.c **** /**
 165:HAL_Lib/STM32H7xx_HAL_Driver/Src/stm32h7xx_hal_exti.c ****   * @brief  Set configuration of a dedicated Exti line.
 166:HAL_Lib/STM32H7xx_HAL_Driver/Src/stm32h7xx_hal_exti.c ****   * @param  hexti Exti handle.
 167:HAL_Lib/STM32H7xx_HAL_Driver/Src/stm32h7xx_hal_exti.c ****   * @param  pExtiConfig Pointer on EXTI configuration to be set.
 168:HAL_Lib/STM32H7xx_HAL_Driver/Src/stm32h7xx_hal_exti.c ****   * @retval HAL Status.
 169:HAL_Lib/STM32H7xx_HAL_Driver/Src/stm32h7xx_hal_exti.c ****   */
 170:HAL_Lib/STM32H7xx_HAL_Driver/Src/stm32h7xx_hal_exti.c **** HAL_StatusTypeDef HAL_EXTI_SetConfigLine(EXTI_HandleTypeDef *hexti, EXTI_ConfigTypeDef *pExtiConfig
 171:HAL_Lib/STM32H7xx_HAL_Driver/Src/stm32h7xx_hal_exti.c **** {
  29              		.loc 1 171 1 view -0
  30              		.cfi_startproc
  31              		@ args = 0, pretend = 0, frame = 0
  32              		@ frame_needed = 0, uses_anonymous_args = 0
 172:HAL_Lib/STM32H7xx_HAL_Driver/Src/stm32h7xx_hal_exti.c ****   __IO uint32_t *regaddr;
  33              		.loc 1 172 3 view .LVU1
 173:HAL_Lib/STM32H7xx_HAL_Driver/Src/stm32h7xx_hal_exti.c ****   uint32_t regval;
  34              		.loc 1 173 3 view .LVU2
 174:HAL_Lib/STM32H7xx_HAL_Driver/Src/stm32h7xx_hal_exti.c ****   uint32_t linepos;
  35              		.loc 1 174 3 view .LVU3
 175:HAL_Lib/STM32H7xx_HAL_Driver/Src/stm32h7xx_hal_exti.c ****   uint32_t maskline;
  36              		.loc 1 175 3 view .LVU4
 176:HAL_Lib/STM32H7xx_HAL_Driver/Src/stm32h7xx_hal_exti.c ****   uint32_t offset;
  37              		.loc 1 176 3 view .LVU5
 177:HAL_Lib/STM32H7xx_HAL_Driver/Src/stm32h7xx_hal_exti.c ****   uint32_t pcrlinepos;
  38              		.loc 1 177 3 view .LVU6
 178:HAL_Lib/STM32H7xx_HAL_Driver/Src/stm32h7xx_hal_exti.c **** 
 179:HAL_Lib/STM32H7xx_HAL_Driver/Src/stm32h7xx_hal_exti.c ****   /* Check null pointer */
 180:HAL_Lib/STM32H7xx_HAL_Driver/Src/stm32h7xx_hal_exti.c ****   if ((hexti == NULL) || (pExtiConfig == NULL))
  39              		.loc 1 180 3 view .LVU7
  40              		.loc 1 180 39 is_stmt 0 view .LVU8
  41 0000 0B46     		mov	r3, r1
  42 0002 B1FA81F1 		clz	r1, r1
  43              	.LVL1:
  44              		.loc 1 180 39 view .LVU9
  45 0006 4909     		lsrs	r1, r1, #5
  46              		.loc 1 180 23 view .LVU10
  47 0008 0028     		cmp	r0, #0
  48 000a 08BF     		it	eq
  49 000c 0121     		moveq	r1, #1
ARM GAS  C:\Users\HUAV\AppData\Local\Temp\ccKNGijo.s 			page 5


  50              		.loc 1 180 6 view .LVU11
  51 000e 0029     		cmp	r1, #0
  52 0010 40F08A80 		bne	.L15
 171:HAL_Lib/STM32H7xx_HAL_Driver/Src/stm32h7xx_hal_exti.c ****   __IO uint32_t *regaddr;
  53              		.loc 1 171 1 view .LVU12
  54 0014 2DE9F041 		push	{r4, r5, r6, r7, r8, lr}
  55              	.LCFI0:
  56              		.cfi_def_cfa_offset 24
  57              		.cfi_offset 4, -24
  58              		.cfi_offset 5, -20
  59              		.cfi_offset 6, -16
  60              		.cfi_offset 7, -12
  61              		.cfi_offset 8, -8
  62              		.cfi_offset 14, -4
 181:HAL_Lib/STM32H7xx_HAL_Driver/Src/stm32h7xx_hal_exti.c ****   {
 182:HAL_Lib/STM32H7xx_HAL_Driver/Src/stm32h7xx_hal_exti.c ****     return HAL_ERROR;
 183:HAL_Lib/STM32H7xx_HAL_Driver/Src/stm32h7xx_hal_exti.c ****   }
 184:HAL_Lib/STM32H7xx_HAL_Driver/Src/stm32h7xx_hal_exti.c **** 
 185:HAL_Lib/STM32H7xx_HAL_Driver/Src/stm32h7xx_hal_exti.c ****   /* Check the parameters */
 186:HAL_Lib/STM32H7xx_HAL_Driver/Src/stm32h7xx_hal_exti.c ****   assert_param(IS_EXTI_LINE(pExtiConfig->Line));
  63              		.loc 1 186 3 is_stmt 1 view .LVU13
 187:HAL_Lib/STM32H7xx_HAL_Driver/Src/stm32h7xx_hal_exti.c ****   assert_param(IS_EXTI_MODE(pExtiConfig->Mode));
  64              		.loc 1 187 3 view .LVU14
 188:HAL_Lib/STM32H7xx_HAL_Driver/Src/stm32h7xx_hal_exti.c **** 
 189:HAL_Lib/STM32H7xx_HAL_Driver/Src/stm32h7xx_hal_exti.c ****   /* Assign line number to handle */
 190:HAL_Lib/STM32H7xx_HAL_Driver/Src/stm32h7xx_hal_exti.c ****   hexti->Line = pExtiConfig->Line;
  65              		.loc 1 190 3 view .LVU15
  66              		.loc 1 190 28 is_stmt 0 view .LVU16
  67 0018 1968     		ldr	r1, [r3]
  68              		.loc 1 190 15 view .LVU17
  69 001a 0160     		str	r1, [r0]
 191:HAL_Lib/STM32H7xx_HAL_Driver/Src/stm32h7xx_hal_exti.c **** 
 192:HAL_Lib/STM32H7xx_HAL_Driver/Src/stm32h7xx_hal_exti.c ****   /* compute line register offset and line mask */
 193:HAL_Lib/STM32H7xx_HAL_Driver/Src/stm32h7xx_hal_exti.c ****   offset = ((pExtiConfig->Line & EXTI_REG_MASK) >> EXTI_REG_SHIFT);
  70              		.loc 1 193 3 is_stmt 1 view .LVU18
  71              		.loc 1 193 10 is_stmt 0 view .LVU19
  72 001c C1F30144 		ubfx	r4, r1, #16, #2
  73              	.LVL2:
 194:HAL_Lib/STM32H7xx_HAL_Driver/Src/stm32h7xx_hal_exti.c ****   linepos = (pExtiConfig->Line & EXTI_PIN_MASK);
  74              		.loc 1 194 3 is_stmt 1 view .LVU20
  75              		.loc 1 194 11 is_stmt 0 view .LVU21
  76 0020 01F01F08 		and	r8, r1, #31
  77              	.LVL3:
 195:HAL_Lib/STM32H7xx_HAL_Driver/Src/stm32h7xx_hal_exti.c ****   maskline = (1UL << linepos);
  78              		.loc 1 195 3 is_stmt 1 view .LVU22
  79              		.loc 1 195 12 is_stmt 0 view .LVU23
  80 0024 0122     		movs	r2, #1
  81 0026 02FA08F2 		lsl	r2, r2, r8
  82              	.LVL4:
 196:HAL_Lib/STM32H7xx_HAL_Driver/Src/stm32h7xx_hal_exti.c **** 
 197:HAL_Lib/STM32H7xx_HAL_Driver/Src/stm32h7xx_hal_exti.c ****   /* Configure triggers for configurable lines */
 198:HAL_Lib/STM32H7xx_HAL_Driver/Src/stm32h7xx_hal_exti.c ****   if ((pExtiConfig->Line & EXTI_CONFIG) != 0x00U)
  83              		.loc 1 198 3 is_stmt 1 view .LVU24
  84              		.loc 1 198 6 is_stmt 0 view .LVU25
  85 002a 11F0007F 		tst	r1, #33554432
  86 002e 19D0     		beq	.L3
 199:HAL_Lib/STM32H7xx_HAL_Driver/Src/stm32h7xx_hal_exti.c ****   {
ARM GAS  C:\Users\HUAV\AppData\Local\Temp\ccKNGijo.s 			page 6


 200:HAL_Lib/STM32H7xx_HAL_Driver/Src/stm32h7xx_hal_exti.c ****     assert_param(IS_EXTI_TRIGGER(pExtiConfig->Trigger));
  87              		.loc 1 200 5 is_stmt 1 view .LVU26
 201:HAL_Lib/STM32H7xx_HAL_Driver/Src/stm32h7xx_hal_exti.c **** 
 202:HAL_Lib/STM32H7xx_HAL_Driver/Src/stm32h7xx_hal_exti.c ****     /* Configure rising trigger */
 203:HAL_Lib/STM32H7xx_HAL_Driver/Src/stm32h7xx_hal_exti.c ****     regaddr = (__IO uint32_t *)(&EXTI->RTSR1 + (EXTI_CONFIG_OFFSET * offset));
  88              		.loc 1 203 5 view .LVU27
  89              		.loc 1 203 15 is_stmt 0 view .LVU28
  90 0030 6001     		lsls	r0, r4, #5
  91              	.LVL5:
  92              		.loc 1 203 13 view .LVU29
  93 0032 00F1B04C 		add	ip, r0, #1476395008
  94              	.LVL6:
 204:HAL_Lib/STM32H7xx_HAL_Driver/Src/stm32h7xx_hal_exti.c ****     regval = *regaddr;
  95              		.loc 1 204 5 is_stmt 1 view .LVU30
  96              		.loc 1 204 12 is_stmt 0 view .LVU31
  97 0036 DCF80050 		ldr	r5, [ip]
  98              	.LVL7:
 205:HAL_Lib/STM32H7xx_HAL_Driver/Src/stm32h7xx_hal_exti.c **** 
 206:HAL_Lib/STM32H7xx_HAL_Driver/Src/stm32h7xx_hal_exti.c ****     /* Mask or set line */
 207:HAL_Lib/STM32H7xx_HAL_Driver/Src/stm32h7xx_hal_exti.c ****     if ((pExtiConfig->Trigger & EXTI_TRIGGER_RISING) != 0x00U)
  99              		.loc 1 207 5 is_stmt 1 view .LVU32
 100              		.loc 1 207 21 is_stmt 0 view .LVU33
 101 003a 9F68     		ldr	r7, [r3, #8]
 102              		.loc 1 207 8 view .LVU34
 103 003c 17F0010F 		tst	r7, #1
 104 0040 2AD0     		beq	.L4
 208:HAL_Lib/STM32H7xx_HAL_Driver/Src/stm32h7xx_hal_exti.c ****     {
 209:HAL_Lib/STM32H7xx_HAL_Driver/Src/stm32h7xx_hal_exti.c ****       regval |= maskline;
 105              		.loc 1 209 7 is_stmt 1 view .LVU35
 106              		.loc 1 209 14 is_stmt 0 view .LVU36
 107 0042 1543     		orrs	r5, r5, r2
 108              	.LVL8:
 109              	.L5:
 210:HAL_Lib/STM32H7xx_HAL_Driver/Src/stm32h7xx_hal_exti.c ****     }
 211:HAL_Lib/STM32H7xx_HAL_Driver/Src/stm32h7xx_hal_exti.c ****     else
 212:HAL_Lib/STM32H7xx_HAL_Driver/Src/stm32h7xx_hal_exti.c ****     {
 213:HAL_Lib/STM32H7xx_HAL_Driver/Src/stm32h7xx_hal_exti.c ****       regval &= ~maskline;
 214:HAL_Lib/STM32H7xx_HAL_Driver/Src/stm32h7xx_hal_exti.c ****     }
 215:HAL_Lib/STM32H7xx_HAL_Driver/Src/stm32h7xx_hal_exti.c **** 
 216:HAL_Lib/STM32H7xx_HAL_Driver/Src/stm32h7xx_hal_exti.c ****     /* Store rising trigger mode */
 217:HAL_Lib/STM32H7xx_HAL_Driver/Src/stm32h7xx_hal_exti.c ****     *regaddr = regval;
 110              		.loc 1 217 5 is_stmt 1 view .LVU37
 111              		.loc 1 217 14 is_stmt 0 view .LVU38
 112 0044 CCF80050 		str	r5, [ip]
 218:HAL_Lib/STM32H7xx_HAL_Driver/Src/stm32h7xx_hal_exti.c **** 
 219:HAL_Lib/STM32H7xx_HAL_Driver/Src/stm32h7xx_hal_exti.c ****     /* Configure falling trigger */
 220:HAL_Lib/STM32H7xx_HAL_Driver/Src/stm32h7xx_hal_exti.c ****     regaddr = (__IO uint32_t *)(&EXTI->FTSR1 + (EXTI_CONFIG_OFFSET * offset));
 113              		.loc 1 220 5 is_stmt 1 view .LVU39
 114              		.loc 1 220 13 is_stmt 0 view .LVU40
 115 0048 384F     		ldr	r7, .L23
 116              	.LVL9:
 221:HAL_Lib/STM32H7xx_HAL_Driver/Src/stm32h7xx_hal_exti.c ****     regval = *regaddr;
 117              		.loc 1 221 5 is_stmt 1 view .LVU41
 118              		.loc 1 221 12 is_stmt 0 view .LVU42
 119 004a C559     		ldr	r5, [r0, r7]
 120              	.LVL10:
 222:HAL_Lib/STM32H7xx_HAL_Driver/Src/stm32h7xx_hal_exti.c **** 
ARM GAS  C:\Users\HUAV\AppData\Local\Temp\ccKNGijo.s 			page 7


 223:HAL_Lib/STM32H7xx_HAL_Driver/Src/stm32h7xx_hal_exti.c ****     /* Mask or set line */
 224:HAL_Lib/STM32H7xx_HAL_Driver/Src/stm32h7xx_hal_exti.c ****     if ((pExtiConfig->Trigger & EXTI_TRIGGER_FALLING) != 0x00U)
 121              		.loc 1 224 5 is_stmt 1 view .LVU43
 122              		.loc 1 224 8 is_stmt 0 view .LVU44
 123 004c 9E68     		ldr	r6, [r3, #8]
 124 004e 16F0020F 		tst	r6, #2
 125 0052 24D0     		beq	.L6
 225:HAL_Lib/STM32H7xx_HAL_Driver/Src/stm32h7xx_hal_exti.c ****     {
 226:HAL_Lib/STM32H7xx_HAL_Driver/Src/stm32h7xx_hal_exti.c ****       regval |= maskline;
 126              		.loc 1 226 7 is_stmt 1 view .LVU45
 127              		.loc 1 226 14 is_stmt 0 view .LVU46
 128 0054 1543     		orrs	r5, r5, r2
 129              	.LVL11:
 130              	.L7:
 227:HAL_Lib/STM32H7xx_HAL_Driver/Src/stm32h7xx_hal_exti.c ****     }
 228:HAL_Lib/STM32H7xx_HAL_Driver/Src/stm32h7xx_hal_exti.c ****     else
 229:HAL_Lib/STM32H7xx_HAL_Driver/Src/stm32h7xx_hal_exti.c ****     {
 230:HAL_Lib/STM32H7xx_HAL_Driver/Src/stm32h7xx_hal_exti.c ****       regval &= ~maskline;
 231:HAL_Lib/STM32H7xx_HAL_Driver/Src/stm32h7xx_hal_exti.c ****     }
 232:HAL_Lib/STM32H7xx_HAL_Driver/Src/stm32h7xx_hal_exti.c **** 
 233:HAL_Lib/STM32H7xx_HAL_Driver/Src/stm32h7xx_hal_exti.c ****     /* Store falling trigger mode */
 234:HAL_Lib/STM32H7xx_HAL_Driver/Src/stm32h7xx_hal_exti.c ****     *regaddr = regval;
 131              		.loc 1 234 5 is_stmt 1 view .LVU47
 132              		.loc 1 234 14 is_stmt 0 view .LVU48
 133 0056 C551     		str	r5, [r0, r7]
 235:HAL_Lib/STM32H7xx_HAL_Driver/Src/stm32h7xx_hal_exti.c **** 
 236:HAL_Lib/STM32H7xx_HAL_Driver/Src/stm32h7xx_hal_exti.c ****     /* Configure gpio port selection in case of gpio exti line */
 237:HAL_Lib/STM32H7xx_HAL_Driver/Src/stm32h7xx_hal_exti.c ****     if ((pExtiConfig->Line & EXTI_GPIO) == EXTI_GPIO)
 134              		.loc 1 237 5 is_stmt 1 view .LVU49
 135              		.loc 1 237 21 is_stmt 0 view .LVU50
 136 0058 1868     		ldr	r0, [r3]
 137              	.LVL12:
 138              		.loc 1 237 28 view .LVU51
 139 005a 00F0C060 		and	r0, r0, #100663296
 140              		.loc 1 237 8 view .LVU52
 141 005e B0F1C06F 		cmp	r0, #100663296
 142 0062 1FD0     		beq	.L21
 143              	.LVL13:
 144              	.L3:
 238:HAL_Lib/STM32H7xx_HAL_Driver/Src/stm32h7xx_hal_exti.c ****     {
 239:HAL_Lib/STM32H7xx_HAL_Driver/Src/stm32h7xx_hal_exti.c ****       assert_param(IS_EXTI_GPIO_PORT(pExtiConfig->GPIOSel));
 240:HAL_Lib/STM32H7xx_HAL_Driver/Src/stm32h7xx_hal_exti.c ****       assert_param(IS_EXTI_GPIO_PIN(linepos));
 241:HAL_Lib/STM32H7xx_HAL_Driver/Src/stm32h7xx_hal_exti.c **** 
 242:HAL_Lib/STM32H7xx_HAL_Driver/Src/stm32h7xx_hal_exti.c ****       regval = SYSCFG->EXTICR[(linepos >> 2U) & 0x03UL];
 243:HAL_Lib/STM32H7xx_HAL_Driver/Src/stm32h7xx_hal_exti.c ****       regval &= ~(SYSCFG_EXTICR1_EXTI0 << (SYSCFG_EXTICR1_EXTI1_Pos * (linepos & 0x03U)));
 244:HAL_Lib/STM32H7xx_HAL_Driver/Src/stm32h7xx_hal_exti.c ****       regval |= (pExtiConfig->GPIOSel << (SYSCFG_EXTICR1_EXTI1_Pos * (linepos & 0x03U)));
 245:HAL_Lib/STM32H7xx_HAL_Driver/Src/stm32h7xx_hal_exti.c ****       SYSCFG->EXTICR[(linepos >> 2U) & 0x03UL] = regval;
 246:HAL_Lib/STM32H7xx_HAL_Driver/Src/stm32h7xx_hal_exti.c ****     }
 247:HAL_Lib/STM32H7xx_HAL_Driver/Src/stm32h7xx_hal_exti.c ****   }
 248:HAL_Lib/STM32H7xx_HAL_Driver/Src/stm32h7xx_hal_exti.c **** 
 249:HAL_Lib/STM32H7xx_HAL_Driver/Src/stm32h7xx_hal_exti.c ****   /* Configure interrupt mode : read current mode */
 250:HAL_Lib/STM32H7xx_HAL_Driver/Src/stm32h7xx_hal_exti.c ****   regaddr = (__IO uint32_t *)(&EXTI->IMR1 + (EXTI_MODE_OFFSET * offset));
 145              		.loc 1 250 3 is_stmt 1 view .LVU53
 146              		.loc 1 250 13 is_stmt 0 view .LVU54
 147 0064 2001     		lsls	r0, r4, #4
 148              		.loc 1 250 11 view .LVU55
 149 0066 324F     		ldr	r7, .L23+4
ARM GAS  C:\Users\HUAV\AppData\Local\Temp\ccKNGijo.s 			page 8


 150              	.LVL14:
 251:HAL_Lib/STM32H7xx_HAL_Driver/Src/stm32h7xx_hal_exti.c ****   regval = *regaddr;
 151              		.loc 1 251 3 is_stmt 1 view .LVU56
 152              		.loc 1 251 10 is_stmt 0 view .LVU57
 153 0068 C559     		ldr	r5, [r0, r7]
 154              	.LVL15:
 252:HAL_Lib/STM32H7xx_HAL_Driver/Src/stm32h7xx_hal_exti.c **** 
 253:HAL_Lib/STM32H7xx_HAL_Driver/Src/stm32h7xx_hal_exti.c ****   /* Mask or set line */
 254:HAL_Lib/STM32H7xx_HAL_Driver/Src/stm32h7xx_hal_exti.c ****   if ((pExtiConfig->Mode & EXTI_MODE_INTERRUPT) != 0x00U)
 155              		.loc 1 254 3 is_stmt 1 view .LVU58
 156              		.loc 1 254 6 is_stmt 0 view .LVU59
 157 006a 5E68     		ldr	r6, [r3, #4]
 158 006c 16F0010F 		tst	r6, #1
 159 0070 2DD0     		beq	.L8
 255:HAL_Lib/STM32H7xx_HAL_Driver/Src/stm32h7xx_hal_exti.c ****   {
 256:HAL_Lib/STM32H7xx_HAL_Driver/Src/stm32h7xx_hal_exti.c ****     regval |= maskline;
 160              		.loc 1 256 5 is_stmt 1 view .LVU60
 161              		.loc 1 256 12 is_stmt 0 view .LVU61
 162 0072 1543     		orrs	r5, r5, r2
 163              	.LVL16:
 164              	.L9:
 257:HAL_Lib/STM32H7xx_HAL_Driver/Src/stm32h7xx_hal_exti.c ****   }
 258:HAL_Lib/STM32H7xx_HAL_Driver/Src/stm32h7xx_hal_exti.c ****   else
 259:HAL_Lib/STM32H7xx_HAL_Driver/Src/stm32h7xx_hal_exti.c ****   {
 260:HAL_Lib/STM32H7xx_HAL_Driver/Src/stm32h7xx_hal_exti.c ****     regval &= ~maskline;
 261:HAL_Lib/STM32H7xx_HAL_Driver/Src/stm32h7xx_hal_exti.c ****   }
 262:HAL_Lib/STM32H7xx_HAL_Driver/Src/stm32h7xx_hal_exti.c **** 
 263:HAL_Lib/STM32H7xx_HAL_Driver/Src/stm32h7xx_hal_exti.c ****   /* Store interrupt mode */
 264:HAL_Lib/STM32H7xx_HAL_Driver/Src/stm32h7xx_hal_exti.c ****   *regaddr = regval;
 165              		.loc 1 264 3 is_stmt 1 view .LVU62
 166              		.loc 1 264 12 is_stmt 0 view .LVU63
 167 0074 C551     		str	r5, [r0, r7]
 265:HAL_Lib/STM32H7xx_HAL_Driver/Src/stm32h7xx_hal_exti.c **** 
 266:HAL_Lib/STM32H7xx_HAL_Driver/Src/stm32h7xx_hal_exti.c ****   /* The event mode cannot be configured if the line does not support it */
 267:HAL_Lib/STM32H7xx_HAL_Driver/Src/stm32h7xx_hal_exti.c ****   assert_param(((pExtiConfig->Line & EXTI_EVENT) == EXTI_EVENT) || ((pExtiConfig->Mode & EXTI_MODE_
 168              		.loc 1 267 3 is_stmt 1 view .LVU64
 268:HAL_Lib/STM32H7xx_HAL_Driver/Src/stm32h7xx_hal_exti.c **** 
 269:HAL_Lib/STM32H7xx_HAL_Driver/Src/stm32h7xx_hal_exti.c ****   /* Configure event mode : read current mode */
 270:HAL_Lib/STM32H7xx_HAL_Driver/Src/stm32h7xx_hal_exti.c ****   regaddr = (__IO uint32_t *)(&EXTI->EMR1 + (EXTI_MODE_OFFSET * offset));
 169              		.loc 1 270 3 view .LVU65
 170              		.loc 1 270 11 is_stmt 0 view .LVU66
 171 0076 2F4F     		ldr	r7, .L23+8
 172              	.LVL17:
 271:HAL_Lib/STM32H7xx_HAL_Driver/Src/stm32h7xx_hal_exti.c ****   regval = *regaddr;
 173              		.loc 1 271 3 is_stmt 1 view .LVU67
 174              		.loc 1 271 10 is_stmt 0 view .LVU68
 175 0078 C559     		ldr	r5, [r0, r7]
 176              	.LVL18:
 272:HAL_Lib/STM32H7xx_HAL_Driver/Src/stm32h7xx_hal_exti.c **** 
 273:HAL_Lib/STM32H7xx_HAL_Driver/Src/stm32h7xx_hal_exti.c ****   /* Mask or set line */
 274:HAL_Lib/STM32H7xx_HAL_Driver/Src/stm32h7xx_hal_exti.c ****   if ((pExtiConfig->Mode & EXTI_MODE_EVENT) != 0x00U)
 177              		.loc 1 274 3 is_stmt 1 view .LVU69
 178              		.loc 1 274 6 is_stmt 0 view .LVU70
 179 007a 5E68     		ldr	r6, [r3, #4]
 180 007c 16F0020F 		tst	r6, #2
 181 0080 28D0     		beq	.L10
 275:HAL_Lib/STM32H7xx_HAL_Driver/Src/stm32h7xx_hal_exti.c ****   {
ARM GAS  C:\Users\HUAV\AppData\Local\Temp\ccKNGijo.s 			page 9


 276:HAL_Lib/STM32H7xx_HAL_Driver/Src/stm32h7xx_hal_exti.c ****     regval |= maskline;
 182              		.loc 1 276 5 is_stmt 1 view .LVU71
 183              		.loc 1 276 12 is_stmt 0 view .LVU72
 184 0082 1543     		orrs	r5, r5, r2
 185              	.LVL19:
 186              	.L11:
 277:HAL_Lib/STM32H7xx_HAL_Driver/Src/stm32h7xx_hal_exti.c ****   }
 278:HAL_Lib/STM32H7xx_HAL_Driver/Src/stm32h7xx_hal_exti.c ****   else
 279:HAL_Lib/STM32H7xx_HAL_Driver/Src/stm32h7xx_hal_exti.c ****   {
 280:HAL_Lib/STM32H7xx_HAL_Driver/Src/stm32h7xx_hal_exti.c ****     regval &= ~maskline;
 281:HAL_Lib/STM32H7xx_HAL_Driver/Src/stm32h7xx_hal_exti.c ****   }
 282:HAL_Lib/STM32H7xx_HAL_Driver/Src/stm32h7xx_hal_exti.c **** 
 283:HAL_Lib/STM32H7xx_HAL_Driver/Src/stm32h7xx_hal_exti.c ****   /* Store event mode */
 284:HAL_Lib/STM32H7xx_HAL_Driver/Src/stm32h7xx_hal_exti.c ****   *regaddr = regval;
 187              		.loc 1 284 3 is_stmt 1 view .LVU73
 188              		.loc 1 284 12 is_stmt 0 view .LVU74
 189 0084 C551     		str	r5, [r0, r7]
 285:HAL_Lib/STM32H7xx_HAL_Driver/Src/stm32h7xx_hal_exti.c **** 
 286:HAL_Lib/STM32H7xx_HAL_Driver/Src/stm32h7xx_hal_exti.c **** #if defined (DUAL_CORE)
 287:HAL_Lib/STM32H7xx_HAL_Driver/Src/stm32h7xx_hal_exti.c ****   /* Configure interrupt mode for Core2 : read current mode */
 288:HAL_Lib/STM32H7xx_HAL_Driver/Src/stm32h7xx_hal_exti.c ****   regaddr = (__IO uint32_t *)(&EXTI->C2IMR1 + (EXTI_MODE_OFFSET * offset));
 289:HAL_Lib/STM32H7xx_HAL_Driver/Src/stm32h7xx_hal_exti.c ****   regval = *regaddr;
 290:HAL_Lib/STM32H7xx_HAL_Driver/Src/stm32h7xx_hal_exti.c **** 
 291:HAL_Lib/STM32H7xx_HAL_Driver/Src/stm32h7xx_hal_exti.c ****   /* Mask or set line */
 292:HAL_Lib/STM32H7xx_HAL_Driver/Src/stm32h7xx_hal_exti.c ****   if ((pExtiConfig->Mode & EXTI_MODE_CORE2_INTERRUPT) != 0x00U)
 293:HAL_Lib/STM32H7xx_HAL_Driver/Src/stm32h7xx_hal_exti.c ****   {
 294:HAL_Lib/STM32H7xx_HAL_Driver/Src/stm32h7xx_hal_exti.c ****     regval |= maskline;
 295:HAL_Lib/STM32H7xx_HAL_Driver/Src/stm32h7xx_hal_exti.c ****   }
 296:HAL_Lib/STM32H7xx_HAL_Driver/Src/stm32h7xx_hal_exti.c ****   else
 297:HAL_Lib/STM32H7xx_HAL_Driver/Src/stm32h7xx_hal_exti.c ****   {
 298:HAL_Lib/STM32H7xx_HAL_Driver/Src/stm32h7xx_hal_exti.c ****     regval &= ~maskline;
 299:HAL_Lib/STM32H7xx_HAL_Driver/Src/stm32h7xx_hal_exti.c ****   }
 300:HAL_Lib/STM32H7xx_HAL_Driver/Src/stm32h7xx_hal_exti.c **** 
 301:HAL_Lib/STM32H7xx_HAL_Driver/Src/stm32h7xx_hal_exti.c ****   /* Store interrupt mode */
 302:HAL_Lib/STM32H7xx_HAL_Driver/Src/stm32h7xx_hal_exti.c ****   *regaddr = regval;
 303:HAL_Lib/STM32H7xx_HAL_Driver/Src/stm32h7xx_hal_exti.c **** 
 304:HAL_Lib/STM32H7xx_HAL_Driver/Src/stm32h7xx_hal_exti.c ****   /* The event mode cannot be configured if the line does not support it */
 305:HAL_Lib/STM32H7xx_HAL_Driver/Src/stm32h7xx_hal_exti.c ****   assert_param(((pExtiConfig->Line & EXTI_EVENT) == EXTI_EVENT) || ((pExtiConfig->Mode & EXTI_MODE_
 306:HAL_Lib/STM32H7xx_HAL_Driver/Src/stm32h7xx_hal_exti.c **** 
 307:HAL_Lib/STM32H7xx_HAL_Driver/Src/stm32h7xx_hal_exti.c ****   /* Configure event mode : read current mode */
 308:HAL_Lib/STM32H7xx_HAL_Driver/Src/stm32h7xx_hal_exti.c ****   regaddr = (__IO uint32_t *)(&EXTI->C2EMR1 + (EXTI_MODE_OFFSET * offset));
 309:HAL_Lib/STM32H7xx_HAL_Driver/Src/stm32h7xx_hal_exti.c ****   regval = *regaddr;
 310:HAL_Lib/STM32H7xx_HAL_Driver/Src/stm32h7xx_hal_exti.c **** 
 311:HAL_Lib/STM32H7xx_HAL_Driver/Src/stm32h7xx_hal_exti.c ****   /* Mask or set line */
 312:HAL_Lib/STM32H7xx_HAL_Driver/Src/stm32h7xx_hal_exti.c ****   if ((pExtiConfig->Mode & EXTI_MODE_CORE2_EVENT) != 0x00U)
 313:HAL_Lib/STM32H7xx_HAL_Driver/Src/stm32h7xx_hal_exti.c ****   {
 314:HAL_Lib/STM32H7xx_HAL_Driver/Src/stm32h7xx_hal_exti.c ****     regval |= maskline;
 315:HAL_Lib/STM32H7xx_HAL_Driver/Src/stm32h7xx_hal_exti.c ****   }
 316:HAL_Lib/STM32H7xx_HAL_Driver/Src/stm32h7xx_hal_exti.c ****   else
 317:HAL_Lib/STM32H7xx_HAL_Driver/Src/stm32h7xx_hal_exti.c ****   {
 318:HAL_Lib/STM32H7xx_HAL_Driver/Src/stm32h7xx_hal_exti.c ****     regval &= ~maskline;
 319:HAL_Lib/STM32H7xx_HAL_Driver/Src/stm32h7xx_hal_exti.c ****   }
 320:HAL_Lib/STM32H7xx_HAL_Driver/Src/stm32h7xx_hal_exti.c **** 
 321:HAL_Lib/STM32H7xx_HAL_Driver/Src/stm32h7xx_hal_exti.c ****   /* Store event mode */
 322:HAL_Lib/STM32H7xx_HAL_Driver/Src/stm32h7xx_hal_exti.c ****   *regaddr = regval;
 323:HAL_Lib/STM32H7xx_HAL_Driver/Src/stm32h7xx_hal_exti.c **** #endif /* DUAL_CORE */
 324:HAL_Lib/STM32H7xx_HAL_Driver/Src/stm32h7xx_hal_exti.c **** 
ARM GAS  C:\Users\HUAV\AppData\Local\Temp\ccKNGijo.s 			page 10


 325:HAL_Lib/STM32H7xx_HAL_Driver/Src/stm32h7xx_hal_exti.c ****   /* Configure the D3 PendClear source in case of Wakeup target is Any */
 326:HAL_Lib/STM32H7xx_HAL_Driver/Src/stm32h7xx_hal_exti.c ****   if ((pExtiConfig->Line & EXTI_TARGET_MASK) == EXTI_TARGET_MSK_ALL)
 190              		.loc 1 326 3 is_stmt 1 view .LVU75
 191              		.loc 1 326 19 is_stmt 0 view .LVU76
 192 0086 1868     		ldr	r0, [r3]
 193              	.LVL20:
 194              		.loc 1 326 26 view .LVU77
 195 0088 00F44010 		and	r0, r0, #3145728
 196              		.loc 1 326 6 view .LVU78
 197 008c B0F5401F 		cmp	r0, #3145728
 198 0090 23D0     		beq	.L22
 327:HAL_Lib/STM32H7xx_HAL_Driver/Src/stm32h7xx_hal_exti.c ****   {
 328:HAL_Lib/STM32H7xx_HAL_Driver/Src/stm32h7xx_hal_exti.c ****     assert_param(IS_EXTI_D3_PENDCLR_SRC(pExtiConfig->PendClearSource));
 329:HAL_Lib/STM32H7xx_HAL_Driver/Src/stm32h7xx_hal_exti.c **** 
 330:HAL_Lib/STM32H7xx_HAL_Driver/Src/stm32h7xx_hal_exti.c ****     /*Calc the PMR register address for the given line */
 331:HAL_Lib/STM32H7xx_HAL_Driver/Src/stm32h7xx_hal_exti.c ****     regaddr = (__IO uint32_t *)(&EXTI->D3PMR1 + (EXTI_CONFIG_OFFSET * offset));
 332:HAL_Lib/STM32H7xx_HAL_Driver/Src/stm32h7xx_hal_exti.c ****     regval = *regaddr;
 333:HAL_Lib/STM32H7xx_HAL_Driver/Src/stm32h7xx_hal_exti.c **** 
 334:HAL_Lib/STM32H7xx_HAL_Driver/Src/stm32h7xx_hal_exti.c ****     if(pExtiConfig->PendClearSource == EXTI_D3_PENDCLR_SRC_NONE)
 335:HAL_Lib/STM32H7xx_HAL_Driver/Src/stm32h7xx_hal_exti.c ****     {
 336:HAL_Lib/STM32H7xx_HAL_Driver/Src/stm32h7xx_hal_exti.c ****       /* Clear D3PMRx register for the given line */
 337:HAL_Lib/STM32H7xx_HAL_Driver/Src/stm32h7xx_hal_exti.c ****       regval &= ~maskline;
 338:HAL_Lib/STM32H7xx_HAL_Driver/Src/stm32h7xx_hal_exti.c ****       /* Store D3PMRx register value */
 339:HAL_Lib/STM32H7xx_HAL_Driver/Src/stm32h7xx_hal_exti.c ****       *regaddr = regval;
 340:HAL_Lib/STM32H7xx_HAL_Driver/Src/stm32h7xx_hal_exti.c ****     }
 341:HAL_Lib/STM32H7xx_HAL_Driver/Src/stm32h7xx_hal_exti.c ****     else
 342:HAL_Lib/STM32H7xx_HAL_Driver/Src/stm32h7xx_hal_exti.c ****     {
 343:HAL_Lib/STM32H7xx_HAL_Driver/Src/stm32h7xx_hal_exti.c ****       /* Set D3PMRx register to 1 for the given line */
 344:HAL_Lib/STM32H7xx_HAL_Driver/Src/stm32h7xx_hal_exti.c ****       regval |= maskline;
 345:HAL_Lib/STM32H7xx_HAL_Driver/Src/stm32h7xx_hal_exti.c ****       /* Store D3PMRx register value */
 346:HAL_Lib/STM32H7xx_HAL_Driver/Src/stm32h7xx_hal_exti.c ****       *regaddr = regval;
 347:HAL_Lib/STM32H7xx_HAL_Driver/Src/stm32h7xx_hal_exti.c **** 
 348:HAL_Lib/STM32H7xx_HAL_Driver/Src/stm32h7xx_hal_exti.c ****       if(linepos < 16UL)
 349:HAL_Lib/STM32H7xx_HAL_Driver/Src/stm32h7xx_hal_exti.c ****       {
 350:HAL_Lib/STM32H7xx_HAL_Driver/Src/stm32h7xx_hal_exti.c ****         regaddr = (__IO uint32_t *)(&EXTI->D3PCR1L + (EXTI_CONFIG_OFFSET * offset));
 351:HAL_Lib/STM32H7xx_HAL_Driver/Src/stm32h7xx_hal_exti.c ****         pcrlinepos = 1UL << linepos;
 352:HAL_Lib/STM32H7xx_HAL_Driver/Src/stm32h7xx_hal_exti.c ****       }
 353:HAL_Lib/STM32H7xx_HAL_Driver/Src/stm32h7xx_hal_exti.c ****       else
 354:HAL_Lib/STM32H7xx_HAL_Driver/Src/stm32h7xx_hal_exti.c ****       {
 355:HAL_Lib/STM32H7xx_HAL_Driver/Src/stm32h7xx_hal_exti.c ****         regaddr = (__IO uint32_t *)(&EXTI->D3PCR1H + (EXTI_CONFIG_OFFSET * offset));
 356:HAL_Lib/STM32H7xx_HAL_Driver/Src/stm32h7xx_hal_exti.c ****         pcrlinepos = 1UL << (linepos - 16UL);
 357:HAL_Lib/STM32H7xx_HAL_Driver/Src/stm32h7xx_hal_exti.c ****       }
 358:HAL_Lib/STM32H7xx_HAL_Driver/Src/stm32h7xx_hal_exti.c **** 
 359:HAL_Lib/STM32H7xx_HAL_Driver/Src/stm32h7xx_hal_exti.c ****       regval = (*regaddr & (~(pcrlinepos * pcrlinepos * 3UL))) | (pcrlinepos * pcrlinepos * (pExtiC
 360:HAL_Lib/STM32H7xx_HAL_Driver/Src/stm32h7xx_hal_exti.c ****       *regaddr = regval;
 361:HAL_Lib/STM32H7xx_HAL_Driver/Src/stm32h7xx_hal_exti.c ****     }
 362:HAL_Lib/STM32H7xx_HAL_Driver/Src/stm32h7xx_hal_exti.c ****   }
 363:HAL_Lib/STM32H7xx_HAL_Driver/Src/stm32h7xx_hal_exti.c **** 
 364:HAL_Lib/STM32H7xx_HAL_Driver/Src/stm32h7xx_hal_exti.c ****   return HAL_OK;
 199              		.loc 1 364 10 view .LVU79
 200 0092 0020     		movs	r0, #0
 201              	.LVL21:
 202              	.L2:
 365:HAL_Lib/STM32H7xx_HAL_Driver/Src/stm32h7xx_hal_exti.c **** }
 203              		.loc 1 365 1 view .LVU80
 204 0094 BDE8F081 		pop	{r4, r5, r6, r7, r8, pc}
 205              	.LVL22:
ARM GAS  C:\Users\HUAV\AppData\Local\Temp\ccKNGijo.s 			page 11


 206              	.L4:
 213:HAL_Lib/STM32H7xx_HAL_Driver/Src/stm32h7xx_hal_exti.c ****     }
 207              		.loc 1 213 7 is_stmt 1 view .LVU81
 213:HAL_Lib/STM32H7xx_HAL_Driver/Src/stm32h7xx_hal_exti.c ****     }
 208              		.loc 1 213 14 is_stmt 0 view .LVU82
 209 0098 25EA0205 		bic	r5, r5, r2
 210              	.LVL23:
 213:HAL_Lib/STM32H7xx_HAL_Driver/Src/stm32h7xx_hal_exti.c ****     }
 211              		.loc 1 213 14 view .LVU83
 212 009c D2E7     		b	.L5
 213              	.LVL24:
 214              	.L6:
 230:HAL_Lib/STM32H7xx_HAL_Driver/Src/stm32h7xx_hal_exti.c ****     }
 215              		.loc 1 230 7 is_stmt 1 view .LVU84
 230:HAL_Lib/STM32H7xx_HAL_Driver/Src/stm32h7xx_hal_exti.c ****     }
 216              		.loc 1 230 14 is_stmt 0 view .LVU85
 217 009e 25EA0205 		bic	r5, r5, r2
 218              	.LVL25:
 230:HAL_Lib/STM32H7xx_HAL_Driver/Src/stm32h7xx_hal_exti.c ****     }
 219              		.loc 1 230 14 view .LVU86
 220 00a2 D8E7     		b	.L7
 221              	.LVL26:
 222              	.L21:
 239:HAL_Lib/STM32H7xx_HAL_Driver/Src/stm32h7xx_hal_exti.c ****       assert_param(IS_EXTI_GPIO_PIN(linepos));
 223              		.loc 1 239 7 is_stmt 1 view .LVU87
 240:HAL_Lib/STM32H7xx_HAL_Driver/Src/stm32h7xx_hal_exti.c **** 
 224              		.loc 1 240 7 view .LVU88
 242:HAL_Lib/STM32H7xx_HAL_Driver/Src/stm32h7xx_hal_exti.c ****       regval &= ~(SYSCFG_EXTICR1_EXTI0 << (SYSCFG_EXTICR1_EXTI1_Pos * (linepos & 0x03U)));
 225              		.loc 1 242 7 view .LVU89
 242:HAL_Lib/STM32H7xx_HAL_Driver/Src/stm32h7xx_hal_exti.c ****       regval &= ~(SYSCFG_EXTICR1_EXTI0 << (SYSCFG_EXTICR1_EXTI1_Pos * (linepos & 0x03U)));
 226              		.loc 1 242 47 is_stmt 0 view .LVU90
 227 00a4 C8F38100 		ubfx	r0, r8, #2, #2
 242:HAL_Lib/STM32H7xx_HAL_Driver/Src/stm32h7xx_hal_exti.c ****       regval &= ~(SYSCFG_EXTICR1_EXTI0 << (SYSCFG_EXTICR1_EXTI1_Pos * (linepos & 0x03U)));
 228              		.loc 1 242 14 view .LVU91
 229 00a8 DFF898E0 		ldr	lr, .L23+24
 230 00ac 0230     		adds	r0, r0, #2
 231 00ae 5EF820C0 		ldr	ip, [lr, r0, lsl #2]
 232              	.LVL27:
 243:HAL_Lib/STM32H7xx_HAL_Driver/Src/stm32h7xx_hal_exti.c ****       regval |= (pExtiConfig->GPIOSel << (SYSCFG_EXTICR1_EXTI1_Pos * (linepos & 0x03U)));
 233              		.loc 1 243 7 is_stmt 1 view .LVU92
 243:HAL_Lib/STM32H7xx_HAL_Driver/Src/stm32h7xx_hal_exti.c ****       regval |= (pExtiConfig->GPIOSel << (SYSCFG_EXTICR1_EXTI1_Pos * (linepos & 0x03U)));
 234              		.loc 1 243 80 is_stmt 0 view .LVU93
 235 00b2 01F00305 		and	r5, r1, #3
 243:HAL_Lib/STM32H7xx_HAL_Driver/Src/stm32h7xx_hal_exti.c ****       regval |= (pExtiConfig->GPIOSel << (SYSCFG_EXTICR1_EXTI1_Pos * (linepos & 0x03U)));
 236              		.loc 1 243 69 view .LVU94
 237 00b6 AF00     		lsls	r7, r5, #2
 238              	.LVL28:
 243:HAL_Lib/STM32H7xx_HAL_Driver/Src/stm32h7xx_hal_exti.c ****       regval |= (pExtiConfig->GPIOSel << (SYSCFG_EXTICR1_EXTI1_Pos * (linepos & 0x03U)));
 239              		.loc 1 243 40 view .LVU95
 240 00b8 0F25     		movs	r5, #15
 241 00ba BD40     		lsls	r5, r5, r7
 243:HAL_Lib/STM32H7xx_HAL_Driver/Src/stm32h7xx_hal_exti.c ****       regval |= (pExtiConfig->GPIOSel << (SYSCFG_EXTICR1_EXTI1_Pos * (linepos & 0x03U)));
 242              		.loc 1 243 14 view .LVU96
 243 00bc 2CEA050C 		bic	ip, ip, r5
 244              	.LVL29:
 244:HAL_Lib/STM32H7xx_HAL_Driver/Src/stm32h7xx_hal_exti.c ****       SYSCFG->EXTICR[(linepos >> 2U) & 0x03UL] = regval;
 245              		.loc 1 244 7 is_stmt 1 view .LVU97
ARM GAS  C:\Users\HUAV\AppData\Local\Temp\ccKNGijo.s 			page 12


 244:HAL_Lib/STM32H7xx_HAL_Driver/Src/stm32h7xx_hal_exti.c ****       SYSCFG->EXTICR[(linepos >> 2U) & 0x03UL] = regval;
 246              		.loc 1 244 29 is_stmt 0 view .LVU98
 247 00c0 DD68     		ldr	r5, [r3, #12]
 244:HAL_Lib/STM32H7xx_HAL_Driver/Src/stm32h7xx_hal_exti.c ****       SYSCFG->EXTICR[(linepos >> 2U) & 0x03UL] = regval;
 248              		.loc 1 244 39 view .LVU99
 249 00c2 BD40     		lsls	r5, r5, r7
 244:HAL_Lib/STM32H7xx_HAL_Driver/Src/stm32h7xx_hal_exti.c ****       SYSCFG->EXTICR[(linepos >> 2U) & 0x03UL] = regval;
 250              		.loc 1 244 14 view .LVU100
 251 00c4 45EA0C05 		orr	r5, r5, ip
 252              	.LVL30:
 245:HAL_Lib/STM32H7xx_HAL_Driver/Src/stm32h7xx_hal_exti.c ****     }
 253              		.loc 1 245 7 is_stmt 1 view .LVU101
 245:HAL_Lib/STM32H7xx_HAL_Driver/Src/stm32h7xx_hal_exti.c ****     }
 254              		.loc 1 245 48 is_stmt 0 view .LVU102
 255 00c8 4EF82050 		str	r5, [lr, r0, lsl #2]
 256 00cc CAE7     		b	.L3
 257              	.LVL31:
 258              	.L8:
 260:HAL_Lib/STM32H7xx_HAL_Driver/Src/stm32h7xx_hal_exti.c ****   }
 259              		.loc 1 260 5 is_stmt 1 view .LVU103
 260:HAL_Lib/STM32H7xx_HAL_Driver/Src/stm32h7xx_hal_exti.c ****   }
 260              		.loc 1 260 12 is_stmt 0 view .LVU104
 261 00ce 25EA0205 		bic	r5, r5, r2
 262              	.LVL32:
 260:HAL_Lib/STM32H7xx_HAL_Driver/Src/stm32h7xx_hal_exti.c ****   }
 263              		.loc 1 260 12 view .LVU105
 264 00d2 CFE7     		b	.L9
 265              	.L10:
 280:HAL_Lib/STM32H7xx_HAL_Driver/Src/stm32h7xx_hal_exti.c ****   }
 266              		.loc 1 280 5 is_stmt 1 view .LVU106
 280:HAL_Lib/STM32H7xx_HAL_Driver/Src/stm32h7xx_hal_exti.c ****   }
 267              		.loc 1 280 12 is_stmt 0 view .LVU107
 268 00d4 25EA0205 		bic	r5, r5, r2
 269              	.LVL33:
 280:HAL_Lib/STM32H7xx_HAL_Driver/Src/stm32h7xx_hal_exti.c ****   }
 270              		.loc 1 280 12 view .LVU108
 271 00d8 D4E7     		b	.L11
 272              	.LVL34:
 273              	.L22:
 328:HAL_Lib/STM32H7xx_HAL_Driver/Src/stm32h7xx_hal_exti.c **** 
 274              		.loc 1 328 5 is_stmt 1 view .LVU109
 331:HAL_Lib/STM32H7xx_HAL_Driver/Src/stm32h7xx_hal_exti.c ****     regval = *regaddr;
 275              		.loc 1 331 5 view .LVU110
 331:HAL_Lib/STM32H7xx_HAL_Driver/Src/stm32h7xx_hal_exti.c ****     regval = *regaddr;
 276              		.loc 1 331 15 is_stmt 0 view .LVU111
 277 00da 6401     		lsls	r4, r4, #5
 278              	.LVL35:
 331:HAL_Lib/STM32H7xx_HAL_Driver/Src/stm32h7xx_hal_exti.c ****     regval = *regaddr;
 279              		.loc 1 331 13 view .LVU112
 280 00dc 164D     		ldr	r5, .L23+12
 281              	.LVL36:
 332:HAL_Lib/STM32H7xx_HAL_Driver/Src/stm32h7xx_hal_exti.c **** 
 282              		.loc 1 332 5 is_stmt 1 view .LVU113
 332:HAL_Lib/STM32H7xx_HAL_Driver/Src/stm32h7xx_hal_exti.c **** 
 283              		.loc 1 332 12 is_stmt 0 view .LVU114
 284 00de 6059     		ldr	r0, [r4, r5]
 285              	.LVL37:
ARM GAS  C:\Users\HUAV\AppData\Local\Temp\ccKNGijo.s 			page 13


 334:HAL_Lib/STM32H7xx_HAL_Driver/Src/stm32h7xx_hal_exti.c ****     {
 286              		.loc 1 334 5 is_stmt 1 view .LVU115
 334:HAL_Lib/STM32H7xx_HAL_Driver/Src/stm32h7xx_hal_exti.c ****     {
 287              		.loc 1 334 19 is_stmt 0 view .LVU116
 288 00e0 1F69     		ldr	r7, [r3, #16]
 334:HAL_Lib/STM32H7xx_HAL_Driver/Src/stm32h7xx_hal_exti.c ****     {
 289              		.loc 1 334 7 view .LVU117
 290 00e2 27B9     		cbnz	r7, .L12
 337:HAL_Lib/STM32H7xx_HAL_Driver/Src/stm32h7xx_hal_exti.c ****       /* Store D3PMRx register value */
 291              		.loc 1 337 7 is_stmt 1 view .LVU118
 337:HAL_Lib/STM32H7xx_HAL_Driver/Src/stm32h7xx_hal_exti.c ****       /* Store D3PMRx register value */
 292              		.loc 1 337 14 is_stmt 0 view .LVU119
 293 00e4 20EA0202 		bic	r2, r0, r2
 294              	.LVL38:
 339:HAL_Lib/STM32H7xx_HAL_Driver/Src/stm32h7xx_hal_exti.c ****     }
 295              		.loc 1 339 7 is_stmt 1 view .LVU120
 339:HAL_Lib/STM32H7xx_HAL_Driver/Src/stm32h7xx_hal_exti.c ****     }
 296              		.loc 1 339 16 is_stmt 0 view .LVU121
 297 00e8 6251     		str	r2, [r4, r5]
 364:HAL_Lib/STM32H7xx_HAL_Driver/Src/stm32h7xx_hal_exti.c **** }
 298              		.loc 1 364 10 view .LVU122
 299 00ea 0020     		movs	r0, #0
 300 00ec D2E7     		b	.L2
 301              	.LVL39:
 302              	.L12:
 344:HAL_Lib/STM32H7xx_HAL_Driver/Src/stm32h7xx_hal_exti.c ****       /* Store D3PMRx register value */
 303              		.loc 1 344 7 is_stmt 1 view .LVU123
 344:HAL_Lib/STM32H7xx_HAL_Driver/Src/stm32h7xx_hal_exti.c ****       /* Store D3PMRx register value */
 304              		.loc 1 344 14 is_stmt 0 view .LVU124
 305 00ee 1043     		orrs	r0, r0, r2
 306              	.LVL40:
 346:HAL_Lib/STM32H7xx_HAL_Driver/Src/stm32h7xx_hal_exti.c **** 
 307              		.loc 1 346 7 is_stmt 1 view .LVU125
 346:HAL_Lib/STM32H7xx_HAL_Driver/Src/stm32h7xx_hal_exti.c **** 
 308              		.loc 1 346 16 is_stmt 0 view .LVU126
 309 00f0 6051     		str	r0, [r4, r5]
 348:HAL_Lib/STM32H7xx_HAL_Driver/Src/stm32h7xx_hal_exti.c ****       {
 310              		.loc 1 348 7 is_stmt 1 view .LVU127
 348:HAL_Lib/STM32H7xx_HAL_Driver/Src/stm32h7xx_hal_exti.c ****       {
 311              		.loc 1 348 9 is_stmt 0 view .LVU128
 312 00f2 11F0100F 		tst	r1, #16
 313 00f6 10D1     		bne	.L13
 350:HAL_Lib/STM32H7xx_HAL_Driver/Src/stm32h7xx_hal_exti.c ****         pcrlinepos = 1UL << linepos;
 314              		.loc 1 350 9 is_stmt 1 view .LVU129
 350:HAL_Lib/STM32H7xx_HAL_Driver/Src/stm32h7xx_hal_exti.c ****         pcrlinepos = 1UL << linepos;
 315              		.loc 1 350 17 is_stmt 0 view .LVU130
 316 00f8 1048     		ldr	r0, .L23+16
 317              	.LVL41:
 350:HAL_Lib/STM32H7xx_HAL_Driver/Src/stm32h7xx_hal_exti.c ****         pcrlinepos = 1UL << linepos;
 318              		.loc 1 350 17 view .LVU131
 319 00fa 2044     		add	r0, r0, r4
 320              	.LVL42:
 351:HAL_Lib/STM32H7xx_HAL_Driver/Src/stm32h7xx_hal_exti.c ****       }
 321              		.loc 1 351 9 is_stmt 1 view .LVU132
 322              	.L14:
 359:HAL_Lib/STM32H7xx_HAL_Driver/Src/stm32h7xx_hal_exti.c ****       *regaddr = regval;
 323              		.loc 1 359 7 view .LVU133
ARM GAS  C:\Users\HUAV\AppData\Local\Temp\ccKNGijo.s 			page 14


 359:HAL_Lib/STM32H7xx_HAL_Driver/Src/stm32h7xx_hal_exti.c ****       *regaddr = regval;
 324              		.loc 1 359 17 is_stmt 0 view .LVU134
 325 00fc 0168     		ldr	r1, [r0]
 326              	.LVL43:
 359:HAL_Lib/STM32H7xx_HAL_Driver/Src/stm32h7xx_hal_exti.c ****       *regaddr = regval;
 327              		.loc 1 359 42 view .LVU135
 328 00fe 02FB02F2 		mul	r2, r2, r2
 329              	.LVL44:
 359:HAL_Lib/STM32H7xx_HAL_Driver/Src/stm32h7xx_hal_exti.c ****       *regaddr = regval;
 330              		.loc 1 359 55 view .LVU136
 331 0102 02EB4204 		add	r4, r2, r2, lsl #1
 332              	.LVL45:
 359:HAL_Lib/STM32H7xx_HAL_Driver/Src/stm32h7xx_hal_exti.c ****       *regaddr = regval;
 333              		.loc 1 359 26 view .LVU137
 334 0106 21EA0401 		bic	r1, r1, r4
 359:HAL_Lib/STM32H7xx_HAL_Driver/Src/stm32h7xx_hal_exti.c ****       *regaddr = regval;
 335              		.loc 1 359 105 view .LVU138
 336 010a 1B69     		ldr	r3, [r3, #16]
 337              	.LVL46:
 359:HAL_Lib/STM32H7xx_HAL_Driver/Src/stm32h7xx_hal_exti.c ****       *regaddr = regval;
 338              		.loc 1 359 123 view .LVU139
 339 010c 013B     		subs	r3, r3, #1
 359:HAL_Lib/STM32H7xx_HAL_Driver/Src/stm32h7xx_hal_exti.c ****       *regaddr = regval;
 340              		.loc 1 359 91 view .LVU140
 341 010e 03FB02F2 		mul	r2, r3, r2
 359:HAL_Lib/STM32H7xx_HAL_Driver/Src/stm32h7xx_hal_exti.c ****       *regaddr = regval;
 342              		.loc 1 359 14 view .LVU141
 343 0112 0A43     		orrs	r2, r2, r1
 344              	.LVL47:
 360:HAL_Lib/STM32H7xx_HAL_Driver/Src/stm32h7xx_hal_exti.c ****     }
 345              		.loc 1 360 7 is_stmt 1 view .LVU142
 360:HAL_Lib/STM32H7xx_HAL_Driver/Src/stm32h7xx_hal_exti.c ****     }
 346              		.loc 1 360 16 is_stmt 0 view .LVU143
 347 0114 0260     		str	r2, [r0]
 364:HAL_Lib/STM32H7xx_HAL_Driver/Src/stm32h7xx_hal_exti.c **** }
 348              		.loc 1 364 10 view .LVU144
 349 0116 0020     		movs	r0, #0
 350              	.LVL48:
 364:HAL_Lib/STM32H7xx_HAL_Driver/Src/stm32h7xx_hal_exti.c **** }
 351              		.loc 1 364 10 view .LVU145
 352 0118 BCE7     		b	.L2
 353              	.LVL49:
 354              	.L13:
 355:HAL_Lib/STM32H7xx_HAL_Driver/Src/stm32h7xx_hal_exti.c ****         pcrlinepos = 1UL << (linepos - 16UL);
 355              		.loc 1 355 9 is_stmt 1 view .LVU146
 355:HAL_Lib/STM32H7xx_HAL_Driver/Src/stm32h7xx_hal_exti.c ****         pcrlinepos = 1UL << (linepos - 16UL);
 356              		.loc 1 355 17 is_stmt 0 view .LVU147
 357 011a 0948     		ldr	r0, .L23+20
 358              	.LVL50:
 355:HAL_Lib/STM32H7xx_HAL_Driver/Src/stm32h7xx_hal_exti.c ****         pcrlinepos = 1UL << (linepos - 16UL);
 359              		.loc 1 355 17 view .LVU148
 360 011c 2044     		add	r0, r0, r4
 361              	.LVL51:
 356:HAL_Lib/STM32H7xx_HAL_Driver/Src/stm32h7xx_hal_exti.c ****       }
 362              		.loc 1 356 9 is_stmt 1 view .LVU149
 356:HAL_Lib/STM32H7xx_HAL_Driver/Src/stm32h7xx_hal_exti.c ****       }
 363              		.loc 1 356 38 is_stmt 0 view .LVU150
ARM GAS  C:\Users\HUAV\AppData\Local\Temp\ccKNGijo.s 			page 15


 364 011e A8F11006 		sub	r6, r8, #16
 356:HAL_Lib/STM32H7xx_HAL_Driver/Src/stm32h7xx_hal_exti.c ****       }
 365              		.loc 1 356 20 view .LVU151
 366 0122 0122     		movs	r2, #1
 367              	.LVL52:
 356:HAL_Lib/STM32H7xx_HAL_Driver/Src/stm32h7xx_hal_exti.c ****       }
 368              		.loc 1 356 20 view .LVU152
 369 0124 B240     		lsls	r2, r2, r6
 370              	.LVL53:
 356:HAL_Lib/STM32H7xx_HAL_Driver/Src/stm32h7xx_hal_exti.c ****       }
 371              		.loc 1 356 20 view .LVU153
 372 0126 E9E7     		b	.L14
 373              	.LVL54:
 374              	.L15:
 375              	.LCFI1:
 376              		.cfi_def_cfa_offset 0
 377              		.cfi_restore 4
 378              		.cfi_restore 5
 379              		.cfi_restore 6
 380              		.cfi_restore 7
 381              		.cfi_restore 8
 382              		.cfi_restore 14
 182:HAL_Lib/STM32H7xx_HAL_Driver/Src/stm32h7xx_hal_exti.c ****   }
 383              		.loc 1 182 12 view .LVU154
 384 0128 0120     		movs	r0, #1
 385              	.LVL55:
 386              		.loc 1 365 1 view .LVU155
 387 012a 7047     		bx	lr
 388              	.L24:
 389              		.align	2
 390              	.L23:
 391 012c 04000058 		.word	1476395012
 392 0130 80000058 		.word	1476395136
 393 0134 84000058 		.word	1476395140
 394 0138 0C000058 		.word	1476395020
 395 013c 10000058 		.word	1476395024
 396 0140 14000058 		.word	1476395028
 397 0144 00040058 		.word	1476396032
 398              		.cfi_endproc
 399              	.LFE144:
 401              		.section	.text.HAL_EXTI_GetConfigLine,"ax",%progbits
 402              		.align	1
 403              		.global	HAL_EXTI_GetConfigLine
 404              		.syntax unified
 405              		.thumb
 406              		.thumb_func
 407              		.fpu fpv5-d16
 409              	HAL_EXTI_GetConfigLine:
 410              	.LVL56:
 411              	.LFB145:
 366:HAL_Lib/STM32H7xx_HAL_Driver/Src/stm32h7xx_hal_exti.c **** 
 367:HAL_Lib/STM32H7xx_HAL_Driver/Src/stm32h7xx_hal_exti.c **** 
 368:HAL_Lib/STM32H7xx_HAL_Driver/Src/stm32h7xx_hal_exti.c **** /**
 369:HAL_Lib/STM32H7xx_HAL_Driver/Src/stm32h7xx_hal_exti.c ****   * @brief  Get configuration of a dedicated Exti line.
 370:HAL_Lib/STM32H7xx_HAL_Driver/Src/stm32h7xx_hal_exti.c ****   * @param  hexti Exti handle.
 371:HAL_Lib/STM32H7xx_HAL_Driver/Src/stm32h7xx_hal_exti.c ****   * @param  pExtiConfig Pointer on structure to store Exti configuration.
 372:HAL_Lib/STM32H7xx_HAL_Driver/Src/stm32h7xx_hal_exti.c ****   * @retval HAL Status.
ARM GAS  C:\Users\HUAV\AppData\Local\Temp\ccKNGijo.s 			page 16


 373:HAL_Lib/STM32H7xx_HAL_Driver/Src/stm32h7xx_hal_exti.c ****   */
 374:HAL_Lib/STM32H7xx_HAL_Driver/Src/stm32h7xx_hal_exti.c **** HAL_StatusTypeDef HAL_EXTI_GetConfigLine(EXTI_HandleTypeDef *hexti, EXTI_ConfigTypeDef *pExtiConfig
 375:HAL_Lib/STM32H7xx_HAL_Driver/Src/stm32h7xx_hal_exti.c **** {
 412              		.loc 1 375 1 is_stmt 1 view -0
 413              		.cfi_startproc
 414              		@ args = 0, pretend = 0, frame = 0
 415              		@ frame_needed = 0, uses_anonymous_args = 0
 416              		@ link register save eliminated.
 376:HAL_Lib/STM32H7xx_HAL_Driver/Src/stm32h7xx_hal_exti.c ****   __IO uint32_t *regaddr;
 417              		.loc 1 376 3 view .LVU157
 377:HAL_Lib/STM32H7xx_HAL_Driver/Src/stm32h7xx_hal_exti.c ****   uint32_t regval;
 418              		.loc 1 377 3 view .LVU158
 378:HAL_Lib/STM32H7xx_HAL_Driver/Src/stm32h7xx_hal_exti.c ****   uint32_t linepos;
 419              		.loc 1 378 3 view .LVU159
 379:HAL_Lib/STM32H7xx_HAL_Driver/Src/stm32h7xx_hal_exti.c ****   uint32_t maskline;
 420              		.loc 1 379 3 view .LVU160
 380:HAL_Lib/STM32H7xx_HAL_Driver/Src/stm32h7xx_hal_exti.c ****   uint32_t offset;
 421              		.loc 1 380 3 view .LVU161
 381:HAL_Lib/STM32H7xx_HAL_Driver/Src/stm32h7xx_hal_exti.c ****   uint32_t pcrlinepos;
 422              		.loc 1 381 3 view .LVU162
 382:HAL_Lib/STM32H7xx_HAL_Driver/Src/stm32h7xx_hal_exti.c **** 
 383:HAL_Lib/STM32H7xx_HAL_Driver/Src/stm32h7xx_hal_exti.c ****   /* Check null pointer */
 384:HAL_Lib/STM32H7xx_HAL_Driver/Src/stm32h7xx_hal_exti.c ****   if ((hexti == NULL) || (pExtiConfig == NULL))
 423              		.loc 1 384 3 view .LVU163
 424              		.loc 1 384 39 is_stmt 0 view .LVU164
 425 0000 0B46     		mov	r3, r1
 426 0002 B1FA81F1 		clz	r1, r1
 427              	.LVL57:
 428              		.loc 1 384 39 view .LVU165
 429 0006 4909     		lsrs	r1, r1, #5
 430              		.loc 1 384 23 view .LVU166
 431 0008 0028     		cmp	r0, #0
 432 000a 08BF     		it	eq
 433 000c 0121     		moveq	r1, #1
 434              		.loc 1 384 6 view .LVU167
 435 000e 0029     		cmp	r1, #0
 436 0010 68D1     		bne	.L34
 375:HAL_Lib/STM32H7xx_HAL_Driver/Src/stm32h7xx_hal_exti.c ****   __IO uint32_t *regaddr;
 437              		.loc 1 375 1 view .LVU168
 438 0012 F0B4     		push	{r4, r5, r6, r7}
 439              	.LCFI2:
 440              		.cfi_def_cfa_offset 16
 441              		.cfi_offset 4, -16
 442              		.cfi_offset 5, -12
 443              		.cfi_offset 6, -8
 444              		.cfi_offset 7, -4
 385:HAL_Lib/STM32H7xx_HAL_Driver/Src/stm32h7xx_hal_exti.c ****   {
 386:HAL_Lib/STM32H7xx_HAL_Driver/Src/stm32h7xx_hal_exti.c ****     return HAL_ERROR;
 387:HAL_Lib/STM32H7xx_HAL_Driver/Src/stm32h7xx_hal_exti.c ****   }
 388:HAL_Lib/STM32H7xx_HAL_Driver/Src/stm32h7xx_hal_exti.c **** 
 389:HAL_Lib/STM32H7xx_HAL_Driver/Src/stm32h7xx_hal_exti.c ****   /* Check the parameter */
 390:HAL_Lib/STM32H7xx_HAL_Driver/Src/stm32h7xx_hal_exti.c ****   assert_param(IS_EXTI_LINE(hexti->Line));
 445              		.loc 1 390 3 is_stmt 1 view .LVU169
 391:HAL_Lib/STM32H7xx_HAL_Driver/Src/stm32h7xx_hal_exti.c **** 
 392:HAL_Lib/STM32H7xx_HAL_Driver/Src/stm32h7xx_hal_exti.c ****   /* Store handle line number to configuration structure */
 393:HAL_Lib/STM32H7xx_HAL_Driver/Src/stm32h7xx_hal_exti.c ****   pExtiConfig->Line = hexti->Line;
 446              		.loc 1 393 3 view .LVU170
ARM GAS  C:\Users\HUAV\AppData\Local\Temp\ccKNGijo.s 			page 17


 447              		.loc 1 393 28 is_stmt 0 view .LVU171
 448 0014 0168     		ldr	r1, [r0]
 449              		.loc 1 393 21 view .LVU172
 450 0016 1960     		str	r1, [r3]
 394:HAL_Lib/STM32H7xx_HAL_Driver/Src/stm32h7xx_hal_exti.c **** 
 395:HAL_Lib/STM32H7xx_HAL_Driver/Src/stm32h7xx_hal_exti.c ****   /* compute line register offset and line mask */
 396:HAL_Lib/STM32H7xx_HAL_Driver/Src/stm32h7xx_hal_exti.c ****   offset = ((pExtiConfig->Line & EXTI_REG_MASK) >> EXTI_REG_SHIFT);
 451              		.loc 1 396 3 is_stmt 1 view .LVU173
 452              		.loc 1 396 10 is_stmt 0 view .LVU174
 453 0018 C1F30140 		ubfx	r0, r1, #16, #2
 454              	.LVL58:
 397:HAL_Lib/STM32H7xx_HAL_Driver/Src/stm32h7xx_hal_exti.c ****   linepos = (pExtiConfig->Line & EXTI_PIN_MASK);
 455              		.loc 1 397 3 is_stmt 1 view .LVU175
 456              		.loc 1 397 11 is_stmt 0 view .LVU176
 457 001c 01F01F05 		and	r5, r1, #31
 458              	.LVL59:
 398:HAL_Lib/STM32H7xx_HAL_Driver/Src/stm32h7xx_hal_exti.c ****   maskline = (1UL << linepos);
 459              		.loc 1 398 3 is_stmt 1 view .LVU177
 460              		.loc 1 398 12 is_stmt 0 view .LVU178
 461 0020 0122     		movs	r2, #1
 462 0022 AA40     		lsls	r2, r2, r5
 463              	.LVL60:
 399:HAL_Lib/STM32H7xx_HAL_Driver/Src/stm32h7xx_hal_exti.c **** 
 400:HAL_Lib/STM32H7xx_HAL_Driver/Src/stm32h7xx_hal_exti.c ****   /* 1] Get core mode : interrupt */
 401:HAL_Lib/STM32H7xx_HAL_Driver/Src/stm32h7xx_hal_exti.c ****   regaddr = (__IO uint32_t *)(&EXTI->IMR1 + (EXTI_MODE_OFFSET * offset));
 464              		.loc 1 401 3 is_stmt 1 view .LVU179
 465              		.loc 1 401 13 is_stmt 0 view .LVU180
 466 0024 0401     		lsls	r4, r0, #4
 467              		.loc 1 401 11 view .LVU181
 468 0026 314E     		ldr	r6, .L43
 469              	.LVL61:
 402:HAL_Lib/STM32H7xx_HAL_Driver/Src/stm32h7xx_hal_exti.c ****   regval = *regaddr;
 470              		.loc 1 402 3 is_stmt 1 view .LVU182
 471              		.loc 1 402 10 is_stmt 0 view .LVU183
 472 0028 A659     		ldr	r6, [r4, r6]
 473              	.LVL62:
 403:HAL_Lib/STM32H7xx_HAL_Driver/Src/stm32h7xx_hal_exti.c **** 
 404:HAL_Lib/STM32H7xx_HAL_Driver/Src/stm32h7xx_hal_exti.c ****   pExtiConfig->Mode = EXTI_MODE_NONE;
 474              		.loc 1 404 3 is_stmt 1 view .LVU184
 475              		.loc 1 404 21 is_stmt 0 view .LVU185
 476 002a 0027     		movs	r7, #0
 477 002c 5F60     		str	r7, [r3, #4]
 405:HAL_Lib/STM32H7xx_HAL_Driver/Src/stm32h7xx_hal_exti.c **** 
 406:HAL_Lib/STM32H7xx_HAL_Driver/Src/stm32h7xx_hal_exti.c ****   /* Check if selected line is enable */
 407:HAL_Lib/STM32H7xx_HAL_Driver/Src/stm32h7xx_hal_exti.c ****   if ((regval & maskline) != 0x00U)
 478              		.loc 1 407 3 is_stmt 1 view .LVU186
 479              		.loc 1 407 6 is_stmt 0 view .LVU187
 480 002e 3242     		tst	r2, r6
 481 0030 01D0     		beq	.L27
 408:HAL_Lib/STM32H7xx_HAL_Driver/Src/stm32h7xx_hal_exti.c ****   {
 409:HAL_Lib/STM32H7xx_HAL_Driver/Src/stm32h7xx_hal_exti.c ****     pExtiConfig->Mode = EXTI_MODE_INTERRUPT;
 482              		.loc 1 409 5 is_stmt 1 view .LVU188
 483              		.loc 1 409 23 is_stmt 0 view .LVU189
 484 0032 0126     		movs	r6, #1
 485              	.LVL63:
 486              		.loc 1 409 23 view .LVU190
 487 0034 5E60     		str	r6, [r3, #4]
ARM GAS  C:\Users\HUAV\AppData\Local\Temp\ccKNGijo.s 			page 18


 488              	.L27:
 410:HAL_Lib/STM32H7xx_HAL_Driver/Src/stm32h7xx_hal_exti.c ****   }
 411:HAL_Lib/STM32H7xx_HAL_Driver/Src/stm32h7xx_hal_exti.c **** 
 412:HAL_Lib/STM32H7xx_HAL_Driver/Src/stm32h7xx_hal_exti.c ****   /* Get event mode */
 413:HAL_Lib/STM32H7xx_HAL_Driver/Src/stm32h7xx_hal_exti.c ****   regaddr = (__IO uint32_t *)(&EXTI->EMR1 + (EXTI_MODE_OFFSET * offset));
 489              		.loc 1 413 3 is_stmt 1 view .LVU191
 490              		.loc 1 413 11 is_stmt 0 view .LVU192
 491 0036 2E4E     		ldr	r6, .L43+4
 492              	.LVL64:
 414:HAL_Lib/STM32H7xx_HAL_Driver/Src/stm32h7xx_hal_exti.c ****   regval = *regaddr;
 493              		.loc 1 414 3 is_stmt 1 view .LVU193
 494              		.loc 1 414 10 is_stmt 0 view .LVU194
 495 0038 A459     		ldr	r4, [r4, r6]
 496              	.LVL65:
 415:HAL_Lib/STM32H7xx_HAL_Driver/Src/stm32h7xx_hal_exti.c **** 
 416:HAL_Lib/STM32H7xx_HAL_Driver/Src/stm32h7xx_hal_exti.c ****   /* Check if selected line is enable */
 417:HAL_Lib/STM32H7xx_HAL_Driver/Src/stm32h7xx_hal_exti.c ****   if ((regval & maskline) != 0x00U)
 497              		.loc 1 417 3 is_stmt 1 view .LVU195
 498              		.loc 1 417 6 is_stmt 0 view .LVU196
 499 003a 2242     		tst	r2, r4
 500 003c 03D0     		beq	.L28
 418:HAL_Lib/STM32H7xx_HAL_Driver/Src/stm32h7xx_hal_exti.c ****   {
 419:HAL_Lib/STM32H7xx_HAL_Driver/Src/stm32h7xx_hal_exti.c ****     pExtiConfig->Mode |= EXTI_MODE_EVENT;
 501              		.loc 1 419 5 is_stmt 1 view .LVU197
 502              		.loc 1 419 23 is_stmt 0 view .LVU198
 503 003e 5C68     		ldr	r4, [r3, #4]
 504              	.LVL66:
 505              		.loc 1 419 23 view .LVU199
 506 0040 44F00204 		orr	r4, r4, #2
 507 0044 5C60     		str	r4, [r3, #4]
 508              	.L28:
 420:HAL_Lib/STM32H7xx_HAL_Driver/Src/stm32h7xx_hal_exti.c ****   }
 421:HAL_Lib/STM32H7xx_HAL_Driver/Src/stm32h7xx_hal_exti.c **** #if defined (DUAL_CORE)
 422:HAL_Lib/STM32H7xx_HAL_Driver/Src/stm32h7xx_hal_exti.c ****   regaddr = (__IO uint32_t *)(&EXTI->C2IMR1 + (EXTI_MODE_OFFSET * offset));
 423:HAL_Lib/STM32H7xx_HAL_Driver/Src/stm32h7xx_hal_exti.c ****   regval = *regaddr;
 424:HAL_Lib/STM32H7xx_HAL_Driver/Src/stm32h7xx_hal_exti.c **** 
 425:HAL_Lib/STM32H7xx_HAL_Driver/Src/stm32h7xx_hal_exti.c ****   /* Check if selected line is enable */
 426:HAL_Lib/STM32H7xx_HAL_Driver/Src/stm32h7xx_hal_exti.c ****   if ((regval & maskline) != 0x00U)
 427:HAL_Lib/STM32H7xx_HAL_Driver/Src/stm32h7xx_hal_exti.c ****   {
 428:HAL_Lib/STM32H7xx_HAL_Driver/Src/stm32h7xx_hal_exti.c ****     pExtiConfig->Mode = EXTI_MODE_CORE2_INTERRUPT;
 429:HAL_Lib/STM32H7xx_HAL_Driver/Src/stm32h7xx_hal_exti.c ****   }
 430:HAL_Lib/STM32H7xx_HAL_Driver/Src/stm32h7xx_hal_exti.c **** 
 431:HAL_Lib/STM32H7xx_HAL_Driver/Src/stm32h7xx_hal_exti.c ****   /* Get event mode */
 432:HAL_Lib/STM32H7xx_HAL_Driver/Src/stm32h7xx_hal_exti.c ****   regaddr = (__IO uint32_t *)(&EXTI->C2EMR1 + (EXTI_MODE_OFFSET * offset));
 433:HAL_Lib/STM32H7xx_HAL_Driver/Src/stm32h7xx_hal_exti.c ****   regval = *regaddr;
 434:HAL_Lib/STM32H7xx_HAL_Driver/Src/stm32h7xx_hal_exti.c **** 
 435:HAL_Lib/STM32H7xx_HAL_Driver/Src/stm32h7xx_hal_exti.c ****   /* Check if selected line is enable */
 436:HAL_Lib/STM32H7xx_HAL_Driver/Src/stm32h7xx_hal_exti.c ****   if ((regval & maskline) != 0x00U)
 437:HAL_Lib/STM32H7xx_HAL_Driver/Src/stm32h7xx_hal_exti.c ****   {
 438:HAL_Lib/STM32H7xx_HAL_Driver/Src/stm32h7xx_hal_exti.c ****     pExtiConfig->Mode |= EXTI_MODE_CORE2_EVENT;
 439:HAL_Lib/STM32H7xx_HAL_Driver/Src/stm32h7xx_hal_exti.c ****   }
 440:HAL_Lib/STM32H7xx_HAL_Driver/Src/stm32h7xx_hal_exti.c **** #endif /*DUAL_CORE*/
 441:HAL_Lib/STM32H7xx_HAL_Driver/Src/stm32h7xx_hal_exti.c **** 
 442:HAL_Lib/STM32H7xx_HAL_Driver/Src/stm32h7xx_hal_exti.c ****   /* Get default Trigger and GPIOSel configuration */
 443:HAL_Lib/STM32H7xx_HAL_Driver/Src/stm32h7xx_hal_exti.c ****   pExtiConfig->Trigger = EXTI_TRIGGER_NONE;
 509              		.loc 1 443 3 is_stmt 1 view .LVU200
 510              		.loc 1 443 24 is_stmt 0 view .LVU201
ARM GAS  C:\Users\HUAV\AppData\Local\Temp\ccKNGijo.s 			page 19


 511 0046 0024     		movs	r4, #0
 512 0048 9C60     		str	r4, [r3, #8]
 444:HAL_Lib/STM32H7xx_HAL_Driver/Src/stm32h7xx_hal_exti.c ****   pExtiConfig->GPIOSel = 0x00U;
 513              		.loc 1 444 3 is_stmt 1 view .LVU202
 514              		.loc 1 444 24 is_stmt 0 view .LVU203
 515 004a DC60     		str	r4, [r3, #12]
 445:HAL_Lib/STM32H7xx_HAL_Driver/Src/stm32h7xx_hal_exti.c **** 
 446:HAL_Lib/STM32H7xx_HAL_Driver/Src/stm32h7xx_hal_exti.c ****   /* 2] Get trigger for configurable lines : rising */
 447:HAL_Lib/STM32H7xx_HAL_Driver/Src/stm32h7xx_hal_exti.c ****   if ((pExtiConfig->Line & EXTI_CONFIG) != 0x00U)
 516              		.loc 1 447 3 is_stmt 1 view .LVU204
 517              		.loc 1 447 6 is_stmt 0 view .LVU205
 518 004c 11F0007F 		tst	r1, #33554432
 519 0050 14D0     		beq	.L29
 448:HAL_Lib/STM32H7xx_HAL_Driver/Src/stm32h7xx_hal_exti.c ****   {
 449:HAL_Lib/STM32H7xx_HAL_Driver/Src/stm32h7xx_hal_exti.c ****     regaddr = (__IO uint32_t *)(&EXTI->RTSR1 + (EXTI_CONFIG_OFFSET * offset));
 520              		.loc 1 449 5 is_stmt 1 view .LVU206
 521              		.loc 1 449 15 is_stmt 0 view .LVU207
 522 0052 4401     		lsls	r4, r0, #5
 523              		.loc 1 449 13 view .LVU208
 524 0054 04F1B046 		add	r6, r4, #1476395008
 525              	.LVL67:
 450:HAL_Lib/STM32H7xx_HAL_Driver/Src/stm32h7xx_hal_exti.c ****     regval = *regaddr;
 526              		.loc 1 450 5 is_stmt 1 view .LVU209
 527              		.loc 1 450 12 is_stmt 0 view .LVU210
 528 0058 3668     		ldr	r6, [r6]
 529              	.LVL68:
 451:HAL_Lib/STM32H7xx_HAL_Driver/Src/stm32h7xx_hal_exti.c **** 
 452:HAL_Lib/STM32H7xx_HAL_Driver/Src/stm32h7xx_hal_exti.c ****     /* Check if configuration of selected line is enable */
 453:HAL_Lib/STM32H7xx_HAL_Driver/Src/stm32h7xx_hal_exti.c ****     if ((regval & maskline) != 0x00U)
 530              		.loc 1 453 5 is_stmt 1 view .LVU211
 531              		.loc 1 453 8 is_stmt 0 view .LVU212
 532 005a 3242     		tst	r2, r6
 533 005c 01D0     		beq	.L30
 454:HAL_Lib/STM32H7xx_HAL_Driver/Src/stm32h7xx_hal_exti.c ****     {
 455:HAL_Lib/STM32H7xx_HAL_Driver/Src/stm32h7xx_hal_exti.c ****       pExtiConfig->Trigger = EXTI_TRIGGER_RISING;
 534              		.loc 1 455 7 is_stmt 1 view .LVU213
 535              		.loc 1 455 28 is_stmt 0 view .LVU214
 536 005e 0126     		movs	r6, #1
 537              	.LVL69:
 538              		.loc 1 455 28 view .LVU215
 539 0060 9E60     		str	r6, [r3, #8]
 540              	.L30:
 456:HAL_Lib/STM32H7xx_HAL_Driver/Src/stm32h7xx_hal_exti.c ****     }
 457:HAL_Lib/STM32H7xx_HAL_Driver/Src/stm32h7xx_hal_exti.c **** 
 458:HAL_Lib/STM32H7xx_HAL_Driver/Src/stm32h7xx_hal_exti.c ****     /* Get falling configuration */
 459:HAL_Lib/STM32H7xx_HAL_Driver/Src/stm32h7xx_hal_exti.c ****     regaddr = (__IO uint32_t *)(&EXTI->FTSR1 + (EXTI_CONFIG_OFFSET * offset));
 541              		.loc 1 459 5 is_stmt 1 view .LVU216
 542              		.loc 1 459 13 is_stmt 0 view .LVU217
 543 0062 244E     		ldr	r6, .L43+8
 544              	.LVL70:
 460:HAL_Lib/STM32H7xx_HAL_Driver/Src/stm32h7xx_hal_exti.c ****     regval = *regaddr;
 545              		.loc 1 460 5 is_stmt 1 view .LVU218
 546              		.loc 1 460 12 is_stmt 0 view .LVU219
 547 0064 A459     		ldr	r4, [r4, r6]
 548              	.LVL71:
 461:HAL_Lib/STM32H7xx_HAL_Driver/Src/stm32h7xx_hal_exti.c **** 
 462:HAL_Lib/STM32H7xx_HAL_Driver/Src/stm32h7xx_hal_exti.c ****     /* Check if configuration of selected line is enable */
ARM GAS  C:\Users\HUAV\AppData\Local\Temp\ccKNGijo.s 			page 20


 463:HAL_Lib/STM32H7xx_HAL_Driver/Src/stm32h7xx_hal_exti.c ****     if ((regval & maskline) != 0x00U)
 549              		.loc 1 463 5 is_stmt 1 view .LVU220
 550              		.loc 1 463 8 is_stmt 0 view .LVU221
 551 0066 2242     		tst	r2, r4
 552 0068 03D0     		beq	.L31
 464:HAL_Lib/STM32H7xx_HAL_Driver/Src/stm32h7xx_hal_exti.c ****     {
 465:HAL_Lib/STM32H7xx_HAL_Driver/Src/stm32h7xx_hal_exti.c ****       pExtiConfig->Trigger |= EXTI_TRIGGER_FALLING;
 553              		.loc 1 465 7 is_stmt 1 view .LVU222
 554              		.loc 1 465 28 is_stmt 0 view .LVU223
 555 006a 9C68     		ldr	r4, [r3, #8]
 556              	.LVL72:
 557              		.loc 1 465 28 view .LVU224
 558 006c 44F00204 		orr	r4, r4, #2
 559 0070 9C60     		str	r4, [r3, #8]
 560              	.L31:
 466:HAL_Lib/STM32H7xx_HAL_Driver/Src/stm32h7xx_hal_exti.c ****     }
 467:HAL_Lib/STM32H7xx_HAL_Driver/Src/stm32h7xx_hal_exti.c **** 
 468:HAL_Lib/STM32H7xx_HAL_Driver/Src/stm32h7xx_hal_exti.c ****     /* Get Gpio port selection for gpio lines */
 469:HAL_Lib/STM32H7xx_HAL_Driver/Src/stm32h7xx_hal_exti.c ****     if ((pExtiConfig->Line & EXTI_GPIO) == EXTI_GPIO)
 561              		.loc 1 469 5 is_stmt 1 view .LVU225
 562              		.loc 1 469 28 is_stmt 0 view .LVU226
 563 0072 01F0C064 		and	r4, r1, #100663296
 564              		.loc 1 469 8 view .LVU227
 565 0076 B4F1C06F 		cmp	r4, #100663296
 566 007a 09D0     		beq	.L41
 567              	.LVL73:
 568              	.L29:
 470:HAL_Lib/STM32H7xx_HAL_Driver/Src/stm32h7xx_hal_exti.c ****     {
 471:HAL_Lib/STM32H7xx_HAL_Driver/Src/stm32h7xx_hal_exti.c ****       assert_param(IS_EXTI_GPIO_PIN(linepos));
 472:HAL_Lib/STM32H7xx_HAL_Driver/Src/stm32h7xx_hal_exti.c **** 
 473:HAL_Lib/STM32H7xx_HAL_Driver/Src/stm32h7xx_hal_exti.c ****       regval = SYSCFG->EXTICR[(linepos >> 2U) & 0x03UL];
 474:HAL_Lib/STM32H7xx_HAL_Driver/Src/stm32h7xx_hal_exti.c ****       pExtiConfig->GPIOSel = ((regval << (SYSCFG_EXTICR1_EXTI1_Pos * (3UL - (linepos & 0x03UL)))) >
 475:HAL_Lib/STM32H7xx_HAL_Driver/Src/stm32h7xx_hal_exti.c ****     }
 476:HAL_Lib/STM32H7xx_HAL_Driver/Src/stm32h7xx_hal_exti.c ****   }
 477:HAL_Lib/STM32H7xx_HAL_Driver/Src/stm32h7xx_hal_exti.c **** 
 478:HAL_Lib/STM32H7xx_HAL_Driver/Src/stm32h7xx_hal_exti.c ****   /* Get default Pend Clear Source */
 479:HAL_Lib/STM32H7xx_HAL_Driver/Src/stm32h7xx_hal_exti.c ****   pExtiConfig->PendClearSource = EXTI_D3_PENDCLR_SRC_NONE;
 569              		.loc 1 479 3 is_stmt 1 view .LVU228
 570              		.loc 1 479 32 is_stmt 0 view .LVU229
 571 007c 0024     		movs	r4, #0
 572 007e 1C61     		str	r4, [r3, #16]
 480:HAL_Lib/STM32H7xx_HAL_Driver/Src/stm32h7xx_hal_exti.c **** 
 481:HAL_Lib/STM32H7xx_HAL_Driver/Src/stm32h7xx_hal_exti.c ****   /* 3] Get D3 Pend Clear source */
 482:HAL_Lib/STM32H7xx_HAL_Driver/Src/stm32h7xx_hal_exti.c ****   if ((pExtiConfig->Line & EXTI_TARGET_MASK) == EXTI_TARGET_MSK_ALL)
 573              		.loc 1 482 3 is_stmt 1 view .LVU230
 574              		.loc 1 482 26 is_stmt 0 view .LVU231
 575 0080 01F44014 		and	r4, r1, #3145728
 576              		.loc 1 482 6 view .LVU232
 577 0084 B4F5401F 		cmp	r4, #3145728
 578 0088 10D0     		beq	.L42
 483:HAL_Lib/STM32H7xx_HAL_Driver/Src/stm32h7xx_hal_exti.c ****   {
 484:HAL_Lib/STM32H7xx_HAL_Driver/Src/stm32h7xx_hal_exti.c ****     regaddr = (__IO uint32_t *)(&EXTI->D3PMR1 + (EXTI_CONFIG_OFFSET * offset));
 485:HAL_Lib/STM32H7xx_HAL_Driver/Src/stm32h7xx_hal_exti.c ****     if(((*regaddr) & linepos) != 0UL)
 486:HAL_Lib/STM32H7xx_HAL_Driver/Src/stm32h7xx_hal_exti.c ****     {
 487:HAL_Lib/STM32H7xx_HAL_Driver/Src/stm32h7xx_hal_exti.c ****       /* if wakeup target is any and PMR set, the read pend clear source from  D3PCRxL/H */
 488:HAL_Lib/STM32H7xx_HAL_Driver/Src/stm32h7xx_hal_exti.c ****       if(linepos < 16UL)
 489:HAL_Lib/STM32H7xx_HAL_Driver/Src/stm32h7xx_hal_exti.c ****       {
ARM GAS  C:\Users\HUAV\AppData\Local\Temp\ccKNGijo.s 			page 21


 490:HAL_Lib/STM32H7xx_HAL_Driver/Src/stm32h7xx_hal_exti.c ****         regaddr = (__IO uint32_t *)(&EXTI->D3PCR1L + (EXTI_CONFIG_OFFSET * offset));
 491:HAL_Lib/STM32H7xx_HAL_Driver/Src/stm32h7xx_hal_exti.c ****         pcrlinepos = 1UL << linepos;
 492:HAL_Lib/STM32H7xx_HAL_Driver/Src/stm32h7xx_hal_exti.c ****       }
 493:HAL_Lib/STM32H7xx_HAL_Driver/Src/stm32h7xx_hal_exti.c ****       else
 494:HAL_Lib/STM32H7xx_HAL_Driver/Src/stm32h7xx_hal_exti.c ****       {
 495:HAL_Lib/STM32H7xx_HAL_Driver/Src/stm32h7xx_hal_exti.c ****         regaddr = (__IO uint32_t *)(&EXTI->D3PCR1H + (EXTI_CONFIG_OFFSET * offset));
 496:HAL_Lib/STM32H7xx_HAL_Driver/Src/stm32h7xx_hal_exti.c ****         pcrlinepos = 1UL << (linepos - 16UL);
 497:HAL_Lib/STM32H7xx_HAL_Driver/Src/stm32h7xx_hal_exti.c ****       }
 498:HAL_Lib/STM32H7xx_HAL_Driver/Src/stm32h7xx_hal_exti.c **** 
 499:HAL_Lib/STM32H7xx_HAL_Driver/Src/stm32h7xx_hal_exti.c ****       pExtiConfig->PendClearSource = 1UL + ((*regaddr & (pcrlinepos * pcrlinepos * 3UL)) / (pcrline
 500:HAL_Lib/STM32H7xx_HAL_Driver/Src/stm32h7xx_hal_exti.c ****     }
 501:HAL_Lib/STM32H7xx_HAL_Driver/Src/stm32h7xx_hal_exti.c ****   }
 502:HAL_Lib/STM32H7xx_HAL_Driver/Src/stm32h7xx_hal_exti.c **** 
 503:HAL_Lib/STM32H7xx_HAL_Driver/Src/stm32h7xx_hal_exti.c ****   return HAL_OK;
 579              		.loc 1 503 10 view .LVU233
 580 008a 0020     		movs	r0, #0
 581              	.LVL74:
 582              	.L26:
 504:HAL_Lib/STM32H7xx_HAL_Driver/Src/stm32h7xx_hal_exti.c **** }
 583              		.loc 1 504 1 view .LVU234
 584 008c F0BC     		pop	{r4, r5, r6, r7}
 585              	.LCFI3:
 586              		.cfi_remember_state
 587              		.cfi_restore 7
 588              		.cfi_restore 6
 589              		.cfi_restore 5
 590              		.cfi_restore 4
 591              		.cfi_def_cfa_offset 0
 592 008e 7047     		bx	lr
 593              	.LVL75:
 594              	.L41:
 595              	.LCFI4:
 596              		.cfi_restore_state
 471:HAL_Lib/STM32H7xx_HAL_Driver/Src/stm32h7xx_hal_exti.c **** 
 597              		.loc 1 471 7 is_stmt 1 view .LVU235
 473:HAL_Lib/STM32H7xx_HAL_Driver/Src/stm32h7xx_hal_exti.c ****       pExtiConfig->GPIOSel = ((regval << (SYSCFG_EXTICR1_EXTI1_Pos * (3UL - (linepos & 0x03UL)))) >
 598              		.loc 1 473 7 view .LVU236
 473:HAL_Lib/STM32H7xx_HAL_Driver/Src/stm32h7xx_hal_exti.c ****       pExtiConfig->GPIOSel = ((regval << (SYSCFG_EXTICR1_EXTI1_Pos * (3UL - (linepos & 0x03UL)))) >
 599              		.loc 1 473 47 is_stmt 0 view .LVU237
 600 0090 C5F38104 		ubfx	r4, r5, #2, #2
 473:HAL_Lib/STM32H7xx_HAL_Driver/Src/stm32h7xx_hal_exti.c ****       pExtiConfig->GPIOSel = ((regval << (SYSCFG_EXTICR1_EXTI1_Pos * (3UL - (linepos & 0x03UL)))) >
 601              		.loc 1 473 14 view .LVU238
 602 0094 0234     		adds	r4, r4, #2
 603 0096 184E     		ldr	r6, .L43+12
 604              	.LVL76:
 473:HAL_Lib/STM32H7xx_HAL_Driver/Src/stm32h7xx_hal_exti.c ****       pExtiConfig->GPIOSel = ((regval << (SYSCFG_EXTICR1_EXTI1_Pos * (3UL - (linepos & 0x03UL)))) >
 605              		.loc 1 473 14 view .LVU239
 606 0098 56F82440 		ldr	r4, [r6, r4, lsl #2]
 607              	.LVL77:
 474:HAL_Lib/STM32H7xx_HAL_Driver/Src/stm32h7xx_hal_exti.c ****     }
 608              		.loc 1 474 7 is_stmt 1 view .LVU240
 474:HAL_Lib/STM32H7xx_HAL_Driver/Src/stm32h7xx_hal_exti.c ****     }
 609              		.loc 1 474 75 is_stmt 0 view .LVU241
 610 009c EE43     		mvns	r6, r5
 611 009e 06F00306 		and	r6, r6, #3
 474:HAL_Lib/STM32H7xx_HAL_Driver/Src/stm32h7xx_hal_exti.c ****     }
 612              		.loc 1 474 68 view .LVU242
ARM GAS  C:\Users\HUAV\AppData\Local\Temp\ccKNGijo.s 			page 22


 613 00a2 B600     		lsls	r6, r6, #2
 474:HAL_Lib/STM32H7xx_HAL_Driver/Src/stm32h7xx_hal_exti.c ****     }
 614              		.loc 1 474 39 view .LVU243
 615 00a4 B440     		lsls	r4, r4, r6
 616              	.LVL78:
 474:HAL_Lib/STM32H7xx_HAL_Driver/Src/stm32h7xx_hal_exti.c ****     }
 617              		.loc 1 474 99 view .LVU244
 618 00a6 240E     		lsrs	r4, r4, #24
 474:HAL_Lib/STM32H7xx_HAL_Driver/Src/stm32h7xx_hal_exti.c ****     }
 619              		.loc 1 474 28 view .LVU245
 620 00a8 DC60     		str	r4, [r3, #12]
 621 00aa E7E7     		b	.L29
 622              	.LVL79:
 623              	.L42:
 484:HAL_Lib/STM32H7xx_HAL_Driver/Src/stm32h7xx_hal_exti.c ****     if(((*regaddr) & linepos) != 0UL)
 624              		.loc 1 484 5 is_stmt 1 view .LVU246
 484:HAL_Lib/STM32H7xx_HAL_Driver/Src/stm32h7xx_hal_exti.c ****     if(((*regaddr) & linepos) != 0UL)
 625              		.loc 1 484 15 is_stmt 0 view .LVU247
 626 00ac 4001     		lsls	r0, r0, #5
 627              	.LVL80:
 484:HAL_Lib/STM32H7xx_HAL_Driver/Src/stm32h7xx_hal_exti.c ****     if(((*regaddr) & linepos) != 0UL)
 628              		.loc 1 484 13 view .LVU248
 629 00ae 134C     		ldr	r4, .L43+16
 630              	.LVL81:
 485:HAL_Lib/STM32H7xx_HAL_Driver/Src/stm32h7xx_hal_exti.c ****     {
 631              		.loc 1 485 5 is_stmt 1 view .LVU249
 485:HAL_Lib/STM32H7xx_HAL_Driver/Src/stm32h7xx_hal_exti.c ****     {
 632              		.loc 1 485 10 is_stmt 0 view .LVU250
 633 00b0 0459     		ldr	r4, [r0, r4]
 634              	.LVL82:
 485:HAL_Lib/STM32H7xx_HAL_Driver/Src/stm32h7xx_hal_exti.c ****     {
 635              		.loc 1 485 7 view .LVU251
 636 00b2 2C42     		tst	r4, r5
 637 00b4 18D0     		beq	.L36
 488:HAL_Lib/STM32H7xx_HAL_Driver/Src/stm32h7xx_hal_exti.c ****       {
 638              		.loc 1 488 7 is_stmt 1 view .LVU252
 488:HAL_Lib/STM32H7xx_HAL_Driver/Src/stm32h7xx_hal_exti.c ****       {
 639              		.loc 1 488 9 is_stmt 0 view .LVU253
 640 00b6 11F0100F 		tst	r1, #16
 641 00ba 0DD1     		bne	.L32
 490:HAL_Lib/STM32H7xx_HAL_Driver/Src/stm32h7xx_hal_exti.c ****         pcrlinepos = 1UL << linepos;
 642              		.loc 1 490 9 is_stmt 1 view .LVU254
 490:HAL_Lib/STM32H7xx_HAL_Driver/Src/stm32h7xx_hal_exti.c ****         pcrlinepos = 1UL << linepos;
 643              		.loc 1 490 17 is_stmt 0 view .LVU255
 644 00bc 1049     		ldr	r1, .L43+20
 645              	.LVL83:
 490:HAL_Lib/STM32H7xx_HAL_Driver/Src/stm32h7xx_hal_exti.c ****         pcrlinepos = 1UL << linepos;
 646              		.loc 1 490 17 view .LVU256
 647 00be 0144     		add	r1, r1, r0
 648              	.LVL84:
 491:HAL_Lib/STM32H7xx_HAL_Driver/Src/stm32h7xx_hal_exti.c ****       }
 649              		.loc 1 491 9 is_stmt 1 view .LVU257
 650              	.L33:
 499:HAL_Lib/STM32H7xx_HAL_Driver/Src/stm32h7xx_hal_exti.c ****     }
 651              		.loc 1 499 7 view .LVU258
 499:HAL_Lib/STM32H7xx_HAL_Driver/Src/stm32h7xx_hal_exti.c ****     }
 652              		.loc 1 499 46 is_stmt 0 view .LVU259
ARM GAS  C:\Users\HUAV\AppData\Local\Temp\ccKNGijo.s 			page 23


 653 00c0 0968     		ldr	r1, [r1]
 654              	.LVL85:
 499:HAL_Lib/STM32H7xx_HAL_Driver/Src/stm32h7xx_hal_exti.c ****     }
 655              		.loc 1 499 69 view .LVU260
 656 00c2 02FB02F2 		mul	r2, r2, r2
 657              	.LVL86:
 499:HAL_Lib/STM32H7xx_HAL_Driver/Src/stm32h7xx_hal_exti.c ****     }
 658              		.loc 1 499 82 view .LVU261
 659 00c6 02EB4200 		add	r0, r2, r2, lsl #1
 499:HAL_Lib/STM32H7xx_HAL_Driver/Src/stm32h7xx_hal_exti.c ****     }
 660              		.loc 1 499 55 view .LVU262
 661 00ca 0140     		ands	r1, r1, r0
 499:HAL_Lib/STM32H7xx_HAL_Driver/Src/stm32h7xx_hal_exti.c ****     }
 662              		.loc 1 499 90 view .LVU263
 663 00cc B1FBF2F2 		udiv	r2, r1, r2
 499:HAL_Lib/STM32H7xx_HAL_Driver/Src/stm32h7xx_hal_exti.c ****     }
 664              		.loc 1 499 42 view .LVU264
 665 00d0 0132     		adds	r2, r2, #1
 499:HAL_Lib/STM32H7xx_HAL_Driver/Src/stm32h7xx_hal_exti.c ****     }
 666              		.loc 1 499 36 view .LVU265
 667 00d2 1A61     		str	r2, [r3, #16]
 503:HAL_Lib/STM32H7xx_HAL_Driver/Src/stm32h7xx_hal_exti.c **** }
 668              		.loc 1 503 10 view .LVU266
 669 00d4 0020     		movs	r0, #0
 670 00d6 D9E7     		b	.L26
 671              	.LVL87:
 672              	.L32:
 495:HAL_Lib/STM32H7xx_HAL_Driver/Src/stm32h7xx_hal_exti.c ****         pcrlinepos = 1UL << (linepos - 16UL);
 673              		.loc 1 495 9 is_stmt 1 view .LVU267
 495:HAL_Lib/STM32H7xx_HAL_Driver/Src/stm32h7xx_hal_exti.c ****         pcrlinepos = 1UL << (linepos - 16UL);
 674              		.loc 1 495 17 is_stmt 0 view .LVU268
 675 00d8 0A49     		ldr	r1, .L43+24
 676              	.LVL88:
 495:HAL_Lib/STM32H7xx_HAL_Driver/Src/stm32h7xx_hal_exti.c ****         pcrlinepos = 1UL << (linepos - 16UL);
 677              		.loc 1 495 17 view .LVU269
 678 00da 0144     		add	r1, r1, r0
 679              	.LVL89:
 496:HAL_Lib/STM32H7xx_HAL_Driver/Src/stm32h7xx_hal_exti.c ****       }
 680              		.loc 1 496 9 is_stmt 1 view .LVU270
 496:HAL_Lib/STM32H7xx_HAL_Driver/Src/stm32h7xx_hal_exti.c ****       }
 681              		.loc 1 496 38 is_stmt 0 view .LVU271
 682 00dc 103D     		subs	r5, r5, #16
 683              	.LVL90:
 496:HAL_Lib/STM32H7xx_HAL_Driver/Src/stm32h7xx_hal_exti.c ****       }
 684              		.loc 1 496 20 view .LVU272
 685 00de 0122     		movs	r2, #1
 686              	.LVL91:
 496:HAL_Lib/STM32H7xx_HAL_Driver/Src/stm32h7xx_hal_exti.c ****       }
 687              		.loc 1 496 20 view .LVU273
 688 00e0 AA40     		lsls	r2, r2, r5
 689              	.LVL92:
 496:HAL_Lib/STM32H7xx_HAL_Driver/Src/stm32h7xx_hal_exti.c ****       }
 690              		.loc 1 496 20 view .LVU274
 691 00e2 EDE7     		b	.L33
 692              	.LVL93:
 693              	.L34:
 694              	.LCFI5:
ARM GAS  C:\Users\HUAV\AppData\Local\Temp\ccKNGijo.s 			page 24


 695              		.cfi_def_cfa_offset 0
 696              		.cfi_restore 4
 697              		.cfi_restore 5
 698              		.cfi_restore 6
 699              		.cfi_restore 7
 386:HAL_Lib/STM32H7xx_HAL_Driver/Src/stm32h7xx_hal_exti.c ****   }
 700              		.loc 1 386 12 view .LVU275
 701 00e4 0120     		movs	r0, #1
 702              	.LVL94:
 703              		.loc 1 504 1 view .LVU276
 704 00e6 7047     		bx	lr
 705              	.LVL95:
 706              	.L36:
 707              	.LCFI6:
 708              		.cfi_def_cfa_offset 16
 709              		.cfi_offset 4, -16
 710              		.cfi_offset 5, -12
 711              		.cfi_offset 6, -8
 712              		.cfi_offset 7, -4
 503:HAL_Lib/STM32H7xx_HAL_Driver/Src/stm32h7xx_hal_exti.c **** }
 713              		.loc 1 503 10 view .LVU277
 714 00e8 0020     		movs	r0, #0
 715              	.LVL96:
 503:HAL_Lib/STM32H7xx_HAL_Driver/Src/stm32h7xx_hal_exti.c **** }
 716              		.loc 1 503 10 view .LVU278
 717 00ea CFE7     		b	.L26
 718              	.L44:
 719              		.align	2
 720              	.L43:
 721 00ec 80000058 		.word	1476395136
 722 00f0 84000058 		.word	1476395140
 723 00f4 04000058 		.word	1476395012
 724 00f8 00040058 		.word	1476396032
 725 00fc 0C000058 		.word	1476395020
 726 0100 10000058 		.word	1476395024
 727 0104 14000058 		.word	1476395028
 728              		.cfi_endproc
 729              	.LFE145:
 731              		.section	.text.HAL_EXTI_ClearConfigLine,"ax",%progbits
 732              		.align	1
 733              		.global	HAL_EXTI_ClearConfigLine
 734              		.syntax unified
 735              		.thumb
 736              		.thumb_func
 737              		.fpu fpv5-d16
 739              	HAL_EXTI_ClearConfigLine:
 740              	.LVL97:
 741              	.LFB146:
 505:HAL_Lib/STM32H7xx_HAL_Driver/Src/stm32h7xx_hal_exti.c **** 
 506:HAL_Lib/STM32H7xx_HAL_Driver/Src/stm32h7xx_hal_exti.c **** 
 507:HAL_Lib/STM32H7xx_HAL_Driver/Src/stm32h7xx_hal_exti.c **** /**
 508:HAL_Lib/STM32H7xx_HAL_Driver/Src/stm32h7xx_hal_exti.c ****   * @brief  Clear whole configuration of a dedicated Exti line.
 509:HAL_Lib/STM32H7xx_HAL_Driver/Src/stm32h7xx_hal_exti.c ****   * @param  hexti Exti handle.
 510:HAL_Lib/STM32H7xx_HAL_Driver/Src/stm32h7xx_hal_exti.c ****   * @retval HAL Status.
 511:HAL_Lib/STM32H7xx_HAL_Driver/Src/stm32h7xx_hal_exti.c ****   */
 512:HAL_Lib/STM32H7xx_HAL_Driver/Src/stm32h7xx_hal_exti.c **** HAL_StatusTypeDef HAL_EXTI_ClearConfigLine(EXTI_HandleTypeDef *hexti)
 513:HAL_Lib/STM32H7xx_HAL_Driver/Src/stm32h7xx_hal_exti.c **** {
ARM GAS  C:\Users\HUAV\AppData\Local\Temp\ccKNGijo.s 			page 25


 742              		.loc 1 513 1 is_stmt 1 view -0
 743              		.cfi_startproc
 744              		@ args = 0, pretend = 0, frame = 0
 745              		@ frame_needed = 0, uses_anonymous_args = 0
 514:HAL_Lib/STM32H7xx_HAL_Driver/Src/stm32h7xx_hal_exti.c ****   __IO uint32_t *regaddr;
 746              		.loc 1 514 3 view .LVU280
 515:HAL_Lib/STM32H7xx_HAL_Driver/Src/stm32h7xx_hal_exti.c ****   uint32_t regval;
 747              		.loc 1 515 3 view .LVU281
 516:HAL_Lib/STM32H7xx_HAL_Driver/Src/stm32h7xx_hal_exti.c ****   uint32_t linepos;
 748              		.loc 1 516 3 view .LVU282
 517:HAL_Lib/STM32H7xx_HAL_Driver/Src/stm32h7xx_hal_exti.c ****   uint32_t maskline;
 749              		.loc 1 517 3 view .LVU283
 518:HAL_Lib/STM32H7xx_HAL_Driver/Src/stm32h7xx_hal_exti.c ****   uint32_t offset;
 750              		.loc 1 518 3 view .LVU284
 519:HAL_Lib/STM32H7xx_HAL_Driver/Src/stm32h7xx_hal_exti.c ****   uint32_t pcrlinepos;
 751              		.loc 1 519 3 view .LVU285
 520:HAL_Lib/STM32H7xx_HAL_Driver/Src/stm32h7xx_hal_exti.c **** 
 521:HAL_Lib/STM32H7xx_HAL_Driver/Src/stm32h7xx_hal_exti.c ****   /* Check null pointer */
 522:HAL_Lib/STM32H7xx_HAL_Driver/Src/stm32h7xx_hal_exti.c ****   if (hexti == NULL)
 752              		.loc 1 522 3 view .LVU286
 753              		.loc 1 522 6 is_stmt 0 view .LVU287
 754 0000 0028     		cmp	r0, #0
 755 0002 6BD0     		beq	.L50
 513:HAL_Lib/STM32H7xx_HAL_Driver/Src/stm32h7xx_hal_exti.c ****   __IO uint32_t *regaddr;
 756              		.loc 1 513 1 view .LVU288
 757 0004 2DE9F041 		push	{r4, r5, r6, r7, r8, lr}
 758              	.LCFI7:
 759              		.cfi_def_cfa_offset 24
 760              		.cfi_offset 4, -24
 761              		.cfi_offset 5, -20
 762              		.cfi_offset 6, -16
 763              		.cfi_offset 7, -12
 764              		.cfi_offset 8, -8
 765              		.cfi_offset 14, -4
 766 0008 0146     		mov	r1, r0
 523:HAL_Lib/STM32H7xx_HAL_Driver/Src/stm32h7xx_hal_exti.c ****   {
 524:HAL_Lib/STM32H7xx_HAL_Driver/Src/stm32h7xx_hal_exti.c ****     return HAL_ERROR;
 525:HAL_Lib/STM32H7xx_HAL_Driver/Src/stm32h7xx_hal_exti.c ****   }
 526:HAL_Lib/STM32H7xx_HAL_Driver/Src/stm32h7xx_hal_exti.c **** 
 527:HAL_Lib/STM32H7xx_HAL_Driver/Src/stm32h7xx_hal_exti.c ****   /* Check the parameter */
 528:HAL_Lib/STM32H7xx_HAL_Driver/Src/stm32h7xx_hal_exti.c ****   assert_param(IS_EXTI_LINE(hexti->Line));
 767              		.loc 1 528 3 is_stmt 1 view .LVU289
 529:HAL_Lib/STM32H7xx_HAL_Driver/Src/stm32h7xx_hal_exti.c **** 
 530:HAL_Lib/STM32H7xx_HAL_Driver/Src/stm32h7xx_hal_exti.c ****   /* compute line register offset and line mask */
 531:HAL_Lib/STM32H7xx_HAL_Driver/Src/stm32h7xx_hal_exti.c ****   offset = ((hexti->Line & EXTI_REG_MASK) >> EXTI_REG_SHIFT);
 768              		.loc 1 531 3 view .LVU290
 769              		.loc 1 531 19 is_stmt 0 view .LVU291
 770 000a 0568     		ldr	r5, [r0]
 771              		.loc 1 531 10 view .LVU292
 772 000c C5F30140 		ubfx	r0, r5, #16, #2
 773              	.LVL98:
 532:HAL_Lib/STM32H7xx_HAL_Driver/Src/stm32h7xx_hal_exti.c ****   linepos = (hexti->Line & EXTI_PIN_MASK);
 774              		.loc 1 532 3 is_stmt 1 view .LVU293
 775              		.loc 1 532 11 is_stmt 0 view .LVU294
 776 0010 05F01F07 		and	r7, r5, #31
 777              	.LVL99:
 533:HAL_Lib/STM32H7xx_HAL_Driver/Src/stm32h7xx_hal_exti.c ****   maskline = (1UL << linepos);
ARM GAS  C:\Users\HUAV\AppData\Local\Temp\ccKNGijo.s 			page 26


 778              		.loc 1 533 3 is_stmt 1 view .LVU295
 779              		.loc 1 533 12 is_stmt 0 view .LVU296
 780 0014 0123     		movs	r3, #1
 781 0016 BB40     		lsls	r3, r3, r7
 782              	.LVL100:
 534:HAL_Lib/STM32H7xx_HAL_Driver/Src/stm32h7xx_hal_exti.c **** 
 535:HAL_Lib/STM32H7xx_HAL_Driver/Src/stm32h7xx_hal_exti.c ****   /* 1] Clear interrupt mode */
 536:HAL_Lib/STM32H7xx_HAL_Driver/Src/stm32h7xx_hal_exti.c ****   regaddr = (__IO uint32_t *)(&EXTI->IMR1 + (EXTI_MODE_OFFSET * offset));
 783              		.loc 1 536 3 is_stmt 1 view .LVU297
 784              		.loc 1 536 13 is_stmt 0 view .LVU298
 785 0018 0201     		lsls	r2, r0, #4
 786              		.loc 1 536 11 view .LVU299
 787 001a DFF8CCC0 		ldr	ip, .L58+8
 788              	.LVL101:
 537:HAL_Lib/STM32H7xx_HAL_Driver/Src/stm32h7xx_hal_exti.c ****   regval = (*regaddr & ~maskline);
 789              		.loc 1 537 3 is_stmt 1 view .LVU300
 790              		.loc 1 537 13 is_stmt 0 view .LVU301
 791 001e 52F80C40 		ldr	r4, [r2, ip]
 792              		.loc 1 537 24 view .LVU302
 793 0022 DE43     		mvns	r6, r3
 794              		.loc 1 537 10 view .LVU303
 795 0024 24EA0304 		bic	r4, r4, r3
 796              	.LVL102:
 538:HAL_Lib/STM32H7xx_HAL_Driver/Src/stm32h7xx_hal_exti.c ****   *regaddr = regval;
 797              		.loc 1 538 3 is_stmt 1 view .LVU304
 798              		.loc 1 538 12 is_stmt 0 view .LVU305
 799 0028 42F80C40 		str	r4, [r2, ip]
 539:HAL_Lib/STM32H7xx_HAL_Driver/Src/stm32h7xx_hal_exti.c **** 
 540:HAL_Lib/STM32H7xx_HAL_Driver/Src/stm32h7xx_hal_exti.c ****   /* 2] Clear event mode */
 541:HAL_Lib/STM32H7xx_HAL_Driver/Src/stm32h7xx_hal_exti.c ****   regaddr = (__IO uint32_t *)(&EXTI->EMR1 + (EXTI_MODE_OFFSET * offset));
 800              		.loc 1 541 3 is_stmt 1 view .LVU306
 801              		.loc 1 541 11 is_stmt 0 view .LVU307
 802 002c 0CF1040C 		add	ip, ip, #4
 803              	.LVL103:
 542:HAL_Lib/STM32H7xx_HAL_Driver/Src/stm32h7xx_hal_exti.c ****   regval = (*regaddr & ~maskline);
 804              		.loc 1 542 3 is_stmt 1 view .LVU308
 805              		.loc 1 542 13 is_stmt 0 view .LVU309
 806 0030 52F80C40 		ldr	r4, [r2, ip]
 807              	.LVL104:
 808              		.loc 1 542 10 view .LVU310
 809 0034 24EA0304 		bic	r4, r4, r3
 810              	.LVL105:
 543:HAL_Lib/STM32H7xx_HAL_Driver/Src/stm32h7xx_hal_exti.c ****   *regaddr = regval;
 811              		.loc 1 543 3 is_stmt 1 view .LVU311
 812              		.loc 1 543 12 is_stmt 0 view .LVU312
 813 0038 42F80C40 		str	r4, [r2, ip]
 544:HAL_Lib/STM32H7xx_HAL_Driver/Src/stm32h7xx_hal_exti.c **** 
 545:HAL_Lib/STM32H7xx_HAL_Driver/Src/stm32h7xx_hal_exti.c **** #if defined (DUAL_CORE)
 546:HAL_Lib/STM32H7xx_HAL_Driver/Src/stm32h7xx_hal_exti.c ****     /* 1] Clear CM4 interrupt mode */
 547:HAL_Lib/STM32H7xx_HAL_Driver/Src/stm32h7xx_hal_exti.c ****   regaddr = (__IO uint32_t *)(&EXTI->C2IMR1 + (EXTI_MODE_OFFSET * offset));
 548:HAL_Lib/STM32H7xx_HAL_Driver/Src/stm32h7xx_hal_exti.c ****   regval = (*regaddr & ~maskline);
 549:HAL_Lib/STM32H7xx_HAL_Driver/Src/stm32h7xx_hal_exti.c ****   *regaddr = regval;
 550:HAL_Lib/STM32H7xx_HAL_Driver/Src/stm32h7xx_hal_exti.c **** 
 551:HAL_Lib/STM32H7xx_HAL_Driver/Src/stm32h7xx_hal_exti.c ****   /* 2] Clear CM4 event mode */
 552:HAL_Lib/STM32H7xx_HAL_Driver/Src/stm32h7xx_hal_exti.c ****   regaddr = (__IO uint32_t *)(&EXTI->C2EMR1 + (EXTI_MODE_OFFSET * offset));
 553:HAL_Lib/STM32H7xx_HAL_Driver/Src/stm32h7xx_hal_exti.c ****   regval = (*regaddr & ~maskline);
 554:HAL_Lib/STM32H7xx_HAL_Driver/Src/stm32h7xx_hal_exti.c ****   *regaddr = regval;
ARM GAS  C:\Users\HUAV\AppData\Local\Temp\ccKNGijo.s 			page 27


 555:HAL_Lib/STM32H7xx_HAL_Driver/Src/stm32h7xx_hal_exti.c **** #endif /* DUAL_CORE */
 556:HAL_Lib/STM32H7xx_HAL_Driver/Src/stm32h7xx_hal_exti.c **** 
 557:HAL_Lib/STM32H7xx_HAL_Driver/Src/stm32h7xx_hal_exti.c ****   /* 3] Clear triggers in case of configurable lines */
 558:HAL_Lib/STM32H7xx_HAL_Driver/Src/stm32h7xx_hal_exti.c ****   if ((hexti->Line & EXTI_CONFIG) != 0x00U)
 814              		.loc 1 558 3 is_stmt 1 view .LVU313
 815              		.loc 1 558 13 is_stmt 0 view .LVU314
 816 003c 0A68     		ldr	r2, [r1]
 817              	.LVL106:
 818              		.loc 1 558 6 view .LVU315
 819 003e 12F0007F 		tst	r2, #33554432
 820 0042 14D0     		beq	.L47
 559:HAL_Lib/STM32H7xx_HAL_Driver/Src/stm32h7xx_hal_exti.c ****   {
 560:HAL_Lib/STM32H7xx_HAL_Driver/Src/stm32h7xx_hal_exti.c ****     regaddr = (__IO uint32_t *)(&EXTI->RTSR1 + (EXTI_CONFIG_OFFSET * offset));
 821              		.loc 1 560 5 is_stmt 1 view .LVU316
 822              		.loc 1 560 15 is_stmt 0 view .LVU317
 823 0044 4201     		lsls	r2, r0, #5
 824              		.loc 1 560 13 view .LVU318
 825 0046 02F1B04C 		add	ip, r2, #1476395008
 826              	.LVL107:
 561:HAL_Lib/STM32H7xx_HAL_Driver/Src/stm32h7xx_hal_exti.c ****     regval = (*regaddr & ~maskline);
 827              		.loc 1 561 5 is_stmt 1 view .LVU319
 828              		.loc 1 561 15 is_stmt 0 view .LVU320
 829 004a DCF80040 		ldr	r4, [ip]
 830              	.LVL108:
 831              		.loc 1 561 12 view .LVU321
 832 004e 3440     		ands	r4, r4, r6
 833              	.LVL109:
 562:HAL_Lib/STM32H7xx_HAL_Driver/Src/stm32h7xx_hal_exti.c ****     *regaddr = regval;
 834              		.loc 1 562 5 is_stmt 1 view .LVU322
 835              		.loc 1 562 14 is_stmt 0 view .LVU323
 836 0050 CCF80040 		str	r4, [ip]
 563:HAL_Lib/STM32H7xx_HAL_Driver/Src/stm32h7xx_hal_exti.c **** 
 564:HAL_Lib/STM32H7xx_HAL_Driver/Src/stm32h7xx_hal_exti.c ****     regaddr = (__IO uint32_t *)(&EXTI->FTSR1 + (EXTI_CONFIG_OFFSET * offset));
 837              		.loc 1 564 5 is_stmt 1 view .LVU324
 838              		.loc 1 564 13 is_stmt 0 view .LVU325
 839 0054 DFF894C0 		ldr	ip, .L58+12
 840              	.LVL110:
 565:HAL_Lib/STM32H7xx_HAL_Driver/Src/stm32h7xx_hal_exti.c ****     regval = (*regaddr & ~maskline);
 841              		.loc 1 565 5 is_stmt 1 view .LVU326
 842              		.loc 1 565 15 is_stmt 0 view .LVU327
 843 0058 52F80C40 		ldr	r4, [r2, ip]
 844              	.LVL111:
 845              		.loc 1 565 12 view .LVU328
 846 005c 3440     		ands	r4, r4, r6
 847              	.LVL112:
 566:HAL_Lib/STM32H7xx_HAL_Driver/Src/stm32h7xx_hal_exti.c ****     *regaddr = regval;
 848              		.loc 1 566 5 is_stmt 1 view .LVU329
 849              		.loc 1 566 14 is_stmt 0 view .LVU330
 850 005e 42F80C40 		str	r4, [r2, ip]
 567:HAL_Lib/STM32H7xx_HAL_Driver/Src/stm32h7xx_hal_exti.c **** 
 568:HAL_Lib/STM32H7xx_HAL_Driver/Src/stm32h7xx_hal_exti.c ****     /* Get Gpio port selection for gpio lines */
 569:HAL_Lib/STM32H7xx_HAL_Driver/Src/stm32h7xx_hal_exti.c ****     if ((hexti->Line & EXTI_GPIO) == EXTI_GPIO)
 851              		.loc 1 569 5 is_stmt 1 view .LVU331
 852              		.loc 1 569 15 is_stmt 0 view .LVU332
 853 0062 0A68     		ldr	r2, [r1]
 854              	.LVL113:
 855              		.loc 1 569 22 view .LVU333
ARM GAS  C:\Users\HUAV\AppData\Local\Temp\ccKNGijo.s 			page 28


 856 0064 02F0C062 		and	r2, r2, #100663296
 857              		.loc 1 569 8 view .LVU334
 858 0068 B2F1C06F 		cmp	r2, #100663296
 859 006c 08D0     		beq	.L56
 860              	.LVL114:
 861              	.L47:
 570:HAL_Lib/STM32H7xx_HAL_Driver/Src/stm32h7xx_hal_exti.c ****     {
 571:HAL_Lib/STM32H7xx_HAL_Driver/Src/stm32h7xx_hal_exti.c ****       assert_param(IS_EXTI_GPIO_PIN(linepos));
 572:HAL_Lib/STM32H7xx_HAL_Driver/Src/stm32h7xx_hal_exti.c **** 
 573:HAL_Lib/STM32H7xx_HAL_Driver/Src/stm32h7xx_hal_exti.c ****       regval = SYSCFG->EXTICR[(linepos >> 2U) & 0x03UL];
 574:HAL_Lib/STM32H7xx_HAL_Driver/Src/stm32h7xx_hal_exti.c ****       regval &= ~(SYSCFG_EXTICR1_EXTI0 << (SYSCFG_EXTICR1_EXTI1_Pos * (linepos & 0x03UL)));
 575:HAL_Lib/STM32H7xx_HAL_Driver/Src/stm32h7xx_hal_exti.c ****       SYSCFG->EXTICR[(linepos >> 2U) & 0x03UL] = regval;
 576:HAL_Lib/STM32H7xx_HAL_Driver/Src/stm32h7xx_hal_exti.c ****     }
 577:HAL_Lib/STM32H7xx_HAL_Driver/Src/stm32h7xx_hal_exti.c ****   }
 578:HAL_Lib/STM32H7xx_HAL_Driver/Src/stm32h7xx_hal_exti.c **** 
 579:HAL_Lib/STM32H7xx_HAL_Driver/Src/stm32h7xx_hal_exti.c ****   /* 4] Clear D3 Config lines */
 580:HAL_Lib/STM32H7xx_HAL_Driver/Src/stm32h7xx_hal_exti.c ****   if ((hexti->Line & EXTI_TARGET_MASK) == EXTI_TARGET_MSK_ALL)
 862              		.loc 1 580 3 is_stmt 1 view .LVU335
 863              		.loc 1 580 13 is_stmt 0 view .LVU336
 864 006e 0A68     		ldr	r2, [r1]
 865              		.loc 1 580 20 view .LVU337
 866 0070 02F44012 		and	r2, r2, #3145728
 867              		.loc 1 580 6 view .LVU338
 868 0074 B2F5401F 		cmp	r2, #3145728
 869 0078 16D0     		beq	.L57
 581:HAL_Lib/STM32H7xx_HAL_Driver/Src/stm32h7xx_hal_exti.c ****   {
 582:HAL_Lib/STM32H7xx_HAL_Driver/Src/stm32h7xx_hal_exti.c ****     regaddr = (__IO uint32_t *)(&EXTI->D3PMR1 + (EXTI_CONFIG_OFFSET * offset));
 583:HAL_Lib/STM32H7xx_HAL_Driver/Src/stm32h7xx_hal_exti.c ****     *regaddr = (*regaddr & ~maskline);
 584:HAL_Lib/STM32H7xx_HAL_Driver/Src/stm32h7xx_hal_exti.c **** 
 585:HAL_Lib/STM32H7xx_HAL_Driver/Src/stm32h7xx_hal_exti.c ****     if(linepos < 16UL)
 586:HAL_Lib/STM32H7xx_HAL_Driver/Src/stm32h7xx_hal_exti.c ****     {
 587:HAL_Lib/STM32H7xx_HAL_Driver/Src/stm32h7xx_hal_exti.c ****       regaddr = (__IO uint32_t *)(&EXTI->D3PCR1L + (EXTI_CONFIG_OFFSET * offset));
 588:HAL_Lib/STM32H7xx_HAL_Driver/Src/stm32h7xx_hal_exti.c ****       pcrlinepos = 1UL << linepos;
 589:HAL_Lib/STM32H7xx_HAL_Driver/Src/stm32h7xx_hal_exti.c ****     }
 590:HAL_Lib/STM32H7xx_HAL_Driver/Src/stm32h7xx_hal_exti.c ****     else
 591:HAL_Lib/STM32H7xx_HAL_Driver/Src/stm32h7xx_hal_exti.c ****     {
 592:HAL_Lib/STM32H7xx_HAL_Driver/Src/stm32h7xx_hal_exti.c ****       regaddr = (__IO uint32_t *)(&EXTI->D3PCR1H + (EXTI_CONFIG_OFFSET * offset));
 593:HAL_Lib/STM32H7xx_HAL_Driver/Src/stm32h7xx_hal_exti.c ****       pcrlinepos = 1UL << (linepos - 16UL);
 594:HAL_Lib/STM32H7xx_HAL_Driver/Src/stm32h7xx_hal_exti.c ****     }
 595:HAL_Lib/STM32H7xx_HAL_Driver/Src/stm32h7xx_hal_exti.c **** 
 596:HAL_Lib/STM32H7xx_HAL_Driver/Src/stm32h7xx_hal_exti.c ****     /*Clear D3 PendClear source */
 597:HAL_Lib/STM32H7xx_HAL_Driver/Src/stm32h7xx_hal_exti.c ****     *regaddr &= (~(pcrlinepos * pcrlinepos * 3UL));
 598:HAL_Lib/STM32H7xx_HAL_Driver/Src/stm32h7xx_hal_exti.c ****   }
 599:HAL_Lib/STM32H7xx_HAL_Driver/Src/stm32h7xx_hal_exti.c **** 
 600:HAL_Lib/STM32H7xx_HAL_Driver/Src/stm32h7xx_hal_exti.c ****   return HAL_OK;
 870              		.loc 1 600 10 view .LVU339
 871 007a 0020     		movs	r0, #0
 872              	.LVL115:
 873              	.L46:
 601:HAL_Lib/STM32H7xx_HAL_Driver/Src/stm32h7xx_hal_exti.c **** }
 874              		.loc 1 601 1 view .LVU340
 875 007c BDE8F081 		pop	{r4, r5, r6, r7, r8, pc}
 876              	.LVL116:
 877              	.L56:
 571:HAL_Lib/STM32H7xx_HAL_Driver/Src/stm32h7xx_hal_exti.c **** 
 878              		.loc 1 571 7 is_stmt 1 view .LVU341
 573:HAL_Lib/STM32H7xx_HAL_Driver/Src/stm32h7xx_hal_exti.c ****       regval &= ~(SYSCFG_EXTICR1_EXTI0 << (SYSCFG_EXTICR1_EXTI1_Pos * (linepos & 0x03UL)));
ARM GAS  C:\Users\HUAV\AppData\Local\Temp\ccKNGijo.s 			page 29


 879              		.loc 1 573 7 view .LVU342
 573:HAL_Lib/STM32H7xx_HAL_Driver/Src/stm32h7xx_hal_exti.c ****       regval &= ~(SYSCFG_EXTICR1_EXTI0 << (SYSCFG_EXTICR1_EXTI1_Pos * (linepos & 0x03UL)));
 880              		.loc 1 573 47 is_stmt 0 view .LVU343
 881 0080 C7F38102 		ubfx	r2, r7, #2, #2
 573:HAL_Lib/STM32H7xx_HAL_Driver/Src/stm32h7xx_hal_exti.c ****       regval &= ~(SYSCFG_EXTICR1_EXTI0 << (SYSCFG_EXTICR1_EXTI1_Pos * (linepos & 0x03UL)));
 882              		.loc 1 573 14 view .LVU344
 883 0084 DFF868E0 		ldr	lr, .L58+16
 884 0088 0232     		adds	r2, r2, #2
 885 008a 5EF82240 		ldr	r4, [lr, r2, lsl #2]
 886              	.LVL117:
 574:HAL_Lib/STM32H7xx_HAL_Driver/Src/stm32h7xx_hal_exti.c ****       SYSCFG->EXTICR[(linepos >> 2U) & 0x03UL] = regval;
 887              		.loc 1 574 7 is_stmt 1 view .LVU345
 574:HAL_Lib/STM32H7xx_HAL_Driver/Src/stm32h7xx_hal_exti.c ****       SYSCFG->EXTICR[(linepos >> 2U) & 0x03UL] = regval;
 888              		.loc 1 574 80 is_stmt 0 view .LVU346
 889 008e 05F0030C 		and	ip, r5, #3
 890              	.LVL118:
 574:HAL_Lib/STM32H7xx_HAL_Driver/Src/stm32h7xx_hal_exti.c ****       SYSCFG->EXTICR[(linepos >> 2U) & 0x03UL] = regval;
 891              		.loc 1 574 69 view .LVU347
 892 0092 4FEA8C08 		lsl	r8, ip, #2
 574:HAL_Lib/STM32H7xx_HAL_Driver/Src/stm32h7xx_hal_exti.c ****       SYSCFG->EXTICR[(linepos >> 2U) & 0x03UL] = regval;
 893              		.loc 1 574 40 view .LVU348
 894 0096 4FF00F0C 		mov	ip, #15
 895 009a 0CFA08FC 		lsl	ip, ip, r8
 574:HAL_Lib/STM32H7xx_HAL_Driver/Src/stm32h7xx_hal_exti.c ****       SYSCFG->EXTICR[(linepos >> 2U) & 0x03UL] = regval;
 896              		.loc 1 574 14 view .LVU349
 897 009e 24EA0C04 		bic	r4, r4, ip
 898              	.LVL119:
 575:HAL_Lib/STM32H7xx_HAL_Driver/Src/stm32h7xx_hal_exti.c ****     }
 899              		.loc 1 575 7 is_stmt 1 view .LVU350
 575:HAL_Lib/STM32H7xx_HAL_Driver/Src/stm32h7xx_hal_exti.c ****     }
 900              		.loc 1 575 48 is_stmt 0 view .LVU351
 901 00a2 4EF82240 		str	r4, [lr, r2, lsl #2]
 902 00a6 E2E7     		b	.L47
 903              	.LVL120:
 904              	.L57:
 582:HAL_Lib/STM32H7xx_HAL_Driver/Src/stm32h7xx_hal_exti.c ****     *regaddr = (*regaddr & ~maskline);
 905              		.loc 1 582 5 is_stmt 1 view .LVU352
 582:HAL_Lib/STM32H7xx_HAL_Driver/Src/stm32h7xx_hal_exti.c ****     *regaddr = (*regaddr & ~maskline);
 906              		.loc 1 582 15 is_stmt 0 view .LVU353
 907 00a8 4001     		lsls	r0, r0, #5
 908              	.LVL121:
 582:HAL_Lib/STM32H7xx_HAL_Driver/Src/stm32h7xx_hal_exti.c ****     *regaddr = (*regaddr & ~maskline);
 909              		.loc 1 582 13 view .LVU354
 910 00aa 0D4A     		ldr	r2, .L58
 911              	.LVL122:
 583:HAL_Lib/STM32H7xx_HAL_Driver/Src/stm32h7xx_hal_exti.c **** 
 912              		.loc 1 583 5 is_stmt 1 view .LVU355
 583:HAL_Lib/STM32H7xx_HAL_Driver/Src/stm32h7xx_hal_exti.c **** 
 913              		.loc 1 583 17 is_stmt 0 view .LVU356
 914 00ac 8158     		ldr	r1, [r0, r2]
 915              	.LVL123:
 583:HAL_Lib/STM32H7xx_HAL_Driver/Src/stm32h7xx_hal_exti.c **** 
 916              		.loc 1 583 26 view .LVU357
 917 00ae 0E40     		ands	r6, r6, r1
 583:HAL_Lib/STM32H7xx_HAL_Driver/Src/stm32h7xx_hal_exti.c **** 
 918              		.loc 1 583 14 view .LVU358
 919 00b0 8650     		str	r6, [r0, r2]
ARM GAS  C:\Users\HUAV\AppData\Local\Temp\ccKNGijo.s 			page 30


 585:HAL_Lib/STM32H7xx_HAL_Driver/Src/stm32h7xx_hal_exti.c ****     {
 920              		.loc 1 585 5 is_stmt 1 view .LVU359
 585:HAL_Lib/STM32H7xx_HAL_Driver/Src/stm32h7xx_hal_exti.c ****     {
 921              		.loc 1 585 7 is_stmt 0 view .LVU360
 922 00b2 15F0100F 		tst	r5, #16
 923 00b6 0BD1     		bne	.L48
 587:HAL_Lib/STM32H7xx_HAL_Driver/Src/stm32h7xx_hal_exti.c ****       pcrlinepos = 1UL << linepos;
 924              		.loc 1 587 7 is_stmt 1 view .LVU361
 587:HAL_Lib/STM32H7xx_HAL_Driver/Src/stm32h7xx_hal_exti.c ****       pcrlinepos = 1UL << linepos;
 925              		.loc 1 587 15 is_stmt 0 view .LVU362
 926 00b8 0432     		adds	r2, r2, #4
 927              	.LVL124:
 587:HAL_Lib/STM32H7xx_HAL_Driver/Src/stm32h7xx_hal_exti.c ****       pcrlinepos = 1UL << linepos;
 928              		.loc 1 587 15 view .LVU363
 929 00ba 0244     		add	r2, r2, r0
 930              	.LVL125:
 588:HAL_Lib/STM32H7xx_HAL_Driver/Src/stm32h7xx_hal_exti.c ****     }
 931              		.loc 1 588 7 is_stmt 1 view .LVU364
 932              	.L49:
 597:HAL_Lib/STM32H7xx_HAL_Driver/Src/stm32h7xx_hal_exti.c ****   }
 933              		.loc 1 597 5 view .LVU365
 597:HAL_Lib/STM32H7xx_HAL_Driver/Src/stm32h7xx_hal_exti.c ****   }
 934              		.loc 1 597 14 is_stmt 0 view .LVU366
 935 00bc 1168     		ldr	r1, [r2]
 597:HAL_Lib/STM32H7xx_HAL_Driver/Src/stm32h7xx_hal_exti.c ****   }
 936              		.loc 1 597 31 view .LVU367
 937 00be 03FB03F3 		mul	r3, r3, r3
 938              	.LVL126:
 597:HAL_Lib/STM32H7xx_HAL_Driver/Src/stm32h7xx_hal_exti.c ****   }
 939              		.loc 1 597 44 view .LVU368
 940 00c2 03EB4303 		add	r3, r3, r3, lsl #1
 597:HAL_Lib/STM32H7xx_HAL_Driver/Src/stm32h7xx_hal_exti.c ****   }
 941              		.loc 1 597 14 view .LVU369
 942 00c6 21EA0303 		bic	r3, r1, r3
 943 00ca 1360     		str	r3, [r2]
 600:HAL_Lib/STM32H7xx_HAL_Driver/Src/stm32h7xx_hal_exti.c **** }
 944              		.loc 1 600 10 view .LVU370
 945 00cc 0020     		movs	r0, #0
 946 00ce D5E7     		b	.L46
 947              	.LVL127:
 948              	.L48:
 592:HAL_Lib/STM32H7xx_HAL_Driver/Src/stm32h7xx_hal_exti.c ****       pcrlinepos = 1UL << (linepos - 16UL);
 949              		.loc 1 592 7 is_stmt 1 view .LVU371
 592:HAL_Lib/STM32H7xx_HAL_Driver/Src/stm32h7xx_hal_exti.c ****       pcrlinepos = 1UL << (linepos - 16UL);
 950              		.loc 1 592 15 is_stmt 0 view .LVU372
 951 00d0 044A     		ldr	r2, .L58+4
 952              	.LVL128:
 592:HAL_Lib/STM32H7xx_HAL_Driver/Src/stm32h7xx_hal_exti.c ****       pcrlinepos = 1UL << (linepos - 16UL);
 953              		.loc 1 592 15 view .LVU373
 954 00d2 0244     		add	r2, r2, r0
 955              	.LVL129:
 593:HAL_Lib/STM32H7xx_HAL_Driver/Src/stm32h7xx_hal_exti.c ****     }
 956              		.loc 1 593 7 is_stmt 1 view .LVU374
 593:HAL_Lib/STM32H7xx_HAL_Driver/Src/stm32h7xx_hal_exti.c ****     }
 957              		.loc 1 593 36 is_stmt 0 view .LVU375
 958 00d4 103F     		subs	r7, r7, #16
 959              	.LVL130:
ARM GAS  C:\Users\HUAV\AppData\Local\Temp\ccKNGijo.s 			page 31


 593:HAL_Lib/STM32H7xx_HAL_Driver/Src/stm32h7xx_hal_exti.c ****     }
 960              		.loc 1 593 18 view .LVU376
 961 00d6 0123     		movs	r3, #1
 962              	.LVL131:
 593:HAL_Lib/STM32H7xx_HAL_Driver/Src/stm32h7xx_hal_exti.c ****     }
 963              		.loc 1 593 18 view .LVU377
 964 00d8 BB40     		lsls	r3, r3, r7
 965              	.LVL132:
 593:HAL_Lib/STM32H7xx_HAL_Driver/Src/stm32h7xx_hal_exti.c ****     }
 966              		.loc 1 593 18 view .LVU378
 967 00da EFE7     		b	.L49
 968              	.LVL133:
 969              	.L50:
 970              	.LCFI8:
 971              		.cfi_def_cfa_offset 0
 972              		.cfi_restore 4
 973              		.cfi_restore 5
 974              		.cfi_restore 6
 975              		.cfi_restore 7
 976              		.cfi_restore 8
 977              		.cfi_restore 14
 524:HAL_Lib/STM32H7xx_HAL_Driver/Src/stm32h7xx_hal_exti.c ****   }
 978              		.loc 1 524 12 view .LVU379
 979 00dc 0120     		movs	r0, #1
 980              	.LVL134:
 981              		.loc 1 601 1 view .LVU380
 982 00de 7047     		bx	lr
 983              	.L59:
 984              		.align	2
 985              	.L58:
 986 00e0 0C000058 		.word	1476395020
 987 00e4 14000058 		.word	1476395028
 988 00e8 80000058 		.word	1476395136
 989 00ec 04000058 		.word	1476395012
 990 00f0 00040058 		.word	1476396032
 991              		.cfi_endproc
 992              	.LFE146:
 994              		.section	.text.HAL_EXTI_RegisterCallback,"ax",%progbits
 995              		.align	1
 996              		.global	HAL_EXTI_RegisterCallback
 997              		.syntax unified
 998              		.thumb
 999              		.thumb_func
 1000              		.fpu fpv5-d16
 1002              	HAL_EXTI_RegisterCallback:
 1003              	.LVL135:
 1004              	.LFB147:
 602:HAL_Lib/STM32H7xx_HAL_Driver/Src/stm32h7xx_hal_exti.c **** 
 603:HAL_Lib/STM32H7xx_HAL_Driver/Src/stm32h7xx_hal_exti.c **** 
 604:HAL_Lib/STM32H7xx_HAL_Driver/Src/stm32h7xx_hal_exti.c **** /**
 605:HAL_Lib/STM32H7xx_HAL_Driver/Src/stm32h7xx_hal_exti.c ****   * @brief  Register callback for a dedicated Exti line.
 606:HAL_Lib/STM32H7xx_HAL_Driver/Src/stm32h7xx_hal_exti.c ****   * @param  hexti Exti handle.
 607:HAL_Lib/STM32H7xx_HAL_Driver/Src/stm32h7xx_hal_exti.c ****   * @param  CallbackID User callback identifier.
 608:HAL_Lib/STM32H7xx_HAL_Driver/Src/stm32h7xx_hal_exti.c ****   *         This parameter can be one of @arg @ref EXTI_CallbackIDTypeDef values.
 609:HAL_Lib/STM32H7xx_HAL_Driver/Src/stm32h7xx_hal_exti.c ****   * @param  pPendingCbfn function pointer to be stored as callback.
 610:HAL_Lib/STM32H7xx_HAL_Driver/Src/stm32h7xx_hal_exti.c ****   * @retval HAL Status.
 611:HAL_Lib/STM32H7xx_HAL_Driver/Src/stm32h7xx_hal_exti.c ****   */
ARM GAS  C:\Users\HUAV\AppData\Local\Temp\ccKNGijo.s 			page 32


 612:HAL_Lib/STM32H7xx_HAL_Driver/Src/stm32h7xx_hal_exti.c **** HAL_StatusTypeDef HAL_EXTI_RegisterCallback(EXTI_HandleTypeDef *hexti, EXTI_CallbackIDTypeDef Callb
 613:HAL_Lib/STM32H7xx_HAL_Driver/Src/stm32h7xx_hal_exti.c **** {
 1005              		.loc 1 613 1 is_stmt 1 view -0
 1006              		.cfi_startproc
 1007              		@ args = 0, pretend = 0, frame = 0
 1008              		@ frame_needed = 0, uses_anonymous_args = 0
 1009              		@ link register save eliminated.
 614:HAL_Lib/STM32H7xx_HAL_Driver/Src/stm32h7xx_hal_exti.c ****   HAL_StatusTypeDef status = HAL_OK;
 1010              		.loc 1 614 3 view .LVU382
 615:HAL_Lib/STM32H7xx_HAL_Driver/Src/stm32h7xx_hal_exti.c **** 
 616:HAL_Lib/STM32H7xx_HAL_Driver/Src/stm32h7xx_hal_exti.c ****   /* Check null pointer */
 617:HAL_Lib/STM32H7xx_HAL_Driver/Src/stm32h7xx_hal_exti.c ****   if (hexti == NULL)
 1011              		.loc 1 617 3 view .LVU383
 1012              		.loc 1 617 6 is_stmt 0 view .LVU384
 1013 0000 18B1     		cbz	r0, .L62
 618:HAL_Lib/STM32H7xx_HAL_Driver/Src/stm32h7xx_hal_exti.c ****   {
 619:HAL_Lib/STM32H7xx_HAL_Driver/Src/stm32h7xx_hal_exti.c ****     return HAL_ERROR;
 620:HAL_Lib/STM32H7xx_HAL_Driver/Src/stm32h7xx_hal_exti.c ****   }
 621:HAL_Lib/STM32H7xx_HAL_Driver/Src/stm32h7xx_hal_exti.c **** 
 622:HAL_Lib/STM32H7xx_HAL_Driver/Src/stm32h7xx_hal_exti.c ****   switch (CallbackID)
 1014              		.loc 1 622 3 is_stmt 1 view .LVU385
 1015 0002 21B9     		cbnz	r1, .L63
 623:HAL_Lib/STM32H7xx_HAL_Driver/Src/stm32h7xx_hal_exti.c ****   {
 624:HAL_Lib/STM32H7xx_HAL_Driver/Src/stm32h7xx_hal_exti.c ****     case  HAL_EXTI_COMMON_CB_ID:
 625:HAL_Lib/STM32H7xx_HAL_Driver/Src/stm32h7xx_hal_exti.c ****       hexti->PendingCallback = pPendingCbfn;
 1016              		.loc 1 625 7 view .LVU386
 1017              		.loc 1 625 30 is_stmt 0 view .LVU387
 1018 0004 4260     		str	r2, [r0, #4]
 626:HAL_Lib/STM32H7xx_HAL_Driver/Src/stm32h7xx_hal_exti.c ****       break;
 1019              		.loc 1 626 7 is_stmt 1 view .LVU388
 614:HAL_Lib/STM32H7xx_HAL_Driver/Src/stm32h7xx_hal_exti.c **** 
 1020              		.loc 1 614 21 is_stmt 0 view .LVU389
 1021 0006 0846     		mov	r0, r1
 1022              	.LVL136:
 1023              		.loc 1 626 7 view .LVU390
 1024 0008 7047     		bx	lr
 1025              	.LVL137:
 1026              	.L62:
 619:HAL_Lib/STM32H7xx_HAL_Driver/Src/stm32h7xx_hal_exti.c ****   }
 1027              		.loc 1 619 12 view .LVU391
 1028 000a 0120     		movs	r0, #1
 1029              	.LVL138:
 619:HAL_Lib/STM32H7xx_HAL_Driver/Src/stm32h7xx_hal_exti.c ****   }
 1030              		.loc 1 619 12 view .LVU392
 1031 000c 7047     		bx	lr
 1032              	.LVL139:
 1033              	.L63:
 627:HAL_Lib/STM32H7xx_HAL_Driver/Src/stm32h7xx_hal_exti.c **** 
 628:HAL_Lib/STM32H7xx_HAL_Driver/Src/stm32h7xx_hal_exti.c ****     default:
 629:HAL_Lib/STM32H7xx_HAL_Driver/Src/stm32h7xx_hal_exti.c ****       status = HAL_ERROR;
 1034              		.loc 1 629 14 view .LVU393
 1035 000e 0120     		movs	r0, #1
 1036              	.LVL140:
 630:HAL_Lib/STM32H7xx_HAL_Driver/Src/stm32h7xx_hal_exti.c ****       break;
 631:HAL_Lib/STM32H7xx_HAL_Driver/Src/stm32h7xx_hal_exti.c ****   }
 632:HAL_Lib/STM32H7xx_HAL_Driver/Src/stm32h7xx_hal_exti.c **** 
 633:HAL_Lib/STM32H7xx_HAL_Driver/Src/stm32h7xx_hal_exti.c ****   return status;
ARM GAS  C:\Users\HUAV\AppData\Local\Temp\ccKNGijo.s 			page 33


 634:HAL_Lib/STM32H7xx_HAL_Driver/Src/stm32h7xx_hal_exti.c **** }
 1037              		.loc 1 634 1 view .LVU394
 1038 0010 7047     		bx	lr
 1039              		.cfi_endproc
 1040              	.LFE147:
 1042              		.section	.text.HAL_EXTI_GetHandle,"ax",%progbits
 1043              		.align	1
 1044              		.global	HAL_EXTI_GetHandle
 1045              		.syntax unified
 1046              		.thumb
 1047              		.thumb_func
 1048              		.fpu fpv5-d16
 1050              	HAL_EXTI_GetHandle:
 1051              	.LVL141:
 1052              	.LFB148:
 635:HAL_Lib/STM32H7xx_HAL_Driver/Src/stm32h7xx_hal_exti.c **** 
 636:HAL_Lib/STM32H7xx_HAL_Driver/Src/stm32h7xx_hal_exti.c **** 
 637:HAL_Lib/STM32H7xx_HAL_Driver/Src/stm32h7xx_hal_exti.c **** /**
 638:HAL_Lib/STM32H7xx_HAL_Driver/Src/stm32h7xx_hal_exti.c ****   * @brief  Store line number as handle private field.
 639:HAL_Lib/STM32H7xx_HAL_Driver/Src/stm32h7xx_hal_exti.c ****   * @param  hexti Exti handle.
 640:HAL_Lib/STM32H7xx_HAL_Driver/Src/stm32h7xx_hal_exti.c ****   * @param  ExtiLine Exti line number.
 641:HAL_Lib/STM32H7xx_HAL_Driver/Src/stm32h7xx_hal_exti.c ****   *         This parameter can be from 0 to @ref EXTI_LINE_NB.
 642:HAL_Lib/STM32H7xx_HAL_Driver/Src/stm32h7xx_hal_exti.c ****   * @retval HAL Status.
 643:HAL_Lib/STM32H7xx_HAL_Driver/Src/stm32h7xx_hal_exti.c ****   */
 644:HAL_Lib/STM32H7xx_HAL_Driver/Src/stm32h7xx_hal_exti.c **** HAL_StatusTypeDef HAL_EXTI_GetHandle(EXTI_HandleTypeDef *hexti, uint32_t ExtiLine)
 645:HAL_Lib/STM32H7xx_HAL_Driver/Src/stm32h7xx_hal_exti.c **** {
 1053              		.loc 1 645 1 is_stmt 1 view -0
 1054              		.cfi_startproc
 1055              		@ args = 0, pretend = 0, frame = 0
 1056              		@ frame_needed = 0, uses_anonymous_args = 0
 1057              		@ link register save eliminated.
 646:HAL_Lib/STM32H7xx_HAL_Driver/Src/stm32h7xx_hal_exti.c ****   /* Check the parameters */
 647:HAL_Lib/STM32H7xx_HAL_Driver/Src/stm32h7xx_hal_exti.c ****   assert_param(IS_EXTI_LINE(ExtiLine));
 1058              		.loc 1 647 3 view .LVU396
 648:HAL_Lib/STM32H7xx_HAL_Driver/Src/stm32h7xx_hal_exti.c **** 
 649:HAL_Lib/STM32H7xx_HAL_Driver/Src/stm32h7xx_hal_exti.c ****   /* Check null pointer */
 650:HAL_Lib/STM32H7xx_HAL_Driver/Src/stm32h7xx_hal_exti.c ****   if (hexti == NULL)
 1059              		.loc 1 650 3 view .LVU397
 1060              		.loc 1 650 6 is_stmt 0 view .LVU398
 1061 0000 10B1     		cbz	r0, .L66
 651:HAL_Lib/STM32H7xx_HAL_Driver/Src/stm32h7xx_hal_exti.c ****   {
 652:HAL_Lib/STM32H7xx_HAL_Driver/Src/stm32h7xx_hal_exti.c ****     return HAL_ERROR;
 653:HAL_Lib/STM32H7xx_HAL_Driver/Src/stm32h7xx_hal_exti.c ****   }
 654:HAL_Lib/STM32H7xx_HAL_Driver/Src/stm32h7xx_hal_exti.c ****   else
 655:HAL_Lib/STM32H7xx_HAL_Driver/Src/stm32h7xx_hal_exti.c ****   {
 656:HAL_Lib/STM32H7xx_HAL_Driver/Src/stm32h7xx_hal_exti.c ****     /* Store line number as handle private field */
 657:HAL_Lib/STM32H7xx_HAL_Driver/Src/stm32h7xx_hal_exti.c ****     hexti->Line = ExtiLine;
 1062              		.loc 1 657 5 is_stmt 1 view .LVU399
 1063              		.loc 1 657 17 is_stmt 0 view .LVU400
 1064 0002 0160     		str	r1, [r0]
 658:HAL_Lib/STM32H7xx_HAL_Driver/Src/stm32h7xx_hal_exti.c **** 
 659:HAL_Lib/STM32H7xx_HAL_Driver/Src/stm32h7xx_hal_exti.c ****     return HAL_OK;
 1065              		.loc 1 659 5 is_stmt 1 view .LVU401
 1066              		.loc 1 659 12 is_stmt 0 view .LVU402
 1067 0004 0020     		movs	r0, #0
 1068              	.LVL142:
 1069              		.loc 1 659 12 view .LVU403
ARM GAS  C:\Users\HUAV\AppData\Local\Temp\ccKNGijo.s 			page 34


 1070 0006 7047     		bx	lr
 1071              	.LVL143:
 1072              	.L66:
 652:HAL_Lib/STM32H7xx_HAL_Driver/Src/stm32h7xx_hal_exti.c ****   }
 1073              		.loc 1 652 12 view .LVU404
 1074 0008 0120     		movs	r0, #1
 1075              	.LVL144:
 660:HAL_Lib/STM32H7xx_HAL_Driver/Src/stm32h7xx_hal_exti.c ****   }
 661:HAL_Lib/STM32H7xx_HAL_Driver/Src/stm32h7xx_hal_exti.c **** }
 1076              		.loc 1 661 1 view .LVU405
 1077 000a 7047     		bx	lr
 1078              		.cfi_endproc
 1079              	.LFE148:
 1081              		.section	.text.HAL_EXTI_IRQHandler,"ax",%progbits
 1082              		.align	1
 1083              		.global	HAL_EXTI_IRQHandler
 1084              		.syntax unified
 1085              		.thumb
 1086              		.thumb_func
 1087              		.fpu fpv5-d16
 1089              	HAL_EXTI_IRQHandler:
 1090              	.LVL145:
 1091              	.LFB149:
 662:HAL_Lib/STM32H7xx_HAL_Driver/Src/stm32h7xx_hal_exti.c **** 
 663:HAL_Lib/STM32H7xx_HAL_Driver/Src/stm32h7xx_hal_exti.c **** 
 664:HAL_Lib/STM32H7xx_HAL_Driver/Src/stm32h7xx_hal_exti.c **** /**
 665:HAL_Lib/STM32H7xx_HAL_Driver/Src/stm32h7xx_hal_exti.c ****   * @}
 666:HAL_Lib/STM32H7xx_HAL_Driver/Src/stm32h7xx_hal_exti.c ****   */
 667:HAL_Lib/STM32H7xx_HAL_Driver/Src/stm32h7xx_hal_exti.c **** 
 668:HAL_Lib/STM32H7xx_HAL_Driver/Src/stm32h7xx_hal_exti.c **** /** @addtogroup EXTI_Exported_Functions_Group2
 669:HAL_Lib/STM32H7xx_HAL_Driver/Src/stm32h7xx_hal_exti.c ****  *  @brief EXTI IO functions.
 670:HAL_Lib/STM32H7xx_HAL_Driver/Src/stm32h7xx_hal_exti.c ****  *
 671:HAL_Lib/STM32H7xx_HAL_Driver/Src/stm32h7xx_hal_exti.c **** @verbatim
 672:HAL_Lib/STM32H7xx_HAL_Driver/Src/stm32h7xx_hal_exti.c ****  ===============================================================================
 673:HAL_Lib/STM32H7xx_HAL_Driver/Src/stm32h7xx_hal_exti.c ****                        ##### IO operation functions #####
 674:HAL_Lib/STM32H7xx_HAL_Driver/Src/stm32h7xx_hal_exti.c ****  ===============================================================================
 675:HAL_Lib/STM32H7xx_HAL_Driver/Src/stm32h7xx_hal_exti.c **** 
 676:HAL_Lib/STM32H7xx_HAL_Driver/Src/stm32h7xx_hal_exti.c **** @endverbatim
 677:HAL_Lib/STM32H7xx_HAL_Driver/Src/stm32h7xx_hal_exti.c ****   * @{
 678:HAL_Lib/STM32H7xx_HAL_Driver/Src/stm32h7xx_hal_exti.c ****   */
 679:HAL_Lib/STM32H7xx_HAL_Driver/Src/stm32h7xx_hal_exti.c **** 
 680:HAL_Lib/STM32H7xx_HAL_Driver/Src/stm32h7xx_hal_exti.c **** /**
 681:HAL_Lib/STM32H7xx_HAL_Driver/Src/stm32h7xx_hal_exti.c ****   * @brief  Handle EXTI interrupt request.
 682:HAL_Lib/STM32H7xx_HAL_Driver/Src/stm32h7xx_hal_exti.c ****   * @param  hexti Exti handle.
 683:HAL_Lib/STM32H7xx_HAL_Driver/Src/stm32h7xx_hal_exti.c ****   * @retval none.
 684:HAL_Lib/STM32H7xx_HAL_Driver/Src/stm32h7xx_hal_exti.c ****   */
 685:HAL_Lib/STM32H7xx_HAL_Driver/Src/stm32h7xx_hal_exti.c **** void HAL_EXTI_IRQHandler(EXTI_HandleTypeDef *hexti)
 686:HAL_Lib/STM32H7xx_HAL_Driver/Src/stm32h7xx_hal_exti.c **** {
 1092              		.loc 1 686 1 is_stmt 1 view -0
 1093              		.cfi_startproc
 1094              		@ args = 0, pretend = 0, frame = 0
 1095              		@ frame_needed = 0, uses_anonymous_args = 0
 1096              		.loc 1 686 1 is_stmt 0 view .LVU407
 1097 0000 10B5     		push	{r4, lr}
 1098              	.LCFI9:
 1099              		.cfi_def_cfa_offset 8
 1100              		.cfi_offset 4, -8
ARM GAS  C:\Users\HUAV\AppData\Local\Temp\ccKNGijo.s 			page 35


 1101              		.cfi_offset 14, -4
 687:HAL_Lib/STM32H7xx_HAL_Driver/Src/stm32h7xx_hal_exti.c ****   __IO uint32_t *regaddr;
 1102              		.loc 1 687 3 is_stmt 1 view .LVU408
 688:HAL_Lib/STM32H7xx_HAL_Driver/Src/stm32h7xx_hal_exti.c ****   uint32_t regval;
 1103              		.loc 1 688 3 view .LVU409
 689:HAL_Lib/STM32H7xx_HAL_Driver/Src/stm32h7xx_hal_exti.c ****   uint32_t maskline;
 1104              		.loc 1 689 3 view .LVU410
 690:HAL_Lib/STM32H7xx_HAL_Driver/Src/stm32h7xx_hal_exti.c ****   uint32_t offset;
 1105              		.loc 1 690 3 view .LVU411
 691:HAL_Lib/STM32H7xx_HAL_Driver/Src/stm32h7xx_hal_exti.c **** 
 692:HAL_Lib/STM32H7xx_HAL_Driver/Src/stm32h7xx_hal_exti.c ****   /* Compute line register offset and line mask */
 693:HAL_Lib/STM32H7xx_HAL_Driver/Src/stm32h7xx_hal_exti.c ****   offset = ((hexti->Line & EXTI_REG_MASK) >> EXTI_REG_SHIFT);
 1106              		.loc 1 693 3 view .LVU412
 1107              		.loc 1 693 19 is_stmt 0 view .LVU413
 1108 0002 0368     		ldr	r3, [r0]
 1109              		.loc 1 693 10 view .LVU414
 1110 0004 C3F30142 		ubfx	r2, r3, #16, #2
 1111              	.LVL146:
 694:HAL_Lib/STM32H7xx_HAL_Driver/Src/stm32h7xx_hal_exti.c ****   maskline = (1UL << (hexti->Line & EXTI_PIN_MASK));
 1112              		.loc 1 694 3 is_stmt 1 view .LVU415
 1113              		.loc 1 694 35 is_stmt 0 view .LVU416
 1114 0008 03F01F03 		and	r3, r3, #31
 1115              		.loc 1 694 12 view .LVU417
 1116 000c 0121     		movs	r1, #1
 1117 000e 01FA03F3 		lsl	r3, r1, r3
 1118              	.LVL147:
 695:HAL_Lib/STM32H7xx_HAL_Driver/Src/stm32h7xx_hal_exti.c **** 
 696:HAL_Lib/STM32H7xx_HAL_Driver/Src/stm32h7xx_hal_exti.c **** #if defined(DUAL_CORE)
 697:HAL_Lib/STM32H7xx_HAL_Driver/Src/stm32h7xx_hal_exti.c ****   if (HAL_GetCurrentCPUID() == CM7_CPUID)
 698:HAL_Lib/STM32H7xx_HAL_Driver/Src/stm32h7xx_hal_exti.c ****   {
 699:HAL_Lib/STM32H7xx_HAL_Driver/Src/stm32h7xx_hal_exti.c ****     /* Get pending register address */
 700:HAL_Lib/STM32H7xx_HAL_Driver/Src/stm32h7xx_hal_exti.c ****     regaddr = (__IO uint32_t *)(&EXTI->PR1 + (EXTI_MODE_OFFSET * offset));
 701:HAL_Lib/STM32H7xx_HAL_Driver/Src/stm32h7xx_hal_exti.c ****   }
 702:HAL_Lib/STM32H7xx_HAL_Driver/Src/stm32h7xx_hal_exti.c ****   else /* Cortex-M4*/
 703:HAL_Lib/STM32H7xx_HAL_Driver/Src/stm32h7xx_hal_exti.c ****   {
 704:HAL_Lib/STM32H7xx_HAL_Driver/Src/stm32h7xx_hal_exti.c ****     /* Get pending register address */
 705:HAL_Lib/STM32H7xx_HAL_Driver/Src/stm32h7xx_hal_exti.c ****     regaddr = (__IO uint32_t *)(&EXTI->C2PR1 + (EXTI_MODE_OFFSET * offset));
 706:HAL_Lib/STM32H7xx_HAL_Driver/Src/stm32h7xx_hal_exti.c ****   }
 707:HAL_Lib/STM32H7xx_HAL_Driver/Src/stm32h7xx_hal_exti.c **** #else
 708:HAL_Lib/STM32H7xx_HAL_Driver/Src/stm32h7xx_hal_exti.c ****   regaddr = (__IO uint32_t *)(&EXTI->PR1 + (EXTI_MODE_OFFSET * offset));
 1119              		.loc 1 708 3 is_stmt 1 view .LVU418
 1120              		.loc 1 708 13 is_stmt 0 view .LVU419
 1121 0012 1201     		lsls	r2, r2, #4
 1122              	.LVL148:
 1123              		.loc 1 708 11 view .LVU420
 1124 0014 0449     		ldr	r1, .L70
 1125              	.LVL149:
 709:HAL_Lib/STM32H7xx_HAL_Driver/Src/stm32h7xx_hal_exti.c **** #endif /* DUAL_CORE */
 710:HAL_Lib/STM32H7xx_HAL_Driver/Src/stm32h7xx_hal_exti.c **** 
 711:HAL_Lib/STM32H7xx_HAL_Driver/Src/stm32h7xx_hal_exti.c ****   /* Get pending bit  */
 712:HAL_Lib/STM32H7xx_HAL_Driver/Src/stm32h7xx_hal_exti.c ****   regval = (*regaddr & maskline);
 1126              		.loc 1 712 3 is_stmt 1 view .LVU421
 1127              		.loc 1 712 13 is_stmt 0 view .LVU422
 1128 0016 5458     		ldr	r4, [r2, r1]
 1129              	.LVL150:
 713:HAL_Lib/STM32H7xx_HAL_Driver/Src/stm32h7xx_hal_exti.c **** 
 714:HAL_Lib/STM32H7xx_HAL_Driver/Src/stm32h7xx_hal_exti.c ****   if (regval != 0x00U)
ARM GAS  C:\Users\HUAV\AppData\Local\Temp\ccKNGijo.s 			page 36


 1130              		.loc 1 714 3 is_stmt 1 view .LVU423
 1131              		.loc 1 714 6 is_stmt 0 view .LVU424
 1132 0018 1C42     		tst	r4, r3
 1133 001a 03D0     		beq	.L67
 715:HAL_Lib/STM32H7xx_HAL_Driver/Src/stm32h7xx_hal_exti.c ****   {
 716:HAL_Lib/STM32H7xx_HAL_Driver/Src/stm32h7xx_hal_exti.c ****     /* Clear pending bit */
 717:HAL_Lib/STM32H7xx_HAL_Driver/Src/stm32h7xx_hal_exti.c ****     *regaddr = maskline;
 1134              		.loc 1 717 5 is_stmt 1 view .LVU425
 1135              		.loc 1 717 14 is_stmt 0 view .LVU426
 1136 001c 5350     		str	r3, [r2, r1]
 1137              	.LVL151:
 718:HAL_Lib/STM32H7xx_HAL_Driver/Src/stm32h7xx_hal_exti.c **** 
 719:HAL_Lib/STM32H7xx_HAL_Driver/Src/stm32h7xx_hal_exti.c ****     /* Call callback */
 720:HAL_Lib/STM32H7xx_HAL_Driver/Src/stm32h7xx_hal_exti.c ****     if (hexti->PendingCallback != NULL)
 1138              		.loc 1 720 5 is_stmt 1 view .LVU427
 1139              		.loc 1 720 14 is_stmt 0 view .LVU428
 1140 001e 4368     		ldr	r3, [r0, #4]
 1141              	.LVL152:
 1142              		.loc 1 720 8 view .LVU429
 1143 0020 03B1     		cbz	r3, .L67
 721:HAL_Lib/STM32H7xx_HAL_Driver/Src/stm32h7xx_hal_exti.c ****     {
 722:HAL_Lib/STM32H7xx_HAL_Driver/Src/stm32h7xx_hal_exti.c ****       hexti->PendingCallback();
 1144              		.loc 1 722 7 is_stmt 1 view .LVU430
 1145 0022 9847     		blx	r3
 1146              	.LVL153:
 1147              	.L67:
 723:HAL_Lib/STM32H7xx_HAL_Driver/Src/stm32h7xx_hal_exti.c ****     }
 724:HAL_Lib/STM32H7xx_HAL_Driver/Src/stm32h7xx_hal_exti.c ****   }
 725:HAL_Lib/STM32H7xx_HAL_Driver/Src/stm32h7xx_hal_exti.c **** }
 1148              		.loc 1 725 1 is_stmt 0 view .LVU431
 1149 0024 10BD     		pop	{r4, pc}
 1150              	.L71:
 1151              		.loc 1 725 1 view .LVU432
 1152 0026 00BF     		.align	2
 1153              	.L70:
 1154 0028 88000058 		.word	1476395144
 1155              		.cfi_endproc
 1156              	.LFE149:
 1158              		.section	.text.HAL_EXTI_GetPending,"ax",%progbits
 1159              		.align	1
 1160              		.global	HAL_EXTI_GetPending
 1161              		.syntax unified
 1162              		.thumb
 1163              		.thumb_func
 1164              		.fpu fpv5-d16
 1166              	HAL_EXTI_GetPending:
 1167              	.LVL154:
 1168              	.LFB150:
 726:HAL_Lib/STM32H7xx_HAL_Driver/Src/stm32h7xx_hal_exti.c **** 
 727:HAL_Lib/STM32H7xx_HAL_Driver/Src/stm32h7xx_hal_exti.c **** 
 728:HAL_Lib/STM32H7xx_HAL_Driver/Src/stm32h7xx_hal_exti.c **** /**
 729:HAL_Lib/STM32H7xx_HAL_Driver/Src/stm32h7xx_hal_exti.c ****   * @brief  Get interrupt pending bit of a dedicated line.
 730:HAL_Lib/STM32H7xx_HAL_Driver/Src/stm32h7xx_hal_exti.c ****   * @param  hexti Exti handle.
 731:HAL_Lib/STM32H7xx_HAL_Driver/Src/stm32h7xx_hal_exti.c ****   * @param  Edge Specify which pending edge as to be checked.
 732:HAL_Lib/STM32H7xx_HAL_Driver/Src/stm32h7xx_hal_exti.c ****   *         This parameter can be one of the following values:
 733:HAL_Lib/STM32H7xx_HAL_Driver/Src/stm32h7xx_hal_exti.c ****   *           @arg @ref EXTI_TRIGGER_RISING_FALLING
 734:HAL_Lib/STM32H7xx_HAL_Driver/Src/stm32h7xx_hal_exti.c ****   *         This parameter is kept for compatibility with other series.
ARM GAS  C:\Users\HUAV\AppData\Local\Temp\ccKNGijo.s 			page 37


 735:HAL_Lib/STM32H7xx_HAL_Driver/Src/stm32h7xx_hal_exti.c ****   * @retval 1 if interrupt is pending else 0.
 736:HAL_Lib/STM32H7xx_HAL_Driver/Src/stm32h7xx_hal_exti.c ****   */
 737:HAL_Lib/STM32H7xx_HAL_Driver/Src/stm32h7xx_hal_exti.c **** uint32_t HAL_EXTI_GetPending(EXTI_HandleTypeDef *hexti, uint32_t Edge)
 738:HAL_Lib/STM32H7xx_HAL_Driver/Src/stm32h7xx_hal_exti.c **** {
 1169              		.loc 1 738 1 is_stmt 1 view -0
 1170              		.cfi_startproc
 1171              		@ args = 0, pretend = 0, frame = 0
 1172              		@ frame_needed = 0, uses_anonymous_args = 0
 1173              		@ link register save eliminated.
 739:HAL_Lib/STM32H7xx_HAL_Driver/Src/stm32h7xx_hal_exti.c ****   __IO uint32_t *regaddr;
 1174              		.loc 1 739 3 view .LVU434
 740:HAL_Lib/STM32H7xx_HAL_Driver/Src/stm32h7xx_hal_exti.c ****   uint32_t regval;
 1175              		.loc 1 740 3 view .LVU435
 741:HAL_Lib/STM32H7xx_HAL_Driver/Src/stm32h7xx_hal_exti.c ****   uint32_t linepos;
 1176              		.loc 1 741 3 view .LVU436
 742:HAL_Lib/STM32H7xx_HAL_Driver/Src/stm32h7xx_hal_exti.c ****   uint32_t maskline;
 1177              		.loc 1 742 3 view .LVU437
 743:HAL_Lib/STM32H7xx_HAL_Driver/Src/stm32h7xx_hal_exti.c ****   uint32_t offset;
 1178              		.loc 1 743 3 view .LVU438
 744:HAL_Lib/STM32H7xx_HAL_Driver/Src/stm32h7xx_hal_exti.c **** 
 745:HAL_Lib/STM32H7xx_HAL_Driver/Src/stm32h7xx_hal_exti.c ****   /* Check parameters */
 746:HAL_Lib/STM32H7xx_HAL_Driver/Src/stm32h7xx_hal_exti.c ****   assert_param(IS_EXTI_LINE(hexti->Line));
 1179              		.loc 1 746 3 view .LVU439
 747:HAL_Lib/STM32H7xx_HAL_Driver/Src/stm32h7xx_hal_exti.c ****   assert_param(IS_EXTI_CONFIG_LINE(hexti->Line));
 1180              		.loc 1 747 3 view .LVU440
 748:HAL_Lib/STM32H7xx_HAL_Driver/Src/stm32h7xx_hal_exti.c ****   assert_param(IS_EXTI_PENDING_EDGE(Edge));
 1181              		.loc 1 748 3 view .LVU441
 749:HAL_Lib/STM32H7xx_HAL_Driver/Src/stm32h7xx_hal_exti.c **** 
 750:HAL_Lib/STM32H7xx_HAL_Driver/Src/stm32h7xx_hal_exti.c ****   /* compute line register offset and line mask */
 751:HAL_Lib/STM32H7xx_HAL_Driver/Src/stm32h7xx_hal_exti.c ****   offset = ((hexti->Line & EXTI_REG_MASK) >> EXTI_REG_SHIFT);
 1182              		.loc 1 751 3 view .LVU442
 1183              		.loc 1 751 19 is_stmt 0 view .LVU443
 1184 0000 0368     		ldr	r3, [r0]
 1185              		.loc 1 751 10 view .LVU444
 1186 0002 C3F30141 		ubfx	r1, r3, #16, #2
 1187              	.LVL155:
 752:HAL_Lib/STM32H7xx_HAL_Driver/Src/stm32h7xx_hal_exti.c ****   linepos = (hexti->Line & EXTI_PIN_MASK);
 1188              		.loc 1 752 3 is_stmt 1 view .LVU445
 1189              		.loc 1 752 11 is_stmt 0 view .LVU446
 1190 0006 03F01F03 		and	r3, r3, #31
 1191              	.LVL156:
 753:HAL_Lib/STM32H7xx_HAL_Driver/Src/stm32h7xx_hal_exti.c ****   maskline = (1UL << linepos);
 1192              		.loc 1 753 3 is_stmt 1 view .LVU447
 1193              		.loc 1 753 12 is_stmt 0 view .LVU448
 1194 000a 0120     		movs	r0, #1
 1195              	.LVL157:
 1196              		.loc 1 753 12 view .LVU449
 1197 000c 00FA03F2 		lsl	r2, r0, r3
 1198              	.LVL158:
 754:HAL_Lib/STM32H7xx_HAL_Driver/Src/stm32h7xx_hal_exti.c **** 
 755:HAL_Lib/STM32H7xx_HAL_Driver/Src/stm32h7xx_hal_exti.c **** #if defined(DUAL_CORE)
 756:HAL_Lib/STM32H7xx_HAL_Driver/Src/stm32h7xx_hal_exti.c ****   if (HAL_GetCurrentCPUID() == CM7_CPUID)
 757:HAL_Lib/STM32H7xx_HAL_Driver/Src/stm32h7xx_hal_exti.c ****   {
 758:HAL_Lib/STM32H7xx_HAL_Driver/Src/stm32h7xx_hal_exti.c ****     /* Get pending register address */
 759:HAL_Lib/STM32H7xx_HAL_Driver/Src/stm32h7xx_hal_exti.c ****     regaddr = (__IO uint32_t *)(&EXTI->PR1 + (EXTI_MODE_OFFSET * offset));
 760:HAL_Lib/STM32H7xx_HAL_Driver/Src/stm32h7xx_hal_exti.c ****   }
 761:HAL_Lib/STM32H7xx_HAL_Driver/Src/stm32h7xx_hal_exti.c ****   else /* Cortex-M4 */
ARM GAS  C:\Users\HUAV\AppData\Local\Temp\ccKNGijo.s 			page 38


 762:HAL_Lib/STM32H7xx_HAL_Driver/Src/stm32h7xx_hal_exti.c ****   {
 763:HAL_Lib/STM32H7xx_HAL_Driver/Src/stm32h7xx_hal_exti.c ****     /* Get pending register address */
 764:HAL_Lib/STM32H7xx_HAL_Driver/Src/stm32h7xx_hal_exti.c ****     regaddr = (__IO uint32_t *)(&EXTI->C2PR1 + (EXTI_MODE_OFFSET * offset));
 765:HAL_Lib/STM32H7xx_HAL_Driver/Src/stm32h7xx_hal_exti.c ****   }
 766:HAL_Lib/STM32H7xx_HAL_Driver/Src/stm32h7xx_hal_exti.c **** #else
 767:HAL_Lib/STM32H7xx_HAL_Driver/Src/stm32h7xx_hal_exti.c ****   regaddr = (__IO uint32_t *)(&EXTI->PR1 + (EXTI_MODE_OFFSET * offset));
 1199              		.loc 1 767 3 is_stmt 1 view .LVU450
 1200              		.loc 1 767 13 is_stmt 0 view .LVU451
 1201 0010 0901     		lsls	r1, r1, #4
 1202              	.LVL159:
 1203              		.loc 1 767 11 view .LVU452
 1204 0012 0248     		ldr	r0, .L73
 1205              	.LVL160:
 768:HAL_Lib/STM32H7xx_HAL_Driver/Src/stm32h7xx_hal_exti.c **** #endif /* DUAL_CORE */
 769:HAL_Lib/STM32H7xx_HAL_Driver/Src/stm32h7xx_hal_exti.c **** 
 770:HAL_Lib/STM32H7xx_HAL_Driver/Src/stm32h7xx_hal_exti.c ****   /* return 1 if bit is set else 0 */
 771:HAL_Lib/STM32H7xx_HAL_Driver/Src/stm32h7xx_hal_exti.c ****   regval = ((*regaddr & maskline) >> linepos);
 1206              		.loc 1 771 3 is_stmt 1 view .LVU453
 1207              		.loc 1 771 14 is_stmt 0 view .LVU454
 1208 0014 0858     		ldr	r0, [r1, r0]
 1209              	.LVL161:
 1210              		.loc 1 771 23 view .LVU455
 1211 0016 1040     		ands	r0, r0, r2
 1212              	.LVL162:
 772:HAL_Lib/STM32H7xx_HAL_Driver/Src/stm32h7xx_hal_exti.c ****   return regval;
 1213              		.loc 1 772 3 is_stmt 1 view .LVU456
 773:HAL_Lib/STM32H7xx_HAL_Driver/Src/stm32h7xx_hal_exti.c **** }
 1214              		.loc 1 773 1 is_stmt 0 view .LVU457
 1215 0018 D840     		lsrs	r0, r0, r3
 1216              	.LVL163:
 1217              		.loc 1 773 1 view .LVU458
 1218 001a 7047     		bx	lr
 1219              	.L74:
 1220              		.align	2
 1221              	.L73:
 1222 001c 88000058 		.word	1476395144
 1223              		.cfi_endproc
 1224              	.LFE150:
 1226              		.section	.text.HAL_EXTI_ClearPending,"ax",%progbits
 1227              		.align	1
 1228              		.global	HAL_EXTI_ClearPending
 1229              		.syntax unified
 1230              		.thumb
 1231              		.thumb_func
 1232              		.fpu fpv5-d16
 1234              	HAL_EXTI_ClearPending:
 1235              	.LVL164:
 1236              	.LFB151:
 774:HAL_Lib/STM32H7xx_HAL_Driver/Src/stm32h7xx_hal_exti.c **** 
 775:HAL_Lib/STM32H7xx_HAL_Driver/Src/stm32h7xx_hal_exti.c **** 
 776:HAL_Lib/STM32H7xx_HAL_Driver/Src/stm32h7xx_hal_exti.c **** /**
 777:HAL_Lib/STM32H7xx_HAL_Driver/Src/stm32h7xx_hal_exti.c ****   * @brief  Clear interrupt pending bit of a dedicated line.
 778:HAL_Lib/STM32H7xx_HAL_Driver/Src/stm32h7xx_hal_exti.c ****   * @param  hexti Exti handle.
 779:HAL_Lib/STM32H7xx_HAL_Driver/Src/stm32h7xx_hal_exti.c ****   * @param  Edge Specify which pending edge as to be clear.
 780:HAL_Lib/STM32H7xx_HAL_Driver/Src/stm32h7xx_hal_exti.c ****   *         This parameter can be one of the following values:
 781:HAL_Lib/STM32H7xx_HAL_Driver/Src/stm32h7xx_hal_exti.c ****   *           @arg @ref EXTI_TRIGGER_RISING_FALLING
 782:HAL_Lib/STM32H7xx_HAL_Driver/Src/stm32h7xx_hal_exti.c ****   *         This parameter is kept for compatibility with other series.
ARM GAS  C:\Users\HUAV\AppData\Local\Temp\ccKNGijo.s 			page 39


 783:HAL_Lib/STM32H7xx_HAL_Driver/Src/stm32h7xx_hal_exti.c ****   * @retval None.
 784:HAL_Lib/STM32H7xx_HAL_Driver/Src/stm32h7xx_hal_exti.c ****   */
 785:HAL_Lib/STM32H7xx_HAL_Driver/Src/stm32h7xx_hal_exti.c **** void HAL_EXTI_ClearPending(EXTI_HandleTypeDef *hexti, uint32_t Edge)
 786:HAL_Lib/STM32H7xx_HAL_Driver/Src/stm32h7xx_hal_exti.c **** {
 1237              		.loc 1 786 1 is_stmt 1 view -0
 1238              		.cfi_startproc
 1239              		@ args = 0, pretend = 0, frame = 0
 1240              		@ frame_needed = 0, uses_anonymous_args = 0
 1241              		@ link register save eliminated.
 787:HAL_Lib/STM32H7xx_HAL_Driver/Src/stm32h7xx_hal_exti.c ****   __IO uint32_t *regaddr;
 1242              		.loc 1 787 3 view .LVU460
 788:HAL_Lib/STM32H7xx_HAL_Driver/Src/stm32h7xx_hal_exti.c ****   uint32_t maskline;
 1243              		.loc 1 788 3 view .LVU461
 789:HAL_Lib/STM32H7xx_HAL_Driver/Src/stm32h7xx_hal_exti.c ****   uint32_t offset;
 1244              		.loc 1 789 3 view .LVU462
 790:HAL_Lib/STM32H7xx_HAL_Driver/Src/stm32h7xx_hal_exti.c **** 
 791:HAL_Lib/STM32H7xx_HAL_Driver/Src/stm32h7xx_hal_exti.c ****   /* Check parameters */
 792:HAL_Lib/STM32H7xx_HAL_Driver/Src/stm32h7xx_hal_exti.c ****   assert_param(IS_EXTI_LINE(hexti->Line));
 1245              		.loc 1 792 3 view .LVU463
 793:HAL_Lib/STM32H7xx_HAL_Driver/Src/stm32h7xx_hal_exti.c ****   assert_param(IS_EXTI_CONFIG_LINE(hexti->Line));
 1246              		.loc 1 793 3 view .LVU464
 794:HAL_Lib/STM32H7xx_HAL_Driver/Src/stm32h7xx_hal_exti.c ****   assert_param(IS_EXTI_PENDING_EDGE(Edge));
 1247              		.loc 1 794 3 view .LVU465
 795:HAL_Lib/STM32H7xx_HAL_Driver/Src/stm32h7xx_hal_exti.c **** 
 796:HAL_Lib/STM32H7xx_HAL_Driver/Src/stm32h7xx_hal_exti.c ****   /* compute line register offset and line mask */
 797:HAL_Lib/STM32H7xx_HAL_Driver/Src/stm32h7xx_hal_exti.c ****   offset = ((hexti->Line & EXTI_REG_MASK) >> EXTI_REG_SHIFT);
 1248              		.loc 1 797 3 view .LVU466
 1249              		.loc 1 797 19 is_stmt 0 view .LVU467
 1250 0000 0368     		ldr	r3, [r0]
 1251              		.loc 1 797 10 view .LVU468
 1252 0002 C3F30142 		ubfx	r2, r3, #16, #2
 1253              	.LVL165:
 798:HAL_Lib/STM32H7xx_HAL_Driver/Src/stm32h7xx_hal_exti.c ****   maskline = (1UL << (hexti->Line & EXTI_PIN_MASK));
 1254              		.loc 1 798 3 is_stmt 1 view .LVU469
 1255              		.loc 1 798 35 is_stmt 0 view .LVU470
 1256 0006 03F01F03 		and	r3, r3, #31
 1257              		.loc 1 798 12 view .LVU471
 1258 000a 0121     		movs	r1, #1
 1259              	.LVL166:
 1260              		.loc 1 798 12 view .LVU472
 1261 000c 01FA03F3 		lsl	r3, r1, r3
 1262              	.LVL167:
 799:HAL_Lib/STM32H7xx_HAL_Driver/Src/stm32h7xx_hal_exti.c **** 
 800:HAL_Lib/STM32H7xx_HAL_Driver/Src/stm32h7xx_hal_exti.c **** #if defined(DUAL_CORE)
 801:HAL_Lib/STM32H7xx_HAL_Driver/Src/stm32h7xx_hal_exti.c ****   if (HAL_GetCurrentCPUID() == CM7_CPUID)
 802:HAL_Lib/STM32H7xx_HAL_Driver/Src/stm32h7xx_hal_exti.c ****   {
 803:HAL_Lib/STM32H7xx_HAL_Driver/Src/stm32h7xx_hal_exti.c ****     /* Get pending register address */
 804:HAL_Lib/STM32H7xx_HAL_Driver/Src/stm32h7xx_hal_exti.c ****     regaddr = (__IO uint32_t *)(&EXTI->PR1 + (EXTI_MODE_OFFSET * offset));
 805:HAL_Lib/STM32H7xx_HAL_Driver/Src/stm32h7xx_hal_exti.c ****   }
 806:HAL_Lib/STM32H7xx_HAL_Driver/Src/stm32h7xx_hal_exti.c ****   else /* Cortex-M4 */
 807:HAL_Lib/STM32H7xx_HAL_Driver/Src/stm32h7xx_hal_exti.c ****   {
 808:HAL_Lib/STM32H7xx_HAL_Driver/Src/stm32h7xx_hal_exti.c ****     /* Get pending register address */
 809:HAL_Lib/STM32H7xx_HAL_Driver/Src/stm32h7xx_hal_exti.c ****     regaddr = (__IO uint32_t *)(&EXTI->C2PR1 + (EXTI_MODE_OFFSET * offset));
 810:HAL_Lib/STM32H7xx_HAL_Driver/Src/stm32h7xx_hal_exti.c ****   }
 811:HAL_Lib/STM32H7xx_HAL_Driver/Src/stm32h7xx_hal_exti.c **** #else
 812:HAL_Lib/STM32H7xx_HAL_Driver/Src/stm32h7xx_hal_exti.c ****   regaddr = (__IO uint32_t *)(&EXTI->PR1 + (EXTI_MODE_OFFSET * offset));
 1263              		.loc 1 812 3 is_stmt 1 view .LVU473
ARM GAS  C:\Users\HUAV\AppData\Local\Temp\ccKNGijo.s 			page 40


 1264              		.loc 1 812 13 is_stmt 0 view .LVU474
 1265 0010 1201     		lsls	r2, r2, #4
 1266              	.LVL168:
 1267              		.loc 1 812 11 view .LVU475
 1268 0012 0149     		ldr	r1, .L76
 1269              	.LVL169:
 813:HAL_Lib/STM32H7xx_HAL_Driver/Src/stm32h7xx_hal_exti.c **** #endif /* DUAL_CORE */
 814:HAL_Lib/STM32H7xx_HAL_Driver/Src/stm32h7xx_hal_exti.c **** 
 815:HAL_Lib/STM32H7xx_HAL_Driver/Src/stm32h7xx_hal_exti.c ****   /* Clear Pending bit */
 816:HAL_Lib/STM32H7xx_HAL_Driver/Src/stm32h7xx_hal_exti.c ****   *regaddr =  maskline;
 1270              		.loc 1 816 3 is_stmt 1 view .LVU476
 1271              		.loc 1 816 12 is_stmt 0 view .LVU477
 1272 0014 5350     		str	r3, [r2, r1]
 1273              	.LVL170:
 817:HAL_Lib/STM32H7xx_HAL_Driver/Src/stm32h7xx_hal_exti.c **** }
 1274              		.loc 1 817 1 view .LVU478
 1275 0016 7047     		bx	lr
 1276              	.L77:
 1277              		.align	2
 1278              	.L76:
 1279 0018 88000058 		.word	1476395144
 1280              		.cfi_endproc
 1281              	.LFE151:
 1283              		.section	.text.HAL_EXTI_GenerateSWI,"ax",%progbits
 1284              		.align	1
 1285              		.global	HAL_EXTI_GenerateSWI
 1286              		.syntax unified
 1287              		.thumb
 1288              		.thumb_func
 1289              		.fpu fpv5-d16
 1291              	HAL_EXTI_GenerateSWI:
 1292              	.LVL171:
 1293              	.LFB152:
 818:HAL_Lib/STM32H7xx_HAL_Driver/Src/stm32h7xx_hal_exti.c **** 
 819:HAL_Lib/STM32H7xx_HAL_Driver/Src/stm32h7xx_hal_exti.c **** /**
 820:HAL_Lib/STM32H7xx_HAL_Driver/Src/stm32h7xx_hal_exti.c ****   * @brief  Generate a software interrupt for a dedicated line.
 821:HAL_Lib/STM32H7xx_HAL_Driver/Src/stm32h7xx_hal_exti.c ****   * @param  hexti Exti handle.
 822:HAL_Lib/STM32H7xx_HAL_Driver/Src/stm32h7xx_hal_exti.c ****   * @retval None.
 823:HAL_Lib/STM32H7xx_HAL_Driver/Src/stm32h7xx_hal_exti.c ****   */
 824:HAL_Lib/STM32H7xx_HAL_Driver/Src/stm32h7xx_hal_exti.c **** void HAL_EXTI_GenerateSWI(EXTI_HandleTypeDef *hexti)
 825:HAL_Lib/STM32H7xx_HAL_Driver/Src/stm32h7xx_hal_exti.c **** {
 1294              		.loc 1 825 1 is_stmt 1 view -0
 1295              		.cfi_startproc
 1296              		@ args = 0, pretend = 0, frame = 0
 1297              		@ frame_needed = 0, uses_anonymous_args = 0
 1298              		@ link register save eliminated.
 826:HAL_Lib/STM32H7xx_HAL_Driver/Src/stm32h7xx_hal_exti.c ****   __IO uint32_t *regaddr;
 1299              		.loc 1 826 3 view .LVU480
 827:HAL_Lib/STM32H7xx_HAL_Driver/Src/stm32h7xx_hal_exti.c ****   uint32_t maskline;
 1300              		.loc 1 827 3 view .LVU481
 828:HAL_Lib/STM32H7xx_HAL_Driver/Src/stm32h7xx_hal_exti.c ****   uint32_t offset;
 1301              		.loc 1 828 3 view .LVU482
 829:HAL_Lib/STM32H7xx_HAL_Driver/Src/stm32h7xx_hal_exti.c **** 
 830:HAL_Lib/STM32H7xx_HAL_Driver/Src/stm32h7xx_hal_exti.c ****   /* Check parameters */
 831:HAL_Lib/STM32H7xx_HAL_Driver/Src/stm32h7xx_hal_exti.c ****   assert_param(IS_EXTI_LINE(hexti->Line));
 1302              		.loc 1 831 3 view .LVU483
 832:HAL_Lib/STM32H7xx_HAL_Driver/Src/stm32h7xx_hal_exti.c ****   assert_param(IS_EXTI_CONFIG_LINE(hexti->Line));
ARM GAS  C:\Users\HUAV\AppData\Local\Temp\ccKNGijo.s 			page 41


 1303              		.loc 1 832 3 view .LVU484
 833:HAL_Lib/STM32H7xx_HAL_Driver/Src/stm32h7xx_hal_exti.c **** 
 834:HAL_Lib/STM32H7xx_HAL_Driver/Src/stm32h7xx_hal_exti.c ****   /* compute line register offset and line mask */
 835:HAL_Lib/STM32H7xx_HAL_Driver/Src/stm32h7xx_hal_exti.c ****   offset = ((hexti->Line & EXTI_REG_MASK) >> EXTI_REG_SHIFT);
 1304              		.loc 1 835 3 view .LVU485
 1305              		.loc 1 835 19 is_stmt 0 view .LVU486
 1306 0000 0368     		ldr	r3, [r0]
 1307              		.loc 1 835 10 view .LVU487
 1308 0002 C3F30142 		ubfx	r2, r3, #16, #2
 1309              	.LVL172:
 836:HAL_Lib/STM32H7xx_HAL_Driver/Src/stm32h7xx_hal_exti.c ****   maskline = (1UL << (hexti->Line & EXTI_PIN_MASK));
 1310              		.loc 1 836 3 is_stmt 1 view .LVU488
 1311              		.loc 1 836 35 is_stmt 0 view .LVU489
 1312 0006 03F01F03 		and	r3, r3, #31
 1313              		.loc 1 836 12 view .LVU490
 1314 000a 0121     		movs	r1, #1
 1315 000c 01FA03F3 		lsl	r3, r1, r3
 1316              	.LVL173:
 837:HAL_Lib/STM32H7xx_HAL_Driver/Src/stm32h7xx_hal_exti.c **** 
 838:HAL_Lib/STM32H7xx_HAL_Driver/Src/stm32h7xx_hal_exti.c ****   regaddr = (__IO uint32_t *)(&EXTI->SWIER1 + (EXTI_CONFIG_OFFSET * offset));
 1317              		.loc 1 838 3 is_stmt 1 view .LVU491
 1318              		.loc 1 838 13 is_stmt 0 view .LVU492
 1319 0010 5201     		lsls	r2, r2, #5
 1320              	.LVL174:
 1321              		.loc 1 838 11 view .LVU493
 1322 0012 0149     		ldr	r1, .L79
 1323              	.LVL175:
 839:HAL_Lib/STM32H7xx_HAL_Driver/Src/stm32h7xx_hal_exti.c ****   *regaddr = maskline;
 1324              		.loc 1 839 3 is_stmt 1 view .LVU494
 1325              		.loc 1 839 12 is_stmt 0 view .LVU495
 1326 0014 5350     		str	r3, [r2, r1]
 1327              	.LVL176:
 840:HAL_Lib/STM32H7xx_HAL_Driver/Src/stm32h7xx_hal_exti.c **** }
 1328              		.loc 1 840 1 view .LVU496
 1329 0016 7047     		bx	lr
 1330              	.L80:
 1331              		.align	2
 1332              	.L79:
 1333 0018 08000058 		.word	1476395016
 1334              		.cfi_endproc
 1335              	.LFE152:
 1337              		.text
 1338              	.Letext0:
 1339              		.file 2 "d:\\software\\zephyr_env_gcc\\gcc-arm-none-eabi-9-2019-q4-major-win32\\arm-none-eabi\\inc
 1340              		.file 3 "d:\\software\\zephyr_env_gcc\\gcc-arm-none-eabi-9-2019-q4-major-win32\\arm-none-eabi\\inc
 1341              		.file 4 "HAL_Lib/CMSIS/Core/Include/core_cm7.h"
 1342              		.file 5 "HAL_Lib/CMSIS/Device/ST/STM32H7xx/Include/system_stm32h7xx.h"
 1343              		.file 6 "HAL_Lib/CMSIS/Device/ST/STM32H7xx/Include/stm32h743xx.h"
 1344              		.file 7 "d:\\software\\zephyr_env_gcc\\gcc-arm-none-eabi-9-2019-q4-major-win32\\arm-none-eabi\\inc
 1345              		.file 8 "d:\\software\\zephyr_env_gcc\\gcc-arm-none-eabi-9-2019-q4-major-win32\\arm-none-eabi\\inc
 1346              		.file 9 "d:\\software\\zephyr_env_gcc\\gcc-arm-none-eabi-9-2019-q4-major-win32\\lib\\gcc\\arm-none
 1347              		.file 10 "d:\\software\\zephyr_env_gcc\\gcc-arm-none-eabi-9-2019-q4-major-win32\\arm-none-eabi\\in
 1348              		.file 11 "d:\\software\\zephyr_env_gcc\\gcc-arm-none-eabi-9-2019-q4-major-win32\\arm-none-eabi\\in
 1349              		.file 12 "HAL_Lib/STM32H7xx_HAL_Driver/Inc/stm32h7xx_hal_def.h"
 1350              		.file 13 "HAL_Lib/STM32H7xx_HAL_Driver/Inc/stm32h7xx_hal_exti.h"
 1351              		.file 14 "HAL_Lib/STM32H7xx_HAL_Driver/Inc/stm32h7xx_hal_flash.h"
 1352              		.file 15 "HAL_Lib/STM32H7xx_HAL_Driver/Inc/stm32h7xx_hal_uart.h"
ARM GAS  C:\Users\HUAV\AppData\Local\Temp\ccKNGijo.s 			page 42


 1353              		.file 16 "HAL_Lib/STM32H7xx_HAL_Driver/Inc/stm32h7xx_hal.h"
ARM GAS  C:\Users\HUAV\AppData\Local\Temp\ccKNGijo.s 			page 43

