ARM GAS  C:\Users\HUAV\AppData\Local\Temp\ccFxhkJ1.s 			page 1


   1              		.cpu cortex-m7
   2              		.eabi_attribute 28, 1
   3              		.eabi_attribute 20, 1
   4              		.eabi_attribute 21, 1
   5              		.eabi_attribute 23, 3
   6              		.eabi_attribute 24, 1
   7              		.eabi_attribute 25, 1
   8              		.eabi_attribute 26, 1
   9              		.eabi_attribute 30, 1
  10              		.eabi_attribute 34, 1
  11              		.eabi_attribute 18, 4
  12              		.file	"stm32h7xx_hal_flash.c"
  13              		.text
  14              	.Ltext0:
  15              		.cfi_sections	.debug_frame
  16              		.section	.text.HAL_FLASH_EndOfOperationCallback,"ax",%progbits
  17              		.align	1
  18              		.weak	HAL_FLASH_EndOfOperationCallback
  19              		.arch armv7e-m
  20              		.syntax unified
  21              		.thumb
  22              		.thumb_func
  23              		.fpu fpv5-d16
  25              	HAL_FLASH_EndOfOperationCallback:
  26              	.LVL0:
  27              	.LFB147:
  28              		.file 1 "HAL_Lib/STM32H7xx_HAL_Driver/Src/stm32h7xx_hal_flash.c"
   1:HAL_Lib/STM32H7xx_HAL_Driver/Src/stm32h7xx_hal_flash.c **** /**
   2:HAL_Lib/STM32H7xx_HAL_Driver/Src/stm32h7xx_hal_flash.c ****   ******************************************************************************
   3:HAL_Lib/STM32H7xx_HAL_Driver/Src/stm32h7xx_hal_flash.c ****   * @file    stm32h7xx_hal_flash.c
   4:HAL_Lib/STM32H7xx_HAL_Driver/Src/stm32h7xx_hal_flash.c ****   * @author  MCD Application Team
   5:HAL_Lib/STM32H7xx_HAL_Driver/Src/stm32h7xx_hal_flash.c ****   * @brief   FLASH HAL module driver.
   6:HAL_Lib/STM32H7xx_HAL_Driver/Src/stm32h7xx_hal_flash.c ****   *          This file provides firmware functions to manage the following
   7:HAL_Lib/STM32H7xx_HAL_Driver/Src/stm32h7xx_hal_flash.c ****   *          functionalities of the internal FLASH memory:
   8:HAL_Lib/STM32H7xx_HAL_Driver/Src/stm32h7xx_hal_flash.c ****   *           + Program operations functions
   9:HAL_Lib/STM32H7xx_HAL_Driver/Src/stm32h7xx_hal_flash.c ****   *           + Memory Control functions
  10:HAL_Lib/STM32H7xx_HAL_Driver/Src/stm32h7xx_hal_flash.c ****   *           + Peripheral Errors functions
  11:HAL_Lib/STM32H7xx_HAL_Driver/Src/stm32h7xx_hal_flash.c ****   *
  12:HAL_Lib/STM32H7xx_HAL_Driver/Src/stm32h7xx_hal_flash.c ****  @verbatim
  13:HAL_Lib/STM32H7xx_HAL_Driver/Src/stm32h7xx_hal_flash.c ****   ==============================================================================
  14:HAL_Lib/STM32H7xx_HAL_Driver/Src/stm32h7xx_hal_flash.c ****                         ##### FLASH peripheral features #####
  15:HAL_Lib/STM32H7xx_HAL_Driver/Src/stm32h7xx_hal_flash.c ****   ==============================================================================
  16:HAL_Lib/STM32H7xx_HAL_Driver/Src/stm32h7xx_hal_flash.c **** 
  17:HAL_Lib/STM32H7xx_HAL_Driver/Src/stm32h7xx_hal_flash.c ****   [..] The Flash memory interface manages CPU AXI I-Code and D-Code accesses
  18:HAL_Lib/STM32H7xx_HAL_Driver/Src/stm32h7xx_hal_flash.c ****        to the Flash memory. It implements the erase and program Flash memory operations
  19:HAL_Lib/STM32H7xx_HAL_Driver/Src/stm32h7xx_hal_flash.c ****        and the read and write protection mechanisms.
  20:HAL_Lib/STM32H7xx_HAL_Driver/Src/stm32h7xx_hal_flash.c **** 
  21:HAL_Lib/STM32H7xx_HAL_Driver/Src/stm32h7xx_hal_flash.c ****   [..] The FLASH main features are:
  22:HAL_Lib/STM32H7xx_HAL_Driver/Src/stm32h7xx_hal_flash.c ****       (+) Flash memory read operations
  23:HAL_Lib/STM32H7xx_HAL_Driver/Src/stm32h7xx_hal_flash.c ****       (+) Flash memory program/erase operations
  24:HAL_Lib/STM32H7xx_HAL_Driver/Src/stm32h7xx_hal_flash.c ****       (+) Read / write protections
  25:HAL_Lib/STM32H7xx_HAL_Driver/Src/stm32h7xx_hal_flash.c ****       (+) Option bytes programming
  26:HAL_Lib/STM32H7xx_HAL_Driver/Src/stm32h7xx_hal_flash.c ****       (+) Error code correction (ECC) : Data in flash are 266-bits word
  27:HAL_Lib/STM32H7xx_HAL_Driver/Src/stm32h7xx_hal_flash.c ****           (10 bits added per flash word)
  28:HAL_Lib/STM32H7xx_HAL_Driver/Src/stm32h7xx_hal_flash.c **** 
  29:HAL_Lib/STM32H7xx_HAL_Driver/Src/stm32h7xx_hal_flash.c ****                         ##### How to use this driver #####
  30:HAL_Lib/STM32H7xx_HAL_Driver/Src/stm32h7xx_hal_flash.c ****  ==============================================================================
ARM GAS  C:\Users\HUAV\AppData\Local\Temp\ccFxhkJ1.s 			page 2


  31:HAL_Lib/STM32H7xx_HAL_Driver/Src/stm32h7xx_hal_flash.c ****     [..]
  32:HAL_Lib/STM32H7xx_HAL_Driver/Src/stm32h7xx_hal_flash.c ****       This driver provides functions and macros to configure and program the FLASH
  33:HAL_Lib/STM32H7xx_HAL_Driver/Src/stm32h7xx_hal_flash.c ****       memory of all STM32H7xx devices.
  34:HAL_Lib/STM32H7xx_HAL_Driver/Src/stm32h7xx_hal_flash.c **** 
  35:HAL_Lib/STM32H7xx_HAL_Driver/Src/stm32h7xx_hal_flash.c ****       (#) FLASH Memory IO Programming functions:
  36:HAL_Lib/STM32H7xx_HAL_Driver/Src/stm32h7xx_hal_flash.c ****            (++) Lock and Unlock the FLASH interface using HAL_FLASH_Unlock() and
  37:HAL_Lib/STM32H7xx_HAL_Driver/Src/stm32h7xx_hal_flash.c ****                 HAL_FLASH_Lock() functions
  38:HAL_Lib/STM32H7xx_HAL_Driver/Src/stm32h7xx_hal_flash.c ****            (++) Program functions: 256-bit word only
  39:HAL_Lib/STM32H7xx_HAL_Driver/Src/stm32h7xx_hal_flash.c ****            (++) There Two modes of programming :
  40:HAL_Lib/STM32H7xx_HAL_Driver/Src/stm32h7xx_hal_flash.c ****             (+++) Polling mode using HAL_FLASH_Program() function
  41:HAL_Lib/STM32H7xx_HAL_Driver/Src/stm32h7xx_hal_flash.c ****             (+++) Interrupt mode using HAL_FLASH_Program_IT() function
  42:HAL_Lib/STM32H7xx_HAL_Driver/Src/stm32h7xx_hal_flash.c **** 
  43:HAL_Lib/STM32H7xx_HAL_Driver/Src/stm32h7xx_hal_flash.c ****       (#) Interrupts and flags management functions :
  44:HAL_Lib/STM32H7xx_HAL_Driver/Src/stm32h7xx_hal_flash.c ****            (++) Handle FLASH interrupts by calling HAL_FLASH_IRQHandler()
  45:HAL_Lib/STM32H7xx_HAL_Driver/Src/stm32h7xx_hal_flash.c ****            (++) Callback functions are called when the flash operations are finished :
  46:HAL_Lib/STM32H7xx_HAL_Driver/Src/stm32h7xx_hal_flash.c ****                 HAL_FLASH_EndOfOperationCallback() when everything is ok, otherwise
  47:HAL_Lib/STM32H7xx_HAL_Driver/Src/stm32h7xx_hal_flash.c ****                 HAL_FLASH_OperationErrorCallback()
  48:HAL_Lib/STM32H7xx_HAL_Driver/Src/stm32h7xx_hal_flash.c ****            (++) Get error flag status by calling HAL_FLASH_GetError()
  49:HAL_Lib/STM32H7xx_HAL_Driver/Src/stm32h7xx_hal_flash.c **** 
  50:HAL_Lib/STM32H7xx_HAL_Driver/Src/stm32h7xx_hal_flash.c ****       (#) Option bytes management functions :
  51:HAL_Lib/STM32H7xx_HAL_Driver/Src/stm32h7xx_hal_flash.c ****            (++) Lock and Unlock the option bytes using HAL_FLASH_OB_Unlock() and
  52:HAL_Lib/STM32H7xx_HAL_Driver/Src/stm32h7xx_hal_flash.c ****                 HAL_FLASH_OB_Lock() functions
  53:HAL_Lib/STM32H7xx_HAL_Driver/Src/stm32h7xx_hal_flash.c ****            (++) Launch the reload of the option bytes using HAL_FLASH_OB_Launch() function.
  54:HAL_Lib/STM32H7xx_HAL_Driver/Src/stm32h7xx_hal_flash.c ****                 In this case, a reset is generated
  55:HAL_Lib/STM32H7xx_HAL_Driver/Src/stm32h7xx_hal_flash.c ****     [..]
  56:HAL_Lib/STM32H7xx_HAL_Driver/Src/stm32h7xx_hal_flash.c ****       In addition to these functions, this driver includes a set of macros allowing
  57:HAL_Lib/STM32H7xx_HAL_Driver/Src/stm32h7xx_hal_flash.c ****       to handle the following operations:
  58:HAL_Lib/STM32H7xx_HAL_Driver/Src/stm32h7xx_hal_flash.c ****        (+) Set the latency
  59:HAL_Lib/STM32H7xx_HAL_Driver/Src/stm32h7xx_hal_flash.c ****        (+) Enable/Disable the FLASH interrupts
  60:HAL_Lib/STM32H7xx_HAL_Driver/Src/stm32h7xx_hal_flash.c ****        (+) Monitor the FLASH flags status
  61:HAL_Lib/STM32H7xx_HAL_Driver/Src/stm32h7xx_hal_flash.c ****      [..]
  62:HAL_Lib/STM32H7xx_HAL_Driver/Src/stm32h7xx_hal_flash.c ****     (@) For any Flash memory program operation (erase or program), the CPU clock frequency
  63:HAL_Lib/STM32H7xx_HAL_Driver/Src/stm32h7xx_hal_flash.c ****         (HCLK) must be at least 1MHz.
  64:HAL_Lib/STM32H7xx_HAL_Driver/Src/stm32h7xx_hal_flash.c ****     (@) The contents of the Flash memory are not guaranteed if a device reset occurs during
  65:HAL_Lib/STM32H7xx_HAL_Driver/Src/stm32h7xx_hal_flash.c ****         a Flash memory operation.
  66:HAL_Lib/STM32H7xx_HAL_Driver/Src/stm32h7xx_hal_flash.c ****     (@) The application can simultaneously request a read and a write operation through each AXI
  67:HAL_Lib/STM32H7xx_HAL_Driver/Src/stm32h7xx_hal_flash.c ****         interface.
  68:HAL_Lib/STM32H7xx_HAL_Driver/Src/stm32h7xx_hal_flash.c ****         As the Flash memory is divided into two independent banks, the embedded Flash
  69:HAL_Lib/STM32H7xx_HAL_Driver/Src/stm32h7xx_hal_flash.c ****         memory interface can drive different operations at the same time on each bank. For
  70:HAL_Lib/STM32H7xx_HAL_Driver/Src/stm32h7xx_hal_flash.c ****         example a read, write or erase operation can be executed on bank 1 while another read,
  71:HAL_Lib/STM32H7xx_HAL_Driver/Src/stm32h7xx_hal_flash.c ****         write or erase operation is executed on bank 2.
  72:HAL_Lib/STM32H7xx_HAL_Driver/Src/stm32h7xx_hal_flash.c **** 
  73:HAL_Lib/STM32H7xx_HAL_Driver/Src/stm32h7xx_hal_flash.c ****  @endverbatim
  74:HAL_Lib/STM32H7xx_HAL_Driver/Src/stm32h7xx_hal_flash.c ****   ******************************************************************************
  75:HAL_Lib/STM32H7xx_HAL_Driver/Src/stm32h7xx_hal_flash.c ****   * @attention
  76:HAL_Lib/STM32H7xx_HAL_Driver/Src/stm32h7xx_hal_flash.c ****   *
  77:HAL_Lib/STM32H7xx_HAL_Driver/Src/stm32h7xx_hal_flash.c ****   * Copyright (c) 2017 STMicroelectronics.
  78:HAL_Lib/STM32H7xx_HAL_Driver/Src/stm32h7xx_hal_flash.c ****   * All rights reserved.
  79:HAL_Lib/STM32H7xx_HAL_Driver/Src/stm32h7xx_hal_flash.c ****   *
  80:HAL_Lib/STM32H7xx_HAL_Driver/Src/stm32h7xx_hal_flash.c ****   * This software is licensed under terms that can be found in the LICENSE file in
  81:HAL_Lib/STM32H7xx_HAL_Driver/Src/stm32h7xx_hal_flash.c ****   * the root directory of this software component.
  82:HAL_Lib/STM32H7xx_HAL_Driver/Src/stm32h7xx_hal_flash.c ****   * If no LICENSE file comes with this software, it is provided AS-IS.
  83:HAL_Lib/STM32H7xx_HAL_Driver/Src/stm32h7xx_hal_flash.c ****   ******************************************************************************
  84:HAL_Lib/STM32H7xx_HAL_Driver/Src/stm32h7xx_hal_flash.c ****   */
  85:HAL_Lib/STM32H7xx_HAL_Driver/Src/stm32h7xx_hal_flash.c **** 
  86:HAL_Lib/STM32H7xx_HAL_Driver/Src/stm32h7xx_hal_flash.c **** /* Includes ------------------------------------------------------------------*/
  87:HAL_Lib/STM32H7xx_HAL_Driver/Src/stm32h7xx_hal_flash.c **** #include "stm32h7xx_hal.h"
ARM GAS  C:\Users\HUAV\AppData\Local\Temp\ccFxhkJ1.s 			page 3


  88:HAL_Lib/STM32H7xx_HAL_Driver/Src/stm32h7xx_hal_flash.c **** 
  89:HAL_Lib/STM32H7xx_HAL_Driver/Src/stm32h7xx_hal_flash.c **** /** @addtogroup STM32H7xx_HAL_Driver
  90:HAL_Lib/STM32H7xx_HAL_Driver/Src/stm32h7xx_hal_flash.c ****   * @{
  91:HAL_Lib/STM32H7xx_HAL_Driver/Src/stm32h7xx_hal_flash.c ****   */
  92:HAL_Lib/STM32H7xx_HAL_Driver/Src/stm32h7xx_hal_flash.c **** 
  93:HAL_Lib/STM32H7xx_HAL_Driver/Src/stm32h7xx_hal_flash.c **** /** @defgroup FLASH FLASH
  94:HAL_Lib/STM32H7xx_HAL_Driver/Src/stm32h7xx_hal_flash.c ****   * @brief FLASH HAL module driver
  95:HAL_Lib/STM32H7xx_HAL_Driver/Src/stm32h7xx_hal_flash.c ****   * @{
  96:HAL_Lib/STM32H7xx_HAL_Driver/Src/stm32h7xx_hal_flash.c ****   */
  97:HAL_Lib/STM32H7xx_HAL_Driver/Src/stm32h7xx_hal_flash.c **** 
  98:HAL_Lib/STM32H7xx_HAL_Driver/Src/stm32h7xx_hal_flash.c **** #ifdef HAL_FLASH_MODULE_ENABLED
  99:HAL_Lib/STM32H7xx_HAL_Driver/Src/stm32h7xx_hal_flash.c **** 
 100:HAL_Lib/STM32H7xx_HAL_Driver/Src/stm32h7xx_hal_flash.c **** /* Private typedef -----------------------------------------------------------*/
 101:HAL_Lib/STM32H7xx_HAL_Driver/Src/stm32h7xx_hal_flash.c **** /* Private define ------------------------------------------------------------*/
 102:HAL_Lib/STM32H7xx_HAL_Driver/Src/stm32h7xx_hal_flash.c **** /** @addtogroup FLASH_Private_Constants
 103:HAL_Lib/STM32H7xx_HAL_Driver/Src/stm32h7xx_hal_flash.c ****   * @{
 104:HAL_Lib/STM32H7xx_HAL_Driver/Src/stm32h7xx_hal_flash.c ****   */
 105:HAL_Lib/STM32H7xx_HAL_Driver/Src/stm32h7xx_hal_flash.c **** #define FLASH_TIMEOUT_VALUE              50000U /* 50 s */
 106:HAL_Lib/STM32H7xx_HAL_Driver/Src/stm32h7xx_hal_flash.c **** /**
 107:HAL_Lib/STM32H7xx_HAL_Driver/Src/stm32h7xx_hal_flash.c ****   * @}
 108:HAL_Lib/STM32H7xx_HAL_Driver/Src/stm32h7xx_hal_flash.c ****   */
 109:HAL_Lib/STM32H7xx_HAL_Driver/Src/stm32h7xx_hal_flash.c **** /* Private macro -------------------------------------------------------------*/
 110:HAL_Lib/STM32H7xx_HAL_Driver/Src/stm32h7xx_hal_flash.c **** /* Private variables ---------------------------------------------------------*/
 111:HAL_Lib/STM32H7xx_HAL_Driver/Src/stm32h7xx_hal_flash.c **** FLASH_ProcessTypeDef pFlash;
 112:HAL_Lib/STM32H7xx_HAL_Driver/Src/stm32h7xx_hal_flash.c **** /* Private function prototypes -----------------------------------------------*/
 113:HAL_Lib/STM32H7xx_HAL_Driver/Src/stm32h7xx_hal_flash.c **** /* Exported functions ---------------------------------------------------------*/
 114:HAL_Lib/STM32H7xx_HAL_Driver/Src/stm32h7xx_hal_flash.c **** 
 115:HAL_Lib/STM32H7xx_HAL_Driver/Src/stm32h7xx_hal_flash.c **** /** @defgroup FLASH_Exported_Functions FLASH Exported functions
 116:HAL_Lib/STM32H7xx_HAL_Driver/Src/stm32h7xx_hal_flash.c ****   * @{
 117:HAL_Lib/STM32H7xx_HAL_Driver/Src/stm32h7xx_hal_flash.c ****   */
 118:HAL_Lib/STM32H7xx_HAL_Driver/Src/stm32h7xx_hal_flash.c **** 
 119:HAL_Lib/STM32H7xx_HAL_Driver/Src/stm32h7xx_hal_flash.c **** /** @defgroup FLASH_Exported_Functions_Group1 Programming operation functions
 120:HAL_Lib/STM32H7xx_HAL_Driver/Src/stm32h7xx_hal_flash.c ****  *  @brief   Programming operation functions
 121:HAL_Lib/STM32H7xx_HAL_Driver/Src/stm32h7xx_hal_flash.c ****  *
 122:HAL_Lib/STM32H7xx_HAL_Driver/Src/stm32h7xx_hal_flash.c **** @verbatim
 123:HAL_Lib/STM32H7xx_HAL_Driver/Src/stm32h7xx_hal_flash.c ****  ===============================================================================
 124:HAL_Lib/STM32H7xx_HAL_Driver/Src/stm32h7xx_hal_flash.c ****                   ##### Programming operation functions #####
 125:HAL_Lib/STM32H7xx_HAL_Driver/Src/stm32h7xx_hal_flash.c ****  ===============================================================================
 126:HAL_Lib/STM32H7xx_HAL_Driver/Src/stm32h7xx_hal_flash.c ****     [..]
 127:HAL_Lib/STM32H7xx_HAL_Driver/Src/stm32h7xx_hal_flash.c ****     This subsection provides a set of functions allowing to manage the FLASH
 128:HAL_Lib/STM32H7xx_HAL_Driver/Src/stm32h7xx_hal_flash.c ****     program operations.
 129:HAL_Lib/STM32H7xx_HAL_Driver/Src/stm32h7xx_hal_flash.c **** 
 130:HAL_Lib/STM32H7xx_HAL_Driver/Src/stm32h7xx_hal_flash.c **** @endverbatim
 131:HAL_Lib/STM32H7xx_HAL_Driver/Src/stm32h7xx_hal_flash.c ****   * @{
 132:HAL_Lib/STM32H7xx_HAL_Driver/Src/stm32h7xx_hal_flash.c ****   */
 133:HAL_Lib/STM32H7xx_HAL_Driver/Src/stm32h7xx_hal_flash.c **** 
 134:HAL_Lib/STM32H7xx_HAL_Driver/Src/stm32h7xx_hal_flash.c **** /**
 135:HAL_Lib/STM32H7xx_HAL_Driver/Src/stm32h7xx_hal_flash.c ****   * @brief  Program a flash word at a specified address
 136:HAL_Lib/STM32H7xx_HAL_Driver/Src/stm32h7xx_hal_flash.c ****   * @param  TypeProgram Indicate the way to program at a specified address.
 137:HAL_Lib/STM32H7xx_HAL_Driver/Src/stm32h7xx_hal_flash.c ****   *         This parameter can be a value of @ref FLASH_Type_Program
 138:HAL_Lib/STM32H7xx_HAL_Driver/Src/stm32h7xx_hal_flash.c ****   * @param  FlashAddress specifies the address to be programmed.
 139:HAL_Lib/STM32H7xx_HAL_Driver/Src/stm32h7xx_hal_flash.c ****   *         This parameter shall be aligned to the Flash word:
 140:HAL_Lib/STM32H7xx_HAL_Driver/Src/stm32h7xx_hal_flash.c ****   *          - 256 bits for STM32H74x/5X devices (8x 32bits words)
 141:HAL_Lib/STM32H7xx_HAL_Driver/Src/stm32h7xx_hal_flash.c ****   *          - 128 bits for STM32H7Ax/BX devices (4x 32bits words)
 142:HAL_Lib/STM32H7xx_HAL_Driver/Src/stm32h7xx_hal_flash.c ****   *          - 256 bits for STM32H72x/3X devices (8x 32bits words)
 143:HAL_Lib/STM32H7xx_HAL_Driver/Src/stm32h7xx_hal_flash.c ****   * @param  DataAddress specifies the address of data to be programmed.
 144:HAL_Lib/STM32H7xx_HAL_Driver/Src/stm32h7xx_hal_flash.c ****   *         This parameter shall be 32-bit aligned
ARM GAS  C:\Users\HUAV\AppData\Local\Temp\ccFxhkJ1.s 			page 4


 145:HAL_Lib/STM32H7xx_HAL_Driver/Src/stm32h7xx_hal_flash.c ****   *
 146:HAL_Lib/STM32H7xx_HAL_Driver/Src/stm32h7xx_hal_flash.c ****   * @retval HAL_StatusTypeDef HAL Status
 147:HAL_Lib/STM32H7xx_HAL_Driver/Src/stm32h7xx_hal_flash.c ****   */
 148:HAL_Lib/STM32H7xx_HAL_Driver/Src/stm32h7xx_hal_flash.c **** HAL_StatusTypeDef HAL_FLASH_Program(uint32_t TypeProgram, uint32_t FlashAddress, uint32_t DataAddre
 149:HAL_Lib/STM32H7xx_HAL_Driver/Src/stm32h7xx_hal_flash.c **** {
 150:HAL_Lib/STM32H7xx_HAL_Driver/Src/stm32h7xx_hal_flash.c ****   HAL_StatusTypeDef status;
 151:HAL_Lib/STM32H7xx_HAL_Driver/Src/stm32h7xx_hal_flash.c ****   __IO uint32_t *dest_addr = (__IO uint32_t *)FlashAddress;
 152:HAL_Lib/STM32H7xx_HAL_Driver/Src/stm32h7xx_hal_flash.c ****   __IO uint32_t *src_addr = (__IO uint32_t*)DataAddress;
 153:HAL_Lib/STM32H7xx_HAL_Driver/Src/stm32h7xx_hal_flash.c ****   uint32_t bank;
 154:HAL_Lib/STM32H7xx_HAL_Driver/Src/stm32h7xx_hal_flash.c ****   uint8_t row_index = FLASH_NB_32BITWORD_IN_FLASHWORD;
 155:HAL_Lib/STM32H7xx_HAL_Driver/Src/stm32h7xx_hal_flash.c **** 
 156:HAL_Lib/STM32H7xx_HAL_Driver/Src/stm32h7xx_hal_flash.c ****   /* Check the parameters */
 157:HAL_Lib/STM32H7xx_HAL_Driver/Src/stm32h7xx_hal_flash.c ****   assert_param(IS_FLASH_TYPEPROGRAM(TypeProgram));
 158:HAL_Lib/STM32H7xx_HAL_Driver/Src/stm32h7xx_hal_flash.c ****   assert_param(IS_FLASH_PROGRAM_ADDRESS(FlashAddress));
 159:HAL_Lib/STM32H7xx_HAL_Driver/Src/stm32h7xx_hal_flash.c **** 
 160:HAL_Lib/STM32H7xx_HAL_Driver/Src/stm32h7xx_hal_flash.c ****   /* Process Locked */
 161:HAL_Lib/STM32H7xx_HAL_Driver/Src/stm32h7xx_hal_flash.c ****   __HAL_LOCK(&pFlash);
 162:HAL_Lib/STM32H7xx_HAL_Driver/Src/stm32h7xx_hal_flash.c **** 
 163:HAL_Lib/STM32H7xx_HAL_Driver/Src/stm32h7xx_hal_flash.c **** #if defined (FLASH_OPTCR_PG_OTP)
 164:HAL_Lib/STM32H7xx_HAL_Driver/Src/stm32h7xx_hal_flash.c ****   if((IS_FLASH_PROGRAM_ADDRESS_BANK1(FlashAddress)) || (IS_FLASH_PROGRAM_ADDRESS_OTP(FlashAddress))
 165:HAL_Lib/STM32H7xx_HAL_Driver/Src/stm32h7xx_hal_flash.c **** #else
 166:HAL_Lib/STM32H7xx_HAL_Driver/Src/stm32h7xx_hal_flash.c ****   if(IS_FLASH_PROGRAM_ADDRESS_BANK1(FlashAddress))
 167:HAL_Lib/STM32H7xx_HAL_Driver/Src/stm32h7xx_hal_flash.c **** #endif /* FLASH_OPTCR_PG_OTP */
 168:HAL_Lib/STM32H7xx_HAL_Driver/Src/stm32h7xx_hal_flash.c ****   {
 169:HAL_Lib/STM32H7xx_HAL_Driver/Src/stm32h7xx_hal_flash.c ****     bank = FLASH_BANK_1;
 170:HAL_Lib/STM32H7xx_HAL_Driver/Src/stm32h7xx_hal_flash.c ****   }
 171:HAL_Lib/STM32H7xx_HAL_Driver/Src/stm32h7xx_hal_flash.c **** #if defined (DUAL_BANK)
 172:HAL_Lib/STM32H7xx_HAL_Driver/Src/stm32h7xx_hal_flash.c ****   else if(IS_FLASH_PROGRAM_ADDRESS_BANK2(FlashAddress))
 173:HAL_Lib/STM32H7xx_HAL_Driver/Src/stm32h7xx_hal_flash.c ****   {
 174:HAL_Lib/STM32H7xx_HAL_Driver/Src/stm32h7xx_hal_flash.c ****     bank = FLASH_BANK_2;
 175:HAL_Lib/STM32H7xx_HAL_Driver/Src/stm32h7xx_hal_flash.c ****   }
 176:HAL_Lib/STM32H7xx_HAL_Driver/Src/stm32h7xx_hal_flash.c **** #endif /* DUAL_BANK */
 177:HAL_Lib/STM32H7xx_HAL_Driver/Src/stm32h7xx_hal_flash.c ****   else
 178:HAL_Lib/STM32H7xx_HAL_Driver/Src/stm32h7xx_hal_flash.c ****   {
 179:HAL_Lib/STM32H7xx_HAL_Driver/Src/stm32h7xx_hal_flash.c ****     return HAL_ERROR;
 180:HAL_Lib/STM32H7xx_HAL_Driver/Src/stm32h7xx_hal_flash.c ****   }
 181:HAL_Lib/STM32H7xx_HAL_Driver/Src/stm32h7xx_hal_flash.c **** 
 182:HAL_Lib/STM32H7xx_HAL_Driver/Src/stm32h7xx_hal_flash.c ****   /* Reset error code */
 183:HAL_Lib/STM32H7xx_HAL_Driver/Src/stm32h7xx_hal_flash.c ****   pFlash.ErrorCode = HAL_FLASH_ERROR_NONE;
 184:HAL_Lib/STM32H7xx_HAL_Driver/Src/stm32h7xx_hal_flash.c **** 
 185:HAL_Lib/STM32H7xx_HAL_Driver/Src/stm32h7xx_hal_flash.c ****   /* Wait for last operation to be completed */
 186:HAL_Lib/STM32H7xx_HAL_Driver/Src/stm32h7xx_hal_flash.c ****   status = FLASH_WaitForLastOperation((uint32_t)FLASH_TIMEOUT_VALUE, bank);
 187:HAL_Lib/STM32H7xx_HAL_Driver/Src/stm32h7xx_hal_flash.c **** 
 188:HAL_Lib/STM32H7xx_HAL_Driver/Src/stm32h7xx_hal_flash.c ****   if(status == HAL_OK)
 189:HAL_Lib/STM32H7xx_HAL_Driver/Src/stm32h7xx_hal_flash.c ****   {
 190:HAL_Lib/STM32H7xx_HAL_Driver/Src/stm32h7xx_hal_flash.c **** #if defined (DUAL_BANK)
 191:HAL_Lib/STM32H7xx_HAL_Driver/Src/stm32h7xx_hal_flash.c ****     if(bank == FLASH_BANK_1)
 192:HAL_Lib/STM32H7xx_HAL_Driver/Src/stm32h7xx_hal_flash.c ****     {
 193:HAL_Lib/STM32H7xx_HAL_Driver/Src/stm32h7xx_hal_flash.c **** #if defined (FLASH_OPTCR_PG_OTP)
 194:HAL_Lib/STM32H7xx_HAL_Driver/Src/stm32h7xx_hal_flash.c ****       if (TypeProgram == FLASH_TYPEPROGRAM_OTPWORD)
 195:HAL_Lib/STM32H7xx_HAL_Driver/Src/stm32h7xx_hal_flash.c ****       {
 196:HAL_Lib/STM32H7xx_HAL_Driver/Src/stm32h7xx_hal_flash.c ****         /* Set OTP_PG bit */
 197:HAL_Lib/STM32H7xx_HAL_Driver/Src/stm32h7xx_hal_flash.c ****         SET_BIT(FLASH->OPTCR, FLASH_OPTCR_PG_OTP);
 198:HAL_Lib/STM32H7xx_HAL_Driver/Src/stm32h7xx_hal_flash.c ****       }
 199:HAL_Lib/STM32H7xx_HAL_Driver/Src/stm32h7xx_hal_flash.c ****       else
 200:HAL_Lib/STM32H7xx_HAL_Driver/Src/stm32h7xx_hal_flash.c **** #endif /* FLASH_OPTCR_PG_OTP */
 201:HAL_Lib/STM32H7xx_HAL_Driver/Src/stm32h7xx_hal_flash.c ****       {
ARM GAS  C:\Users\HUAV\AppData\Local\Temp\ccFxhkJ1.s 			page 5


 202:HAL_Lib/STM32H7xx_HAL_Driver/Src/stm32h7xx_hal_flash.c ****         /* Set PG bit */
 203:HAL_Lib/STM32H7xx_HAL_Driver/Src/stm32h7xx_hal_flash.c ****         SET_BIT(FLASH->CR1, FLASH_CR_PG);
 204:HAL_Lib/STM32H7xx_HAL_Driver/Src/stm32h7xx_hal_flash.c ****       }
 205:HAL_Lib/STM32H7xx_HAL_Driver/Src/stm32h7xx_hal_flash.c ****     }
 206:HAL_Lib/STM32H7xx_HAL_Driver/Src/stm32h7xx_hal_flash.c ****     else
 207:HAL_Lib/STM32H7xx_HAL_Driver/Src/stm32h7xx_hal_flash.c ****     {
 208:HAL_Lib/STM32H7xx_HAL_Driver/Src/stm32h7xx_hal_flash.c ****       /* Set PG bit */
 209:HAL_Lib/STM32H7xx_HAL_Driver/Src/stm32h7xx_hal_flash.c ****       SET_BIT(FLASH->CR2, FLASH_CR_PG);
 210:HAL_Lib/STM32H7xx_HAL_Driver/Src/stm32h7xx_hal_flash.c ****     }
 211:HAL_Lib/STM32H7xx_HAL_Driver/Src/stm32h7xx_hal_flash.c **** #else /* Single Bank */
 212:HAL_Lib/STM32H7xx_HAL_Driver/Src/stm32h7xx_hal_flash.c **** #if defined (FLASH_OPTCR_PG_OTP)
 213:HAL_Lib/STM32H7xx_HAL_Driver/Src/stm32h7xx_hal_flash.c ****       if (TypeProgram == FLASH_TYPEPROGRAM_OTPWORD)
 214:HAL_Lib/STM32H7xx_HAL_Driver/Src/stm32h7xx_hal_flash.c ****       {
 215:HAL_Lib/STM32H7xx_HAL_Driver/Src/stm32h7xx_hal_flash.c ****         /* Set OTP_PG bit */
 216:HAL_Lib/STM32H7xx_HAL_Driver/Src/stm32h7xx_hal_flash.c ****         SET_BIT(FLASH->OPTCR, FLASH_OPTCR_PG_OTP);
 217:HAL_Lib/STM32H7xx_HAL_Driver/Src/stm32h7xx_hal_flash.c ****       }
 218:HAL_Lib/STM32H7xx_HAL_Driver/Src/stm32h7xx_hal_flash.c ****       else
 219:HAL_Lib/STM32H7xx_HAL_Driver/Src/stm32h7xx_hal_flash.c **** #endif /* FLASH_OPTCR_PG_OTP */
 220:HAL_Lib/STM32H7xx_HAL_Driver/Src/stm32h7xx_hal_flash.c ****       {
 221:HAL_Lib/STM32H7xx_HAL_Driver/Src/stm32h7xx_hal_flash.c ****         /* Set PG bit */
 222:HAL_Lib/STM32H7xx_HAL_Driver/Src/stm32h7xx_hal_flash.c ****         SET_BIT(FLASH->CR1, FLASH_CR_PG);
 223:HAL_Lib/STM32H7xx_HAL_Driver/Src/stm32h7xx_hal_flash.c ****       }
 224:HAL_Lib/STM32H7xx_HAL_Driver/Src/stm32h7xx_hal_flash.c **** #endif /* DUAL_BANK */
 225:HAL_Lib/STM32H7xx_HAL_Driver/Src/stm32h7xx_hal_flash.c **** 
 226:HAL_Lib/STM32H7xx_HAL_Driver/Src/stm32h7xx_hal_flash.c ****     __ISB();
 227:HAL_Lib/STM32H7xx_HAL_Driver/Src/stm32h7xx_hal_flash.c ****     __DSB();
 228:HAL_Lib/STM32H7xx_HAL_Driver/Src/stm32h7xx_hal_flash.c **** 
 229:HAL_Lib/STM32H7xx_HAL_Driver/Src/stm32h7xx_hal_flash.c **** #if defined (FLASH_OPTCR_PG_OTP)
 230:HAL_Lib/STM32H7xx_HAL_Driver/Src/stm32h7xx_hal_flash.c ****     if (TypeProgram == FLASH_TYPEPROGRAM_OTPWORD)
 231:HAL_Lib/STM32H7xx_HAL_Driver/Src/stm32h7xx_hal_flash.c ****     {
 232:HAL_Lib/STM32H7xx_HAL_Driver/Src/stm32h7xx_hal_flash.c ****       /* Program an OTP word (16 bits) */
 233:HAL_Lib/STM32H7xx_HAL_Driver/Src/stm32h7xx_hal_flash.c ****       *(__IO uint16_t *)FlashAddress = *(__IO uint16_t*)DataAddress;
 234:HAL_Lib/STM32H7xx_HAL_Driver/Src/stm32h7xx_hal_flash.c ****     }
 235:HAL_Lib/STM32H7xx_HAL_Driver/Src/stm32h7xx_hal_flash.c ****     else
 236:HAL_Lib/STM32H7xx_HAL_Driver/Src/stm32h7xx_hal_flash.c **** #endif /* FLASH_OPTCR_PG_OTP */
 237:HAL_Lib/STM32H7xx_HAL_Driver/Src/stm32h7xx_hal_flash.c ****     {
 238:HAL_Lib/STM32H7xx_HAL_Driver/Src/stm32h7xx_hal_flash.c ****       /* Program the flash word */
 239:HAL_Lib/STM32H7xx_HAL_Driver/Src/stm32h7xx_hal_flash.c ****       do
 240:HAL_Lib/STM32H7xx_HAL_Driver/Src/stm32h7xx_hal_flash.c ****       {
 241:HAL_Lib/STM32H7xx_HAL_Driver/Src/stm32h7xx_hal_flash.c ****         *dest_addr = *src_addr;
 242:HAL_Lib/STM32H7xx_HAL_Driver/Src/stm32h7xx_hal_flash.c ****         dest_addr++;
 243:HAL_Lib/STM32H7xx_HAL_Driver/Src/stm32h7xx_hal_flash.c ****         src_addr++;
 244:HAL_Lib/STM32H7xx_HAL_Driver/Src/stm32h7xx_hal_flash.c ****         row_index--;
 245:HAL_Lib/STM32H7xx_HAL_Driver/Src/stm32h7xx_hal_flash.c ****      } while (row_index != 0U);
 246:HAL_Lib/STM32H7xx_HAL_Driver/Src/stm32h7xx_hal_flash.c ****     }
 247:HAL_Lib/STM32H7xx_HAL_Driver/Src/stm32h7xx_hal_flash.c **** 
 248:HAL_Lib/STM32H7xx_HAL_Driver/Src/stm32h7xx_hal_flash.c ****     __ISB();
 249:HAL_Lib/STM32H7xx_HAL_Driver/Src/stm32h7xx_hal_flash.c ****     __DSB();
 250:HAL_Lib/STM32H7xx_HAL_Driver/Src/stm32h7xx_hal_flash.c **** 
 251:HAL_Lib/STM32H7xx_HAL_Driver/Src/stm32h7xx_hal_flash.c ****     /* Wait for last operation to be completed */
 252:HAL_Lib/STM32H7xx_HAL_Driver/Src/stm32h7xx_hal_flash.c ****     status = FLASH_WaitForLastOperation((uint32_t)FLASH_TIMEOUT_VALUE, bank);
 253:HAL_Lib/STM32H7xx_HAL_Driver/Src/stm32h7xx_hal_flash.c **** 
 254:HAL_Lib/STM32H7xx_HAL_Driver/Src/stm32h7xx_hal_flash.c **** #if defined (DUAL_BANK)
 255:HAL_Lib/STM32H7xx_HAL_Driver/Src/stm32h7xx_hal_flash.c **** #if defined (FLASH_OPTCR_PG_OTP)
 256:HAL_Lib/STM32H7xx_HAL_Driver/Src/stm32h7xx_hal_flash.c ****     if (TypeProgram == FLASH_TYPEPROGRAM_OTPWORD)
 257:HAL_Lib/STM32H7xx_HAL_Driver/Src/stm32h7xx_hal_flash.c ****     {
 258:HAL_Lib/STM32H7xx_HAL_Driver/Src/stm32h7xx_hal_flash.c ****       /* If the program operation is completed, disable the OTP_PG */
ARM GAS  C:\Users\HUAV\AppData\Local\Temp\ccFxhkJ1.s 			page 6


 259:HAL_Lib/STM32H7xx_HAL_Driver/Src/stm32h7xx_hal_flash.c ****       CLEAR_BIT(FLASH->OPTCR, FLASH_OPTCR_PG_OTP);
 260:HAL_Lib/STM32H7xx_HAL_Driver/Src/stm32h7xx_hal_flash.c ****     }
 261:HAL_Lib/STM32H7xx_HAL_Driver/Src/stm32h7xx_hal_flash.c ****     else
 262:HAL_Lib/STM32H7xx_HAL_Driver/Src/stm32h7xx_hal_flash.c **** #endif /* FLASH_OPTCR_PG_OTP */
 263:HAL_Lib/STM32H7xx_HAL_Driver/Src/stm32h7xx_hal_flash.c ****     {
 264:HAL_Lib/STM32H7xx_HAL_Driver/Src/stm32h7xx_hal_flash.c ****       if(bank == FLASH_BANK_1)
 265:HAL_Lib/STM32H7xx_HAL_Driver/Src/stm32h7xx_hal_flash.c ****       {
 266:HAL_Lib/STM32H7xx_HAL_Driver/Src/stm32h7xx_hal_flash.c ****         /* If the program operation is completed, disable the PG */
 267:HAL_Lib/STM32H7xx_HAL_Driver/Src/stm32h7xx_hal_flash.c ****         CLEAR_BIT(FLASH->CR1, FLASH_CR_PG);
 268:HAL_Lib/STM32H7xx_HAL_Driver/Src/stm32h7xx_hal_flash.c ****       }
 269:HAL_Lib/STM32H7xx_HAL_Driver/Src/stm32h7xx_hal_flash.c ****       else
 270:HAL_Lib/STM32H7xx_HAL_Driver/Src/stm32h7xx_hal_flash.c ****       {
 271:HAL_Lib/STM32H7xx_HAL_Driver/Src/stm32h7xx_hal_flash.c ****         /* If the program operation is completed, disable the PG */
 272:HAL_Lib/STM32H7xx_HAL_Driver/Src/stm32h7xx_hal_flash.c ****         CLEAR_BIT(FLASH->CR2, FLASH_CR_PG);
 273:HAL_Lib/STM32H7xx_HAL_Driver/Src/stm32h7xx_hal_flash.c ****       }
 274:HAL_Lib/STM32H7xx_HAL_Driver/Src/stm32h7xx_hal_flash.c ****     }
 275:HAL_Lib/STM32H7xx_HAL_Driver/Src/stm32h7xx_hal_flash.c **** #else /* Single Bank */
 276:HAL_Lib/STM32H7xx_HAL_Driver/Src/stm32h7xx_hal_flash.c **** #if defined (FLASH_OPTCR_PG_OTP)
 277:HAL_Lib/STM32H7xx_HAL_Driver/Src/stm32h7xx_hal_flash.c ****     if (TypeProgram == FLASH_TYPEPROGRAM_OTPWORD)
 278:HAL_Lib/STM32H7xx_HAL_Driver/Src/stm32h7xx_hal_flash.c ****     {
 279:HAL_Lib/STM32H7xx_HAL_Driver/Src/stm32h7xx_hal_flash.c ****       /* If the program operation is completed, disable the OTP_PG */
 280:HAL_Lib/STM32H7xx_HAL_Driver/Src/stm32h7xx_hal_flash.c ****       CLEAR_BIT(FLASH->OPTCR, FLASH_OPTCR_PG_OTP);
 281:HAL_Lib/STM32H7xx_HAL_Driver/Src/stm32h7xx_hal_flash.c ****     }
 282:HAL_Lib/STM32H7xx_HAL_Driver/Src/stm32h7xx_hal_flash.c ****     else
 283:HAL_Lib/STM32H7xx_HAL_Driver/Src/stm32h7xx_hal_flash.c **** #endif /* FLASH_OPTCR_PG_OTP */
 284:HAL_Lib/STM32H7xx_HAL_Driver/Src/stm32h7xx_hal_flash.c ****     {
 285:HAL_Lib/STM32H7xx_HAL_Driver/Src/stm32h7xx_hal_flash.c ****       /* If the program operation is completed, disable the PG */
 286:HAL_Lib/STM32H7xx_HAL_Driver/Src/stm32h7xx_hal_flash.c ****       CLEAR_BIT(FLASH->CR1, FLASH_CR_PG);
 287:HAL_Lib/STM32H7xx_HAL_Driver/Src/stm32h7xx_hal_flash.c ****     }
 288:HAL_Lib/STM32H7xx_HAL_Driver/Src/stm32h7xx_hal_flash.c **** #endif /* DUAL_BANK */
 289:HAL_Lib/STM32H7xx_HAL_Driver/Src/stm32h7xx_hal_flash.c ****   }
 290:HAL_Lib/STM32H7xx_HAL_Driver/Src/stm32h7xx_hal_flash.c **** 
 291:HAL_Lib/STM32H7xx_HAL_Driver/Src/stm32h7xx_hal_flash.c ****   /* Process Unlocked */
 292:HAL_Lib/STM32H7xx_HAL_Driver/Src/stm32h7xx_hal_flash.c ****   __HAL_UNLOCK(&pFlash);
 293:HAL_Lib/STM32H7xx_HAL_Driver/Src/stm32h7xx_hal_flash.c **** 
 294:HAL_Lib/STM32H7xx_HAL_Driver/Src/stm32h7xx_hal_flash.c ****   return status;
 295:HAL_Lib/STM32H7xx_HAL_Driver/Src/stm32h7xx_hal_flash.c **** }
 296:HAL_Lib/STM32H7xx_HAL_Driver/Src/stm32h7xx_hal_flash.c **** 
 297:HAL_Lib/STM32H7xx_HAL_Driver/Src/stm32h7xx_hal_flash.c **** /**
 298:HAL_Lib/STM32H7xx_HAL_Driver/Src/stm32h7xx_hal_flash.c ****   * @brief  Program a flash word at a specified address with interrupt enabled.
 299:HAL_Lib/STM32H7xx_HAL_Driver/Src/stm32h7xx_hal_flash.c ****   * @param  TypeProgram Indicate the way to program at a specified address.
 300:HAL_Lib/STM32H7xx_HAL_Driver/Src/stm32h7xx_hal_flash.c ****   *                      This parameter can be a value of @ref FLASH_Type_Program
 301:HAL_Lib/STM32H7xx_HAL_Driver/Src/stm32h7xx_hal_flash.c ****   * @param  FlashAddress specifies the address to be programmed.
 302:HAL_Lib/STM32H7xx_HAL_Driver/Src/stm32h7xx_hal_flash.c ****   *         This parameter shall be aligned to the Flash word:
 303:HAL_Lib/STM32H7xx_HAL_Driver/Src/stm32h7xx_hal_flash.c ****   *          - 256 bits for STM32H74x/5X devices (8x 32bits words)
 304:HAL_Lib/STM32H7xx_HAL_Driver/Src/stm32h7xx_hal_flash.c ****   *          - 128 bits for STM32H7Ax/BX devices (4x 32bits words)
 305:HAL_Lib/STM32H7xx_HAL_Driver/Src/stm32h7xx_hal_flash.c ****   *          - 256 bits for STM32H72x/3X devices (8x 32bits words)
 306:HAL_Lib/STM32H7xx_HAL_Driver/Src/stm32h7xx_hal_flash.c ****   * @param  DataAddress specifies the address of data to be programmed.
 307:HAL_Lib/STM32H7xx_HAL_Driver/Src/stm32h7xx_hal_flash.c ****   *         This parameter shall be 32-bit aligned
 308:HAL_Lib/STM32H7xx_HAL_Driver/Src/stm32h7xx_hal_flash.c ****   *
 309:HAL_Lib/STM32H7xx_HAL_Driver/Src/stm32h7xx_hal_flash.c ****   * @retval HAL Status
 310:HAL_Lib/STM32H7xx_HAL_Driver/Src/stm32h7xx_hal_flash.c ****   */
 311:HAL_Lib/STM32H7xx_HAL_Driver/Src/stm32h7xx_hal_flash.c **** HAL_StatusTypeDef HAL_FLASH_Program_IT(uint32_t TypeProgram, uint32_t FlashAddress, uint32_t DataAd
 312:HAL_Lib/STM32H7xx_HAL_Driver/Src/stm32h7xx_hal_flash.c **** {
 313:HAL_Lib/STM32H7xx_HAL_Driver/Src/stm32h7xx_hal_flash.c ****   HAL_StatusTypeDef status;
 314:HAL_Lib/STM32H7xx_HAL_Driver/Src/stm32h7xx_hal_flash.c ****   __IO uint32_t *dest_addr = (__IO uint32_t*)FlashAddress;
 315:HAL_Lib/STM32H7xx_HAL_Driver/Src/stm32h7xx_hal_flash.c ****   __IO uint32_t *src_addr = (__IO uint32_t*)DataAddress;
ARM GAS  C:\Users\HUAV\AppData\Local\Temp\ccFxhkJ1.s 			page 7


 316:HAL_Lib/STM32H7xx_HAL_Driver/Src/stm32h7xx_hal_flash.c ****   uint32_t bank;
 317:HAL_Lib/STM32H7xx_HAL_Driver/Src/stm32h7xx_hal_flash.c ****   uint8_t row_index = FLASH_NB_32BITWORD_IN_FLASHWORD;
 318:HAL_Lib/STM32H7xx_HAL_Driver/Src/stm32h7xx_hal_flash.c **** 
 319:HAL_Lib/STM32H7xx_HAL_Driver/Src/stm32h7xx_hal_flash.c ****   /* Check the parameters */
 320:HAL_Lib/STM32H7xx_HAL_Driver/Src/stm32h7xx_hal_flash.c ****   assert_param(IS_FLASH_TYPEPROGRAM(TypeProgram));
 321:HAL_Lib/STM32H7xx_HAL_Driver/Src/stm32h7xx_hal_flash.c ****   assert_param(IS_FLASH_PROGRAM_ADDRESS(FlashAddress));
 322:HAL_Lib/STM32H7xx_HAL_Driver/Src/stm32h7xx_hal_flash.c **** 
 323:HAL_Lib/STM32H7xx_HAL_Driver/Src/stm32h7xx_hal_flash.c ****   /* Process Locked */
 324:HAL_Lib/STM32H7xx_HAL_Driver/Src/stm32h7xx_hal_flash.c ****   __HAL_LOCK(&pFlash);
 325:HAL_Lib/STM32H7xx_HAL_Driver/Src/stm32h7xx_hal_flash.c **** 
 326:HAL_Lib/STM32H7xx_HAL_Driver/Src/stm32h7xx_hal_flash.c ****   /* Reset error code */
 327:HAL_Lib/STM32H7xx_HAL_Driver/Src/stm32h7xx_hal_flash.c ****   pFlash.ErrorCode = HAL_FLASH_ERROR_NONE;
 328:HAL_Lib/STM32H7xx_HAL_Driver/Src/stm32h7xx_hal_flash.c **** 
 329:HAL_Lib/STM32H7xx_HAL_Driver/Src/stm32h7xx_hal_flash.c **** #if defined (FLASH_OPTCR_PG_OTP)
 330:HAL_Lib/STM32H7xx_HAL_Driver/Src/stm32h7xx_hal_flash.c ****   if((IS_FLASH_PROGRAM_ADDRESS_BANK1(FlashAddress)) || (IS_FLASH_PROGRAM_ADDRESS_OTP(FlashAddress))
 331:HAL_Lib/STM32H7xx_HAL_Driver/Src/stm32h7xx_hal_flash.c **** #else
 332:HAL_Lib/STM32H7xx_HAL_Driver/Src/stm32h7xx_hal_flash.c ****   if(IS_FLASH_PROGRAM_ADDRESS_BANK1(FlashAddress))
 333:HAL_Lib/STM32H7xx_HAL_Driver/Src/stm32h7xx_hal_flash.c **** #endif /* FLASH_OPTCR_PG_OTP */
 334:HAL_Lib/STM32H7xx_HAL_Driver/Src/stm32h7xx_hal_flash.c ****   {
 335:HAL_Lib/STM32H7xx_HAL_Driver/Src/stm32h7xx_hal_flash.c ****     bank = FLASH_BANK_1;
 336:HAL_Lib/STM32H7xx_HAL_Driver/Src/stm32h7xx_hal_flash.c ****   }
 337:HAL_Lib/STM32H7xx_HAL_Driver/Src/stm32h7xx_hal_flash.c **** #if defined (DUAL_BANK)
 338:HAL_Lib/STM32H7xx_HAL_Driver/Src/stm32h7xx_hal_flash.c ****   else if(IS_FLASH_PROGRAM_ADDRESS_BANK2(FlashAddress))
 339:HAL_Lib/STM32H7xx_HAL_Driver/Src/stm32h7xx_hal_flash.c ****   {
 340:HAL_Lib/STM32H7xx_HAL_Driver/Src/stm32h7xx_hal_flash.c ****     bank = FLASH_BANK_2;
 341:HAL_Lib/STM32H7xx_HAL_Driver/Src/stm32h7xx_hal_flash.c ****   }
 342:HAL_Lib/STM32H7xx_HAL_Driver/Src/stm32h7xx_hal_flash.c **** #endif /* DUAL_BANK */
 343:HAL_Lib/STM32H7xx_HAL_Driver/Src/stm32h7xx_hal_flash.c ****   else
 344:HAL_Lib/STM32H7xx_HAL_Driver/Src/stm32h7xx_hal_flash.c ****   {
 345:HAL_Lib/STM32H7xx_HAL_Driver/Src/stm32h7xx_hal_flash.c ****     return HAL_ERROR;
 346:HAL_Lib/STM32H7xx_HAL_Driver/Src/stm32h7xx_hal_flash.c ****   }
 347:HAL_Lib/STM32H7xx_HAL_Driver/Src/stm32h7xx_hal_flash.c **** 
 348:HAL_Lib/STM32H7xx_HAL_Driver/Src/stm32h7xx_hal_flash.c ****   /* Wait for last operation to be completed */
 349:HAL_Lib/STM32H7xx_HAL_Driver/Src/stm32h7xx_hal_flash.c ****   status = FLASH_WaitForLastOperation((uint32_t)FLASH_TIMEOUT_VALUE, bank);
 350:HAL_Lib/STM32H7xx_HAL_Driver/Src/stm32h7xx_hal_flash.c **** 
 351:HAL_Lib/STM32H7xx_HAL_Driver/Src/stm32h7xx_hal_flash.c ****   if (status != HAL_OK)
 352:HAL_Lib/STM32H7xx_HAL_Driver/Src/stm32h7xx_hal_flash.c ****   {
 353:HAL_Lib/STM32H7xx_HAL_Driver/Src/stm32h7xx_hal_flash.c ****     /* Process Unlocked */
 354:HAL_Lib/STM32H7xx_HAL_Driver/Src/stm32h7xx_hal_flash.c ****     __HAL_UNLOCK(&pFlash);
 355:HAL_Lib/STM32H7xx_HAL_Driver/Src/stm32h7xx_hal_flash.c ****   }
 356:HAL_Lib/STM32H7xx_HAL_Driver/Src/stm32h7xx_hal_flash.c ****   else
 357:HAL_Lib/STM32H7xx_HAL_Driver/Src/stm32h7xx_hal_flash.c ****   {
 358:HAL_Lib/STM32H7xx_HAL_Driver/Src/stm32h7xx_hal_flash.c ****     pFlash.Address = FlashAddress;
 359:HAL_Lib/STM32H7xx_HAL_Driver/Src/stm32h7xx_hal_flash.c **** 
 360:HAL_Lib/STM32H7xx_HAL_Driver/Src/stm32h7xx_hal_flash.c **** #if defined (DUAL_BANK)
 361:HAL_Lib/STM32H7xx_HAL_Driver/Src/stm32h7xx_hal_flash.c ****     if(bank == FLASH_BANK_1)
 362:HAL_Lib/STM32H7xx_HAL_Driver/Src/stm32h7xx_hal_flash.c ****     {
 363:HAL_Lib/STM32H7xx_HAL_Driver/Src/stm32h7xx_hal_flash.c ****       /* Set internal variables used by the IRQ handler */
 364:HAL_Lib/STM32H7xx_HAL_Driver/Src/stm32h7xx_hal_flash.c ****       pFlash.ProcedureOnGoing = FLASH_PROC_PROGRAM_BANK1;
 365:HAL_Lib/STM32H7xx_HAL_Driver/Src/stm32h7xx_hal_flash.c **** 
 366:HAL_Lib/STM32H7xx_HAL_Driver/Src/stm32h7xx_hal_flash.c **** #if defined (FLASH_OPTCR_PG_OTP)
 367:HAL_Lib/STM32H7xx_HAL_Driver/Src/stm32h7xx_hal_flash.c ****       if (TypeProgram == FLASH_TYPEPROGRAM_OTPWORD)
 368:HAL_Lib/STM32H7xx_HAL_Driver/Src/stm32h7xx_hal_flash.c ****       {
 369:HAL_Lib/STM32H7xx_HAL_Driver/Src/stm32h7xx_hal_flash.c ****         /* Set OTP_PG bit */
 370:HAL_Lib/STM32H7xx_HAL_Driver/Src/stm32h7xx_hal_flash.c ****         SET_BIT(FLASH->OPTCR, FLASH_OPTCR_PG_OTP);
 371:HAL_Lib/STM32H7xx_HAL_Driver/Src/stm32h7xx_hal_flash.c ****       }
 372:HAL_Lib/STM32H7xx_HAL_Driver/Src/stm32h7xx_hal_flash.c ****       else
ARM GAS  C:\Users\HUAV\AppData\Local\Temp\ccFxhkJ1.s 			page 8


 373:HAL_Lib/STM32H7xx_HAL_Driver/Src/stm32h7xx_hal_flash.c **** #endif /* FLASH_OPTCR_PG_OTP */
 374:HAL_Lib/STM32H7xx_HAL_Driver/Src/stm32h7xx_hal_flash.c ****       {
 375:HAL_Lib/STM32H7xx_HAL_Driver/Src/stm32h7xx_hal_flash.c ****         /* Set PG bit */
 376:HAL_Lib/STM32H7xx_HAL_Driver/Src/stm32h7xx_hal_flash.c ****         SET_BIT(FLASH->CR1, FLASH_CR_PG);
 377:HAL_Lib/STM32H7xx_HAL_Driver/Src/stm32h7xx_hal_flash.c ****       }
 378:HAL_Lib/STM32H7xx_HAL_Driver/Src/stm32h7xx_hal_flash.c **** 
 379:HAL_Lib/STM32H7xx_HAL_Driver/Src/stm32h7xx_hal_flash.c ****       /* Enable End of Operation and Error interrupts for Bank 1 */
 380:HAL_Lib/STM32H7xx_HAL_Driver/Src/stm32h7xx_hal_flash.c **** #if defined (FLASH_CR_OPERRIE)
 381:HAL_Lib/STM32H7xx_HAL_Driver/Src/stm32h7xx_hal_flash.c ****       __HAL_FLASH_ENABLE_IT_BANK1(FLASH_IT_EOP_BANK1     | FLASH_IT_WRPERR_BANK1 | FLASH_IT_PGSERR_
 382:HAL_Lib/STM32H7xx_HAL_Driver/Src/stm32h7xx_hal_flash.c ****                                   FLASH_IT_STRBERR_BANK1 | FLASH_IT_INCERR_BANK1 | FLASH_IT_OPERR_B
 383:HAL_Lib/STM32H7xx_HAL_Driver/Src/stm32h7xx_hal_flash.c **** #else
 384:HAL_Lib/STM32H7xx_HAL_Driver/Src/stm32h7xx_hal_flash.c ****       __HAL_FLASH_ENABLE_IT_BANK1(FLASH_IT_EOP_BANK1     | FLASH_IT_WRPERR_BANK1 | FLASH_IT_PGSERR_
 385:HAL_Lib/STM32H7xx_HAL_Driver/Src/stm32h7xx_hal_flash.c ****                                   FLASH_IT_STRBERR_BANK1 | FLASH_IT_INCERR_BANK1);
 386:HAL_Lib/STM32H7xx_HAL_Driver/Src/stm32h7xx_hal_flash.c **** #endif /* FLASH_CR_OPERRIE */
 387:HAL_Lib/STM32H7xx_HAL_Driver/Src/stm32h7xx_hal_flash.c ****     }
 388:HAL_Lib/STM32H7xx_HAL_Driver/Src/stm32h7xx_hal_flash.c ****     else
 389:HAL_Lib/STM32H7xx_HAL_Driver/Src/stm32h7xx_hal_flash.c ****     {
 390:HAL_Lib/STM32H7xx_HAL_Driver/Src/stm32h7xx_hal_flash.c ****       /* Set internal variables used by the IRQ handler */
 391:HAL_Lib/STM32H7xx_HAL_Driver/Src/stm32h7xx_hal_flash.c ****       pFlash.ProcedureOnGoing = FLASH_PROC_PROGRAM_BANK2;
 392:HAL_Lib/STM32H7xx_HAL_Driver/Src/stm32h7xx_hal_flash.c **** 
 393:HAL_Lib/STM32H7xx_HAL_Driver/Src/stm32h7xx_hal_flash.c ****       /* Set PG bit */
 394:HAL_Lib/STM32H7xx_HAL_Driver/Src/stm32h7xx_hal_flash.c ****       SET_BIT(FLASH->CR2, FLASH_CR_PG);
 395:HAL_Lib/STM32H7xx_HAL_Driver/Src/stm32h7xx_hal_flash.c **** 
 396:HAL_Lib/STM32H7xx_HAL_Driver/Src/stm32h7xx_hal_flash.c ****       /* Enable End of Operation and Error interrupts for Bank2 */
 397:HAL_Lib/STM32H7xx_HAL_Driver/Src/stm32h7xx_hal_flash.c **** #if defined (FLASH_CR_OPERRIE)
 398:HAL_Lib/STM32H7xx_HAL_Driver/Src/stm32h7xx_hal_flash.c ****       __HAL_FLASH_ENABLE_IT_BANK2(FLASH_IT_EOP_BANK2     | FLASH_IT_WRPERR_BANK2 | FLASH_IT_PGSERR_
 399:HAL_Lib/STM32H7xx_HAL_Driver/Src/stm32h7xx_hal_flash.c ****                                   FLASH_IT_STRBERR_BANK2 | FLASH_IT_INCERR_BANK2 | FLASH_IT_OPERR_B
 400:HAL_Lib/STM32H7xx_HAL_Driver/Src/stm32h7xx_hal_flash.c **** #else
 401:HAL_Lib/STM32H7xx_HAL_Driver/Src/stm32h7xx_hal_flash.c ****       __HAL_FLASH_ENABLE_IT_BANK2(FLASH_IT_EOP_BANK2     | FLASH_IT_WRPERR_BANK2 | FLASH_IT_PGSERR_
 402:HAL_Lib/STM32H7xx_HAL_Driver/Src/stm32h7xx_hal_flash.c ****                                   FLASH_IT_STRBERR_BANK2 | FLASH_IT_INCERR_BANK2);
 403:HAL_Lib/STM32H7xx_HAL_Driver/Src/stm32h7xx_hal_flash.c **** #endif /* FLASH_CR_OPERRIE */
 404:HAL_Lib/STM32H7xx_HAL_Driver/Src/stm32h7xx_hal_flash.c ****     }
 405:HAL_Lib/STM32H7xx_HAL_Driver/Src/stm32h7xx_hal_flash.c **** #else /* Single Bank */
 406:HAL_Lib/STM32H7xx_HAL_Driver/Src/stm32h7xx_hal_flash.c ****     /* Set internal variables used by the IRQ handler */
 407:HAL_Lib/STM32H7xx_HAL_Driver/Src/stm32h7xx_hal_flash.c ****     pFlash.ProcedureOnGoing = FLASH_PROC_PROGRAM_BANK1;
 408:HAL_Lib/STM32H7xx_HAL_Driver/Src/stm32h7xx_hal_flash.c **** 
 409:HAL_Lib/STM32H7xx_HAL_Driver/Src/stm32h7xx_hal_flash.c **** #if defined (FLASH_OPTCR_PG_OTP)
 410:HAL_Lib/STM32H7xx_HAL_Driver/Src/stm32h7xx_hal_flash.c ****     if (TypeProgram == FLASH_TYPEPROGRAM_OTPWORD)
 411:HAL_Lib/STM32H7xx_HAL_Driver/Src/stm32h7xx_hal_flash.c ****     {
 412:HAL_Lib/STM32H7xx_HAL_Driver/Src/stm32h7xx_hal_flash.c ****       /* Set OTP_PG bit */
 413:HAL_Lib/STM32H7xx_HAL_Driver/Src/stm32h7xx_hal_flash.c ****       SET_BIT(FLASH->OPTCR, FLASH_OPTCR_PG_OTP);
 414:HAL_Lib/STM32H7xx_HAL_Driver/Src/stm32h7xx_hal_flash.c ****     }
 415:HAL_Lib/STM32H7xx_HAL_Driver/Src/stm32h7xx_hal_flash.c ****     else
 416:HAL_Lib/STM32H7xx_HAL_Driver/Src/stm32h7xx_hal_flash.c **** #endif /* FLASH_OPTCR_PG_OTP */
 417:HAL_Lib/STM32H7xx_HAL_Driver/Src/stm32h7xx_hal_flash.c ****     {
 418:HAL_Lib/STM32H7xx_HAL_Driver/Src/stm32h7xx_hal_flash.c ****       /* Set PG bit */
 419:HAL_Lib/STM32H7xx_HAL_Driver/Src/stm32h7xx_hal_flash.c ****       SET_BIT(FLASH->CR1, FLASH_CR_PG);
 420:HAL_Lib/STM32H7xx_HAL_Driver/Src/stm32h7xx_hal_flash.c ****     }
 421:HAL_Lib/STM32H7xx_HAL_Driver/Src/stm32h7xx_hal_flash.c **** 
 422:HAL_Lib/STM32H7xx_HAL_Driver/Src/stm32h7xx_hal_flash.c ****       /* Enable End of Operation and Error interrupts for Bank 1 */
 423:HAL_Lib/STM32H7xx_HAL_Driver/Src/stm32h7xx_hal_flash.c **** #if defined (FLASH_CR_OPERRIE)
 424:HAL_Lib/STM32H7xx_HAL_Driver/Src/stm32h7xx_hal_flash.c ****       __HAL_FLASH_ENABLE_IT_BANK1(FLASH_IT_EOP_BANK1     | FLASH_IT_WRPERR_BANK1 | FLASH_IT_PGSERR_
 425:HAL_Lib/STM32H7xx_HAL_Driver/Src/stm32h7xx_hal_flash.c ****                                   FLASH_IT_STRBERR_BANK1 | FLASH_IT_INCERR_BANK1 | FLASH_IT_OPERR_B
 426:HAL_Lib/STM32H7xx_HAL_Driver/Src/stm32h7xx_hal_flash.c **** #else
 427:HAL_Lib/STM32H7xx_HAL_Driver/Src/stm32h7xx_hal_flash.c ****       __HAL_FLASH_ENABLE_IT_BANK1(FLASH_IT_EOP_BANK1     | FLASH_IT_WRPERR_BANK1 | FLASH_IT_PGSERR_
 428:HAL_Lib/STM32H7xx_HAL_Driver/Src/stm32h7xx_hal_flash.c ****                                   FLASH_IT_STRBERR_BANK1 | FLASH_IT_INCERR_BANK1);
 429:HAL_Lib/STM32H7xx_HAL_Driver/Src/stm32h7xx_hal_flash.c **** #endif /* FLASH_CR_OPERRIE */
ARM GAS  C:\Users\HUAV\AppData\Local\Temp\ccFxhkJ1.s 			page 9


 430:HAL_Lib/STM32H7xx_HAL_Driver/Src/stm32h7xx_hal_flash.c **** #endif /* DUAL_BANK */
 431:HAL_Lib/STM32H7xx_HAL_Driver/Src/stm32h7xx_hal_flash.c **** 
 432:HAL_Lib/STM32H7xx_HAL_Driver/Src/stm32h7xx_hal_flash.c ****     __ISB();
 433:HAL_Lib/STM32H7xx_HAL_Driver/Src/stm32h7xx_hal_flash.c ****     __DSB();
 434:HAL_Lib/STM32H7xx_HAL_Driver/Src/stm32h7xx_hal_flash.c **** 
 435:HAL_Lib/STM32H7xx_HAL_Driver/Src/stm32h7xx_hal_flash.c **** #if defined (FLASH_OPTCR_PG_OTP)
 436:HAL_Lib/STM32H7xx_HAL_Driver/Src/stm32h7xx_hal_flash.c ****     if (TypeProgram == FLASH_TYPEPROGRAM_OTPWORD)
 437:HAL_Lib/STM32H7xx_HAL_Driver/Src/stm32h7xx_hal_flash.c ****     {
 438:HAL_Lib/STM32H7xx_HAL_Driver/Src/stm32h7xx_hal_flash.c ****       /* Program an OTP word (16 bits) */
 439:HAL_Lib/STM32H7xx_HAL_Driver/Src/stm32h7xx_hal_flash.c ****       *(__IO uint16_t *)FlashAddress = *(__IO uint16_t*)DataAddress;
 440:HAL_Lib/STM32H7xx_HAL_Driver/Src/stm32h7xx_hal_flash.c ****     }
 441:HAL_Lib/STM32H7xx_HAL_Driver/Src/stm32h7xx_hal_flash.c ****     else
 442:HAL_Lib/STM32H7xx_HAL_Driver/Src/stm32h7xx_hal_flash.c **** #endif /* FLASH_OPTCR_PG_OTP */
 443:HAL_Lib/STM32H7xx_HAL_Driver/Src/stm32h7xx_hal_flash.c ****     {
 444:HAL_Lib/STM32H7xx_HAL_Driver/Src/stm32h7xx_hal_flash.c ****       /* Program the flash word */
 445:HAL_Lib/STM32H7xx_HAL_Driver/Src/stm32h7xx_hal_flash.c ****       do
 446:HAL_Lib/STM32H7xx_HAL_Driver/Src/stm32h7xx_hal_flash.c ****       {
 447:HAL_Lib/STM32H7xx_HAL_Driver/Src/stm32h7xx_hal_flash.c ****         *dest_addr = *src_addr;
 448:HAL_Lib/STM32H7xx_HAL_Driver/Src/stm32h7xx_hal_flash.c ****         dest_addr++;
 449:HAL_Lib/STM32H7xx_HAL_Driver/Src/stm32h7xx_hal_flash.c ****         src_addr++;
 450:HAL_Lib/STM32H7xx_HAL_Driver/Src/stm32h7xx_hal_flash.c ****         row_index--;
 451:HAL_Lib/STM32H7xx_HAL_Driver/Src/stm32h7xx_hal_flash.c ****       } while (row_index != 0U);
 452:HAL_Lib/STM32H7xx_HAL_Driver/Src/stm32h7xx_hal_flash.c ****     }
 453:HAL_Lib/STM32H7xx_HAL_Driver/Src/stm32h7xx_hal_flash.c **** 
 454:HAL_Lib/STM32H7xx_HAL_Driver/Src/stm32h7xx_hal_flash.c ****     __ISB();
 455:HAL_Lib/STM32H7xx_HAL_Driver/Src/stm32h7xx_hal_flash.c ****     __DSB();
 456:HAL_Lib/STM32H7xx_HAL_Driver/Src/stm32h7xx_hal_flash.c ****   }
 457:HAL_Lib/STM32H7xx_HAL_Driver/Src/stm32h7xx_hal_flash.c **** 
 458:HAL_Lib/STM32H7xx_HAL_Driver/Src/stm32h7xx_hal_flash.c ****   return status;
 459:HAL_Lib/STM32H7xx_HAL_Driver/Src/stm32h7xx_hal_flash.c **** }
 460:HAL_Lib/STM32H7xx_HAL_Driver/Src/stm32h7xx_hal_flash.c **** 
 461:HAL_Lib/STM32H7xx_HAL_Driver/Src/stm32h7xx_hal_flash.c **** /**
 462:HAL_Lib/STM32H7xx_HAL_Driver/Src/stm32h7xx_hal_flash.c ****   * @brief This function handles FLASH interrupt request.
 463:HAL_Lib/STM32H7xx_HAL_Driver/Src/stm32h7xx_hal_flash.c ****   * @retval None
 464:HAL_Lib/STM32H7xx_HAL_Driver/Src/stm32h7xx_hal_flash.c ****   */
 465:HAL_Lib/STM32H7xx_HAL_Driver/Src/stm32h7xx_hal_flash.c **** void HAL_FLASH_IRQHandler(void)
 466:HAL_Lib/STM32H7xx_HAL_Driver/Src/stm32h7xx_hal_flash.c **** {
 467:HAL_Lib/STM32H7xx_HAL_Driver/Src/stm32h7xx_hal_flash.c ****   uint32_t temp;
 468:HAL_Lib/STM32H7xx_HAL_Driver/Src/stm32h7xx_hal_flash.c ****   uint32_t errorflag;
 469:HAL_Lib/STM32H7xx_HAL_Driver/Src/stm32h7xx_hal_flash.c ****   FLASH_ProcedureTypeDef procedure;
 470:HAL_Lib/STM32H7xx_HAL_Driver/Src/stm32h7xx_hal_flash.c **** 
 471:HAL_Lib/STM32H7xx_HAL_Driver/Src/stm32h7xx_hal_flash.c ****   /* Check FLASH Bank1 End of Operation flag  */
 472:HAL_Lib/STM32H7xx_HAL_Driver/Src/stm32h7xx_hal_flash.c ****   if(__HAL_FLASH_GET_FLAG_BANK1(FLASH_SR_EOP) != RESET)
 473:HAL_Lib/STM32H7xx_HAL_Driver/Src/stm32h7xx_hal_flash.c ****   {
 474:HAL_Lib/STM32H7xx_HAL_Driver/Src/stm32h7xx_hal_flash.c ****     if(pFlash.ProcedureOnGoing == FLASH_PROC_SECTERASE_BANK1)
 475:HAL_Lib/STM32H7xx_HAL_Driver/Src/stm32h7xx_hal_flash.c ****     {
 476:HAL_Lib/STM32H7xx_HAL_Driver/Src/stm32h7xx_hal_flash.c ****       /* Nb of sector to erased can be decreased */
 477:HAL_Lib/STM32H7xx_HAL_Driver/Src/stm32h7xx_hal_flash.c ****       pFlash.NbSectorsToErase--;
 478:HAL_Lib/STM32H7xx_HAL_Driver/Src/stm32h7xx_hal_flash.c **** 
 479:HAL_Lib/STM32H7xx_HAL_Driver/Src/stm32h7xx_hal_flash.c ****       /* Check if there are still sectors to erase */
 480:HAL_Lib/STM32H7xx_HAL_Driver/Src/stm32h7xx_hal_flash.c ****       if(pFlash.NbSectorsToErase != 0U)
 481:HAL_Lib/STM32H7xx_HAL_Driver/Src/stm32h7xx_hal_flash.c ****       {
 482:HAL_Lib/STM32H7xx_HAL_Driver/Src/stm32h7xx_hal_flash.c ****         /* Indicate user which sector has been erased */
 483:HAL_Lib/STM32H7xx_HAL_Driver/Src/stm32h7xx_hal_flash.c ****         HAL_FLASH_EndOfOperationCallback(pFlash.Sector);
 484:HAL_Lib/STM32H7xx_HAL_Driver/Src/stm32h7xx_hal_flash.c **** 
 485:HAL_Lib/STM32H7xx_HAL_Driver/Src/stm32h7xx_hal_flash.c ****         /* Clear bank 1 End of Operation pending bit */
 486:HAL_Lib/STM32H7xx_HAL_Driver/Src/stm32h7xx_hal_flash.c ****         __HAL_FLASH_CLEAR_FLAG_BANK1(FLASH_FLAG_EOP_BANK1);
ARM GAS  C:\Users\HUAV\AppData\Local\Temp\ccFxhkJ1.s 			page 10


 487:HAL_Lib/STM32H7xx_HAL_Driver/Src/stm32h7xx_hal_flash.c **** 
 488:HAL_Lib/STM32H7xx_HAL_Driver/Src/stm32h7xx_hal_flash.c ****         /* Increment sector number */
 489:HAL_Lib/STM32H7xx_HAL_Driver/Src/stm32h7xx_hal_flash.c ****         pFlash.Sector++;
 490:HAL_Lib/STM32H7xx_HAL_Driver/Src/stm32h7xx_hal_flash.c ****         temp = pFlash.Sector;
 491:HAL_Lib/STM32H7xx_HAL_Driver/Src/stm32h7xx_hal_flash.c ****         FLASH_Erase_Sector(temp, FLASH_BANK_1, pFlash.VoltageForErase);
 492:HAL_Lib/STM32H7xx_HAL_Driver/Src/stm32h7xx_hal_flash.c ****       }
 493:HAL_Lib/STM32H7xx_HAL_Driver/Src/stm32h7xx_hal_flash.c ****       else
 494:HAL_Lib/STM32H7xx_HAL_Driver/Src/stm32h7xx_hal_flash.c ****       {
 495:HAL_Lib/STM32H7xx_HAL_Driver/Src/stm32h7xx_hal_flash.c ****         /* No more sectors to Erase, user callback can be called */
 496:HAL_Lib/STM32H7xx_HAL_Driver/Src/stm32h7xx_hal_flash.c ****         /* Reset Sector and stop Erase sectors procedure */
 497:HAL_Lib/STM32H7xx_HAL_Driver/Src/stm32h7xx_hal_flash.c ****         pFlash.Sector = 0xFFFFFFFFU;
 498:HAL_Lib/STM32H7xx_HAL_Driver/Src/stm32h7xx_hal_flash.c ****         pFlash.ProcedureOnGoing = FLASH_PROC_NONE;
 499:HAL_Lib/STM32H7xx_HAL_Driver/Src/stm32h7xx_hal_flash.c **** 
 500:HAL_Lib/STM32H7xx_HAL_Driver/Src/stm32h7xx_hal_flash.c ****         /* FLASH EOP interrupt user callback */
 501:HAL_Lib/STM32H7xx_HAL_Driver/Src/stm32h7xx_hal_flash.c ****         HAL_FLASH_EndOfOperationCallback(pFlash.Sector);
 502:HAL_Lib/STM32H7xx_HAL_Driver/Src/stm32h7xx_hal_flash.c **** 
 503:HAL_Lib/STM32H7xx_HAL_Driver/Src/stm32h7xx_hal_flash.c ****         /* Clear FLASH End of Operation pending bit */
 504:HAL_Lib/STM32H7xx_HAL_Driver/Src/stm32h7xx_hal_flash.c ****         __HAL_FLASH_CLEAR_FLAG_BANK1(FLASH_FLAG_EOP_BANK1);
 505:HAL_Lib/STM32H7xx_HAL_Driver/Src/stm32h7xx_hal_flash.c ****       }
 506:HAL_Lib/STM32H7xx_HAL_Driver/Src/stm32h7xx_hal_flash.c ****     }
 507:HAL_Lib/STM32H7xx_HAL_Driver/Src/stm32h7xx_hal_flash.c ****     else
 508:HAL_Lib/STM32H7xx_HAL_Driver/Src/stm32h7xx_hal_flash.c ****     {
 509:HAL_Lib/STM32H7xx_HAL_Driver/Src/stm32h7xx_hal_flash.c ****       procedure = pFlash.ProcedureOnGoing;
 510:HAL_Lib/STM32H7xx_HAL_Driver/Src/stm32h7xx_hal_flash.c **** 
 511:HAL_Lib/STM32H7xx_HAL_Driver/Src/stm32h7xx_hal_flash.c ****       if((procedure == FLASH_PROC_MASSERASE_BANK1) || (procedure == FLASH_PROC_ALLBANK_MASSERASE))
 512:HAL_Lib/STM32H7xx_HAL_Driver/Src/stm32h7xx_hal_flash.c ****       {
 513:HAL_Lib/STM32H7xx_HAL_Driver/Src/stm32h7xx_hal_flash.c ****         /* MassErase ended. Return the selected bank */
 514:HAL_Lib/STM32H7xx_HAL_Driver/Src/stm32h7xx_hal_flash.c ****         /* FLASH EOP interrupt user callback */
 515:HAL_Lib/STM32H7xx_HAL_Driver/Src/stm32h7xx_hal_flash.c ****         HAL_FLASH_EndOfOperationCallback(FLASH_BANK_1);
 516:HAL_Lib/STM32H7xx_HAL_Driver/Src/stm32h7xx_hal_flash.c ****       }
 517:HAL_Lib/STM32H7xx_HAL_Driver/Src/stm32h7xx_hal_flash.c ****       else if(procedure == FLASH_PROC_PROGRAM_BANK1)
 518:HAL_Lib/STM32H7xx_HAL_Driver/Src/stm32h7xx_hal_flash.c ****       {
 519:HAL_Lib/STM32H7xx_HAL_Driver/Src/stm32h7xx_hal_flash.c ****         /* Program ended. Return the selected address */
 520:HAL_Lib/STM32H7xx_HAL_Driver/Src/stm32h7xx_hal_flash.c ****         /* FLASH EOP interrupt user callback */
 521:HAL_Lib/STM32H7xx_HAL_Driver/Src/stm32h7xx_hal_flash.c ****         HAL_FLASH_EndOfOperationCallback(pFlash.Address);
 522:HAL_Lib/STM32H7xx_HAL_Driver/Src/stm32h7xx_hal_flash.c ****       }
 523:HAL_Lib/STM32H7xx_HAL_Driver/Src/stm32h7xx_hal_flash.c ****       else
 524:HAL_Lib/STM32H7xx_HAL_Driver/Src/stm32h7xx_hal_flash.c ****       {
 525:HAL_Lib/STM32H7xx_HAL_Driver/Src/stm32h7xx_hal_flash.c ****         /* Nothing to do */
 526:HAL_Lib/STM32H7xx_HAL_Driver/Src/stm32h7xx_hal_flash.c ****       }
 527:HAL_Lib/STM32H7xx_HAL_Driver/Src/stm32h7xx_hal_flash.c **** 
 528:HAL_Lib/STM32H7xx_HAL_Driver/Src/stm32h7xx_hal_flash.c ****       if((procedure != FLASH_PROC_SECTERASE_BANK2) && \
 529:HAL_Lib/STM32H7xx_HAL_Driver/Src/stm32h7xx_hal_flash.c ****          (procedure != FLASH_PROC_MASSERASE_BANK2) && \
 530:HAL_Lib/STM32H7xx_HAL_Driver/Src/stm32h7xx_hal_flash.c ****          (procedure != FLASH_PROC_PROGRAM_BANK2))
 531:HAL_Lib/STM32H7xx_HAL_Driver/Src/stm32h7xx_hal_flash.c ****       {
 532:HAL_Lib/STM32H7xx_HAL_Driver/Src/stm32h7xx_hal_flash.c ****         pFlash.ProcedureOnGoing = FLASH_PROC_NONE;
 533:HAL_Lib/STM32H7xx_HAL_Driver/Src/stm32h7xx_hal_flash.c ****         /* Clear FLASH End of Operation pending bit */
 534:HAL_Lib/STM32H7xx_HAL_Driver/Src/stm32h7xx_hal_flash.c ****         __HAL_FLASH_CLEAR_FLAG_BANK1(FLASH_FLAG_EOP_BANK1);
 535:HAL_Lib/STM32H7xx_HAL_Driver/Src/stm32h7xx_hal_flash.c ****       }
 536:HAL_Lib/STM32H7xx_HAL_Driver/Src/stm32h7xx_hal_flash.c ****     }
 537:HAL_Lib/STM32H7xx_HAL_Driver/Src/stm32h7xx_hal_flash.c ****   }
 538:HAL_Lib/STM32H7xx_HAL_Driver/Src/stm32h7xx_hal_flash.c **** 
 539:HAL_Lib/STM32H7xx_HAL_Driver/Src/stm32h7xx_hal_flash.c **** #if defined (DUAL_BANK)
 540:HAL_Lib/STM32H7xx_HAL_Driver/Src/stm32h7xx_hal_flash.c ****  /* Check FLASH Bank2 End of Operation flag  */
 541:HAL_Lib/STM32H7xx_HAL_Driver/Src/stm32h7xx_hal_flash.c ****   if(__HAL_FLASH_GET_FLAG_BANK2(FLASH_SR_EOP) != RESET)
 542:HAL_Lib/STM32H7xx_HAL_Driver/Src/stm32h7xx_hal_flash.c ****   {
 543:HAL_Lib/STM32H7xx_HAL_Driver/Src/stm32h7xx_hal_flash.c ****     if(pFlash.ProcedureOnGoing == FLASH_PROC_SECTERASE_BANK2)
ARM GAS  C:\Users\HUAV\AppData\Local\Temp\ccFxhkJ1.s 			page 11


 544:HAL_Lib/STM32H7xx_HAL_Driver/Src/stm32h7xx_hal_flash.c ****     {
 545:HAL_Lib/STM32H7xx_HAL_Driver/Src/stm32h7xx_hal_flash.c ****       /*Nb of sector to erased can be decreased*/
 546:HAL_Lib/STM32H7xx_HAL_Driver/Src/stm32h7xx_hal_flash.c ****       pFlash.NbSectorsToErase--;
 547:HAL_Lib/STM32H7xx_HAL_Driver/Src/stm32h7xx_hal_flash.c **** 
 548:HAL_Lib/STM32H7xx_HAL_Driver/Src/stm32h7xx_hal_flash.c ****       /* Check if there are still sectors to erase*/
 549:HAL_Lib/STM32H7xx_HAL_Driver/Src/stm32h7xx_hal_flash.c ****       if(pFlash.NbSectorsToErase != 0U)
 550:HAL_Lib/STM32H7xx_HAL_Driver/Src/stm32h7xx_hal_flash.c ****       {
 551:HAL_Lib/STM32H7xx_HAL_Driver/Src/stm32h7xx_hal_flash.c ****         /*Indicate user which sector has been erased*/
 552:HAL_Lib/STM32H7xx_HAL_Driver/Src/stm32h7xx_hal_flash.c ****         HAL_FLASH_EndOfOperationCallback(pFlash.Sector);
 553:HAL_Lib/STM32H7xx_HAL_Driver/Src/stm32h7xx_hal_flash.c **** 
 554:HAL_Lib/STM32H7xx_HAL_Driver/Src/stm32h7xx_hal_flash.c ****         /* Clear bank 2 End of Operation pending bit */
 555:HAL_Lib/STM32H7xx_HAL_Driver/Src/stm32h7xx_hal_flash.c ****         __HAL_FLASH_CLEAR_FLAG_BANK2(FLASH_FLAG_EOP_BANK2);
 556:HAL_Lib/STM32H7xx_HAL_Driver/Src/stm32h7xx_hal_flash.c **** 
 557:HAL_Lib/STM32H7xx_HAL_Driver/Src/stm32h7xx_hal_flash.c ****         /*Increment sector number*/
 558:HAL_Lib/STM32H7xx_HAL_Driver/Src/stm32h7xx_hal_flash.c ****         pFlash.Sector++;
 559:HAL_Lib/STM32H7xx_HAL_Driver/Src/stm32h7xx_hal_flash.c ****         temp = pFlash.Sector;
 560:HAL_Lib/STM32H7xx_HAL_Driver/Src/stm32h7xx_hal_flash.c ****         FLASH_Erase_Sector(temp, FLASH_BANK_2, pFlash.VoltageForErase);
 561:HAL_Lib/STM32H7xx_HAL_Driver/Src/stm32h7xx_hal_flash.c ****       }
 562:HAL_Lib/STM32H7xx_HAL_Driver/Src/stm32h7xx_hal_flash.c ****       else
 563:HAL_Lib/STM32H7xx_HAL_Driver/Src/stm32h7xx_hal_flash.c ****       {
 564:HAL_Lib/STM32H7xx_HAL_Driver/Src/stm32h7xx_hal_flash.c ****         /* No more sectors to Erase, user callback can be called */
 565:HAL_Lib/STM32H7xx_HAL_Driver/Src/stm32h7xx_hal_flash.c ****         /* Reset Sector and stop Erase sectors procedure */
 566:HAL_Lib/STM32H7xx_HAL_Driver/Src/stm32h7xx_hal_flash.c ****         pFlash.Sector = 0xFFFFFFFFU;
 567:HAL_Lib/STM32H7xx_HAL_Driver/Src/stm32h7xx_hal_flash.c ****         pFlash.ProcedureOnGoing = FLASH_PROC_NONE;
 568:HAL_Lib/STM32H7xx_HAL_Driver/Src/stm32h7xx_hal_flash.c **** 
 569:HAL_Lib/STM32H7xx_HAL_Driver/Src/stm32h7xx_hal_flash.c ****         /* FLASH EOP interrupt user callback */
 570:HAL_Lib/STM32H7xx_HAL_Driver/Src/stm32h7xx_hal_flash.c ****         HAL_FLASH_EndOfOperationCallback(pFlash.Sector);
 571:HAL_Lib/STM32H7xx_HAL_Driver/Src/stm32h7xx_hal_flash.c **** 
 572:HAL_Lib/STM32H7xx_HAL_Driver/Src/stm32h7xx_hal_flash.c ****         /* Clear FLASH End of Operation pending bit */
 573:HAL_Lib/STM32H7xx_HAL_Driver/Src/stm32h7xx_hal_flash.c ****         __HAL_FLASH_CLEAR_FLAG_BANK2(FLASH_FLAG_EOP_BANK2);
 574:HAL_Lib/STM32H7xx_HAL_Driver/Src/stm32h7xx_hal_flash.c ****       }
 575:HAL_Lib/STM32H7xx_HAL_Driver/Src/stm32h7xx_hal_flash.c ****     }
 576:HAL_Lib/STM32H7xx_HAL_Driver/Src/stm32h7xx_hal_flash.c ****     else
 577:HAL_Lib/STM32H7xx_HAL_Driver/Src/stm32h7xx_hal_flash.c ****     {
 578:HAL_Lib/STM32H7xx_HAL_Driver/Src/stm32h7xx_hal_flash.c ****       procedure = pFlash.ProcedureOnGoing;
 579:HAL_Lib/STM32H7xx_HAL_Driver/Src/stm32h7xx_hal_flash.c **** 
 580:HAL_Lib/STM32H7xx_HAL_Driver/Src/stm32h7xx_hal_flash.c ****       if((procedure == FLASH_PROC_MASSERASE_BANK2) || (procedure == FLASH_PROC_ALLBANK_MASSERASE))
 581:HAL_Lib/STM32H7xx_HAL_Driver/Src/stm32h7xx_hal_flash.c ****       {
 582:HAL_Lib/STM32H7xx_HAL_Driver/Src/stm32h7xx_hal_flash.c ****         /*MassErase ended. Return the selected bank*/
 583:HAL_Lib/STM32H7xx_HAL_Driver/Src/stm32h7xx_hal_flash.c ****         /* FLASH EOP interrupt user callback */
 584:HAL_Lib/STM32H7xx_HAL_Driver/Src/stm32h7xx_hal_flash.c ****         HAL_FLASH_EndOfOperationCallback(FLASH_BANK_2);
 585:HAL_Lib/STM32H7xx_HAL_Driver/Src/stm32h7xx_hal_flash.c ****       }
 586:HAL_Lib/STM32H7xx_HAL_Driver/Src/stm32h7xx_hal_flash.c ****       else if(procedure == FLASH_PROC_PROGRAM_BANK2)
 587:HAL_Lib/STM32H7xx_HAL_Driver/Src/stm32h7xx_hal_flash.c ****       {
 588:HAL_Lib/STM32H7xx_HAL_Driver/Src/stm32h7xx_hal_flash.c ****         /* Program ended. Return the selected address */
 589:HAL_Lib/STM32H7xx_HAL_Driver/Src/stm32h7xx_hal_flash.c ****         /* FLASH EOP interrupt user callback */
 590:HAL_Lib/STM32H7xx_HAL_Driver/Src/stm32h7xx_hal_flash.c ****         HAL_FLASH_EndOfOperationCallback(pFlash.Address);
 591:HAL_Lib/STM32H7xx_HAL_Driver/Src/stm32h7xx_hal_flash.c ****       }
 592:HAL_Lib/STM32H7xx_HAL_Driver/Src/stm32h7xx_hal_flash.c ****       else
 593:HAL_Lib/STM32H7xx_HAL_Driver/Src/stm32h7xx_hal_flash.c ****       {
 594:HAL_Lib/STM32H7xx_HAL_Driver/Src/stm32h7xx_hal_flash.c ****         /* Nothing to do */
 595:HAL_Lib/STM32H7xx_HAL_Driver/Src/stm32h7xx_hal_flash.c ****       }
 596:HAL_Lib/STM32H7xx_HAL_Driver/Src/stm32h7xx_hal_flash.c **** 
 597:HAL_Lib/STM32H7xx_HAL_Driver/Src/stm32h7xx_hal_flash.c ****       if((procedure != FLASH_PROC_SECTERASE_BANK1) && \
 598:HAL_Lib/STM32H7xx_HAL_Driver/Src/stm32h7xx_hal_flash.c ****          (procedure != FLASH_PROC_MASSERASE_BANK1) && \
 599:HAL_Lib/STM32H7xx_HAL_Driver/Src/stm32h7xx_hal_flash.c ****          (procedure != FLASH_PROC_PROGRAM_BANK1))
 600:HAL_Lib/STM32H7xx_HAL_Driver/Src/stm32h7xx_hal_flash.c ****       {
ARM GAS  C:\Users\HUAV\AppData\Local\Temp\ccFxhkJ1.s 			page 12


 601:HAL_Lib/STM32H7xx_HAL_Driver/Src/stm32h7xx_hal_flash.c ****         pFlash.ProcedureOnGoing = FLASH_PROC_NONE;
 602:HAL_Lib/STM32H7xx_HAL_Driver/Src/stm32h7xx_hal_flash.c ****         /* Clear FLASH End of Operation pending bit */
 603:HAL_Lib/STM32H7xx_HAL_Driver/Src/stm32h7xx_hal_flash.c ****         __HAL_FLASH_CLEAR_FLAG_BANK2(FLASH_FLAG_EOP_BANK2);
 604:HAL_Lib/STM32H7xx_HAL_Driver/Src/stm32h7xx_hal_flash.c ****       }
 605:HAL_Lib/STM32H7xx_HAL_Driver/Src/stm32h7xx_hal_flash.c ****     }
 606:HAL_Lib/STM32H7xx_HAL_Driver/Src/stm32h7xx_hal_flash.c ****   }
 607:HAL_Lib/STM32H7xx_HAL_Driver/Src/stm32h7xx_hal_flash.c **** #endif /* DUAL_BANK */
 608:HAL_Lib/STM32H7xx_HAL_Driver/Src/stm32h7xx_hal_flash.c **** 
 609:HAL_Lib/STM32H7xx_HAL_Driver/Src/stm32h7xx_hal_flash.c ****   /* Check FLASH Bank1 operation error flags */
 610:HAL_Lib/STM32H7xx_HAL_Driver/Src/stm32h7xx_hal_flash.c **** #if defined (FLASH_SR_OPERR)
 611:HAL_Lib/STM32H7xx_HAL_Driver/Src/stm32h7xx_hal_flash.c ****   errorflag = FLASH->SR1 & (FLASH_FLAG_WRPERR_BANK1 | FLASH_FLAG_PGSERR_BANK1 | FLASH_FLAG_STRBERR_
 612:HAL_Lib/STM32H7xx_HAL_Driver/Src/stm32h7xx_hal_flash.c ****                             FLASH_FLAG_INCERR_BANK1 | FLASH_FLAG_OPERR_BANK1);
 613:HAL_Lib/STM32H7xx_HAL_Driver/Src/stm32h7xx_hal_flash.c **** #else
 614:HAL_Lib/STM32H7xx_HAL_Driver/Src/stm32h7xx_hal_flash.c ****   errorflag = FLASH->SR1 & (FLASH_FLAG_WRPERR_BANK1 | FLASH_FLAG_PGSERR_BANK1 | FLASH_FLAG_STRBERR_
 615:HAL_Lib/STM32H7xx_HAL_Driver/Src/stm32h7xx_hal_flash.c ****                             FLASH_FLAG_INCERR_BANK1);
 616:HAL_Lib/STM32H7xx_HAL_Driver/Src/stm32h7xx_hal_flash.c **** #endif /* FLASH_SR_OPERR */
 617:HAL_Lib/STM32H7xx_HAL_Driver/Src/stm32h7xx_hal_flash.c **** 
 618:HAL_Lib/STM32H7xx_HAL_Driver/Src/stm32h7xx_hal_flash.c ****   if(errorflag != 0U)
 619:HAL_Lib/STM32H7xx_HAL_Driver/Src/stm32h7xx_hal_flash.c ****   {
 620:HAL_Lib/STM32H7xx_HAL_Driver/Src/stm32h7xx_hal_flash.c ****     /* Save the error code */
 621:HAL_Lib/STM32H7xx_HAL_Driver/Src/stm32h7xx_hal_flash.c ****     pFlash.ErrorCode |= errorflag;
 622:HAL_Lib/STM32H7xx_HAL_Driver/Src/stm32h7xx_hal_flash.c **** 
 623:HAL_Lib/STM32H7xx_HAL_Driver/Src/stm32h7xx_hal_flash.c ****     /* Clear error programming flags */
 624:HAL_Lib/STM32H7xx_HAL_Driver/Src/stm32h7xx_hal_flash.c ****     __HAL_FLASH_CLEAR_FLAG_BANK1(errorflag);
 625:HAL_Lib/STM32H7xx_HAL_Driver/Src/stm32h7xx_hal_flash.c **** 
 626:HAL_Lib/STM32H7xx_HAL_Driver/Src/stm32h7xx_hal_flash.c ****     procedure = pFlash.ProcedureOnGoing;
 627:HAL_Lib/STM32H7xx_HAL_Driver/Src/stm32h7xx_hal_flash.c **** 
 628:HAL_Lib/STM32H7xx_HAL_Driver/Src/stm32h7xx_hal_flash.c ****     if(procedure == FLASH_PROC_SECTERASE_BANK1)
 629:HAL_Lib/STM32H7xx_HAL_Driver/Src/stm32h7xx_hal_flash.c ****     {
 630:HAL_Lib/STM32H7xx_HAL_Driver/Src/stm32h7xx_hal_flash.c ****       /* Return the faulty sector */
 631:HAL_Lib/STM32H7xx_HAL_Driver/Src/stm32h7xx_hal_flash.c ****       temp = pFlash.Sector;
 632:HAL_Lib/STM32H7xx_HAL_Driver/Src/stm32h7xx_hal_flash.c ****       pFlash.Sector = 0xFFFFFFFFU;
 633:HAL_Lib/STM32H7xx_HAL_Driver/Src/stm32h7xx_hal_flash.c ****     }
 634:HAL_Lib/STM32H7xx_HAL_Driver/Src/stm32h7xx_hal_flash.c ****     else if((procedure == FLASH_PROC_MASSERASE_BANK1) || (procedure == FLASH_PROC_ALLBANK_MASSERASE
 635:HAL_Lib/STM32H7xx_HAL_Driver/Src/stm32h7xx_hal_flash.c ****     {
 636:HAL_Lib/STM32H7xx_HAL_Driver/Src/stm32h7xx_hal_flash.c ****       /* Return the faulty bank */
 637:HAL_Lib/STM32H7xx_HAL_Driver/Src/stm32h7xx_hal_flash.c ****       temp = FLASH_BANK_1;
 638:HAL_Lib/STM32H7xx_HAL_Driver/Src/stm32h7xx_hal_flash.c ****     }
 639:HAL_Lib/STM32H7xx_HAL_Driver/Src/stm32h7xx_hal_flash.c ****     else
 640:HAL_Lib/STM32H7xx_HAL_Driver/Src/stm32h7xx_hal_flash.c ****     {
 641:HAL_Lib/STM32H7xx_HAL_Driver/Src/stm32h7xx_hal_flash.c ****       /* Return the faulty address */
 642:HAL_Lib/STM32H7xx_HAL_Driver/Src/stm32h7xx_hal_flash.c ****       temp = pFlash.Address;
 643:HAL_Lib/STM32H7xx_HAL_Driver/Src/stm32h7xx_hal_flash.c ****     }
 644:HAL_Lib/STM32H7xx_HAL_Driver/Src/stm32h7xx_hal_flash.c **** 
 645:HAL_Lib/STM32H7xx_HAL_Driver/Src/stm32h7xx_hal_flash.c ****     /* Stop the procedure ongoing*/
 646:HAL_Lib/STM32H7xx_HAL_Driver/Src/stm32h7xx_hal_flash.c ****     pFlash.ProcedureOnGoing = FLASH_PROC_NONE;
 647:HAL_Lib/STM32H7xx_HAL_Driver/Src/stm32h7xx_hal_flash.c **** 
 648:HAL_Lib/STM32H7xx_HAL_Driver/Src/stm32h7xx_hal_flash.c ****     /* FLASH error interrupt user callback */
 649:HAL_Lib/STM32H7xx_HAL_Driver/Src/stm32h7xx_hal_flash.c ****     HAL_FLASH_OperationErrorCallback(temp);
 650:HAL_Lib/STM32H7xx_HAL_Driver/Src/stm32h7xx_hal_flash.c ****   }
 651:HAL_Lib/STM32H7xx_HAL_Driver/Src/stm32h7xx_hal_flash.c **** 
 652:HAL_Lib/STM32H7xx_HAL_Driver/Src/stm32h7xx_hal_flash.c **** #if defined (DUAL_BANK)
 653:HAL_Lib/STM32H7xx_HAL_Driver/Src/stm32h7xx_hal_flash.c ****   /* Check FLASH Bank2 operation error flags */
 654:HAL_Lib/STM32H7xx_HAL_Driver/Src/stm32h7xx_hal_flash.c **** #if defined (FLASH_SR_OPERR)
 655:HAL_Lib/STM32H7xx_HAL_Driver/Src/stm32h7xx_hal_flash.c ****   errorflag = FLASH->SR2 & ((FLASH_FLAG_WRPERR_BANK2 | FLASH_FLAG_PGSERR_BANK2 | FLASH_FLAG_STRBERR
 656:HAL_Lib/STM32H7xx_HAL_Driver/Src/stm32h7xx_hal_flash.c ****                              FLASH_FLAG_INCERR_BANK2 | FLASH_FLAG_OPERR_BANK2) & 0x7FFFFFFFU);
 657:HAL_Lib/STM32H7xx_HAL_Driver/Src/stm32h7xx_hal_flash.c **** #else
ARM GAS  C:\Users\HUAV\AppData\Local\Temp\ccFxhkJ1.s 			page 13


 658:HAL_Lib/STM32H7xx_HAL_Driver/Src/stm32h7xx_hal_flash.c ****   errorflag = FLASH->SR2 & ((FLASH_FLAG_WRPERR_BANK2 | FLASH_FLAG_PGSERR_BANK2 | FLASH_FLAG_STRBERR
 659:HAL_Lib/STM32H7xx_HAL_Driver/Src/stm32h7xx_hal_flash.c ****                              FLASH_FLAG_INCERR_BANK2) & 0x7FFFFFFFU);
 660:HAL_Lib/STM32H7xx_HAL_Driver/Src/stm32h7xx_hal_flash.c **** #endif /* FLASH_SR_OPERR */
 661:HAL_Lib/STM32H7xx_HAL_Driver/Src/stm32h7xx_hal_flash.c **** 
 662:HAL_Lib/STM32H7xx_HAL_Driver/Src/stm32h7xx_hal_flash.c ****   if(errorflag != 0U)
 663:HAL_Lib/STM32H7xx_HAL_Driver/Src/stm32h7xx_hal_flash.c ****   {
 664:HAL_Lib/STM32H7xx_HAL_Driver/Src/stm32h7xx_hal_flash.c ****     /* Save the error code */
 665:HAL_Lib/STM32H7xx_HAL_Driver/Src/stm32h7xx_hal_flash.c ****     pFlash.ErrorCode |= (errorflag | 0x80000000U);
 666:HAL_Lib/STM32H7xx_HAL_Driver/Src/stm32h7xx_hal_flash.c **** 
 667:HAL_Lib/STM32H7xx_HAL_Driver/Src/stm32h7xx_hal_flash.c ****     /* Clear error programming flags */
 668:HAL_Lib/STM32H7xx_HAL_Driver/Src/stm32h7xx_hal_flash.c ****     __HAL_FLASH_CLEAR_FLAG_BANK2(errorflag);
 669:HAL_Lib/STM32H7xx_HAL_Driver/Src/stm32h7xx_hal_flash.c **** 
 670:HAL_Lib/STM32H7xx_HAL_Driver/Src/stm32h7xx_hal_flash.c ****     procedure = pFlash.ProcedureOnGoing;
 671:HAL_Lib/STM32H7xx_HAL_Driver/Src/stm32h7xx_hal_flash.c **** 
 672:HAL_Lib/STM32H7xx_HAL_Driver/Src/stm32h7xx_hal_flash.c ****     if(procedure== FLASH_PROC_SECTERASE_BANK2)
 673:HAL_Lib/STM32H7xx_HAL_Driver/Src/stm32h7xx_hal_flash.c ****     {
 674:HAL_Lib/STM32H7xx_HAL_Driver/Src/stm32h7xx_hal_flash.c ****       /*return the faulty sector*/
 675:HAL_Lib/STM32H7xx_HAL_Driver/Src/stm32h7xx_hal_flash.c ****       temp = pFlash.Sector;
 676:HAL_Lib/STM32H7xx_HAL_Driver/Src/stm32h7xx_hal_flash.c ****       pFlash.Sector = 0xFFFFFFFFU;
 677:HAL_Lib/STM32H7xx_HAL_Driver/Src/stm32h7xx_hal_flash.c ****     }
 678:HAL_Lib/STM32H7xx_HAL_Driver/Src/stm32h7xx_hal_flash.c ****     else if((procedure == FLASH_PROC_MASSERASE_BANK2) || (procedure == FLASH_PROC_ALLBANK_MASSERASE
 679:HAL_Lib/STM32H7xx_HAL_Driver/Src/stm32h7xx_hal_flash.c ****     {
 680:HAL_Lib/STM32H7xx_HAL_Driver/Src/stm32h7xx_hal_flash.c ****       /*return the faulty bank*/
 681:HAL_Lib/STM32H7xx_HAL_Driver/Src/stm32h7xx_hal_flash.c ****       temp = FLASH_BANK_2;
 682:HAL_Lib/STM32H7xx_HAL_Driver/Src/stm32h7xx_hal_flash.c ****     }
 683:HAL_Lib/STM32H7xx_HAL_Driver/Src/stm32h7xx_hal_flash.c ****     else
 684:HAL_Lib/STM32H7xx_HAL_Driver/Src/stm32h7xx_hal_flash.c ****     {
 685:HAL_Lib/STM32H7xx_HAL_Driver/Src/stm32h7xx_hal_flash.c ****       /*return the faulty address*/
 686:HAL_Lib/STM32H7xx_HAL_Driver/Src/stm32h7xx_hal_flash.c ****       temp = pFlash.Address;
 687:HAL_Lib/STM32H7xx_HAL_Driver/Src/stm32h7xx_hal_flash.c ****     }
 688:HAL_Lib/STM32H7xx_HAL_Driver/Src/stm32h7xx_hal_flash.c **** 
 689:HAL_Lib/STM32H7xx_HAL_Driver/Src/stm32h7xx_hal_flash.c ****     /*Stop the procedure ongoing*/
 690:HAL_Lib/STM32H7xx_HAL_Driver/Src/stm32h7xx_hal_flash.c ****     pFlash.ProcedureOnGoing = FLASH_PROC_NONE;
 691:HAL_Lib/STM32H7xx_HAL_Driver/Src/stm32h7xx_hal_flash.c **** 
 692:HAL_Lib/STM32H7xx_HAL_Driver/Src/stm32h7xx_hal_flash.c ****     /* FLASH error interrupt user callback */
 693:HAL_Lib/STM32H7xx_HAL_Driver/Src/stm32h7xx_hal_flash.c ****     HAL_FLASH_OperationErrorCallback(temp);
 694:HAL_Lib/STM32H7xx_HAL_Driver/Src/stm32h7xx_hal_flash.c ****   }
 695:HAL_Lib/STM32H7xx_HAL_Driver/Src/stm32h7xx_hal_flash.c **** #endif /* DUAL_BANK */
 696:HAL_Lib/STM32H7xx_HAL_Driver/Src/stm32h7xx_hal_flash.c **** 
 697:HAL_Lib/STM32H7xx_HAL_Driver/Src/stm32h7xx_hal_flash.c ****   if(pFlash.ProcedureOnGoing == FLASH_PROC_NONE)
 698:HAL_Lib/STM32H7xx_HAL_Driver/Src/stm32h7xx_hal_flash.c ****   {
 699:HAL_Lib/STM32H7xx_HAL_Driver/Src/stm32h7xx_hal_flash.c **** #if defined (FLASH_CR_OPERRIE)
 700:HAL_Lib/STM32H7xx_HAL_Driver/Src/stm32h7xx_hal_flash.c ****     /* Disable Bank1 Operation and Error source interrupt */
 701:HAL_Lib/STM32H7xx_HAL_Driver/Src/stm32h7xx_hal_flash.c ****     __HAL_FLASH_DISABLE_IT_BANK1(FLASH_IT_EOP_BANK1    | FLASH_IT_WRPERR_BANK1 | FLASH_IT_PGSERR_BA
 702:HAL_Lib/STM32H7xx_HAL_Driver/Src/stm32h7xx_hal_flash.c ****                                  FLASH_IT_STRBERR_BANK1 | FLASH_IT_INCERR_BANK1 | FLASH_IT_OPERR_BA
 703:HAL_Lib/STM32H7xx_HAL_Driver/Src/stm32h7xx_hal_flash.c **** 
 704:HAL_Lib/STM32H7xx_HAL_Driver/Src/stm32h7xx_hal_flash.c **** #if defined (DUAL_BANK)
 705:HAL_Lib/STM32H7xx_HAL_Driver/Src/stm32h7xx_hal_flash.c ****     /* Disable Bank2 Operation and Error source interrupt */
 706:HAL_Lib/STM32H7xx_HAL_Driver/Src/stm32h7xx_hal_flash.c ****     __HAL_FLASH_DISABLE_IT_BANK2(FLASH_IT_EOP_BANK2    | FLASH_IT_WRPERR_BANK2 | FLASH_IT_PGSERR_BA
 707:HAL_Lib/STM32H7xx_HAL_Driver/Src/stm32h7xx_hal_flash.c ****                                  FLASH_IT_STRBERR_BANK2 | FLASH_IT_INCERR_BANK2 | FLASH_IT_OPERR_BA
 708:HAL_Lib/STM32H7xx_HAL_Driver/Src/stm32h7xx_hal_flash.c **** #endif /* DUAL_BANK */
 709:HAL_Lib/STM32H7xx_HAL_Driver/Src/stm32h7xx_hal_flash.c **** #else
 710:HAL_Lib/STM32H7xx_HAL_Driver/Src/stm32h7xx_hal_flash.c ****     /* Disable Bank1 Operation and Error source interrupt */
 711:HAL_Lib/STM32H7xx_HAL_Driver/Src/stm32h7xx_hal_flash.c ****     __HAL_FLASH_DISABLE_IT_BANK1(FLASH_IT_EOP_BANK1    | FLASH_IT_WRPERR_BANK1 | FLASH_IT_PGSERR_BA
 712:HAL_Lib/STM32H7xx_HAL_Driver/Src/stm32h7xx_hal_flash.c ****                                  FLASH_IT_STRBERR_BANK1 | FLASH_IT_INCERR_BANK1);
 713:HAL_Lib/STM32H7xx_HAL_Driver/Src/stm32h7xx_hal_flash.c **** 
 714:HAL_Lib/STM32H7xx_HAL_Driver/Src/stm32h7xx_hal_flash.c **** #if defined (DUAL_BANK)
ARM GAS  C:\Users\HUAV\AppData\Local\Temp\ccFxhkJ1.s 			page 14


 715:HAL_Lib/STM32H7xx_HAL_Driver/Src/stm32h7xx_hal_flash.c ****     /* Disable Bank2 Operation and Error source interrupt */
 716:HAL_Lib/STM32H7xx_HAL_Driver/Src/stm32h7xx_hal_flash.c ****     __HAL_FLASH_DISABLE_IT_BANK2(FLASH_IT_EOP_BANK2    | FLASH_IT_WRPERR_BANK2 | FLASH_IT_PGSERR_BA
 717:HAL_Lib/STM32H7xx_HAL_Driver/Src/stm32h7xx_hal_flash.c ****                                  FLASH_IT_STRBERR_BANK2 | FLASH_IT_INCERR_BANK2);
 718:HAL_Lib/STM32H7xx_HAL_Driver/Src/stm32h7xx_hal_flash.c **** #endif /* DUAL_BANK */
 719:HAL_Lib/STM32H7xx_HAL_Driver/Src/stm32h7xx_hal_flash.c **** #endif /* FLASH_CR_OPERRIE */
 720:HAL_Lib/STM32H7xx_HAL_Driver/Src/stm32h7xx_hal_flash.c **** 
 721:HAL_Lib/STM32H7xx_HAL_Driver/Src/stm32h7xx_hal_flash.c ****     /* Process Unlocked */
 722:HAL_Lib/STM32H7xx_HAL_Driver/Src/stm32h7xx_hal_flash.c ****     __HAL_UNLOCK(&pFlash);
 723:HAL_Lib/STM32H7xx_HAL_Driver/Src/stm32h7xx_hal_flash.c ****   }
 724:HAL_Lib/STM32H7xx_HAL_Driver/Src/stm32h7xx_hal_flash.c **** }
 725:HAL_Lib/STM32H7xx_HAL_Driver/Src/stm32h7xx_hal_flash.c **** 
 726:HAL_Lib/STM32H7xx_HAL_Driver/Src/stm32h7xx_hal_flash.c **** /**
 727:HAL_Lib/STM32H7xx_HAL_Driver/Src/stm32h7xx_hal_flash.c ****   * @brief  FLASH end of operation interrupt callback
 728:HAL_Lib/STM32H7xx_HAL_Driver/Src/stm32h7xx_hal_flash.c ****   * @param  ReturnValue The value saved in this parameter depends on the ongoing procedure
 729:HAL_Lib/STM32H7xx_HAL_Driver/Src/stm32h7xx_hal_flash.c ****   *                  Mass Erase: Bank number which has been requested to erase
 730:HAL_Lib/STM32H7xx_HAL_Driver/Src/stm32h7xx_hal_flash.c ****   *                  Sectors Erase: Sector which has been erased
 731:HAL_Lib/STM32H7xx_HAL_Driver/Src/stm32h7xx_hal_flash.c ****   *                    (if 0xFFFFFFFF, it means that all the selected sectors have been erased)
 732:HAL_Lib/STM32H7xx_HAL_Driver/Src/stm32h7xx_hal_flash.c ****   *                  Program: Address which was selected for data program
 733:HAL_Lib/STM32H7xx_HAL_Driver/Src/stm32h7xx_hal_flash.c ****   * @retval None
 734:HAL_Lib/STM32H7xx_HAL_Driver/Src/stm32h7xx_hal_flash.c ****   */
 735:HAL_Lib/STM32H7xx_HAL_Driver/Src/stm32h7xx_hal_flash.c **** __weak void HAL_FLASH_EndOfOperationCallback(uint32_t ReturnValue)
 736:HAL_Lib/STM32H7xx_HAL_Driver/Src/stm32h7xx_hal_flash.c **** {
  29              		.loc 1 736 1 view -0
  30              		.cfi_startproc
  31              		@ args = 0, pretend = 0, frame = 0
  32              		@ frame_needed = 0, uses_anonymous_args = 0
  33              		@ link register save eliminated.
 737:HAL_Lib/STM32H7xx_HAL_Driver/Src/stm32h7xx_hal_flash.c ****   /* Prevent unused argument(s) compilation warning */
 738:HAL_Lib/STM32H7xx_HAL_Driver/Src/stm32h7xx_hal_flash.c ****   UNUSED(ReturnValue);
  34              		.loc 1 738 3 view .LVU1
 739:HAL_Lib/STM32H7xx_HAL_Driver/Src/stm32h7xx_hal_flash.c **** 
 740:HAL_Lib/STM32H7xx_HAL_Driver/Src/stm32h7xx_hal_flash.c ****   /* NOTE : This function Should not be modified, when the callback is needed,
 741:HAL_Lib/STM32H7xx_HAL_Driver/Src/stm32h7xx_hal_flash.c ****             the HAL_FLASH_EndOfOperationCallback could be implemented in the user file
 742:HAL_Lib/STM32H7xx_HAL_Driver/Src/stm32h7xx_hal_flash.c ****    */
 743:HAL_Lib/STM32H7xx_HAL_Driver/Src/stm32h7xx_hal_flash.c **** }
  35              		.loc 1 743 1 is_stmt 0 view .LVU2
  36 0000 7047     		bx	lr
  37              		.cfi_endproc
  38              	.LFE147:
  40              		.section	.text.HAL_FLASH_OperationErrorCallback,"ax",%progbits
  41              		.align	1
  42              		.weak	HAL_FLASH_OperationErrorCallback
  43              		.syntax unified
  44              		.thumb
  45              		.thumb_func
  46              		.fpu fpv5-d16
  48              	HAL_FLASH_OperationErrorCallback:
  49              	.LVL1:
  50              	.LFB148:
 744:HAL_Lib/STM32H7xx_HAL_Driver/Src/stm32h7xx_hal_flash.c **** 
 745:HAL_Lib/STM32H7xx_HAL_Driver/Src/stm32h7xx_hal_flash.c **** /**
 746:HAL_Lib/STM32H7xx_HAL_Driver/Src/stm32h7xx_hal_flash.c ****   * @brief  FLASH operation error interrupt callback
 747:HAL_Lib/STM32H7xx_HAL_Driver/Src/stm32h7xx_hal_flash.c ****   * @param  ReturnValue The value saved in this parameter depends on the ongoing procedure
 748:HAL_Lib/STM32H7xx_HAL_Driver/Src/stm32h7xx_hal_flash.c ****   *                 Mass Erase: Bank number which has been requested to erase
 749:HAL_Lib/STM32H7xx_HAL_Driver/Src/stm32h7xx_hal_flash.c ****   *                 Sectors Erase: Sector number which returned an error
 750:HAL_Lib/STM32H7xx_HAL_Driver/Src/stm32h7xx_hal_flash.c ****   *                 Program: Address which was selected for data program
 751:HAL_Lib/STM32H7xx_HAL_Driver/Src/stm32h7xx_hal_flash.c ****   * @retval None
ARM GAS  C:\Users\HUAV\AppData\Local\Temp\ccFxhkJ1.s 			page 15


 752:HAL_Lib/STM32H7xx_HAL_Driver/Src/stm32h7xx_hal_flash.c ****   */
 753:HAL_Lib/STM32H7xx_HAL_Driver/Src/stm32h7xx_hal_flash.c **** __weak void HAL_FLASH_OperationErrorCallback(uint32_t ReturnValue)
 754:HAL_Lib/STM32H7xx_HAL_Driver/Src/stm32h7xx_hal_flash.c **** {
  51              		.loc 1 754 1 is_stmt 1 view -0
  52              		.cfi_startproc
  53              		@ args = 0, pretend = 0, frame = 0
  54              		@ frame_needed = 0, uses_anonymous_args = 0
  55              		@ link register save eliminated.
 755:HAL_Lib/STM32H7xx_HAL_Driver/Src/stm32h7xx_hal_flash.c ****   /* Prevent unused argument(s) compilation warning */
 756:HAL_Lib/STM32H7xx_HAL_Driver/Src/stm32h7xx_hal_flash.c ****   UNUSED(ReturnValue);
  56              		.loc 1 756 3 view .LVU4
 757:HAL_Lib/STM32H7xx_HAL_Driver/Src/stm32h7xx_hal_flash.c **** 
 758:HAL_Lib/STM32H7xx_HAL_Driver/Src/stm32h7xx_hal_flash.c ****   /* NOTE : This function Should not be modified, when the callback is needed,
 759:HAL_Lib/STM32H7xx_HAL_Driver/Src/stm32h7xx_hal_flash.c ****             the HAL_FLASH_OperationErrorCallback could be implemented in the user file
 760:HAL_Lib/STM32H7xx_HAL_Driver/Src/stm32h7xx_hal_flash.c ****    */
 761:HAL_Lib/STM32H7xx_HAL_Driver/Src/stm32h7xx_hal_flash.c **** }
  57              		.loc 1 761 1 is_stmt 0 view .LVU5
  58 0000 7047     		bx	lr
  59              		.cfi_endproc
  60              	.LFE148:
  62              		.section	.text.HAL_FLASH_IRQHandler,"ax",%progbits
  63              		.align	1
  64              		.global	HAL_FLASH_IRQHandler
  65              		.syntax unified
  66              		.thumb
  67              		.thumb_func
  68              		.fpu fpv5-d16
  70              	HAL_FLASH_IRQHandler:
  71              	.LFB146:
 466:HAL_Lib/STM32H7xx_HAL_Driver/Src/stm32h7xx_hal_flash.c ****   uint32_t temp;
  72              		.loc 1 466 1 is_stmt 1 view -0
  73              		.cfi_startproc
  74              		@ args = 0, pretend = 0, frame = 0
  75              		@ frame_needed = 0, uses_anonymous_args = 0
  76 0000 10B5     		push	{r4, lr}
  77              	.LCFI0:
  78              		.cfi_def_cfa_offset 8
  79              		.cfi_offset 4, -8
  80              		.cfi_offset 14, -4
 467:HAL_Lib/STM32H7xx_HAL_Driver/Src/stm32h7xx_hal_flash.c ****   uint32_t errorflag;
  81              		.loc 1 467 3 view .LVU7
 468:HAL_Lib/STM32H7xx_HAL_Driver/Src/stm32h7xx_hal_flash.c ****   FLASH_ProcedureTypeDef procedure;
  82              		.loc 1 468 3 view .LVU8
 469:HAL_Lib/STM32H7xx_HAL_Driver/Src/stm32h7xx_hal_flash.c **** 
  83              		.loc 1 469 3 view .LVU9
 472:HAL_Lib/STM32H7xx_HAL_Driver/Src/stm32h7xx_hal_flash.c ****   {
  84              		.loc 1 472 3 view .LVU10
 472:HAL_Lib/STM32H7xx_HAL_Driver/Src/stm32h7xx_hal_flash.c ****   {
  85              		.loc 1 472 6 is_stmt 0 view .LVU11
  86 0002 7B4B     		ldr	r3, .L32
  87 0004 1B69     		ldr	r3, [r3, #16]
 472:HAL_Lib/STM32H7xx_HAL_Driver/Src/stm32h7xx_hal_flash.c ****   {
  88              		.loc 1 472 5 view .LVU12
  89 0006 13F4803F 		tst	r3, #65536
  90 000a 18D0     		beq	.L4
 474:HAL_Lib/STM32H7xx_HAL_Driver/Src/stm32h7xx_hal_flash.c ****     {
  91              		.loc 1 474 5 is_stmt 1 view .LVU13
ARM GAS  C:\Users\HUAV\AppData\Local\Temp\ccFxhkJ1.s 			page 16


 474:HAL_Lib/STM32H7xx_HAL_Driver/Src/stm32h7xx_hal_flash.c ****     {
  92              		.loc 1 474 14 is_stmt 0 view .LVU14
  93 000c 794B     		ldr	r3, .L32+4
  94 000e 1B78     		ldrb	r3, [r3]	@ zero_extendqisi2
  95 0010 DBB2     		uxtb	r3, r3
 474:HAL_Lib/STM32H7xx_HAL_Driver/Src/stm32h7xx_hal_flash.c ****     {
  96              		.loc 1 474 7 view .LVU15
  97 0012 012B     		cmp	r3, #1
  98 0014 4AD0     		beq	.L24
 509:HAL_Lib/STM32H7xx_HAL_Driver/Src/stm32h7xx_hal_flash.c **** 
  99              		.loc 1 509 7 is_stmt 1 view .LVU16
 509:HAL_Lib/STM32H7xx_HAL_Driver/Src/stm32h7xx_hal_flash.c **** 
 100              		.loc 1 509 17 is_stmt 0 view .LVU17
 101 0016 774B     		ldr	r3, .L32+4
 102 0018 1C78     		ldrb	r4, [r3]	@ zero_extendqisi2
 103 001a E4B2     		uxtb	r4, r4
 104              	.LVL2:
 511:HAL_Lib/STM32H7xx_HAL_Driver/Src/stm32h7xx_hal_flash.c ****       {
 105              		.loc 1 511 7 is_stmt 1 view .LVU18
 511:HAL_Lib/STM32H7xx_HAL_Driver/Src/stm32h7xx_hal_flash.c ****       {
 106              		.loc 1 511 9 is_stmt 0 view .LVU19
 107 001c 072C     		cmp	r4, #7
 108 001e 18BF     		it	ne
 109 0020 022C     		cmpne	r4, #2
 110 0022 68D0     		beq	.L25
 517:HAL_Lib/STM32H7xx_HAL_Driver/Src/stm32h7xx_hal_flash.c ****       {
 111              		.loc 1 517 12 is_stmt 1 view .LVU20
 517:HAL_Lib/STM32H7xx_HAL_Driver/Src/stm32h7xx_hal_flash.c ****       {
 112              		.loc 1 517 14 is_stmt 0 view .LVU21
 113 0024 032C     		cmp	r4, #3
 114 0026 6AD0     		beq	.L26
 115              	.L8:
 526:HAL_Lib/STM32H7xx_HAL_Driver/Src/stm32h7xx_hal_flash.c **** 
 116              		.loc 1 526 7 is_stmt 1 view .LVU22
 528:HAL_Lib/STM32H7xx_HAL_Driver/Src/stm32h7xx_hal_flash.c ****          (procedure != FLASH_PROC_MASSERASE_BANK2) && \
 117              		.loc 1 528 7 view .LVU23
 529:HAL_Lib/STM32H7xx_HAL_Driver/Src/stm32h7xx_hal_flash.c ****          (procedure != FLASH_PROC_PROGRAM_BANK2))
 118              		.loc 1 529 52 is_stmt 0 view .LVU24
 119 0028 043C     		subs	r4, r4, #4
 120              	.LVL3:
 529:HAL_Lib/STM32H7xx_HAL_Driver/Src/stm32h7xx_hal_flash.c ****          (procedure != FLASH_PROC_PROGRAM_BANK2))
 121              		.loc 1 529 52 view .LVU25
 122 002a E4B2     		uxtb	r4, r4
 123              	.LVL4:
 528:HAL_Lib/STM32H7xx_HAL_Driver/Src/stm32h7xx_hal_flash.c ****          (procedure != FLASH_PROC_MASSERASE_BANK2) && \
 124              		.loc 1 528 9 view .LVU26
 125 002c 022C     		cmp	r4, #2
 126 002e 06D9     		bls	.L4
 532:HAL_Lib/STM32H7xx_HAL_Driver/Src/stm32h7xx_hal_flash.c ****         /* Clear FLASH End of Operation pending bit */
 127              		.loc 1 532 9 is_stmt 1 view .LVU27
 532:HAL_Lib/STM32H7xx_HAL_Driver/Src/stm32h7xx_hal_flash.c ****         /* Clear FLASH End of Operation pending bit */
 128              		.loc 1 532 33 is_stmt 0 view .LVU28
 129 0030 704B     		ldr	r3, .L32+4
 130 0032 0022     		movs	r2, #0
 131 0034 1A70     		strb	r2, [r3]
 534:HAL_Lib/STM32H7xx_HAL_Driver/Src/stm32h7xx_hal_flash.c ****       }
 132              		.loc 1 534 9 is_stmt 1 view .LVU29
ARM GAS  C:\Users\HUAV\AppData\Local\Temp\ccFxhkJ1.s 			page 17


 133 0036 6E4B     		ldr	r3, .L32
 134 0038 4FF48032 		mov	r2, #65536
 135 003c 5A61     		str	r2, [r3, #20]
 136              	.L4:
 541:HAL_Lib/STM32H7xx_HAL_Driver/Src/stm32h7xx_hal_flash.c ****   {
 137              		.loc 1 541 3 view .LVU30
 541:HAL_Lib/STM32H7xx_HAL_Driver/Src/stm32h7xx_hal_flash.c ****   {
 138              		.loc 1 541 6 is_stmt 0 view .LVU31
 139 003e 6C4B     		ldr	r3, .L32
 140 0040 D3F81031 		ldr	r3, [r3, #272]
 541:HAL_Lib/STM32H7xx_HAL_Driver/Src/stm32h7xx_hal_flash.c ****   {
 141              		.loc 1 541 5 view .LVU32
 142 0044 13F4803F 		tst	r3, #65536
 143 0048 19D0     		beq	.L9
 543:HAL_Lib/STM32H7xx_HAL_Driver/Src/stm32h7xx_hal_flash.c ****     {
 144              		.loc 1 543 5 is_stmt 1 view .LVU33
 543:HAL_Lib/STM32H7xx_HAL_Driver/Src/stm32h7xx_hal_flash.c ****     {
 145              		.loc 1 543 14 is_stmt 0 view .LVU34
 146 004a 6A4B     		ldr	r3, .L32+4
 147 004c 1B78     		ldrb	r3, [r3]	@ zero_extendqisi2
 148 004e DBB2     		uxtb	r3, r3
 543:HAL_Lib/STM32H7xx_HAL_Driver/Src/stm32h7xx_hal_flash.c ****     {
 149              		.loc 1 543 7 view .LVU35
 150 0050 042B     		cmp	r3, #4
 151 0052 59D0     		beq	.L27
 578:HAL_Lib/STM32H7xx_HAL_Driver/Src/stm32h7xx_hal_flash.c **** 
 152              		.loc 1 578 7 is_stmt 1 view .LVU36
 578:HAL_Lib/STM32H7xx_HAL_Driver/Src/stm32h7xx_hal_flash.c **** 
 153              		.loc 1 578 17 is_stmt 0 view .LVU37
 154 0054 674B     		ldr	r3, .L32+4
 155 0056 1C78     		ldrb	r4, [r3]	@ zero_extendqisi2
 156 0058 E4B2     		uxtb	r4, r4
 157              	.LVL5:
 580:HAL_Lib/STM32H7xx_HAL_Driver/Src/stm32h7xx_hal_flash.c ****       {
 158              		.loc 1 580 7 is_stmt 1 view .LVU38
 580:HAL_Lib/STM32H7xx_HAL_Driver/Src/stm32h7xx_hal_flash.c ****       {
 159              		.loc 1 580 9 is_stmt 0 view .LVU39
 160 005a 072C     		cmp	r4, #7
 161 005c 18BF     		it	ne
 162 005e 052C     		cmpne	r4, #5
 163 0060 79D0     		beq	.L28
 586:HAL_Lib/STM32H7xx_HAL_Driver/Src/stm32h7xx_hal_flash.c ****       {
 164              		.loc 1 586 12 is_stmt 1 view .LVU40
 586:HAL_Lib/STM32H7xx_HAL_Driver/Src/stm32h7xx_hal_flash.c ****       {
 165              		.loc 1 586 14 is_stmt 0 view .LVU41
 166 0062 062C     		cmp	r4, #6
 167 0064 7BD0     		beq	.L29
 168              	.L13:
 595:HAL_Lib/STM32H7xx_HAL_Driver/Src/stm32h7xx_hal_flash.c **** 
 169              		.loc 1 595 7 is_stmt 1 view .LVU42
 597:HAL_Lib/STM32H7xx_HAL_Driver/Src/stm32h7xx_hal_flash.c ****          (procedure != FLASH_PROC_MASSERASE_BANK1) && \
 170              		.loc 1 597 7 view .LVU43
 598:HAL_Lib/STM32H7xx_HAL_Driver/Src/stm32h7xx_hal_flash.c ****          (procedure != FLASH_PROC_PROGRAM_BANK1))
 171              		.loc 1 598 52 is_stmt 0 view .LVU44
 172 0066 013C     		subs	r4, r4, #1
 173              	.LVL6:
 598:HAL_Lib/STM32H7xx_HAL_Driver/Src/stm32h7xx_hal_flash.c ****          (procedure != FLASH_PROC_PROGRAM_BANK1))
ARM GAS  C:\Users\HUAV\AppData\Local\Temp\ccFxhkJ1.s 			page 18


 174              		.loc 1 598 52 view .LVU45
 175 0068 E4B2     		uxtb	r4, r4
 176              	.LVL7:
 597:HAL_Lib/STM32H7xx_HAL_Driver/Src/stm32h7xx_hal_flash.c ****          (procedure != FLASH_PROC_MASSERASE_BANK1) && \
 177              		.loc 1 597 9 view .LVU46
 178 006a 022C     		cmp	r4, #2
 179 006c 07D9     		bls	.L9
 601:HAL_Lib/STM32H7xx_HAL_Driver/Src/stm32h7xx_hal_flash.c ****         /* Clear FLASH End of Operation pending bit */
 180              		.loc 1 601 9 is_stmt 1 view .LVU47
 601:HAL_Lib/STM32H7xx_HAL_Driver/Src/stm32h7xx_hal_flash.c ****         /* Clear FLASH End of Operation pending bit */
 181              		.loc 1 601 33 is_stmt 0 view .LVU48
 182 006e 614B     		ldr	r3, .L32+4
 183 0070 0022     		movs	r2, #0
 184 0072 1A70     		strb	r2, [r3]
 603:HAL_Lib/STM32H7xx_HAL_Driver/Src/stm32h7xx_hal_flash.c ****       }
 185              		.loc 1 603 9 is_stmt 1 view .LVU49
 186 0074 5E4B     		ldr	r3, .L32
 187 0076 4FF48032 		mov	r2, #65536
 188 007a C3F81421 		str	r2, [r3, #276]
 189              	.L9:
 611:HAL_Lib/STM32H7xx_HAL_Driver/Src/stm32h7xx_hal_flash.c ****                             FLASH_FLAG_INCERR_BANK1 | FLASH_FLAG_OPERR_BANK1);
 190              		.loc 1 611 3 view .LVU50
 611:HAL_Lib/STM32H7xx_HAL_Driver/Src/stm32h7xx_hal_flash.c ****                             FLASH_FLAG_INCERR_BANK1 | FLASH_FLAG_OPERR_BANK1);
 191              		.loc 1 611 20 is_stmt 0 view .LVU51
 192 007e 5C4B     		ldr	r3, .L32
 193 0080 1B69     		ldr	r3, [r3, #16]
 194              	.LVL8:
 618:HAL_Lib/STM32H7xx_HAL_Driver/Src/stm32h7xx_hal_flash.c ****   {
 195              		.loc 1 618 3 is_stmt 1 view .LVU52
 618:HAL_Lib/STM32H7xx_HAL_Driver/Src/stm32h7xx_hal_flash.c ****   {
 196              		.loc 1 618 5 is_stmt 0 view .LVU53
 197 0082 13F4DC03 		ands	r3, r3, #7208960
 198              	.LVL9:
 618:HAL_Lib/STM32H7xx_HAL_Driver/Src/stm32h7xx_hal_flash.c ****   {
 199              		.loc 1 618 5 view .LVU54
 200 0086 79D0     		beq	.L14
 621:HAL_Lib/STM32H7xx_HAL_Driver/Src/stm32h7xx_hal_flash.c **** 
 201              		.loc 1 621 5 is_stmt 1 view .LVU55
 621:HAL_Lib/STM32H7xx_HAL_Driver/Src/stm32h7xx_hal_flash.c **** 
 202              		.loc 1 621 22 is_stmt 0 view .LVU56
 203 0088 5A4A     		ldr	r2, .L32+4
 204 008a 9169     		ldr	r1, [r2, #24]
 205 008c 1943     		orrs	r1, r1, r3
 206 008e 9161     		str	r1, [r2, #24]
 624:HAL_Lib/STM32H7xx_HAL_Driver/Src/stm32h7xx_hal_flash.c **** 
 207              		.loc 1 624 5 is_stmt 1 view .LVU57
 208 0090 5749     		ldr	r1, .L32
 209 0092 4B61     		str	r3, [r1, #20]
 626:HAL_Lib/STM32H7xx_HAL_Driver/Src/stm32h7xx_hal_flash.c **** 
 210              		.loc 1 626 5 view .LVU58
 626:HAL_Lib/STM32H7xx_HAL_Driver/Src/stm32h7xx_hal_flash.c **** 
 211              		.loc 1 626 15 is_stmt 0 view .LVU59
 212 0094 1378     		ldrb	r3, [r2]	@ zero_extendqisi2
 213              	.LVL10:
 626:HAL_Lib/STM32H7xx_HAL_Driver/Src/stm32h7xx_hal_flash.c **** 
 214              		.loc 1 626 15 view .LVU60
 215 0096 DBB2     		uxtb	r3, r3
ARM GAS  C:\Users\HUAV\AppData\Local\Temp\ccFxhkJ1.s 			page 19


 216              	.LVL11:
 628:HAL_Lib/STM32H7xx_HAL_Driver/Src/stm32h7xx_hal_flash.c ****     {
 217              		.loc 1 628 5 is_stmt 1 view .LVU61
 628:HAL_Lib/STM32H7xx_HAL_Driver/Src/stm32h7xx_hal_flash.c ****     {
 218              		.loc 1 628 7 is_stmt 0 view .LVU62
 219 0098 012B     		cmp	r3, #1
 220 009a 65D0     		beq	.L30
 634:HAL_Lib/STM32H7xx_HAL_Driver/Src/stm32h7xx_hal_flash.c ****     {
 221              		.loc 1 634 10 is_stmt 1 view .LVU63
 634:HAL_Lib/STM32H7xx_HAL_Driver/Src/stm32h7xx_hal_flash.c ****     {
 222              		.loc 1 634 12 is_stmt 0 view .LVU64
 223 009c 072B     		cmp	r3, #7
 224 009e 18BF     		it	ne
 225 00a0 022B     		cmpne	r3, #2
 226 00a2 00F08580 		beq	.L21
 642:HAL_Lib/STM32H7xx_HAL_Driver/Src/stm32h7xx_hal_flash.c ****     }
 227              		.loc 1 642 7 is_stmt 1 view .LVU65
 642:HAL_Lib/STM32H7xx_HAL_Driver/Src/stm32h7xx_hal_flash.c ****     }
 228              		.loc 1 642 12 is_stmt 0 view .LVU66
 229 00a6 534B     		ldr	r3, .L32+4
 230              	.LVL12:
 642:HAL_Lib/STM32H7xx_HAL_Driver/Src/stm32h7xx_hal_flash.c ****     }
 231              		.loc 1 642 12 view .LVU67
 232 00a8 1869     		ldr	r0, [r3, #16]
 233              	.LVL13:
 642:HAL_Lib/STM32H7xx_HAL_Driver/Src/stm32h7xx_hal_flash.c ****     }
 234              		.loc 1 642 12 view .LVU68
 235 00aa 62E0     		b	.L16
 236              	.LVL14:
 237              	.L24:
 477:HAL_Lib/STM32H7xx_HAL_Driver/Src/stm32h7xx_hal_flash.c **** 
 238              		.loc 1 477 7 is_stmt 1 view .LVU69
 477:HAL_Lib/STM32H7xx_HAL_Driver/Src/stm32h7xx_hal_flash.c **** 
 239              		.loc 1 477 13 is_stmt 0 view .LVU70
 240 00ac 514B     		ldr	r3, .L32+4
 241 00ae 5A68     		ldr	r2, [r3, #4]
 477:HAL_Lib/STM32H7xx_HAL_Driver/Src/stm32h7xx_hal_flash.c **** 
 242              		.loc 1 477 30 view .LVU71
 243 00b0 013A     		subs	r2, r2, #1
 244 00b2 5A60     		str	r2, [r3, #4]
 480:HAL_Lib/STM32H7xx_HAL_Driver/Src/stm32h7xx_hal_flash.c ****       {
 245              		.loc 1 480 7 is_stmt 1 view .LVU72
 480:HAL_Lib/STM32H7xx_HAL_Driver/Src/stm32h7xx_hal_flash.c ****       {
 246              		.loc 1 480 16 is_stmt 0 view .LVU73
 247 00b4 5B68     		ldr	r3, [r3, #4]
 480:HAL_Lib/STM32H7xx_HAL_Driver/Src/stm32h7xx_hal_flash.c ****       {
 248              		.loc 1 480 9 view .LVU74
 249 00b6 83B1     		cbz	r3, .L6
 483:HAL_Lib/STM32H7xx_HAL_Driver/Src/stm32h7xx_hal_flash.c **** 
 250              		.loc 1 483 9 is_stmt 1 view .LVU75
 251 00b8 4E4C     		ldr	r4, .L32+4
 252 00ba E068     		ldr	r0, [r4, #12]
 253 00bc FFF7FEFF 		bl	HAL_FLASH_EndOfOperationCallback
 254              	.LVL15:
 486:HAL_Lib/STM32H7xx_HAL_Driver/Src/stm32h7xx_hal_flash.c **** 
 255              		.loc 1 486 9 view .LVU76
 256 00c0 4B4B     		ldr	r3, .L32
ARM GAS  C:\Users\HUAV\AppData\Local\Temp\ccFxhkJ1.s 			page 20


 257 00c2 4FF48032 		mov	r2, #65536
 258 00c6 5A61     		str	r2, [r3, #20]
 489:HAL_Lib/STM32H7xx_HAL_Driver/Src/stm32h7xx_hal_flash.c ****         temp = pFlash.Sector;
 259              		.loc 1 489 9 view .LVU77
 489:HAL_Lib/STM32H7xx_HAL_Driver/Src/stm32h7xx_hal_flash.c ****         temp = pFlash.Sector;
 260              		.loc 1 489 15 is_stmt 0 view .LVU78
 261 00c8 E368     		ldr	r3, [r4, #12]
 489:HAL_Lib/STM32H7xx_HAL_Driver/Src/stm32h7xx_hal_flash.c ****         temp = pFlash.Sector;
 262              		.loc 1 489 22 view .LVU79
 263 00ca 0133     		adds	r3, r3, #1
 264 00cc E360     		str	r3, [r4, #12]
 490:HAL_Lib/STM32H7xx_HAL_Driver/Src/stm32h7xx_hal_flash.c ****         FLASH_Erase_Sector(temp, FLASH_BANK_1, pFlash.VoltageForErase);
 265              		.loc 1 490 9 is_stmt 1 view .LVU80
 490:HAL_Lib/STM32H7xx_HAL_Driver/Src/stm32h7xx_hal_flash.c ****         FLASH_Erase_Sector(temp, FLASH_BANK_1, pFlash.VoltageForErase);
 266              		.loc 1 490 14 is_stmt 0 view .LVU81
 267 00ce E068     		ldr	r0, [r4, #12]
 268              	.LVL16:
 491:HAL_Lib/STM32H7xx_HAL_Driver/Src/stm32h7xx_hal_flash.c ****       }
 269              		.loc 1 491 9 is_stmt 1 view .LVU82
 270 00d0 A268     		ldr	r2, [r4, #8]
 271 00d2 0121     		movs	r1, #1
 272 00d4 FFF7FEFF 		bl	FLASH_Erase_Sector
 273              	.LVL17:
 491:HAL_Lib/STM32H7xx_HAL_Driver/Src/stm32h7xx_hal_flash.c ****       }
 274              		.loc 1 491 9 is_stmt 0 view .LVU83
 275 00d8 B1E7     		b	.L4
 276              	.L6:
 497:HAL_Lib/STM32H7xx_HAL_Driver/Src/stm32h7xx_hal_flash.c ****         pFlash.ProcedureOnGoing = FLASH_PROC_NONE;
 277              		.loc 1 497 9 is_stmt 1 view .LVU84
 497:HAL_Lib/STM32H7xx_HAL_Driver/Src/stm32h7xx_hal_flash.c ****         pFlash.ProcedureOnGoing = FLASH_PROC_NONE;
 278              		.loc 1 497 23 is_stmt 0 view .LVU85
 279 00da 464B     		ldr	r3, .L32+4
 280 00dc 4FF0FF32 		mov	r2, #-1
 281 00e0 DA60     		str	r2, [r3, #12]
 498:HAL_Lib/STM32H7xx_HAL_Driver/Src/stm32h7xx_hal_flash.c **** 
 282              		.loc 1 498 9 is_stmt 1 view .LVU86
 498:HAL_Lib/STM32H7xx_HAL_Driver/Src/stm32h7xx_hal_flash.c **** 
 283              		.loc 1 498 33 is_stmt 0 view .LVU87
 284 00e2 0022     		movs	r2, #0
 285 00e4 1A70     		strb	r2, [r3]
 501:HAL_Lib/STM32H7xx_HAL_Driver/Src/stm32h7xx_hal_flash.c **** 
 286              		.loc 1 501 9 is_stmt 1 view .LVU88
 287 00e6 D868     		ldr	r0, [r3, #12]
 288 00e8 FFF7FEFF 		bl	HAL_FLASH_EndOfOperationCallback
 289              	.LVL18:
 504:HAL_Lib/STM32H7xx_HAL_Driver/Src/stm32h7xx_hal_flash.c ****       }
 290              		.loc 1 504 9 view .LVU89
 291 00ec 404B     		ldr	r3, .L32
 292 00ee 4FF48032 		mov	r2, #65536
 293 00f2 5A61     		str	r2, [r3, #20]
 294 00f4 A3E7     		b	.L4
 295              	.LVL19:
 296              	.L25:
 515:HAL_Lib/STM32H7xx_HAL_Driver/Src/stm32h7xx_hal_flash.c ****       }
 297              		.loc 1 515 9 view .LVU90
 298 00f6 0120     		movs	r0, #1
 299 00f8 FFF7FEFF 		bl	HAL_FLASH_EndOfOperationCallback
ARM GAS  C:\Users\HUAV\AppData\Local\Temp\ccFxhkJ1.s 			page 21


 300              	.LVL20:
 301 00fc 94E7     		b	.L8
 302              	.L26:
 521:HAL_Lib/STM32H7xx_HAL_Driver/Src/stm32h7xx_hal_flash.c ****       }
 303              		.loc 1 521 9 view .LVU91
 304 00fe 3D4B     		ldr	r3, .L32+4
 305 0100 1869     		ldr	r0, [r3, #16]
 306 0102 FFF7FEFF 		bl	HAL_FLASH_EndOfOperationCallback
 307              	.LVL21:
 308 0106 8FE7     		b	.L8
 309              	.LVL22:
 310              	.L27:
 546:HAL_Lib/STM32H7xx_HAL_Driver/Src/stm32h7xx_hal_flash.c **** 
 311              		.loc 1 546 7 view .LVU92
 546:HAL_Lib/STM32H7xx_HAL_Driver/Src/stm32h7xx_hal_flash.c **** 
 312              		.loc 1 546 13 is_stmt 0 view .LVU93
 313 0108 3A4B     		ldr	r3, .L32+4
 314 010a 5A68     		ldr	r2, [r3, #4]
 546:HAL_Lib/STM32H7xx_HAL_Driver/Src/stm32h7xx_hal_flash.c **** 
 315              		.loc 1 546 30 view .LVU94
 316 010c 013A     		subs	r2, r2, #1
 317 010e 5A60     		str	r2, [r3, #4]
 549:HAL_Lib/STM32H7xx_HAL_Driver/Src/stm32h7xx_hal_flash.c ****       {
 318              		.loc 1 549 7 is_stmt 1 view .LVU95
 549:HAL_Lib/STM32H7xx_HAL_Driver/Src/stm32h7xx_hal_flash.c ****       {
 319              		.loc 1 549 16 is_stmt 0 view .LVU96
 320 0110 5B68     		ldr	r3, [r3, #4]
 549:HAL_Lib/STM32H7xx_HAL_Driver/Src/stm32h7xx_hal_flash.c ****       {
 321              		.loc 1 549 9 view .LVU97
 322 0112 8BB1     		cbz	r3, .L11
 552:HAL_Lib/STM32H7xx_HAL_Driver/Src/stm32h7xx_hal_flash.c **** 
 323              		.loc 1 552 9 is_stmt 1 view .LVU98
 324 0114 374C     		ldr	r4, .L32+4
 325 0116 E068     		ldr	r0, [r4, #12]
 326 0118 FFF7FEFF 		bl	HAL_FLASH_EndOfOperationCallback
 327              	.LVL23:
 555:HAL_Lib/STM32H7xx_HAL_Driver/Src/stm32h7xx_hal_flash.c **** 
 328              		.loc 1 555 9 view .LVU99
 329 011c 344B     		ldr	r3, .L32
 330 011e 4FF48032 		mov	r2, #65536
 331 0122 C3F81421 		str	r2, [r3, #276]
 558:HAL_Lib/STM32H7xx_HAL_Driver/Src/stm32h7xx_hal_flash.c ****         temp = pFlash.Sector;
 332              		.loc 1 558 9 view .LVU100
 558:HAL_Lib/STM32H7xx_HAL_Driver/Src/stm32h7xx_hal_flash.c ****         temp = pFlash.Sector;
 333              		.loc 1 558 15 is_stmt 0 view .LVU101
 334 0126 E368     		ldr	r3, [r4, #12]
 558:HAL_Lib/STM32H7xx_HAL_Driver/Src/stm32h7xx_hal_flash.c ****         temp = pFlash.Sector;
 335              		.loc 1 558 22 view .LVU102
 336 0128 0133     		adds	r3, r3, #1
 337 012a E360     		str	r3, [r4, #12]
 559:HAL_Lib/STM32H7xx_HAL_Driver/Src/stm32h7xx_hal_flash.c ****         FLASH_Erase_Sector(temp, FLASH_BANK_2, pFlash.VoltageForErase);
 338              		.loc 1 559 9 is_stmt 1 view .LVU103
 559:HAL_Lib/STM32H7xx_HAL_Driver/Src/stm32h7xx_hal_flash.c ****         FLASH_Erase_Sector(temp, FLASH_BANK_2, pFlash.VoltageForErase);
 339              		.loc 1 559 14 is_stmt 0 view .LVU104
 340 012c E068     		ldr	r0, [r4, #12]
 341              	.LVL24:
 560:HAL_Lib/STM32H7xx_HAL_Driver/Src/stm32h7xx_hal_flash.c ****       }
ARM GAS  C:\Users\HUAV\AppData\Local\Temp\ccFxhkJ1.s 			page 22


 342              		.loc 1 560 9 is_stmt 1 view .LVU105
 343 012e A268     		ldr	r2, [r4, #8]
 344 0130 0221     		movs	r1, #2
 345 0132 FFF7FEFF 		bl	FLASH_Erase_Sector
 346              	.LVL25:
 560:HAL_Lib/STM32H7xx_HAL_Driver/Src/stm32h7xx_hal_flash.c ****       }
 347              		.loc 1 560 9 is_stmt 0 view .LVU106
 348 0136 A2E7     		b	.L9
 349              	.L11:
 566:HAL_Lib/STM32H7xx_HAL_Driver/Src/stm32h7xx_hal_flash.c ****         pFlash.ProcedureOnGoing = FLASH_PROC_NONE;
 350              		.loc 1 566 9 is_stmt 1 view .LVU107
 566:HAL_Lib/STM32H7xx_HAL_Driver/Src/stm32h7xx_hal_flash.c ****         pFlash.ProcedureOnGoing = FLASH_PROC_NONE;
 351              		.loc 1 566 23 is_stmt 0 view .LVU108
 352 0138 2E4B     		ldr	r3, .L32+4
 353 013a 4FF0FF32 		mov	r2, #-1
 354 013e DA60     		str	r2, [r3, #12]
 567:HAL_Lib/STM32H7xx_HAL_Driver/Src/stm32h7xx_hal_flash.c **** 
 355              		.loc 1 567 9 is_stmt 1 view .LVU109
 567:HAL_Lib/STM32H7xx_HAL_Driver/Src/stm32h7xx_hal_flash.c **** 
 356              		.loc 1 567 33 is_stmt 0 view .LVU110
 357 0140 0022     		movs	r2, #0
 358 0142 1A70     		strb	r2, [r3]
 570:HAL_Lib/STM32H7xx_HAL_Driver/Src/stm32h7xx_hal_flash.c **** 
 359              		.loc 1 570 9 is_stmt 1 view .LVU111
 360 0144 D868     		ldr	r0, [r3, #12]
 361 0146 FFF7FEFF 		bl	HAL_FLASH_EndOfOperationCallback
 362              	.LVL26:
 573:HAL_Lib/STM32H7xx_HAL_Driver/Src/stm32h7xx_hal_flash.c ****       }
 363              		.loc 1 573 9 view .LVU112
 364 014a 294B     		ldr	r3, .L32
 365 014c 4FF48032 		mov	r2, #65536
 366 0150 C3F81421 		str	r2, [r3, #276]
 367 0154 93E7     		b	.L9
 368              	.LVL27:
 369              	.L28:
 584:HAL_Lib/STM32H7xx_HAL_Driver/Src/stm32h7xx_hal_flash.c ****       }
 370              		.loc 1 584 9 view .LVU113
 371 0156 0220     		movs	r0, #2
 372 0158 FFF7FEFF 		bl	HAL_FLASH_EndOfOperationCallback
 373              	.LVL28:
 374 015c 83E7     		b	.L13
 375              	.L29:
 590:HAL_Lib/STM32H7xx_HAL_Driver/Src/stm32h7xx_hal_flash.c ****       }
 376              		.loc 1 590 9 view .LVU114
 377 015e 254B     		ldr	r3, .L32+4
 378 0160 1869     		ldr	r0, [r3, #16]
 379 0162 FFF7FEFF 		bl	HAL_FLASH_EndOfOperationCallback
 380              	.LVL29:
 381 0166 7EE7     		b	.L13
 382              	.LVL30:
 383              	.L30:
 631:HAL_Lib/STM32H7xx_HAL_Driver/Src/stm32h7xx_hal_flash.c ****       pFlash.Sector = 0xFFFFFFFFU;
 384              		.loc 1 631 7 view .LVU115
 631:HAL_Lib/STM32H7xx_HAL_Driver/Src/stm32h7xx_hal_flash.c ****       pFlash.Sector = 0xFFFFFFFFU;
 385              		.loc 1 631 12 is_stmt 0 view .LVU116
 386 0168 1346     		mov	r3, r2
 387              	.LVL31:
ARM GAS  C:\Users\HUAV\AppData\Local\Temp\ccFxhkJ1.s 			page 23


 631:HAL_Lib/STM32H7xx_HAL_Driver/Src/stm32h7xx_hal_flash.c ****       pFlash.Sector = 0xFFFFFFFFU;
 388              		.loc 1 631 12 view .LVU117
 389 016a D068     		ldr	r0, [r2, #12]
 390              	.LVL32:
 632:HAL_Lib/STM32H7xx_HAL_Driver/Src/stm32h7xx_hal_flash.c ****     }
 391              		.loc 1 632 7 is_stmt 1 view .LVU118
 632:HAL_Lib/STM32H7xx_HAL_Driver/Src/stm32h7xx_hal_flash.c ****     }
 392              		.loc 1 632 21 is_stmt 0 view .LVU119
 393 016c 4FF0FF32 		mov	r2, #-1
 632:HAL_Lib/STM32H7xx_HAL_Driver/Src/stm32h7xx_hal_flash.c ****     }
 394              		.loc 1 632 21 view .LVU120
 395 0170 DA60     		str	r2, [r3, #12]
 396              	.LVL33:
 397              	.L16:
 646:HAL_Lib/STM32H7xx_HAL_Driver/Src/stm32h7xx_hal_flash.c **** 
 398              		.loc 1 646 5 is_stmt 1 view .LVU121
 646:HAL_Lib/STM32H7xx_HAL_Driver/Src/stm32h7xx_hal_flash.c **** 
 399              		.loc 1 646 29 is_stmt 0 view .LVU122
 400 0172 204B     		ldr	r3, .L32+4
 646:HAL_Lib/STM32H7xx_HAL_Driver/Src/stm32h7xx_hal_flash.c **** 
 401              		.loc 1 646 29 view .LVU123
 402 0174 0022     		movs	r2, #0
 403 0176 1A70     		strb	r2, [r3]
 404              	.LVL34:
 649:HAL_Lib/STM32H7xx_HAL_Driver/Src/stm32h7xx_hal_flash.c ****   }
 405              		.loc 1 649 5 is_stmt 1 view .LVU124
 406 0178 FFF7FEFF 		bl	HAL_FLASH_OperationErrorCallback
 407              	.LVL35:
 408              	.L14:
 655:HAL_Lib/STM32H7xx_HAL_Driver/Src/stm32h7xx_hal_flash.c ****                              FLASH_FLAG_INCERR_BANK2 | FLASH_FLAG_OPERR_BANK2) & 0x7FFFFFFFU);
 409              		.loc 1 655 3 view .LVU125
 655:HAL_Lib/STM32H7xx_HAL_Driver/Src/stm32h7xx_hal_flash.c ****                              FLASH_FLAG_INCERR_BANK2 | FLASH_FLAG_OPERR_BANK2) & 0x7FFFFFFFU);
 410              		.loc 1 655 20 is_stmt 0 view .LVU126
 411 017c 1C4B     		ldr	r3, .L32
 412 017e D3F81031 		ldr	r3, [r3, #272]
 413              	.LVL36:
 662:HAL_Lib/STM32H7xx_HAL_Driver/Src/stm32h7xx_hal_flash.c ****   {
 414              		.loc 1 662 3 is_stmt 1 view .LVU127
 662:HAL_Lib/STM32H7xx_HAL_Driver/Src/stm32h7xx_hal_flash.c ****   {
 415              		.loc 1 662 5 is_stmt 0 view .LVU128
 416 0182 13F4DC03 		ands	r3, r3, #7208960
 417              	.LVL37:
 662:HAL_Lib/STM32H7xx_HAL_Driver/Src/stm32h7xx_hal_flash.c ****   {
 418              		.loc 1 662 5 view .LVU129
 419 0186 1ED0     		beq	.L17
 665:HAL_Lib/STM32H7xx_HAL_Driver/Src/stm32h7xx_hal_flash.c **** 
 420              		.loc 1 665 5 is_stmt 1 view .LVU130
 665:HAL_Lib/STM32H7xx_HAL_Driver/Src/stm32h7xx_hal_flash.c **** 
 421              		.loc 1 665 22 is_stmt 0 view .LVU131
 422 0188 1A49     		ldr	r1, .L32+4
 423 018a 8A69     		ldr	r2, [r1, #24]
 424 018c 1A43     		orrs	r2, r2, r3
 425 018e 42F00042 		orr	r2, r2, #-2147483648
 426 0192 8A61     		str	r2, [r1, #24]
 668:HAL_Lib/STM32H7xx_HAL_Driver/Src/stm32h7xx_hal_flash.c **** 
 427              		.loc 1 668 5 is_stmt 1 view .LVU132
 428 0194 164A     		ldr	r2, .L32
ARM GAS  C:\Users\HUAV\AppData\Local\Temp\ccFxhkJ1.s 			page 24


 429 0196 C2F81431 		str	r3, [r2, #276]
 670:HAL_Lib/STM32H7xx_HAL_Driver/Src/stm32h7xx_hal_flash.c **** 
 430              		.loc 1 670 5 view .LVU133
 670:HAL_Lib/STM32H7xx_HAL_Driver/Src/stm32h7xx_hal_flash.c **** 
 431              		.loc 1 670 15 is_stmt 0 view .LVU134
 432 019a 0B78     		ldrb	r3, [r1]	@ zero_extendqisi2
 433              	.LVL38:
 670:HAL_Lib/STM32H7xx_HAL_Driver/Src/stm32h7xx_hal_flash.c **** 
 434              		.loc 1 670 15 view .LVU135
 435 019c DBB2     		uxtb	r3, r3
 436              	.LVL39:
 672:HAL_Lib/STM32H7xx_HAL_Driver/Src/stm32h7xx_hal_flash.c ****     {
 437              		.loc 1 672 5 is_stmt 1 view .LVU136
 672:HAL_Lib/STM32H7xx_HAL_Driver/Src/stm32h7xx_hal_flash.c ****     {
 438              		.loc 1 672 7 is_stmt 0 view .LVU137
 439 019e 042B     		cmp	r3, #4
 440 01a0 08D0     		beq	.L31
 678:HAL_Lib/STM32H7xx_HAL_Driver/Src/stm32h7xx_hal_flash.c ****     {
 441              		.loc 1 678 10 is_stmt 1 view .LVU138
 678:HAL_Lib/STM32H7xx_HAL_Driver/Src/stm32h7xx_hal_flash.c ****     {
 442              		.loc 1 678 12 is_stmt 0 view .LVU139
 443 01a2 072B     		cmp	r3, #7
 444 01a4 18BF     		it	ne
 445 01a6 052B     		cmpne	r3, #5
 446 01a8 1FD0     		beq	.L22
 686:HAL_Lib/STM32H7xx_HAL_Driver/Src/stm32h7xx_hal_flash.c ****     }
 447              		.loc 1 686 7 is_stmt 1 view .LVU140
 686:HAL_Lib/STM32H7xx_HAL_Driver/Src/stm32h7xx_hal_flash.c ****     }
 448              		.loc 1 686 12 is_stmt 0 view .LVU141
 449 01aa 124B     		ldr	r3, .L32+4
 450              	.LVL40:
 686:HAL_Lib/STM32H7xx_HAL_Driver/Src/stm32h7xx_hal_flash.c ****     }
 451              		.loc 1 686 12 view .LVU142
 452 01ac 1869     		ldr	r0, [r3, #16]
 453              	.LVL41:
 686:HAL_Lib/STM32H7xx_HAL_Driver/Src/stm32h7xx_hal_flash.c ****     }
 454              		.loc 1 686 12 view .LVU143
 455 01ae 05E0     		b	.L19
 456              	.LVL42:
 457              	.L21:
 637:HAL_Lib/STM32H7xx_HAL_Driver/Src/stm32h7xx_hal_flash.c ****     }
 458              		.loc 1 637 12 view .LVU144
 459 01b0 0120     		movs	r0, #1
 460 01b2 DEE7     		b	.L16
 461              	.LVL43:
 462              	.L31:
 675:HAL_Lib/STM32H7xx_HAL_Driver/Src/stm32h7xx_hal_flash.c ****       pFlash.Sector = 0xFFFFFFFFU;
 463              		.loc 1 675 7 is_stmt 1 view .LVU145
 675:HAL_Lib/STM32H7xx_HAL_Driver/Src/stm32h7xx_hal_flash.c ****       pFlash.Sector = 0xFFFFFFFFU;
 464              		.loc 1 675 12 is_stmt 0 view .LVU146
 465 01b4 C868     		ldr	r0, [r1, #12]
 466              	.LVL44:
 676:HAL_Lib/STM32H7xx_HAL_Driver/Src/stm32h7xx_hal_flash.c ****     }
 467              		.loc 1 676 7 is_stmt 1 view .LVU147
 676:HAL_Lib/STM32H7xx_HAL_Driver/Src/stm32h7xx_hal_flash.c ****     }
 468              		.loc 1 676 21 is_stmt 0 view .LVU148
 469 01b6 4FF0FF32 		mov	r2, #-1
ARM GAS  C:\Users\HUAV\AppData\Local\Temp\ccFxhkJ1.s 			page 25


 470              	.LVL45:
 676:HAL_Lib/STM32H7xx_HAL_Driver/Src/stm32h7xx_hal_flash.c ****     }
 471              		.loc 1 676 21 view .LVU149
 472 01ba CA60     		str	r2, [r1, #12]
 473              	.LVL46:
 474              	.L19:
 690:HAL_Lib/STM32H7xx_HAL_Driver/Src/stm32h7xx_hal_flash.c **** 
 475              		.loc 1 690 5 is_stmt 1 view .LVU150
 690:HAL_Lib/STM32H7xx_HAL_Driver/Src/stm32h7xx_hal_flash.c **** 
 476              		.loc 1 690 29 is_stmt 0 view .LVU151
 477 01bc 0D4B     		ldr	r3, .L32+4
 478 01be 0022     		movs	r2, #0
 479 01c0 1A70     		strb	r2, [r3]
 480              	.LVL47:
 693:HAL_Lib/STM32H7xx_HAL_Driver/Src/stm32h7xx_hal_flash.c ****   }
 481              		.loc 1 693 5 is_stmt 1 view .LVU152
 482 01c2 FFF7FEFF 		bl	HAL_FLASH_OperationErrorCallback
 483              	.LVL48:
 484              	.L17:
 697:HAL_Lib/STM32H7xx_HAL_Driver/Src/stm32h7xx_hal_flash.c ****   {
 485              		.loc 1 697 3 view .LVU153
 697:HAL_Lib/STM32H7xx_HAL_Driver/Src/stm32h7xx_hal_flash.c ****   {
 486              		.loc 1 697 12 is_stmt 0 view .LVU154
 487 01c6 0B4B     		ldr	r3, .L32+4
 488 01c8 1B78     		ldrb	r3, [r3]	@ zero_extendqisi2
 697:HAL_Lib/STM32H7xx_HAL_Driver/Src/stm32h7xx_hal_flash.c ****   {
 489              		.loc 1 697 5 view .LVU155
 490 01ca 6BB9     		cbnz	r3, .L3
 701:HAL_Lib/STM32H7xx_HAL_Driver/Src/stm32h7xx_hal_flash.c ****                                  FLASH_IT_STRBERR_BANK1 | FLASH_IT_INCERR_BANK1 | FLASH_IT_OPERR_BA
 491              		.loc 1 701 5 is_stmt 1 view .LVU156
 492 01cc 084B     		ldr	r3, .L32
 493 01ce DA68     		ldr	r2, [r3, #12]
 494 01d0 22F4DE02 		bic	r2, r2, #7274496
 495 01d4 DA60     		str	r2, [r3, #12]
 706:HAL_Lib/STM32H7xx_HAL_Driver/Src/stm32h7xx_hal_flash.c ****                                  FLASH_IT_STRBERR_BANK2 | FLASH_IT_INCERR_BANK2 | FLASH_IT_OPERR_BA
 496              		.loc 1 706 5 view .LVU157
 497 01d6 D3F80C21 		ldr	r2, [r3, #268]
 498 01da 22F4DE02 		bic	r2, r2, #7274496
 499 01de C3F80C21 		str	r2, [r3, #268]
 722:HAL_Lib/STM32H7xx_HAL_Driver/Src/stm32h7xx_hal_flash.c ****   }
 500              		.loc 1 722 5 view .LVU158
 722:HAL_Lib/STM32H7xx_HAL_Driver/Src/stm32h7xx_hal_flash.c ****   }
 501              		.loc 1 722 5 view .LVU159
 502 01e2 044B     		ldr	r3, .L32+4
 503 01e4 0022     		movs	r2, #0
 504 01e6 1A75     		strb	r2, [r3, #20]
 722:HAL_Lib/STM32H7xx_HAL_Driver/Src/stm32h7xx_hal_flash.c ****   }
 505              		.loc 1 722 5 view .LVU160
 506              	.L3:
 724:HAL_Lib/STM32H7xx_HAL_Driver/Src/stm32h7xx_hal_flash.c **** 
 507              		.loc 1 724 1 is_stmt 0 view .LVU161
 508 01e8 10BD     		pop	{r4, pc}
 509              	.LVL49:
 510              	.L22:
 681:HAL_Lib/STM32H7xx_HAL_Driver/Src/stm32h7xx_hal_flash.c ****     }
 511              		.loc 1 681 12 view .LVU162
 512 01ea 0220     		movs	r0, #2
ARM GAS  C:\Users\HUAV\AppData\Local\Temp\ccFxhkJ1.s 			page 26


 513 01ec E6E7     		b	.L19
 514              	.L33:
 515 01ee 00BF     		.align	2
 516              	.L32:
 517 01f0 00200052 		.word	1375739904
 518 01f4 00000000 		.word	pFlash
 519              		.cfi_endproc
 520              	.LFE146:
 522              		.section	.text.HAL_FLASH_Unlock,"ax",%progbits
 523              		.align	1
 524              		.global	HAL_FLASH_Unlock
 525              		.syntax unified
 526              		.thumb
 527              		.thumb_func
 528              		.fpu fpv5-d16
 530              	HAL_FLASH_Unlock:
 531              	.LFB149:
 762:HAL_Lib/STM32H7xx_HAL_Driver/Src/stm32h7xx_hal_flash.c **** 
 763:HAL_Lib/STM32H7xx_HAL_Driver/Src/stm32h7xx_hal_flash.c **** /**
 764:HAL_Lib/STM32H7xx_HAL_Driver/Src/stm32h7xx_hal_flash.c ****   * @}
 765:HAL_Lib/STM32H7xx_HAL_Driver/Src/stm32h7xx_hal_flash.c ****   */
 766:HAL_Lib/STM32H7xx_HAL_Driver/Src/stm32h7xx_hal_flash.c **** 
 767:HAL_Lib/STM32H7xx_HAL_Driver/Src/stm32h7xx_hal_flash.c **** /** @defgroup FLASH_Exported_Functions_Group2 Peripheral Control functions
 768:HAL_Lib/STM32H7xx_HAL_Driver/Src/stm32h7xx_hal_flash.c ****  *  @brief   Management functions
 769:HAL_Lib/STM32H7xx_HAL_Driver/Src/stm32h7xx_hal_flash.c ****  *
 770:HAL_Lib/STM32H7xx_HAL_Driver/Src/stm32h7xx_hal_flash.c **** @verbatim
 771:HAL_Lib/STM32H7xx_HAL_Driver/Src/stm32h7xx_hal_flash.c ****  ===============================================================================
 772:HAL_Lib/STM32H7xx_HAL_Driver/Src/stm32h7xx_hal_flash.c ****                       ##### Peripheral Control functions #####
 773:HAL_Lib/STM32H7xx_HAL_Driver/Src/stm32h7xx_hal_flash.c ****  ===============================================================================
 774:HAL_Lib/STM32H7xx_HAL_Driver/Src/stm32h7xx_hal_flash.c ****     [..]
 775:HAL_Lib/STM32H7xx_HAL_Driver/Src/stm32h7xx_hal_flash.c ****     This subsection provides a set of functions allowing to control the FLASH
 776:HAL_Lib/STM32H7xx_HAL_Driver/Src/stm32h7xx_hal_flash.c ****     memory operations.
 777:HAL_Lib/STM32H7xx_HAL_Driver/Src/stm32h7xx_hal_flash.c **** 
 778:HAL_Lib/STM32H7xx_HAL_Driver/Src/stm32h7xx_hal_flash.c **** @endverbatim
 779:HAL_Lib/STM32H7xx_HAL_Driver/Src/stm32h7xx_hal_flash.c ****   * @{
 780:HAL_Lib/STM32H7xx_HAL_Driver/Src/stm32h7xx_hal_flash.c ****   */
 781:HAL_Lib/STM32H7xx_HAL_Driver/Src/stm32h7xx_hal_flash.c **** 
 782:HAL_Lib/STM32H7xx_HAL_Driver/Src/stm32h7xx_hal_flash.c **** /**
 783:HAL_Lib/STM32H7xx_HAL_Driver/Src/stm32h7xx_hal_flash.c ****   * @brief  Unlock the FLASH control registers access
 784:HAL_Lib/STM32H7xx_HAL_Driver/Src/stm32h7xx_hal_flash.c ****   * @retval HAL Status
 785:HAL_Lib/STM32H7xx_HAL_Driver/Src/stm32h7xx_hal_flash.c ****   */
 786:HAL_Lib/STM32H7xx_HAL_Driver/Src/stm32h7xx_hal_flash.c **** HAL_StatusTypeDef HAL_FLASH_Unlock(void)
 787:HAL_Lib/STM32H7xx_HAL_Driver/Src/stm32h7xx_hal_flash.c **** {
 532              		.loc 1 787 1 is_stmt 1 view -0
 533              		.cfi_startproc
 534              		@ args = 0, pretend = 0, frame = 0
 535              		@ frame_needed = 0, uses_anonymous_args = 0
 536              		@ link register save eliminated.
 788:HAL_Lib/STM32H7xx_HAL_Driver/Src/stm32h7xx_hal_flash.c ****   if(READ_BIT(FLASH->CR1, FLASH_CR_LOCK) != 0U)
 537              		.loc 1 788 3 view .LVU164
 538              		.loc 1 788 6 is_stmt 0 view .LVU165
 539 0000 144B     		ldr	r3, .L40
 540 0002 DB68     		ldr	r3, [r3, #12]
 541              		.loc 1 788 5 view .LVU166
 542 0004 13F0010F 		tst	r3, #1
 543 0008 09D0     		beq	.L35
 789:HAL_Lib/STM32H7xx_HAL_Driver/Src/stm32h7xx_hal_flash.c ****   {
ARM GAS  C:\Users\HUAV\AppData\Local\Temp\ccFxhkJ1.s 			page 27


 790:HAL_Lib/STM32H7xx_HAL_Driver/Src/stm32h7xx_hal_flash.c ****     /* Authorize the FLASH Bank1 Registers access */
 791:HAL_Lib/STM32H7xx_HAL_Driver/Src/stm32h7xx_hal_flash.c ****     WRITE_REG(FLASH->KEYR1, FLASH_KEY1);
 544              		.loc 1 791 5 is_stmt 1 view .LVU167
 545 000a 124B     		ldr	r3, .L40
 546 000c 124A     		ldr	r2, .L40+4
 547 000e 5A60     		str	r2, [r3, #4]
 792:HAL_Lib/STM32H7xx_HAL_Driver/Src/stm32h7xx_hal_flash.c ****     WRITE_REG(FLASH->KEYR1, FLASH_KEY2);
 548              		.loc 1 792 5 view .LVU168
 549 0010 02F18832 		add	r2, r2, #-2004318072
 550 0014 5A60     		str	r2, [r3, #4]
 793:HAL_Lib/STM32H7xx_HAL_Driver/Src/stm32h7xx_hal_flash.c **** 
 794:HAL_Lib/STM32H7xx_HAL_Driver/Src/stm32h7xx_hal_flash.c ****     /* Verify Flash Bank1 is unlocked */
 795:HAL_Lib/STM32H7xx_HAL_Driver/Src/stm32h7xx_hal_flash.c ****     if (READ_BIT(FLASH->CR1, FLASH_CR_LOCK) != 0U)
 551              		.loc 1 795 5 view .LVU169
 552              		.loc 1 795 9 is_stmt 0 view .LVU170
 553 0016 DB68     		ldr	r3, [r3, #12]
 554              		.loc 1 795 8 view .LVU171
 555 0018 13F0010F 		tst	r3, #1
 556 001c 14D1     		bne	.L37
 557              	.L35:
 796:HAL_Lib/STM32H7xx_HAL_Driver/Src/stm32h7xx_hal_flash.c ****     {
 797:HAL_Lib/STM32H7xx_HAL_Driver/Src/stm32h7xx_hal_flash.c ****       return HAL_ERROR;
 798:HAL_Lib/STM32H7xx_HAL_Driver/Src/stm32h7xx_hal_flash.c ****     }
 799:HAL_Lib/STM32H7xx_HAL_Driver/Src/stm32h7xx_hal_flash.c ****   }
 800:HAL_Lib/STM32H7xx_HAL_Driver/Src/stm32h7xx_hal_flash.c **** 
 801:HAL_Lib/STM32H7xx_HAL_Driver/Src/stm32h7xx_hal_flash.c **** #if defined (DUAL_BANK)
 802:HAL_Lib/STM32H7xx_HAL_Driver/Src/stm32h7xx_hal_flash.c ****   if(READ_BIT(FLASH->CR2, FLASH_CR_LOCK) != 0U)
 558              		.loc 1 802 3 is_stmt 1 view .LVU172
 559              		.loc 1 802 6 is_stmt 0 view .LVU173
 560 001e 0D4B     		ldr	r3, .L40
 561 0020 D3F80C31 		ldr	r3, [r3, #268]
 562              		.loc 1 802 5 view .LVU174
 563 0024 13F0010F 		tst	r3, #1
 564 0028 10D0     		beq	.L38
 803:HAL_Lib/STM32H7xx_HAL_Driver/Src/stm32h7xx_hal_flash.c ****   {
 804:HAL_Lib/STM32H7xx_HAL_Driver/Src/stm32h7xx_hal_flash.c ****     /* Authorize the FLASH Bank2 Registers access */
 805:HAL_Lib/STM32H7xx_HAL_Driver/Src/stm32h7xx_hal_flash.c ****     WRITE_REG(FLASH->KEYR2, FLASH_KEY1);
 565              		.loc 1 805 5 is_stmt 1 view .LVU175
 566 002a 0A4B     		ldr	r3, .L40
 567 002c 0A4A     		ldr	r2, .L40+4
 568 002e C3F80421 		str	r2, [r3, #260]
 806:HAL_Lib/STM32H7xx_HAL_Driver/Src/stm32h7xx_hal_flash.c ****     WRITE_REG(FLASH->KEYR2, FLASH_KEY2);
 569              		.loc 1 806 5 view .LVU176
 570 0032 02F18832 		add	r2, r2, #-2004318072
 571 0036 C3F80421 		str	r2, [r3, #260]
 807:HAL_Lib/STM32H7xx_HAL_Driver/Src/stm32h7xx_hal_flash.c **** 
 808:HAL_Lib/STM32H7xx_HAL_Driver/Src/stm32h7xx_hal_flash.c ****     /* Verify Flash Bank2 is unlocked */
 809:HAL_Lib/STM32H7xx_HAL_Driver/Src/stm32h7xx_hal_flash.c ****     if (READ_BIT(FLASH->CR2, FLASH_CR_LOCK) != 0U)
 572              		.loc 1 809 5 view .LVU177
 573              		.loc 1 809 9 is_stmt 0 view .LVU178
 574 003a D3F80C31 		ldr	r3, [r3, #268]
 575              		.loc 1 809 8 view .LVU179
 576 003e 13F0010F 		tst	r3, #1
 577 0042 05D1     		bne	.L39
 810:HAL_Lib/STM32H7xx_HAL_Driver/Src/stm32h7xx_hal_flash.c ****     {
 811:HAL_Lib/STM32H7xx_HAL_Driver/Src/stm32h7xx_hal_flash.c ****       return HAL_ERROR;
 812:HAL_Lib/STM32H7xx_HAL_Driver/Src/stm32h7xx_hal_flash.c ****     }
ARM GAS  C:\Users\HUAV\AppData\Local\Temp\ccFxhkJ1.s 			page 28


 813:HAL_Lib/STM32H7xx_HAL_Driver/Src/stm32h7xx_hal_flash.c ****   }
 814:HAL_Lib/STM32H7xx_HAL_Driver/Src/stm32h7xx_hal_flash.c **** #endif /* DUAL_BANK */
 815:HAL_Lib/STM32H7xx_HAL_Driver/Src/stm32h7xx_hal_flash.c **** 
 816:HAL_Lib/STM32H7xx_HAL_Driver/Src/stm32h7xx_hal_flash.c ****   return HAL_OK;
 578              		.loc 1 816 10 view .LVU180
 579 0044 0020     		movs	r0, #0
 580 0046 7047     		bx	lr
 581              	.L37:
 797:HAL_Lib/STM32H7xx_HAL_Driver/Src/stm32h7xx_hal_flash.c ****     }
 582              		.loc 1 797 14 view .LVU181
 583 0048 0120     		movs	r0, #1
 584 004a 7047     		bx	lr
 585              	.L38:
 586              		.loc 1 816 10 view .LVU182
 587 004c 0020     		movs	r0, #0
 588 004e 7047     		bx	lr
 589              	.L39:
 811:HAL_Lib/STM32H7xx_HAL_Driver/Src/stm32h7xx_hal_flash.c ****     }
 590              		.loc 1 811 14 view .LVU183
 591 0050 0120     		movs	r0, #1
 817:HAL_Lib/STM32H7xx_HAL_Driver/Src/stm32h7xx_hal_flash.c **** }
 592              		.loc 1 817 1 view .LVU184
 593 0052 7047     		bx	lr
 594              	.L41:
 595              		.align	2
 596              	.L40:
 597 0054 00200052 		.word	1375739904
 598 0058 23016745 		.word	1164378403
 599              		.cfi_endproc
 600              	.LFE149:
 602              		.section	.text.HAL_FLASH_Lock,"ax",%progbits
 603              		.align	1
 604              		.global	HAL_FLASH_Lock
 605              		.syntax unified
 606              		.thumb
 607              		.thumb_func
 608              		.fpu fpv5-d16
 610              	HAL_FLASH_Lock:
 611              	.LFB150:
 818:HAL_Lib/STM32H7xx_HAL_Driver/Src/stm32h7xx_hal_flash.c **** 
 819:HAL_Lib/STM32H7xx_HAL_Driver/Src/stm32h7xx_hal_flash.c **** /**
 820:HAL_Lib/STM32H7xx_HAL_Driver/Src/stm32h7xx_hal_flash.c ****   * @brief  Locks the FLASH control registers access
 821:HAL_Lib/STM32H7xx_HAL_Driver/Src/stm32h7xx_hal_flash.c ****   * @retval HAL Status
 822:HAL_Lib/STM32H7xx_HAL_Driver/Src/stm32h7xx_hal_flash.c ****   */
 823:HAL_Lib/STM32H7xx_HAL_Driver/Src/stm32h7xx_hal_flash.c **** HAL_StatusTypeDef HAL_FLASH_Lock(void)
 824:HAL_Lib/STM32H7xx_HAL_Driver/Src/stm32h7xx_hal_flash.c **** {
 612              		.loc 1 824 1 is_stmt 1 view -0
 613              		.cfi_startproc
 614              		@ args = 0, pretend = 0, frame = 0
 615              		@ frame_needed = 0, uses_anonymous_args = 0
 616              		@ link register save eliminated.
 825:HAL_Lib/STM32H7xx_HAL_Driver/Src/stm32h7xx_hal_flash.c ****   /* Set the LOCK Bit to lock the FLASH Bank1 Control Register access */
 826:HAL_Lib/STM32H7xx_HAL_Driver/Src/stm32h7xx_hal_flash.c ****   SET_BIT(FLASH->CR1, FLASH_CR_LOCK);
 617              		.loc 1 826 3 view .LVU186
 618 0000 0D4B     		ldr	r3, .L46
 619 0002 DA68     		ldr	r2, [r3, #12]
 620 0004 42F00102 		orr	r2, r2, #1
ARM GAS  C:\Users\HUAV\AppData\Local\Temp\ccFxhkJ1.s 			page 29


 621 0008 DA60     		str	r2, [r3, #12]
 827:HAL_Lib/STM32H7xx_HAL_Driver/Src/stm32h7xx_hal_flash.c **** 
 828:HAL_Lib/STM32H7xx_HAL_Driver/Src/stm32h7xx_hal_flash.c ****   /* Verify Flash Bank1 is locked */
 829:HAL_Lib/STM32H7xx_HAL_Driver/Src/stm32h7xx_hal_flash.c ****   if (READ_BIT(FLASH->CR1, FLASH_CR_LOCK) == 0U)
 622              		.loc 1 829 3 view .LVU187
 623              		.loc 1 829 7 is_stmt 0 view .LVU188
 624 000a DB68     		ldr	r3, [r3, #12]
 625              		.loc 1 829 6 view .LVU189
 626 000c 13F0010F 		tst	r3, #1
 627 0010 0DD0     		beq	.L44
 830:HAL_Lib/STM32H7xx_HAL_Driver/Src/stm32h7xx_hal_flash.c ****   {
 831:HAL_Lib/STM32H7xx_HAL_Driver/Src/stm32h7xx_hal_flash.c ****     return HAL_ERROR;
 832:HAL_Lib/STM32H7xx_HAL_Driver/Src/stm32h7xx_hal_flash.c ****   }
 833:HAL_Lib/STM32H7xx_HAL_Driver/Src/stm32h7xx_hal_flash.c **** 
 834:HAL_Lib/STM32H7xx_HAL_Driver/Src/stm32h7xx_hal_flash.c **** #if defined (DUAL_BANK)
 835:HAL_Lib/STM32H7xx_HAL_Driver/Src/stm32h7xx_hal_flash.c ****   /* Set the LOCK Bit to lock the FLASH Bank2 Control Register access */
 836:HAL_Lib/STM32H7xx_HAL_Driver/Src/stm32h7xx_hal_flash.c ****   SET_BIT(FLASH->CR2, FLASH_CR_LOCK);
 628              		.loc 1 836 3 is_stmt 1 view .LVU190
 629 0012 094B     		ldr	r3, .L46
 630 0014 D3F80C21 		ldr	r2, [r3, #268]
 631 0018 42F00102 		orr	r2, r2, #1
 632 001c C3F80C21 		str	r2, [r3, #268]
 837:HAL_Lib/STM32H7xx_HAL_Driver/Src/stm32h7xx_hal_flash.c **** 
 838:HAL_Lib/STM32H7xx_HAL_Driver/Src/stm32h7xx_hal_flash.c ****   /* Verify Flash Bank2 is locked */
 839:HAL_Lib/STM32H7xx_HAL_Driver/Src/stm32h7xx_hal_flash.c ****   if (READ_BIT(FLASH->CR2, FLASH_CR_LOCK) == 0U)
 633              		.loc 1 839 3 view .LVU191
 634              		.loc 1 839 7 is_stmt 0 view .LVU192
 635 0020 D3F80C31 		ldr	r3, [r3, #268]
 636              		.loc 1 839 6 view .LVU193
 637 0024 13F0010F 		tst	r3, #1
 638 0028 03D0     		beq	.L45
 840:HAL_Lib/STM32H7xx_HAL_Driver/Src/stm32h7xx_hal_flash.c ****   {
 841:HAL_Lib/STM32H7xx_HAL_Driver/Src/stm32h7xx_hal_flash.c ****     return HAL_ERROR;
 842:HAL_Lib/STM32H7xx_HAL_Driver/Src/stm32h7xx_hal_flash.c ****   }
 843:HAL_Lib/STM32H7xx_HAL_Driver/Src/stm32h7xx_hal_flash.c **** #endif /* DUAL_BANK */
 844:HAL_Lib/STM32H7xx_HAL_Driver/Src/stm32h7xx_hal_flash.c **** 
 845:HAL_Lib/STM32H7xx_HAL_Driver/Src/stm32h7xx_hal_flash.c ****   return HAL_OK;
 639              		.loc 1 845 10 view .LVU194
 640 002a 0020     		movs	r0, #0
 641 002c 7047     		bx	lr
 642              	.L44:
 831:HAL_Lib/STM32H7xx_HAL_Driver/Src/stm32h7xx_hal_flash.c ****   }
 643              		.loc 1 831 12 view .LVU195
 644 002e 0120     		movs	r0, #1
 645 0030 7047     		bx	lr
 646              	.L45:
 841:HAL_Lib/STM32H7xx_HAL_Driver/Src/stm32h7xx_hal_flash.c ****   }
 647              		.loc 1 841 12 view .LVU196
 648 0032 0120     		movs	r0, #1
 846:HAL_Lib/STM32H7xx_HAL_Driver/Src/stm32h7xx_hal_flash.c **** }
 649              		.loc 1 846 1 view .LVU197
 650 0034 7047     		bx	lr
 651              	.L47:
 652 0036 00BF     		.align	2
 653              	.L46:
 654 0038 00200052 		.word	1375739904
 655              		.cfi_endproc
ARM GAS  C:\Users\HUAV\AppData\Local\Temp\ccFxhkJ1.s 			page 30


 656              	.LFE150:
 658              		.section	.text.HAL_FLASH_OB_Unlock,"ax",%progbits
 659              		.align	1
 660              		.global	HAL_FLASH_OB_Unlock
 661              		.syntax unified
 662              		.thumb
 663              		.thumb_func
 664              		.fpu fpv5-d16
 666              	HAL_FLASH_OB_Unlock:
 667              	.LFB151:
 847:HAL_Lib/STM32H7xx_HAL_Driver/Src/stm32h7xx_hal_flash.c **** 
 848:HAL_Lib/STM32H7xx_HAL_Driver/Src/stm32h7xx_hal_flash.c **** /**
 849:HAL_Lib/STM32H7xx_HAL_Driver/Src/stm32h7xx_hal_flash.c ****   * @brief  Unlock the FLASH Option Control Registers access.
 850:HAL_Lib/STM32H7xx_HAL_Driver/Src/stm32h7xx_hal_flash.c ****   * @retval HAL Status
 851:HAL_Lib/STM32H7xx_HAL_Driver/Src/stm32h7xx_hal_flash.c ****   */
 852:HAL_Lib/STM32H7xx_HAL_Driver/Src/stm32h7xx_hal_flash.c **** HAL_StatusTypeDef HAL_FLASH_OB_Unlock(void)
 853:HAL_Lib/STM32H7xx_HAL_Driver/Src/stm32h7xx_hal_flash.c **** {
 668              		.loc 1 853 1 is_stmt 1 view -0
 669              		.cfi_startproc
 670              		@ args = 0, pretend = 0, frame = 0
 671              		@ frame_needed = 0, uses_anonymous_args = 0
 672              		@ link register save eliminated.
 854:HAL_Lib/STM32H7xx_HAL_Driver/Src/stm32h7xx_hal_flash.c ****   if(READ_BIT(FLASH->OPTCR, FLASH_OPTCR_OPTLOCK) != 0U)
 673              		.loc 1 854 3 view .LVU199
 674              		.loc 1 854 6 is_stmt 0 view .LVU200
 675 0000 0A4B     		ldr	r3, .L52
 676 0002 9B69     		ldr	r3, [r3, #24]
 677              		.loc 1 854 5 view .LVU201
 678 0004 13F0010F 		tst	r3, #1
 679 0008 0BD0     		beq	.L50
 855:HAL_Lib/STM32H7xx_HAL_Driver/Src/stm32h7xx_hal_flash.c ****   {
 856:HAL_Lib/STM32H7xx_HAL_Driver/Src/stm32h7xx_hal_flash.c ****     /* Authorizes the Option Byte registers programming */
 857:HAL_Lib/STM32H7xx_HAL_Driver/Src/stm32h7xx_hal_flash.c ****     WRITE_REG(FLASH->OPTKEYR, FLASH_OPT_KEY1);
 680              		.loc 1 857 5 is_stmt 1 view .LVU202
 681 000a 084B     		ldr	r3, .L52
 682 000c 084A     		ldr	r2, .L52+4
 683 000e 9A60     		str	r2, [r3, #8]
 858:HAL_Lib/STM32H7xx_HAL_Driver/Src/stm32h7xx_hal_flash.c ****     WRITE_REG(FLASH->OPTKEYR, FLASH_OPT_KEY2);
 684              		.loc 1 858 5 view .LVU203
 685 0010 02F14432 		add	r2, r2, #1145324612
 686 0014 9A60     		str	r2, [r3, #8]
 859:HAL_Lib/STM32H7xx_HAL_Driver/Src/stm32h7xx_hal_flash.c **** 
 860:HAL_Lib/STM32H7xx_HAL_Driver/Src/stm32h7xx_hal_flash.c ****     /* Verify that the Option Bytes are unlocked */
 861:HAL_Lib/STM32H7xx_HAL_Driver/Src/stm32h7xx_hal_flash.c ****     if (READ_BIT(FLASH->OPTCR, FLASH_OPTCR_OPTLOCK) != 0U)
 687              		.loc 1 861 5 view .LVU204
 688              		.loc 1 861 9 is_stmt 0 view .LVU205
 689 0016 9B69     		ldr	r3, [r3, #24]
 690              		.loc 1 861 8 view .LVU206
 691 0018 13F0010F 		tst	r3, #1
 692 001c 03D1     		bne	.L51
 862:HAL_Lib/STM32H7xx_HAL_Driver/Src/stm32h7xx_hal_flash.c ****     {
 863:HAL_Lib/STM32H7xx_HAL_Driver/Src/stm32h7xx_hal_flash.c ****       return HAL_ERROR;
 864:HAL_Lib/STM32H7xx_HAL_Driver/Src/stm32h7xx_hal_flash.c ****     }
 865:HAL_Lib/STM32H7xx_HAL_Driver/Src/stm32h7xx_hal_flash.c ****   }
 866:HAL_Lib/STM32H7xx_HAL_Driver/Src/stm32h7xx_hal_flash.c **** 
 867:HAL_Lib/STM32H7xx_HAL_Driver/Src/stm32h7xx_hal_flash.c ****   return HAL_OK;
 693              		.loc 1 867 10 view .LVU207
ARM GAS  C:\Users\HUAV\AppData\Local\Temp\ccFxhkJ1.s 			page 31


 694 001e 0020     		movs	r0, #0
 695 0020 7047     		bx	lr
 696              	.L50:
 697 0022 0020     		movs	r0, #0
 698 0024 7047     		bx	lr
 699              	.L51:
 863:HAL_Lib/STM32H7xx_HAL_Driver/Src/stm32h7xx_hal_flash.c ****     }
 700              		.loc 1 863 14 view .LVU208
 701 0026 0120     		movs	r0, #1
 868:HAL_Lib/STM32H7xx_HAL_Driver/Src/stm32h7xx_hal_flash.c **** }
 702              		.loc 1 868 1 view .LVU209
 703 0028 7047     		bx	lr
 704              	.L53:
 705 002a 00BF     		.align	2
 706              	.L52:
 707 002c 00200052 		.word	1375739904
 708 0030 3B2A1908 		.word	135866939
 709              		.cfi_endproc
 710              	.LFE151:
 712              		.section	.text.HAL_FLASH_OB_Lock,"ax",%progbits
 713              		.align	1
 714              		.global	HAL_FLASH_OB_Lock
 715              		.syntax unified
 716              		.thumb
 717              		.thumb_func
 718              		.fpu fpv5-d16
 720              	HAL_FLASH_OB_Lock:
 721              	.LFB152:
 869:HAL_Lib/STM32H7xx_HAL_Driver/Src/stm32h7xx_hal_flash.c **** 
 870:HAL_Lib/STM32H7xx_HAL_Driver/Src/stm32h7xx_hal_flash.c **** /**
 871:HAL_Lib/STM32H7xx_HAL_Driver/Src/stm32h7xx_hal_flash.c ****   * @brief  Lock the FLASH Option Control Registers access.
 872:HAL_Lib/STM32H7xx_HAL_Driver/Src/stm32h7xx_hal_flash.c ****   * @retval HAL Status
 873:HAL_Lib/STM32H7xx_HAL_Driver/Src/stm32h7xx_hal_flash.c ****   */
 874:HAL_Lib/STM32H7xx_HAL_Driver/Src/stm32h7xx_hal_flash.c **** HAL_StatusTypeDef HAL_FLASH_OB_Lock(void)
 875:HAL_Lib/STM32H7xx_HAL_Driver/Src/stm32h7xx_hal_flash.c **** {
 722              		.loc 1 875 1 is_stmt 1 view -0
 723              		.cfi_startproc
 724              		@ args = 0, pretend = 0, frame = 0
 725              		@ frame_needed = 0, uses_anonymous_args = 0
 726              		@ link register save eliminated.
 876:HAL_Lib/STM32H7xx_HAL_Driver/Src/stm32h7xx_hal_flash.c ****   /* Set the OPTLOCK Bit to lock the FLASH Option Byte Registers access */
 877:HAL_Lib/STM32H7xx_HAL_Driver/Src/stm32h7xx_hal_flash.c ****   SET_BIT(FLASH->OPTCR, FLASH_OPTCR_OPTLOCK);
 727              		.loc 1 877 3 view .LVU211
 728 0000 064B     		ldr	r3, .L57
 729 0002 9A69     		ldr	r2, [r3, #24]
 730 0004 42F00102 		orr	r2, r2, #1
 731 0008 9A61     		str	r2, [r3, #24]
 878:HAL_Lib/STM32H7xx_HAL_Driver/Src/stm32h7xx_hal_flash.c **** 
 879:HAL_Lib/STM32H7xx_HAL_Driver/Src/stm32h7xx_hal_flash.c ****   /* Verify that the Option Bytes are locked */
 880:HAL_Lib/STM32H7xx_HAL_Driver/Src/stm32h7xx_hal_flash.c ****   if (READ_BIT(FLASH->OPTCR, FLASH_OPTCR_OPTLOCK) == 0U)
 732              		.loc 1 880 3 view .LVU212
 733              		.loc 1 880 7 is_stmt 0 view .LVU213
 734 000a 9B69     		ldr	r3, [r3, #24]
 735              		.loc 1 880 6 view .LVU214
 736 000c 13F0010F 		tst	r3, #1
 737 0010 01D0     		beq	.L56
 881:HAL_Lib/STM32H7xx_HAL_Driver/Src/stm32h7xx_hal_flash.c ****   {
ARM GAS  C:\Users\HUAV\AppData\Local\Temp\ccFxhkJ1.s 			page 32


 882:HAL_Lib/STM32H7xx_HAL_Driver/Src/stm32h7xx_hal_flash.c ****     return HAL_ERROR;
 883:HAL_Lib/STM32H7xx_HAL_Driver/Src/stm32h7xx_hal_flash.c ****   }
 884:HAL_Lib/STM32H7xx_HAL_Driver/Src/stm32h7xx_hal_flash.c **** 
 885:HAL_Lib/STM32H7xx_HAL_Driver/Src/stm32h7xx_hal_flash.c ****   return HAL_OK;
 738              		.loc 1 885 10 view .LVU215
 739 0012 0020     		movs	r0, #0
 740 0014 7047     		bx	lr
 741              	.L56:
 882:HAL_Lib/STM32H7xx_HAL_Driver/Src/stm32h7xx_hal_flash.c ****   }
 742              		.loc 1 882 12 view .LVU216
 743 0016 0120     		movs	r0, #1
 886:HAL_Lib/STM32H7xx_HAL_Driver/Src/stm32h7xx_hal_flash.c **** }
 744              		.loc 1 886 1 view .LVU217
 745 0018 7047     		bx	lr
 746              	.L58:
 747 001a 00BF     		.align	2
 748              	.L57:
 749 001c 00200052 		.word	1375739904
 750              		.cfi_endproc
 751              	.LFE152:
 753              		.section	.text.HAL_FLASH_GetError,"ax",%progbits
 754              		.align	1
 755              		.global	HAL_FLASH_GetError
 756              		.syntax unified
 757              		.thumb
 758              		.thumb_func
 759              		.fpu fpv5-d16
 761              	HAL_FLASH_GetError:
 762              	.LFB154:
 887:HAL_Lib/STM32H7xx_HAL_Driver/Src/stm32h7xx_hal_flash.c **** 
 888:HAL_Lib/STM32H7xx_HAL_Driver/Src/stm32h7xx_hal_flash.c **** /**
 889:HAL_Lib/STM32H7xx_HAL_Driver/Src/stm32h7xx_hal_flash.c ****   * @brief  Launch the option bytes loading.
 890:HAL_Lib/STM32H7xx_HAL_Driver/Src/stm32h7xx_hal_flash.c ****   * @retval HAL Status
 891:HAL_Lib/STM32H7xx_HAL_Driver/Src/stm32h7xx_hal_flash.c ****   */
 892:HAL_Lib/STM32H7xx_HAL_Driver/Src/stm32h7xx_hal_flash.c **** HAL_StatusTypeDef HAL_FLASH_OB_Launch(void)
 893:HAL_Lib/STM32H7xx_HAL_Driver/Src/stm32h7xx_hal_flash.c **** {
 894:HAL_Lib/STM32H7xx_HAL_Driver/Src/stm32h7xx_hal_flash.c ****   HAL_StatusTypeDef status;
 895:HAL_Lib/STM32H7xx_HAL_Driver/Src/stm32h7xx_hal_flash.c **** 
 896:HAL_Lib/STM32H7xx_HAL_Driver/Src/stm32h7xx_hal_flash.c ****   /* Wait for CRC computation to be completed */
 897:HAL_Lib/STM32H7xx_HAL_Driver/Src/stm32h7xx_hal_flash.c ****   if (FLASH_CRC_WaitForLastOperation((uint32_t)FLASH_TIMEOUT_VALUE, FLASH_BANK_1) != HAL_OK)
 898:HAL_Lib/STM32H7xx_HAL_Driver/Src/stm32h7xx_hal_flash.c ****   {
 899:HAL_Lib/STM32H7xx_HAL_Driver/Src/stm32h7xx_hal_flash.c ****     status = HAL_ERROR;
 900:HAL_Lib/STM32H7xx_HAL_Driver/Src/stm32h7xx_hal_flash.c ****   }
 901:HAL_Lib/STM32H7xx_HAL_Driver/Src/stm32h7xx_hal_flash.c **** #if defined (DUAL_BANK)
 902:HAL_Lib/STM32H7xx_HAL_Driver/Src/stm32h7xx_hal_flash.c ****   else if (FLASH_CRC_WaitForLastOperation((uint32_t)FLASH_TIMEOUT_VALUE, FLASH_BANK_2) != HAL_OK)
 903:HAL_Lib/STM32H7xx_HAL_Driver/Src/stm32h7xx_hal_flash.c ****   {
 904:HAL_Lib/STM32H7xx_HAL_Driver/Src/stm32h7xx_hal_flash.c ****     status = HAL_ERROR;
 905:HAL_Lib/STM32H7xx_HAL_Driver/Src/stm32h7xx_hal_flash.c ****   }
 906:HAL_Lib/STM32H7xx_HAL_Driver/Src/stm32h7xx_hal_flash.c **** #endif /* DUAL_BANK */
 907:HAL_Lib/STM32H7xx_HAL_Driver/Src/stm32h7xx_hal_flash.c ****   else
 908:HAL_Lib/STM32H7xx_HAL_Driver/Src/stm32h7xx_hal_flash.c ****   {
 909:HAL_Lib/STM32H7xx_HAL_Driver/Src/stm32h7xx_hal_flash.c ****     status = HAL_OK;
 910:HAL_Lib/STM32H7xx_HAL_Driver/Src/stm32h7xx_hal_flash.c ****   }
 911:HAL_Lib/STM32H7xx_HAL_Driver/Src/stm32h7xx_hal_flash.c **** 
 912:HAL_Lib/STM32H7xx_HAL_Driver/Src/stm32h7xx_hal_flash.c ****   if (status == HAL_OK)
 913:HAL_Lib/STM32H7xx_HAL_Driver/Src/stm32h7xx_hal_flash.c ****   {
 914:HAL_Lib/STM32H7xx_HAL_Driver/Src/stm32h7xx_hal_flash.c ****     /* Set OPTSTRT Bit */
ARM GAS  C:\Users\HUAV\AppData\Local\Temp\ccFxhkJ1.s 			page 33


 915:HAL_Lib/STM32H7xx_HAL_Driver/Src/stm32h7xx_hal_flash.c ****     SET_BIT(FLASH->OPTCR, FLASH_OPTCR_OPTSTART);
 916:HAL_Lib/STM32H7xx_HAL_Driver/Src/stm32h7xx_hal_flash.c **** 
 917:HAL_Lib/STM32H7xx_HAL_Driver/Src/stm32h7xx_hal_flash.c ****     /* Wait for OB change operation to be completed */
 918:HAL_Lib/STM32H7xx_HAL_Driver/Src/stm32h7xx_hal_flash.c ****     status = FLASH_OB_WaitForLastOperation((uint32_t)FLASH_TIMEOUT_VALUE);
 919:HAL_Lib/STM32H7xx_HAL_Driver/Src/stm32h7xx_hal_flash.c ****   }
 920:HAL_Lib/STM32H7xx_HAL_Driver/Src/stm32h7xx_hal_flash.c **** 
 921:HAL_Lib/STM32H7xx_HAL_Driver/Src/stm32h7xx_hal_flash.c ****   return status;
 922:HAL_Lib/STM32H7xx_HAL_Driver/Src/stm32h7xx_hal_flash.c **** }
 923:HAL_Lib/STM32H7xx_HAL_Driver/Src/stm32h7xx_hal_flash.c **** 
 924:HAL_Lib/STM32H7xx_HAL_Driver/Src/stm32h7xx_hal_flash.c **** /**
 925:HAL_Lib/STM32H7xx_HAL_Driver/Src/stm32h7xx_hal_flash.c ****   * @}
 926:HAL_Lib/STM32H7xx_HAL_Driver/Src/stm32h7xx_hal_flash.c ****   */
 927:HAL_Lib/STM32H7xx_HAL_Driver/Src/stm32h7xx_hal_flash.c **** 
 928:HAL_Lib/STM32H7xx_HAL_Driver/Src/stm32h7xx_hal_flash.c **** /** @defgroup FLASH_Exported_Functions_Group3 Peripheral State and Errors functions
 929:HAL_Lib/STM32H7xx_HAL_Driver/Src/stm32h7xx_hal_flash.c ****  *  @brief   Peripheral Errors functions
 930:HAL_Lib/STM32H7xx_HAL_Driver/Src/stm32h7xx_hal_flash.c ****  *
 931:HAL_Lib/STM32H7xx_HAL_Driver/Src/stm32h7xx_hal_flash.c **** @verbatim
 932:HAL_Lib/STM32H7xx_HAL_Driver/Src/stm32h7xx_hal_flash.c ****  ===============================================================================
 933:HAL_Lib/STM32H7xx_HAL_Driver/Src/stm32h7xx_hal_flash.c ****                 ##### Peripheral Errors functions #####
 934:HAL_Lib/STM32H7xx_HAL_Driver/Src/stm32h7xx_hal_flash.c ****  ===============================================================================
 935:HAL_Lib/STM32H7xx_HAL_Driver/Src/stm32h7xx_hal_flash.c ****     [..]
 936:HAL_Lib/STM32H7xx_HAL_Driver/Src/stm32h7xx_hal_flash.c ****     This subsection permits to get in run-time Errors of the FLASH peripheral.
 937:HAL_Lib/STM32H7xx_HAL_Driver/Src/stm32h7xx_hal_flash.c **** 
 938:HAL_Lib/STM32H7xx_HAL_Driver/Src/stm32h7xx_hal_flash.c **** @endverbatim
 939:HAL_Lib/STM32H7xx_HAL_Driver/Src/stm32h7xx_hal_flash.c ****   * @{
 940:HAL_Lib/STM32H7xx_HAL_Driver/Src/stm32h7xx_hal_flash.c ****   */
 941:HAL_Lib/STM32H7xx_HAL_Driver/Src/stm32h7xx_hal_flash.c **** 
 942:HAL_Lib/STM32H7xx_HAL_Driver/Src/stm32h7xx_hal_flash.c **** /**
 943:HAL_Lib/STM32H7xx_HAL_Driver/Src/stm32h7xx_hal_flash.c ****   * @brief  Get the specific FLASH error flag.
 944:HAL_Lib/STM32H7xx_HAL_Driver/Src/stm32h7xx_hal_flash.c ****   * @retval HAL_FLASH_ERRORCode The returned value can be:
 945:HAL_Lib/STM32H7xx_HAL_Driver/Src/stm32h7xx_hal_flash.c ****   *            @arg HAL_FLASH_ERROR_NONE       : No error set
 946:HAL_Lib/STM32H7xx_HAL_Driver/Src/stm32h7xx_hal_flash.c ****   *
 947:HAL_Lib/STM32H7xx_HAL_Driver/Src/stm32h7xx_hal_flash.c ****   *            @arg HAL_FLASH_ERROR_WRP_BANK1  : Write Protection Error on Bank 1
 948:HAL_Lib/STM32H7xx_HAL_Driver/Src/stm32h7xx_hal_flash.c ****   *            @arg HAL_FLASH_ERROR_PGS_BANK1  : Program Sequence Error on Bank 1
 949:HAL_Lib/STM32H7xx_HAL_Driver/Src/stm32h7xx_hal_flash.c ****   *            @arg HAL_FLASH_ERROR_STRB_BANK1 : Strobe Error on Bank 1
 950:HAL_Lib/STM32H7xx_HAL_Driver/Src/stm32h7xx_hal_flash.c ****   *            @arg HAL_FLASH_ERROR_INC_BANK1  : Inconsistency Error on Bank 1
 951:HAL_Lib/STM32H7xx_HAL_Driver/Src/stm32h7xx_hal_flash.c ****   *            @arg HAL_FLASH_ERROR_OPE_BANK1  : Operation Error on Bank 1
 952:HAL_Lib/STM32H7xx_HAL_Driver/Src/stm32h7xx_hal_flash.c ****   *            @arg HAL_FLASH_ERROR_RDP_BANK1  : Read Protection Error on Bank 1
 953:HAL_Lib/STM32H7xx_HAL_Driver/Src/stm32h7xx_hal_flash.c ****   *            @arg HAL_FLASH_ERROR_RDS_BANK1  : Read Secured Error on Bank 1
 954:HAL_Lib/STM32H7xx_HAL_Driver/Src/stm32h7xx_hal_flash.c ****   *            @arg HAL_FLASH_ERROR_SNECC_BANK1: ECC Single Correction Error on Bank 1
 955:HAL_Lib/STM32H7xx_HAL_Driver/Src/stm32h7xx_hal_flash.c ****   *            @arg HAL_FLASH_ERROR_DBECC_BANK1: ECC Double Detection Error on Bank 1
 956:HAL_Lib/STM32H7xx_HAL_Driver/Src/stm32h7xx_hal_flash.c ****   *            @arg HAL_FLASH_ERROR_CRCRD_BANK1: CRC Read Error on Bank 1
 957:HAL_Lib/STM32H7xx_HAL_Driver/Src/stm32h7xx_hal_flash.c ****   *
 958:HAL_Lib/STM32H7xx_HAL_Driver/Src/stm32h7xx_hal_flash.c ****   *            @arg HAL_FLASH_ERROR_WRP_BANK2  : Write Protection Error on Bank 2
 959:HAL_Lib/STM32H7xx_HAL_Driver/Src/stm32h7xx_hal_flash.c ****   *            @arg HAL_FLASH_ERROR_PGS_BANK2  : Program Sequence Error on Bank 2
 960:HAL_Lib/STM32H7xx_HAL_Driver/Src/stm32h7xx_hal_flash.c ****   *            @arg HAL_FLASH_ERROR_STRB_BANK2 : Strobe Error on Bank 2
 961:HAL_Lib/STM32H7xx_HAL_Driver/Src/stm32h7xx_hal_flash.c ****   *            @arg HAL_FLASH_ERROR_INC_BANK2  : Inconsistency Error on Bank 2
 962:HAL_Lib/STM32H7xx_HAL_Driver/Src/stm32h7xx_hal_flash.c ****   *            @arg HAL_FLASH_ERROR_OPE_BANK2  : Operation Error on Bank 2
 963:HAL_Lib/STM32H7xx_HAL_Driver/Src/stm32h7xx_hal_flash.c ****   *            @arg HAL_FLASH_ERROR_RDP_BANK2  : Read Protection Error on Bank 2
 964:HAL_Lib/STM32H7xx_HAL_Driver/Src/stm32h7xx_hal_flash.c ****   *            @arg HAL_FLASH_ERROR_RDS_BANK2  : Read Secured Error on Bank 2
 965:HAL_Lib/STM32H7xx_HAL_Driver/Src/stm32h7xx_hal_flash.c ****   *            @arg HAL_FLASH_ERROR_SNECC_BANK2: SNECC Error on Bank 2
 966:HAL_Lib/STM32H7xx_HAL_Driver/Src/stm32h7xx_hal_flash.c ****   *            @arg HAL_FLASH_ERROR_DBECC_BANK2: Double Detection ECC on Bank 2
 967:HAL_Lib/STM32H7xx_HAL_Driver/Src/stm32h7xx_hal_flash.c ****   *            @arg HAL_FLASH_ERROR_CRCRD_BANK2: CRC Read Error on Bank 2
 968:HAL_Lib/STM32H7xx_HAL_Driver/Src/stm32h7xx_hal_flash.c **** */
 969:HAL_Lib/STM32H7xx_HAL_Driver/Src/stm32h7xx_hal_flash.c **** 
 970:HAL_Lib/STM32H7xx_HAL_Driver/Src/stm32h7xx_hal_flash.c **** uint32_t HAL_FLASH_GetError(void)
 971:HAL_Lib/STM32H7xx_HAL_Driver/Src/stm32h7xx_hal_flash.c **** {
ARM GAS  C:\Users\HUAV\AppData\Local\Temp\ccFxhkJ1.s 			page 34


 763              		.loc 1 971 1 is_stmt 1 view -0
 764              		.cfi_startproc
 765              		@ args = 0, pretend = 0, frame = 0
 766              		@ frame_needed = 0, uses_anonymous_args = 0
 767              		@ link register save eliminated.
 972:HAL_Lib/STM32H7xx_HAL_Driver/Src/stm32h7xx_hal_flash.c ****    return pFlash.ErrorCode;
 768              		.loc 1 972 4 view .LVU219
 769              		.loc 1 972 17 is_stmt 0 view .LVU220
 770 0000 014B     		ldr	r3, .L60
 771 0002 9869     		ldr	r0, [r3, #24]
 973:HAL_Lib/STM32H7xx_HAL_Driver/Src/stm32h7xx_hal_flash.c **** }
 772              		.loc 1 973 1 view .LVU221
 773 0004 7047     		bx	lr
 774              	.L61:
 775 0006 00BF     		.align	2
 776              	.L60:
 777 0008 00000000 		.word	pFlash
 778              		.cfi_endproc
 779              	.LFE154:
 781              		.section	.text.FLASH_WaitForLastOperation,"ax",%progbits
 782              		.align	1
 783              		.global	FLASH_WaitForLastOperation
 784              		.syntax unified
 785              		.thumb
 786              		.thumb_func
 787              		.fpu fpv5-d16
 789              	FLASH_WaitForLastOperation:
 790              	.LVL50:
 791              	.LFB155:
 974:HAL_Lib/STM32H7xx_HAL_Driver/Src/stm32h7xx_hal_flash.c **** 
 975:HAL_Lib/STM32H7xx_HAL_Driver/Src/stm32h7xx_hal_flash.c **** /**
 976:HAL_Lib/STM32H7xx_HAL_Driver/Src/stm32h7xx_hal_flash.c ****   * @}
 977:HAL_Lib/STM32H7xx_HAL_Driver/Src/stm32h7xx_hal_flash.c ****   */
 978:HAL_Lib/STM32H7xx_HAL_Driver/Src/stm32h7xx_hal_flash.c **** 
 979:HAL_Lib/STM32H7xx_HAL_Driver/Src/stm32h7xx_hal_flash.c **** /**
 980:HAL_Lib/STM32H7xx_HAL_Driver/Src/stm32h7xx_hal_flash.c ****   * @}
 981:HAL_Lib/STM32H7xx_HAL_Driver/Src/stm32h7xx_hal_flash.c ****   */
 982:HAL_Lib/STM32H7xx_HAL_Driver/Src/stm32h7xx_hal_flash.c **** 
 983:HAL_Lib/STM32H7xx_HAL_Driver/Src/stm32h7xx_hal_flash.c **** /* Private functions ---------------------------------------------------------*/
 984:HAL_Lib/STM32H7xx_HAL_Driver/Src/stm32h7xx_hal_flash.c **** 
 985:HAL_Lib/STM32H7xx_HAL_Driver/Src/stm32h7xx_hal_flash.c **** /** @addtogroup FLASH_Private_Functions
 986:HAL_Lib/STM32H7xx_HAL_Driver/Src/stm32h7xx_hal_flash.c ****   * @{
 987:HAL_Lib/STM32H7xx_HAL_Driver/Src/stm32h7xx_hal_flash.c ****   */
 988:HAL_Lib/STM32H7xx_HAL_Driver/Src/stm32h7xx_hal_flash.c **** 
 989:HAL_Lib/STM32H7xx_HAL_Driver/Src/stm32h7xx_hal_flash.c **** /**
 990:HAL_Lib/STM32H7xx_HAL_Driver/Src/stm32h7xx_hal_flash.c ****   * @brief  Wait for a FLASH operation to complete.
 991:HAL_Lib/STM32H7xx_HAL_Driver/Src/stm32h7xx_hal_flash.c ****   * @param  Timeout maximum flash operation timeout
 992:HAL_Lib/STM32H7xx_HAL_Driver/Src/stm32h7xx_hal_flash.c ****   * @param  Bank flash FLASH_BANK_1 or FLASH_BANK_2
 993:HAL_Lib/STM32H7xx_HAL_Driver/Src/stm32h7xx_hal_flash.c ****   * @retval HAL_StatusTypeDef HAL Status
 994:HAL_Lib/STM32H7xx_HAL_Driver/Src/stm32h7xx_hal_flash.c ****   */
 995:HAL_Lib/STM32H7xx_HAL_Driver/Src/stm32h7xx_hal_flash.c **** HAL_StatusTypeDef FLASH_WaitForLastOperation(uint32_t Timeout, uint32_t Bank)
 996:HAL_Lib/STM32H7xx_HAL_Driver/Src/stm32h7xx_hal_flash.c **** {
 792              		.loc 1 996 1 is_stmt 1 view -0
 793              		.cfi_startproc
 794              		@ args = 0, pretend = 0, frame = 0
 795              		@ frame_needed = 0, uses_anonymous_args = 0
 796              		.loc 1 996 1 is_stmt 0 view .LVU223
ARM GAS  C:\Users\HUAV\AppData\Local\Temp\ccFxhkJ1.s 			page 35


 797 0000 F8B5     		push	{r3, r4, r5, r6, r7, lr}
 798              	.LCFI1:
 799              		.cfi_def_cfa_offset 24
 800              		.cfi_offset 3, -24
 801              		.cfi_offset 4, -20
 802              		.cfi_offset 5, -16
 803              		.cfi_offset 6, -12
 804              		.cfi_offset 7, -8
 805              		.cfi_offset 14, -4
 806 0002 0546     		mov	r5, r0
 807 0004 0E46     		mov	r6, r1
 997:HAL_Lib/STM32H7xx_HAL_Driver/Src/stm32h7xx_hal_flash.c ****   /* Wait for the FLASH operation to complete by polling on QW flag to be reset.
 998:HAL_Lib/STM32H7xx_HAL_Driver/Src/stm32h7xx_hal_flash.c ****      Even if the FLASH operation fails, the QW flag will be reset and an error
 999:HAL_Lib/STM32H7xx_HAL_Driver/Src/stm32h7xx_hal_flash.c ****      flag will be set */
1000:HAL_Lib/STM32H7xx_HAL_Driver/Src/stm32h7xx_hal_flash.c **** 
1001:HAL_Lib/STM32H7xx_HAL_Driver/Src/stm32h7xx_hal_flash.c ****   uint32_t bsyflag = FLASH_FLAG_QW_BANK1;
 808              		.loc 1 1001 3 is_stmt 1 view .LVU224
 809              	.LVL51:
1002:HAL_Lib/STM32H7xx_HAL_Driver/Src/stm32h7xx_hal_flash.c ****   uint32_t errorflag = 0;
 810              		.loc 1 1002 3 view .LVU225
1003:HAL_Lib/STM32H7xx_HAL_Driver/Src/stm32h7xx_hal_flash.c ****   uint32_t tickstart = HAL_GetTick();
 811              		.loc 1 1003 3 view .LVU226
 812              		.loc 1 1003 24 is_stmt 0 view .LVU227
 813 0006 FFF7FEFF 		bl	HAL_GetTick
 814              	.LVL52:
 815              		.loc 1 1003 24 view .LVU228
 816 000a 0746     		mov	r7, r0
 817              	.LVL53:
1004:HAL_Lib/STM32H7xx_HAL_Driver/Src/stm32h7xx_hal_flash.c **** 
1005:HAL_Lib/STM32H7xx_HAL_Driver/Src/stm32h7xx_hal_flash.c ****   assert_param(IS_FLASH_BANK_EXCLUSIVE(Bank));
 818              		.loc 1 1005 3 is_stmt 1 view .LVU229
1006:HAL_Lib/STM32H7xx_HAL_Driver/Src/stm32h7xx_hal_flash.c **** 
1007:HAL_Lib/STM32H7xx_HAL_Driver/Src/stm32h7xx_hal_flash.c **** #if defined (DUAL_BANK)
1008:HAL_Lib/STM32H7xx_HAL_Driver/Src/stm32h7xx_hal_flash.c **** 
1009:HAL_Lib/STM32H7xx_HAL_Driver/Src/stm32h7xx_hal_flash.c ****   if (Bank == FLASH_BANK_2)
 819              		.loc 1 1009 3 view .LVU230
 820              		.loc 1 1009 6 is_stmt 0 view .LVU231
 821 000c 022E     		cmp	r6, #2
 822 000e 09D0     		beq	.L84
1001:HAL_Lib/STM32H7xx_HAL_Driver/Src/stm32h7xx_hal_flash.c ****   uint32_t errorflag = 0;
 823              		.loc 1 1001 12 view .LVU232
 824 0010 0424     		movs	r4, #4
 825 0012 17E0     		b	.L65
 826              	.LVL54:
 827              	.L86:
1010:HAL_Lib/STM32H7xx_HAL_Driver/Src/stm32h7xx_hal_flash.c ****   {
1011:HAL_Lib/STM32H7xx_HAL_Driver/Src/stm32h7xx_hal_flash.c ****     /* Select bsyflag depending on Bank */
1012:HAL_Lib/STM32H7xx_HAL_Driver/Src/stm32h7xx_hal_flash.c ****     bsyflag = FLASH_FLAG_QW_BANK2;
1013:HAL_Lib/STM32H7xx_HAL_Driver/Src/stm32h7xx_hal_flash.c ****   }
1014:HAL_Lib/STM32H7xx_HAL_Driver/Src/stm32h7xx_hal_flash.c **** #endif /* DUAL_BANK */
1015:HAL_Lib/STM32H7xx_HAL_Driver/Src/stm32h7xx_hal_flash.c **** 
1016:HAL_Lib/STM32H7xx_HAL_Driver/Src/stm32h7xx_hal_flash.c ****   while(__HAL_FLASH_GET_FLAG(bsyflag))
1017:HAL_Lib/STM32H7xx_HAL_Driver/Src/stm32h7xx_hal_flash.c ****   {
1018:HAL_Lib/STM32H7xx_HAL_Driver/Src/stm32h7xx_hal_flash.c ****     if(Timeout != HAL_MAX_DELAY)
1019:HAL_Lib/STM32H7xx_HAL_Driver/Src/stm32h7xx_hal_flash.c ****     {
1020:HAL_Lib/STM32H7xx_HAL_Driver/Src/stm32h7xx_hal_flash.c ****       if(((HAL_GetTick() - tickstart) > Timeout) || (Timeout == 0U))
 828              		.loc 1 1020 7 is_stmt 1 view .LVU233
ARM GAS  C:\Users\HUAV\AppData\Local\Temp\ccFxhkJ1.s 			page 36


 829              		.loc 1 1020 12 is_stmt 0 view .LVU234
 830 0014 FFF7FEFF 		bl	HAL_GetTick
 831              	.LVL55:
 832              		.loc 1 1020 26 view .LVU235
 833 0018 C01B     		subs	r0, r0, r7
 834              		.loc 1 1020 9 view .LVU236
 835 001a A842     		cmp	r0, r5
 836 001c 5ED8     		bhi	.L78
 837              		.loc 1 1020 50 discriminator 1 view .LVU237
 838 001e 8DB9     		cbnz	r5, .L65
1021:HAL_Lib/STM32H7xx_HAL_Driver/Src/stm32h7xx_hal_flash.c ****       {
1022:HAL_Lib/STM32H7xx_HAL_Driver/Src/stm32h7xx_hal_flash.c ****         return HAL_TIMEOUT;
 839              		.loc 1 1022 16 view .LVU238
 840 0020 0320     		movs	r0, #3
 841 0022 4CE0     		b	.L66
 842              	.LVL56:
 843              	.L84:
1012:HAL_Lib/STM32H7xx_HAL_Driver/Src/stm32h7xx_hal_flash.c ****   }
 844              		.loc 1 1012 13 view .LVU239
 845 0024 304C     		ldr	r4, .L91
 846              	.LVL57:
1012:HAL_Lib/STM32H7xx_HAL_Driver/Src/stm32h7xx_hal_flash.c ****   }
 847              		.loc 1 1012 13 view .LVU240
 848 0026 0DE0     		b	.L65
 849              	.LVL58:
 850              	.L68:
1016:HAL_Lib/STM32H7xx_HAL_Driver/Src/stm32h7xx_hal_flash.c ****   {
 851              		.loc 1 1016 9 discriminator 2 view .LVU241
 852 0028 304B     		ldr	r3, .L91+4
 853 002a D3F81031 		ldr	r3, [r3, #272]
 854 002e 24EA0303 		bic	r3, r4, r3
 855 0032 33F00043 		bics	r3, r3, #-2147483648
 856 0036 0CBF     		ite	eq
 857 0038 0123     		moveq	r3, #1
 858 003a 0023     		movne	r3, #0
 859              	.L69:
1016:HAL_Lib/STM32H7xx_HAL_Driver/Src/stm32h7xx_hal_flash.c ****   {
 860              		.loc 1 1016 8 discriminator 4 view .LVU242
 861 003c 6BB1     		cbz	r3, .L85
1018:HAL_Lib/STM32H7xx_HAL_Driver/Src/stm32h7xx_hal_flash.c ****     {
 862              		.loc 1 1018 5 is_stmt 1 view .LVU243
1018:HAL_Lib/STM32H7xx_HAL_Driver/Src/stm32h7xx_hal_flash.c ****     {
 863              		.loc 1 1018 7 is_stmt 0 view .LVU244
 864 003e B5F1FF3F 		cmp	r5, #-1
 865 0042 E7D1     		bne	.L86
 866              	.LVL59:
 867              	.L65:
1016:HAL_Lib/STM32H7xx_HAL_Driver/Src/stm32h7xx_hal_flash.c ****   {
 868              		.loc 1 1016 8 is_stmt 1 view .LVU245
1016:HAL_Lib/STM32H7xx_HAL_Driver/Src/stm32h7xx_hal_flash.c ****   {
 869              		.loc 1 1016 9 is_stmt 0 view .LVU246
 870 0044 34F00403 		bics	r3, r4, #4
 871 0048 EED1     		bne	.L68
1016:HAL_Lib/STM32H7xx_HAL_Driver/Src/stm32h7xx_hal_flash.c ****   {
 872              		.loc 1 1016 9 discriminator 1 view .LVU247
 873 004a 284B     		ldr	r3, .L91+4
 874 004c 1B69     		ldr	r3, [r3, #16]
ARM GAS  C:\Users\HUAV\AppData\Local\Temp\ccFxhkJ1.s 			page 37


 875 004e 34EA0303 		bics	r3, r4, r3
 876 0052 0CBF     		ite	eq
 877 0054 0123     		moveq	r3, #1
 878 0056 0023     		movne	r3, #0
 879 0058 F0E7     		b	.L69
 880              	.L85:
1023:HAL_Lib/STM32H7xx_HAL_Driver/Src/stm32h7xx_hal_flash.c ****       }
1024:HAL_Lib/STM32H7xx_HAL_Driver/Src/stm32h7xx_hal_flash.c ****     }
1025:HAL_Lib/STM32H7xx_HAL_Driver/Src/stm32h7xx_hal_flash.c ****   }
1026:HAL_Lib/STM32H7xx_HAL_Driver/Src/stm32h7xx_hal_flash.c **** 
1027:HAL_Lib/STM32H7xx_HAL_Driver/Src/stm32h7xx_hal_flash.c ****   /* Get Error Flags */
1028:HAL_Lib/STM32H7xx_HAL_Driver/Src/stm32h7xx_hal_flash.c ****   if (Bank == FLASH_BANK_1)
 881              		.loc 1 1028 3 is_stmt 1 view .LVU248
 882              		.loc 1 1028 6 is_stmt 0 view .LVU249
 883 005a 012E     		cmp	r6, #1
 884 005c 1CD0     		beq	.L87
1029:HAL_Lib/STM32H7xx_HAL_Driver/Src/stm32h7xx_hal_flash.c ****   {
1030:HAL_Lib/STM32H7xx_HAL_Driver/Src/stm32h7xx_hal_flash.c ****     errorflag = FLASH->SR1 & FLASH_FLAG_ALL_ERRORS_BANK1;
1031:HAL_Lib/STM32H7xx_HAL_Driver/Src/stm32h7xx_hal_flash.c ****   }
1032:HAL_Lib/STM32H7xx_HAL_Driver/Src/stm32h7xx_hal_flash.c **** #if defined (DUAL_BANK)
1033:HAL_Lib/STM32H7xx_HAL_Driver/Src/stm32h7xx_hal_flash.c ****   else
1034:HAL_Lib/STM32H7xx_HAL_Driver/Src/stm32h7xx_hal_flash.c ****   {
1035:HAL_Lib/STM32H7xx_HAL_Driver/Src/stm32h7xx_hal_flash.c ****     errorflag = (FLASH->SR2 & FLASH_FLAG_ALL_ERRORS_BANK2) | 0x80000000U;
 885              		.loc 1 1035 5 is_stmt 1 view .LVU250
 886              		.loc 1 1035 23 is_stmt 0 view .LVU251
 887 005e 234B     		ldr	r3, .L91+4
 888 0060 D3F81031 		ldr	r3, [r3, #272]
 889              		.loc 1 1035 60 view .LVU252
 890 0064 23F06843 		bic	r3, r3, #-402653184
 891 0068 23F48013 		bic	r3, r3, #1048576
 892 006c 5B0C     		lsrs	r3, r3, #17
 893 006e 5B04     		lsls	r3, r3, #17
 894              		.loc 1 1035 15 view .LVU253
 895 0070 43F00043 		orr	r3, r3, #-2147483648
 896              	.LVL60:
 897              	.L72:
1036:HAL_Lib/STM32H7xx_HAL_Driver/Src/stm32h7xx_hal_flash.c ****   }
1037:HAL_Lib/STM32H7xx_HAL_Driver/Src/stm32h7xx_hal_flash.c **** #endif /* DUAL_BANK */
1038:HAL_Lib/STM32H7xx_HAL_Driver/Src/stm32h7xx_hal_flash.c **** 
1039:HAL_Lib/STM32H7xx_HAL_Driver/Src/stm32h7xx_hal_flash.c ****   /* In case of error reported in Flash SR1 or SR2 register */
1040:HAL_Lib/STM32H7xx_HAL_Driver/Src/stm32h7xx_hal_flash.c ****   if((errorflag & 0x7FFFFFFFU) != 0U)
 898              		.loc 1 1040 3 is_stmt 1 view .LVU254
 899              		.loc 1 1040 5 is_stmt 0 view .LVU255
 900 0074 33F00041 		bics	r1, r3, #-2147483648
 901 0078 17D1     		bne	.L88
1041:HAL_Lib/STM32H7xx_HAL_Driver/Src/stm32h7xx_hal_flash.c ****   {
1042:HAL_Lib/STM32H7xx_HAL_Driver/Src/stm32h7xx_hal_flash.c ****     /*Save the error code*/
1043:HAL_Lib/STM32H7xx_HAL_Driver/Src/stm32h7xx_hal_flash.c ****     pFlash.ErrorCode |= errorflag;
1044:HAL_Lib/STM32H7xx_HAL_Driver/Src/stm32h7xx_hal_flash.c **** 
1045:HAL_Lib/STM32H7xx_HAL_Driver/Src/stm32h7xx_hal_flash.c ****     /* Clear error programming flags */
1046:HAL_Lib/STM32H7xx_HAL_Driver/Src/stm32h7xx_hal_flash.c ****     __HAL_FLASH_CLEAR_FLAG(errorflag);
1047:HAL_Lib/STM32H7xx_HAL_Driver/Src/stm32h7xx_hal_flash.c **** 
1048:HAL_Lib/STM32H7xx_HAL_Driver/Src/stm32h7xx_hal_flash.c ****     return HAL_ERROR;
1049:HAL_Lib/STM32H7xx_HAL_Driver/Src/stm32h7xx_hal_flash.c ****   }
1050:HAL_Lib/STM32H7xx_HAL_Driver/Src/stm32h7xx_hal_flash.c **** 
1051:HAL_Lib/STM32H7xx_HAL_Driver/Src/stm32h7xx_hal_flash.c ****   /* Check FLASH End of Operation flag  */
1052:HAL_Lib/STM32H7xx_HAL_Driver/Src/stm32h7xx_hal_flash.c ****   if(Bank == FLASH_BANK_1)
ARM GAS  C:\Users\HUAV\AppData\Local\Temp\ccFxhkJ1.s 			page 38


 902              		.loc 1 1052 3 is_stmt 1 view .LVU256
 903              		.loc 1 1052 5 is_stmt 0 view .LVU257
 904 007a 012E     		cmp	r6, #1
 905 007c 23D0     		beq	.L89
1053:HAL_Lib/STM32H7xx_HAL_Driver/Src/stm32h7xx_hal_flash.c ****   {
1054:HAL_Lib/STM32H7xx_HAL_Driver/Src/stm32h7xx_hal_flash.c ****     if (__HAL_FLASH_GET_FLAG_BANK1(FLASH_FLAG_EOP_BANK1))
1055:HAL_Lib/STM32H7xx_HAL_Driver/Src/stm32h7xx_hal_flash.c ****     {
1056:HAL_Lib/STM32H7xx_HAL_Driver/Src/stm32h7xx_hal_flash.c ****       /* Clear FLASH End of Operation pending bit */
1057:HAL_Lib/STM32H7xx_HAL_Driver/Src/stm32h7xx_hal_flash.c ****       __HAL_FLASH_CLEAR_FLAG_BANK1(FLASH_FLAG_EOP_BANK1);
1058:HAL_Lib/STM32H7xx_HAL_Driver/Src/stm32h7xx_hal_flash.c ****     }
1059:HAL_Lib/STM32H7xx_HAL_Driver/Src/stm32h7xx_hal_flash.c ****   }
1060:HAL_Lib/STM32H7xx_HAL_Driver/Src/stm32h7xx_hal_flash.c **** #if defined (DUAL_BANK)
1061:HAL_Lib/STM32H7xx_HAL_Driver/Src/stm32h7xx_hal_flash.c ****   else
1062:HAL_Lib/STM32H7xx_HAL_Driver/Src/stm32h7xx_hal_flash.c ****   {
1063:HAL_Lib/STM32H7xx_HAL_Driver/Src/stm32h7xx_hal_flash.c ****     if (__HAL_FLASH_GET_FLAG_BANK2(FLASH_FLAG_EOP_BANK2))
 906              		.loc 1 1063 5 is_stmt 1 view .LVU258
 907              		.loc 1 1063 9 is_stmt 0 view .LVU259
 908 007e 1B4B     		ldr	r3, .L91+4
 909              	.LVL61:
 910              		.loc 1 1063 9 view .LVU260
 911 0080 D3F81031 		ldr	r3, [r3, #272]
 912              		.loc 1 1063 8 view .LVU261
 913 0084 13F4803F 		tst	r3, #65536
 914 0088 2CD0     		beq	.L81
1064:HAL_Lib/STM32H7xx_HAL_Driver/Src/stm32h7xx_hal_flash.c ****     {
1065:HAL_Lib/STM32H7xx_HAL_Driver/Src/stm32h7xx_hal_flash.c ****       /* Clear FLASH End of Operation pending bit */
1066:HAL_Lib/STM32H7xx_HAL_Driver/Src/stm32h7xx_hal_flash.c ****       __HAL_FLASH_CLEAR_FLAG_BANK2(FLASH_FLAG_EOP_BANK2);
 915              		.loc 1 1066 7 is_stmt 1 view .LVU262
 916 008a 184B     		ldr	r3, .L91+4
 917 008c 4FF48032 		mov	r2, #65536
 918 0090 C3F81421 		str	r2, [r3, #276]
1067:HAL_Lib/STM32H7xx_HAL_Driver/Src/stm32h7xx_hal_flash.c ****     }
1068:HAL_Lib/STM32H7xx_HAL_Driver/Src/stm32h7xx_hal_flash.c ****   }
1069:HAL_Lib/STM32H7xx_HAL_Driver/Src/stm32h7xx_hal_flash.c **** #endif /* DUAL_BANK */
1070:HAL_Lib/STM32H7xx_HAL_Driver/Src/stm32h7xx_hal_flash.c **** 
1071:HAL_Lib/STM32H7xx_HAL_Driver/Src/stm32h7xx_hal_flash.c ****   return HAL_OK;
 919              		.loc 1 1071 10 is_stmt 0 view .LVU263
 920 0094 0020     		movs	r0, #0
 921 0096 12E0     		b	.L66
 922              	.LVL62:
 923              	.L87:
1030:HAL_Lib/STM32H7xx_HAL_Driver/Src/stm32h7xx_hal_flash.c ****   }
 924              		.loc 1 1030 5 is_stmt 1 view .LVU264
1030:HAL_Lib/STM32H7xx_HAL_Driver/Src/stm32h7xx_hal_flash.c ****   }
 925              		.loc 1 1030 22 is_stmt 0 view .LVU265
 926 0098 144B     		ldr	r3, .L91+4
 927 009a 1B69     		ldr	r3, [r3, #16]
1030:HAL_Lib/STM32H7xx_HAL_Driver/Src/stm32h7xx_hal_flash.c ****   }
 928              		.loc 1 1030 15 view .LVU266
 929 009c 23F06843 		bic	r3, r3, #-402653184
 930 00a0 23F48013 		bic	r3, r3, #1048576
 931 00a4 5B0C     		lsrs	r3, r3, #17
 932 00a6 5B04     		lsls	r3, r3, #17
 933              	.LVL63:
1030:HAL_Lib/STM32H7xx_HAL_Driver/Src/stm32h7xx_hal_flash.c ****   }
 934              		.loc 1 1030 15 view .LVU267
 935 00a8 E4E7     		b	.L72
ARM GAS  C:\Users\HUAV\AppData\Local\Temp\ccFxhkJ1.s 			page 39


 936              	.L88:
1043:HAL_Lib/STM32H7xx_HAL_Driver/Src/stm32h7xx_hal_flash.c **** 
 937              		.loc 1 1043 5 is_stmt 1 view .LVU268
1043:HAL_Lib/STM32H7xx_HAL_Driver/Src/stm32h7xx_hal_flash.c **** 
 938              		.loc 1 1043 22 is_stmt 0 view .LVU269
 939 00aa 1148     		ldr	r0, .L91+8
 940 00ac 8269     		ldr	r2, [r0, #24]
 941 00ae 1A43     		orrs	r2, r2, r3
 942 00b0 8261     		str	r2, [r0, #24]
1046:HAL_Lib/STM32H7xx_HAL_Driver/Src/stm32h7xx_hal_flash.c **** 
 943              		.loc 1 1046 5 is_stmt 1 view .LVU270
 944 00b2 002B     		cmp	r3, #0
 945 00b4 04DA     		bge	.L90
1046:HAL_Lib/STM32H7xx_HAL_Driver/Src/stm32h7xx_hal_flash.c **** 
 946              		.loc 1 1046 5 is_stmt 0 discriminator 2 view .LVU271
 947 00b6 0D4B     		ldr	r3, .L91+4
 948              	.LVL64:
1046:HAL_Lib/STM32H7xx_HAL_Driver/Src/stm32h7xx_hal_flash.c **** 
 949              		.loc 1 1046 5 discriminator 2 view .LVU272
 950 00b8 C3F81411 		str	r1, [r3, #276]
 951              	.L75:
1048:HAL_Lib/STM32H7xx_HAL_Driver/Src/stm32h7xx_hal_flash.c ****   }
 952              		.loc 1 1048 5 is_stmt 1 view .LVU273
1048:HAL_Lib/STM32H7xx_HAL_Driver/Src/stm32h7xx_hal_flash.c ****   }
 953              		.loc 1 1048 12 is_stmt 0 view .LVU274
 954 00bc 0120     		movs	r0, #1
 955              	.L66:
1072:HAL_Lib/STM32H7xx_HAL_Driver/Src/stm32h7xx_hal_flash.c **** }
 956              		.loc 1 1072 1 view .LVU275
 957 00be F8BD     		pop	{r3, r4, r5, r6, r7, pc}
 958              	.LVL65:
 959              	.L90:
1046:HAL_Lib/STM32H7xx_HAL_Driver/Src/stm32h7xx_hal_flash.c **** 
 960              		.loc 1 1046 5 discriminator 1 view .LVU276
 961 00c0 0A4A     		ldr	r2, .L91+4
 962 00c2 5361     		str	r3, [r2, #20]
 963 00c4 FAE7     		b	.L75
 964              	.L89:
1054:HAL_Lib/STM32H7xx_HAL_Driver/Src/stm32h7xx_hal_flash.c ****     {
 965              		.loc 1 1054 5 is_stmt 1 view .LVU277
1054:HAL_Lib/STM32H7xx_HAL_Driver/Src/stm32h7xx_hal_flash.c ****     {
 966              		.loc 1 1054 9 is_stmt 0 view .LVU278
 967 00c6 094B     		ldr	r3, .L91+4
 968              	.LVL66:
1054:HAL_Lib/STM32H7xx_HAL_Driver/Src/stm32h7xx_hal_flash.c ****     {
 969              		.loc 1 1054 9 view .LVU279
 970 00c8 1B69     		ldr	r3, [r3, #16]
1054:HAL_Lib/STM32H7xx_HAL_Driver/Src/stm32h7xx_hal_flash.c ****     {
 971              		.loc 1 1054 8 view .LVU280
 972 00ca 13F4803F 		tst	r3, #65536
 973 00ce 07D0     		beq	.L80
1057:HAL_Lib/STM32H7xx_HAL_Driver/Src/stm32h7xx_hal_flash.c ****     }
 974              		.loc 1 1057 7 is_stmt 1 view .LVU281
 975 00d0 064B     		ldr	r3, .L91+4
 976 00d2 4FF48032 		mov	r2, #65536
 977 00d6 5A61     		str	r2, [r3, #20]
1071:HAL_Lib/STM32H7xx_HAL_Driver/Src/stm32h7xx_hal_flash.c **** }
ARM GAS  C:\Users\HUAV\AppData\Local\Temp\ccFxhkJ1.s 			page 40


 978              		.loc 1 1071 10 is_stmt 0 view .LVU282
 979 00d8 0020     		movs	r0, #0
 980 00da F0E7     		b	.L66
 981              	.LVL67:
 982              	.L78:
1022:HAL_Lib/STM32H7xx_HAL_Driver/Src/stm32h7xx_hal_flash.c ****       }
 983              		.loc 1 1022 16 view .LVU283
 984 00dc 0320     		movs	r0, #3
 985 00de EEE7     		b	.L66
 986              	.LVL68:
 987              	.L80:
1071:HAL_Lib/STM32H7xx_HAL_Driver/Src/stm32h7xx_hal_flash.c **** }
 988              		.loc 1 1071 10 view .LVU284
 989 00e0 0020     		movs	r0, #0
 990 00e2 ECE7     		b	.L66
 991              	.L81:
 992 00e4 0020     		movs	r0, #0
 993 00e6 EAE7     		b	.L66
 994              	.L92:
 995              		.align	2
 996              	.L91:
 997 00e8 04000080 		.word	-2147483644
 998 00ec 00200052 		.word	1375739904
 999 00f0 00000000 		.word	pFlash
 1000              		.cfi_endproc
 1001              	.LFE155:
 1003              		.section	.text.HAL_FLASH_Program,"ax",%progbits
 1004              		.align	1
 1005              		.global	HAL_FLASH_Program
 1006              		.syntax unified
 1007              		.thumb
 1008              		.thumb_func
 1009              		.fpu fpv5-d16
 1011              	HAL_FLASH_Program:
 1012              	.LVL69:
 1013              	.LFB144:
 149:HAL_Lib/STM32H7xx_HAL_Driver/Src/stm32h7xx_hal_flash.c ****   HAL_StatusTypeDef status;
 1014              		.loc 1 149 1 is_stmt 1 view -0
 1015              		.cfi_startproc
 1016              		@ args = 0, pretend = 0, frame = 0
 1017              		@ frame_needed = 0, uses_anonymous_args = 0
 150:HAL_Lib/STM32H7xx_HAL_Driver/Src/stm32h7xx_hal_flash.c ****   __IO uint32_t *dest_addr = (__IO uint32_t *)FlashAddress;
 1018              		.loc 1 150 3 view .LVU286
 151:HAL_Lib/STM32H7xx_HAL_Driver/Src/stm32h7xx_hal_flash.c ****   __IO uint32_t *src_addr = (__IO uint32_t*)DataAddress;
 1019              		.loc 1 151 3 view .LVU287
 152:HAL_Lib/STM32H7xx_HAL_Driver/Src/stm32h7xx_hal_flash.c ****   uint32_t bank;
 1020              		.loc 1 152 3 view .LVU288
 153:HAL_Lib/STM32H7xx_HAL_Driver/Src/stm32h7xx_hal_flash.c ****   uint8_t row_index = FLASH_NB_32BITWORD_IN_FLASHWORD;
 1021              		.loc 1 153 3 view .LVU289
 154:HAL_Lib/STM32H7xx_HAL_Driver/Src/stm32h7xx_hal_flash.c **** 
 1022              		.loc 1 154 3 view .LVU290
 157:HAL_Lib/STM32H7xx_HAL_Driver/Src/stm32h7xx_hal_flash.c ****   assert_param(IS_FLASH_PROGRAM_ADDRESS(FlashAddress));
 1023              		.loc 1 157 3 view .LVU291
 158:HAL_Lib/STM32H7xx_HAL_Driver/Src/stm32h7xx_hal_flash.c **** 
 1024              		.loc 1 158 3 view .LVU292
 161:HAL_Lib/STM32H7xx_HAL_Driver/Src/stm32h7xx_hal_flash.c **** 
 1025              		.loc 1 161 3 view .LVU293
ARM GAS  C:\Users\HUAV\AppData\Local\Temp\ccFxhkJ1.s 			page 41


 161:HAL_Lib/STM32H7xx_HAL_Driver/Src/stm32h7xx_hal_flash.c **** 
 1026              		.loc 1 161 3 view .LVU294
 1027 0000 2D4B     		ldr	r3, .L110
 1028 0002 1B7D     		ldrb	r3, [r3, #20]	@ zero_extendqisi2
 1029 0004 012B     		cmp	r3, #1
 1030 0006 53D0     		beq	.L101
 149:HAL_Lib/STM32H7xx_HAL_Driver/Src/stm32h7xx_hal_flash.c ****   HAL_StatusTypeDef status;
 1031              		.loc 1 149 1 is_stmt 0 discriminator 2 view .LVU295
 1032 0008 70B5     		push	{r4, r5, r6, lr}
 1033              	.LCFI2:
 1034              		.cfi_def_cfa_offset 16
 1035              		.cfi_offset 4, -16
 1036              		.cfi_offset 5, -12
 1037              		.cfi_offset 6, -8
 1038              		.cfi_offset 14, -4
 1039 000a 0D46     		mov	r5, r1
 1040 000c 1446     		mov	r4, r2
 161:HAL_Lib/STM32H7xx_HAL_Driver/Src/stm32h7xx_hal_flash.c **** 
 1041              		.loc 1 161 3 is_stmt 1 discriminator 2 view .LVU296
 1042 000e 2A4B     		ldr	r3, .L110
 1043 0010 0122     		movs	r2, #1
 1044              	.LVL70:
 161:HAL_Lib/STM32H7xx_HAL_Driver/Src/stm32h7xx_hal_flash.c **** 
 1045              		.loc 1 161 3 is_stmt 0 discriminator 2 view .LVU297
 1046 0012 1A75     		strb	r2, [r3, #20]
 161:HAL_Lib/STM32H7xx_HAL_Driver/Src/stm32h7xx_hal_flash.c **** 
 1047              		.loc 1 161 3 is_stmt 1 discriminator 2 view .LVU298
 166:HAL_Lib/STM32H7xx_HAL_Driver/Src/stm32h7xx_hal_flash.c **** #endif /* FLASH_OPTCR_PG_OTP */
 1048              		.loc 1 166 3 discriminator 2 view .LVU299
 166:HAL_Lib/STM32H7xx_HAL_Driver/Src/stm32h7xx_hal_flash.c **** #endif /* FLASH_OPTCR_PG_OTP */
 1049              		.loc 1 166 6 is_stmt 0 discriminator 2 view .LVU300
 1050 0014 01F17843 		add	r3, r1, #-134217728
 166:HAL_Lib/STM32H7xx_HAL_Driver/Src/stm32h7xx_hal_flash.c **** #endif /* FLASH_OPTCR_PG_OTP */
 1051              		.loc 1 166 5 discriminator 2 view .LVU301
 1052 0018 B3F5801F 		cmp	r3, #1048576
 1053 001c 3AD3     		bcc	.L102
 172:HAL_Lib/STM32H7xx_HAL_Driver/Src/stm32h7xx_hal_flash.c ****   {
 1054              		.loc 1 172 8 is_stmt 1 view .LVU302
 172:HAL_Lib/STM32H7xx_HAL_Driver/Src/stm32h7xx_hal_flash.c ****   {
 1055              		.loc 1 172 11 is_stmt 0 view .LVU303
 1056 001e A1F10161 		sub	r1, r1, #135266304
 1057              	.LVL71:
 172:HAL_Lib/STM32H7xx_HAL_Driver/Src/stm32h7xx_hal_flash.c ****   {
 1058              		.loc 1 172 10 view .LVU304
 1059 0022 B1F5801F 		cmp	r1, #1048576
 1060 0026 45D2     		bcs	.L103
 174:HAL_Lib/STM32H7xx_HAL_Driver/Src/stm32h7xx_hal_flash.c ****   }
 1061              		.loc 1 174 10 view .LVU305
 1062 0028 0226     		movs	r6, #2
 1063              	.L95:
 1064              	.LVL72:
 183:HAL_Lib/STM32H7xx_HAL_Driver/Src/stm32h7xx_hal_flash.c **** 
 1065              		.loc 1 183 3 is_stmt 1 view .LVU306
 183:HAL_Lib/STM32H7xx_HAL_Driver/Src/stm32h7xx_hal_flash.c **** 
 1066              		.loc 1 183 20 is_stmt 0 view .LVU307
 1067 002a 234B     		ldr	r3, .L110
 1068 002c 0022     		movs	r2, #0
ARM GAS  C:\Users\HUAV\AppData\Local\Temp\ccFxhkJ1.s 			page 42


 1069 002e 9A61     		str	r2, [r3, #24]
 186:HAL_Lib/STM32H7xx_HAL_Driver/Src/stm32h7xx_hal_flash.c **** 
 1070              		.loc 1 186 3 is_stmt 1 view .LVU308
 186:HAL_Lib/STM32H7xx_HAL_Driver/Src/stm32h7xx_hal_flash.c **** 
 1071              		.loc 1 186 12 is_stmt 0 view .LVU309
 1072 0030 3146     		mov	r1, r6
 1073 0032 4CF25030 		movw	r0, #50000
 1074              	.LVL73:
 186:HAL_Lib/STM32H7xx_HAL_Driver/Src/stm32h7xx_hal_flash.c **** 
 1075              		.loc 1 186 12 view .LVU310
 1076 0036 FFF7FEFF 		bl	FLASH_WaitForLastOperation
 1077              	.LVL74:
 188:HAL_Lib/STM32H7xx_HAL_Driver/Src/stm32h7xx_hal_flash.c ****   {
 1078              		.loc 1 188 3 is_stmt 1 view .LVU311
 188:HAL_Lib/STM32H7xx_HAL_Driver/Src/stm32h7xx_hal_flash.c ****   {
 1079              		.loc 1 188 5 is_stmt 0 view .LVU312
 1080 003a 38BB     		cbnz	r0, .L96
 191:HAL_Lib/STM32H7xx_HAL_Driver/Src/stm32h7xx_hal_flash.c ****     {
 1081              		.loc 1 191 5 is_stmt 1 view .LVU313
 191:HAL_Lib/STM32H7xx_HAL_Driver/Src/stm32h7xx_hal_flash.c ****     {
 1082              		.loc 1 191 7 is_stmt 0 view .LVU314
 1083 003c 012E     		cmp	r6, #1
 1084 003e 2BD0     		beq	.L108
 209:HAL_Lib/STM32H7xx_HAL_Driver/Src/stm32h7xx_hal_flash.c ****     }
 1085              		.loc 1 209 7 is_stmt 1 view .LVU315
 1086 0040 1E4A     		ldr	r2, .L110+4
 1087 0042 D2F80C31 		ldr	r3, [r2, #268]
 1088 0046 43F00203 		orr	r3, r3, #2
 1089 004a C2F80C31 		str	r3, [r2, #268]
 1090              	.L98:
 226:HAL_Lib/STM32H7xx_HAL_Driver/Src/stm32h7xx_hal_flash.c ****     __DSB();
 1091              		.loc 1 226 5 view .LVU316
 1092              	.LBB18:
 1093              	.LBI18:
 1094              		.file 2 "HAL_Lib/CMSIS/Core/Include/cmsis_gcc.h"
   1:HAL_Lib/CMSIS/Core/Include/cmsis_gcc.h **** /**************************************************************************//**
   2:HAL_Lib/CMSIS/Core/Include/cmsis_gcc.h ****  * @file     cmsis_gcc.h
   3:HAL_Lib/CMSIS/Core/Include/cmsis_gcc.h ****  * @brief    CMSIS compiler GCC header file
   4:HAL_Lib/CMSIS/Core/Include/cmsis_gcc.h ****  * @version  V5.2.0
   5:HAL_Lib/CMSIS/Core/Include/cmsis_gcc.h ****  * @date     08. May 2019
   6:HAL_Lib/CMSIS/Core/Include/cmsis_gcc.h ****  ******************************************************************************/
   7:HAL_Lib/CMSIS/Core/Include/cmsis_gcc.h **** /*
   8:HAL_Lib/CMSIS/Core/Include/cmsis_gcc.h ****  * Copyright (c) 2009-2019 Arm Limited. All rights reserved.
   9:HAL_Lib/CMSIS/Core/Include/cmsis_gcc.h ****  *
  10:HAL_Lib/CMSIS/Core/Include/cmsis_gcc.h ****  * SPDX-License-Identifier: Apache-2.0
  11:HAL_Lib/CMSIS/Core/Include/cmsis_gcc.h ****  *
  12:HAL_Lib/CMSIS/Core/Include/cmsis_gcc.h ****  * Licensed under the Apache License, Version 2.0 (the License); you may
  13:HAL_Lib/CMSIS/Core/Include/cmsis_gcc.h ****  * not use this file except in compliance with the License.
  14:HAL_Lib/CMSIS/Core/Include/cmsis_gcc.h ****  * You may obtain a copy of the License at
  15:HAL_Lib/CMSIS/Core/Include/cmsis_gcc.h ****  *
  16:HAL_Lib/CMSIS/Core/Include/cmsis_gcc.h ****  * www.apache.org/licenses/LICENSE-2.0
  17:HAL_Lib/CMSIS/Core/Include/cmsis_gcc.h ****  *
  18:HAL_Lib/CMSIS/Core/Include/cmsis_gcc.h ****  * Unless required by applicable law or agreed to in writing, software
  19:HAL_Lib/CMSIS/Core/Include/cmsis_gcc.h ****  * distributed under the License is distributed on an AS IS BASIS, WITHOUT
  20:HAL_Lib/CMSIS/Core/Include/cmsis_gcc.h ****  * WARRANTIES OR CONDITIONS OF ANY KIND, either express or implied.
  21:HAL_Lib/CMSIS/Core/Include/cmsis_gcc.h ****  * See the License for the specific language governing permissions and
  22:HAL_Lib/CMSIS/Core/Include/cmsis_gcc.h ****  * limitations under the License.
ARM GAS  C:\Users\HUAV\AppData\Local\Temp\ccFxhkJ1.s 			page 43


  23:HAL_Lib/CMSIS/Core/Include/cmsis_gcc.h ****  */
  24:HAL_Lib/CMSIS/Core/Include/cmsis_gcc.h **** 
  25:HAL_Lib/CMSIS/Core/Include/cmsis_gcc.h **** #ifndef __CMSIS_GCC_H
  26:HAL_Lib/CMSIS/Core/Include/cmsis_gcc.h **** #define __CMSIS_GCC_H
  27:HAL_Lib/CMSIS/Core/Include/cmsis_gcc.h **** 
  28:HAL_Lib/CMSIS/Core/Include/cmsis_gcc.h **** /* ignore some GCC warnings */
  29:HAL_Lib/CMSIS/Core/Include/cmsis_gcc.h **** #pragma GCC diagnostic push
  30:HAL_Lib/CMSIS/Core/Include/cmsis_gcc.h **** #pragma GCC diagnostic ignored "-Wsign-conversion"
  31:HAL_Lib/CMSIS/Core/Include/cmsis_gcc.h **** #pragma GCC diagnostic ignored "-Wconversion"
  32:HAL_Lib/CMSIS/Core/Include/cmsis_gcc.h **** #pragma GCC diagnostic ignored "-Wunused-parameter"
  33:HAL_Lib/CMSIS/Core/Include/cmsis_gcc.h **** 
  34:HAL_Lib/CMSIS/Core/Include/cmsis_gcc.h **** /* Fallback for __has_builtin */
  35:HAL_Lib/CMSIS/Core/Include/cmsis_gcc.h **** #ifndef __has_builtin
  36:HAL_Lib/CMSIS/Core/Include/cmsis_gcc.h ****   #define __has_builtin(x) (0)
  37:HAL_Lib/CMSIS/Core/Include/cmsis_gcc.h **** #endif
  38:HAL_Lib/CMSIS/Core/Include/cmsis_gcc.h **** 
  39:HAL_Lib/CMSIS/Core/Include/cmsis_gcc.h **** /* CMSIS compiler specific defines */
  40:HAL_Lib/CMSIS/Core/Include/cmsis_gcc.h **** #ifndef   __ASM
  41:HAL_Lib/CMSIS/Core/Include/cmsis_gcc.h ****   #define __ASM                                  __asm
  42:HAL_Lib/CMSIS/Core/Include/cmsis_gcc.h **** #endif
  43:HAL_Lib/CMSIS/Core/Include/cmsis_gcc.h **** #ifndef   __INLINE
  44:HAL_Lib/CMSIS/Core/Include/cmsis_gcc.h ****   #define __INLINE                               inline
  45:HAL_Lib/CMSIS/Core/Include/cmsis_gcc.h **** #endif
  46:HAL_Lib/CMSIS/Core/Include/cmsis_gcc.h **** #ifndef   __STATIC_INLINE
  47:HAL_Lib/CMSIS/Core/Include/cmsis_gcc.h ****   #define __STATIC_INLINE                        static inline
  48:HAL_Lib/CMSIS/Core/Include/cmsis_gcc.h **** #endif
  49:HAL_Lib/CMSIS/Core/Include/cmsis_gcc.h **** #ifndef   __STATIC_FORCEINLINE                 
  50:HAL_Lib/CMSIS/Core/Include/cmsis_gcc.h ****   #define __STATIC_FORCEINLINE                   __attribute__((always_inline)) static inline
  51:HAL_Lib/CMSIS/Core/Include/cmsis_gcc.h **** #endif                                           
  52:HAL_Lib/CMSIS/Core/Include/cmsis_gcc.h **** #ifndef   __NO_RETURN
  53:HAL_Lib/CMSIS/Core/Include/cmsis_gcc.h ****   #define __NO_RETURN                            __attribute__((__noreturn__))
  54:HAL_Lib/CMSIS/Core/Include/cmsis_gcc.h **** #endif
  55:HAL_Lib/CMSIS/Core/Include/cmsis_gcc.h **** #ifndef   __USED
  56:HAL_Lib/CMSIS/Core/Include/cmsis_gcc.h ****   #define __USED                                 __attribute__((used))
  57:HAL_Lib/CMSIS/Core/Include/cmsis_gcc.h **** #endif
  58:HAL_Lib/CMSIS/Core/Include/cmsis_gcc.h **** #ifndef   __WEAK
  59:HAL_Lib/CMSIS/Core/Include/cmsis_gcc.h ****   #define __WEAK                                 __attribute__((weak))
  60:HAL_Lib/CMSIS/Core/Include/cmsis_gcc.h **** #endif
  61:HAL_Lib/CMSIS/Core/Include/cmsis_gcc.h **** #ifndef   __PACKED
  62:HAL_Lib/CMSIS/Core/Include/cmsis_gcc.h ****   #define __PACKED                               __attribute__((packed, aligned(1)))
  63:HAL_Lib/CMSIS/Core/Include/cmsis_gcc.h **** #endif
  64:HAL_Lib/CMSIS/Core/Include/cmsis_gcc.h **** #ifndef   __PACKED_STRUCT
  65:HAL_Lib/CMSIS/Core/Include/cmsis_gcc.h ****   #define __PACKED_STRUCT                        struct __attribute__((packed, aligned(1)))
  66:HAL_Lib/CMSIS/Core/Include/cmsis_gcc.h **** #endif
  67:HAL_Lib/CMSIS/Core/Include/cmsis_gcc.h **** #ifndef   __PACKED_UNION
  68:HAL_Lib/CMSIS/Core/Include/cmsis_gcc.h ****   #define __PACKED_UNION                         union __attribute__((packed, aligned(1)))
  69:HAL_Lib/CMSIS/Core/Include/cmsis_gcc.h **** #endif
  70:HAL_Lib/CMSIS/Core/Include/cmsis_gcc.h **** #ifndef   __UNALIGNED_UINT32        /* deprecated */
  71:HAL_Lib/CMSIS/Core/Include/cmsis_gcc.h ****   #pragma GCC diagnostic push
  72:HAL_Lib/CMSIS/Core/Include/cmsis_gcc.h ****   #pragma GCC diagnostic ignored "-Wpacked"
  73:HAL_Lib/CMSIS/Core/Include/cmsis_gcc.h ****   #pragma GCC diagnostic ignored "-Wattributes"
  74:HAL_Lib/CMSIS/Core/Include/cmsis_gcc.h ****   struct __attribute__((packed)) T_UINT32 { uint32_t v; };
  75:HAL_Lib/CMSIS/Core/Include/cmsis_gcc.h ****   #pragma GCC diagnostic pop
  76:HAL_Lib/CMSIS/Core/Include/cmsis_gcc.h ****   #define __UNALIGNED_UINT32(x)                  (((struct T_UINT32 *)(x))->v)
  77:HAL_Lib/CMSIS/Core/Include/cmsis_gcc.h **** #endif
  78:HAL_Lib/CMSIS/Core/Include/cmsis_gcc.h **** #ifndef   __UNALIGNED_UINT16_WRITE
  79:HAL_Lib/CMSIS/Core/Include/cmsis_gcc.h ****   #pragma GCC diagnostic push
ARM GAS  C:\Users\HUAV\AppData\Local\Temp\ccFxhkJ1.s 			page 44


  80:HAL_Lib/CMSIS/Core/Include/cmsis_gcc.h ****   #pragma GCC diagnostic ignored "-Wpacked"
  81:HAL_Lib/CMSIS/Core/Include/cmsis_gcc.h ****   #pragma GCC diagnostic ignored "-Wattributes"
  82:HAL_Lib/CMSIS/Core/Include/cmsis_gcc.h ****   __PACKED_STRUCT T_UINT16_WRITE { uint16_t v; };
  83:HAL_Lib/CMSIS/Core/Include/cmsis_gcc.h ****   #pragma GCC diagnostic pop
  84:HAL_Lib/CMSIS/Core/Include/cmsis_gcc.h ****   #define __UNALIGNED_UINT16_WRITE(addr, val)    (void)((((struct T_UINT16_WRITE *)(void *)(addr))-
  85:HAL_Lib/CMSIS/Core/Include/cmsis_gcc.h **** #endif
  86:HAL_Lib/CMSIS/Core/Include/cmsis_gcc.h **** #ifndef   __UNALIGNED_UINT16_READ
  87:HAL_Lib/CMSIS/Core/Include/cmsis_gcc.h ****   #pragma GCC diagnostic push
  88:HAL_Lib/CMSIS/Core/Include/cmsis_gcc.h ****   #pragma GCC diagnostic ignored "-Wpacked"
  89:HAL_Lib/CMSIS/Core/Include/cmsis_gcc.h ****   #pragma GCC diagnostic ignored "-Wattributes"
  90:HAL_Lib/CMSIS/Core/Include/cmsis_gcc.h ****   __PACKED_STRUCT T_UINT16_READ { uint16_t v; };
  91:HAL_Lib/CMSIS/Core/Include/cmsis_gcc.h ****   #pragma GCC diagnostic pop
  92:HAL_Lib/CMSIS/Core/Include/cmsis_gcc.h ****   #define __UNALIGNED_UINT16_READ(addr)          (((const struct T_UINT16_READ *)(const void *)(add
  93:HAL_Lib/CMSIS/Core/Include/cmsis_gcc.h **** #endif
  94:HAL_Lib/CMSIS/Core/Include/cmsis_gcc.h **** #ifndef   __UNALIGNED_UINT32_WRITE
  95:HAL_Lib/CMSIS/Core/Include/cmsis_gcc.h ****   #pragma GCC diagnostic push
  96:HAL_Lib/CMSIS/Core/Include/cmsis_gcc.h ****   #pragma GCC diagnostic ignored "-Wpacked"
  97:HAL_Lib/CMSIS/Core/Include/cmsis_gcc.h ****   #pragma GCC diagnostic ignored "-Wattributes"
  98:HAL_Lib/CMSIS/Core/Include/cmsis_gcc.h ****   __PACKED_STRUCT T_UINT32_WRITE { uint32_t v; };
  99:HAL_Lib/CMSIS/Core/Include/cmsis_gcc.h ****   #pragma GCC diagnostic pop
 100:HAL_Lib/CMSIS/Core/Include/cmsis_gcc.h ****   #define __UNALIGNED_UINT32_WRITE(addr, val)    (void)((((struct T_UINT32_WRITE *)(void *)(addr))-
 101:HAL_Lib/CMSIS/Core/Include/cmsis_gcc.h **** #endif
 102:HAL_Lib/CMSIS/Core/Include/cmsis_gcc.h **** #ifndef   __UNALIGNED_UINT32_READ
 103:HAL_Lib/CMSIS/Core/Include/cmsis_gcc.h ****   #pragma GCC diagnostic push
 104:HAL_Lib/CMSIS/Core/Include/cmsis_gcc.h ****   #pragma GCC diagnostic ignored "-Wpacked"
 105:HAL_Lib/CMSIS/Core/Include/cmsis_gcc.h ****   #pragma GCC diagnostic ignored "-Wattributes"
 106:HAL_Lib/CMSIS/Core/Include/cmsis_gcc.h ****   __PACKED_STRUCT T_UINT32_READ { uint32_t v; };
 107:HAL_Lib/CMSIS/Core/Include/cmsis_gcc.h ****   #pragma GCC diagnostic pop
 108:HAL_Lib/CMSIS/Core/Include/cmsis_gcc.h ****   #define __UNALIGNED_UINT32_READ(addr)          (((const struct T_UINT32_READ *)(const void *)(add
 109:HAL_Lib/CMSIS/Core/Include/cmsis_gcc.h **** #endif
 110:HAL_Lib/CMSIS/Core/Include/cmsis_gcc.h **** #ifndef   __ALIGNED
 111:HAL_Lib/CMSIS/Core/Include/cmsis_gcc.h ****   #define __ALIGNED(x)                           __attribute__((aligned(x)))
 112:HAL_Lib/CMSIS/Core/Include/cmsis_gcc.h **** #endif
 113:HAL_Lib/CMSIS/Core/Include/cmsis_gcc.h **** #ifndef   __RESTRICT
 114:HAL_Lib/CMSIS/Core/Include/cmsis_gcc.h ****   #define __RESTRICT                             __restrict
 115:HAL_Lib/CMSIS/Core/Include/cmsis_gcc.h **** #endif
 116:HAL_Lib/CMSIS/Core/Include/cmsis_gcc.h **** #ifndef   __COMPILER_BARRIER
 117:HAL_Lib/CMSIS/Core/Include/cmsis_gcc.h ****   #define __COMPILER_BARRIER()                   __ASM volatile("":::"memory")
 118:HAL_Lib/CMSIS/Core/Include/cmsis_gcc.h **** #endif
 119:HAL_Lib/CMSIS/Core/Include/cmsis_gcc.h **** 
 120:HAL_Lib/CMSIS/Core/Include/cmsis_gcc.h **** /* #########################  Startup and Lowlevel Init  ######################## */
 121:HAL_Lib/CMSIS/Core/Include/cmsis_gcc.h **** 
 122:HAL_Lib/CMSIS/Core/Include/cmsis_gcc.h **** #ifndef __PROGRAM_START
 123:HAL_Lib/CMSIS/Core/Include/cmsis_gcc.h **** 
 124:HAL_Lib/CMSIS/Core/Include/cmsis_gcc.h **** /**
 125:HAL_Lib/CMSIS/Core/Include/cmsis_gcc.h ****   \brief   Initializes data and bss sections
 126:HAL_Lib/CMSIS/Core/Include/cmsis_gcc.h ****   \details This default implementations initialized all data and additional bss
 127:HAL_Lib/CMSIS/Core/Include/cmsis_gcc.h ****            sections relying on .copy.table and .zero.table specified properly
 128:HAL_Lib/CMSIS/Core/Include/cmsis_gcc.h ****            in the used linker script.
 129:HAL_Lib/CMSIS/Core/Include/cmsis_gcc.h ****   
 130:HAL_Lib/CMSIS/Core/Include/cmsis_gcc.h ****  */
 131:HAL_Lib/CMSIS/Core/Include/cmsis_gcc.h **** __STATIC_FORCEINLINE __NO_RETURN void __cmsis_start(void)
 132:HAL_Lib/CMSIS/Core/Include/cmsis_gcc.h **** {
 133:HAL_Lib/CMSIS/Core/Include/cmsis_gcc.h ****   extern void _start(void) __NO_RETURN;
 134:HAL_Lib/CMSIS/Core/Include/cmsis_gcc.h ****   
 135:HAL_Lib/CMSIS/Core/Include/cmsis_gcc.h ****   typedef struct {
 136:HAL_Lib/CMSIS/Core/Include/cmsis_gcc.h ****     uint32_t const* src;
ARM GAS  C:\Users\HUAV\AppData\Local\Temp\ccFxhkJ1.s 			page 45


 137:HAL_Lib/CMSIS/Core/Include/cmsis_gcc.h ****     uint32_t* dest;
 138:HAL_Lib/CMSIS/Core/Include/cmsis_gcc.h ****     uint32_t  wlen;
 139:HAL_Lib/CMSIS/Core/Include/cmsis_gcc.h ****   } __copy_table_t;
 140:HAL_Lib/CMSIS/Core/Include/cmsis_gcc.h ****   
 141:HAL_Lib/CMSIS/Core/Include/cmsis_gcc.h ****   typedef struct {
 142:HAL_Lib/CMSIS/Core/Include/cmsis_gcc.h ****     uint32_t* dest;
 143:HAL_Lib/CMSIS/Core/Include/cmsis_gcc.h ****     uint32_t  wlen;
 144:HAL_Lib/CMSIS/Core/Include/cmsis_gcc.h ****   } __zero_table_t;
 145:HAL_Lib/CMSIS/Core/Include/cmsis_gcc.h ****   
 146:HAL_Lib/CMSIS/Core/Include/cmsis_gcc.h ****   extern const __copy_table_t __copy_table_start__;
 147:HAL_Lib/CMSIS/Core/Include/cmsis_gcc.h ****   extern const __copy_table_t __copy_table_end__;
 148:HAL_Lib/CMSIS/Core/Include/cmsis_gcc.h ****   extern const __zero_table_t __zero_table_start__;
 149:HAL_Lib/CMSIS/Core/Include/cmsis_gcc.h ****   extern const __zero_table_t __zero_table_end__;
 150:HAL_Lib/CMSIS/Core/Include/cmsis_gcc.h **** 
 151:HAL_Lib/CMSIS/Core/Include/cmsis_gcc.h ****   for (__copy_table_t const* pTable = &__copy_table_start__; pTable < &__copy_table_end__; ++pTable
 152:HAL_Lib/CMSIS/Core/Include/cmsis_gcc.h ****     for(uint32_t i=0u; i<pTable->wlen; ++i) {
 153:HAL_Lib/CMSIS/Core/Include/cmsis_gcc.h ****       pTable->dest[i] = pTable->src[i];
 154:HAL_Lib/CMSIS/Core/Include/cmsis_gcc.h ****     }
 155:HAL_Lib/CMSIS/Core/Include/cmsis_gcc.h ****   }
 156:HAL_Lib/CMSIS/Core/Include/cmsis_gcc.h ****  
 157:HAL_Lib/CMSIS/Core/Include/cmsis_gcc.h ****   for (__zero_table_t const* pTable = &__zero_table_start__; pTable < &__zero_table_end__; ++pTable
 158:HAL_Lib/CMSIS/Core/Include/cmsis_gcc.h ****     for(uint32_t i=0u; i<pTable->wlen; ++i) {
 159:HAL_Lib/CMSIS/Core/Include/cmsis_gcc.h ****       pTable->dest[i] = 0u;
 160:HAL_Lib/CMSIS/Core/Include/cmsis_gcc.h ****     }
 161:HAL_Lib/CMSIS/Core/Include/cmsis_gcc.h ****   }
 162:HAL_Lib/CMSIS/Core/Include/cmsis_gcc.h ****  
 163:HAL_Lib/CMSIS/Core/Include/cmsis_gcc.h ****   _start();
 164:HAL_Lib/CMSIS/Core/Include/cmsis_gcc.h **** }
 165:HAL_Lib/CMSIS/Core/Include/cmsis_gcc.h ****   
 166:HAL_Lib/CMSIS/Core/Include/cmsis_gcc.h **** #define __PROGRAM_START           __cmsis_start
 167:HAL_Lib/CMSIS/Core/Include/cmsis_gcc.h **** #endif
 168:HAL_Lib/CMSIS/Core/Include/cmsis_gcc.h **** 
 169:HAL_Lib/CMSIS/Core/Include/cmsis_gcc.h **** #ifndef __INITIAL_SP
 170:HAL_Lib/CMSIS/Core/Include/cmsis_gcc.h **** #define __INITIAL_SP              __StackTop
 171:HAL_Lib/CMSIS/Core/Include/cmsis_gcc.h **** #endif
 172:HAL_Lib/CMSIS/Core/Include/cmsis_gcc.h **** 
 173:HAL_Lib/CMSIS/Core/Include/cmsis_gcc.h **** #ifndef __STACK_LIMIT
 174:HAL_Lib/CMSIS/Core/Include/cmsis_gcc.h **** #define __STACK_LIMIT             __StackLimit
 175:HAL_Lib/CMSIS/Core/Include/cmsis_gcc.h **** #endif
 176:HAL_Lib/CMSIS/Core/Include/cmsis_gcc.h **** 
 177:HAL_Lib/CMSIS/Core/Include/cmsis_gcc.h **** #ifndef __VECTOR_TABLE
 178:HAL_Lib/CMSIS/Core/Include/cmsis_gcc.h **** #define __VECTOR_TABLE            __Vectors
 179:HAL_Lib/CMSIS/Core/Include/cmsis_gcc.h **** #endif
 180:HAL_Lib/CMSIS/Core/Include/cmsis_gcc.h **** 
 181:HAL_Lib/CMSIS/Core/Include/cmsis_gcc.h **** #ifndef __VECTOR_TABLE_ATTRIBUTE
 182:HAL_Lib/CMSIS/Core/Include/cmsis_gcc.h **** #define __VECTOR_TABLE_ATTRIBUTE  __attribute((used, section(".vectors")))
 183:HAL_Lib/CMSIS/Core/Include/cmsis_gcc.h **** #endif
 184:HAL_Lib/CMSIS/Core/Include/cmsis_gcc.h **** 
 185:HAL_Lib/CMSIS/Core/Include/cmsis_gcc.h **** /* ###########################  Core Function Access  ########################### */
 186:HAL_Lib/CMSIS/Core/Include/cmsis_gcc.h **** /** \ingroup  CMSIS_Core_FunctionInterface
 187:HAL_Lib/CMSIS/Core/Include/cmsis_gcc.h ****     \defgroup CMSIS_Core_RegAccFunctions CMSIS Core Register Access Functions
 188:HAL_Lib/CMSIS/Core/Include/cmsis_gcc.h ****   @{
 189:HAL_Lib/CMSIS/Core/Include/cmsis_gcc.h ****  */
 190:HAL_Lib/CMSIS/Core/Include/cmsis_gcc.h **** 
 191:HAL_Lib/CMSIS/Core/Include/cmsis_gcc.h **** /**
 192:HAL_Lib/CMSIS/Core/Include/cmsis_gcc.h ****   \brief   Enable IRQ Interrupts
 193:HAL_Lib/CMSIS/Core/Include/cmsis_gcc.h ****   \details Enables IRQ interrupts by clearing the I-bit in the CPSR.
ARM GAS  C:\Users\HUAV\AppData\Local\Temp\ccFxhkJ1.s 			page 46


 194:HAL_Lib/CMSIS/Core/Include/cmsis_gcc.h ****            Can only be executed in Privileged modes.
 195:HAL_Lib/CMSIS/Core/Include/cmsis_gcc.h ****  */
 196:HAL_Lib/CMSIS/Core/Include/cmsis_gcc.h **** __STATIC_FORCEINLINE void __enable_irq(void)
 197:HAL_Lib/CMSIS/Core/Include/cmsis_gcc.h **** {
 198:HAL_Lib/CMSIS/Core/Include/cmsis_gcc.h ****   __ASM volatile ("cpsie i" : : : "memory");
 199:HAL_Lib/CMSIS/Core/Include/cmsis_gcc.h **** }
 200:HAL_Lib/CMSIS/Core/Include/cmsis_gcc.h **** 
 201:HAL_Lib/CMSIS/Core/Include/cmsis_gcc.h **** 
 202:HAL_Lib/CMSIS/Core/Include/cmsis_gcc.h **** /**
 203:HAL_Lib/CMSIS/Core/Include/cmsis_gcc.h ****   \brief   Disable IRQ Interrupts
 204:HAL_Lib/CMSIS/Core/Include/cmsis_gcc.h ****   \details Disables IRQ interrupts by setting the I-bit in the CPSR.
 205:HAL_Lib/CMSIS/Core/Include/cmsis_gcc.h ****            Can only be executed in Privileged modes.
 206:HAL_Lib/CMSIS/Core/Include/cmsis_gcc.h ****  */
 207:HAL_Lib/CMSIS/Core/Include/cmsis_gcc.h **** __STATIC_FORCEINLINE void __disable_irq(void)
 208:HAL_Lib/CMSIS/Core/Include/cmsis_gcc.h **** {
 209:HAL_Lib/CMSIS/Core/Include/cmsis_gcc.h ****   __ASM volatile ("cpsid i" : : : "memory");
 210:HAL_Lib/CMSIS/Core/Include/cmsis_gcc.h **** }
 211:HAL_Lib/CMSIS/Core/Include/cmsis_gcc.h **** 
 212:HAL_Lib/CMSIS/Core/Include/cmsis_gcc.h **** 
 213:HAL_Lib/CMSIS/Core/Include/cmsis_gcc.h **** /**
 214:HAL_Lib/CMSIS/Core/Include/cmsis_gcc.h ****   \brief   Get Control Register
 215:HAL_Lib/CMSIS/Core/Include/cmsis_gcc.h ****   \details Returns the content of the Control Register.
 216:HAL_Lib/CMSIS/Core/Include/cmsis_gcc.h ****   \return               Control Register value
 217:HAL_Lib/CMSIS/Core/Include/cmsis_gcc.h ****  */
 218:HAL_Lib/CMSIS/Core/Include/cmsis_gcc.h **** __STATIC_FORCEINLINE uint32_t __get_CONTROL(void)
 219:HAL_Lib/CMSIS/Core/Include/cmsis_gcc.h **** {
 220:HAL_Lib/CMSIS/Core/Include/cmsis_gcc.h ****   uint32_t result;
 221:HAL_Lib/CMSIS/Core/Include/cmsis_gcc.h **** 
 222:HAL_Lib/CMSIS/Core/Include/cmsis_gcc.h ****   __ASM volatile ("MRS %0, control" : "=r" (result) );
 223:HAL_Lib/CMSIS/Core/Include/cmsis_gcc.h ****   return(result);
 224:HAL_Lib/CMSIS/Core/Include/cmsis_gcc.h **** }
 225:HAL_Lib/CMSIS/Core/Include/cmsis_gcc.h **** 
 226:HAL_Lib/CMSIS/Core/Include/cmsis_gcc.h **** 
 227:HAL_Lib/CMSIS/Core/Include/cmsis_gcc.h **** #if (defined (__ARM_FEATURE_CMSE ) && (__ARM_FEATURE_CMSE == 3))
 228:HAL_Lib/CMSIS/Core/Include/cmsis_gcc.h **** /**
 229:HAL_Lib/CMSIS/Core/Include/cmsis_gcc.h ****   \brief   Get Control Register (non-secure)
 230:HAL_Lib/CMSIS/Core/Include/cmsis_gcc.h ****   \details Returns the content of the non-secure Control Register when in secure mode.
 231:HAL_Lib/CMSIS/Core/Include/cmsis_gcc.h ****   \return               non-secure Control Register value
 232:HAL_Lib/CMSIS/Core/Include/cmsis_gcc.h ****  */
 233:HAL_Lib/CMSIS/Core/Include/cmsis_gcc.h **** __STATIC_FORCEINLINE uint32_t __TZ_get_CONTROL_NS(void)
 234:HAL_Lib/CMSIS/Core/Include/cmsis_gcc.h **** {
 235:HAL_Lib/CMSIS/Core/Include/cmsis_gcc.h ****   uint32_t result;
 236:HAL_Lib/CMSIS/Core/Include/cmsis_gcc.h **** 
 237:HAL_Lib/CMSIS/Core/Include/cmsis_gcc.h ****   __ASM volatile ("MRS %0, control_ns" : "=r" (result) );
 238:HAL_Lib/CMSIS/Core/Include/cmsis_gcc.h ****   return(result);
 239:HAL_Lib/CMSIS/Core/Include/cmsis_gcc.h **** }
 240:HAL_Lib/CMSIS/Core/Include/cmsis_gcc.h **** #endif
 241:HAL_Lib/CMSIS/Core/Include/cmsis_gcc.h **** 
 242:HAL_Lib/CMSIS/Core/Include/cmsis_gcc.h **** 
 243:HAL_Lib/CMSIS/Core/Include/cmsis_gcc.h **** /**
 244:HAL_Lib/CMSIS/Core/Include/cmsis_gcc.h ****   \brief   Set Control Register
 245:HAL_Lib/CMSIS/Core/Include/cmsis_gcc.h ****   \details Writes the given value to the Control Register.
 246:HAL_Lib/CMSIS/Core/Include/cmsis_gcc.h ****   \param [in]    control  Control Register value to set
 247:HAL_Lib/CMSIS/Core/Include/cmsis_gcc.h ****  */
 248:HAL_Lib/CMSIS/Core/Include/cmsis_gcc.h **** __STATIC_FORCEINLINE void __set_CONTROL(uint32_t control)
 249:HAL_Lib/CMSIS/Core/Include/cmsis_gcc.h **** {
 250:HAL_Lib/CMSIS/Core/Include/cmsis_gcc.h ****   __ASM volatile ("MSR control, %0" : : "r" (control) : "memory");
ARM GAS  C:\Users\HUAV\AppData\Local\Temp\ccFxhkJ1.s 			page 47


 251:HAL_Lib/CMSIS/Core/Include/cmsis_gcc.h **** }
 252:HAL_Lib/CMSIS/Core/Include/cmsis_gcc.h **** 
 253:HAL_Lib/CMSIS/Core/Include/cmsis_gcc.h **** 
 254:HAL_Lib/CMSIS/Core/Include/cmsis_gcc.h **** #if (defined (__ARM_FEATURE_CMSE ) && (__ARM_FEATURE_CMSE == 3))
 255:HAL_Lib/CMSIS/Core/Include/cmsis_gcc.h **** /**
 256:HAL_Lib/CMSIS/Core/Include/cmsis_gcc.h ****   \brief   Set Control Register (non-secure)
 257:HAL_Lib/CMSIS/Core/Include/cmsis_gcc.h ****   \details Writes the given value to the non-secure Control Register when in secure state.
 258:HAL_Lib/CMSIS/Core/Include/cmsis_gcc.h ****   \param [in]    control  Control Register value to set
 259:HAL_Lib/CMSIS/Core/Include/cmsis_gcc.h ****  */
 260:HAL_Lib/CMSIS/Core/Include/cmsis_gcc.h **** __STATIC_FORCEINLINE void __TZ_set_CONTROL_NS(uint32_t control)
 261:HAL_Lib/CMSIS/Core/Include/cmsis_gcc.h **** {
 262:HAL_Lib/CMSIS/Core/Include/cmsis_gcc.h ****   __ASM volatile ("MSR control_ns, %0" : : "r" (control) : "memory");
 263:HAL_Lib/CMSIS/Core/Include/cmsis_gcc.h **** }
 264:HAL_Lib/CMSIS/Core/Include/cmsis_gcc.h **** #endif
 265:HAL_Lib/CMSIS/Core/Include/cmsis_gcc.h **** 
 266:HAL_Lib/CMSIS/Core/Include/cmsis_gcc.h **** 
 267:HAL_Lib/CMSIS/Core/Include/cmsis_gcc.h **** /**
 268:HAL_Lib/CMSIS/Core/Include/cmsis_gcc.h ****   \brief   Get IPSR Register
 269:HAL_Lib/CMSIS/Core/Include/cmsis_gcc.h ****   \details Returns the content of the IPSR Register.
 270:HAL_Lib/CMSIS/Core/Include/cmsis_gcc.h ****   \return               IPSR Register value
 271:HAL_Lib/CMSIS/Core/Include/cmsis_gcc.h ****  */
 272:HAL_Lib/CMSIS/Core/Include/cmsis_gcc.h **** __STATIC_FORCEINLINE uint32_t __get_IPSR(void)
 273:HAL_Lib/CMSIS/Core/Include/cmsis_gcc.h **** {
 274:HAL_Lib/CMSIS/Core/Include/cmsis_gcc.h ****   uint32_t result;
 275:HAL_Lib/CMSIS/Core/Include/cmsis_gcc.h **** 
 276:HAL_Lib/CMSIS/Core/Include/cmsis_gcc.h ****   __ASM volatile ("MRS %0, ipsr" : "=r" (result) );
 277:HAL_Lib/CMSIS/Core/Include/cmsis_gcc.h ****   return(result);
 278:HAL_Lib/CMSIS/Core/Include/cmsis_gcc.h **** }
 279:HAL_Lib/CMSIS/Core/Include/cmsis_gcc.h **** 
 280:HAL_Lib/CMSIS/Core/Include/cmsis_gcc.h **** 
 281:HAL_Lib/CMSIS/Core/Include/cmsis_gcc.h **** /**
 282:HAL_Lib/CMSIS/Core/Include/cmsis_gcc.h ****   \brief   Get APSR Register
 283:HAL_Lib/CMSIS/Core/Include/cmsis_gcc.h ****   \details Returns the content of the APSR Register.
 284:HAL_Lib/CMSIS/Core/Include/cmsis_gcc.h ****   \return               APSR Register value
 285:HAL_Lib/CMSIS/Core/Include/cmsis_gcc.h ****  */
 286:HAL_Lib/CMSIS/Core/Include/cmsis_gcc.h **** __STATIC_FORCEINLINE uint32_t __get_APSR(void)
 287:HAL_Lib/CMSIS/Core/Include/cmsis_gcc.h **** {
 288:HAL_Lib/CMSIS/Core/Include/cmsis_gcc.h ****   uint32_t result;
 289:HAL_Lib/CMSIS/Core/Include/cmsis_gcc.h **** 
 290:HAL_Lib/CMSIS/Core/Include/cmsis_gcc.h ****   __ASM volatile ("MRS %0, apsr" : "=r" (result) );
 291:HAL_Lib/CMSIS/Core/Include/cmsis_gcc.h ****   return(result);
 292:HAL_Lib/CMSIS/Core/Include/cmsis_gcc.h **** }
 293:HAL_Lib/CMSIS/Core/Include/cmsis_gcc.h **** 
 294:HAL_Lib/CMSIS/Core/Include/cmsis_gcc.h **** 
 295:HAL_Lib/CMSIS/Core/Include/cmsis_gcc.h **** /**
 296:HAL_Lib/CMSIS/Core/Include/cmsis_gcc.h ****   \brief   Get xPSR Register
 297:HAL_Lib/CMSIS/Core/Include/cmsis_gcc.h ****   \details Returns the content of the xPSR Register.
 298:HAL_Lib/CMSIS/Core/Include/cmsis_gcc.h ****   \return               xPSR Register value
 299:HAL_Lib/CMSIS/Core/Include/cmsis_gcc.h ****  */
 300:HAL_Lib/CMSIS/Core/Include/cmsis_gcc.h **** __STATIC_FORCEINLINE uint32_t __get_xPSR(void)
 301:HAL_Lib/CMSIS/Core/Include/cmsis_gcc.h **** {
 302:HAL_Lib/CMSIS/Core/Include/cmsis_gcc.h ****   uint32_t result;
 303:HAL_Lib/CMSIS/Core/Include/cmsis_gcc.h **** 
 304:HAL_Lib/CMSIS/Core/Include/cmsis_gcc.h ****   __ASM volatile ("MRS %0, xpsr" : "=r" (result) );
 305:HAL_Lib/CMSIS/Core/Include/cmsis_gcc.h ****   return(result);
 306:HAL_Lib/CMSIS/Core/Include/cmsis_gcc.h **** }
 307:HAL_Lib/CMSIS/Core/Include/cmsis_gcc.h **** 
ARM GAS  C:\Users\HUAV\AppData\Local\Temp\ccFxhkJ1.s 			page 48


 308:HAL_Lib/CMSIS/Core/Include/cmsis_gcc.h **** 
 309:HAL_Lib/CMSIS/Core/Include/cmsis_gcc.h **** /**
 310:HAL_Lib/CMSIS/Core/Include/cmsis_gcc.h ****   \brief   Get Process Stack Pointer
 311:HAL_Lib/CMSIS/Core/Include/cmsis_gcc.h ****   \details Returns the current value of the Process Stack Pointer (PSP).
 312:HAL_Lib/CMSIS/Core/Include/cmsis_gcc.h ****   \return               PSP Register value
 313:HAL_Lib/CMSIS/Core/Include/cmsis_gcc.h ****  */
 314:HAL_Lib/CMSIS/Core/Include/cmsis_gcc.h **** __STATIC_FORCEINLINE uint32_t __get_PSP(void)
 315:HAL_Lib/CMSIS/Core/Include/cmsis_gcc.h **** {
 316:HAL_Lib/CMSIS/Core/Include/cmsis_gcc.h ****   uint32_t result;
 317:HAL_Lib/CMSIS/Core/Include/cmsis_gcc.h **** 
 318:HAL_Lib/CMSIS/Core/Include/cmsis_gcc.h ****   __ASM volatile ("MRS %0, psp"  : "=r" (result) );
 319:HAL_Lib/CMSIS/Core/Include/cmsis_gcc.h ****   return(result);
 320:HAL_Lib/CMSIS/Core/Include/cmsis_gcc.h **** }
 321:HAL_Lib/CMSIS/Core/Include/cmsis_gcc.h **** 
 322:HAL_Lib/CMSIS/Core/Include/cmsis_gcc.h **** 
 323:HAL_Lib/CMSIS/Core/Include/cmsis_gcc.h **** #if (defined (__ARM_FEATURE_CMSE ) && (__ARM_FEATURE_CMSE == 3))
 324:HAL_Lib/CMSIS/Core/Include/cmsis_gcc.h **** /**
 325:HAL_Lib/CMSIS/Core/Include/cmsis_gcc.h ****   \brief   Get Process Stack Pointer (non-secure)
 326:HAL_Lib/CMSIS/Core/Include/cmsis_gcc.h ****   \details Returns the current value of the non-secure Process Stack Pointer (PSP) when in secure s
 327:HAL_Lib/CMSIS/Core/Include/cmsis_gcc.h ****   \return               PSP Register value
 328:HAL_Lib/CMSIS/Core/Include/cmsis_gcc.h ****  */
 329:HAL_Lib/CMSIS/Core/Include/cmsis_gcc.h **** __STATIC_FORCEINLINE uint32_t __TZ_get_PSP_NS(void)
 330:HAL_Lib/CMSIS/Core/Include/cmsis_gcc.h **** {
 331:HAL_Lib/CMSIS/Core/Include/cmsis_gcc.h ****   uint32_t result;
 332:HAL_Lib/CMSIS/Core/Include/cmsis_gcc.h **** 
 333:HAL_Lib/CMSIS/Core/Include/cmsis_gcc.h ****   __ASM volatile ("MRS %0, psp_ns"  : "=r" (result) );
 334:HAL_Lib/CMSIS/Core/Include/cmsis_gcc.h ****   return(result);
 335:HAL_Lib/CMSIS/Core/Include/cmsis_gcc.h **** }
 336:HAL_Lib/CMSIS/Core/Include/cmsis_gcc.h **** #endif
 337:HAL_Lib/CMSIS/Core/Include/cmsis_gcc.h **** 
 338:HAL_Lib/CMSIS/Core/Include/cmsis_gcc.h **** 
 339:HAL_Lib/CMSIS/Core/Include/cmsis_gcc.h **** /**
 340:HAL_Lib/CMSIS/Core/Include/cmsis_gcc.h ****   \brief   Set Process Stack Pointer
 341:HAL_Lib/CMSIS/Core/Include/cmsis_gcc.h ****   \details Assigns the given value to the Process Stack Pointer (PSP).
 342:HAL_Lib/CMSIS/Core/Include/cmsis_gcc.h ****   \param [in]    topOfProcStack  Process Stack Pointer value to set
 343:HAL_Lib/CMSIS/Core/Include/cmsis_gcc.h ****  */
 344:HAL_Lib/CMSIS/Core/Include/cmsis_gcc.h **** __STATIC_FORCEINLINE void __set_PSP(uint32_t topOfProcStack)
 345:HAL_Lib/CMSIS/Core/Include/cmsis_gcc.h **** {
 346:HAL_Lib/CMSIS/Core/Include/cmsis_gcc.h ****   __ASM volatile ("MSR psp, %0" : : "r" (topOfProcStack) : );
 347:HAL_Lib/CMSIS/Core/Include/cmsis_gcc.h **** }
 348:HAL_Lib/CMSIS/Core/Include/cmsis_gcc.h **** 
 349:HAL_Lib/CMSIS/Core/Include/cmsis_gcc.h **** 
 350:HAL_Lib/CMSIS/Core/Include/cmsis_gcc.h **** #if (defined (__ARM_FEATURE_CMSE ) && (__ARM_FEATURE_CMSE == 3))
 351:HAL_Lib/CMSIS/Core/Include/cmsis_gcc.h **** /**
 352:HAL_Lib/CMSIS/Core/Include/cmsis_gcc.h ****   \brief   Set Process Stack Pointer (non-secure)
 353:HAL_Lib/CMSIS/Core/Include/cmsis_gcc.h ****   \details Assigns the given value to the non-secure Process Stack Pointer (PSP) when in secure sta
 354:HAL_Lib/CMSIS/Core/Include/cmsis_gcc.h ****   \param [in]    topOfProcStack  Process Stack Pointer value to set
 355:HAL_Lib/CMSIS/Core/Include/cmsis_gcc.h ****  */
 356:HAL_Lib/CMSIS/Core/Include/cmsis_gcc.h **** __STATIC_FORCEINLINE void __TZ_set_PSP_NS(uint32_t topOfProcStack)
 357:HAL_Lib/CMSIS/Core/Include/cmsis_gcc.h **** {
 358:HAL_Lib/CMSIS/Core/Include/cmsis_gcc.h ****   __ASM volatile ("MSR psp_ns, %0" : : "r" (topOfProcStack) : );
 359:HAL_Lib/CMSIS/Core/Include/cmsis_gcc.h **** }
 360:HAL_Lib/CMSIS/Core/Include/cmsis_gcc.h **** #endif
 361:HAL_Lib/CMSIS/Core/Include/cmsis_gcc.h **** 
 362:HAL_Lib/CMSIS/Core/Include/cmsis_gcc.h **** 
 363:HAL_Lib/CMSIS/Core/Include/cmsis_gcc.h **** /**
 364:HAL_Lib/CMSIS/Core/Include/cmsis_gcc.h ****   \brief   Get Main Stack Pointer
ARM GAS  C:\Users\HUAV\AppData\Local\Temp\ccFxhkJ1.s 			page 49


 365:HAL_Lib/CMSIS/Core/Include/cmsis_gcc.h ****   \details Returns the current value of the Main Stack Pointer (MSP).
 366:HAL_Lib/CMSIS/Core/Include/cmsis_gcc.h ****   \return               MSP Register value
 367:HAL_Lib/CMSIS/Core/Include/cmsis_gcc.h ****  */
 368:HAL_Lib/CMSIS/Core/Include/cmsis_gcc.h **** __STATIC_FORCEINLINE uint32_t __get_MSP(void)
 369:HAL_Lib/CMSIS/Core/Include/cmsis_gcc.h **** {
 370:HAL_Lib/CMSIS/Core/Include/cmsis_gcc.h ****   uint32_t result;
 371:HAL_Lib/CMSIS/Core/Include/cmsis_gcc.h **** 
 372:HAL_Lib/CMSIS/Core/Include/cmsis_gcc.h ****   __ASM volatile ("MRS %0, msp" : "=r" (result) );
 373:HAL_Lib/CMSIS/Core/Include/cmsis_gcc.h ****   return(result);
 374:HAL_Lib/CMSIS/Core/Include/cmsis_gcc.h **** }
 375:HAL_Lib/CMSIS/Core/Include/cmsis_gcc.h **** 
 376:HAL_Lib/CMSIS/Core/Include/cmsis_gcc.h **** 
 377:HAL_Lib/CMSIS/Core/Include/cmsis_gcc.h **** #if (defined (__ARM_FEATURE_CMSE ) && (__ARM_FEATURE_CMSE == 3))
 378:HAL_Lib/CMSIS/Core/Include/cmsis_gcc.h **** /**
 379:HAL_Lib/CMSIS/Core/Include/cmsis_gcc.h ****   \brief   Get Main Stack Pointer (non-secure)
 380:HAL_Lib/CMSIS/Core/Include/cmsis_gcc.h ****   \details Returns the current value of the non-secure Main Stack Pointer (MSP) when in secure stat
 381:HAL_Lib/CMSIS/Core/Include/cmsis_gcc.h ****   \return               MSP Register value
 382:HAL_Lib/CMSIS/Core/Include/cmsis_gcc.h ****  */
 383:HAL_Lib/CMSIS/Core/Include/cmsis_gcc.h **** __STATIC_FORCEINLINE uint32_t __TZ_get_MSP_NS(void)
 384:HAL_Lib/CMSIS/Core/Include/cmsis_gcc.h **** {
 385:HAL_Lib/CMSIS/Core/Include/cmsis_gcc.h ****   uint32_t result;
 386:HAL_Lib/CMSIS/Core/Include/cmsis_gcc.h **** 
 387:HAL_Lib/CMSIS/Core/Include/cmsis_gcc.h ****   __ASM volatile ("MRS %0, msp_ns" : "=r" (result) );
 388:HAL_Lib/CMSIS/Core/Include/cmsis_gcc.h ****   return(result);
 389:HAL_Lib/CMSIS/Core/Include/cmsis_gcc.h **** }
 390:HAL_Lib/CMSIS/Core/Include/cmsis_gcc.h **** #endif
 391:HAL_Lib/CMSIS/Core/Include/cmsis_gcc.h **** 
 392:HAL_Lib/CMSIS/Core/Include/cmsis_gcc.h **** 
 393:HAL_Lib/CMSIS/Core/Include/cmsis_gcc.h **** /**
 394:HAL_Lib/CMSIS/Core/Include/cmsis_gcc.h ****   \brief   Set Main Stack Pointer
 395:HAL_Lib/CMSIS/Core/Include/cmsis_gcc.h ****   \details Assigns the given value to the Main Stack Pointer (MSP).
 396:HAL_Lib/CMSIS/Core/Include/cmsis_gcc.h ****   \param [in]    topOfMainStack  Main Stack Pointer value to set
 397:HAL_Lib/CMSIS/Core/Include/cmsis_gcc.h ****  */
 398:HAL_Lib/CMSIS/Core/Include/cmsis_gcc.h **** __STATIC_FORCEINLINE void __set_MSP(uint32_t topOfMainStack)
 399:HAL_Lib/CMSIS/Core/Include/cmsis_gcc.h **** {
 400:HAL_Lib/CMSIS/Core/Include/cmsis_gcc.h ****   __ASM volatile ("MSR msp, %0" : : "r" (topOfMainStack) : );
 401:HAL_Lib/CMSIS/Core/Include/cmsis_gcc.h **** }
 402:HAL_Lib/CMSIS/Core/Include/cmsis_gcc.h **** 
 403:HAL_Lib/CMSIS/Core/Include/cmsis_gcc.h **** 
 404:HAL_Lib/CMSIS/Core/Include/cmsis_gcc.h **** #if (defined (__ARM_FEATURE_CMSE ) && (__ARM_FEATURE_CMSE == 3))
 405:HAL_Lib/CMSIS/Core/Include/cmsis_gcc.h **** /**
 406:HAL_Lib/CMSIS/Core/Include/cmsis_gcc.h ****   \brief   Set Main Stack Pointer (non-secure)
 407:HAL_Lib/CMSIS/Core/Include/cmsis_gcc.h ****   \details Assigns the given value to the non-secure Main Stack Pointer (MSP) when in secure state.
 408:HAL_Lib/CMSIS/Core/Include/cmsis_gcc.h ****   \param [in]    topOfMainStack  Main Stack Pointer value to set
 409:HAL_Lib/CMSIS/Core/Include/cmsis_gcc.h ****  */
 410:HAL_Lib/CMSIS/Core/Include/cmsis_gcc.h **** __STATIC_FORCEINLINE void __TZ_set_MSP_NS(uint32_t topOfMainStack)
 411:HAL_Lib/CMSIS/Core/Include/cmsis_gcc.h **** {
 412:HAL_Lib/CMSIS/Core/Include/cmsis_gcc.h ****   __ASM volatile ("MSR msp_ns, %0" : : "r" (topOfMainStack) : );
 413:HAL_Lib/CMSIS/Core/Include/cmsis_gcc.h **** }
 414:HAL_Lib/CMSIS/Core/Include/cmsis_gcc.h **** #endif
 415:HAL_Lib/CMSIS/Core/Include/cmsis_gcc.h **** 
 416:HAL_Lib/CMSIS/Core/Include/cmsis_gcc.h **** 
 417:HAL_Lib/CMSIS/Core/Include/cmsis_gcc.h **** #if (defined (__ARM_FEATURE_CMSE ) && (__ARM_FEATURE_CMSE == 3))
 418:HAL_Lib/CMSIS/Core/Include/cmsis_gcc.h **** /**
 419:HAL_Lib/CMSIS/Core/Include/cmsis_gcc.h ****   \brief   Get Stack Pointer (non-secure)
 420:HAL_Lib/CMSIS/Core/Include/cmsis_gcc.h ****   \details Returns the current value of the non-secure Stack Pointer (SP) when in secure state.
 421:HAL_Lib/CMSIS/Core/Include/cmsis_gcc.h ****   \return               SP Register value
ARM GAS  C:\Users\HUAV\AppData\Local\Temp\ccFxhkJ1.s 			page 50


 422:HAL_Lib/CMSIS/Core/Include/cmsis_gcc.h ****  */
 423:HAL_Lib/CMSIS/Core/Include/cmsis_gcc.h **** __STATIC_FORCEINLINE uint32_t __TZ_get_SP_NS(void)
 424:HAL_Lib/CMSIS/Core/Include/cmsis_gcc.h **** {
 425:HAL_Lib/CMSIS/Core/Include/cmsis_gcc.h ****   uint32_t result;
 426:HAL_Lib/CMSIS/Core/Include/cmsis_gcc.h **** 
 427:HAL_Lib/CMSIS/Core/Include/cmsis_gcc.h ****   __ASM volatile ("MRS %0, sp_ns" : "=r" (result) );
 428:HAL_Lib/CMSIS/Core/Include/cmsis_gcc.h ****   return(result);
 429:HAL_Lib/CMSIS/Core/Include/cmsis_gcc.h **** }
 430:HAL_Lib/CMSIS/Core/Include/cmsis_gcc.h **** 
 431:HAL_Lib/CMSIS/Core/Include/cmsis_gcc.h **** 
 432:HAL_Lib/CMSIS/Core/Include/cmsis_gcc.h **** /**
 433:HAL_Lib/CMSIS/Core/Include/cmsis_gcc.h ****   \brief   Set Stack Pointer (non-secure)
 434:HAL_Lib/CMSIS/Core/Include/cmsis_gcc.h ****   \details Assigns the given value to the non-secure Stack Pointer (SP) when in secure state.
 435:HAL_Lib/CMSIS/Core/Include/cmsis_gcc.h ****   \param [in]    topOfStack  Stack Pointer value to set
 436:HAL_Lib/CMSIS/Core/Include/cmsis_gcc.h ****  */
 437:HAL_Lib/CMSIS/Core/Include/cmsis_gcc.h **** __STATIC_FORCEINLINE void __TZ_set_SP_NS(uint32_t topOfStack)
 438:HAL_Lib/CMSIS/Core/Include/cmsis_gcc.h **** {
 439:HAL_Lib/CMSIS/Core/Include/cmsis_gcc.h ****   __ASM volatile ("MSR sp_ns, %0" : : "r" (topOfStack) : );
 440:HAL_Lib/CMSIS/Core/Include/cmsis_gcc.h **** }
 441:HAL_Lib/CMSIS/Core/Include/cmsis_gcc.h **** #endif
 442:HAL_Lib/CMSIS/Core/Include/cmsis_gcc.h **** 
 443:HAL_Lib/CMSIS/Core/Include/cmsis_gcc.h **** 
 444:HAL_Lib/CMSIS/Core/Include/cmsis_gcc.h **** /**
 445:HAL_Lib/CMSIS/Core/Include/cmsis_gcc.h ****   \brief   Get Priority Mask
 446:HAL_Lib/CMSIS/Core/Include/cmsis_gcc.h ****   \details Returns the current state of the priority mask bit from the Priority Mask Register.
 447:HAL_Lib/CMSIS/Core/Include/cmsis_gcc.h ****   \return               Priority Mask value
 448:HAL_Lib/CMSIS/Core/Include/cmsis_gcc.h ****  */
 449:HAL_Lib/CMSIS/Core/Include/cmsis_gcc.h **** __STATIC_FORCEINLINE uint32_t __get_PRIMASK(void)
 450:HAL_Lib/CMSIS/Core/Include/cmsis_gcc.h **** {
 451:HAL_Lib/CMSIS/Core/Include/cmsis_gcc.h ****   uint32_t result;
 452:HAL_Lib/CMSIS/Core/Include/cmsis_gcc.h **** 
 453:HAL_Lib/CMSIS/Core/Include/cmsis_gcc.h ****   __ASM volatile ("MRS %0, primask" : "=r" (result) :: "memory");
 454:HAL_Lib/CMSIS/Core/Include/cmsis_gcc.h ****   return(result);
 455:HAL_Lib/CMSIS/Core/Include/cmsis_gcc.h **** }
 456:HAL_Lib/CMSIS/Core/Include/cmsis_gcc.h **** 
 457:HAL_Lib/CMSIS/Core/Include/cmsis_gcc.h **** 
 458:HAL_Lib/CMSIS/Core/Include/cmsis_gcc.h **** #if (defined (__ARM_FEATURE_CMSE ) && (__ARM_FEATURE_CMSE == 3))
 459:HAL_Lib/CMSIS/Core/Include/cmsis_gcc.h **** /**
 460:HAL_Lib/CMSIS/Core/Include/cmsis_gcc.h ****   \brief   Get Priority Mask (non-secure)
 461:HAL_Lib/CMSIS/Core/Include/cmsis_gcc.h ****   \details Returns the current state of the non-secure priority mask bit from the Priority Mask Reg
 462:HAL_Lib/CMSIS/Core/Include/cmsis_gcc.h ****   \return               Priority Mask value
 463:HAL_Lib/CMSIS/Core/Include/cmsis_gcc.h ****  */
 464:HAL_Lib/CMSIS/Core/Include/cmsis_gcc.h **** __STATIC_FORCEINLINE uint32_t __TZ_get_PRIMASK_NS(void)
 465:HAL_Lib/CMSIS/Core/Include/cmsis_gcc.h **** {
 466:HAL_Lib/CMSIS/Core/Include/cmsis_gcc.h ****   uint32_t result;
 467:HAL_Lib/CMSIS/Core/Include/cmsis_gcc.h **** 
 468:HAL_Lib/CMSIS/Core/Include/cmsis_gcc.h ****   __ASM volatile ("MRS %0, primask_ns" : "=r" (result) :: "memory");
 469:HAL_Lib/CMSIS/Core/Include/cmsis_gcc.h ****   return(result);
 470:HAL_Lib/CMSIS/Core/Include/cmsis_gcc.h **** }
 471:HAL_Lib/CMSIS/Core/Include/cmsis_gcc.h **** #endif
 472:HAL_Lib/CMSIS/Core/Include/cmsis_gcc.h **** 
 473:HAL_Lib/CMSIS/Core/Include/cmsis_gcc.h **** 
 474:HAL_Lib/CMSIS/Core/Include/cmsis_gcc.h **** /**
 475:HAL_Lib/CMSIS/Core/Include/cmsis_gcc.h ****   \brief   Set Priority Mask
 476:HAL_Lib/CMSIS/Core/Include/cmsis_gcc.h ****   \details Assigns the given value to the Priority Mask Register.
 477:HAL_Lib/CMSIS/Core/Include/cmsis_gcc.h ****   \param [in]    priMask  Priority Mask
 478:HAL_Lib/CMSIS/Core/Include/cmsis_gcc.h ****  */
ARM GAS  C:\Users\HUAV\AppData\Local\Temp\ccFxhkJ1.s 			page 51


 479:HAL_Lib/CMSIS/Core/Include/cmsis_gcc.h **** __STATIC_FORCEINLINE void __set_PRIMASK(uint32_t priMask)
 480:HAL_Lib/CMSIS/Core/Include/cmsis_gcc.h **** {
 481:HAL_Lib/CMSIS/Core/Include/cmsis_gcc.h ****   __ASM volatile ("MSR primask, %0" : : "r" (priMask) : "memory");
 482:HAL_Lib/CMSIS/Core/Include/cmsis_gcc.h **** }
 483:HAL_Lib/CMSIS/Core/Include/cmsis_gcc.h **** 
 484:HAL_Lib/CMSIS/Core/Include/cmsis_gcc.h **** 
 485:HAL_Lib/CMSIS/Core/Include/cmsis_gcc.h **** #if (defined (__ARM_FEATURE_CMSE ) && (__ARM_FEATURE_CMSE == 3))
 486:HAL_Lib/CMSIS/Core/Include/cmsis_gcc.h **** /**
 487:HAL_Lib/CMSIS/Core/Include/cmsis_gcc.h ****   \brief   Set Priority Mask (non-secure)
 488:HAL_Lib/CMSIS/Core/Include/cmsis_gcc.h ****   \details Assigns the given value to the non-secure Priority Mask Register when in secure state.
 489:HAL_Lib/CMSIS/Core/Include/cmsis_gcc.h ****   \param [in]    priMask  Priority Mask
 490:HAL_Lib/CMSIS/Core/Include/cmsis_gcc.h ****  */
 491:HAL_Lib/CMSIS/Core/Include/cmsis_gcc.h **** __STATIC_FORCEINLINE void __TZ_set_PRIMASK_NS(uint32_t priMask)
 492:HAL_Lib/CMSIS/Core/Include/cmsis_gcc.h **** {
 493:HAL_Lib/CMSIS/Core/Include/cmsis_gcc.h ****   __ASM volatile ("MSR primask_ns, %0" : : "r" (priMask) : "memory");
 494:HAL_Lib/CMSIS/Core/Include/cmsis_gcc.h **** }
 495:HAL_Lib/CMSIS/Core/Include/cmsis_gcc.h **** #endif
 496:HAL_Lib/CMSIS/Core/Include/cmsis_gcc.h **** 
 497:HAL_Lib/CMSIS/Core/Include/cmsis_gcc.h **** 
 498:HAL_Lib/CMSIS/Core/Include/cmsis_gcc.h **** #if ((defined (__ARM_ARCH_7M__      ) && (__ARM_ARCH_7M__      == 1)) || \
 499:HAL_Lib/CMSIS/Core/Include/cmsis_gcc.h ****      (defined (__ARM_ARCH_7EM__     ) && (__ARM_ARCH_7EM__     == 1)) || \
 500:HAL_Lib/CMSIS/Core/Include/cmsis_gcc.h ****      (defined (__ARM_ARCH_8M_MAIN__ ) && (__ARM_ARCH_8M_MAIN__ == 1))    )
 501:HAL_Lib/CMSIS/Core/Include/cmsis_gcc.h **** /**
 502:HAL_Lib/CMSIS/Core/Include/cmsis_gcc.h ****   \brief   Enable FIQ
 503:HAL_Lib/CMSIS/Core/Include/cmsis_gcc.h ****   \details Enables FIQ interrupts by clearing the F-bit in the CPSR.
 504:HAL_Lib/CMSIS/Core/Include/cmsis_gcc.h ****            Can only be executed in Privileged modes.
 505:HAL_Lib/CMSIS/Core/Include/cmsis_gcc.h ****  */
 506:HAL_Lib/CMSIS/Core/Include/cmsis_gcc.h **** __STATIC_FORCEINLINE void __enable_fault_irq(void)
 507:HAL_Lib/CMSIS/Core/Include/cmsis_gcc.h **** {
 508:HAL_Lib/CMSIS/Core/Include/cmsis_gcc.h ****   __ASM volatile ("cpsie f" : : : "memory");
 509:HAL_Lib/CMSIS/Core/Include/cmsis_gcc.h **** }
 510:HAL_Lib/CMSIS/Core/Include/cmsis_gcc.h **** 
 511:HAL_Lib/CMSIS/Core/Include/cmsis_gcc.h **** 
 512:HAL_Lib/CMSIS/Core/Include/cmsis_gcc.h **** /**
 513:HAL_Lib/CMSIS/Core/Include/cmsis_gcc.h ****   \brief   Disable FIQ
 514:HAL_Lib/CMSIS/Core/Include/cmsis_gcc.h ****   \details Disables FIQ interrupts by setting the F-bit in the CPSR.
 515:HAL_Lib/CMSIS/Core/Include/cmsis_gcc.h ****            Can only be executed in Privileged modes.
 516:HAL_Lib/CMSIS/Core/Include/cmsis_gcc.h ****  */
 517:HAL_Lib/CMSIS/Core/Include/cmsis_gcc.h **** __STATIC_FORCEINLINE void __disable_fault_irq(void)
 518:HAL_Lib/CMSIS/Core/Include/cmsis_gcc.h **** {
 519:HAL_Lib/CMSIS/Core/Include/cmsis_gcc.h ****   __ASM volatile ("cpsid f" : : : "memory");
 520:HAL_Lib/CMSIS/Core/Include/cmsis_gcc.h **** }
 521:HAL_Lib/CMSIS/Core/Include/cmsis_gcc.h **** 
 522:HAL_Lib/CMSIS/Core/Include/cmsis_gcc.h **** 
 523:HAL_Lib/CMSIS/Core/Include/cmsis_gcc.h **** /**
 524:HAL_Lib/CMSIS/Core/Include/cmsis_gcc.h ****   \brief   Get Base Priority
 525:HAL_Lib/CMSIS/Core/Include/cmsis_gcc.h ****   \details Returns the current value of the Base Priority register.
 526:HAL_Lib/CMSIS/Core/Include/cmsis_gcc.h ****   \return               Base Priority register value
 527:HAL_Lib/CMSIS/Core/Include/cmsis_gcc.h ****  */
 528:HAL_Lib/CMSIS/Core/Include/cmsis_gcc.h **** __STATIC_FORCEINLINE uint32_t __get_BASEPRI(void)
 529:HAL_Lib/CMSIS/Core/Include/cmsis_gcc.h **** {
 530:HAL_Lib/CMSIS/Core/Include/cmsis_gcc.h ****   uint32_t result;
 531:HAL_Lib/CMSIS/Core/Include/cmsis_gcc.h **** 
 532:HAL_Lib/CMSIS/Core/Include/cmsis_gcc.h ****   __ASM volatile ("MRS %0, basepri" : "=r" (result) );
 533:HAL_Lib/CMSIS/Core/Include/cmsis_gcc.h ****   return(result);
 534:HAL_Lib/CMSIS/Core/Include/cmsis_gcc.h **** }
 535:HAL_Lib/CMSIS/Core/Include/cmsis_gcc.h **** 
ARM GAS  C:\Users\HUAV\AppData\Local\Temp\ccFxhkJ1.s 			page 52


 536:HAL_Lib/CMSIS/Core/Include/cmsis_gcc.h **** 
 537:HAL_Lib/CMSIS/Core/Include/cmsis_gcc.h **** #if (defined (__ARM_FEATURE_CMSE ) && (__ARM_FEATURE_CMSE == 3))
 538:HAL_Lib/CMSIS/Core/Include/cmsis_gcc.h **** /**
 539:HAL_Lib/CMSIS/Core/Include/cmsis_gcc.h ****   \brief   Get Base Priority (non-secure)
 540:HAL_Lib/CMSIS/Core/Include/cmsis_gcc.h ****   \details Returns the current value of the non-secure Base Priority register when in secure state.
 541:HAL_Lib/CMSIS/Core/Include/cmsis_gcc.h ****   \return               Base Priority register value
 542:HAL_Lib/CMSIS/Core/Include/cmsis_gcc.h ****  */
 543:HAL_Lib/CMSIS/Core/Include/cmsis_gcc.h **** __STATIC_FORCEINLINE uint32_t __TZ_get_BASEPRI_NS(void)
 544:HAL_Lib/CMSIS/Core/Include/cmsis_gcc.h **** {
 545:HAL_Lib/CMSIS/Core/Include/cmsis_gcc.h ****   uint32_t result;
 546:HAL_Lib/CMSIS/Core/Include/cmsis_gcc.h **** 
 547:HAL_Lib/CMSIS/Core/Include/cmsis_gcc.h ****   __ASM volatile ("MRS %0, basepri_ns" : "=r" (result) );
 548:HAL_Lib/CMSIS/Core/Include/cmsis_gcc.h ****   return(result);
 549:HAL_Lib/CMSIS/Core/Include/cmsis_gcc.h **** }
 550:HAL_Lib/CMSIS/Core/Include/cmsis_gcc.h **** #endif
 551:HAL_Lib/CMSIS/Core/Include/cmsis_gcc.h **** 
 552:HAL_Lib/CMSIS/Core/Include/cmsis_gcc.h **** 
 553:HAL_Lib/CMSIS/Core/Include/cmsis_gcc.h **** /**
 554:HAL_Lib/CMSIS/Core/Include/cmsis_gcc.h ****   \brief   Set Base Priority
 555:HAL_Lib/CMSIS/Core/Include/cmsis_gcc.h ****   \details Assigns the given value to the Base Priority register.
 556:HAL_Lib/CMSIS/Core/Include/cmsis_gcc.h ****   \param [in]    basePri  Base Priority value to set
 557:HAL_Lib/CMSIS/Core/Include/cmsis_gcc.h ****  */
 558:HAL_Lib/CMSIS/Core/Include/cmsis_gcc.h **** __STATIC_FORCEINLINE void __set_BASEPRI(uint32_t basePri)
 559:HAL_Lib/CMSIS/Core/Include/cmsis_gcc.h **** {
 560:HAL_Lib/CMSIS/Core/Include/cmsis_gcc.h ****   __ASM volatile ("MSR basepri, %0" : : "r" (basePri) : "memory");
 561:HAL_Lib/CMSIS/Core/Include/cmsis_gcc.h **** }
 562:HAL_Lib/CMSIS/Core/Include/cmsis_gcc.h **** 
 563:HAL_Lib/CMSIS/Core/Include/cmsis_gcc.h **** 
 564:HAL_Lib/CMSIS/Core/Include/cmsis_gcc.h **** #if (defined (__ARM_FEATURE_CMSE ) && (__ARM_FEATURE_CMSE == 3))
 565:HAL_Lib/CMSIS/Core/Include/cmsis_gcc.h **** /**
 566:HAL_Lib/CMSIS/Core/Include/cmsis_gcc.h ****   \brief   Set Base Priority (non-secure)
 567:HAL_Lib/CMSIS/Core/Include/cmsis_gcc.h ****   \details Assigns the given value to the non-secure Base Priority register when in secure state.
 568:HAL_Lib/CMSIS/Core/Include/cmsis_gcc.h ****   \param [in]    basePri  Base Priority value to set
 569:HAL_Lib/CMSIS/Core/Include/cmsis_gcc.h ****  */
 570:HAL_Lib/CMSIS/Core/Include/cmsis_gcc.h **** __STATIC_FORCEINLINE void __TZ_set_BASEPRI_NS(uint32_t basePri)
 571:HAL_Lib/CMSIS/Core/Include/cmsis_gcc.h **** {
 572:HAL_Lib/CMSIS/Core/Include/cmsis_gcc.h ****   __ASM volatile ("MSR basepri_ns, %0" : : "r" (basePri) : "memory");
 573:HAL_Lib/CMSIS/Core/Include/cmsis_gcc.h **** }
 574:HAL_Lib/CMSIS/Core/Include/cmsis_gcc.h **** #endif
 575:HAL_Lib/CMSIS/Core/Include/cmsis_gcc.h **** 
 576:HAL_Lib/CMSIS/Core/Include/cmsis_gcc.h **** 
 577:HAL_Lib/CMSIS/Core/Include/cmsis_gcc.h **** /**
 578:HAL_Lib/CMSIS/Core/Include/cmsis_gcc.h ****   \brief   Set Base Priority with condition
 579:HAL_Lib/CMSIS/Core/Include/cmsis_gcc.h ****   \details Assigns the given value to the Base Priority register only if BASEPRI masking is disable
 580:HAL_Lib/CMSIS/Core/Include/cmsis_gcc.h ****            or the new value increases the BASEPRI priority level.
 581:HAL_Lib/CMSIS/Core/Include/cmsis_gcc.h ****   \param [in]    basePri  Base Priority value to set
 582:HAL_Lib/CMSIS/Core/Include/cmsis_gcc.h ****  */
 583:HAL_Lib/CMSIS/Core/Include/cmsis_gcc.h **** __STATIC_FORCEINLINE void __set_BASEPRI_MAX(uint32_t basePri)
 584:HAL_Lib/CMSIS/Core/Include/cmsis_gcc.h **** {
 585:HAL_Lib/CMSIS/Core/Include/cmsis_gcc.h ****   __ASM volatile ("MSR basepri_max, %0" : : "r" (basePri) : "memory");
 586:HAL_Lib/CMSIS/Core/Include/cmsis_gcc.h **** }
 587:HAL_Lib/CMSIS/Core/Include/cmsis_gcc.h **** 
 588:HAL_Lib/CMSIS/Core/Include/cmsis_gcc.h **** 
 589:HAL_Lib/CMSIS/Core/Include/cmsis_gcc.h **** /**
 590:HAL_Lib/CMSIS/Core/Include/cmsis_gcc.h ****   \brief   Get Fault Mask
 591:HAL_Lib/CMSIS/Core/Include/cmsis_gcc.h ****   \details Returns the current value of the Fault Mask register.
 592:HAL_Lib/CMSIS/Core/Include/cmsis_gcc.h ****   \return               Fault Mask register value
ARM GAS  C:\Users\HUAV\AppData\Local\Temp\ccFxhkJ1.s 			page 53


 593:HAL_Lib/CMSIS/Core/Include/cmsis_gcc.h ****  */
 594:HAL_Lib/CMSIS/Core/Include/cmsis_gcc.h **** __STATIC_FORCEINLINE uint32_t __get_FAULTMASK(void)
 595:HAL_Lib/CMSIS/Core/Include/cmsis_gcc.h **** {
 596:HAL_Lib/CMSIS/Core/Include/cmsis_gcc.h ****   uint32_t result;
 597:HAL_Lib/CMSIS/Core/Include/cmsis_gcc.h **** 
 598:HAL_Lib/CMSIS/Core/Include/cmsis_gcc.h ****   __ASM volatile ("MRS %0, faultmask" : "=r" (result) );
 599:HAL_Lib/CMSIS/Core/Include/cmsis_gcc.h ****   return(result);
 600:HAL_Lib/CMSIS/Core/Include/cmsis_gcc.h **** }
 601:HAL_Lib/CMSIS/Core/Include/cmsis_gcc.h **** 
 602:HAL_Lib/CMSIS/Core/Include/cmsis_gcc.h **** 
 603:HAL_Lib/CMSIS/Core/Include/cmsis_gcc.h **** #if (defined (__ARM_FEATURE_CMSE ) && (__ARM_FEATURE_CMSE == 3))
 604:HAL_Lib/CMSIS/Core/Include/cmsis_gcc.h **** /**
 605:HAL_Lib/CMSIS/Core/Include/cmsis_gcc.h ****   \brief   Get Fault Mask (non-secure)
 606:HAL_Lib/CMSIS/Core/Include/cmsis_gcc.h ****   \details Returns the current value of the non-secure Fault Mask register when in secure state.
 607:HAL_Lib/CMSIS/Core/Include/cmsis_gcc.h ****   \return               Fault Mask register value
 608:HAL_Lib/CMSIS/Core/Include/cmsis_gcc.h ****  */
 609:HAL_Lib/CMSIS/Core/Include/cmsis_gcc.h **** __STATIC_FORCEINLINE uint32_t __TZ_get_FAULTMASK_NS(void)
 610:HAL_Lib/CMSIS/Core/Include/cmsis_gcc.h **** {
 611:HAL_Lib/CMSIS/Core/Include/cmsis_gcc.h ****   uint32_t result;
 612:HAL_Lib/CMSIS/Core/Include/cmsis_gcc.h **** 
 613:HAL_Lib/CMSIS/Core/Include/cmsis_gcc.h ****   __ASM volatile ("MRS %0, faultmask_ns" : "=r" (result) );
 614:HAL_Lib/CMSIS/Core/Include/cmsis_gcc.h ****   return(result);
 615:HAL_Lib/CMSIS/Core/Include/cmsis_gcc.h **** }
 616:HAL_Lib/CMSIS/Core/Include/cmsis_gcc.h **** #endif
 617:HAL_Lib/CMSIS/Core/Include/cmsis_gcc.h **** 
 618:HAL_Lib/CMSIS/Core/Include/cmsis_gcc.h **** 
 619:HAL_Lib/CMSIS/Core/Include/cmsis_gcc.h **** /**
 620:HAL_Lib/CMSIS/Core/Include/cmsis_gcc.h ****   \brief   Set Fault Mask
 621:HAL_Lib/CMSIS/Core/Include/cmsis_gcc.h ****   \details Assigns the given value to the Fault Mask register.
 622:HAL_Lib/CMSIS/Core/Include/cmsis_gcc.h ****   \param [in]    faultMask  Fault Mask value to set
 623:HAL_Lib/CMSIS/Core/Include/cmsis_gcc.h ****  */
 624:HAL_Lib/CMSIS/Core/Include/cmsis_gcc.h **** __STATIC_FORCEINLINE void __set_FAULTMASK(uint32_t faultMask)
 625:HAL_Lib/CMSIS/Core/Include/cmsis_gcc.h **** {
 626:HAL_Lib/CMSIS/Core/Include/cmsis_gcc.h ****   __ASM volatile ("MSR faultmask, %0" : : "r" (faultMask) : "memory");
 627:HAL_Lib/CMSIS/Core/Include/cmsis_gcc.h **** }
 628:HAL_Lib/CMSIS/Core/Include/cmsis_gcc.h **** 
 629:HAL_Lib/CMSIS/Core/Include/cmsis_gcc.h **** 
 630:HAL_Lib/CMSIS/Core/Include/cmsis_gcc.h **** #if (defined (__ARM_FEATURE_CMSE ) && (__ARM_FEATURE_CMSE == 3))
 631:HAL_Lib/CMSIS/Core/Include/cmsis_gcc.h **** /**
 632:HAL_Lib/CMSIS/Core/Include/cmsis_gcc.h ****   \brief   Set Fault Mask (non-secure)
 633:HAL_Lib/CMSIS/Core/Include/cmsis_gcc.h ****   \details Assigns the given value to the non-secure Fault Mask register when in secure state.
 634:HAL_Lib/CMSIS/Core/Include/cmsis_gcc.h ****   \param [in]    faultMask  Fault Mask value to set
 635:HAL_Lib/CMSIS/Core/Include/cmsis_gcc.h ****  */
 636:HAL_Lib/CMSIS/Core/Include/cmsis_gcc.h **** __STATIC_FORCEINLINE void __TZ_set_FAULTMASK_NS(uint32_t faultMask)
 637:HAL_Lib/CMSIS/Core/Include/cmsis_gcc.h **** {
 638:HAL_Lib/CMSIS/Core/Include/cmsis_gcc.h ****   __ASM volatile ("MSR faultmask_ns, %0" : : "r" (faultMask) : "memory");
 639:HAL_Lib/CMSIS/Core/Include/cmsis_gcc.h **** }
 640:HAL_Lib/CMSIS/Core/Include/cmsis_gcc.h **** #endif
 641:HAL_Lib/CMSIS/Core/Include/cmsis_gcc.h **** 
 642:HAL_Lib/CMSIS/Core/Include/cmsis_gcc.h **** #endif /* ((defined (__ARM_ARCH_7M__      ) && (__ARM_ARCH_7M__      == 1)) || \
 643:HAL_Lib/CMSIS/Core/Include/cmsis_gcc.h ****            (defined (__ARM_ARCH_7EM__     ) && (__ARM_ARCH_7EM__     == 1)) || \
 644:HAL_Lib/CMSIS/Core/Include/cmsis_gcc.h ****            (defined (__ARM_ARCH_8M_MAIN__ ) && (__ARM_ARCH_8M_MAIN__ == 1))    ) */
 645:HAL_Lib/CMSIS/Core/Include/cmsis_gcc.h **** 
 646:HAL_Lib/CMSIS/Core/Include/cmsis_gcc.h **** 
 647:HAL_Lib/CMSIS/Core/Include/cmsis_gcc.h **** #if ((defined (__ARM_ARCH_8M_MAIN__ ) && (__ARM_ARCH_8M_MAIN__ == 1)) || \
 648:HAL_Lib/CMSIS/Core/Include/cmsis_gcc.h ****      (defined (__ARM_ARCH_8M_BASE__ ) && (__ARM_ARCH_8M_BASE__ == 1))    )
 649:HAL_Lib/CMSIS/Core/Include/cmsis_gcc.h **** 
ARM GAS  C:\Users\HUAV\AppData\Local\Temp\ccFxhkJ1.s 			page 54


 650:HAL_Lib/CMSIS/Core/Include/cmsis_gcc.h **** /**
 651:HAL_Lib/CMSIS/Core/Include/cmsis_gcc.h ****   \brief   Get Process Stack Pointer Limit
 652:HAL_Lib/CMSIS/Core/Include/cmsis_gcc.h ****   Devices without ARMv8-M Main Extensions (i.e. Cortex-M23) lack the non-secure
 653:HAL_Lib/CMSIS/Core/Include/cmsis_gcc.h ****   Stack Pointer Limit register hence zero is returned always in non-secure
 654:HAL_Lib/CMSIS/Core/Include/cmsis_gcc.h ****   mode.
 655:HAL_Lib/CMSIS/Core/Include/cmsis_gcc.h ****   
 656:HAL_Lib/CMSIS/Core/Include/cmsis_gcc.h ****   \details Returns the current value of the Process Stack Pointer Limit (PSPLIM).
 657:HAL_Lib/CMSIS/Core/Include/cmsis_gcc.h ****   \return               PSPLIM Register value
 658:HAL_Lib/CMSIS/Core/Include/cmsis_gcc.h ****  */
 659:HAL_Lib/CMSIS/Core/Include/cmsis_gcc.h **** __STATIC_FORCEINLINE uint32_t __get_PSPLIM(void)
 660:HAL_Lib/CMSIS/Core/Include/cmsis_gcc.h **** {
 661:HAL_Lib/CMSIS/Core/Include/cmsis_gcc.h **** #if (!(defined (__ARM_ARCH_8M_MAIN__ ) && (__ARM_ARCH_8M_MAIN__ == 1)) && \
 662:HAL_Lib/CMSIS/Core/Include/cmsis_gcc.h ****     (!defined (__ARM_FEATURE_CMSE) || (__ARM_FEATURE_CMSE < 3)))
 663:HAL_Lib/CMSIS/Core/Include/cmsis_gcc.h ****     // without main extensions, the non-secure PSPLIM is RAZ/WI
 664:HAL_Lib/CMSIS/Core/Include/cmsis_gcc.h ****   return 0U;
 665:HAL_Lib/CMSIS/Core/Include/cmsis_gcc.h **** #else
 666:HAL_Lib/CMSIS/Core/Include/cmsis_gcc.h ****   uint32_t result;
 667:HAL_Lib/CMSIS/Core/Include/cmsis_gcc.h ****   __ASM volatile ("MRS %0, psplim"  : "=r" (result) );
 668:HAL_Lib/CMSIS/Core/Include/cmsis_gcc.h ****   return result;
 669:HAL_Lib/CMSIS/Core/Include/cmsis_gcc.h **** #endif
 670:HAL_Lib/CMSIS/Core/Include/cmsis_gcc.h **** }
 671:HAL_Lib/CMSIS/Core/Include/cmsis_gcc.h **** 
 672:HAL_Lib/CMSIS/Core/Include/cmsis_gcc.h **** #if (defined (__ARM_FEATURE_CMSE) && (__ARM_FEATURE_CMSE == 3))
 673:HAL_Lib/CMSIS/Core/Include/cmsis_gcc.h **** /**
 674:HAL_Lib/CMSIS/Core/Include/cmsis_gcc.h ****   \brief   Get Process Stack Pointer Limit (non-secure)
 675:HAL_Lib/CMSIS/Core/Include/cmsis_gcc.h ****   Devices without ARMv8-M Main Extensions (i.e. Cortex-M23) lack the non-secure
 676:HAL_Lib/CMSIS/Core/Include/cmsis_gcc.h ****   Stack Pointer Limit register hence zero is returned always.
 677:HAL_Lib/CMSIS/Core/Include/cmsis_gcc.h **** 
 678:HAL_Lib/CMSIS/Core/Include/cmsis_gcc.h ****   \details Returns the current value of the non-secure Process Stack Pointer Limit (PSPLIM) when in
 679:HAL_Lib/CMSIS/Core/Include/cmsis_gcc.h ****   \return               PSPLIM Register value
 680:HAL_Lib/CMSIS/Core/Include/cmsis_gcc.h ****  */
 681:HAL_Lib/CMSIS/Core/Include/cmsis_gcc.h **** __STATIC_FORCEINLINE uint32_t __TZ_get_PSPLIM_NS(void)
 682:HAL_Lib/CMSIS/Core/Include/cmsis_gcc.h **** {
 683:HAL_Lib/CMSIS/Core/Include/cmsis_gcc.h **** #if (!(defined (__ARM_ARCH_8M_MAIN__ ) && (__ARM_ARCH_8M_MAIN__ == 1)))
 684:HAL_Lib/CMSIS/Core/Include/cmsis_gcc.h ****   // without main extensions, the non-secure PSPLIM is RAZ/WI
 685:HAL_Lib/CMSIS/Core/Include/cmsis_gcc.h ****   return 0U;
 686:HAL_Lib/CMSIS/Core/Include/cmsis_gcc.h **** #else
 687:HAL_Lib/CMSIS/Core/Include/cmsis_gcc.h ****   uint32_t result;
 688:HAL_Lib/CMSIS/Core/Include/cmsis_gcc.h ****   __ASM volatile ("MRS %0, psplim_ns"  : "=r" (result) );
 689:HAL_Lib/CMSIS/Core/Include/cmsis_gcc.h ****   return result;
 690:HAL_Lib/CMSIS/Core/Include/cmsis_gcc.h **** #endif
 691:HAL_Lib/CMSIS/Core/Include/cmsis_gcc.h **** }
 692:HAL_Lib/CMSIS/Core/Include/cmsis_gcc.h **** #endif
 693:HAL_Lib/CMSIS/Core/Include/cmsis_gcc.h **** 
 694:HAL_Lib/CMSIS/Core/Include/cmsis_gcc.h **** 
 695:HAL_Lib/CMSIS/Core/Include/cmsis_gcc.h **** /**
 696:HAL_Lib/CMSIS/Core/Include/cmsis_gcc.h ****   \brief   Set Process Stack Pointer Limit
 697:HAL_Lib/CMSIS/Core/Include/cmsis_gcc.h ****   Devices without ARMv8-M Main Extensions (i.e. Cortex-M23) lack the non-secure
 698:HAL_Lib/CMSIS/Core/Include/cmsis_gcc.h ****   Stack Pointer Limit register hence the write is silently ignored in non-secure
 699:HAL_Lib/CMSIS/Core/Include/cmsis_gcc.h ****   mode.
 700:HAL_Lib/CMSIS/Core/Include/cmsis_gcc.h ****   
 701:HAL_Lib/CMSIS/Core/Include/cmsis_gcc.h ****   \details Assigns the given value to the Process Stack Pointer Limit (PSPLIM).
 702:HAL_Lib/CMSIS/Core/Include/cmsis_gcc.h ****   \param [in]    ProcStackPtrLimit  Process Stack Pointer Limit value to set
 703:HAL_Lib/CMSIS/Core/Include/cmsis_gcc.h ****  */
 704:HAL_Lib/CMSIS/Core/Include/cmsis_gcc.h **** __STATIC_FORCEINLINE void __set_PSPLIM(uint32_t ProcStackPtrLimit)
 705:HAL_Lib/CMSIS/Core/Include/cmsis_gcc.h **** {
 706:HAL_Lib/CMSIS/Core/Include/cmsis_gcc.h **** #if (!(defined (__ARM_ARCH_8M_MAIN__ ) && (__ARM_ARCH_8M_MAIN__ == 1)) && \
ARM GAS  C:\Users\HUAV\AppData\Local\Temp\ccFxhkJ1.s 			page 55


 707:HAL_Lib/CMSIS/Core/Include/cmsis_gcc.h ****     (!defined (__ARM_FEATURE_CMSE) || (__ARM_FEATURE_CMSE < 3)))
 708:HAL_Lib/CMSIS/Core/Include/cmsis_gcc.h ****   // without main extensions, the non-secure PSPLIM is RAZ/WI
 709:HAL_Lib/CMSIS/Core/Include/cmsis_gcc.h ****   (void)ProcStackPtrLimit;
 710:HAL_Lib/CMSIS/Core/Include/cmsis_gcc.h **** #else
 711:HAL_Lib/CMSIS/Core/Include/cmsis_gcc.h ****   __ASM volatile ("MSR psplim, %0" : : "r" (ProcStackPtrLimit));
 712:HAL_Lib/CMSIS/Core/Include/cmsis_gcc.h **** #endif
 713:HAL_Lib/CMSIS/Core/Include/cmsis_gcc.h **** }
 714:HAL_Lib/CMSIS/Core/Include/cmsis_gcc.h **** 
 715:HAL_Lib/CMSIS/Core/Include/cmsis_gcc.h **** 
 716:HAL_Lib/CMSIS/Core/Include/cmsis_gcc.h **** #if (defined (__ARM_FEATURE_CMSE  ) && (__ARM_FEATURE_CMSE   == 3))
 717:HAL_Lib/CMSIS/Core/Include/cmsis_gcc.h **** /**
 718:HAL_Lib/CMSIS/Core/Include/cmsis_gcc.h ****   \brief   Set Process Stack Pointer (non-secure)
 719:HAL_Lib/CMSIS/Core/Include/cmsis_gcc.h ****   Devices without ARMv8-M Main Extensions (i.e. Cortex-M23) lack the non-secure
 720:HAL_Lib/CMSIS/Core/Include/cmsis_gcc.h ****   Stack Pointer Limit register hence the write is silently ignored.
 721:HAL_Lib/CMSIS/Core/Include/cmsis_gcc.h **** 
 722:HAL_Lib/CMSIS/Core/Include/cmsis_gcc.h ****   \details Assigns the given value to the non-secure Process Stack Pointer Limit (PSPLIM) when in s
 723:HAL_Lib/CMSIS/Core/Include/cmsis_gcc.h ****   \param [in]    ProcStackPtrLimit  Process Stack Pointer Limit value to set
 724:HAL_Lib/CMSIS/Core/Include/cmsis_gcc.h ****  */
 725:HAL_Lib/CMSIS/Core/Include/cmsis_gcc.h **** __STATIC_FORCEINLINE void __TZ_set_PSPLIM_NS(uint32_t ProcStackPtrLimit)
 726:HAL_Lib/CMSIS/Core/Include/cmsis_gcc.h **** {
 727:HAL_Lib/CMSIS/Core/Include/cmsis_gcc.h **** #if (!(defined (__ARM_ARCH_8M_MAIN__ ) && (__ARM_ARCH_8M_MAIN__ == 1)))
 728:HAL_Lib/CMSIS/Core/Include/cmsis_gcc.h ****   // without main extensions, the non-secure PSPLIM is RAZ/WI
 729:HAL_Lib/CMSIS/Core/Include/cmsis_gcc.h ****   (void)ProcStackPtrLimit;
 730:HAL_Lib/CMSIS/Core/Include/cmsis_gcc.h **** #else
 731:HAL_Lib/CMSIS/Core/Include/cmsis_gcc.h ****   __ASM volatile ("MSR psplim_ns, %0\n" : : "r" (ProcStackPtrLimit));
 732:HAL_Lib/CMSIS/Core/Include/cmsis_gcc.h **** #endif
 733:HAL_Lib/CMSIS/Core/Include/cmsis_gcc.h **** }
 734:HAL_Lib/CMSIS/Core/Include/cmsis_gcc.h **** #endif
 735:HAL_Lib/CMSIS/Core/Include/cmsis_gcc.h **** 
 736:HAL_Lib/CMSIS/Core/Include/cmsis_gcc.h **** 
 737:HAL_Lib/CMSIS/Core/Include/cmsis_gcc.h **** /**
 738:HAL_Lib/CMSIS/Core/Include/cmsis_gcc.h ****   \brief   Get Main Stack Pointer Limit
 739:HAL_Lib/CMSIS/Core/Include/cmsis_gcc.h ****   Devices without ARMv8-M Main Extensions (i.e. Cortex-M23) lack the non-secure
 740:HAL_Lib/CMSIS/Core/Include/cmsis_gcc.h ****   Stack Pointer Limit register hence zero is returned always in non-secure
 741:HAL_Lib/CMSIS/Core/Include/cmsis_gcc.h ****   mode.
 742:HAL_Lib/CMSIS/Core/Include/cmsis_gcc.h **** 
 743:HAL_Lib/CMSIS/Core/Include/cmsis_gcc.h ****   \details Returns the current value of the Main Stack Pointer Limit (MSPLIM).
 744:HAL_Lib/CMSIS/Core/Include/cmsis_gcc.h ****   \return               MSPLIM Register value
 745:HAL_Lib/CMSIS/Core/Include/cmsis_gcc.h ****  */
 746:HAL_Lib/CMSIS/Core/Include/cmsis_gcc.h **** __STATIC_FORCEINLINE uint32_t __get_MSPLIM(void)
 747:HAL_Lib/CMSIS/Core/Include/cmsis_gcc.h **** {
 748:HAL_Lib/CMSIS/Core/Include/cmsis_gcc.h **** #if (!(defined (__ARM_ARCH_8M_MAIN__ ) && (__ARM_ARCH_8M_MAIN__ == 1)) && \
 749:HAL_Lib/CMSIS/Core/Include/cmsis_gcc.h ****     (!defined (__ARM_FEATURE_CMSE) || (__ARM_FEATURE_CMSE < 3)))
 750:HAL_Lib/CMSIS/Core/Include/cmsis_gcc.h ****   // without main extensions, the non-secure MSPLIM is RAZ/WI
 751:HAL_Lib/CMSIS/Core/Include/cmsis_gcc.h ****   return 0U;
 752:HAL_Lib/CMSIS/Core/Include/cmsis_gcc.h **** #else
 753:HAL_Lib/CMSIS/Core/Include/cmsis_gcc.h ****   uint32_t result;
 754:HAL_Lib/CMSIS/Core/Include/cmsis_gcc.h ****   __ASM volatile ("MRS %0, msplim" : "=r" (result) );
 755:HAL_Lib/CMSIS/Core/Include/cmsis_gcc.h ****   return result;
 756:HAL_Lib/CMSIS/Core/Include/cmsis_gcc.h **** #endif
 757:HAL_Lib/CMSIS/Core/Include/cmsis_gcc.h **** }
 758:HAL_Lib/CMSIS/Core/Include/cmsis_gcc.h **** 
 759:HAL_Lib/CMSIS/Core/Include/cmsis_gcc.h **** 
 760:HAL_Lib/CMSIS/Core/Include/cmsis_gcc.h **** #if (defined (__ARM_FEATURE_CMSE  ) && (__ARM_FEATURE_CMSE   == 3))
 761:HAL_Lib/CMSIS/Core/Include/cmsis_gcc.h **** /**
 762:HAL_Lib/CMSIS/Core/Include/cmsis_gcc.h ****   \brief   Get Main Stack Pointer Limit (non-secure)
 763:HAL_Lib/CMSIS/Core/Include/cmsis_gcc.h ****   Devices without ARMv8-M Main Extensions (i.e. Cortex-M23) lack the non-secure
ARM GAS  C:\Users\HUAV\AppData\Local\Temp\ccFxhkJ1.s 			page 56


 764:HAL_Lib/CMSIS/Core/Include/cmsis_gcc.h ****   Stack Pointer Limit register hence zero is returned always.
 765:HAL_Lib/CMSIS/Core/Include/cmsis_gcc.h **** 
 766:HAL_Lib/CMSIS/Core/Include/cmsis_gcc.h ****   \details Returns the current value of the non-secure Main Stack Pointer Limit(MSPLIM) when in sec
 767:HAL_Lib/CMSIS/Core/Include/cmsis_gcc.h ****   \return               MSPLIM Register value
 768:HAL_Lib/CMSIS/Core/Include/cmsis_gcc.h ****  */
 769:HAL_Lib/CMSIS/Core/Include/cmsis_gcc.h **** __STATIC_FORCEINLINE uint32_t __TZ_get_MSPLIM_NS(void)
 770:HAL_Lib/CMSIS/Core/Include/cmsis_gcc.h **** {
 771:HAL_Lib/CMSIS/Core/Include/cmsis_gcc.h **** #if (!(defined (__ARM_ARCH_8M_MAIN__ ) && (__ARM_ARCH_8M_MAIN__ == 1)))
 772:HAL_Lib/CMSIS/Core/Include/cmsis_gcc.h ****   // without main extensions, the non-secure MSPLIM is RAZ/WI
 773:HAL_Lib/CMSIS/Core/Include/cmsis_gcc.h ****   return 0U;
 774:HAL_Lib/CMSIS/Core/Include/cmsis_gcc.h **** #else
 775:HAL_Lib/CMSIS/Core/Include/cmsis_gcc.h ****   uint32_t result;
 776:HAL_Lib/CMSIS/Core/Include/cmsis_gcc.h ****   __ASM volatile ("MRS %0, msplim_ns" : "=r" (result) );
 777:HAL_Lib/CMSIS/Core/Include/cmsis_gcc.h ****   return result;
 778:HAL_Lib/CMSIS/Core/Include/cmsis_gcc.h **** #endif
 779:HAL_Lib/CMSIS/Core/Include/cmsis_gcc.h **** }
 780:HAL_Lib/CMSIS/Core/Include/cmsis_gcc.h **** #endif
 781:HAL_Lib/CMSIS/Core/Include/cmsis_gcc.h **** 
 782:HAL_Lib/CMSIS/Core/Include/cmsis_gcc.h **** 
 783:HAL_Lib/CMSIS/Core/Include/cmsis_gcc.h **** /**
 784:HAL_Lib/CMSIS/Core/Include/cmsis_gcc.h ****   \brief   Set Main Stack Pointer Limit
 785:HAL_Lib/CMSIS/Core/Include/cmsis_gcc.h ****   Devices without ARMv8-M Main Extensions (i.e. Cortex-M23) lack the non-secure
 786:HAL_Lib/CMSIS/Core/Include/cmsis_gcc.h ****   Stack Pointer Limit register hence the write is silently ignored in non-secure
 787:HAL_Lib/CMSIS/Core/Include/cmsis_gcc.h ****   mode.
 788:HAL_Lib/CMSIS/Core/Include/cmsis_gcc.h **** 
 789:HAL_Lib/CMSIS/Core/Include/cmsis_gcc.h ****   \details Assigns the given value to the Main Stack Pointer Limit (MSPLIM).
 790:HAL_Lib/CMSIS/Core/Include/cmsis_gcc.h ****   \param [in]    MainStackPtrLimit  Main Stack Pointer Limit value to set
 791:HAL_Lib/CMSIS/Core/Include/cmsis_gcc.h ****  */
 792:HAL_Lib/CMSIS/Core/Include/cmsis_gcc.h **** __STATIC_FORCEINLINE void __set_MSPLIM(uint32_t MainStackPtrLimit)
 793:HAL_Lib/CMSIS/Core/Include/cmsis_gcc.h **** {
 794:HAL_Lib/CMSIS/Core/Include/cmsis_gcc.h **** #if (!(defined (__ARM_ARCH_8M_MAIN__ ) && (__ARM_ARCH_8M_MAIN__ == 1)) && \
 795:HAL_Lib/CMSIS/Core/Include/cmsis_gcc.h ****     (!defined (__ARM_FEATURE_CMSE) || (__ARM_FEATURE_CMSE < 3)))
 796:HAL_Lib/CMSIS/Core/Include/cmsis_gcc.h ****   // without main extensions, the non-secure MSPLIM is RAZ/WI
 797:HAL_Lib/CMSIS/Core/Include/cmsis_gcc.h ****   (void)MainStackPtrLimit;
 798:HAL_Lib/CMSIS/Core/Include/cmsis_gcc.h **** #else
 799:HAL_Lib/CMSIS/Core/Include/cmsis_gcc.h ****   __ASM volatile ("MSR msplim, %0" : : "r" (MainStackPtrLimit));
 800:HAL_Lib/CMSIS/Core/Include/cmsis_gcc.h **** #endif
 801:HAL_Lib/CMSIS/Core/Include/cmsis_gcc.h **** }
 802:HAL_Lib/CMSIS/Core/Include/cmsis_gcc.h **** 
 803:HAL_Lib/CMSIS/Core/Include/cmsis_gcc.h **** 
 804:HAL_Lib/CMSIS/Core/Include/cmsis_gcc.h **** #if (defined (__ARM_FEATURE_CMSE  ) && (__ARM_FEATURE_CMSE   == 3))
 805:HAL_Lib/CMSIS/Core/Include/cmsis_gcc.h **** /**
 806:HAL_Lib/CMSIS/Core/Include/cmsis_gcc.h ****   \brief   Set Main Stack Pointer Limit (non-secure)
 807:HAL_Lib/CMSIS/Core/Include/cmsis_gcc.h ****   Devices without ARMv8-M Main Extensions (i.e. Cortex-M23) lack the non-secure
 808:HAL_Lib/CMSIS/Core/Include/cmsis_gcc.h ****   Stack Pointer Limit register hence the write is silently ignored.
 809:HAL_Lib/CMSIS/Core/Include/cmsis_gcc.h **** 
 810:HAL_Lib/CMSIS/Core/Include/cmsis_gcc.h ****   \details Assigns the given value to the non-secure Main Stack Pointer Limit (MSPLIM) when in secu
 811:HAL_Lib/CMSIS/Core/Include/cmsis_gcc.h ****   \param [in]    MainStackPtrLimit  Main Stack Pointer value to set
 812:HAL_Lib/CMSIS/Core/Include/cmsis_gcc.h ****  */
 813:HAL_Lib/CMSIS/Core/Include/cmsis_gcc.h **** __STATIC_FORCEINLINE void __TZ_set_MSPLIM_NS(uint32_t MainStackPtrLimit)
 814:HAL_Lib/CMSIS/Core/Include/cmsis_gcc.h **** {
 815:HAL_Lib/CMSIS/Core/Include/cmsis_gcc.h **** #if (!(defined (__ARM_ARCH_8M_MAIN__ ) && (__ARM_ARCH_8M_MAIN__ == 1)))
 816:HAL_Lib/CMSIS/Core/Include/cmsis_gcc.h ****   // without main extensions, the non-secure MSPLIM is RAZ/WI
 817:HAL_Lib/CMSIS/Core/Include/cmsis_gcc.h ****   (void)MainStackPtrLimit;
 818:HAL_Lib/CMSIS/Core/Include/cmsis_gcc.h **** #else
 819:HAL_Lib/CMSIS/Core/Include/cmsis_gcc.h ****   __ASM volatile ("MSR msplim_ns, %0" : : "r" (MainStackPtrLimit));
 820:HAL_Lib/CMSIS/Core/Include/cmsis_gcc.h **** #endif
ARM GAS  C:\Users\HUAV\AppData\Local\Temp\ccFxhkJ1.s 			page 57


 821:HAL_Lib/CMSIS/Core/Include/cmsis_gcc.h **** }
 822:HAL_Lib/CMSIS/Core/Include/cmsis_gcc.h **** #endif
 823:HAL_Lib/CMSIS/Core/Include/cmsis_gcc.h **** 
 824:HAL_Lib/CMSIS/Core/Include/cmsis_gcc.h **** #endif /* ((defined (__ARM_ARCH_8M_MAIN__ ) && (__ARM_ARCH_8M_MAIN__ == 1)) || \
 825:HAL_Lib/CMSIS/Core/Include/cmsis_gcc.h ****            (defined (__ARM_ARCH_8M_BASE__ ) && (__ARM_ARCH_8M_BASE__ == 1))    ) */
 826:HAL_Lib/CMSIS/Core/Include/cmsis_gcc.h **** 
 827:HAL_Lib/CMSIS/Core/Include/cmsis_gcc.h **** 
 828:HAL_Lib/CMSIS/Core/Include/cmsis_gcc.h **** /**
 829:HAL_Lib/CMSIS/Core/Include/cmsis_gcc.h ****   \brief   Get FPSCR
 830:HAL_Lib/CMSIS/Core/Include/cmsis_gcc.h ****   \details Returns the current value of the Floating Point Status/Control register.
 831:HAL_Lib/CMSIS/Core/Include/cmsis_gcc.h ****   \return               Floating Point Status/Control register value
 832:HAL_Lib/CMSIS/Core/Include/cmsis_gcc.h ****  */
 833:HAL_Lib/CMSIS/Core/Include/cmsis_gcc.h **** __STATIC_FORCEINLINE uint32_t __get_FPSCR(void)
 834:HAL_Lib/CMSIS/Core/Include/cmsis_gcc.h **** {
 835:HAL_Lib/CMSIS/Core/Include/cmsis_gcc.h **** #if ((defined (__FPU_PRESENT) && (__FPU_PRESENT == 1U)) && \
 836:HAL_Lib/CMSIS/Core/Include/cmsis_gcc.h ****      (defined (__FPU_USED   ) && (__FPU_USED    == 1U))     )
 837:HAL_Lib/CMSIS/Core/Include/cmsis_gcc.h **** #if __has_builtin(__builtin_arm_get_fpscr) 
 838:HAL_Lib/CMSIS/Core/Include/cmsis_gcc.h **** // Re-enable using built-in when GCC has been fixed
 839:HAL_Lib/CMSIS/Core/Include/cmsis_gcc.h **** // || (__GNUC__ > 7) || (__GNUC__ == 7 && __GNUC_MINOR__ >= 2)
 840:HAL_Lib/CMSIS/Core/Include/cmsis_gcc.h ****   /* see https://gcc.gnu.org/ml/gcc-patches/2017-04/msg00443.html */
 841:HAL_Lib/CMSIS/Core/Include/cmsis_gcc.h ****   return __builtin_arm_get_fpscr();
 842:HAL_Lib/CMSIS/Core/Include/cmsis_gcc.h **** #else
 843:HAL_Lib/CMSIS/Core/Include/cmsis_gcc.h ****   uint32_t result;
 844:HAL_Lib/CMSIS/Core/Include/cmsis_gcc.h **** 
 845:HAL_Lib/CMSIS/Core/Include/cmsis_gcc.h ****   __ASM volatile ("VMRS %0, fpscr" : "=r" (result) );
 846:HAL_Lib/CMSIS/Core/Include/cmsis_gcc.h ****   return(result);
 847:HAL_Lib/CMSIS/Core/Include/cmsis_gcc.h **** #endif
 848:HAL_Lib/CMSIS/Core/Include/cmsis_gcc.h **** #else
 849:HAL_Lib/CMSIS/Core/Include/cmsis_gcc.h ****   return(0U);
 850:HAL_Lib/CMSIS/Core/Include/cmsis_gcc.h **** #endif
 851:HAL_Lib/CMSIS/Core/Include/cmsis_gcc.h **** }
 852:HAL_Lib/CMSIS/Core/Include/cmsis_gcc.h **** 
 853:HAL_Lib/CMSIS/Core/Include/cmsis_gcc.h **** 
 854:HAL_Lib/CMSIS/Core/Include/cmsis_gcc.h **** /**
 855:HAL_Lib/CMSIS/Core/Include/cmsis_gcc.h ****   \brief   Set FPSCR
 856:HAL_Lib/CMSIS/Core/Include/cmsis_gcc.h ****   \details Assigns the given value to the Floating Point Status/Control register.
 857:HAL_Lib/CMSIS/Core/Include/cmsis_gcc.h ****   \param [in]    fpscr  Floating Point Status/Control value to set
 858:HAL_Lib/CMSIS/Core/Include/cmsis_gcc.h ****  */
 859:HAL_Lib/CMSIS/Core/Include/cmsis_gcc.h **** __STATIC_FORCEINLINE void __set_FPSCR(uint32_t fpscr)
 860:HAL_Lib/CMSIS/Core/Include/cmsis_gcc.h **** {
 861:HAL_Lib/CMSIS/Core/Include/cmsis_gcc.h **** #if ((defined (__FPU_PRESENT) && (__FPU_PRESENT == 1U)) && \
 862:HAL_Lib/CMSIS/Core/Include/cmsis_gcc.h ****      (defined (__FPU_USED   ) && (__FPU_USED    == 1U))     )
 863:HAL_Lib/CMSIS/Core/Include/cmsis_gcc.h **** #if __has_builtin(__builtin_arm_set_fpscr)
 864:HAL_Lib/CMSIS/Core/Include/cmsis_gcc.h **** // Re-enable using built-in when GCC has been fixed
 865:HAL_Lib/CMSIS/Core/Include/cmsis_gcc.h **** // || (__GNUC__ > 7) || (__GNUC__ == 7 && __GNUC_MINOR__ >= 2)
 866:HAL_Lib/CMSIS/Core/Include/cmsis_gcc.h ****   /* see https://gcc.gnu.org/ml/gcc-patches/2017-04/msg00443.html */
 867:HAL_Lib/CMSIS/Core/Include/cmsis_gcc.h ****   __builtin_arm_set_fpscr(fpscr);
 868:HAL_Lib/CMSIS/Core/Include/cmsis_gcc.h **** #else
 869:HAL_Lib/CMSIS/Core/Include/cmsis_gcc.h ****   __ASM volatile ("VMSR fpscr, %0" : : "r" (fpscr) : "vfpcc", "memory");
 870:HAL_Lib/CMSIS/Core/Include/cmsis_gcc.h **** #endif
 871:HAL_Lib/CMSIS/Core/Include/cmsis_gcc.h **** #else
 872:HAL_Lib/CMSIS/Core/Include/cmsis_gcc.h ****   (void)fpscr;
 873:HAL_Lib/CMSIS/Core/Include/cmsis_gcc.h **** #endif
 874:HAL_Lib/CMSIS/Core/Include/cmsis_gcc.h **** }
 875:HAL_Lib/CMSIS/Core/Include/cmsis_gcc.h **** 
 876:HAL_Lib/CMSIS/Core/Include/cmsis_gcc.h **** 
 877:HAL_Lib/CMSIS/Core/Include/cmsis_gcc.h **** /*@} end of CMSIS_Core_RegAccFunctions */
ARM GAS  C:\Users\HUAV\AppData\Local\Temp\ccFxhkJ1.s 			page 58


 878:HAL_Lib/CMSIS/Core/Include/cmsis_gcc.h **** 
 879:HAL_Lib/CMSIS/Core/Include/cmsis_gcc.h **** 
 880:HAL_Lib/CMSIS/Core/Include/cmsis_gcc.h **** /* ##########################  Core Instruction Access  ######################### */
 881:HAL_Lib/CMSIS/Core/Include/cmsis_gcc.h **** /** \defgroup CMSIS_Core_InstructionInterface CMSIS Core Instruction Interface
 882:HAL_Lib/CMSIS/Core/Include/cmsis_gcc.h ****   Access to dedicated instructions
 883:HAL_Lib/CMSIS/Core/Include/cmsis_gcc.h ****   @{
 884:HAL_Lib/CMSIS/Core/Include/cmsis_gcc.h **** */
 885:HAL_Lib/CMSIS/Core/Include/cmsis_gcc.h **** 
 886:HAL_Lib/CMSIS/Core/Include/cmsis_gcc.h **** /* Define macros for porting to both thumb1 and thumb2.
 887:HAL_Lib/CMSIS/Core/Include/cmsis_gcc.h ****  * For thumb1, use low register (r0-r7), specified by constraint "l"
 888:HAL_Lib/CMSIS/Core/Include/cmsis_gcc.h ****  * Otherwise, use general registers, specified by constraint "r" */
 889:HAL_Lib/CMSIS/Core/Include/cmsis_gcc.h **** #if defined (__thumb__) && !defined (__thumb2__)
 890:HAL_Lib/CMSIS/Core/Include/cmsis_gcc.h **** #define __CMSIS_GCC_OUT_REG(r) "=l" (r)
 891:HAL_Lib/CMSIS/Core/Include/cmsis_gcc.h **** #define __CMSIS_GCC_RW_REG(r) "+l" (r)
 892:HAL_Lib/CMSIS/Core/Include/cmsis_gcc.h **** #define __CMSIS_GCC_USE_REG(r) "l" (r)
 893:HAL_Lib/CMSIS/Core/Include/cmsis_gcc.h **** #else
 894:HAL_Lib/CMSIS/Core/Include/cmsis_gcc.h **** #define __CMSIS_GCC_OUT_REG(r) "=r" (r)
 895:HAL_Lib/CMSIS/Core/Include/cmsis_gcc.h **** #define __CMSIS_GCC_RW_REG(r) "+r" (r)
 896:HAL_Lib/CMSIS/Core/Include/cmsis_gcc.h **** #define __CMSIS_GCC_USE_REG(r) "r" (r)
 897:HAL_Lib/CMSIS/Core/Include/cmsis_gcc.h **** #endif
 898:HAL_Lib/CMSIS/Core/Include/cmsis_gcc.h **** 
 899:HAL_Lib/CMSIS/Core/Include/cmsis_gcc.h **** /**
 900:HAL_Lib/CMSIS/Core/Include/cmsis_gcc.h ****   \brief   No Operation
 901:HAL_Lib/CMSIS/Core/Include/cmsis_gcc.h ****   \details No Operation does nothing. This instruction can be used for code alignment purposes.
 902:HAL_Lib/CMSIS/Core/Include/cmsis_gcc.h ****  */
 903:HAL_Lib/CMSIS/Core/Include/cmsis_gcc.h **** #define __NOP()                             __ASM volatile ("nop")
 904:HAL_Lib/CMSIS/Core/Include/cmsis_gcc.h **** 
 905:HAL_Lib/CMSIS/Core/Include/cmsis_gcc.h **** /**
 906:HAL_Lib/CMSIS/Core/Include/cmsis_gcc.h ****   \brief   Wait For Interrupt
 907:HAL_Lib/CMSIS/Core/Include/cmsis_gcc.h ****   \details Wait For Interrupt is a hint instruction that suspends execution until one of a number o
 908:HAL_Lib/CMSIS/Core/Include/cmsis_gcc.h ****  */
 909:HAL_Lib/CMSIS/Core/Include/cmsis_gcc.h **** #define __WFI()                             __ASM volatile ("wfi")
 910:HAL_Lib/CMSIS/Core/Include/cmsis_gcc.h **** 
 911:HAL_Lib/CMSIS/Core/Include/cmsis_gcc.h **** 
 912:HAL_Lib/CMSIS/Core/Include/cmsis_gcc.h **** /**
 913:HAL_Lib/CMSIS/Core/Include/cmsis_gcc.h ****   \brief   Wait For Event
 914:HAL_Lib/CMSIS/Core/Include/cmsis_gcc.h ****   \details Wait For Event is a hint instruction that permits the processor to enter
 915:HAL_Lib/CMSIS/Core/Include/cmsis_gcc.h ****            a low-power state until one of a number of events occurs.
 916:HAL_Lib/CMSIS/Core/Include/cmsis_gcc.h ****  */
 917:HAL_Lib/CMSIS/Core/Include/cmsis_gcc.h **** #define __WFE()                             __ASM volatile ("wfe")
 918:HAL_Lib/CMSIS/Core/Include/cmsis_gcc.h **** 
 919:HAL_Lib/CMSIS/Core/Include/cmsis_gcc.h **** 
 920:HAL_Lib/CMSIS/Core/Include/cmsis_gcc.h **** /**
 921:HAL_Lib/CMSIS/Core/Include/cmsis_gcc.h ****   \brief   Send Event
 922:HAL_Lib/CMSIS/Core/Include/cmsis_gcc.h ****   \details Send Event is a hint instruction. It causes an event to be signaled to the CPU.
 923:HAL_Lib/CMSIS/Core/Include/cmsis_gcc.h ****  */
 924:HAL_Lib/CMSIS/Core/Include/cmsis_gcc.h **** #define __SEV()                             __ASM volatile ("sev")
 925:HAL_Lib/CMSIS/Core/Include/cmsis_gcc.h **** 
 926:HAL_Lib/CMSIS/Core/Include/cmsis_gcc.h **** 
 927:HAL_Lib/CMSIS/Core/Include/cmsis_gcc.h **** /**
 928:HAL_Lib/CMSIS/Core/Include/cmsis_gcc.h ****   \brief   Instruction Synchronization Barrier
 929:HAL_Lib/CMSIS/Core/Include/cmsis_gcc.h ****   \details Instruction Synchronization Barrier flushes the pipeline in the processor,
 930:HAL_Lib/CMSIS/Core/Include/cmsis_gcc.h ****            so that all instructions following the ISB are fetched from cache or memory,
 931:HAL_Lib/CMSIS/Core/Include/cmsis_gcc.h ****            after the instruction has been completed.
 932:HAL_Lib/CMSIS/Core/Include/cmsis_gcc.h ****  */
 933:HAL_Lib/CMSIS/Core/Include/cmsis_gcc.h **** __STATIC_FORCEINLINE void __ISB(void)
 1095              		.loc 2 933 27 view .LVU317
ARM GAS  C:\Users\HUAV\AppData\Local\Temp\ccFxhkJ1.s 			page 59


 1096              	.LBB19:
 934:HAL_Lib/CMSIS/Core/Include/cmsis_gcc.h **** {
 935:HAL_Lib/CMSIS/Core/Include/cmsis_gcc.h ****   __ASM volatile ("isb 0xF":::"memory");
 1097              		.loc 2 935 3 view .LVU318
 1098              		.syntax unified
 1099              	@ 935 "HAL_Lib/CMSIS/Core/Include/cmsis_gcc.h" 1
 1100 004e BFF36F8F 		isb 0xF
 1101              	@ 0 "" 2
 1102              		.thumb
 1103              		.syntax unified
 1104              	.LBE19:
 1105              	.LBE18:
 227:HAL_Lib/STM32H7xx_HAL_Driver/Src/stm32h7xx_hal_flash.c **** 
 1106              		.loc 1 227 5 view .LVU319
 1107              	.LBB20:
 1108              	.LBI20:
 936:HAL_Lib/CMSIS/Core/Include/cmsis_gcc.h **** }
 937:HAL_Lib/CMSIS/Core/Include/cmsis_gcc.h **** 
 938:HAL_Lib/CMSIS/Core/Include/cmsis_gcc.h **** 
 939:HAL_Lib/CMSIS/Core/Include/cmsis_gcc.h **** /**
 940:HAL_Lib/CMSIS/Core/Include/cmsis_gcc.h ****   \brief   Data Synchronization Barrier
 941:HAL_Lib/CMSIS/Core/Include/cmsis_gcc.h ****   \details Acts as a special kind of Data Memory Barrier.
 942:HAL_Lib/CMSIS/Core/Include/cmsis_gcc.h ****            It completes when all explicit memory accesses before this instruction complete.
 943:HAL_Lib/CMSIS/Core/Include/cmsis_gcc.h ****  */
 944:HAL_Lib/CMSIS/Core/Include/cmsis_gcc.h **** __STATIC_FORCEINLINE void __DSB(void)
 1109              		.loc 2 944 27 view .LVU320
 1110              	.LBB21:
 945:HAL_Lib/CMSIS/Core/Include/cmsis_gcc.h **** {
 946:HAL_Lib/CMSIS/Core/Include/cmsis_gcc.h ****   __ASM volatile ("dsb 0xF":::"memory");
 1111              		.loc 2 946 3 view .LVU321
 1112              		.syntax unified
 1113              	@ 946 "HAL_Lib/CMSIS/Core/Include/cmsis_gcc.h" 1
 1114 0052 BFF34F8F 		dsb 0xF
 1115              	@ 0 "" 2
 1116              		.thumb
 1117              		.syntax unified
 1118              	.LBE21:
 1119              	.LBE20:
 154:HAL_Lib/STM32H7xx_HAL_Driver/Src/stm32h7xx_hal_flash.c **** 
 1120              		.loc 1 154 11 is_stmt 0 view .LVU322
 1121 0056 0823     		movs	r3, #8
 1122              	.LVL75:
 1123              	.L99:
 239:HAL_Lib/STM32H7xx_HAL_Driver/Src/stm32h7xx_hal_flash.c ****       {
 1124              		.loc 1 239 7 is_stmt 1 discriminator 1 view .LVU323
 241:HAL_Lib/STM32H7xx_HAL_Driver/Src/stm32h7xx_hal_flash.c ****         dest_addr++;
 1125              		.loc 1 241 9 discriminator 1 view .LVU324
 241:HAL_Lib/STM32H7xx_HAL_Driver/Src/stm32h7xx_hal_flash.c ****         dest_addr++;
 1126              		.loc 1 241 22 is_stmt 0 discriminator 1 view .LVU325
 1127 0058 54F8042B 		ldr	r2, [r4], #4
 1128              	.LVL76:
 241:HAL_Lib/STM32H7xx_HAL_Driver/Src/stm32h7xx_hal_flash.c ****         dest_addr++;
 1129              		.loc 1 241 20 discriminator 1 view .LVU326
 1130 005c 45F8042B 		str	r2, [r5], #4
 1131              	.LVL77:
 242:HAL_Lib/STM32H7xx_HAL_Driver/Src/stm32h7xx_hal_flash.c ****         src_addr++;
 1132              		.loc 1 242 9 is_stmt 1 discriminator 1 view .LVU327
ARM GAS  C:\Users\HUAV\AppData\Local\Temp\ccFxhkJ1.s 			page 60


 243:HAL_Lib/STM32H7xx_HAL_Driver/Src/stm32h7xx_hal_flash.c ****         row_index--;
 1133              		.loc 1 243 9 discriminator 1 view .LVU328
 244:HAL_Lib/STM32H7xx_HAL_Driver/Src/stm32h7xx_hal_flash.c ****      } while (row_index != 0U);
 1134              		.loc 1 244 9 discriminator 1 view .LVU329
 244:HAL_Lib/STM32H7xx_HAL_Driver/Src/stm32h7xx_hal_flash.c ****      } while (row_index != 0U);
 1135              		.loc 1 244 18 is_stmt 0 discriminator 1 view .LVU330
 1136 0060 013B     		subs	r3, r3, #1
 1137              	.LVL78:
 245:HAL_Lib/STM32H7xx_HAL_Driver/Src/stm32h7xx_hal_flash.c ****     }
 1138              		.loc 1 245 14 is_stmt 1 discriminator 1 view .LVU331
 245:HAL_Lib/STM32H7xx_HAL_Driver/Src/stm32h7xx_hal_flash.c ****     }
 1139              		.loc 1 245 6 is_stmt 0 discriminator 1 view .LVU332
 1140 0062 13F0FF03 		ands	r3, r3, #255
 1141              	.LVL79:
 245:HAL_Lib/STM32H7xx_HAL_Driver/Src/stm32h7xx_hal_flash.c ****     }
 1142              		.loc 1 245 6 discriminator 1 view .LVU333
 1143 0066 F7D1     		bne	.L99
 248:HAL_Lib/STM32H7xx_HAL_Driver/Src/stm32h7xx_hal_flash.c ****     __DSB();
 1144              		.loc 1 248 5 is_stmt 1 view .LVU334
 1145              	.LBB22:
 1146              	.LBI22:
 933:HAL_Lib/CMSIS/Core/Include/cmsis_gcc.h **** {
 1147              		.loc 2 933 27 view .LVU335
 1148              	.LBB23:
 935:HAL_Lib/CMSIS/Core/Include/cmsis_gcc.h **** }
 1149              		.loc 2 935 3 view .LVU336
 1150              		.syntax unified
 1151              	@ 935 "HAL_Lib/CMSIS/Core/Include/cmsis_gcc.h" 1
 1152 0068 BFF36F8F 		isb 0xF
 1153              	@ 0 "" 2
 1154              		.thumb
 1155              		.syntax unified
 1156              	.LBE23:
 1157              	.LBE22:
 249:HAL_Lib/STM32H7xx_HAL_Driver/Src/stm32h7xx_hal_flash.c **** 
 1158              		.loc 1 249 5 view .LVU337
 1159              	.LBB24:
 1160              	.LBI24:
 944:HAL_Lib/CMSIS/Core/Include/cmsis_gcc.h **** {
 1161              		.loc 2 944 27 view .LVU338
 1162              	.LBB25:
 1163              		.loc 2 946 3 view .LVU339
 1164              		.syntax unified
 1165              	@ 946 "HAL_Lib/CMSIS/Core/Include/cmsis_gcc.h" 1
 1166 006c BFF34F8F 		dsb 0xF
 1167              	@ 0 "" 2
 1168              		.thumb
 1169              		.syntax unified
 1170              	.LBE25:
 1171              	.LBE24:
 252:HAL_Lib/STM32H7xx_HAL_Driver/Src/stm32h7xx_hal_flash.c **** 
 1172              		.loc 1 252 5 view .LVU340
 252:HAL_Lib/STM32H7xx_HAL_Driver/Src/stm32h7xx_hal_flash.c **** 
 1173              		.loc 1 252 14 is_stmt 0 view .LVU341
 1174 0070 3146     		mov	r1, r6
 1175 0072 4CF25030 		movw	r0, #50000
 1176              	.LVL80:
ARM GAS  C:\Users\HUAV\AppData\Local\Temp\ccFxhkJ1.s 			page 61


 252:HAL_Lib/STM32H7xx_HAL_Driver/Src/stm32h7xx_hal_flash.c **** 
 1177              		.loc 1 252 14 view .LVU342
 1178 0076 FFF7FEFF 		bl	FLASH_WaitForLastOperation
 1179              	.LVL81:
 264:HAL_Lib/STM32H7xx_HAL_Driver/Src/stm32h7xx_hal_flash.c ****       {
 1180              		.loc 1 264 7 is_stmt 1 view .LVU343
 264:HAL_Lib/STM32H7xx_HAL_Driver/Src/stm32h7xx_hal_flash.c ****       {
 1181              		.loc 1 264 9 is_stmt 0 view .LVU344
 1182 007a 012E     		cmp	r6, #1
 1183 007c 12D0     		beq	.L109
 272:HAL_Lib/STM32H7xx_HAL_Driver/Src/stm32h7xx_hal_flash.c ****       }
 1184              		.loc 1 272 9 is_stmt 1 view .LVU345
 1185 007e 0F4A     		ldr	r2, .L110+4
 1186 0080 D2F80C31 		ldr	r3, [r2, #268]
 1187 0084 23F00203 		bic	r3, r3, #2
 1188 0088 C2F80C31 		str	r3, [r2, #268]
 1189              	.LVL82:
 1190              	.L96:
 292:HAL_Lib/STM32H7xx_HAL_Driver/Src/stm32h7xx_hal_flash.c **** 
 1191              		.loc 1 292 3 view .LVU346
 292:HAL_Lib/STM32H7xx_HAL_Driver/Src/stm32h7xx_hal_flash.c **** 
 1192              		.loc 1 292 3 view .LVU347
 1193 008c 0A4B     		ldr	r3, .L110
 1194 008e 0022     		movs	r2, #0
 1195 0090 1A75     		strb	r2, [r3, #20]
 292:HAL_Lib/STM32H7xx_HAL_Driver/Src/stm32h7xx_hal_flash.c **** 
 1196              		.loc 1 292 3 view .LVU348
 294:HAL_Lib/STM32H7xx_HAL_Driver/Src/stm32h7xx_hal_flash.c **** }
 1197              		.loc 1 294 3 view .LVU349
 1198              	.LVL83:
 1199              	.L94:
 295:HAL_Lib/STM32H7xx_HAL_Driver/Src/stm32h7xx_hal_flash.c **** 
 1200              		.loc 1 295 1 is_stmt 0 view .LVU350
 1201 0092 70BD     		pop	{r4, r5, r6, pc}
 1202              	.LVL84:
 1203              	.L102:
 169:HAL_Lib/STM32H7xx_HAL_Driver/Src/stm32h7xx_hal_flash.c ****   }
 1204              		.loc 1 169 10 view .LVU351
 1205 0094 0126     		movs	r6, #1
