ARM GAS  C:\Users\huav\AppData\Local\Temp\cc2UW7ST.s 			page 1


   1              		.cpu cortex-m7
   2              		.eabi_attribute 28, 1
   3              		.eabi_attribute 20, 1
   4              		.eabi_attribute 21, 1
   5              		.eabi_attribute 23, 3
   6              		.eabi_attribute 24, 1
   7              		.eabi_attribute 25, 1
   8              		.eabi_attribute 26, 1
   9              		.eabi_attribute 30, 1
  10              		.eabi_attribute 34, 1
  11              		.eabi_attribute 18, 4
  12              		.file	"stm32h7xx_hal_exti.c"
  13              		.text
  14              	.Ltext0:
  15              		.cfi_sections	.debug_frame
  16              		.section	.text.HAL_EXTI_SetConfigLine,"ax",%progbits
  17              		.align	1
  18              		.global	HAL_EXTI_SetConfigLine
  19              		.arch armv7e-m
  20              		.syntax unified
  21              		.thumb
  22              		.thumb_func
  23              		.fpu fpv5-d16
  25              	HAL_EXTI_SetConfigLine:
  26              	.LVL0:
  27              	.LFB144:
  28              		.file 1 "HAL_Lib/STM32H7xx_HAL_Driver/Src/stm32h7xx_hal_exti.c"
   1:HAL_Lib/STM32H7xx_HAL_Driver/Src/stm32h7xx_hal_exti.c **** /**
   2:HAL_Lib/STM32H7xx_HAL_Driver/Src/stm32h7xx_hal_exti.c ****   ******************************************************************************
   3:HAL_Lib/STM32H7xx_HAL_Driver/Src/stm32h7xx_hal_exti.c ****   * @file    stm32h7xx_hal_exti.c
   4:HAL_Lib/STM32H7xx_HAL_Driver/Src/stm32h7xx_hal_exti.c ****   * @author  MCD Application Team
   5:HAL_Lib/STM32H7xx_HAL_Driver/Src/stm32h7xx_hal_exti.c ****   * @brief   EXTI HAL module driver.
   6:HAL_Lib/STM32H7xx_HAL_Driver/Src/stm32h7xx_hal_exti.c ****   *          This file provides firmware functions to manage the following
   7:HAL_Lib/STM32H7xx_HAL_Driver/Src/stm32h7xx_hal_exti.c ****   *          functionalities of the General Purpose Input/Output (EXTI) peripheral:
   8:HAL_Lib/STM32H7xx_HAL_Driver/Src/stm32h7xx_hal_exti.c ****   *           + Initialization and de-initialization functions
   9:HAL_Lib/STM32H7xx_HAL_Driver/Src/stm32h7xx_hal_exti.c ****   *           + IO operation functions
  10:HAL_Lib/STM32H7xx_HAL_Driver/Src/stm32h7xx_hal_exti.c ****   *
  11:HAL_Lib/STM32H7xx_HAL_Driver/Src/stm32h7xx_hal_exti.c ****   ******************************************************************************
  12:HAL_Lib/STM32H7xx_HAL_Driver/Src/stm32h7xx_hal_exti.c ****   * @attention
  13:HAL_Lib/STM32H7xx_HAL_Driver/Src/stm32h7xx_hal_exti.c ****   *
  14:HAL_Lib/STM32H7xx_HAL_Driver/Src/stm32h7xx_hal_exti.c ****   * Copyright (c) 2017 STMicroelectronics.
  15:HAL_Lib/STM32H7xx_HAL_Driver/Src/stm32h7xx_hal_exti.c ****   * All rights reserved.
  16:HAL_Lib/STM32H7xx_HAL_Driver/Src/stm32h7xx_hal_exti.c ****   *
  17:HAL_Lib/STM32H7xx_HAL_Driver/Src/stm32h7xx_hal_exti.c ****   * This software is licensed under terms that can be found in the LICENSE file
  18:HAL_Lib/STM32H7xx_HAL_Driver/Src/stm32h7xx_hal_exti.c ****   * in the root directory of this software component.
  19:HAL_Lib/STM32H7xx_HAL_Driver/Src/stm32h7xx_hal_exti.c ****   * If no LICENSE file comes with this software, it is provided AS-IS.
  20:HAL_Lib/STM32H7xx_HAL_Driver/Src/stm32h7xx_hal_exti.c ****   *
  21:HAL_Lib/STM32H7xx_HAL_Driver/Src/stm32h7xx_hal_exti.c ****   ******************************************************************************
  22:HAL_Lib/STM32H7xx_HAL_Driver/Src/stm32h7xx_hal_exti.c ****   @verbatim
  23:HAL_Lib/STM32H7xx_HAL_Driver/Src/stm32h7xx_hal_exti.c ****   ==============================================================================
  24:HAL_Lib/STM32H7xx_HAL_Driver/Src/stm32h7xx_hal_exti.c ****                     ##### EXTI Peripheral features #####
  25:HAL_Lib/STM32H7xx_HAL_Driver/Src/stm32h7xx_hal_exti.c ****   ==============================================================================
  26:HAL_Lib/STM32H7xx_HAL_Driver/Src/stm32h7xx_hal_exti.c ****   [..]
  27:HAL_Lib/STM32H7xx_HAL_Driver/Src/stm32h7xx_hal_exti.c ****     (+) Each Exti line can be configured within this driver.
  28:HAL_Lib/STM32H7xx_HAL_Driver/Src/stm32h7xx_hal_exti.c **** 
  29:HAL_Lib/STM32H7xx_HAL_Driver/Src/stm32h7xx_hal_exti.c ****     (+) Exti line can be configured in 3 different modes
  30:HAL_Lib/STM32H7xx_HAL_Driver/Src/stm32h7xx_hal_exti.c ****         (++) Interrupt (CORE1 or CORE2 in case of dual core line )
ARM GAS  C:\Users\huav\AppData\Local\Temp\cc2UW7ST.s 			page 2


  31:HAL_Lib/STM32H7xx_HAL_Driver/Src/stm32h7xx_hal_exti.c ****         (++) Event (CORE1 or CORE2 in case of dual core line )
  32:HAL_Lib/STM32H7xx_HAL_Driver/Src/stm32h7xx_hal_exti.c ****         (++) a combination of the previous
  33:HAL_Lib/STM32H7xx_HAL_Driver/Src/stm32h7xx_hal_exti.c **** 
  34:HAL_Lib/STM32H7xx_HAL_Driver/Src/stm32h7xx_hal_exti.c ****     (+) Configurable Exti lines can be configured with 3 different triggers
  35:HAL_Lib/STM32H7xx_HAL_Driver/Src/stm32h7xx_hal_exti.c ****         (++) Rising
  36:HAL_Lib/STM32H7xx_HAL_Driver/Src/stm32h7xx_hal_exti.c ****         (++) Falling
  37:HAL_Lib/STM32H7xx_HAL_Driver/Src/stm32h7xx_hal_exti.c ****         (++) Both of them
  38:HAL_Lib/STM32H7xx_HAL_Driver/Src/stm32h7xx_hal_exti.c **** 
  39:HAL_Lib/STM32H7xx_HAL_Driver/Src/stm32h7xx_hal_exti.c ****     (+) When set in interrupt mode, configurable Exti lines have two diffenrents
  40:HAL_Lib/STM32H7xx_HAL_Driver/Src/stm32h7xx_hal_exti.c ****         interrupt pending registers which allow to distinguish which transition
  41:HAL_Lib/STM32H7xx_HAL_Driver/Src/stm32h7xx_hal_exti.c ****         occurs:
  42:HAL_Lib/STM32H7xx_HAL_Driver/Src/stm32h7xx_hal_exti.c ****         (++) Rising edge pending interrupt
  43:HAL_Lib/STM32H7xx_HAL_Driver/Src/stm32h7xx_hal_exti.c ****         (++) Falling
  44:HAL_Lib/STM32H7xx_HAL_Driver/Src/stm32h7xx_hal_exti.c **** 
  45:HAL_Lib/STM32H7xx_HAL_Driver/Src/stm32h7xx_hal_exti.c ****     (+) Exti lines 0 to 15 are linked to gpio pin number 0 to 15. Gpio port can
  46:HAL_Lib/STM32H7xx_HAL_Driver/Src/stm32h7xx_hal_exti.c ****         be selected through multiplexer.
  47:HAL_Lib/STM32H7xx_HAL_Driver/Src/stm32h7xx_hal_exti.c **** 
  48:HAL_Lib/STM32H7xx_HAL_Driver/Src/stm32h7xx_hal_exti.c ****     (+) PendClearSource used to set the D3 Smart Run Domain autoamtic pend clear source.
  49:HAL_Lib/STM32H7xx_HAL_Driver/Src/stm32h7xx_hal_exti.c ****         It is applicable for line with wkaeup target is Any (CPU1 , CPU2 and D3 smart run domain).
  50:HAL_Lib/STM32H7xx_HAL_Driver/Src/stm32h7xx_hal_exti.c ****         Value can be one of the following:
  51:HAL_Lib/STM32H7xx_HAL_Driver/Src/stm32h7xx_hal_exti.c ****         (++)  EXTI_D3_PENDCLR_SRC_NONE : no pend clear source is selected :
  52:HAL_Lib/STM32H7xx_HAL_Driver/Src/stm32h7xx_hal_exti.c ****               In this case corresponding bit of D2PMRx register is set to 0
  53:HAL_Lib/STM32H7xx_HAL_Driver/Src/stm32h7xx_hal_exti.c ****                 (+++) On a configurable Line : the D3 domain wakeup signal is
  54:HAL_Lib/STM32H7xx_HAL_Driver/Src/stm32h7xx_hal_exti.c ****                       automatically cleared after after the Delay + Rising Edge detect
  55:HAL_Lib/STM32H7xx_HAL_Driver/Src/stm32h7xx_hal_exti.c ****                 (+++) On a direct Line : the D3 domain wakeup signal is
  56:HAL_Lib/STM32H7xx_HAL_Driver/Src/stm32h7xx_hal_exti.c ****                       cleared after the direct event input signal is cleared
  57:HAL_Lib/STM32H7xx_HAL_Driver/Src/stm32h7xx_hal_exti.c **** 
  58:HAL_Lib/STM32H7xx_HAL_Driver/Src/stm32h7xx_hal_exti.c ****         (++)  EXTI_D3_PENDCLR_SRC_DMACH6 : no pend clear source is selected :
  59:HAL_Lib/STM32H7xx_HAL_Driver/Src/stm32h7xx_hal_exti.c ****               In this case corresponding bit of D2PMRx register is set to 1
  60:HAL_Lib/STM32H7xx_HAL_Driver/Src/stm32h7xx_hal_exti.c ****               and corresponding bits(2) of D3PCRxL/H is set to b00 :
  61:HAL_Lib/STM32H7xx_HAL_Driver/Src/stm32h7xx_hal_exti.c ****                 DMA ch6 event selected as D3 domain pendclear source
  62:HAL_Lib/STM32H7xx_HAL_Driver/Src/stm32h7xx_hal_exti.c **** 
  63:HAL_Lib/STM32H7xx_HAL_Driver/Src/stm32h7xx_hal_exti.c ****         (++)  EXTI_D3_PENDCLR_SRC_DMACH7 : no pend clear source is selected :
  64:HAL_Lib/STM32H7xx_HAL_Driver/Src/stm32h7xx_hal_exti.c ****               In this case corresponding bit of D2PMRx register is set to 1
  65:HAL_Lib/STM32H7xx_HAL_Driver/Src/stm32h7xx_hal_exti.c ****               and corresponding bits(2) of D3PCRxL/H is set to b01 :
  66:HAL_Lib/STM32H7xx_HAL_Driver/Src/stm32h7xx_hal_exti.c ****                 DMA ch7 event selected as D3 domain pendclear source
  67:HAL_Lib/STM32H7xx_HAL_Driver/Src/stm32h7xx_hal_exti.c **** 
  68:HAL_Lib/STM32H7xx_HAL_Driver/Src/stm32h7xx_hal_exti.c ****         (++)  EXTI_D3_PENDCLR_SRC_LPTIM4 : no pend clear source is selected :
  69:HAL_Lib/STM32H7xx_HAL_Driver/Src/stm32h7xx_hal_exti.c ****               In this case corresponding bit of D2PMRx register is set to 1
  70:HAL_Lib/STM32H7xx_HAL_Driver/Src/stm32h7xx_hal_exti.c ****               and corresponding bits(2) of D3PCRxL/H is set to b10 :
  71:HAL_Lib/STM32H7xx_HAL_Driver/Src/stm32h7xx_hal_exti.c ****                 LPTIM4 out selected as D3 domain pendclear source
  72:HAL_Lib/STM32H7xx_HAL_Driver/Src/stm32h7xx_hal_exti.c **** 
  73:HAL_Lib/STM32H7xx_HAL_Driver/Src/stm32h7xx_hal_exti.c ****         (++)  EXTI_D3_PENDCLR_SRC_LPTIM5 : no pend clear source is selected :
  74:HAL_Lib/STM32H7xx_HAL_Driver/Src/stm32h7xx_hal_exti.c ****               In this case corresponding bit of D2PMRx register is set to 1
  75:HAL_Lib/STM32H7xx_HAL_Driver/Src/stm32h7xx_hal_exti.c ****               and corresponding bits(2) of D3PCRxL/H is set to b11 :
  76:HAL_Lib/STM32H7xx_HAL_Driver/Src/stm32h7xx_hal_exti.c ****                 LPTIM5 out selected as D3 domain pendclear source
  77:HAL_Lib/STM32H7xx_HAL_Driver/Src/stm32h7xx_hal_exti.c **** 
  78:HAL_Lib/STM32H7xx_HAL_Driver/Src/stm32h7xx_hal_exti.c **** 
  79:HAL_Lib/STM32H7xx_HAL_Driver/Src/stm32h7xx_hal_exti.c ****                      ##### How to use this driver #####
  80:HAL_Lib/STM32H7xx_HAL_Driver/Src/stm32h7xx_hal_exti.c ****   ==============================================================================
  81:HAL_Lib/STM32H7xx_HAL_Driver/Src/stm32h7xx_hal_exti.c ****   [..]
  82:HAL_Lib/STM32H7xx_HAL_Driver/Src/stm32h7xx_hal_exti.c **** 
  83:HAL_Lib/STM32H7xx_HAL_Driver/Src/stm32h7xx_hal_exti.c ****     (#) Configure the EXTI line using HAL_EXTI_SetConfigLine().
  84:HAL_Lib/STM32H7xx_HAL_Driver/Src/stm32h7xx_hal_exti.c ****         (++) Choose the interrupt line number by setting "Line" member from
  85:HAL_Lib/STM32H7xx_HAL_Driver/Src/stm32h7xx_hal_exti.c ****              EXTI_ConfigTypeDef structure.
  86:HAL_Lib/STM32H7xx_HAL_Driver/Src/stm32h7xx_hal_exti.c ****         (++) Configure the interrupt and/or event mode using "Mode" member from
  87:HAL_Lib/STM32H7xx_HAL_Driver/Src/stm32h7xx_hal_exti.c ****              EXTI_ConfigTypeDef structure.
ARM GAS  C:\Users\huav\AppData\Local\Temp\cc2UW7ST.s 			page 3


  88:HAL_Lib/STM32H7xx_HAL_Driver/Src/stm32h7xx_hal_exti.c ****         (++) For configurable lines, configure rising and/or falling trigger
  89:HAL_Lib/STM32H7xx_HAL_Driver/Src/stm32h7xx_hal_exti.c ****              "Trigger" member from EXTI_ConfigTypeDef structure.
  90:HAL_Lib/STM32H7xx_HAL_Driver/Src/stm32h7xx_hal_exti.c ****         (++) For Exti lines linked to gpio, choose gpio port using "GPIOSel"
  91:HAL_Lib/STM32H7xx_HAL_Driver/Src/stm32h7xx_hal_exti.c ****              member from GPIO_InitTypeDef structure.
  92:HAL_Lib/STM32H7xx_HAL_Driver/Src/stm32h7xx_hal_exti.c ****         (++) For Exti lines with wkaeup target is Any (CPU1 , CPU2 and D3 smart run domain),
  93:HAL_Lib/STM32H7xx_HAL_Driver/Src/stm32h7xx_hal_exti.c ****              choose gpio D3 PendClearSource using PendClearSource
  94:HAL_Lib/STM32H7xx_HAL_Driver/Src/stm32h7xx_hal_exti.c ****              member from EXTI_PendClear_Source structure.
  95:HAL_Lib/STM32H7xx_HAL_Driver/Src/stm32h7xx_hal_exti.c **** 
  96:HAL_Lib/STM32H7xx_HAL_Driver/Src/stm32h7xx_hal_exti.c ****     (#) Get current Exti configuration of a dedicated line using
  97:HAL_Lib/STM32H7xx_HAL_Driver/Src/stm32h7xx_hal_exti.c ****         HAL_EXTI_GetConfigLine().
  98:HAL_Lib/STM32H7xx_HAL_Driver/Src/stm32h7xx_hal_exti.c ****         (++) Provide exiting handle as parameter.
  99:HAL_Lib/STM32H7xx_HAL_Driver/Src/stm32h7xx_hal_exti.c ****         (++) Provide pointer on EXTI_ConfigTypeDef structure as second parameter.
 100:HAL_Lib/STM32H7xx_HAL_Driver/Src/stm32h7xx_hal_exti.c **** 
 101:HAL_Lib/STM32H7xx_HAL_Driver/Src/stm32h7xx_hal_exti.c ****     (#) Clear Exti configuration of a dedicated line using HAL_EXTI_GetConfigLine().
 102:HAL_Lib/STM32H7xx_HAL_Driver/Src/stm32h7xx_hal_exti.c ****         (++) Provide exiting handle as parameter.
 103:HAL_Lib/STM32H7xx_HAL_Driver/Src/stm32h7xx_hal_exti.c **** 
 104:HAL_Lib/STM32H7xx_HAL_Driver/Src/stm32h7xx_hal_exti.c ****     (#) Register callback to treat Exti interrupts using HAL_EXTI_RegisterCallback().
 105:HAL_Lib/STM32H7xx_HAL_Driver/Src/stm32h7xx_hal_exti.c ****         (++) Provide exiting handle as first parameter.
 106:HAL_Lib/STM32H7xx_HAL_Driver/Src/stm32h7xx_hal_exti.c ****         (++) Provide which callback will be registered using one value from
 107:HAL_Lib/STM32H7xx_HAL_Driver/Src/stm32h7xx_hal_exti.c ****              EXTI_CallbackIDTypeDef.
 108:HAL_Lib/STM32H7xx_HAL_Driver/Src/stm32h7xx_hal_exti.c ****         (++) Provide callback function pointer.
 109:HAL_Lib/STM32H7xx_HAL_Driver/Src/stm32h7xx_hal_exti.c **** 
 110:HAL_Lib/STM32H7xx_HAL_Driver/Src/stm32h7xx_hal_exti.c ****     (#) Get interrupt pending bit using HAL_EXTI_GetPending().
 111:HAL_Lib/STM32H7xx_HAL_Driver/Src/stm32h7xx_hal_exti.c **** 
 112:HAL_Lib/STM32H7xx_HAL_Driver/Src/stm32h7xx_hal_exti.c ****     (#) Clear interrupt pending bit using HAL_EXTI_GetPending().
 113:HAL_Lib/STM32H7xx_HAL_Driver/Src/stm32h7xx_hal_exti.c **** 
 114:HAL_Lib/STM32H7xx_HAL_Driver/Src/stm32h7xx_hal_exti.c ****     (#) Generate software interrupt using HAL_EXTI_GenerateSWI().
 115:HAL_Lib/STM32H7xx_HAL_Driver/Src/stm32h7xx_hal_exti.c **** 
 116:HAL_Lib/STM32H7xx_HAL_Driver/Src/stm32h7xx_hal_exti.c ****   @endverbatim
 117:HAL_Lib/STM32H7xx_HAL_Driver/Src/stm32h7xx_hal_exti.c ****   */
 118:HAL_Lib/STM32H7xx_HAL_Driver/Src/stm32h7xx_hal_exti.c **** 
 119:HAL_Lib/STM32H7xx_HAL_Driver/Src/stm32h7xx_hal_exti.c **** /* Includes ------------------------------------------------------------------*/
 120:HAL_Lib/STM32H7xx_HAL_Driver/Src/stm32h7xx_hal_exti.c **** #include "stm32h7xx_hal.h"
 121:HAL_Lib/STM32H7xx_HAL_Driver/Src/stm32h7xx_hal_exti.c **** 
 122:HAL_Lib/STM32H7xx_HAL_Driver/Src/stm32h7xx_hal_exti.c **** /** @addtogroup STM32H7xx_HAL_Driver
 123:HAL_Lib/STM32H7xx_HAL_Driver/Src/stm32h7xx_hal_exti.c ****   * @{
 124:HAL_Lib/STM32H7xx_HAL_Driver/Src/stm32h7xx_hal_exti.c ****   */
 125:HAL_Lib/STM32H7xx_HAL_Driver/Src/stm32h7xx_hal_exti.c **** 
 126:HAL_Lib/STM32H7xx_HAL_Driver/Src/stm32h7xx_hal_exti.c **** /** @addtogroup EXTI
 127:HAL_Lib/STM32H7xx_HAL_Driver/Src/stm32h7xx_hal_exti.c ****   * @{
 128:HAL_Lib/STM32H7xx_HAL_Driver/Src/stm32h7xx_hal_exti.c ****   */
 129:HAL_Lib/STM32H7xx_HAL_Driver/Src/stm32h7xx_hal_exti.c **** 
 130:HAL_Lib/STM32H7xx_HAL_Driver/Src/stm32h7xx_hal_exti.c **** #ifdef HAL_EXTI_MODULE_ENABLED
 131:HAL_Lib/STM32H7xx_HAL_Driver/Src/stm32h7xx_hal_exti.c **** 
 132:HAL_Lib/STM32H7xx_HAL_Driver/Src/stm32h7xx_hal_exti.c **** /* Private typedef -----------------------------------------------------------*/
 133:HAL_Lib/STM32H7xx_HAL_Driver/Src/stm32h7xx_hal_exti.c **** /* Private defines ------------------------------------------------------------*/
 134:HAL_Lib/STM32H7xx_HAL_Driver/Src/stm32h7xx_hal_exti.c **** /** @defgroup EXTI_Private_Constants EXTI Private Constants
 135:HAL_Lib/STM32H7xx_HAL_Driver/Src/stm32h7xx_hal_exti.c ****   * @{
 136:HAL_Lib/STM32H7xx_HAL_Driver/Src/stm32h7xx_hal_exti.c ****   */
 137:HAL_Lib/STM32H7xx_HAL_Driver/Src/stm32h7xx_hal_exti.c **** #define EXTI_MODE_OFFSET                    0x04U   /* 0x10: offset between CPU IMR/EMR registers *
 138:HAL_Lib/STM32H7xx_HAL_Driver/Src/stm32h7xx_hal_exti.c **** #define EXTI_CONFIG_OFFSET                  0x08U   /* 0x20: offset between CPU Rising/Falling conf
 139:HAL_Lib/STM32H7xx_HAL_Driver/Src/stm32h7xx_hal_exti.c **** /**
 140:HAL_Lib/STM32H7xx_HAL_Driver/Src/stm32h7xx_hal_exti.c ****   * @}
 141:HAL_Lib/STM32H7xx_HAL_Driver/Src/stm32h7xx_hal_exti.c ****   */
 142:HAL_Lib/STM32H7xx_HAL_Driver/Src/stm32h7xx_hal_exti.c **** 
 143:HAL_Lib/STM32H7xx_HAL_Driver/Src/stm32h7xx_hal_exti.c **** /* Private macros ------------------------------------------------------------*/
 144:HAL_Lib/STM32H7xx_HAL_Driver/Src/stm32h7xx_hal_exti.c **** /* Private variables ---------------------------------------------------------*/
ARM GAS  C:\Users\huav\AppData\Local\Temp\cc2UW7ST.s 			page 4


 145:HAL_Lib/STM32H7xx_HAL_Driver/Src/stm32h7xx_hal_exti.c **** /* Private function prototypes -----------------------------------------------*/
 146:HAL_Lib/STM32H7xx_HAL_Driver/Src/stm32h7xx_hal_exti.c **** /* Exported functions --------------------------------------------------------*/
 147:HAL_Lib/STM32H7xx_HAL_Driver/Src/stm32h7xx_hal_exti.c **** 
 148:HAL_Lib/STM32H7xx_HAL_Driver/Src/stm32h7xx_hal_exti.c **** /** @addtogroup EXTI_Exported_Functions
 149:HAL_Lib/STM32H7xx_HAL_Driver/Src/stm32h7xx_hal_exti.c ****   * @{
 150:HAL_Lib/STM32H7xx_HAL_Driver/Src/stm32h7xx_hal_exti.c ****   */
 151:HAL_Lib/STM32H7xx_HAL_Driver/Src/stm32h7xx_hal_exti.c **** 
 152:HAL_Lib/STM32H7xx_HAL_Driver/Src/stm32h7xx_hal_exti.c **** /** @addtogroup EXTI_Exported_Functions_Group1
 153:HAL_Lib/STM32H7xx_HAL_Driver/Src/stm32h7xx_hal_exti.c ****  *  @brief    Configuration functions
 154:HAL_Lib/STM32H7xx_HAL_Driver/Src/stm32h7xx_hal_exti.c ****  *
 155:HAL_Lib/STM32H7xx_HAL_Driver/Src/stm32h7xx_hal_exti.c **** @verbatim
 156:HAL_Lib/STM32H7xx_HAL_Driver/Src/stm32h7xx_hal_exti.c ****  ===============================================================================
 157:HAL_Lib/STM32H7xx_HAL_Driver/Src/stm32h7xx_hal_exti.c ****               ##### Configuration functions #####
 158:HAL_Lib/STM32H7xx_HAL_Driver/Src/stm32h7xx_hal_exti.c ****  ===============================================================================
 159:HAL_Lib/STM32H7xx_HAL_Driver/Src/stm32h7xx_hal_exti.c **** 
 160:HAL_Lib/STM32H7xx_HAL_Driver/Src/stm32h7xx_hal_exti.c **** @endverbatim
 161:HAL_Lib/STM32H7xx_HAL_Driver/Src/stm32h7xx_hal_exti.c ****   * @{
 162:HAL_Lib/STM32H7xx_HAL_Driver/Src/stm32h7xx_hal_exti.c ****   */
 163:HAL_Lib/STM32H7xx_HAL_Driver/Src/stm32h7xx_hal_exti.c **** 
 164:HAL_Lib/STM32H7xx_HAL_Driver/Src/stm32h7xx_hal_exti.c **** /**
 165:HAL_Lib/STM32H7xx_HAL_Driver/Src/stm32h7xx_hal_exti.c ****   * @brief  Set configuration of a dedicated Exti line.
 166:HAL_Lib/STM32H7xx_HAL_Driver/Src/stm32h7xx_hal_exti.c ****   * @param  hexti Exti handle.
 167:HAL_Lib/STM32H7xx_HAL_Driver/Src/stm32h7xx_hal_exti.c ****   * @param  pExtiConfig Pointer on EXTI configuration to be set.
 168:HAL_Lib/STM32H7xx_HAL_Driver/Src/stm32h7xx_hal_exti.c ****   * @retval HAL Status.
 169:HAL_Lib/STM32H7xx_HAL_Driver/Src/stm32h7xx_hal_exti.c ****   */
 170:HAL_Lib/STM32H7xx_HAL_Driver/Src/stm32h7xx_hal_exti.c **** HAL_StatusTypeDef HAL_EXTI_SetConfigLine(EXTI_HandleTypeDef *hexti, EXTI_ConfigTypeDef *pExtiConfig
 171:HAL_Lib/STM32H7xx_HAL_Driver/Src/stm32h7xx_hal_exti.c **** {
  29              		.loc 1 171 1 view -0
  30              		.cfi_startproc
  31              		@ args = 0, pretend = 0, frame = 0
  32              		@ frame_needed = 0, uses_anonymous_args = 0
 172:HAL_Lib/STM32H7xx_HAL_Driver/Src/stm32h7xx_hal_exti.c ****   __IO uint32_t *regaddr;
  33              		.loc 1 172 3 view .LVU1
 173:HAL_Lib/STM32H7xx_HAL_Driver/Src/stm32h7xx_hal_exti.c ****   uint32_t regval;
  34              		.loc 1 173 3 view .LVU2
 174:HAL_Lib/STM32H7xx_HAL_Driver/Src/stm32h7xx_hal_exti.c ****   uint32_t linepos;
  35              		.loc 1 174 3 view .LVU3
 175:HAL_Lib/STM32H7xx_HAL_Driver/Src/stm32h7xx_hal_exti.c ****   uint32_t maskline;
  36              		.loc 1 175 3 view .LVU4
 176:HAL_Lib/STM32H7xx_HAL_Driver/Src/stm32h7xx_hal_exti.c ****   uint32_t offset;
  37              		.loc 1 176 3 view .LVU5
 177:HAL_Lib/STM32H7xx_HAL_Driver/Src/stm32h7xx_hal_exti.c ****   uint32_t pcrlinepos;
  38              		.loc 1 177 3 view .LVU6
 178:HAL_Lib/STM32H7xx_HAL_Driver/Src/stm32h7xx_hal_exti.c **** 
 179:HAL_Lib/STM32H7xx_HAL_Driver/Src/stm32h7xx_hal_exti.c ****   /* Check null pointer */
 180:HAL_Lib/STM32H7xx_HAL_Driver/Src/stm32h7xx_hal_exti.c ****   if ((hexti == NULL) || (pExtiConfig == NULL))
  39              		.loc 1 180 3 view .LVU7
  40              		.loc 1 180 6 is_stmt 0 view .LVU8
  41 0000 0029     		cmp	r1, #0
  42 0002 18BF     		it	ne
  43 0004 0028     		cmpne	r0, #0
  44 0006 00F08C80 		beq	.L15
 171:HAL_Lib/STM32H7xx_HAL_Driver/Src/stm32h7xx_hal_exti.c ****   __IO uint32_t *regaddr;
  45              		.loc 1 171 1 view .LVU9
  46 000a F0B5     		push	{r4, r5, r6, r7, lr}
  47              	.LCFI0:
  48              		.cfi_def_cfa_offset 20
ARM GAS  C:\Users\huav\AppData\Local\Temp\cc2UW7ST.s 			page 5


  49              		.cfi_offset 4, -20
  50              		.cfi_offset 5, -16
  51              		.cfi_offset 6, -12
  52              		.cfi_offset 7, -8
  53              		.cfi_offset 14, -4
  54 000c 0A46     		mov	r2, r1
 181:HAL_Lib/STM32H7xx_HAL_Driver/Src/stm32h7xx_hal_exti.c ****   {
 182:HAL_Lib/STM32H7xx_HAL_Driver/Src/stm32h7xx_hal_exti.c ****     return HAL_ERROR;
 183:HAL_Lib/STM32H7xx_HAL_Driver/Src/stm32h7xx_hal_exti.c ****   }
 184:HAL_Lib/STM32H7xx_HAL_Driver/Src/stm32h7xx_hal_exti.c **** 
 185:HAL_Lib/STM32H7xx_HAL_Driver/Src/stm32h7xx_hal_exti.c ****   /* Check the parameters */
 186:HAL_Lib/STM32H7xx_HAL_Driver/Src/stm32h7xx_hal_exti.c ****   assert_param(IS_EXTI_LINE(pExtiConfig->Line));
  55              		.loc 1 186 3 is_stmt 1 view .LVU10
 187:HAL_Lib/STM32H7xx_HAL_Driver/Src/stm32h7xx_hal_exti.c ****   assert_param(IS_EXTI_MODE(pExtiConfig->Mode));
  56              		.loc 1 187 3 view .LVU11
 188:HAL_Lib/STM32H7xx_HAL_Driver/Src/stm32h7xx_hal_exti.c **** 
 189:HAL_Lib/STM32H7xx_HAL_Driver/Src/stm32h7xx_hal_exti.c ****   /* Assign line number to handle */
 190:HAL_Lib/STM32H7xx_HAL_Driver/Src/stm32h7xx_hal_exti.c ****   hexti->Line = pExtiConfig->Line;
  57              		.loc 1 190 3 view .LVU12
  58              		.loc 1 190 28 is_stmt 0 view .LVU13
  59 000e 0968     		ldr	r1, [r1]
  60              	.LVL1:
  61              		.loc 1 190 15 view .LVU14
  62 0010 0160     		str	r1, [r0]
 191:HAL_Lib/STM32H7xx_HAL_Driver/Src/stm32h7xx_hal_exti.c **** 
 192:HAL_Lib/STM32H7xx_HAL_Driver/Src/stm32h7xx_hal_exti.c ****   /* compute line register offset and line mask */
 193:HAL_Lib/STM32H7xx_HAL_Driver/Src/stm32h7xx_hal_exti.c ****   offset = ((pExtiConfig->Line & EXTI_REG_MASK) >> EXTI_REG_SHIFT);
  63              		.loc 1 193 3 is_stmt 1 view .LVU15
  64              		.loc 1 193 10 is_stmt 0 view .LVU16
  65 0012 C1F3014C 		ubfx	ip, r1, #16, #2
  66              	.LVL2:
 194:HAL_Lib/STM32H7xx_HAL_Driver/Src/stm32h7xx_hal_exti.c ****   linepos = (pExtiConfig->Line & EXTI_PIN_MASK);
  67              		.loc 1 194 3 is_stmt 1 view .LVU17
  68              		.loc 1 194 11 is_stmt 0 view .LVU18
  69 0016 01F01F0E 		and	lr, r1, #31
  70              	.LVL3:
 195:HAL_Lib/STM32H7xx_HAL_Driver/Src/stm32h7xx_hal_exti.c ****   maskline = (1UL << linepos);
  71              		.loc 1 195 3 is_stmt 1 view .LVU19
  72              		.loc 1 195 12 is_stmt 0 view .LVU20
  73 001a 0123     		movs	r3, #1
  74 001c 03FA0EF3 		lsl	r3, r3, lr
  75              	.LVL4:
 196:HAL_Lib/STM32H7xx_HAL_Driver/Src/stm32h7xx_hal_exti.c **** 
 197:HAL_Lib/STM32H7xx_HAL_Driver/Src/stm32h7xx_hal_exti.c ****   /* Configure triggers for configurable lines */
 198:HAL_Lib/STM32H7xx_HAL_Driver/Src/stm32h7xx_hal_exti.c ****   if ((pExtiConfig->Line & EXTI_CONFIG) != 0x00U)
  76              		.loc 1 198 3 is_stmt 1 view .LVU21
  77              		.loc 1 198 6 is_stmt 0 view .LVU22
  78 0020 11F0007F 		tst	r1, #33554432
  79 0024 18D0     		beq	.L3
 199:HAL_Lib/STM32H7xx_HAL_Driver/Src/stm32h7xx_hal_exti.c ****   {
 200:HAL_Lib/STM32H7xx_HAL_Driver/Src/stm32h7xx_hal_exti.c ****     assert_param(IS_EXTI_TRIGGER(pExtiConfig->Trigger));
  80              		.loc 1 200 5 is_stmt 1 view .LVU23
 201:HAL_Lib/STM32H7xx_HAL_Driver/Src/stm32h7xx_hal_exti.c **** 
 202:HAL_Lib/STM32H7xx_HAL_Driver/Src/stm32h7xx_hal_exti.c ****     /* Configure rising trigger */
 203:HAL_Lib/STM32H7xx_HAL_Driver/Src/stm32h7xx_hal_exti.c ****     regaddr = (__IO uint32_t *)(&EXTI->RTSR1 + (EXTI_CONFIG_OFFSET * offset));
  81              		.loc 1 203 5 view .LVU24
  82              		.loc 1 203 15 is_stmt 0 view .LVU25
ARM GAS  C:\Users\huav\AppData\Local\Temp\cc2UW7ST.s 			page 6


  83 0026 4FEA4C10 		lsl	r0, ip, #5
  84              	.LVL5:
  85              		.loc 1 203 13 view .LVU26
  86 002a 00F1B046 		add	r6, r0, #1476395008
  87              	.LVL6:
 204:HAL_Lib/STM32H7xx_HAL_Driver/Src/stm32h7xx_hal_exti.c ****     regval = *regaddr;
  88              		.loc 1 204 5 is_stmt 1 view .LVU27
  89              		.loc 1 204 12 is_stmt 0 view .LVU28
  90 002e 3468     		ldr	r4, [r6]
  91              	.LVL7:
 205:HAL_Lib/STM32H7xx_HAL_Driver/Src/stm32h7xx_hal_exti.c **** 
 206:HAL_Lib/STM32H7xx_HAL_Driver/Src/stm32h7xx_hal_exti.c ****     /* Mask or set line */
 207:HAL_Lib/STM32H7xx_HAL_Driver/Src/stm32h7xx_hal_exti.c ****     if ((pExtiConfig->Trigger & EXTI_TRIGGER_RISING) != 0x00U)
  92              		.loc 1 207 5 is_stmt 1 view .LVU29
  93              		.loc 1 207 21 is_stmt 0 view .LVU30
  94 0030 9568     		ldr	r5, [r2, #8]
  95              		.loc 1 207 8 view .LVU31
  96 0032 15F0010F 		tst	r5, #1
  97 0036 29D0     		beq	.L4
 208:HAL_Lib/STM32H7xx_HAL_Driver/Src/stm32h7xx_hal_exti.c ****     {
 209:HAL_Lib/STM32H7xx_HAL_Driver/Src/stm32h7xx_hal_exti.c ****       regval |= maskline;
  98              		.loc 1 209 7 is_stmt 1 view .LVU32
  99              		.loc 1 209 14 is_stmt 0 view .LVU33
 100 0038 1C43     		orrs	r4, r4, r3
 101              	.LVL8:
 102              	.L5:
 210:HAL_Lib/STM32H7xx_HAL_Driver/Src/stm32h7xx_hal_exti.c ****     }
 211:HAL_Lib/STM32H7xx_HAL_Driver/Src/stm32h7xx_hal_exti.c ****     else
 212:HAL_Lib/STM32H7xx_HAL_Driver/Src/stm32h7xx_hal_exti.c ****     {
 213:HAL_Lib/STM32H7xx_HAL_Driver/Src/stm32h7xx_hal_exti.c ****       regval &= ~maskline;
 214:HAL_Lib/STM32H7xx_HAL_Driver/Src/stm32h7xx_hal_exti.c ****     }
 215:HAL_Lib/STM32H7xx_HAL_Driver/Src/stm32h7xx_hal_exti.c **** 
 216:HAL_Lib/STM32H7xx_HAL_Driver/Src/stm32h7xx_hal_exti.c ****     /* Store rising trigger mode */
 217:HAL_Lib/STM32H7xx_HAL_Driver/Src/stm32h7xx_hal_exti.c ****     *regaddr = regval;
 103              		.loc 1 217 5 is_stmt 1 view .LVU34
 104              		.loc 1 217 14 is_stmt 0 view .LVU35
 105 003a 3460     		str	r4, [r6]
 218:HAL_Lib/STM32H7xx_HAL_Driver/Src/stm32h7xx_hal_exti.c **** 
 219:HAL_Lib/STM32H7xx_HAL_Driver/Src/stm32h7xx_hal_exti.c ****     /* Configure falling trigger */
 220:HAL_Lib/STM32H7xx_HAL_Driver/Src/stm32h7xx_hal_exti.c ****     regaddr = (__IO uint32_t *)(&EXTI->FTSR1 + (EXTI_CONFIG_OFFSET * offset));
 106              		.loc 1 220 5 is_stmt 1 view .LVU36
 107              		.loc 1 220 13 is_stmt 0 view .LVU37
 108 003c 3A4E     		ldr	r6, .L23
 109              	.LVL9:
 221:HAL_Lib/STM32H7xx_HAL_Driver/Src/stm32h7xx_hal_exti.c ****     regval = *regaddr;
 110              		.loc 1 221 5 is_stmt 1 view .LVU38
 111              		.loc 1 221 12 is_stmt 0 view .LVU39
 112 003e 8459     		ldr	r4, [r0, r6]
 113              	.LVL10:
 222:HAL_Lib/STM32H7xx_HAL_Driver/Src/stm32h7xx_hal_exti.c **** 
 223:HAL_Lib/STM32H7xx_HAL_Driver/Src/stm32h7xx_hal_exti.c ****     /* Mask or set line */
 224:HAL_Lib/STM32H7xx_HAL_Driver/Src/stm32h7xx_hal_exti.c ****     if ((pExtiConfig->Trigger & EXTI_TRIGGER_FALLING) != 0x00U)
 114              		.loc 1 224 5 is_stmt 1 view .LVU40
 115              		.loc 1 224 21 is_stmt 0 view .LVU41
 116 0040 9568     		ldr	r5, [r2, #8]
 117              		.loc 1 224 8 view .LVU42
 118 0042 15F0020F 		tst	r5, #2
ARM GAS  C:\Users\huav\AppData\Local\Temp\cc2UW7ST.s 			page 7


 119 0046 24D0     		beq	.L6
 225:HAL_Lib/STM32H7xx_HAL_Driver/Src/stm32h7xx_hal_exti.c ****     {
 226:HAL_Lib/STM32H7xx_HAL_Driver/Src/stm32h7xx_hal_exti.c ****       regval |= maskline;
 120              		.loc 1 226 7 is_stmt 1 view .LVU43
 121              		.loc 1 226 14 is_stmt 0 view .LVU44
 122 0048 1C43     		orrs	r4, r4, r3
 123              	.LVL11:
 124              	.L7:
 227:HAL_Lib/STM32H7xx_HAL_Driver/Src/stm32h7xx_hal_exti.c ****     }
 228:HAL_Lib/STM32H7xx_HAL_Driver/Src/stm32h7xx_hal_exti.c ****     else
 229:HAL_Lib/STM32H7xx_HAL_Driver/Src/stm32h7xx_hal_exti.c ****     {
 230:HAL_Lib/STM32H7xx_HAL_Driver/Src/stm32h7xx_hal_exti.c ****       regval &= ~maskline;
 231:HAL_Lib/STM32H7xx_HAL_Driver/Src/stm32h7xx_hal_exti.c ****     }
 232:HAL_Lib/STM32H7xx_HAL_Driver/Src/stm32h7xx_hal_exti.c **** 
 233:HAL_Lib/STM32H7xx_HAL_Driver/Src/stm32h7xx_hal_exti.c ****     /* Store falling trigger mode */
 234:HAL_Lib/STM32H7xx_HAL_Driver/Src/stm32h7xx_hal_exti.c ****     *regaddr = regval;
 125              		.loc 1 234 5 is_stmt 1 view .LVU45
 126              		.loc 1 234 14 is_stmt 0 view .LVU46
 127 004a 8451     		str	r4, [r0, r6]
 235:HAL_Lib/STM32H7xx_HAL_Driver/Src/stm32h7xx_hal_exti.c **** 
 236:HAL_Lib/STM32H7xx_HAL_Driver/Src/stm32h7xx_hal_exti.c ****     /* Configure gpio port selection in case of gpio exti line */
 237:HAL_Lib/STM32H7xx_HAL_Driver/Src/stm32h7xx_hal_exti.c ****     if ((pExtiConfig->Line & EXTI_GPIO) == EXTI_GPIO)
 128              		.loc 1 237 5 is_stmt 1 view .LVU47
 129              		.loc 1 237 21 is_stmt 0 view .LVU48
 130 004c 1068     		ldr	r0, [r2]
 131              	.LVL12:
 132              		.loc 1 237 28 view .LVU49
 133 004e 00F0C060 		and	r0, r0, #100663296
 134              		.loc 1 237 8 view .LVU50
 135 0052 B0F1C06F 		cmp	r0, #100663296
 136 0056 1FD0     		beq	.L21
 137              	.LVL13:
 138              	.L3:
 238:HAL_Lib/STM32H7xx_HAL_Driver/Src/stm32h7xx_hal_exti.c ****     {
 239:HAL_Lib/STM32H7xx_HAL_Driver/Src/stm32h7xx_hal_exti.c ****       assert_param(IS_EXTI_GPIO_PORT(pExtiConfig->GPIOSel));
 240:HAL_Lib/STM32H7xx_HAL_Driver/Src/stm32h7xx_hal_exti.c ****       assert_param(IS_EXTI_GPIO_PIN(linepos));
 241:HAL_Lib/STM32H7xx_HAL_Driver/Src/stm32h7xx_hal_exti.c **** 
 242:HAL_Lib/STM32H7xx_HAL_Driver/Src/stm32h7xx_hal_exti.c ****       regval = SYSCFG->EXTICR[(linepos >> 2U) & 0x03UL];
 243:HAL_Lib/STM32H7xx_HAL_Driver/Src/stm32h7xx_hal_exti.c ****       regval &= ~(SYSCFG_EXTICR1_EXTI0 << (SYSCFG_EXTICR1_EXTI1_Pos * (linepos & 0x03U)));
 244:HAL_Lib/STM32H7xx_HAL_Driver/Src/stm32h7xx_hal_exti.c ****       regval |= (pExtiConfig->GPIOSel << (SYSCFG_EXTICR1_EXTI1_Pos * (linepos & 0x03U)));
 245:HAL_Lib/STM32H7xx_HAL_Driver/Src/stm32h7xx_hal_exti.c ****       SYSCFG->EXTICR[(linepos >> 2U) & 0x03UL] = regval;
 246:HAL_Lib/STM32H7xx_HAL_Driver/Src/stm32h7xx_hal_exti.c ****     }
 247:HAL_Lib/STM32H7xx_HAL_Driver/Src/stm32h7xx_hal_exti.c ****   }
 248:HAL_Lib/STM32H7xx_HAL_Driver/Src/stm32h7xx_hal_exti.c **** 
 249:HAL_Lib/STM32H7xx_HAL_Driver/Src/stm32h7xx_hal_exti.c ****   /* Configure interrupt mode : read current mode */
 250:HAL_Lib/STM32H7xx_HAL_Driver/Src/stm32h7xx_hal_exti.c ****   regaddr = (__IO uint32_t *)(&EXTI->IMR1 + (EXTI_MODE_OFFSET * offset));
 139              		.loc 1 250 3 is_stmt 1 view .LVU51
 140              		.loc 1 250 13 is_stmt 0 view .LVU52
 141 0058 4FEA0C10 		lsl	r0, ip, #4
 142              		.loc 1 250 11 view .LVU53
 143 005c 334E     		ldr	r6, .L23+4
 144              	.LVL14:
 251:HAL_Lib/STM32H7xx_HAL_Driver/Src/stm32h7xx_hal_exti.c ****   regval = *regaddr;
 145              		.loc 1 251 3 is_stmt 1 view .LVU54
 146              		.loc 1 251 10 is_stmt 0 view .LVU55
 147 005e 8459     		ldr	r4, [r0, r6]
 148              	.LVL15:
ARM GAS  C:\Users\huav\AppData\Local\Temp\cc2UW7ST.s 			page 8


 252:HAL_Lib/STM32H7xx_HAL_Driver/Src/stm32h7xx_hal_exti.c **** 
 253:HAL_Lib/STM32H7xx_HAL_Driver/Src/stm32h7xx_hal_exti.c ****   /* Mask or set line */
 254:HAL_Lib/STM32H7xx_HAL_Driver/Src/stm32h7xx_hal_exti.c ****   if ((pExtiConfig->Mode & EXTI_MODE_INTERRUPT) != 0x00U)
 149              		.loc 1 254 3 is_stmt 1 view .LVU56
 150              		.loc 1 254 19 is_stmt 0 view .LVU57
 151 0060 5568     		ldr	r5, [r2, #4]
 152              		.loc 1 254 6 view .LVU58
 153 0062 15F0010F 		tst	r5, #1
 154 0066 2AD0     		beq	.L8
 255:HAL_Lib/STM32H7xx_HAL_Driver/Src/stm32h7xx_hal_exti.c ****   {
 256:HAL_Lib/STM32H7xx_HAL_Driver/Src/stm32h7xx_hal_exti.c ****     regval |= maskline;
 155              		.loc 1 256 5 is_stmt 1 view .LVU59
 156              		.loc 1 256 12 is_stmt 0 view .LVU60
 157 0068 1C43     		orrs	r4, r4, r3
 158              	.LVL16:
 159              	.L9:
 257:HAL_Lib/STM32H7xx_HAL_Driver/Src/stm32h7xx_hal_exti.c ****   }
 258:HAL_Lib/STM32H7xx_HAL_Driver/Src/stm32h7xx_hal_exti.c ****   else
 259:HAL_Lib/STM32H7xx_HAL_Driver/Src/stm32h7xx_hal_exti.c ****   {
 260:HAL_Lib/STM32H7xx_HAL_Driver/Src/stm32h7xx_hal_exti.c ****     regval &= ~maskline;
 261:HAL_Lib/STM32H7xx_HAL_Driver/Src/stm32h7xx_hal_exti.c ****   }
 262:HAL_Lib/STM32H7xx_HAL_Driver/Src/stm32h7xx_hal_exti.c **** 
 263:HAL_Lib/STM32H7xx_HAL_Driver/Src/stm32h7xx_hal_exti.c ****   /* Store interrupt mode */
 264:HAL_Lib/STM32H7xx_HAL_Driver/Src/stm32h7xx_hal_exti.c ****   *regaddr = regval;
 160              		.loc 1 264 3 is_stmt 1 view .LVU61
 161              		.loc 1 264 12 is_stmt 0 view .LVU62
 162 006a 8451     		str	r4, [r0, r6]
 265:HAL_Lib/STM32H7xx_HAL_Driver/Src/stm32h7xx_hal_exti.c **** 
 266:HAL_Lib/STM32H7xx_HAL_Driver/Src/stm32h7xx_hal_exti.c ****   /* The event mode cannot be configured if the line does not support it */
 267:HAL_Lib/STM32H7xx_HAL_Driver/Src/stm32h7xx_hal_exti.c ****   assert_param(((pExtiConfig->Line & EXTI_EVENT) == EXTI_EVENT) || ((pExtiConfig->Mode & EXTI_MODE_
 163              		.loc 1 267 3 is_stmt 1 view .LVU63
 268:HAL_Lib/STM32H7xx_HAL_Driver/Src/stm32h7xx_hal_exti.c **** 
 269:HAL_Lib/STM32H7xx_HAL_Driver/Src/stm32h7xx_hal_exti.c ****   /* Configure event mode : read current mode */
 270:HAL_Lib/STM32H7xx_HAL_Driver/Src/stm32h7xx_hal_exti.c ****   regaddr = (__IO uint32_t *)(&EXTI->EMR1 + (EXTI_MODE_OFFSET * offset));
 164              		.loc 1 270 3 view .LVU64
 165              		.loc 1 270 11 is_stmt 0 view .LVU65
 166 006c 304D     		ldr	r5, .L23+8
 167              	.LVL17:
 271:HAL_Lib/STM32H7xx_HAL_Driver/Src/stm32h7xx_hal_exti.c ****   regval = *regaddr;
 168              		.loc 1 271 3 is_stmt 1 view .LVU66
 169              		.loc 1 271 10 is_stmt 0 view .LVU67
 170 006e 4459     		ldr	r4, [r0, r5]
 171              	.LVL18:
 272:HAL_Lib/STM32H7xx_HAL_Driver/Src/stm32h7xx_hal_exti.c **** 
 273:HAL_Lib/STM32H7xx_HAL_Driver/Src/stm32h7xx_hal_exti.c ****   /* Mask or set line */
 274:HAL_Lib/STM32H7xx_HAL_Driver/Src/stm32h7xx_hal_exti.c ****   if ((pExtiConfig->Mode & EXTI_MODE_EVENT) != 0x00U)
 172              		.loc 1 274 3 is_stmt 1 view .LVU68
 173              		.loc 1 274 6 is_stmt 0 view .LVU69
 174 0070 5668     		ldr	r6, [r2, #4]
 175 0072 16F0020F 		tst	r6, #2
 176 0076 25D0     		beq	.L10
 275:HAL_Lib/STM32H7xx_HAL_Driver/Src/stm32h7xx_hal_exti.c ****   {
 276:HAL_Lib/STM32H7xx_HAL_Driver/Src/stm32h7xx_hal_exti.c ****     regval |= maskline;
 177              		.loc 1 276 5 is_stmt 1 view .LVU70
 178              		.loc 1 276 12 is_stmt 0 view .LVU71
 179 0078 1C43     		orrs	r4, r4, r3
 180              	.LVL19:
ARM GAS  C:\Users\huav\AppData\Local\Temp\cc2UW7ST.s 			page 9


 181              	.L11:
 277:HAL_Lib/STM32H7xx_HAL_Driver/Src/stm32h7xx_hal_exti.c ****   }
 278:HAL_Lib/STM32H7xx_HAL_Driver/Src/stm32h7xx_hal_exti.c ****   else
 279:HAL_Lib/STM32H7xx_HAL_Driver/Src/stm32h7xx_hal_exti.c ****   {
 280:HAL_Lib/STM32H7xx_HAL_Driver/Src/stm32h7xx_hal_exti.c ****     regval &= ~maskline;
 281:HAL_Lib/STM32H7xx_HAL_Driver/Src/stm32h7xx_hal_exti.c ****   }
 282:HAL_Lib/STM32H7xx_HAL_Driver/Src/stm32h7xx_hal_exti.c **** 
 283:HAL_Lib/STM32H7xx_HAL_Driver/Src/stm32h7xx_hal_exti.c ****   /* Store event mode */
 284:HAL_Lib/STM32H7xx_HAL_Driver/Src/stm32h7xx_hal_exti.c ****   *regaddr = regval;
 182              		.loc 1 284 3 is_stmt 1 view .LVU72
 183              		.loc 1 284 12 is_stmt 0 view .LVU73
 184 007a 4451     		str	r4, [r0, r5]
 285:HAL_Lib/STM32H7xx_HAL_Driver/Src/stm32h7xx_hal_exti.c **** 
 286:HAL_Lib/STM32H7xx_HAL_Driver/Src/stm32h7xx_hal_exti.c **** #if defined (DUAL_CORE)
 287:HAL_Lib/STM32H7xx_HAL_Driver/Src/stm32h7xx_hal_exti.c ****   /* Configure interrupt mode for Core2 : read current mode */
 288:HAL_Lib/STM32H7xx_HAL_Driver/Src/stm32h7xx_hal_exti.c ****   regaddr = (__IO uint32_t *)(&EXTI->C2IMR1 + (EXTI_MODE_OFFSET * offset));
 289:HAL_Lib/STM32H7xx_HAL_Driver/Src/stm32h7xx_hal_exti.c ****   regval = *regaddr;
 290:HAL_Lib/STM32H7xx_HAL_Driver/Src/stm32h7xx_hal_exti.c **** 
 291:HAL_Lib/STM32H7xx_HAL_Driver/Src/stm32h7xx_hal_exti.c ****   /* Mask or set line */
 292:HAL_Lib/STM32H7xx_HAL_Driver/Src/stm32h7xx_hal_exti.c ****   if ((pExtiConfig->Mode & EXTI_MODE_CORE2_INTERRUPT) != 0x00U)
 293:HAL_Lib/STM32H7xx_HAL_Driver/Src/stm32h7xx_hal_exti.c ****   {
 294:HAL_Lib/STM32H7xx_HAL_Driver/Src/stm32h7xx_hal_exti.c ****     regval |= maskline;
 295:HAL_Lib/STM32H7xx_HAL_Driver/Src/stm32h7xx_hal_exti.c ****   }
 296:HAL_Lib/STM32H7xx_HAL_Driver/Src/stm32h7xx_hal_exti.c ****   else
 297:HAL_Lib/STM32H7xx_HAL_Driver/Src/stm32h7xx_hal_exti.c ****   {
 298:HAL_Lib/STM32H7xx_HAL_Driver/Src/stm32h7xx_hal_exti.c ****     regval &= ~maskline;
 299:HAL_Lib/STM32H7xx_HAL_Driver/Src/stm32h7xx_hal_exti.c ****   }
 300:HAL_Lib/STM32H7xx_HAL_Driver/Src/stm32h7xx_hal_exti.c **** 
 301:HAL_Lib/STM32H7xx_HAL_Driver/Src/stm32h7xx_hal_exti.c ****   /* Store interrupt mode */
 302:HAL_Lib/STM32H7xx_HAL_Driver/Src/stm32h7xx_hal_exti.c ****   *regaddr = regval;
 303:HAL_Lib/STM32H7xx_HAL_Driver/Src/stm32h7xx_hal_exti.c **** 
 304:HAL_Lib/STM32H7xx_HAL_Driver/Src/stm32h7xx_hal_exti.c ****   /* The event mode cannot be configured if the line does not support it */
 305:HAL_Lib/STM32H7xx_HAL_Driver/Src/stm32h7xx_hal_exti.c ****   assert_param(((pExtiConfig->Line & EXTI_EVENT) == EXTI_EVENT) || ((pExtiConfig->Mode & EXTI_MODE_
 306:HAL_Lib/STM32H7xx_HAL_Driver/Src/stm32h7xx_hal_exti.c **** 
 307:HAL_Lib/STM32H7xx_HAL_Driver/Src/stm32h7xx_hal_exti.c ****   /* Configure event mode : read current mode */
 308:HAL_Lib/STM32H7xx_HAL_Driver/Src/stm32h7xx_hal_exti.c ****   regaddr = (__IO uint32_t *)(&EXTI->C2EMR1 + (EXTI_MODE_OFFSET * offset));
 309:HAL_Lib/STM32H7xx_HAL_Driver/Src/stm32h7xx_hal_exti.c ****   regval = *regaddr;
 310:HAL_Lib/STM32H7xx_HAL_Driver/Src/stm32h7xx_hal_exti.c **** 
 311:HAL_Lib/STM32H7xx_HAL_Driver/Src/stm32h7xx_hal_exti.c ****   /* Mask or set line */
 312:HAL_Lib/STM32H7xx_HAL_Driver/Src/stm32h7xx_hal_exti.c ****   if ((pExtiConfig->Mode & EXTI_MODE_CORE2_EVENT) != 0x00U)
 313:HAL_Lib/STM32H7xx_HAL_Driver/Src/stm32h7xx_hal_exti.c ****   {
 314:HAL_Lib/STM32H7xx_HAL_Driver/Src/stm32h7xx_hal_exti.c ****     regval |= maskline;
 315:HAL_Lib/STM32H7xx_HAL_Driver/Src/stm32h7xx_hal_exti.c ****   }
 316:HAL_Lib/STM32H7xx_HAL_Driver/Src/stm32h7xx_hal_exti.c ****   else
 317:HAL_Lib/STM32H7xx_HAL_Driver/Src/stm32h7xx_hal_exti.c ****   {
 318:HAL_Lib/STM32H7xx_HAL_Driver/Src/stm32h7xx_hal_exti.c ****     regval &= ~maskline;
 319:HAL_Lib/STM32H7xx_HAL_Driver/Src/stm32h7xx_hal_exti.c ****   }
 320:HAL_Lib/STM32H7xx_HAL_Driver/Src/stm32h7xx_hal_exti.c **** 
 321:HAL_Lib/STM32H7xx_HAL_Driver/Src/stm32h7xx_hal_exti.c ****   /* Store event mode */
 322:HAL_Lib/STM32H7xx_HAL_Driver/Src/stm32h7xx_hal_exti.c ****   *regaddr = regval;
 323:HAL_Lib/STM32H7xx_HAL_Driver/Src/stm32h7xx_hal_exti.c **** #endif /* DUAL_CORE */
 324:HAL_Lib/STM32H7xx_HAL_Driver/Src/stm32h7xx_hal_exti.c **** 
 325:HAL_Lib/STM32H7xx_HAL_Driver/Src/stm32h7xx_hal_exti.c ****   /* Configure the D3 PendClear source in case of Wakeup target is Any */
 326:HAL_Lib/STM32H7xx_HAL_Driver/Src/stm32h7xx_hal_exti.c ****   if ((pExtiConfig->Line & EXTI_TARGET_MASK) == EXTI_TARGET_MSK_ALL)
 185              		.loc 1 326 3 is_stmt 1 view .LVU74
 186              		.loc 1 326 19 is_stmt 0 view .LVU75
 187 007c 1068     		ldr	r0, [r2]
ARM GAS  C:\Users\huav\AppData\Local\Temp\cc2UW7ST.s 			page 10


 188              	.LVL20:
 189              		.loc 1 326 26 view .LVU76
 190 007e 00F44010 		and	r0, r0, #3145728
 191              		.loc 1 326 6 view .LVU77
 192 0082 B0F5401F 		cmp	r0, #3145728
 193 0086 20D0     		beq	.L22
 327:HAL_Lib/STM32H7xx_HAL_Driver/Src/stm32h7xx_hal_exti.c ****   {
 328:HAL_Lib/STM32H7xx_HAL_Driver/Src/stm32h7xx_hal_exti.c ****     assert_param(IS_EXTI_D3_PENDCLR_SRC(pExtiConfig->PendClearSource));
 329:HAL_Lib/STM32H7xx_HAL_Driver/Src/stm32h7xx_hal_exti.c **** 
 330:HAL_Lib/STM32H7xx_HAL_Driver/Src/stm32h7xx_hal_exti.c ****     /*Calc the PMR register address for the given line */
 331:HAL_Lib/STM32H7xx_HAL_Driver/Src/stm32h7xx_hal_exti.c ****     regaddr = (__IO uint32_t *)(&EXTI->D3PMR1 + (EXTI_CONFIG_OFFSET * offset));
 332:HAL_Lib/STM32H7xx_HAL_Driver/Src/stm32h7xx_hal_exti.c ****     regval = *regaddr;
 333:HAL_Lib/STM32H7xx_HAL_Driver/Src/stm32h7xx_hal_exti.c **** 
 334:HAL_Lib/STM32H7xx_HAL_Driver/Src/stm32h7xx_hal_exti.c ****     if(pExtiConfig->PendClearSource == EXTI_D3_PENDCLR_SRC_NONE)
 335:HAL_Lib/STM32H7xx_HAL_Driver/Src/stm32h7xx_hal_exti.c ****     {
 336:HAL_Lib/STM32H7xx_HAL_Driver/Src/stm32h7xx_hal_exti.c ****       /* Clear D3PMRx register for the given line */
 337:HAL_Lib/STM32H7xx_HAL_Driver/Src/stm32h7xx_hal_exti.c ****       regval &= ~maskline;
 338:HAL_Lib/STM32H7xx_HAL_Driver/Src/stm32h7xx_hal_exti.c ****       /* Store D3PMRx register value */
 339:HAL_Lib/STM32H7xx_HAL_Driver/Src/stm32h7xx_hal_exti.c ****       *regaddr = regval;
 340:HAL_Lib/STM32H7xx_HAL_Driver/Src/stm32h7xx_hal_exti.c ****     }
 341:HAL_Lib/STM32H7xx_HAL_Driver/Src/stm32h7xx_hal_exti.c ****     else
 342:HAL_Lib/STM32H7xx_HAL_Driver/Src/stm32h7xx_hal_exti.c ****     {
 343:HAL_Lib/STM32H7xx_HAL_Driver/Src/stm32h7xx_hal_exti.c ****       /* Set D3PMRx register to 1 for the given line */
 344:HAL_Lib/STM32H7xx_HAL_Driver/Src/stm32h7xx_hal_exti.c ****       regval |= maskline;
 345:HAL_Lib/STM32H7xx_HAL_Driver/Src/stm32h7xx_hal_exti.c ****       /* Store D3PMRx register value */
 346:HAL_Lib/STM32H7xx_HAL_Driver/Src/stm32h7xx_hal_exti.c ****       *regaddr = regval;
 347:HAL_Lib/STM32H7xx_HAL_Driver/Src/stm32h7xx_hal_exti.c **** 
 348:HAL_Lib/STM32H7xx_HAL_Driver/Src/stm32h7xx_hal_exti.c ****       if(linepos < 16UL)
 349:HAL_Lib/STM32H7xx_HAL_Driver/Src/stm32h7xx_hal_exti.c ****       {
 350:HAL_Lib/STM32H7xx_HAL_Driver/Src/stm32h7xx_hal_exti.c ****         regaddr = (__IO uint32_t *)(&EXTI->D3PCR1L + (EXTI_CONFIG_OFFSET * offset));
 351:HAL_Lib/STM32H7xx_HAL_Driver/Src/stm32h7xx_hal_exti.c ****         pcrlinepos = 1UL << linepos;
 352:HAL_Lib/STM32H7xx_HAL_Driver/Src/stm32h7xx_hal_exti.c ****       }
 353:HAL_Lib/STM32H7xx_HAL_Driver/Src/stm32h7xx_hal_exti.c ****       else
 354:HAL_Lib/STM32H7xx_HAL_Driver/Src/stm32h7xx_hal_exti.c ****       {
 355:HAL_Lib/STM32H7xx_HAL_Driver/Src/stm32h7xx_hal_exti.c ****         regaddr = (__IO uint32_t *)(&EXTI->D3PCR1H + (EXTI_CONFIG_OFFSET * offset));
 356:HAL_Lib/STM32H7xx_HAL_Driver/Src/stm32h7xx_hal_exti.c ****         pcrlinepos = 1UL << (linepos - 16UL);
 357:HAL_Lib/STM32H7xx_HAL_Driver/Src/stm32h7xx_hal_exti.c ****       }
 358:HAL_Lib/STM32H7xx_HAL_Driver/Src/stm32h7xx_hal_exti.c **** 
 359:HAL_Lib/STM32H7xx_HAL_Driver/Src/stm32h7xx_hal_exti.c ****       regval = (*regaddr & (~(pcrlinepos * pcrlinepos * 3UL))) | (pcrlinepos * pcrlinepos * (pExtiC
 360:HAL_Lib/STM32H7xx_HAL_Driver/Src/stm32h7xx_hal_exti.c ****       *regaddr = regval;
 361:HAL_Lib/STM32H7xx_HAL_Driver/Src/stm32h7xx_hal_exti.c ****     }
 362:HAL_Lib/STM32H7xx_HAL_Driver/Src/stm32h7xx_hal_exti.c ****   }
 363:HAL_Lib/STM32H7xx_HAL_Driver/Src/stm32h7xx_hal_exti.c **** 
 364:HAL_Lib/STM32H7xx_HAL_Driver/Src/stm32h7xx_hal_exti.c ****   return HAL_OK;
 194              		.loc 1 364 10 view .LVU78
 195 0088 0020     		movs	r0, #0
 196              	.LVL21:
 197              	.L2:
 365:HAL_Lib/STM32H7xx_HAL_Driver/Src/stm32h7xx_hal_exti.c **** }
 198              		.loc 1 365 1 view .LVU79
 199 008a F0BD     		pop	{r4, r5, r6, r7, pc}
 200              	.LVL22:
 201              	.L4:
 213:HAL_Lib/STM32H7xx_HAL_Driver/Src/stm32h7xx_hal_exti.c ****     }
 202              		.loc 1 213 7 is_stmt 1 view .LVU80
 213:HAL_Lib/STM32H7xx_HAL_Driver/Src/stm32h7xx_hal_exti.c ****     }
 203              		.loc 1 213 14 is_stmt 0 view .LVU81
ARM GAS  C:\Users\huav\AppData\Local\Temp\cc2UW7ST.s 			page 11


 204 008c 24EA0304 		bic	r4, r4, r3
 205              	.LVL23:
 213:HAL_Lib/STM32H7xx_HAL_Driver/Src/stm32h7xx_hal_exti.c ****     }
 206              		.loc 1 213 14 view .LVU82
 207 0090 D3E7     		b	.L5
 208              	.LVL24:
 209              	.L6:
 230:HAL_Lib/STM32H7xx_HAL_Driver/Src/stm32h7xx_hal_exti.c ****     }
 210              		.loc 1 230 7 is_stmt 1 view .LVU83
 230:HAL_Lib/STM32H7xx_HAL_Driver/Src/stm32h7xx_hal_exti.c ****     }
 211              		.loc 1 230 14 is_stmt 0 view .LVU84
 212 0092 24EA0304 		bic	r4, r4, r3
 213              	.LVL25:
 230:HAL_Lib/STM32H7xx_HAL_Driver/Src/stm32h7xx_hal_exti.c ****     }
 214              		.loc 1 230 14 view .LVU85
 215 0096 D8E7     		b	.L7
 216              	.LVL26:
 217              	.L21:
 239:HAL_Lib/STM32H7xx_HAL_Driver/Src/stm32h7xx_hal_exti.c ****       assert_param(IS_EXTI_GPIO_PIN(linepos));
 218              		.loc 1 239 7 is_stmt 1 view .LVU86
 240:HAL_Lib/STM32H7xx_HAL_Driver/Src/stm32h7xx_hal_exti.c **** 
 219              		.loc 1 240 7 view .LVU87
 242:HAL_Lib/STM32H7xx_HAL_Driver/Src/stm32h7xx_hal_exti.c ****       regval &= ~(SYSCFG_EXTICR1_EXTI0 << (SYSCFG_EXTICR1_EXTI1_Pos * (linepos & 0x03U)));
 220              		.loc 1 242 7 view .LVU88
 242:HAL_Lib/STM32H7xx_HAL_Driver/Src/stm32h7xx_hal_exti.c ****       regval &= ~(SYSCFG_EXTICR1_EXTI0 << (SYSCFG_EXTICR1_EXTI1_Pos * (linepos & 0x03U)));
 221              		.loc 1 242 47 is_stmt 0 view .LVU89
 222 0098 CEF38100 		ubfx	r0, lr, #2, #2
 242:HAL_Lib/STM32H7xx_HAL_Driver/Src/stm32h7xx_hal_exti.c ****       regval &= ~(SYSCFG_EXTICR1_EXTI0 << (SYSCFG_EXTICR1_EXTI1_Pos * (linepos & 0x03U)));
 223              		.loc 1 242 14 view .LVU90
 224 009c 254F     		ldr	r7, .L23+12
 225 009e 0230     		adds	r0, r0, #2
 226 00a0 57F82060 		ldr	r6, [r7, r0, lsl #2]
 227              	.LVL27:
 243:HAL_Lib/STM32H7xx_HAL_Driver/Src/stm32h7xx_hal_exti.c ****       regval |= (pExtiConfig->GPIOSel << (SYSCFG_EXTICR1_EXTI1_Pos * (linepos & 0x03U)));
 228              		.loc 1 243 7 is_stmt 1 view .LVU91
 243:HAL_Lib/STM32H7xx_HAL_Driver/Src/stm32h7xx_hal_exti.c ****       regval |= (pExtiConfig->GPIOSel << (SYSCFG_EXTICR1_EXTI1_Pos * (linepos & 0x03U)));
 229              		.loc 1 243 80 is_stmt 0 view .LVU92
 230 00a4 01F00304 		and	r4, r1, #3
 243:HAL_Lib/STM32H7xx_HAL_Driver/Src/stm32h7xx_hal_exti.c ****       regval |= (pExtiConfig->GPIOSel << (SYSCFG_EXTICR1_EXTI1_Pos * (linepos & 0x03U)));
 231              		.loc 1 243 69 view .LVU93
 232 00a8 A500     		lsls	r5, r4, #2
 243:HAL_Lib/STM32H7xx_HAL_Driver/Src/stm32h7xx_hal_exti.c ****       regval |= (pExtiConfig->GPIOSel << (SYSCFG_EXTICR1_EXTI1_Pos * (linepos & 0x03U)));
 233              		.loc 1 243 40 view .LVU94
 234 00aa 0F24     		movs	r4, #15
 235 00ac AC40     		lsls	r4, r4, r5
 243:HAL_Lib/STM32H7xx_HAL_Driver/Src/stm32h7xx_hal_exti.c ****       regval |= (pExtiConfig->GPIOSel << (SYSCFG_EXTICR1_EXTI1_Pos * (linepos & 0x03U)));
 236              		.loc 1 243 14 view .LVU95
 237 00ae 26EA0406 		bic	r6, r6, r4
 238              	.LVL28:
 244:HAL_Lib/STM32H7xx_HAL_Driver/Src/stm32h7xx_hal_exti.c ****       SYSCFG->EXTICR[(linepos >> 2U) & 0x03UL] = regval;
 239              		.loc 1 244 7 is_stmt 1 view .LVU96
 244:HAL_Lib/STM32H7xx_HAL_Driver/Src/stm32h7xx_hal_exti.c ****       SYSCFG->EXTICR[(linepos >> 2U) & 0x03UL] = regval;
 240              		.loc 1 244 29 is_stmt 0 view .LVU97
 241 00b2 D468     		ldr	r4, [r2, #12]
 244:HAL_Lib/STM32H7xx_HAL_Driver/Src/stm32h7xx_hal_exti.c ****       SYSCFG->EXTICR[(linepos >> 2U) & 0x03UL] = regval;
 242              		.loc 1 244 39 view .LVU98
 243 00b4 AC40     		lsls	r4, r4, r5
ARM GAS  C:\Users\huav\AppData\Local\Temp\cc2UW7ST.s 			page 12


 244:HAL_Lib/STM32H7xx_HAL_Driver/Src/stm32h7xx_hal_exti.c ****       SYSCFG->EXTICR[(linepos >> 2U) & 0x03UL] = regval;
 244              		.loc 1 244 14 view .LVU99
 245 00b6 3443     		orrs	r4, r4, r6
 246              	.LVL29:
 245:HAL_Lib/STM32H7xx_HAL_Driver/Src/stm32h7xx_hal_exti.c ****     }
 247              		.loc 1 245 7 is_stmt 1 view .LVU100
 245:HAL_Lib/STM32H7xx_HAL_Driver/Src/stm32h7xx_hal_exti.c ****     }
 248              		.loc 1 245 48 is_stmt 0 view .LVU101
 249 00b8 47F82040 		str	r4, [r7, r0, lsl #2]
 250 00bc CCE7     		b	.L3
 251              	.LVL30:
 252              	.L8:
 260:HAL_Lib/STM32H7xx_HAL_Driver/Src/stm32h7xx_hal_exti.c ****   }
 253              		.loc 1 260 5 is_stmt 1 view .LVU102
 260:HAL_Lib/STM32H7xx_HAL_Driver/Src/stm32h7xx_hal_exti.c ****   }
 254              		.loc 1 260 12 is_stmt 0 view .LVU103
 255 00be 24EA0304 		bic	r4, r4, r3
 256              	.LVL31:
 260:HAL_Lib/STM32H7xx_HAL_Driver/Src/stm32h7xx_hal_exti.c ****   }
 257              		.loc 1 260 12 view .LVU104
 258 00c2 D2E7     		b	.L9
 259              	.LVL32:
 260              	.L10:
 280:HAL_Lib/STM32H7xx_HAL_Driver/Src/stm32h7xx_hal_exti.c ****   }
 261              		.loc 1 280 5 is_stmt 1 view .LVU105
 280:HAL_Lib/STM32H7xx_HAL_Driver/Src/stm32h7xx_hal_exti.c ****   }
 262              		.loc 1 280 12 is_stmt 0 view .LVU106
 263 00c4 24EA0304 		bic	r4, r4, r3
 264              	.LVL33:
 280:HAL_Lib/STM32H7xx_HAL_Driver/Src/stm32h7xx_hal_exti.c ****   }
 265              		.loc 1 280 12 view .LVU107
 266 00c8 D7E7     		b	.L11
 267              	.LVL34:
 268              	.L22:
 328:HAL_Lib/STM32H7xx_HAL_Driver/Src/stm32h7xx_hal_exti.c **** 
 269              		.loc 1 328 5 is_stmt 1 view .LVU108
 331:HAL_Lib/STM32H7xx_HAL_Driver/Src/stm32h7xx_hal_exti.c ****     regval = *regaddr;
 270              		.loc 1 331 5 view .LVU109
 331:HAL_Lib/STM32H7xx_HAL_Driver/Src/stm32h7xx_hal_exti.c ****     regval = *regaddr;
 271              		.loc 1 331 15 is_stmt 0 view .LVU110
 272 00ca 4FEA4C1C 		lsl	ip, ip, #5
 273              	.LVL35:
 331:HAL_Lib/STM32H7xx_HAL_Driver/Src/stm32h7xx_hal_exti.c ****     regval = *regaddr;
 274              		.loc 1 331 13 view .LVU111
 275 00ce 1A4C     		ldr	r4, .L23+16
 276              	.LVL36:
 332:HAL_Lib/STM32H7xx_HAL_Driver/Src/stm32h7xx_hal_exti.c **** 
 277              		.loc 1 332 5 is_stmt 1 view .LVU112
 332:HAL_Lib/STM32H7xx_HAL_Driver/Src/stm32h7xx_hal_exti.c **** 
 278              		.loc 1 332 12 is_stmt 0 view .LVU113
 279 00d0 5CF80400 		ldr	r0, [ip, r4]
 280              	.LVL37:
 334:HAL_Lib/STM32H7xx_HAL_Driver/Src/stm32h7xx_hal_exti.c ****     {
 281              		.loc 1 334 5 is_stmt 1 view .LVU114
 334:HAL_Lib/STM32H7xx_HAL_Driver/Src/stm32h7xx_hal_exti.c ****     {
 282              		.loc 1 334 19 is_stmt 0 view .LVU115
 283 00d4 1569     		ldr	r5, [r2, #16]
ARM GAS  C:\Users\huav\AppData\Local\Temp\cc2UW7ST.s 			page 13


 334:HAL_Lib/STM32H7xx_HAL_Driver/Src/stm32h7xx_hal_exti.c ****     {
 284              		.loc 1 334 7 view .LVU116
 285 00d6 2DB9     		cbnz	r5, .L12
 337:HAL_Lib/STM32H7xx_HAL_Driver/Src/stm32h7xx_hal_exti.c ****       /* Store D3PMRx register value */
 286              		.loc 1 337 7 is_stmt 1 view .LVU117
 337:HAL_Lib/STM32H7xx_HAL_Driver/Src/stm32h7xx_hal_exti.c ****       /* Store D3PMRx register value */
 287              		.loc 1 337 14 is_stmt 0 view .LVU118
 288 00d8 20EA0303 		bic	r3, r0, r3
 289              	.LVL38:
 339:HAL_Lib/STM32H7xx_HAL_Driver/Src/stm32h7xx_hal_exti.c ****     }
 290              		.loc 1 339 7 is_stmt 1 view .LVU119
 339:HAL_Lib/STM32H7xx_HAL_Driver/Src/stm32h7xx_hal_exti.c ****     }
 291              		.loc 1 339 16 is_stmt 0 view .LVU120
 292 00dc 4CF80430 		str	r3, [ip, r4]
 364:HAL_Lib/STM32H7xx_HAL_Driver/Src/stm32h7xx_hal_exti.c **** }
 293              		.loc 1 364 10 view .LVU121
 294 00e0 0020     		movs	r0, #0
 295 00e2 D2E7     		b	.L2
 296              	.LVL39:
 297              	.L12:
 344:HAL_Lib/STM32H7xx_HAL_Driver/Src/stm32h7xx_hal_exti.c ****       /* Store D3PMRx register value */
 298              		.loc 1 344 7 is_stmt 1 view .LVU122
 344:HAL_Lib/STM32H7xx_HAL_Driver/Src/stm32h7xx_hal_exti.c ****       /* Store D3PMRx register value */
 299              		.loc 1 344 14 is_stmt 0 view .LVU123
 300 00e4 1843     		orrs	r0, r0, r3
 301              	.LVL40:
 346:HAL_Lib/STM32H7xx_HAL_Driver/Src/stm32h7xx_hal_exti.c **** 
 302              		.loc 1 346 7 is_stmt 1 view .LVU124
 346:HAL_Lib/STM32H7xx_HAL_Driver/Src/stm32h7xx_hal_exti.c **** 
 303              		.loc 1 346 16 is_stmt 0 view .LVU125
 304 00e6 4CF80400 		str	r0, [ip, r4]
 348:HAL_Lib/STM32H7xx_HAL_Driver/Src/stm32h7xx_hal_exti.c ****       {
 305              		.loc 1 348 7 is_stmt 1 view .LVU126
 348:HAL_Lib/STM32H7xx_HAL_Driver/Src/stm32h7xx_hal_exti.c ****       {
 306              		.loc 1 348 9 is_stmt 0 view .LVU127
 307 00ea 11F0100F 		tst	r1, #16
 308 00ee 10D1     		bne	.L13
 350:HAL_Lib/STM32H7xx_HAL_Driver/Src/stm32h7xx_hal_exti.c ****         pcrlinepos = 1UL << linepos;
 309              		.loc 1 350 9 is_stmt 1 view .LVU128
 350:HAL_Lib/STM32H7xx_HAL_Driver/Src/stm32h7xx_hal_exti.c ****         pcrlinepos = 1UL << linepos;
 310              		.loc 1 350 17 is_stmt 0 view .LVU129
 311 00f0 1248     		ldr	r0, .L23+20
 312              	.LVL41:
 350:HAL_Lib/STM32H7xx_HAL_Driver/Src/stm32h7xx_hal_exti.c ****         pcrlinepos = 1UL << linepos;
 313              		.loc 1 350 17 view .LVU130
 314 00f2 6044     		add	r0, r0, ip
 315              	.LVL42:
 351:HAL_Lib/STM32H7xx_HAL_Driver/Src/stm32h7xx_hal_exti.c ****       }
 316              		.loc 1 351 9 is_stmt 1 view .LVU131
 317              	.L14:
 359:HAL_Lib/STM32H7xx_HAL_Driver/Src/stm32h7xx_hal_exti.c ****       *regaddr = regval;
 318              		.loc 1 359 7 view .LVU132
 359:HAL_Lib/STM32H7xx_HAL_Driver/Src/stm32h7xx_hal_exti.c ****       *regaddr = regval;
 319              		.loc 1 359 17 is_stmt 0 view .LVU133
 320 00f4 0168     		ldr	r1, [r0]
 321              	.LVL43:
 359:HAL_Lib/STM32H7xx_HAL_Driver/Src/stm32h7xx_hal_exti.c ****       *regaddr = regval;
ARM GAS  C:\Users\huav\AppData\Local\Temp\cc2UW7ST.s 			page 14


 322              		.loc 1 359 42 view .LVU134
 323 00f6 03FB03F3 		mul	r3, r3, r3
 324              	.LVL44:
 359:HAL_Lib/STM32H7xx_HAL_Driver/Src/stm32h7xx_hal_exti.c ****       *regaddr = regval;
 325              		.loc 1 359 55 view .LVU135
 326 00fa 03EB4304 		add	r4, r3, r3, lsl #1
 327              	.LVL45:
 359:HAL_Lib/STM32H7xx_HAL_Driver/Src/stm32h7xx_hal_exti.c ****       *regaddr = regval;
 328              		.loc 1 359 26 view .LVU136
 329 00fe 21EA0401 		bic	r1, r1, r4
 359:HAL_Lib/STM32H7xx_HAL_Driver/Src/stm32h7xx_hal_exti.c ****       *regaddr = regval;
 330              		.loc 1 359 105 view .LVU137
 331 0102 1269     		ldr	r2, [r2, #16]
 332              	.LVL46:
 359:HAL_Lib/STM32H7xx_HAL_Driver/Src/stm32h7xx_hal_exti.c ****       *regaddr = regval;
 333              		.loc 1 359 123 view .LVU138
 334 0104 013A     		subs	r2, r2, #1
 359:HAL_Lib/STM32H7xx_HAL_Driver/Src/stm32h7xx_hal_exti.c ****       *regaddr = regval;
 335              		.loc 1 359 91 view .LVU139
 336 0106 02FB03F3 		mul	r3, r2, r3
 359:HAL_Lib/STM32H7xx_HAL_Driver/Src/stm32h7xx_hal_exti.c ****       *regaddr = regval;
 337              		.loc 1 359 14 view .LVU140
 338 010a 0B43     		orrs	r3, r3, r1
 339              	.LVL47:
 360:HAL_Lib/STM32H7xx_HAL_Driver/Src/stm32h7xx_hal_exti.c ****     }
 340              		.loc 1 360 7 is_stmt 1 view .LVU141
 360:HAL_Lib/STM32H7xx_HAL_Driver/Src/stm32h7xx_hal_exti.c ****     }
 341              		.loc 1 360 16 is_stmt 0 view .LVU142
 342 010c 0360     		str	r3, [r0]
 364:HAL_Lib/STM32H7xx_HAL_Driver/Src/stm32h7xx_hal_exti.c **** }
 343              		.loc 1 364 10 view .LVU143
 344 010e 0020     		movs	r0, #0
 345              	.LVL48:
 364:HAL_Lib/STM32H7xx_HAL_Driver/Src/stm32h7xx_hal_exti.c **** }
 346              		.loc 1 364 10 view .LVU144
 347 0110 BBE7     		b	.L2
 348              	.LVL49:
 349              	.L13:
 355:HAL_Lib/STM32H7xx_HAL_Driver/Src/stm32h7xx_hal_exti.c ****         pcrlinepos = 1UL << (linepos - 16UL);
 350              		.loc 1 355 9 is_stmt 1 view .LVU145
 355:HAL_Lib/STM32H7xx_HAL_Driver/Src/stm32h7xx_hal_exti.c ****         pcrlinepos = 1UL << (linepos - 16UL);
 351              		.loc 1 355 17 is_stmt 0 view .LVU146
 352 0112 0B48     		ldr	r0, .L23+24
 353              	.LVL50:
 355:HAL_Lib/STM32H7xx_HAL_Driver/Src/stm32h7xx_hal_exti.c ****         pcrlinepos = 1UL << (linepos - 16UL);
 354              		.loc 1 355 17 view .LVU147
 355 0114 6044     		add	r0, r0, ip
 356              	.LVL51:
 356:HAL_Lib/STM32H7xx_HAL_Driver/Src/stm32h7xx_hal_exti.c ****       }
 357              		.loc 1 356 9 is_stmt 1 view .LVU148
 356:HAL_Lib/STM32H7xx_HAL_Driver/Src/stm32h7xx_hal_exti.c ****       }
 358              		.loc 1 356 38 is_stmt 0 view .LVU149
 359 0116 AEF1100E 		sub	lr, lr, #16
 360              	.LVL52:
 356:HAL_Lib/STM32H7xx_HAL_Driver/Src/stm32h7xx_hal_exti.c ****       }
 361              		.loc 1 356 20 view .LVU150
 362 011a 0123     		movs	r3, #1
ARM GAS  C:\Users\huav\AppData\Local\Temp\cc2UW7ST.s 			page 15


 363              	.LVL53:
 356:HAL_Lib/STM32H7xx_HAL_Driver/Src/stm32h7xx_hal_exti.c ****       }
 364              		.loc 1 356 20 view .LVU151
 365 011c 03FA0EF3 		lsl	r3, r3, lr
 366              	.LVL54:
 356:HAL_Lib/STM32H7xx_HAL_Driver/Src/stm32h7xx_hal_exti.c ****       }
 367              		.loc 1 356 20 view .LVU152
 368 0120 E8E7     		b	.L14
 369              	.LVL55:
 370              	.L15:
 371              	.LCFI1:
 372              		.cfi_def_cfa_offset 0
 373              		.cfi_restore 4
 374              		.cfi_restore 5
 375              		.cfi_restore 6
 376              		.cfi_restore 7
 377              		.cfi_restore 14
 182:HAL_Lib/STM32H7xx_HAL_Driver/Src/stm32h7xx_hal_exti.c ****   }
 378              		.loc 1 182 12 view .LVU153
 379 0122 0120     		movs	r0, #1
 380              	.LVL56:
 381              		.loc 1 365 1 view .LVU154
 382 0124 7047     		bx	lr
 383              	.L24:
 384 0126 00BF     		.align	2
 385              	.L23:
 386 0128 04000058 		.word	1476395012
 387 012c 80000058 		.word	1476395136
 388 0130 84000058 		.word	1476395140
 389 0134 00040058 		.word	1476396032
 390 0138 0C000058 		.word	1476395020
 391 013c 10000058 		.word	1476395024
 392 0140 14000058 		.word	1476395028
 393              		.cfi_endproc
 394              	.LFE144:
 396              		.section	.text.HAL_EXTI_GetConfigLine,"ax",%progbits
 397              		.align	1
 398              		.global	HAL_EXTI_GetConfigLine
 399              		.syntax unified
 400              		.thumb
 401              		.thumb_func
 402              		.fpu fpv5-d16
 404              	HAL_EXTI_GetConfigLine:
 405              	.LVL57:
 406              	.LFB145:
 366:HAL_Lib/STM32H7xx_HAL_Driver/Src/stm32h7xx_hal_exti.c **** 
 367:HAL_Lib/STM32H7xx_HAL_Driver/Src/stm32h7xx_hal_exti.c **** 
 368:HAL_Lib/STM32H7xx_HAL_Driver/Src/stm32h7xx_hal_exti.c **** /**
 369:HAL_Lib/STM32H7xx_HAL_Driver/Src/stm32h7xx_hal_exti.c ****   * @brief  Get configuration of a dedicated Exti line.
 370:HAL_Lib/STM32H7xx_HAL_Driver/Src/stm32h7xx_hal_exti.c ****   * @param  hexti Exti handle.
 371:HAL_Lib/STM32H7xx_HAL_Driver/Src/stm32h7xx_hal_exti.c ****   * @param  pExtiConfig Pointer on structure to store Exti configuration.
 372:HAL_Lib/STM32H7xx_HAL_Driver/Src/stm32h7xx_hal_exti.c ****   * @retval HAL Status.
 373:HAL_Lib/STM32H7xx_HAL_Driver/Src/stm32h7xx_hal_exti.c ****   */
 374:HAL_Lib/STM32H7xx_HAL_Driver/Src/stm32h7xx_hal_exti.c **** HAL_StatusTypeDef HAL_EXTI_GetConfigLine(EXTI_HandleTypeDef *hexti, EXTI_ConfigTypeDef *pExtiConfig
 375:HAL_Lib/STM32H7xx_HAL_Driver/Src/stm32h7xx_hal_exti.c **** {
 407              		.loc 1 375 1 is_stmt 1 view -0
 408              		.cfi_startproc
ARM GAS  C:\Users\huav\AppData\Local\Temp\cc2UW7ST.s 			page 16


 409              		@ args = 0, pretend = 0, frame = 0
 410              		@ frame_needed = 0, uses_anonymous_args = 0
 411              		@ link register save eliminated.
 376:HAL_Lib/STM32H7xx_HAL_Driver/Src/stm32h7xx_hal_exti.c ****   __IO uint32_t *regaddr;
 412              		.loc 1 376 3 view .LVU156
 377:HAL_Lib/STM32H7xx_HAL_Driver/Src/stm32h7xx_hal_exti.c ****   uint32_t regval;
 413              		.loc 1 377 3 view .LVU157
 378:HAL_Lib/STM32H7xx_HAL_Driver/Src/stm32h7xx_hal_exti.c ****   uint32_t linepos;
 414              		.loc 1 378 3 view .LVU158
 379:HAL_Lib/STM32H7xx_HAL_Driver/Src/stm32h7xx_hal_exti.c ****   uint32_t maskline;
 415              		.loc 1 379 3 view .LVU159
 380:HAL_Lib/STM32H7xx_HAL_Driver/Src/stm32h7xx_hal_exti.c ****   uint32_t offset;
 416              		.loc 1 380 3 view .LVU160
 381:HAL_Lib/STM32H7xx_HAL_Driver/Src/stm32h7xx_hal_exti.c ****   uint32_t pcrlinepos;
 417              		.loc 1 381 3 view .LVU161
 382:HAL_Lib/STM32H7xx_HAL_Driver/Src/stm32h7xx_hal_exti.c **** 
 383:HAL_Lib/STM32H7xx_HAL_Driver/Src/stm32h7xx_hal_exti.c ****   /* Check null pointer */
 384:HAL_Lib/STM32H7xx_HAL_Driver/Src/stm32h7xx_hal_exti.c ****   if ((hexti == NULL) || (pExtiConfig == NULL))
 418              		.loc 1 384 3 view .LVU162
 419              		.loc 1 384 6 is_stmt 0 view .LVU163
 420 0000 0029     		cmp	r1, #0
 421 0002 18BF     		it	ne
 422 0004 0028     		cmpne	r0, #0
 423 0006 6ED0     		beq	.L34
 375:HAL_Lib/STM32H7xx_HAL_Driver/Src/stm32h7xx_hal_exti.c ****   __IO uint32_t *regaddr;
 424              		.loc 1 375 1 view .LVU164
 425 0008 70B4     		push	{r4, r5, r6}
 426              	.LCFI2:
 427              		.cfi_def_cfa_offset 12
 428              		.cfi_offset 4, -12
 429              		.cfi_offset 5, -8
 430              		.cfi_offset 6, -4
 431 000a 0B46     		mov	r3, r1
 385:HAL_Lib/STM32H7xx_HAL_Driver/Src/stm32h7xx_hal_exti.c ****   {
 386:HAL_Lib/STM32H7xx_HAL_Driver/Src/stm32h7xx_hal_exti.c ****     return HAL_ERROR;
 387:HAL_Lib/STM32H7xx_HAL_Driver/Src/stm32h7xx_hal_exti.c ****   }
 388:HAL_Lib/STM32H7xx_HAL_Driver/Src/stm32h7xx_hal_exti.c **** 
 389:HAL_Lib/STM32H7xx_HAL_Driver/Src/stm32h7xx_hal_exti.c ****   /* Check the parameter */
 390:HAL_Lib/STM32H7xx_HAL_Driver/Src/stm32h7xx_hal_exti.c ****   assert_param(IS_EXTI_LINE(hexti->Line));
 432              		.loc 1 390 3 is_stmt 1 view .LVU165
 391:HAL_Lib/STM32H7xx_HAL_Driver/Src/stm32h7xx_hal_exti.c **** 
 392:HAL_Lib/STM32H7xx_HAL_Driver/Src/stm32h7xx_hal_exti.c ****   /* Store handle line number to configuration structure */
 393:HAL_Lib/STM32H7xx_HAL_Driver/Src/stm32h7xx_hal_exti.c ****   pExtiConfig->Line = hexti->Line;
 433              		.loc 1 393 3 view .LVU166
 434              		.loc 1 393 28 is_stmt 0 view .LVU167
 435 000c 0168     		ldr	r1, [r0]
 436              	.LVL58:
 437              		.loc 1 393 21 view .LVU168
 438 000e 1960     		str	r1, [r3]
 394:HAL_Lib/STM32H7xx_HAL_Driver/Src/stm32h7xx_hal_exti.c **** 
 395:HAL_Lib/STM32H7xx_HAL_Driver/Src/stm32h7xx_hal_exti.c ****   /* compute line register offset and line mask */
 396:HAL_Lib/STM32H7xx_HAL_Driver/Src/stm32h7xx_hal_exti.c ****   offset = ((pExtiConfig->Line & EXTI_REG_MASK) >> EXTI_REG_SHIFT);
 439              		.loc 1 396 3 is_stmt 1 view .LVU169
 440              		.loc 1 396 10 is_stmt 0 view .LVU170
 441 0010 C1F30140 		ubfx	r0, r1, #16, #2
 442              	.LVL59:
 397:HAL_Lib/STM32H7xx_HAL_Driver/Src/stm32h7xx_hal_exti.c ****   linepos = (pExtiConfig->Line & EXTI_PIN_MASK);
ARM GAS  C:\Users\huav\AppData\Local\Temp\cc2UW7ST.s 			page 17


 443              		.loc 1 397 3 is_stmt 1 view .LVU171
 444              		.loc 1 397 11 is_stmt 0 view .LVU172
 445 0014 01F01F0C 		and	ip, r1, #31
 446              	.LVL60:
 398:HAL_Lib/STM32H7xx_HAL_Driver/Src/stm32h7xx_hal_exti.c ****   maskline = (1UL << linepos);
 447              		.loc 1 398 3 is_stmt 1 view .LVU173
 448              		.loc 1 398 12 is_stmt 0 view .LVU174
 449 0018 0122     		movs	r2, #1
 450 001a 02FA0CF2 		lsl	r2, r2, ip
 451              	.LVL61:
 399:HAL_Lib/STM32H7xx_HAL_Driver/Src/stm32h7xx_hal_exti.c **** 
 400:HAL_Lib/STM32H7xx_HAL_Driver/Src/stm32h7xx_hal_exti.c ****   /* 1] Get core mode : interrupt */
 401:HAL_Lib/STM32H7xx_HAL_Driver/Src/stm32h7xx_hal_exti.c ****   regaddr = (__IO uint32_t *)(&EXTI->IMR1 + (EXTI_MODE_OFFSET * offset));
 452              		.loc 1 401 3 is_stmt 1 view .LVU175
 453              		.loc 1 401 13 is_stmt 0 view .LVU176
 454 001e 0401     		lsls	r4, r0, #4
 455              		.loc 1 401 11 view .LVU177
 456 0020 334D     		ldr	r5, .L43
 457              	.LVL62:
 402:HAL_Lib/STM32H7xx_HAL_Driver/Src/stm32h7xx_hal_exti.c ****   regval = *regaddr;
 458              		.loc 1 402 3 is_stmt 1 view .LVU178
 459              		.loc 1 402 10 is_stmt 0 view .LVU179
 460 0022 6559     		ldr	r5, [r4, r5]
 461              	.LVL63:
 403:HAL_Lib/STM32H7xx_HAL_Driver/Src/stm32h7xx_hal_exti.c **** 
 404:HAL_Lib/STM32H7xx_HAL_Driver/Src/stm32h7xx_hal_exti.c ****   pExtiConfig->Mode = EXTI_MODE_NONE;
 462              		.loc 1 404 3 is_stmt 1 view .LVU180
 463              		.loc 1 404 21 is_stmt 0 view .LVU181
 464 0024 0026     		movs	r6, #0
 465 0026 5E60     		str	r6, [r3, #4]
 405:HAL_Lib/STM32H7xx_HAL_Driver/Src/stm32h7xx_hal_exti.c **** 
 406:HAL_Lib/STM32H7xx_HAL_Driver/Src/stm32h7xx_hal_exti.c ****   /* Check if selected line is enable */
 407:HAL_Lib/STM32H7xx_HAL_Driver/Src/stm32h7xx_hal_exti.c ****   if ((regval & maskline) != 0x00U)
 466              		.loc 1 407 3 is_stmt 1 view .LVU182
 467              		.loc 1 407 6 is_stmt 0 view .LVU183
 468 0028 2A42     		tst	r2, r5
 469 002a 01D0     		beq	.L27
 408:HAL_Lib/STM32H7xx_HAL_Driver/Src/stm32h7xx_hal_exti.c ****   {
 409:HAL_Lib/STM32H7xx_HAL_Driver/Src/stm32h7xx_hal_exti.c ****     pExtiConfig->Mode = EXTI_MODE_INTERRUPT;
 470              		.loc 1 409 5 is_stmt 1 view .LVU184
 471              		.loc 1 409 23 is_stmt 0 view .LVU185
 472 002c 0125     		movs	r5, #1
 473              	.LVL64:
 474              		.loc 1 409 23 view .LVU186
 475 002e 5D60     		str	r5, [r3, #4]
 476              	.L27:
 410:HAL_Lib/STM32H7xx_HAL_Driver/Src/stm32h7xx_hal_exti.c ****   }
 411:HAL_Lib/STM32H7xx_HAL_Driver/Src/stm32h7xx_hal_exti.c **** 
 412:HAL_Lib/STM32H7xx_HAL_Driver/Src/stm32h7xx_hal_exti.c ****   /* Get event mode */
 413:HAL_Lib/STM32H7xx_HAL_Driver/Src/stm32h7xx_hal_exti.c ****   regaddr = (__IO uint32_t *)(&EXTI->EMR1 + (EXTI_MODE_OFFSET * offset));
 477              		.loc 1 413 3 is_stmt 1 view .LVU187
 478              		.loc 1 413 11 is_stmt 0 view .LVU188
 479 0030 304D     		ldr	r5, .L43+4
 480              	.LVL65:
 414:HAL_Lib/STM32H7xx_HAL_Driver/Src/stm32h7xx_hal_exti.c ****   regval = *regaddr;
 481              		.loc 1 414 3 is_stmt 1 view .LVU189
 482              		.loc 1 414 10 is_stmt 0 view .LVU190
ARM GAS  C:\Users\huav\AppData\Local\Temp\cc2UW7ST.s 			page 18


 483 0032 6459     		ldr	r4, [r4, r5]
 484              	.LVL66:
 415:HAL_Lib/STM32H7xx_HAL_Driver/Src/stm32h7xx_hal_exti.c **** 
 416:HAL_Lib/STM32H7xx_HAL_Driver/Src/stm32h7xx_hal_exti.c ****   /* Check if selected line is enable */
 417:HAL_Lib/STM32H7xx_HAL_Driver/Src/stm32h7xx_hal_exti.c ****   if ((regval & maskline) != 0x00U)
 485              		.loc 1 417 3 is_stmt 1 view .LVU191
 486              		.loc 1 417 6 is_stmt 0 view .LVU192
 487 0034 2242     		tst	r2, r4
 488 0036 03D0     		beq	.L28
 418:HAL_Lib/STM32H7xx_HAL_Driver/Src/stm32h7xx_hal_exti.c ****   {
 419:HAL_Lib/STM32H7xx_HAL_Driver/Src/stm32h7xx_hal_exti.c ****     pExtiConfig->Mode |= EXTI_MODE_EVENT;
 489              		.loc 1 419 5 is_stmt 1 view .LVU193
 490              		.loc 1 419 23 is_stmt 0 view .LVU194
 491 0038 5C68     		ldr	r4, [r3, #4]
 492              	.LVL67:
 493              		.loc 1 419 23 view .LVU195
 494 003a 44F00204 		orr	r4, r4, #2
 495 003e 5C60     		str	r4, [r3, #4]
 496              	.L28:
 420:HAL_Lib/STM32H7xx_HAL_Driver/Src/stm32h7xx_hal_exti.c ****   }
 421:HAL_Lib/STM32H7xx_HAL_Driver/Src/stm32h7xx_hal_exti.c **** #if defined (DUAL_CORE)
 422:HAL_Lib/STM32H7xx_HAL_Driver/Src/stm32h7xx_hal_exti.c ****   regaddr = (__IO uint32_t *)(&EXTI->C2IMR1 + (EXTI_MODE_OFFSET * offset));
 423:HAL_Lib/STM32H7xx_HAL_Driver/Src/stm32h7xx_hal_exti.c ****   regval = *regaddr;
 424:HAL_Lib/STM32H7xx_HAL_Driver/Src/stm32h7xx_hal_exti.c **** 
 425:HAL_Lib/STM32H7xx_HAL_Driver/Src/stm32h7xx_hal_exti.c ****   /* Check if selected line is enable */
 426:HAL_Lib/STM32H7xx_HAL_Driver/Src/stm32h7xx_hal_exti.c ****   if ((regval & maskline) != 0x00U)
 427:HAL_Lib/STM32H7xx_HAL_Driver/Src/stm32h7xx_hal_exti.c ****   {
 428:HAL_Lib/STM32H7xx_HAL_Driver/Src/stm32h7xx_hal_exti.c ****     pExtiConfig->Mode = EXTI_MODE_CORE2_INTERRUPT;
 429:HAL_Lib/STM32H7xx_HAL_Driver/Src/stm32h7xx_hal_exti.c ****   }
 430:HAL_Lib/STM32H7xx_HAL_Driver/Src/stm32h7xx_hal_exti.c **** 
 431:HAL_Lib/STM32H7xx_HAL_Driver/Src/stm32h7xx_hal_exti.c ****   /* Get event mode */
 432:HAL_Lib/STM32H7xx_HAL_Driver/Src/stm32h7xx_hal_exti.c ****   regaddr = (__IO uint32_t *)(&EXTI->C2EMR1 + (EXTI_MODE_OFFSET * offset));
 433:HAL_Lib/STM32H7xx_HAL_Driver/Src/stm32h7xx_hal_exti.c ****   regval = *regaddr;
 434:HAL_Lib/STM32H7xx_HAL_Driver/Src/stm32h7xx_hal_exti.c **** 
 435:HAL_Lib/STM32H7xx_HAL_Driver/Src/stm32h7xx_hal_exti.c ****   /* Check if selected line is enable */
 436:HAL_Lib/STM32H7xx_HAL_Driver/Src/stm32h7xx_hal_exti.c ****   if ((regval & maskline) != 0x00U)
 437:HAL_Lib/STM32H7xx_HAL_Driver/Src/stm32h7xx_hal_exti.c ****   {
 438:HAL_Lib/STM32H7xx_HAL_Driver/Src/stm32h7xx_hal_exti.c ****     pExtiConfig->Mode |= EXTI_MODE_CORE2_EVENT;
 439:HAL_Lib/STM32H7xx_HAL_Driver/Src/stm32h7xx_hal_exti.c ****   }
 440:HAL_Lib/STM32H7xx_HAL_Driver/Src/stm32h7xx_hal_exti.c **** #endif /*DUAL_CORE*/
 441:HAL_Lib/STM32H7xx_HAL_Driver/Src/stm32h7xx_hal_exti.c **** 
 442:HAL_Lib/STM32H7xx_HAL_Driver/Src/stm32h7xx_hal_exti.c ****   /* Get default Trigger and GPIOSel configuration */
 443:HAL_Lib/STM32H7xx_HAL_Driver/Src/stm32h7xx_hal_exti.c ****   pExtiConfig->Trigger = EXTI_TRIGGER_NONE;
 497              		.loc 1 443 3 is_stmt 1 view .LVU196
 498              		.loc 1 443 24 is_stmt 0 view .LVU197
 499 0040 0024     		movs	r4, #0
 500 0042 9C60     		str	r4, [r3, #8]
 444:HAL_Lib/STM32H7xx_HAL_Driver/Src/stm32h7xx_hal_exti.c ****   pExtiConfig->GPIOSel = 0x00U;
 501              		.loc 1 444 3 is_stmt 1 view .LVU198
 502              		.loc 1 444 24 is_stmt 0 view .LVU199
 503 0044 DC60     		str	r4, [r3, #12]
 445:HAL_Lib/STM32H7xx_HAL_Driver/Src/stm32h7xx_hal_exti.c **** 
 446:HAL_Lib/STM32H7xx_HAL_Driver/Src/stm32h7xx_hal_exti.c ****   /* 2] Get trigger for configurable lines : rising */
 447:HAL_Lib/STM32H7xx_HAL_Driver/Src/stm32h7xx_hal_exti.c ****   if ((pExtiConfig->Line & EXTI_CONFIG) != 0x00U)
 504              		.loc 1 447 3 is_stmt 1 view .LVU200
 505              		.loc 1 447 6 is_stmt 0 view .LVU201
 506 0046 11F0007F 		tst	r1, #33554432
ARM GAS  C:\Users\huav\AppData\Local\Temp\cc2UW7ST.s 			page 19


 507 004a 14D0     		beq	.L29
 448:HAL_Lib/STM32H7xx_HAL_Driver/Src/stm32h7xx_hal_exti.c ****   {
 449:HAL_Lib/STM32H7xx_HAL_Driver/Src/stm32h7xx_hal_exti.c ****     regaddr = (__IO uint32_t *)(&EXTI->RTSR1 + (EXTI_CONFIG_OFFSET * offset));
 508              		.loc 1 449 5 is_stmt 1 view .LVU202
 509              		.loc 1 449 15 is_stmt 0 view .LVU203
 510 004c 4401     		lsls	r4, r0, #5
 511              		.loc 1 449 13 view .LVU204
 512 004e 04F1B045 		add	r5, r4, #1476395008
 513              	.LVL68:
 450:HAL_Lib/STM32H7xx_HAL_Driver/Src/stm32h7xx_hal_exti.c ****     regval = *regaddr;
 514              		.loc 1 450 5 is_stmt 1 view .LVU205
 515              		.loc 1 450 12 is_stmt 0 view .LVU206
 516 0052 2D68     		ldr	r5, [r5]
 517              	.LVL69:
 451:HAL_Lib/STM32H7xx_HAL_Driver/Src/stm32h7xx_hal_exti.c **** 
 452:HAL_Lib/STM32H7xx_HAL_Driver/Src/stm32h7xx_hal_exti.c ****     /* Check if configuration of selected line is enable */
 453:HAL_Lib/STM32H7xx_HAL_Driver/Src/stm32h7xx_hal_exti.c ****     if ((regval & maskline) != 0x00U)
 518              		.loc 1 453 5 is_stmt 1 view .LVU207
 519              		.loc 1 453 8 is_stmt 0 view .LVU208
 520 0054 2A42     		tst	r2, r5
 521 0056 01D0     		beq	.L30
 454:HAL_Lib/STM32H7xx_HAL_Driver/Src/stm32h7xx_hal_exti.c ****     {
 455:HAL_Lib/STM32H7xx_HAL_Driver/Src/stm32h7xx_hal_exti.c ****       pExtiConfig->Trigger = EXTI_TRIGGER_RISING;
 522              		.loc 1 455 7 is_stmt 1 view .LVU209
 523              		.loc 1 455 28 is_stmt 0 view .LVU210
 524 0058 0125     		movs	r5, #1
 525              	.LVL70:
 526              		.loc 1 455 28 view .LVU211
 527 005a 9D60     		str	r5, [r3, #8]
 528              	.L30:
 456:HAL_Lib/STM32H7xx_HAL_Driver/Src/stm32h7xx_hal_exti.c ****     }
 457:HAL_Lib/STM32H7xx_HAL_Driver/Src/stm32h7xx_hal_exti.c **** 
 458:HAL_Lib/STM32H7xx_HAL_Driver/Src/stm32h7xx_hal_exti.c ****     /* Get falling configuration */
 459:HAL_Lib/STM32H7xx_HAL_Driver/Src/stm32h7xx_hal_exti.c ****     regaddr = (__IO uint32_t *)(&EXTI->FTSR1 + (EXTI_CONFIG_OFFSET * offset));
 529              		.loc 1 459 5 is_stmt 1 view .LVU212
 530              		.loc 1 459 13 is_stmt 0 view .LVU213
 531 005c 264D     		ldr	r5, .L43+8
 532              	.LVL71:
 460:HAL_Lib/STM32H7xx_HAL_Driver/Src/stm32h7xx_hal_exti.c ****     regval = *regaddr;
 533              		.loc 1 460 5 is_stmt 1 view .LVU214
 534              		.loc 1 460 12 is_stmt 0 view .LVU215
 535 005e 6459     		ldr	r4, [r4, r5]
 536              	.LVL72:
 461:HAL_Lib/STM32H7xx_HAL_Driver/Src/stm32h7xx_hal_exti.c **** 
 462:HAL_Lib/STM32H7xx_HAL_Driver/Src/stm32h7xx_hal_exti.c ****     /* Check if configuration of selected line is enable */
 463:HAL_Lib/STM32H7xx_HAL_Driver/Src/stm32h7xx_hal_exti.c ****     if ((regval & maskline) != 0x00U)
 537              		.loc 1 463 5 is_stmt 1 view .LVU216
 538              		.loc 1 463 8 is_stmt 0 view .LVU217
 539 0060 2242     		tst	r2, r4
 540 0062 03D0     		beq	.L31
 464:HAL_Lib/STM32H7xx_HAL_Driver/Src/stm32h7xx_hal_exti.c ****     {
 465:HAL_Lib/STM32H7xx_HAL_Driver/Src/stm32h7xx_hal_exti.c ****       pExtiConfig->Trigger |= EXTI_TRIGGER_FALLING;
 541              		.loc 1 465 7 is_stmt 1 view .LVU218
 542              		.loc 1 465 28 is_stmt 0 view .LVU219
 543 0064 9C68     		ldr	r4, [r3, #8]
 544              	.LVL73:
 545              		.loc 1 465 28 view .LVU220
ARM GAS  C:\Users\huav\AppData\Local\Temp\cc2UW7ST.s 			page 20


 546 0066 44F00204 		orr	r4, r4, #2
 547 006a 9C60     		str	r4, [r3, #8]
 548              	.L31:
 466:HAL_Lib/STM32H7xx_HAL_Driver/Src/stm32h7xx_hal_exti.c ****     }
 467:HAL_Lib/STM32H7xx_HAL_Driver/Src/stm32h7xx_hal_exti.c **** 
 468:HAL_Lib/STM32H7xx_HAL_Driver/Src/stm32h7xx_hal_exti.c ****     /* Get Gpio port selection for gpio lines */
 469:HAL_Lib/STM32H7xx_HAL_Driver/Src/stm32h7xx_hal_exti.c ****     if ((pExtiConfig->Line & EXTI_GPIO) == EXTI_GPIO)
 549              		.loc 1 469 5 is_stmt 1 view .LVU221
 550              		.loc 1 469 28 is_stmt 0 view .LVU222
 551 006c 01F0C064 		and	r4, r1, #100663296
 552              		.loc 1 469 8 view .LVU223
 553 0070 B4F1C06F 		cmp	r4, #100663296
 554 0074 09D0     		beq	.L41
 555              	.LVL74:
 556              	.L29:
 470:HAL_Lib/STM32H7xx_HAL_Driver/Src/stm32h7xx_hal_exti.c ****     {
 471:HAL_Lib/STM32H7xx_HAL_Driver/Src/stm32h7xx_hal_exti.c ****       assert_param(IS_EXTI_GPIO_PIN(linepos));
 472:HAL_Lib/STM32H7xx_HAL_Driver/Src/stm32h7xx_hal_exti.c **** 
 473:HAL_Lib/STM32H7xx_HAL_Driver/Src/stm32h7xx_hal_exti.c ****       regval = SYSCFG->EXTICR[(linepos >> 2U) & 0x03UL];
 474:HAL_Lib/STM32H7xx_HAL_Driver/Src/stm32h7xx_hal_exti.c ****       pExtiConfig->GPIOSel = ((regval << (SYSCFG_EXTICR1_EXTI1_Pos * (3UL - (linepos & 0x03UL)))) >
 475:HAL_Lib/STM32H7xx_HAL_Driver/Src/stm32h7xx_hal_exti.c ****     }
 476:HAL_Lib/STM32H7xx_HAL_Driver/Src/stm32h7xx_hal_exti.c ****   }
 477:HAL_Lib/STM32H7xx_HAL_Driver/Src/stm32h7xx_hal_exti.c **** 
 478:HAL_Lib/STM32H7xx_HAL_Driver/Src/stm32h7xx_hal_exti.c ****   /* Get default Pend Clear Source */
 479:HAL_Lib/STM32H7xx_HAL_Driver/Src/stm32h7xx_hal_exti.c ****   pExtiConfig->PendClearSource = EXTI_D3_PENDCLR_SRC_NONE;
 557              		.loc 1 479 3 is_stmt 1 view .LVU224
 558              		.loc 1 479 32 is_stmt 0 view .LVU225
 559 0076 0024     		movs	r4, #0
 560 0078 1C61     		str	r4, [r3, #16]
 480:HAL_Lib/STM32H7xx_HAL_Driver/Src/stm32h7xx_hal_exti.c **** 
 481:HAL_Lib/STM32H7xx_HAL_Driver/Src/stm32h7xx_hal_exti.c ****   /* 3] Get D3 Pend Clear source */
 482:HAL_Lib/STM32H7xx_HAL_Driver/Src/stm32h7xx_hal_exti.c ****   if ((pExtiConfig->Line & EXTI_TARGET_MASK) == EXTI_TARGET_MSK_ALL)
 561              		.loc 1 482 3 is_stmt 1 view .LVU226
 562              		.loc 1 482 26 is_stmt 0 view .LVU227
 563 007a 01F44014 		and	r4, r1, #3145728
 564              		.loc 1 482 6 view .LVU228
 565 007e B4F5401F 		cmp	r4, #3145728
 566 0082 11D0     		beq	.L42
 483:HAL_Lib/STM32H7xx_HAL_Driver/Src/stm32h7xx_hal_exti.c ****   {
 484:HAL_Lib/STM32H7xx_HAL_Driver/Src/stm32h7xx_hal_exti.c ****     regaddr = (__IO uint32_t *)(&EXTI->D3PMR1 + (EXTI_CONFIG_OFFSET * offset));
 485:HAL_Lib/STM32H7xx_HAL_Driver/Src/stm32h7xx_hal_exti.c ****     if(((*regaddr) & linepos) != 0UL)
 486:HAL_Lib/STM32H7xx_HAL_Driver/Src/stm32h7xx_hal_exti.c ****     {
 487:HAL_Lib/STM32H7xx_HAL_Driver/Src/stm32h7xx_hal_exti.c ****       /* if wakeup target is any and PMR set, the read pend clear source from  D3PCRxL/H */
 488:HAL_Lib/STM32H7xx_HAL_Driver/Src/stm32h7xx_hal_exti.c ****       if(linepos < 16UL)
 489:HAL_Lib/STM32H7xx_HAL_Driver/Src/stm32h7xx_hal_exti.c ****       {
 490:HAL_Lib/STM32H7xx_HAL_Driver/Src/stm32h7xx_hal_exti.c ****         regaddr = (__IO uint32_t *)(&EXTI->D3PCR1L + (EXTI_CONFIG_OFFSET * offset));
 491:HAL_Lib/STM32H7xx_HAL_Driver/Src/stm32h7xx_hal_exti.c ****         pcrlinepos = 1UL << linepos;
 492:HAL_Lib/STM32H7xx_HAL_Driver/Src/stm32h7xx_hal_exti.c ****       }
 493:HAL_Lib/STM32H7xx_HAL_Driver/Src/stm32h7xx_hal_exti.c ****       else
 494:HAL_Lib/STM32H7xx_HAL_Driver/Src/stm32h7xx_hal_exti.c ****       {
 495:HAL_Lib/STM32H7xx_HAL_Driver/Src/stm32h7xx_hal_exti.c ****         regaddr = (__IO uint32_t *)(&EXTI->D3PCR1H + (EXTI_CONFIG_OFFSET * offset));
 496:HAL_Lib/STM32H7xx_HAL_Driver/Src/stm32h7xx_hal_exti.c ****         pcrlinepos = 1UL << (linepos - 16UL);
 497:HAL_Lib/STM32H7xx_HAL_Driver/Src/stm32h7xx_hal_exti.c ****       }
 498:HAL_Lib/STM32H7xx_HAL_Driver/Src/stm32h7xx_hal_exti.c **** 
 499:HAL_Lib/STM32H7xx_HAL_Driver/Src/stm32h7xx_hal_exti.c ****       pExtiConfig->PendClearSource = 1UL + ((*regaddr & (pcrlinepos * pcrlinepos * 3UL)) / (pcrline
 500:HAL_Lib/STM32H7xx_HAL_Driver/Src/stm32h7xx_hal_exti.c ****     }
 501:HAL_Lib/STM32H7xx_HAL_Driver/Src/stm32h7xx_hal_exti.c ****   }
ARM GAS  C:\Users\huav\AppData\Local\Temp\cc2UW7ST.s 			page 21


 502:HAL_Lib/STM32H7xx_HAL_Driver/Src/stm32h7xx_hal_exti.c **** 
 503:HAL_Lib/STM32H7xx_HAL_Driver/Src/stm32h7xx_hal_exti.c ****   return HAL_OK;
 567              		.loc 1 503 10 view .LVU229
 568 0084 0020     		movs	r0, #0
 569              	.LVL75:
 570              	.L26:
 504:HAL_Lib/STM32H7xx_HAL_Driver/Src/stm32h7xx_hal_exti.c **** }
 571              		.loc 1 504 1 view .LVU230
 572 0086 70BC     		pop	{r4, r5, r6}
 573              	.LCFI3:
 574              		.cfi_remember_state
 575              		.cfi_restore 6
 576              		.cfi_restore 5
 577              		.cfi_restore 4
 578              		.cfi_def_cfa_offset 0
 579 0088 7047     		bx	lr
 580              	.LVL76:
 581              	.L41:
 582              	.LCFI4:
 583              		.cfi_restore_state
 471:HAL_Lib/STM32H7xx_HAL_Driver/Src/stm32h7xx_hal_exti.c **** 
 584              		.loc 1 471 7 is_stmt 1 view .LVU231
 473:HAL_Lib/STM32H7xx_HAL_Driver/Src/stm32h7xx_hal_exti.c ****       pExtiConfig->GPIOSel = ((regval << (SYSCFG_EXTICR1_EXTI1_Pos * (3UL - (linepos & 0x03UL)))) >
 585              		.loc 1 473 7 view .LVU232
 473:HAL_Lib/STM32H7xx_HAL_Driver/Src/stm32h7xx_hal_exti.c ****       pExtiConfig->GPIOSel = ((regval << (SYSCFG_EXTICR1_EXTI1_Pos * (3UL - (linepos & 0x03UL)))) >
 586              		.loc 1 473 47 is_stmt 0 view .LVU233
 587 008a CCF38104 		ubfx	r4, ip, #2, #2
 473:HAL_Lib/STM32H7xx_HAL_Driver/Src/stm32h7xx_hal_exti.c ****       pExtiConfig->GPIOSel = ((regval << (SYSCFG_EXTICR1_EXTI1_Pos * (3UL - (linepos & 0x03UL)))) >
 588              		.loc 1 473 14 view .LVU234
 589 008e 0234     		adds	r4, r4, #2
 590 0090 1A4D     		ldr	r5, .L43+12
 591              	.LVL77:
 473:HAL_Lib/STM32H7xx_HAL_Driver/Src/stm32h7xx_hal_exti.c ****       pExtiConfig->GPIOSel = ((regval << (SYSCFG_EXTICR1_EXTI1_Pos * (3UL - (linepos & 0x03UL)))) >
 592              		.loc 1 473 14 view .LVU235
 593 0092 55F82440 		ldr	r4, [r5, r4, lsl #2]
 594              	.LVL78:
 474:HAL_Lib/STM32H7xx_HAL_Driver/Src/stm32h7xx_hal_exti.c ****     }
 595              		.loc 1 474 7 is_stmt 1 view .LVU236
 474:HAL_Lib/STM32H7xx_HAL_Driver/Src/stm32h7xx_hal_exti.c ****     }
 596              		.loc 1 474 75 is_stmt 0 view .LVU237
 597 0096 6FEA0C05 		mvn	r5, ip
 598 009a 05F00305 		and	r5, r5, #3
 474:HAL_Lib/STM32H7xx_HAL_Driver/Src/stm32h7xx_hal_exti.c ****     }
 599              		.loc 1 474 68 view .LVU238
 600 009e AD00     		lsls	r5, r5, #2
 474:HAL_Lib/STM32H7xx_HAL_Driver/Src/stm32h7xx_hal_exti.c ****     }
 601              		.loc 1 474 39 view .LVU239
 602 00a0 AC40     		lsls	r4, r4, r5
 603              	.LVL79:
 474:HAL_Lib/STM32H7xx_HAL_Driver/Src/stm32h7xx_hal_exti.c ****     }
 604              		.loc 1 474 99 view .LVU240
 605 00a2 240E     		lsrs	r4, r4, #24
 474:HAL_Lib/STM32H7xx_HAL_Driver/Src/stm32h7xx_hal_exti.c ****     }
 606              		.loc 1 474 28 view .LVU241
 607 00a4 DC60     		str	r4, [r3, #12]
 608 00a6 E6E7     		b	.L29
 609              	.LVL80:
ARM GAS  C:\Users\huav\AppData\Local\Temp\cc2UW7ST.s 			page 22


 610              	.L42:
 484:HAL_Lib/STM32H7xx_HAL_Driver/Src/stm32h7xx_hal_exti.c ****     if(((*regaddr) & linepos) != 0UL)
 611              		.loc 1 484 5 is_stmt 1 view .LVU242
 484:HAL_Lib/STM32H7xx_HAL_Driver/Src/stm32h7xx_hal_exti.c ****     if(((*regaddr) & linepos) != 0UL)
 612              		.loc 1 484 15 is_stmt 0 view .LVU243
 613 00a8 4001     		lsls	r0, r0, #5
 614              	.LVL81:
 484:HAL_Lib/STM32H7xx_HAL_Driver/Src/stm32h7xx_hal_exti.c ****     if(((*regaddr) & linepos) != 0UL)
 615              		.loc 1 484 13 view .LVU244
 616 00aa 154C     		ldr	r4, .L43+16
 617              	.LVL82:
 485:HAL_Lib/STM32H7xx_HAL_Driver/Src/stm32h7xx_hal_exti.c ****     {
 618              		.loc 1 485 5 is_stmt 1 view .LVU245
 485:HAL_Lib/STM32H7xx_HAL_Driver/Src/stm32h7xx_hal_exti.c ****     {
 619              		.loc 1 485 10 is_stmt 0 view .LVU246
 620 00ac 0459     		ldr	r4, [r0, r4]
 621              	.LVL83:
 485:HAL_Lib/STM32H7xx_HAL_Driver/Src/stm32h7xx_hal_exti.c ****     {
 622              		.loc 1 485 7 view .LVU247
 623 00ae 14EA0C0F 		tst	r4, ip
 624 00b2 1AD0     		beq	.L36
 488:HAL_Lib/STM32H7xx_HAL_Driver/Src/stm32h7xx_hal_exti.c ****       {
 625              		.loc 1 488 7 is_stmt 1 view .LVU248
 488:HAL_Lib/STM32H7xx_HAL_Driver/Src/stm32h7xx_hal_exti.c ****       {
 626              		.loc 1 488 9 is_stmt 0 view .LVU249
 627 00b4 11F0100F 		tst	r1, #16
 628 00b8 0DD1     		bne	.L32
 490:HAL_Lib/STM32H7xx_HAL_Driver/Src/stm32h7xx_hal_exti.c ****         pcrlinepos = 1UL << linepos;
 629              		.loc 1 490 9 is_stmt 1 view .LVU250
 490:HAL_Lib/STM32H7xx_HAL_Driver/Src/stm32h7xx_hal_exti.c ****         pcrlinepos = 1UL << linepos;
 630              		.loc 1 490 17 is_stmt 0 view .LVU251
 631 00ba 1249     		ldr	r1, .L43+20
 632              	.LVL84:
 490:HAL_Lib/STM32H7xx_HAL_Driver/Src/stm32h7xx_hal_exti.c ****         pcrlinepos = 1UL << linepos;
 633              		.loc 1 490 17 view .LVU252
 634 00bc 0144     		add	r1, r1, r0
 635              	.LVL85:
 491:HAL_Lib/STM32H7xx_HAL_Driver/Src/stm32h7xx_hal_exti.c ****       }
 636              		.loc 1 491 9 is_stmt 1 view .LVU253
 637              	.L33:
 499:HAL_Lib/STM32H7xx_HAL_Driver/Src/stm32h7xx_hal_exti.c ****     }
 638              		.loc 1 499 7 view .LVU254
 499:HAL_Lib/STM32H7xx_HAL_Driver/Src/stm32h7xx_hal_exti.c ****     }
 639              		.loc 1 499 46 is_stmt 0 view .LVU255
 640 00be 0968     		ldr	r1, [r1]
 641              	.LVL86:
 499:HAL_Lib/STM32H7xx_HAL_Driver/Src/stm32h7xx_hal_exti.c ****     }
 642              		.loc 1 499 69 view .LVU256
 643 00c0 02FB02F2 		mul	r2, r2, r2
 644              	.LVL87:
 499:HAL_Lib/STM32H7xx_HAL_Driver/Src/stm32h7xx_hal_exti.c ****     }
 645              		.loc 1 499 82 view .LVU257
 646 00c4 02EB4200 		add	r0, r2, r2, lsl #1
 499:HAL_Lib/STM32H7xx_HAL_Driver/Src/stm32h7xx_hal_exti.c ****     }
 647              		.loc 1 499 55 view .LVU258
 648 00c8 0140     		ands	r1, r1, r0
 499:HAL_Lib/STM32H7xx_HAL_Driver/Src/stm32h7xx_hal_exti.c ****     }
ARM GAS  C:\Users\huav\AppData\Local\Temp\cc2UW7ST.s 			page 23


 649              		.loc 1 499 90 view .LVU259
 650 00ca B1FBF2F2 		udiv	r2, r1, r2
 499:HAL_Lib/STM32H7xx_HAL_Driver/Src/stm32h7xx_hal_exti.c ****     }
 651              		.loc 1 499 42 view .LVU260
 652 00ce 0132     		adds	r2, r2, #1
 499:HAL_Lib/STM32H7xx_HAL_Driver/Src/stm32h7xx_hal_exti.c ****     }
 653              		.loc 1 499 36 view .LVU261
 654 00d0 1A61     		str	r2, [r3, #16]
 503:HAL_Lib/STM32H7xx_HAL_Driver/Src/stm32h7xx_hal_exti.c **** }
 655              		.loc 1 503 10 view .LVU262
 656 00d2 0020     		movs	r0, #0
 657 00d4 D7E7     		b	.L26
 658              	.LVL88:
 659              	.L32:
 495:HAL_Lib/STM32H7xx_HAL_Driver/Src/stm32h7xx_hal_exti.c ****         pcrlinepos = 1UL << (linepos - 16UL);
 660              		.loc 1 495 9 is_stmt 1 view .LVU263
 495:HAL_Lib/STM32H7xx_HAL_Driver/Src/stm32h7xx_hal_exti.c ****         pcrlinepos = 1UL << (linepos - 16UL);
 661              		.loc 1 495 17 is_stmt 0 view .LVU264
 662 00d6 0C49     		ldr	r1, .L43+24
 663              	.LVL89:
 495:HAL_Lib/STM32H7xx_HAL_Driver/Src/stm32h7xx_hal_exti.c ****         pcrlinepos = 1UL << (linepos - 16UL);
 664              		.loc 1 495 17 view .LVU265
 665 00d8 0144     		add	r1, r1, r0
 666              	.LVL90:
 496:HAL_Lib/STM32H7xx_HAL_Driver/Src/stm32h7xx_hal_exti.c ****       }
 667              		.loc 1 496 9 is_stmt 1 view .LVU266
 496:HAL_Lib/STM32H7xx_HAL_Driver/Src/stm32h7xx_hal_exti.c ****       }
 668              		.loc 1 496 38 is_stmt 0 view .LVU267
 669 00da ACF1100C 		sub	ip, ip, #16
 670              	.LVL91:
 496:HAL_Lib/STM32H7xx_HAL_Driver/Src/stm32h7xx_hal_exti.c ****       }
 671              		.loc 1 496 20 view .LVU268
 672 00de 0122     		movs	r2, #1
 673              	.LVL92:
 496:HAL_Lib/STM32H7xx_HAL_Driver/Src/stm32h7xx_hal_exti.c ****       }
 674              		.loc 1 496 20 view .LVU269
 675 00e0 02FA0CF2 		lsl	r2, r2, ip
 676              	.LVL93:
 496:HAL_Lib/STM32H7xx_HAL_Driver/Src/stm32h7xx_hal_exti.c ****       }
 677              		.loc 1 496 20 view .LVU270
 678 00e4 EBE7     		b	.L33
 679              	.LVL94:
 680              	.L34:
 681              	.LCFI5:
 682              		.cfi_def_cfa_offset 0
 683              		.cfi_restore 4
 684              		.cfi_restore 5
 685              		.cfi_restore 6
 386:HAL_Lib/STM32H7xx_HAL_Driver/Src/stm32h7xx_hal_exti.c ****   }
 686              		.loc 1 386 12 view .LVU271
 687 00e6 0120     		movs	r0, #1
 688              	.LVL95:
 689              		.loc 1 504 1 view .LVU272
 690 00e8 7047     		bx	lr
 691              	.LVL96:
 692              	.L36:
 693              	.LCFI6:
ARM GAS  C:\Users\huav\AppData\Local\Temp\cc2UW7ST.s 			page 24


 694              		.cfi_def_cfa_offset 12
 695              		.cfi_offset 4, -12
 696              		.cfi_offset 5, -8
 697              		.cfi_offset 6, -4
 503:HAL_Lib/STM32H7xx_HAL_Driver/Src/stm32h7xx_hal_exti.c **** }
 698              		.loc 1 503 10 view .LVU273
 699 00ea 0020     		movs	r0, #0
 700              	.LVL97:
 503:HAL_Lib/STM32H7xx_HAL_Driver/Src/stm32h7xx_hal_exti.c **** }
 701              		.loc 1 503 10 view .LVU274
 702 00ec CBE7     		b	.L26
 703              	.L44:
 704 00ee 00BF     		.align	2
 705              	.L43:
 706 00f0 80000058 		.word	1476395136
 707 00f4 84000058 		.word	1476395140
 708 00f8 04000058 		.word	1476395012
 709 00fc 00040058 		.word	1476396032
 710 0100 0C000058 		.word	1476395020
 711 0104 10000058 		.word	1476395024
 712 0108 14000058 		.word	1476395028
 713              		.cfi_endproc
 714              	.LFE145:
 716              		.section	.text.HAL_EXTI_ClearConfigLine,"ax",%progbits
 717              		.align	1
 718              		.global	HAL_EXTI_ClearConfigLine
 719              		.syntax unified
 720              		.thumb
 721              		.thumb_func
 722              		.fpu fpv5-d16
 724              	HAL_EXTI_ClearConfigLine:
 725              	.LVL98:
 726              	.LFB146:
 505:HAL_Lib/STM32H7xx_HAL_Driver/Src/stm32h7xx_hal_exti.c **** 
 506:HAL_Lib/STM32H7xx_HAL_Driver/Src/stm32h7xx_hal_exti.c **** 
 507:HAL_Lib/STM32H7xx_HAL_Driver/Src/stm32h7xx_hal_exti.c **** /**
 508:HAL_Lib/STM32H7xx_HAL_Driver/Src/stm32h7xx_hal_exti.c ****   * @brief  Clear whole configuration of a dedicated Exti line.
 509:HAL_Lib/STM32H7xx_HAL_Driver/Src/stm32h7xx_hal_exti.c ****   * @param  hexti Exti handle.
 510:HAL_Lib/STM32H7xx_HAL_Driver/Src/stm32h7xx_hal_exti.c ****   * @retval HAL Status.
 511:HAL_Lib/STM32H7xx_HAL_Driver/Src/stm32h7xx_hal_exti.c ****   */
 512:HAL_Lib/STM32H7xx_HAL_Driver/Src/stm32h7xx_hal_exti.c **** HAL_StatusTypeDef HAL_EXTI_ClearConfigLine(EXTI_HandleTypeDef *hexti)
 513:HAL_Lib/STM32H7xx_HAL_Driver/Src/stm32h7xx_hal_exti.c **** {
 727              		.loc 1 513 1 is_stmt 1 view -0
 728              		.cfi_startproc
 729              		@ args = 0, pretend = 0, frame = 0
 730              		@ frame_needed = 0, uses_anonymous_args = 0
 514:HAL_Lib/STM32H7xx_HAL_Driver/Src/stm32h7xx_hal_exti.c ****   __IO uint32_t *regaddr;
 731              		.loc 1 514 3 view .LVU276
 515:HAL_Lib/STM32H7xx_HAL_Driver/Src/stm32h7xx_hal_exti.c ****   uint32_t regval;
 732              		.loc 1 515 3 view .LVU277
 516:HAL_Lib/STM32H7xx_HAL_Driver/Src/stm32h7xx_hal_exti.c ****   uint32_t linepos;
 733              		.loc 1 516 3 view .LVU278
 517:HAL_Lib/STM32H7xx_HAL_Driver/Src/stm32h7xx_hal_exti.c ****   uint32_t maskline;
 734              		.loc 1 517 3 view .LVU279
 518:HAL_Lib/STM32H7xx_HAL_Driver/Src/stm32h7xx_hal_exti.c ****   uint32_t offset;
 735              		.loc 1 518 3 view .LVU280
 519:HAL_Lib/STM32H7xx_HAL_Driver/Src/stm32h7xx_hal_exti.c ****   uint32_t pcrlinepos;
ARM GAS  C:\Users\huav\AppData\Local\Temp\cc2UW7ST.s 			page 25


 736              		.loc 1 519 3 view .LVU281
 520:HAL_Lib/STM32H7xx_HAL_Driver/Src/stm32h7xx_hal_exti.c **** 
 521:HAL_Lib/STM32H7xx_HAL_Driver/Src/stm32h7xx_hal_exti.c ****   /* Check null pointer */
 522:HAL_Lib/STM32H7xx_HAL_Driver/Src/stm32h7xx_hal_exti.c ****   if (hexti == NULL)
 737              		.loc 1 522 3 view .LVU282
 738              		.loc 1 522 6 is_stmt 0 view .LVU283
 739 0000 0028     		cmp	r0, #0
 740 0002 65D0     		beq	.L50
 513:HAL_Lib/STM32H7xx_HAL_Driver/Src/stm32h7xx_hal_exti.c ****   __IO uint32_t *regaddr;
 741              		.loc 1 513 1 view .LVU284
 742 0004 2DE9F041 		push	{r4, r5, r6, r7, r8, lr}
 743              	.LCFI7:
 744              		.cfi_def_cfa_offset 24
 745              		.cfi_offset 4, -24
 746              		.cfi_offset 5, -20
 747              		.cfi_offset 6, -16
 748              		.cfi_offset 7, -12
 749              		.cfi_offset 8, -8
 750              		.cfi_offset 14, -4
 751 0008 0146     		mov	r1, r0
 523:HAL_Lib/STM32H7xx_HAL_Driver/Src/stm32h7xx_hal_exti.c ****   {
 524:HAL_Lib/STM32H7xx_HAL_Driver/Src/stm32h7xx_hal_exti.c ****     return HAL_ERROR;
 525:HAL_Lib/STM32H7xx_HAL_Driver/Src/stm32h7xx_hal_exti.c ****   }
 526:HAL_Lib/STM32H7xx_HAL_Driver/Src/stm32h7xx_hal_exti.c **** 
 527:HAL_Lib/STM32H7xx_HAL_Driver/Src/stm32h7xx_hal_exti.c ****   /* Check the parameter */
 528:HAL_Lib/STM32H7xx_HAL_Driver/Src/stm32h7xx_hal_exti.c ****   assert_param(IS_EXTI_LINE(hexti->Line));
 752              		.loc 1 528 3 is_stmt 1 view .LVU285
 529:HAL_Lib/STM32H7xx_HAL_Driver/Src/stm32h7xx_hal_exti.c **** 
 530:HAL_Lib/STM32H7xx_HAL_Driver/Src/stm32h7xx_hal_exti.c ****   /* compute line register offset and line mask */
 531:HAL_Lib/STM32H7xx_HAL_Driver/Src/stm32h7xx_hal_exti.c ****   offset = ((hexti->Line & EXTI_REG_MASK) >> EXTI_REG_SHIFT);
 753              		.loc 1 531 3 view .LVU286
 754              		.loc 1 531 19 is_stmt 0 view .LVU287
 755 000a 0568     		ldr	r5, [r0]
 756              		.loc 1 531 10 view .LVU288
 757 000c C5F30140 		ubfx	r0, r5, #16, #2
 758              	.LVL99:
 532:HAL_Lib/STM32H7xx_HAL_Driver/Src/stm32h7xx_hal_exti.c ****   linepos = (hexti->Line & EXTI_PIN_MASK);
 759              		.loc 1 532 3 is_stmt 1 view .LVU289
 760              		.loc 1 532 11 is_stmt 0 view .LVU290
 761 0010 05F01F0E 		and	lr, r5, #31
 762              	.LVL100:
 533:HAL_Lib/STM32H7xx_HAL_Driver/Src/stm32h7xx_hal_exti.c ****   maskline = (1UL << linepos);
 763              		.loc 1 533 3 is_stmt 1 view .LVU291
 764              		.loc 1 533 12 is_stmt 0 view .LVU292
 765 0014 0123     		movs	r3, #1
 766 0016 03FA0EF3 		lsl	r3, r3, lr
 767              	.LVL101:
 534:HAL_Lib/STM32H7xx_HAL_Driver/Src/stm32h7xx_hal_exti.c **** 
 535:HAL_Lib/STM32H7xx_HAL_Driver/Src/stm32h7xx_hal_exti.c ****   /* 1] Clear interrupt mode */
 536:HAL_Lib/STM32H7xx_HAL_Driver/Src/stm32h7xx_hal_exti.c ****   regaddr = (__IO uint32_t *)(&EXTI->IMR1 + (EXTI_MODE_OFFSET * offset));
 768              		.loc 1 536 3 is_stmt 1 view .LVU293
 769              		.loc 1 536 13 is_stmt 0 view .LVU294
 770 001a 0201     		lsls	r2, r0, #4
 771              		.loc 1 536 11 view .LVU295
 772 001c 2D4E     		ldr	r6, .L58
 773              	.LVL102:
 537:HAL_Lib/STM32H7xx_HAL_Driver/Src/stm32h7xx_hal_exti.c ****   regval = (*regaddr & ~maskline);
ARM GAS  C:\Users\huav\AppData\Local\Temp\cc2UW7ST.s 			page 26


 774              		.loc 1 537 3 is_stmt 1 view .LVU296
 775              		.loc 1 537 13 is_stmt 0 view .LVU297
 776 001e 9459     		ldr	r4, [r2, r6]
 777              		.loc 1 537 24 view .LVU298
 778 0020 6FEA030C 		mvn	ip, r3
 779              		.loc 1 537 10 view .LVU299
 780 0024 24EA0304 		bic	r4, r4, r3
 781              	.LVL103:
 538:HAL_Lib/STM32H7xx_HAL_Driver/Src/stm32h7xx_hal_exti.c ****   *regaddr = regval;
 782              		.loc 1 538 3 is_stmt 1 view .LVU300
 783              		.loc 1 538 12 is_stmt 0 view .LVU301
 784 0028 9451     		str	r4, [r2, r6]
 539:HAL_Lib/STM32H7xx_HAL_Driver/Src/stm32h7xx_hal_exti.c **** 
 540:HAL_Lib/STM32H7xx_HAL_Driver/Src/stm32h7xx_hal_exti.c ****   /* 2] Clear event mode */
 541:HAL_Lib/STM32H7xx_HAL_Driver/Src/stm32h7xx_hal_exti.c ****   regaddr = (__IO uint32_t *)(&EXTI->EMR1 + (EXTI_MODE_OFFSET * offset));
 785              		.loc 1 541 3 is_stmt 1 view .LVU302
 786              		.loc 1 541 11 is_stmt 0 view .LVU303
 787 002a 0436     		adds	r6, r6, #4
 788              	.LVL104:
 542:HAL_Lib/STM32H7xx_HAL_Driver/Src/stm32h7xx_hal_exti.c ****   regval = (*regaddr & ~maskline);
 789              		.loc 1 542 3 is_stmt 1 view .LVU304
 790              		.loc 1 542 13 is_stmt 0 view .LVU305
 791 002c 9459     		ldr	r4, [r2, r6]
 792              	.LVL105:
 793              		.loc 1 542 10 view .LVU306
 794 002e 24EA0304 		bic	r4, r4, r3
 795              	.LVL106:
 543:HAL_Lib/STM32H7xx_HAL_Driver/Src/stm32h7xx_hal_exti.c ****   *regaddr = regval;
 796              		.loc 1 543 3 is_stmt 1 view .LVU307
 797              		.loc 1 543 12 is_stmt 0 view .LVU308
 798 0032 9451     		str	r4, [r2, r6]
 544:HAL_Lib/STM32H7xx_HAL_Driver/Src/stm32h7xx_hal_exti.c **** 
 545:HAL_Lib/STM32H7xx_HAL_Driver/Src/stm32h7xx_hal_exti.c **** #if defined (DUAL_CORE)
 546:HAL_Lib/STM32H7xx_HAL_Driver/Src/stm32h7xx_hal_exti.c ****     /* 1] Clear CM4 interrupt mode */
 547:HAL_Lib/STM32H7xx_HAL_Driver/Src/stm32h7xx_hal_exti.c ****   regaddr = (__IO uint32_t *)(&EXTI->C2IMR1 + (EXTI_MODE_OFFSET * offset));
 548:HAL_Lib/STM32H7xx_HAL_Driver/Src/stm32h7xx_hal_exti.c ****   regval = (*regaddr & ~maskline);
 549:HAL_Lib/STM32H7xx_HAL_Driver/Src/stm32h7xx_hal_exti.c ****   *regaddr = regval;
 550:HAL_Lib/STM32H7xx_HAL_Driver/Src/stm32h7xx_hal_exti.c **** 
 551:HAL_Lib/STM32H7xx_HAL_Driver/Src/stm32h7xx_hal_exti.c ****   /* 2] Clear CM4 event mode */
 552:HAL_Lib/STM32H7xx_HAL_Driver/Src/stm32h7xx_hal_exti.c ****   regaddr = (__IO uint32_t *)(&EXTI->C2EMR1 + (EXTI_MODE_OFFSET * offset));
 553:HAL_Lib/STM32H7xx_HAL_Driver/Src/stm32h7xx_hal_exti.c ****   regval = (*regaddr & ~maskline);
 554:HAL_Lib/STM32H7xx_HAL_Driver/Src/stm32h7xx_hal_exti.c ****   *regaddr = regval;
 555:HAL_Lib/STM32H7xx_HAL_Driver/Src/stm32h7xx_hal_exti.c **** #endif /* DUAL_CORE */
 556:HAL_Lib/STM32H7xx_HAL_Driver/Src/stm32h7xx_hal_exti.c **** 
 557:HAL_Lib/STM32H7xx_HAL_Driver/Src/stm32h7xx_hal_exti.c ****   /* 3] Clear triggers in case of configurable lines */
 558:HAL_Lib/STM32H7xx_HAL_Driver/Src/stm32h7xx_hal_exti.c ****   if ((hexti->Line & EXTI_CONFIG) != 0x00U)
 799              		.loc 1 558 3 is_stmt 1 view .LVU309
 800              		.loc 1 558 13 is_stmt 0 view .LVU310
 801 0034 0A68     		ldr	r2, [r1]
 802              	.LVL107:
 803              		.loc 1 558 6 view .LVU311
 804 0036 12F0007F 		tst	r2, #33554432
 805 003a 11D0     		beq	.L47
 559:HAL_Lib/STM32H7xx_HAL_Driver/Src/stm32h7xx_hal_exti.c ****   {
 560:HAL_Lib/STM32H7xx_HAL_Driver/Src/stm32h7xx_hal_exti.c ****     regaddr = (__IO uint32_t *)(&EXTI->RTSR1 + (EXTI_CONFIG_OFFSET * offset));
 806              		.loc 1 560 5 is_stmt 1 view .LVU312
 807              		.loc 1 560 15 is_stmt 0 view .LVU313
ARM GAS  C:\Users\huav\AppData\Local\Temp\cc2UW7ST.s 			page 27


 808 003c 4201     		lsls	r2, r0, #5
 809              		.loc 1 560 13 view .LVU314
 810 003e 02F1B046 		add	r6, r2, #1476395008
 811              	.LVL108:
 561:HAL_Lib/STM32H7xx_HAL_Driver/Src/stm32h7xx_hal_exti.c ****     regval = (*regaddr & ~maskline);
 812              		.loc 1 561 5 is_stmt 1 view .LVU315
 813              		.loc 1 561 15 is_stmt 0 view .LVU316
 814 0042 3468     		ldr	r4, [r6]
 815              	.LVL109:
 816              		.loc 1 561 12 view .LVU317
 817 0044 0CEA0404 		and	r4, ip, r4
 818              	.LVL110:
 562:HAL_Lib/STM32H7xx_HAL_Driver/Src/stm32h7xx_hal_exti.c ****     *regaddr = regval;
 819              		.loc 1 562 5 is_stmt 1 view .LVU318
 820              		.loc 1 562 14 is_stmt 0 view .LVU319
 821 0048 3460     		str	r4, [r6]
 563:HAL_Lib/STM32H7xx_HAL_Driver/Src/stm32h7xx_hal_exti.c **** 
 564:HAL_Lib/STM32H7xx_HAL_Driver/Src/stm32h7xx_hal_exti.c ****     regaddr = (__IO uint32_t *)(&EXTI->FTSR1 + (EXTI_CONFIG_OFFSET * offset));
 822              		.loc 1 564 5 is_stmt 1 view .LVU320
 823              		.loc 1 564 13 is_stmt 0 view .LVU321
 824 004a 234E     		ldr	r6, .L58+4
 825              	.LVL111:
 565:HAL_Lib/STM32H7xx_HAL_Driver/Src/stm32h7xx_hal_exti.c ****     regval = (*regaddr & ~maskline);
 826              		.loc 1 565 5 is_stmt 1 view .LVU322
 827              		.loc 1 565 15 is_stmt 0 view .LVU323
 828 004c 9459     		ldr	r4, [r2, r6]
 829              	.LVL112:
 830              		.loc 1 565 12 view .LVU324
 831 004e 0CEA0404 		and	r4, ip, r4
 832              	.LVL113:
 566:HAL_Lib/STM32H7xx_HAL_Driver/Src/stm32h7xx_hal_exti.c ****     *regaddr = regval;
 833              		.loc 1 566 5 is_stmt 1 view .LVU325
 834              		.loc 1 566 14 is_stmt 0 view .LVU326
 835 0052 9451     		str	r4, [r2, r6]
 567:HAL_Lib/STM32H7xx_HAL_Driver/Src/stm32h7xx_hal_exti.c **** 
 568:HAL_Lib/STM32H7xx_HAL_Driver/Src/stm32h7xx_hal_exti.c ****     /* Get Gpio port selection for gpio lines */
 569:HAL_Lib/STM32H7xx_HAL_Driver/Src/stm32h7xx_hal_exti.c ****     if ((hexti->Line & EXTI_GPIO) == EXTI_GPIO)
 836              		.loc 1 569 5 is_stmt 1 view .LVU327
 837              		.loc 1 569 15 is_stmt 0 view .LVU328
 838 0054 0A68     		ldr	r2, [r1]
 839              	.LVL114:
 840              		.loc 1 569 22 view .LVU329
 841 0056 02F0C062 		and	r2, r2, #100663296
 842              		.loc 1 569 8 view .LVU330
 843 005a B2F1C06F 		cmp	r2, #100663296
 844 005e 08D0     		beq	.L56
 845              	.LVL115:
 846              	.L47:
 570:HAL_Lib/STM32H7xx_HAL_Driver/Src/stm32h7xx_hal_exti.c ****     {
 571:HAL_Lib/STM32H7xx_HAL_Driver/Src/stm32h7xx_hal_exti.c ****       assert_param(IS_EXTI_GPIO_PIN(linepos));
 572:HAL_Lib/STM32H7xx_HAL_Driver/Src/stm32h7xx_hal_exti.c **** 
 573:HAL_Lib/STM32H7xx_HAL_Driver/Src/stm32h7xx_hal_exti.c ****       regval = SYSCFG->EXTICR[(linepos >> 2U) & 0x03UL];
 574:HAL_Lib/STM32H7xx_HAL_Driver/Src/stm32h7xx_hal_exti.c ****       regval &= ~(SYSCFG_EXTICR1_EXTI0 << (SYSCFG_EXTICR1_EXTI1_Pos * (linepos & 0x03UL)));
 575:HAL_Lib/STM32H7xx_HAL_Driver/Src/stm32h7xx_hal_exti.c ****       SYSCFG->EXTICR[(linepos >> 2U) & 0x03UL] = regval;
 576:HAL_Lib/STM32H7xx_HAL_Driver/Src/stm32h7xx_hal_exti.c ****     }
 577:HAL_Lib/STM32H7xx_HAL_Driver/Src/stm32h7xx_hal_exti.c ****   }
 578:HAL_Lib/STM32H7xx_HAL_Driver/Src/stm32h7xx_hal_exti.c **** 
ARM GAS  C:\Users\huav\AppData\Local\Temp\cc2UW7ST.s 			page 28


 579:HAL_Lib/STM32H7xx_HAL_Driver/Src/stm32h7xx_hal_exti.c ****   /* 4] Clear D3 Config lines */
 580:HAL_Lib/STM32H7xx_HAL_Driver/Src/stm32h7xx_hal_exti.c ****   if ((hexti->Line & EXTI_TARGET_MASK) == EXTI_TARGET_MSK_ALL)
 847              		.loc 1 580 3 is_stmt 1 view .LVU331
 848              		.loc 1 580 13 is_stmt 0 view .LVU332
 849 0060 0A68     		ldr	r2, [r1]
 850              		.loc 1 580 20 view .LVU333
 851 0062 02F44012 		and	r2, r2, #3145728
 852              		.loc 1 580 6 view .LVU334
 853 0066 B2F5401F 		cmp	r2, #3145728
 854 006a 14D0     		beq	.L57
 581:HAL_Lib/STM32H7xx_HAL_Driver/Src/stm32h7xx_hal_exti.c ****   {
 582:HAL_Lib/STM32H7xx_HAL_Driver/Src/stm32h7xx_hal_exti.c ****     regaddr = (__IO uint32_t *)(&EXTI->D3PMR1 + (EXTI_CONFIG_OFFSET * offset));
 583:HAL_Lib/STM32H7xx_HAL_Driver/Src/stm32h7xx_hal_exti.c ****     *regaddr = (*regaddr & ~maskline);
 584:HAL_Lib/STM32H7xx_HAL_Driver/Src/stm32h7xx_hal_exti.c **** 
 585:HAL_Lib/STM32H7xx_HAL_Driver/Src/stm32h7xx_hal_exti.c ****     if(linepos < 16UL)
 586:HAL_Lib/STM32H7xx_HAL_Driver/Src/stm32h7xx_hal_exti.c ****     {
 587:HAL_Lib/STM32H7xx_HAL_Driver/Src/stm32h7xx_hal_exti.c ****       regaddr = (__IO uint32_t *)(&EXTI->D3PCR1L + (EXTI_CONFIG_OFFSET * offset));
 588:HAL_Lib/STM32H7xx_HAL_Driver/Src/stm32h7xx_hal_exti.c ****       pcrlinepos = 1UL << linepos;
 589:HAL_Lib/STM32H7xx_HAL_Driver/Src/stm32h7xx_hal_exti.c ****     }
 590:HAL_Lib/STM32H7xx_HAL_Driver/Src/stm32h7xx_hal_exti.c ****     else
 591:HAL_Lib/STM32H7xx_HAL_Driver/Src/stm32h7xx_hal_exti.c ****     {
 592:HAL_Lib/STM32H7xx_HAL_Driver/Src/stm32h7xx_hal_exti.c ****       regaddr = (__IO uint32_t *)(&EXTI->D3PCR1H + (EXTI_CONFIG_OFFSET * offset));
 593:HAL_Lib/STM32H7xx_HAL_Driver/Src/stm32h7xx_hal_exti.c ****       pcrlinepos = 1UL << (linepos - 16UL);
 594:HAL_Lib/STM32H7xx_HAL_Driver/Src/stm32h7xx_hal_exti.c ****     }
 595:HAL_Lib/STM32H7xx_HAL_Driver/Src/stm32h7xx_hal_exti.c **** 
 596:HAL_Lib/STM32H7xx_HAL_Driver/Src/stm32h7xx_hal_exti.c ****     /*Clear D3 PendClear source */
 597:HAL_Lib/STM32H7xx_HAL_Driver/Src/stm32h7xx_hal_exti.c ****     *regaddr &= (~(pcrlinepos * pcrlinepos * 3UL));
 598:HAL_Lib/STM32H7xx_HAL_Driver/Src/stm32h7xx_hal_exti.c ****   }
 599:HAL_Lib/STM32H7xx_HAL_Driver/Src/stm32h7xx_hal_exti.c **** 
 600:HAL_Lib/STM32H7xx_HAL_Driver/Src/stm32h7xx_hal_exti.c ****   return HAL_OK;
 855              		.loc 1 600 10 view .LVU335
 856 006c 0020     		movs	r0, #0
 857              	.LVL116:
 858              	.L46:
 601:HAL_Lib/STM32H7xx_HAL_Driver/Src/stm32h7xx_hal_exti.c **** }
 859              		.loc 1 601 1 view .LVU336
 860 006e BDE8F081 		pop	{r4, r5, r6, r7, r8, pc}
 861              	.LVL117:
 862              	.L56:
 571:HAL_Lib/STM32H7xx_HAL_Driver/Src/stm32h7xx_hal_exti.c **** 
 863              		.loc 1 571 7 is_stmt 1 view .LVU337
 573:HAL_Lib/STM32H7xx_HAL_Driver/Src/stm32h7xx_hal_exti.c ****       regval &= ~(SYSCFG_EXTICR1_EXTI0 << (SYSCFG_EXTICR1_EXTI1_Pos * (linepos & 0x03UL)));
 864              		.loc 1 573 7 view .LVU338
 573:HAL_Lib/STM32H7xx_HAL_Driver/Src/stm32h7xx_hal_exti.c ****       regval &= ~(SYSCFG_EXTICR1_EXTI0 << (SYSCFG_EXTICR1_EXTI1_Pos * (linepos & 0x03UL)));
 865              		.loc 1 573 47 is_stmt 0 view .LVU339
 866 0072 CEF38102 		ubfx	r2, lr, #2, #2
 573:HAL_Lib/STM32H7xx_HAL_Driver/Src/stm32h7xx_hal_exti.c ****       regval &= ~(SYSCFG_EXTICR1_EXTI0 << (SYSCFG_EXTICR1_EXTI1_Pos * (linepos & 0x03UL)));
 867              		.loc 1 573 14 view .LVU340
 868 0076 194F     		ldr	r7, .L58+8
 869 0078 0232     		adds	r2, r2, #2
 870 007a 57F82240 		ldr	r4, [r7, r2, lsl #2]
 871              	.LVL118:
 574:HAL_Lib/STM32H7xx_HAL_Driver/Src/stm32h7xx_hal_exti.c ****       SYSCFG->EXTICR[(linepos >> 2U) & 0x03UL] = regval;
 872              		.loc 1 574 7 is_stmt 1 view .LVU341
 574:HAL_Lib/STM32H7xx_HAL_Driver/Src/stm32h7xx_hal_exti.c ****       SYSCFG->EXTICR[(linepos >> 2U) & 0x03UL] = regval;
 873              		.loc 1 574 80 is_stmt 0 view .LVU342
 874 007e 05F00306 		and	r6, r5, #3
ARM GAS  C:\Users\huav\AppData\Local\Temp\cc2UW7ST.s 			page 29


 875              	.LVL119:
 574:HAL_Lib/STM32H7xx_HAL_Driver/Src/stm32h7xx_hal_exti.c ****       SYSCFG->EXTICR[(linepos >> 2U) & 0x03UL] = regval;
 876              		.loc 1 574 69 view .LVU343
 877 0082 4FEA8608 		lsl	r8, r6, #2
 574:HAL_Lib/STM32H7xx_HAL_Driver/Src/stm32h7xx_hal_exti.c ****       SYSCFG->EXTICR[(linepos >> 2U) & 0x03UL] = regval;
 878              		.loc 1 574 40 view .LVU344
 879 0086 0F26     		movs	r6, #15
 880 0088 06FA08F6 		lsl	r6, r6, r8
 574:HAL_Lib/STM32H7xx_HAL_Driver/Src/stm32h7xx_hal_exti.c ****       SYSCFG->EXTICR[(linepos >> 2U) & 0x03UL] = regval;
 881              		.loc 1 574 14 view .LVU345
 882 008c 24EA0604 		bic	r4, r4, r6
 883              	.LVL120:
 575:HAL_Lib/STM32H7xx_HAL_Driver/Src/stm32h7xx_hal_exti.c ****     }
 884              		.loc 1 575 7 is_stmt 1 view .LVU346
 575:HAL_Lib/STM32H7xx_HAL_Driver/Src/stm32h7xx_hal_exti.c ****     }
 885              		.loc 1 575 48 is_stmt 0 view .LVU347
 886 0090 47F82240 		str	r4, [r7, r2, lsl #2]
 887 0094 E4E7     		b	.L47
 888              	.LVL121:
 889              	.L57:
 582:HAL_Lib/STM32H7xx_HAL_Driver/Src/stm32h7xx_hal_exti.c ****     *regaddr = (*regaddr & ~maskline);
 890              		.loc 1 582 5 is_stmt 1 view .LVU348
 582:HAL_Lib/STM32H7xx_HAL_Driver/Src/stm32h7xx_hal_exti.c ****     *regaddr = (*regaddr & ~maskline);
 891              		.loc 1 582 15 is_stmt 0 view .LVU349
 892 0096 4001     		lsls	r0, r0, #5
 893              	.LVL122:
 582:HAL_Lib/STM32H7xx_HAL_Driver/Src/stm32h7xx_hal_exti.c ****     *regaddr = (*regaddr & ~maskline);
 894              		.loc 1 582 13 view .LVU350
 895 0098 1149     		ldr	r1, .L58+12
 896              	.LVL123:
 583:HAL_Lib/STM32H7xx_HAL_Driver/Src/stm32h7xx_hal_exti.c **** 
 897              		.loc 1 583 5 is_stmt 1 view .LVU351
 583:HAL_Lib/STM32H7xx_HAL_Driver/Src/stm32h7xx_hal_exti.c **** 
 898              		.loc 1 583 17 is_stmt 0 view .LVU352
 899 009a 4258     		ldr	r2, [r0, r1]
 583:HAL_Lib/STM32H7xx_HAL_Driver/Src/stm32h7xx_hal_exti.c **** 
 900              		.loc 1 583 26 view .LVU353
 901 009c 0CEA0202 		and	r2, ip, r2
 583:HAL_Lib/STM32H7xx_HAL_Driver/Src/stm32h7xx_hal_exti.c **** 
 902              		.loc 1 583 14 view .LVU354
 903 00a0 4250     		str	r2, [r0, r1]
 585:HAL_Lib/STM32H7xx_HAL_Driver/Src/stm32h7xx_hal_exti.c ****     {
 904              		.loc 1 585 5 is_stmt 1 view .LVU355
 585:HAL_Lib/STM32H7xx_HAL_Driver/Src/stm32h7xx_hal_exti.c ****     {
 905              		.loc 1 585 7 is_stmt 0 view .LVU356
 906 00a2 15F0100F 		tst	r5, #16
 907 00a6 0BD1     		bne	.L48
 587:HAL_Lib/STM32H7xx_HAL_Driver/Src/stm32h7xx_hal_exti.c ****       pcrlinepos = 1UL << linepos;
 908              		.loc 1 587 7 is_stmt 1 view .LVU357
 587:HAL_Lib/STM32H7xx_HAL_Driver/Src/stm32h7xx_hal_exti.c ****       pcrlinepos = 1UL << linepos;
 909              		.loc 1 587 15 is_stmt 0 view .LVU358
 910 00a8 0E4A     		ldr	r2, .L58+16
 911 00aa 0244     		add	r2, r2, r0
 912              	.LVL124:
 588:HAL_Lib/STM32H7xx_HAL_Driver/Src/stm32h7xx_hal_exti.c ****     }
 913              		.loc 1 588 7 is_stmt 1 view .LVU359
 914              	.L49:
ARM GAS  C:\Users\huav\AppData\Local\Temp\cc2UW7ST.s 			page 30


 597:HAL_Lib/STM32H7xx_HAL_Driver/Src/stm32h7xx_hal_exti.c ****   }
 915              		.loc 1 597 5 view .LVU360
 597:HAL_Lib/STM32H7xx_HAL_Driver/Src/stm32h7xx_hal_exti.c ****   }
 916              		.loc 1 597 14 is_stmt 0 view .LVU361
 917 00ac 1168     		ldr	r1, [r2]
 597:HAL_Lib/STM32H7xx_HAL_Driver/Src/stm32h7xx_hal_exti.c ****   }
 918              		.loc 1 597 31 view .LVU362
 919 00ae 03FB03F3 		mul	r3, r3, r3
 920              	.LVL125:
 597:HAL_Lib/STM32H7xx_HAL_Driver/Src/stm32h7xx_hal_exti.c ****   }
 921              		.loc 1 597 44 view .LVU363
 922 00b2 03EB4303 		add	r3, r3, r3, lsl #1
 597:HAL_Lib/STM32H7xx_HAL_Driver/Src/stm32h7xx_hal_exti.c ****   }
 923              		.loc 1 597 14 view .LVU364
 924 00b6 21EA0303 		bic	r3, r1, r3
 925 00ba 1360     		str	r3, [r2]
 600:HAL_Lib/STM32H7xx_HAL_Driver/Src/stm32h7xx_hal_exti.c **** }
 926              		.loc 1 600 10 view .LVU365
 927 00bc 0020     		movs	r0, #0
 928 00be D6E7     		b	.L46
 929              	.LVL126:
 930              	.L48:
 592:HAL_Lib/STM32H7xx_HAL_Driver/Src/stm32h7xx_hal_exti.c ****       pcrlinepos = 1UL << (linepos - 16UL);
 931              		.loc 1 592 7 is_stmt 1 view .LVU366
 592:HAL_Lib/STM32H7xx_HAL_Driver/Src/stm32h7xx_hal_exti.c ****       pcrlinepos = 1UL << (linepos - 16UL);
 932              		.loc 1 592 15 is_stmt 0 view .LVU367
 933 00c0 094A     		ldr	r2, .L58+20
 934 00c2 0244     		add	r2, r2, r0
 935              	.LVL127:
 593:HAL_Lib/STM32H7xx_HAL_Driver/Src/stm32h7xx_hal_exti.c ****     }
 936              		.loc 1 593 7 is_stmt 1 view .LVU368
 593:HAL_Lib/STM32H7xx_HAL_Driver/Src/stm32h7xx_hal_exti.c ****     }
 937              		.loc 1 593 36 is_stmt 0 view .LVU369
 938 00c4 AEF1100E 		sub	lr, lr, #16
 939              	.LVL128:
 593:HAL_Lib/STM32H7xx_HAL_Driver/Src/stm32h7xx_hal_exti.c ****     }
 940              		.loc 1 593 18 view .LVU370
 941 00c8 0123     		movs	r3, #1
 942              	.LVL129:
 593:HAL_Lib/STM32H7xx_HAL_Driver/Src/stm32h7xx_hal_exti.c ****     }
 943              		.loc 1 593 18 view .LVU371
 944 00ca 03FA0EF3 		lsl	r3, r3, lr
 945              	.LVL130:
 593:HAL_Lib/STM32H7xx_HAL_Driver/Src/stm32h7xx_hal_exti.c ****     }
 946              		.loc 1 593 18 view .LVU372
 947 00ce EDE7     		b	.L49
 948              	.LVL131:
 949              	.L50:
 950              	.LCFI8:
 951              		.cfi_def_cfa_offset 0
 952              		.cfi_restore 4
 953              		.cfi_restore 5
 954              		.cfi_restore 6
 955              		.cfi_restore 7
 956              		.cfi_restore 8
 957              		.cfi_restore 14
 524:HAL_Lib/STM32H7xx_HAL_Driver/Src/stm32h7xx_hal_exti.c ****   }
ARM GAS  C:\Users\huav\AppData\Local\Temp\cc2UW7ST.s 			page 31


 958              		.loc 1 524 12 view .LVU373
 959 00d0 0120     		movs	r0, #1
 960              	.LVL132:
 961              		.loc 1 601 1 view .LVU374
 962 00d2 7047     		bx	lr
 963              	.L59:
 964              		.align	2
 965              	.L58:
 966 00d4 80000058 		.word	1476395136
 967 00d8 04000058 		.word	1476395012
 968 00dc 00040058 		.word	1476396032
 969 00e0 0C000058 		.word	1476395020
 970 00e4 10000058 		.word	1476395024
 971 00e8 14000058 		.word	1476395028
 972              		.cfi_endproc
 973              	.LFE146:
 975              		.section	.text.HAL_EXTI_RegisterCallback,"ax",%progbits
 976              		.align	1
 977              		.global	HAL_EXTI_RegisterCallback
 978              		.syntax unified
 979              		.thumb
 980              		.thumb_func
 981              		.fpu fpv5-d16
 983              	HAL_EXTI_RegisterCallback:
 984              	.LVL133:
 985              	.LFB147:
 602:HAL_Lib/STM32H7xx_HAL_Driver/Src/stm32h7xx_hal_exti.c **** 
 603:HAL_Lib/STM32H7xx_HAL_Driver/Src/stm32h7xx_hal_exti.c **** 
 604:HAL_Lib/STM32H7xx_HAL_Driver/Src/stm32h7xx_hal_exti.c **** /**
 605:HAL_Lib/STM32H7xx_HAL_Driver/Src/stm32h7xx_hal_exti.c ****   * @brief  Register callback for a dedicated Exti line.
 606:HAL_Lib/STM32H7xx_HAL_Driver/Src/stm32h7xx_hal_exti.c ****   * @param  hexti Exti handle.
 607:HAL_Lib/STM32H7xx_HAL_Driver/Src/stm32h7xx_hal_exti.c ****   * @param  CallbackID User callback identifier.
 608:HAL_Lib/STM32H7xx_HAL_Driver/Src/stm32h7xx_hal_exti.c ****   *         This parameter can be one of @arg @ref EXTI_CallbackIDTypeDef values.
 609:HAL_Lib/STM32H7xx_HAL_Driver/Src/stm32h7xx_hal_exti.c ****   * @param  pPendingCbfn function pointer to be stored as callback.
 610:HAL_Lib/STM32H7xx_HAL_Driver/Src/stm32h7xx_hal_exti.c ****   * @retval HAL Status.
 611:HAL_Lib/STM32H7xx_HAL_Driver/Src/stm32h7xx_hal_exti.c ****   */
 612:HAL_Lib/STM32H7xx_HAL_Driver/Src/stm32h7xx_hal_exti.c **** HAL_StatusTypeDef HAL_EXTI_RegisterCallback(EXTI_HandleTypeDef *hexti, EXTI_CallbackIDTypeDef Callb
 613:HAL_Lib/STM32H7xx_HAL_Driver/Src/stm32h7xx_hal_exti.c **** {
 986              		.loc 1 613 1 is_stmt 1 view -0
 987              		.cfi_startproc
 988              		@ args = 0, pretend = 0, frame = 0
 989              		@ frame_needed = 0, uses_anonymous_args = 0
 990              		@ link register save eliminated.
 614:HAL_Lib/STM32H7xx_HAL_Driver/Src/stm32h7xx_hal_exti.c ****   HAL_StatusTypeDef status = HAL_OK;
 991              		.loc 1 614 3 view .LVU376
 615:HAL_Lib/STM32H7xx_HAL_Driver/Src/stm32h7xx_hal_exti.c **** 
 616:HAL_Lib/STM32H7xx_HAL_Driver/Src/stm32h7xx_hal_exti.c ****   /* Check null pointer */
 617:HAL_Lib/STM32H7xx_HAL_Driver/Src/stm32h7xx_hal_exti.c ****   if (hexti == NULL)
 992              		.loc 1 617 3 view .LVU377
 993              		.loc 1 617 6 is_stmt 0 view .LVU378
 994 0000 18B1     		cbz	r0, .L62
 618:HAL_Lib/STM32H7xx_HAL_Driver/Src/stm32h7xx_hal_exti.c ****   {
 619:HAL_Lib/STM32H7xx_HAL_Driver/Src/stm32h7xx_hal_exti.c ****     return HAL_ERROR;
 620:HAL_Lib/STM32H7xx_HAL_Driver/Src/stm32h7xx_hal_exti.c ****   }
 621:HAL_Lib/STM32H7xx_HAL_Driver/Src/stm32h7xx_hal_exti.c **** 
 622:HAL_Lib/STM32H7xx_HAL_Driver/Src/stm32h7xx_hal_exti.c ****   switch (CallbackID)
 995              		.loc 1 622 3 is_stmt 1 view .LVU379
ARM GAS  C:\Users\huav\AppData\Local\Temp\cc2UW7ST.s 			page 32


 996 0002 21B9     		cbnz	r1, .L63
 623:HAL_Lib/STM32H7xx_HAL_Driver/Src/stm32h7xx_hal_exti.c ****   {
 624:HAL_Lib/STM32H7xx_HAL_Driver/Src/stm32h7xx_hal_exti.c ****     case  HAL_EXTI_COMMON_CB_ID:
 625:HAL_Lib/STM32H7xx_HAL_Driver/Src/stm32h7xx_hal_exti.c ****       hexti->PendingCallback = pPendingCbfn;
 997              		.loc 1 625 7 view .LVU380
 998              		.loc 1 625 30 is_stmt 0 view .LVU381
 999 0004 4260     		str	r2, [r0, #4]
 626:HAL_Lib/STM32H7xx_HAL_Driver/Src/stm32h7xx_hal_exti.c ****       break;
 1000              		.loc 1 626 7 is_stmt 1 view .LVU382
 614:HAL_Lib/STM32H7xx_HAL_Driver/Src/stm32h7xx_hal_exti.c **** 
 1001              		.loc 1 614 21 is_stmt 0 view .LVU383
 1002 0006 0846     		mov	r0, r1
 1003              	.LVL134:
 1004              		.loc 1 626 7 view .LVU384
 1005 0008 7047     		bx	lr
 1006              	.LVL135:
 1007              	.L62:
 619:HAL_Lib/STM32H7xx_HAL_Driver/Src/stm32h7xx_hal_exti.c ****   }
 1008              		.loc 1 619 12 view .LVU385
 1009 000a 0120     		movs	r0, #1
 1010              	.LVL136:
 619:HAL_Lib/STM32H7xx_HAL_Driver/Src/stm32h7xx_hal_exti.c ****   }
 1011              		.loc 1 619 12 view .LVU386
 1012 000c 7047     		bx	lr
 1013              	.LVL137:
 1014              	.L63:
 627:HAL_Lib/STM32H7xx_HAL_Driver/Src/stm32h7xx_hal_exti.c **** 
 628:HAL_Lib/STM32H7xx_HAL_Driver/Src/stm32h7xx_hal_exti.c ****     default:
 629:HAL_Lib/STM32H7xx_HAL_Driver/Src/stm32h7xx_hal_exti.c ****       status = HAL_ERROR;
 1015              		.loc 1 629 14 view .LVU387
 1016 000e 0120     		movs	r0, #1
 1017              	.LVL138:
 630:HAL_Lib/STM32H7xx_HAL_Driver/Src/stm32h7xx_hal_exti.c ****       break;
 631:HAL_Lib/STM32H7xx_HAL_Driver/Src/stm32h7xx_hal_exti.c ****   }
 632:HAL_Lib/STM32H7xx_HAL_Driver/Src/stm32h7xx_hal_exti.c **** 
 633:HAL_Lib/STM32H7xx_HAL_Driver/Src/stm32h7xx_hal_exti.c ****   return status;
 634:HAL_Lib/STM32H7xx_HAL_Driver/Src/stm32h7xx_hal_exti.c **** }
 1018              		.loc 1 634 1 view .LVU388
 1019 0010 7047     		bx	lr
 1020              		.cfi_endproc
 1021              	.LFE147:
 1023              		.section	.text.HAL_EXTI_GetHandle,"ax",%progbits
 1024              		.align	1
 1025              		.global	HAL_EXTI_GetHandle
 1026              		.syntax unified
 1027              		.thumb
 1028              		.thumb_func
 1029              		.fpu fpv5-d16
 1031              	HAL_EXTI_GetHandle:
 1032              	.LVL139:
 1033              	.LFB148:
 635:HAL_Lib/STM32H7xx_HAL_Driver/Src/stm32h7xx_hal_exti.c **** 
 636:HAL_Lib/STM32H7xx_HAL_Driver/Src/stm32h7xx_hal_exti.c **** 
 637:HAL_Lib/STM32H7xx_HAL_Driver/Src/stm32h7xx_hal_exti.c **** /**
 638:HAL_Lib/STM32H7xx_HAL_Driver/Src/stm32h7xx_hal_exti.c ****   * @brief  Store line number as handle private field.
 639:HAL_Lib/STM32H7xx_HAL_Driver/Src/stm32h7xx_hal_exti.c ****   * @param  hexti Exti handle.
 640:HAL_Lib/STM32H7xx_HAL_Driver/Src/stm32h7xx_hal_exti.c ****   * @param  ExtiLine Exti line number.
ARM GAS  C:\Users\huav\AppData\Local\Temp\cc2UW7ST.s 			page 33


 641:HAL_Lib/STM32H7xx_HAL_Driver/Src/stm32h7xx_hal_exti.c ****   *         This parameter can be from 0 to @ref EXTI_LINE_NB.
 642:HAL_Lib/STM32H7xx_HAL_Driver/Src/stm32h7xx_hal_exti.c ****   * @retval HAL Status.
 643:HAL_Lib/STM32H7xx_HAL_Driver/Src/stm32h7xx_hal_exti.c ****   */
 644:HAL_Lib/STM32H7xx_HAL_Driver/Src/stm32h7xx_hal_exti.c **** HAL_StatusTypeDef HAL_EXTI_GetHandle(EXTI_HandleTypeDef *hexti, uint32_t ExtiLine)
 645:HAL_Lib/STM32H7xx_HAL_Driver/Src/stm32h7xx_hal_exti.c **** {
 1034              		.loc 1 645 1 is_stmt 1 view -0
 1035              		.cfi_startproc
 1036              		@ args = 0, pretend = 0, frame = 0
 1037              		@ frame_needed = 0, uses_anonymous_args = 0
 1038              		@ link register save eliminated.
 646:HAL_Lib/STM32H7xx_HAL_Driver/Src/stm32h7xx_hal_exti.c ****   /* Check the parameters */
 647:HAL_Lib/STM32H7xx_HAL_Driver/Src/stm32h7xx_hal_exti.c ****   assert_param(IS_EXTI_LINE(ExtiLine));
 1039              		.loc 1 647 3 view .LVU390
 648:HAL_Lib/STM32H7xx_HAL_Driver/Src/stm32h7xx_hal_exti.c **** 
 649:HAL_Lib/STM32H7xx_HAL_Driver/Src/stm32h7xx_hal_exti.c ****   /* Check null pointer */
 650:HAL_Lib/STM32H7xx_HAL_Driver/Src/stm32h7xx_hal_exti.c ****   if (hexti == NULL)
 1040              		.loc 1 650 3 view .LVU391
 1041              		.loc 1 650 6 is_stmt 0 view .LVU392
 1042 0000 10B1     		cbz	r0, .L66
 651:HAL_Lib/STM32H7xx_HAL_Driver/Src/stm32h7xx_hal_exti.c ****   {
 652:HAL_Lib/STM32H7xx_HAL_Driver/Src/stm32h7xx_hal_exti.c ****     return HAL_ERROR;
 653:HAL_Lib/STM32H7xx_HAL_Driver/Src/stm32h7xx_hal_exti.c ****   }
 654:HAL_Lib/STM32H7xx_HAL_Driver/Src/stm32h7xx_hal_exti.c ****   else
 655:HAL_Lib/STM32H7xx_HAL_Driver/Src/stm32h7xx_hal_exti.c ****   {
 656:HAL_Lib/STM32H7xx_HAL_Driver/Src/stm32h7xx_hal_exti.c ****     /* Store line number as handle private field */
 657:HAL_Lib/STM32H7xx_HAL_Driver/Src/stm32h7xx_hal_exti.c ****     hexti->Line = ExtiLine;
 1043              		.loc 1 657 5 is_stmt 1 view .LVU393
 1044              		.loc 1 657 17 is_stmt 0 view .LVU394
 1045 0002 0160     		str	r1, [r0]
 658:HAL_Lib/STM32H7xx_HAL_Driver/Src/stm32h7xx_hal_exti.c **** 
 659:HAL_Lib/STM32H7xx_HAL_Driver/Src/stm32h7xx_hal_exti.c ****     return HAL_OK;
 1046              		.loc 1 659 5 is_stmt 1 view .LVU395
 1047              		.loc 1 659 12 is_stmt 0 view .LVU396
 1048 0004 0020     		movs	r0, #0
 1049              	.LVL140:
 1050              		.loc 1 659 12 view .LVU397
 1051 0006 7047     		bx	lr
 1052              	.LVL141:
 1053              	.L66:
 652:HAL_Lib/STM32H7xx_HAL_Driver/Src/stm32h7xx_hal_exti.c ****   }
 1054              		.loc 1 652 12 view .LVU398
 1055 0008 0120     		movs	r0, #1
 1056              	.LVL142:
 660:HAL_Lib/STM32H7xx_HAL_Driver/Src/stm32h7xx_hal_exti.c ****   }
 661:HAL_Lib/STM32H7xx_HAL_Driver/Src/stm32h7xx_hal_exti.c **** }
 1057              		.loc 1 661 1 view .LVU399
 1058 000a 7047     		bx	lr
 1059              		.cfi_endproc
 1060              	.LFE148:
 1062              		.section	.text.HAL_EXTI_IRQHandler,"ax",%progbits
 1063              		.align	1
 1064              		.global	HAL_EXTI_IRQHandler
 1065              		.syntax unified
 1066              		.thumb
 1067              		.thumb_func
 1068              		.fpu fpv5-d16
 1070              	HAL_EXTI_IRQHandler:
ARM GAS  C:\Users\huav\AppData\Local\Temp\cc2UW7ST.s 			page 34


 1071              	.LVL143:
 1072              	.LFB149:
 662:HAL_Lib/STM32H7xx_HAL_Driver/Src/stm32h7xx_hal_exti.c **** 
 663:HAL_Lib/STM32H7xx_HAL_Driver/Src/stm32h7xx_hal_exti.c **** 
 664:HAL_Lib/STM32H7xx_HAL_Driver/Src/stm32h7xx_hal_exti.c **** /**
 665:HAL_Lib/STM32H7xx_HAL_Driver/Src/stm32h7xx_hal_exti.c ****   * @}
 666:HAL_Lib/STM32H7xx_HAL_Driver/Src/stm32h7xx_hal_exti.c ****   */
 667:HAL_Lib/STM32H7xx_HAL_Driver/Src/stm32h7xx_hal_exti.c **** 
 668:HAL_Lib/STM32H7xx_HAL_Driver/Src/stm32h7xx_hal_exti.c **** /** @addtogroup EXTI_Exported_Functions_Group2
 669:HAL_Lib/STM32H7xx_HAL_Driver/Src/stm32h7xx_hal_exti.c ****  *  @brief EXTI IO functions.
 670:HAL_Lib/STM32H7xx_HAL_Driver/Src/stm32h7xx_hal_exti.c ****  *
 671:HAL_Lib/STM32H7xx_HAL_Driver/Src/stm32h7xx_hal_exti.c **** @verbatim
 672:HAL_Lib/STM32H7xx_HAL_Driver/Src/stm32h7xx_hal_exti.c ****  ===============================================================================
 673:HAL_Lib/STM32H7xx_HAL_Driver/Src/stm32h7xx_hal_exti.c ****                        ##### IO operation functions #####
 674:HAL_Lib/STM32H7xx_HAL_Driver/Src/stm32h7xx_hal_exti.c ****  ===============================================================================
 675:HAL_Lib/STM32H7xx_HAL_Driver/Src/stm32h7xx_hal_exti.c **** 
 676:HAL_Lib/STM32H7xx_HAL_Driver/Src/stm32h7xx_hal_exti.c **** @endverbatim
 677:HAL_Lib/STM32H7xx_HAL_Driver/Src/stm32h7xx_hal_exti.c ****   * @{
 678:HAL_Lib/STM32H7xx_HAL_Driver/Src/stm32h7xx_hal_exti.c ****   */
 679:HAL_Lib/STM32H7xx_HAL_Driver/Src/stm32h7xx_hal_exti.c **** 
 680:HAL_Lib/STM32H7xx_HAL_Driver/Src/stm32h7xx_hal_exti.c **** /**
 681:HAL_Lib/STM32H7xx_HAL_Driver/Src/stm32h7xx_hal_exti.c ****   * @brief  Handle EXTI interrupt request.
 682:HAL_Lib/STM32H7xx_HAL_Driver/Src/stm32h7xx_hal_exti.c ****   * @param  hexti Exti handle.
 683:HAL_Lib/STM32H7xx_HAL_Driver/Src/stm32h7xx_hal_exti.c ****   * @retval none.
 684:HAL_Lib/STM32H7xx_HAL_Driver/Src/stm32h7xx_hal_exti.c ****   */
 685:HAL_Lib/STM32H7xx_HAL_Driver/Src/stm32h7xx_hal_exti.c **** void HAL_EXTI_IRQHandler(EXTI_HandleTypeDef *hexti)
 686:HAL_Lib/STM32H7xx_HAL_Driver/Src/stm32h7xx_hal_exti.c **** {
 1073              		.loc 1 686 1 is_stmt 1 view -0
 1074              		.cfi_startproc
 1075              		@ args = 0, pretend = 0, frame = 0
 1076              		@ frame_needed = 0, uses_anonymous_args = 0
 1077              		.loc 1 686 1 is_stmt 0 view .LVU401
 1078 0000 10B5     		push	{r4, lr}
 1079              	.LCFI9:
 1080              		.cfi_def_cfa_offset 8
 1081              		.cfi_offset 4, -8
 1082              		.cfi_offset 14, -4
 687:HAL_Lib/STM32H7xx_HAL_Driver/Src/stm32h7xx_hal_exti.c ****   __IO uint32_t *regaddr;
 1083              		.loc 1 687 3 is_stmt 1 view .LVU402
 688:HAL_Lib/STM32H7xx_HAL_Driver/Src/stm32h7xx_hal_exti.c ****   uint32_t regval;
 1084              		.loc 1 688 3 view .LVU403
 689:HAL_Lib/STM32H7xx_HAL_Driver/Src/stm32h7xx_hal_exti.c ****   uint32_t maskline;
 1085              		.loc 1 689 3 view .LVU404
 690:HAL_Lib/STM32H7xx_HAL_Driver/Src/stm32h7xx_hal_exti.c ****   uint32_t offset;
 1086              		.loc 1 690 3 view .LVU405
 691:HAL_Lib/STM32H7xx_HAL_Driver/Src/stm32h7xx_hal_exti.c **** 
 692:HAL_Lib/STM32H7xx_HAL_Driver/Src/stm32h7xx_hal_exti.c ****   /* Compute line register offset and line mask */
 693:HAL_Lib/STM32H7xx_HAL_Driver/Src/stm32h7xx_hal_exti.c ****   offset = ((hexti->Line & EXTI_REG_MASK) >> EXTI_REG_SHIFT);
 1087              		.loc 1 693 3 view .LVU406
 1088              		.loc 1 693 19 is_stmt 0 view .LVU407
 1089 0002 0368     		ldr	r3, [r0]
 1090              		.loc 1 693 10 view .LVU408
 1091 0004 C3F30142 		ubfx	r2, r3, #16, #2
 1092              	.LVL144:
 694:HAL_Lib/STM32H7xx_HAL_Driver/Src/stm32h7xx_hal_exti.c ****   maskline = (1UL << (hexti->Line & EXTI_PIN_MASK));
 1093              		.loc 1 694 3 is_stmt 1 view .LVU409
 1094              		.loc 1 694 35 is_stmt 0 view .LVU410
ARM GAS  C:\Users\huav\AppData\Local\Temp\cc2UW7ST.s 			page 35


 1095 0008 03F01F03 		and	r3, r3, #31
 1096              		.loc 1 694 12 view .LVU411
 1097 000c 0121     		movs	r1, #1
 1098 000e 01FA03F3 		lsl	r3, r1, r3
 1099              	.LVL145:
 695:HAL_Lib/STM32H7xx_HAL_Driver/Src/stm32h7xx_hal_exti.c **** 
 696:HAL_Lib/STM32H7xx_HAL_Driver/Src/stm32h7xx_hal_exti.c **** #if defined(DUAL_CORE)
 697:HAL_Lib/STM32H7xx_HAL_Driver/Src/stm32h7xx_hal_exti.c ****   if (HAL_GetCurrentCPUID() == CM7_CPUID)
 698:HAL_Lib/STM32H7xx_HAL_Driver/Src/stm32h7xx_hal_exti.c ****   {
 699:HAL_Lib/STM32H7xx_HAL_Driver/Src/stm32h7xx_hal_exti.c ****     /* Get pending register address */
 700:HAL_Lib/STM32H7xx_HAL_Driver/Src/stm32h7xx_hal_exti.c ****     regaddr = (__IO uint32_t *)(&EXTI->PR1 + (EXTI_MODE_OFFSET * offset));
 701:HAL_Lib/STM32H7xx_HAL_Driver/Src/stm32h7xx_hal_exti.c ****   }
 702:HAL_Lib/STM32H7xx_HAL_Driver/Src/stm32h7xx_hal_exti.c ****   else /* Cortex-M4*/
 703:HAL_Lib/STM32H7xx_HAL_Driver/Src/stm32h7xx_hal_exti.c ****   {
 704:HAL_Lib/STM32H7xx_HAL_Driver/Src/stm32h7xx_hal_exti.c ****     /* Get pending register address */
 705:HAL_Lib/STM32H7xx_HAL_Driver/Src/stm32h7xx_hal_exti.c ****     regaddr = (__IO uint32_t *)(&EXTI->C2PR1 + (EXTI_MODE_OFFSET * offset));
 706:HAL_Lib/STM32H7xx_HAL_Driver/Src/stm32h7xx_hal_exti.c ****   }
 707:HAL_Lib/STM32H7xx_HAL_Driver/Src/stm32h7xx_hal_exti.c **** #else
 708:HAL_Lib/STM32H7xx_HAL_Driver/Src/stm32h7xx_hal_exti.c ****   regaddr = (__IO uint32_t *)(&EXTI->PR1 + (EXTI_MODE_OFFSET * offset));
 1100              		.loc 1 708 3 is_stmt 1 view .LVU412
 1101              		.loc 1 708 13 is_stmt 0 view .LVU413
 1102 0012 1201     		lsls	r2, r2, #4
 1103              	.LVL146:
 1104              		.loc 1 708 11 view .LVU414
 1105 0014 0449     		ldr	r1, .L70
 1106              	.LVL147:
 709:HAL_Lib/STM32H7xx_HAL_Driver/Src/stm32h7xx_hal_exti.c **** #endif /* DUAL_CORE */
 710:HAL_Lib/STM32H7xx_HAL_Driver/Src/stm32h7xx_hal_exti.c **** 
 711:HAL_Lib/STM32H7xx_HAL_Driver/Src/stm32h7xx_hal_exti.c ****   /* Get pending bit  */
 712:HAL_Lib/STM32H7xx_HAL_Driver/Src/stm32h7xx_hal_exti.c ****   regval = (*regaddr & maskline);
 1107              		.loc 1 712 3 is_stmt 1 view .LVU415
 1108              		.loc 1 712 13 is_stmt 0 view .LVU416
 1109 0016 5458     		ldr	r4, [r2, r1]
 1110              	.LVL148:
 713:HAL_Lib/STM32H7xx_HAL_Driver/Src/stm32h7xx_hal_exti.c **** 
 714:HAL_Lib/STM32H7xx_HAL_Driver/Src/stm32h7xx_hal_exti.c ****   if (regval != 0x00U)
 1111              		.loc 1 714 3 is_stmt 1 view .LVU417
 1112              		.loc 1 714 6 is_stmt 0 view .LVU418
 1113 0018 1C42     		tst	r4, r3
 1114 001a 03D0     		beq	.L67
 715:HAL_Lib/STM32H7xx_HAL_Driver/Src/stm32h7xx_hal_exti.c ****   {
 716:HAL_Lib/STM32H7xx_HAL_Driver/Src/stm32h7xx_hal_exti.c ****     /* Clear pending bit */
 717:HAL_Lib/STM32H7xx_HAL_Driver/Src/stm32h7xx_hal_exti.c ****     *regaddr = maskline;
 1115              		.loc 1 717 5 is_stmt 1 view .LVU419
 1116              		.loc 1 717 14 is_stmt 0 view .LVU420
 1117 001c 5350     		str	r3, [r2, r1]
 1118              	.LVL149:
 718:HAL_Lib/STM32H7xx_HAL_Driver/Src/stm32h7xx_hal_exti.c **** 
 719:HAL_Lib/STM32H7xx_HAL_Driver/Src/stm32h7xx_hal_exti.c ****     /* Call callback */
 720:HAL_Lib/STM32H7xx_HAL_Driver/Src/stm32h7xx_hal_exti.c ****     if (hexti->PendingCallback != NULL)
 1119              		.loc 1 720 5 is_stmt 1 view .LVU421
 1120              		.loc 1 720 14 is_stmt 0 view .LVU422
 1121 001e 4368     		ldr	r3, [r0, #4]
 1122              	.LVL150:
 1123              		.loc 1 720 8 view .LVU423
 1124 0020 03B1     		cbz	r3, .L67
 721:HAL_Lib/STM32H7xx_HAL_Driver/Src/stm32h7xx_hal_exti.c ****     {
ARM GAS  C:\Users\huav\AppData\Local\Temp\cc2UW7ST.s 			page 36


 722:HAL_Lib/STM32H7xx_HAL_Driver/Src/stm32h7xx_hal_exti.c ****       hexti->PendingCallback();
 1125              		.loc 1 722 7 is_stmt 1 view .LVU424
 1126 0022 9847     		blx	r3
 1127              	.LVL151:
 1128              	.L67:
 723:HAL_Lib/STM32H7xx_HAL_Driver/Src/stm32h7xx_hal_exti.c ****     }
 724:HAL_Lib/STM32H7xx_HAL_Driver/Src/stm32h7xx_hal_exti.c ****   }
 725:HAL_Lib/STM32H7xx_HAL_Driver/Src/stm32h7xx_hal_exti.c **** }
 1129              		.loc 1 725 1 is_stmt 0 view .LVU425
 1130 0024 10BD     		pop	{r4, pc}
 1131              	.L71:
 1132              		.loc 1 725 1 view .LVU426
 1133 0026 00BF     		.align	2
 1134              	.L70:
 1135 0028 88000058 		.word	1476395144
 1136              		.cfi_endproc
 1137              	.LFE149:
 1139              		.section	.text.HAL_EXTI_GetPending,"ax",%progbits
 1140              		.align	1
 1141              		.global	HAL_EXTI_GetPending
 1142              		.syntax unified
 1143              		.thumb
 1144              		.thumb_func
 1145              		.fpu fpv5-d16
 1147              	HAL_EXTI_GetPending:
 1148              	.LVL152:
 1149              	.LFB150:
 726:HAL_Lib/STM32H7xx_HAL_Driver/Src/stm32h7xx_hal_exti.c **** 
 727:HAL_Lib/STM32H7xx_HAL_Driver/Src/stm32h7xx_hal_exti.c **** 
 728:HAL_Lib/STM32H7xx_HAL_Driver/Src/stm32h7xx_hal_exti.c **** /**
 729:HAL_Lib/STM32H7xx_HAL_Driver/Src/stm32h7xx_hal_exti.c ****   * @brief  Get interrupt pending bit of a dedicated line.
 730:HAL_Lib/STM32H7xx_HAL_Driver/Src/stm32h7xx_hal_exti.c ****   * @param  hexti Exti handle.
 731:HAL_Lib/STM32H7xx_HAL_Driver/Src/stm32h7xx_hal_exti.c ****   * @param  Edge Specify which pending edge as to be checked.
 732:HAL_Lib/STM32H7xx_HAL_Driver/Src/stm32h7xx_hal_exti.c ****   *         This parameter can be one of the following values:
 733:HAL_Lib/STM32H7xx_HAL_Driver/Src/stm32h7xx_hal_exti.c ****   *           @arg @ref EXTI_TRIGGER_RISING_FALLING
 734:HAL_Lib/STM32H7xx_HAL_Driver/Src/stm32h7xx_hal_exti.c ****   *         This parameter is kept for compatibility with other series.
 735:HAL_Lib/STM32H7xx_HAL_Driver/Src/stm32h7xx_hal_exti.c ****   * @retval 1 if interrupt is pending else 0.
 736:HAL_Lib/STM32H7xx_HAL_Driver/Src/stm32h7xx_hal_exti.c ****   */
 737:HAL_Lib/STM32H7xx_HAL_Driver/Src/stm32h7xx_hal_exti.c **** uint32_t HAL_EXTI_GetPending(EXTI_HandleTypeDef *hexti, uint32_t Edge)
 738:HAL_Lib/STM32H7xx_HAL_Driver/Src/stm32h7xx_hal_exti.c **** {
 1150              		.loc 1 738 1 is_stmt 1 view -0
 1151              		.cfi_startproc
 1152              		@ args = 0, pretend = 0, frame = 0
 1153              		@ frame_needed = 0, uses_anonymous_args = 0
 1154              		@ link register save eliminated.
 739:HAL_Lib/STM32H7xx_HAL_Driver/Src/stm32h7xx_hal_exti.c ****   __IO uint32_t *regaddr;
 1155              		.loc 1 739 3 view .LVU428
 740:HAL_Lib/STM32H7xx_HAL_Driver/Src/stm32h7xx_hal_exti.c ****   uint32_t regval;
 1156              		.loc 1 740 3 view .LVU429
 741:HAL_Lib/STM32H7xx_HAL_Driver/Src/stm32h7xx_hal_exti.c ****   uint32_t linepos;
 1157              		.loc 1 741 3 view .LVU430
 742:HAL_Lib/STM32H7xx_HAL_Driver/Src/stm32h7xx_hal_exti.c ****   uint32_t maskline;
 1158              		.loc 1 742 3 view .LVU431
 743:HAL_Lib/STM32H7xx_HAL_Driver/Src/stm32h7xx_hal_exti.c ****   uint32_t offset;
 1159              		.loc 1 743 3 view .LVU432
 744:HAL_Lib/STM32H7xx_HAL_Driver/Src/stm32h7xx_hal_exti.c **** 
 745:HAL_Lib/STM32H7xx_HAL_Driver/Src/stm32h7xx_hal_exti.c ****   /* Check parameters */
ARM GAS  C:\Users\huav\AppData\Local\Temp\cc2UW7ST.s 			page 37


 746:HAL_Lib/STM32H7xx_HAL_Driver/Src/stm32h7xx_hal_exti.c ****   assert_param(IS_EXTI_LINE(hexti->Line));
 1160              		.loc 1 746 3 view .LVU433
 747:HAL_Lib/STM32H7xx_HAL_Driver/Src/stm32h7xx_hal_exti.c ****   assert_param(IS_EXTI_CONFIG_LINE(hexti->Line));
 1161              		.loc 1 747 3 view .LVU434
 748:HAL_Lib/STM32H7xx_HAL_Driver/Src/stm32h7xx_hal_exti.c ****   assert_param(IS_EXTI_PENDING_EDGE(Edge));
 1162              		.loc 1 748 3 view .LVU435
 749:HAL_Lib/STM32H7xx_HAL_Driver/Src/stm32h7xx_hal_exti.c **** 
 750:HAL_Lib/STM32H7xx_HAL_Driver/Src/stm32h7xx_hal_exti.c ****   /* compute line register offset and line mask */
 751:HAL_Lib/STM32H7xx_HAL_Driver/Src/stm32h7xx_hal_exti.c ****   offset = ((hexti->Line & EXTI_REG_MASK) >> EXTI_REG_SHIFT);
 1163              		.loc 1 751 3 view .LVU436
 1164              		.loc 1 751 19 is_stmt 0 view .LVU437
 1165 0000 0368     		ldr	r3, [r0]
 1166              		.loc 1 751 10 view .LVU438
 1167 0002 C3F30141 		ubfx	r1, r3, #16, #2
 1168              	.LVL153:
 752:HAL_Lib/STM32H7xx_HAL_Driver/Src/stm32h7xx_hal_exti.c ****   linepos = (hexti->Line & EXTI_PIN_MASK);
 1169              		.loc 1 752 3 is_stmt 1 view .LVU439
 1170              		.loc 1 752 11 is_stmt 0 view .LVU440
 1171 0006 03F01F03 		and	r3, r3, #31
 1172              	.LVL154:
 753:HAL_Lib/STM32H7xx_HAL_Driver/Src/stm32h7xx_hal_exti.c ****   maskline = (1UL << linepos);
 1173              		.loc 1 753 3 is_stmt 1 view .LVU441
 1174              		.loc 1 753 12 is_stmt 0 view .LVU442
 1175 000a 0120     		movs	r0, #1
 1176              	.LVL155:
 1177              		.loc 1 753 12 view .LVU443
 1178 000c 00FA03F2 		lsl	r2, r0, r3
 1179              	.LVL156:
 754:HAL_Lib/STM32H7xx_HAL_Driver/Src/stm32h7xx_hal_exti.c **** 
 755:HAL_Lib/STM32H7xx_HAL_Driver/Src/stm32h7xx_hal_exti.c **** #if defined(DUAL_CORE)
 756:HAL_Lib/STM32H7xx_HAL_Driver/Src/stm32h7xx_hal_exti.c ****   if (HAL_GetCurrentCPUID() == CM7_CPUID)
 757:HAL_Lib/STM32H7xx_HAL_Driver/Src/stm32h7xx_hal_exti.c ****   {
 758:HAL_Lib/STM32H7xx_HAL_Driver/Src/stm32h7xx_hal_exti.c ****     /* Get pending register address */
 759:HAL_Lib/STM32H7xx_HAL_Driver/Src/stm32h7xx_hal_exti.c ****     regaddr = (__IO uint32_t *)(&EXTI->PR1 + (EXTI_MODE_OFFSET * offset));
 760:HAL_Lib/STM32H7xx_HAL_Driver/Src/stm32h7xx_hal_exti.c ****   }
 761:HAL_Lib/STM32H7xx_HAL_Driver/Src/stm32h7xx_hal_exti.c ****   else /* Cortex-M4 */
 762:HAL_Lib/STM32H7xx_HAL_Driver/Src/stm32h7xx_hal_exti.c ****   {
 763:HAL_Lib/STM32H7xx_HAL_Driver/Src/stm32h7xx_hal_exti.c ****     /* Get pending register address */
 764:HAL_Lib/STM32H7xx_HAL_Driver/Src/stm32h7xx_hal_exti.c ****     regaddr = (__IO uint32_t *)(&EXTI->C2PR1 + (EXTI_MODE_OFFSET * offset));
 765:HAL_Lib/STM32H7xx_HAL_Driver/Src/stm32h7xx_hal_exti.c ****   }
 766:HAL_Lib/STM32H7xx_HAL_Driver/Src/stm32h7xx_hal_exti.c **** #else
 767:HAL_Lib/STM32H7xx_HAL_Driver/Src/stm32h7xx_hal_exti.c ****   regaddr = (__IO uint32_t *)(&EXTI->PR1 + (EXTI_MODE_OFFSET * offset));
 1180              		.loc 1 767 3 is_stmt 1 view .LVU444
 1181              		.loc 1 767 13 is_stmt 0 view .LVU445
 1182 0010 0901     		lsls	r1, r1, #4
 1183              	.LVL157:
 1184              		.loc 1 767 11 view .LVU446
 1185 0012 0248     		ldr	r0, .L73
 1186              	.LVL158:
 768:HAL_Lib/STM32H7xx_HAL_Driver/Src/stm32h7xx_hal_exti.c **** #endif /* DUAL_CORE */
 769:HAL_Lib/STM32H7xx_HAL_Driver/Src/stm32h7xx_hal_exti.c **** 
 770:HAL_Lib/STM32H7xx_HAL_Driver/Src/stm32h7xx_hal_exti.c ****   /* return 1 if bit is set else 0 */
 771:HAL_Lib/STM32H7xx_HAL_Driver/Src/stm32h7xx_hal_exti.c ****   regval = ((*regaddr & maskline) >> linepos);
 1187              		.loc 1 771 3 is_stmt 1 view .LVU447
 1188              		.loc 1 771 14 is_stmt 0 view .LVU448
 1189 0014 0858     		ldr	r0, [r1, r0]
 1190              	.LVL159:
ARM GAS  C:\Users\huav\AppData\Local\Temp\cc2UW7ST.s 			page 38


 1191              		.loc 1 771 23 view .LVU449
 1192 0016 1040     		ands	r0, r0, r2
 1193              	.LVL160:
 772:HAL_Lib/STM32H7xx_HAL_Driver/Src/stm32h7xx_hal_exti.c ****   return regval;
 1194              		.loc 1 772 3 is_stmt 1 view .LVU450
 773:HAL_Lib/STM32H7xx_HAL_Driver/Src/stm32h7xx_hal_exti.c **** }
 1195              		.loc 1 773 1 is_stmt 0 view .LVU451
 1196 0018 D840     		lsrs	r0, r0, r3
 1197              	.LVL161:
 1198              		.loc 1 773 1 view .LVU452
 1199 001a 7047     		bx	lr
 1200              	.L74:
 1201              		.align	2
 1202              	.L73:
 1203 001c 88000058 		.word	1476395144
 1204              		.cfi_endproc
 1205              	.LFE150:
 1207              		.section	.text.HAL_EXTI_ClearPending,"ax",%progbits
 1208              		.align	1
 1209              		.global	HAL_EXTI_ClearPending
 1210              		.syntax unified
 1211              		.thumb
 1212              		.thumb_func
 1213              		.fpu fpv5-d16
 1215              	HAL_EXTI_ClearPending:
 1216              	.LVL162:
 1217              	.LFB151:
 774:HAL_Lib/STM32H7xx_HAL_Driver/Src/stm32h7xx_hal_exti.c **** 
 775:HAL_Lib/STM32H7xx_HAL_Driver/Src/stm32h7xx_hal_exti.c **** 
 776:HAL_Lib/STM32H7xx_HAL_Driver/Src/stm32h7xx_hal_exti.c **** /**
 777:HAL_Lib/STM32H7xx_HAL_Driver/Src/stm32h7xx_hal_exti.c ****   * @brief  Clear interrupt pending bit of a dedicated line.
 778:HAL_Lib/STM32H7xx_HAL_Driver/Src/stm32h7xx_hal_exti.c ****   * @param  hexti Exti handle.
 779:HAL_Lib/STM32H7xx_HAL_Driver/Src/stm32h7xx_hal_exti.c ****   * @param  Edge Specify which pending edge as to be clear.
 780:HAL_Lib/STM32H7xx_HAL_Driver/Src/stm32h7xx_hal_exti.c ****   *         This parameter can be one of the following values:
 781:HAL_Lib/STM32H7xx_HAL_Driver/Src/stm32h7xx_hal_exti.c ****   *           @arg @ref EXTI_TRIGGER_RISING_FALLING
 782:HAL_Lib/STM32H7xx_HAL_Driver/Src/stm32h7xx_hal_exti.c ****   *         This parameter is kept for compatibility with other series.
 783:HAL_Lib/STM32H7xx_HAL_Driver/Src/stm32h7xx_hal_exti.c ****   * @retval None.
 784:HAL_Lib/STM32H7xx_HAL_Driver/Src/stm32h7xx_hal_exti.c ****   */
 785:HAL_Lib/STM32H7xx_HAL_Driver/Src/stm32h7xx_hal_exti.c **** void HAL_EXTI_ClearPending(EXTI_HandleTypeDef *hexti, uint32_t Edge)
 786:HAL_Lib/STM32H7xx_HAL_Driver/Src/stm32h7xx_hal_exti.c **** {
 1218              		.loc 1 786 1 is_stmt 1 view -0
 1219              		.cfi_startproc
 1220              		@ args = 0, pretend = 0, frame = 0
 1221              		@ frame_needed = 0, uses_anonymous_args = 0
 1222              		@ link register save eliminated.
 787:HAL_Lib/STM32H7xx_HAL_Driver/Src/stm32h7xx_hal_exti.c ****   __IO uint32_t *regaddr;
 1223              		.loc 1 787 3 view .LVU454
 788:HAL_Lib/STM32H7xx_HAL_Driver/Src/stm32h7xx_hal_exti.c ****   uint32_t maskline;
 1224              		.loc 1 788 3 view .LVU455
 789:HAL_Lib/STM32H7xx_HAL_Driver/Src/stm32h7xx_hal_exti.c ****   uint32_t offset;
 1225              		.loc 1 789 3 view .LVU456
 790:HAL_Lib/STM32H7xx_HAL_Driver/Src/stm32h7xx_hal_exti.c **** 
 791:HAL_Lib/STM32H7xx_HAL_Driver/Src/stm32h7xx_hal_exti.c ****   /* Check parameters */
 792:HAL_Lib/STM32H7xx_HAL_Driver/Src/stm32h7xx_hal_exti.c ****   assert_param(IS_EXTI_LINE(hexti->Line));
 1226              		.loc 1 792 3 view .LVU457
 793:HAL_Lib/STM32H7xx_HAL_Driver/Src/stm32h7xx_hal_exti.c ****   assert_param(IS_EXTI_CONFIG_LINE(hexti->Line));
 1227              		.loc 1 793 3 view .LVU458
ARM GAS  C:\Users\huav\AppData\Local\Temp\cc2UW7ST.s 			page 39


 794:HAL_Lib/STM32H7xx_HAL_Driver/Src/stm32h7xx_hal_exti.c ****   assert_param(IS_EXTI_PENDING_EDGE(Edge));
 1228              		.loc 1 794 3 view .LVU459
 795:HAL_Lib/STM32H7xx_HAL_Driver/Src/stm32h7xx_hal_exti.c **** 
 796:HAL_Lib/STM32H7xx_HAL_Driver/Src/stm32h7xx_hal_exti.c ****   /* compute line register offset and line mask */
 797:HAL_Lib/STM32H7xx_HAL_Driver/Src/stm32h7xx_hal_exti.c ****   offset = ((hexti->Line & EXTI_REG_MASK) >> EXTI_REG_SHIFT);
 1229              		.loc 1 797 3 view .LVU460
 1230              		.loc 1 797 19 is_stmt 0 view .LVU461
 1231 0000 0368     		ldr	r3, [r0]
 1232              		.loc 1 797 10 view .LVU462
 1233 0002 C3F30142 		ubfx	r2, r3, #16, #2
 1234              	.LVL163:
 798:HAL_Lib/STM32H7xx_HAL_Driver/Src/stm32h7xx_hal_exti.c ****   maskline = (1UL << (hexti->Line & EXTI_PIN_MASK));
 1235              		.loc 1 798 3 is_stmt 1 view .LVU463
 1236              		.loc 1 798 35 is_stmt 0 view .LVU464
 1237 0006 03F01F03 		and	r3, r3, #31
 1238              		.loc 1 798 12 view .LVU465
 1239 000a 0121     		movs	r1, #1
 1240              	.LVL164:
 1241              		.loc 1 798 12 view .LVU466
 1242 000c 01FA03F3 		lsl	r3, r1, r3
 1243              	.LVL165:
 799:HAL_Lib/STM32H7xx_HAL_Driver/Src/stm32h7xx_hal_exti.c **** 
 800:HAL_Lib/STM32H7xx_HAL_Driver/Src/stm32h7xx_hal_exti.c **** #if defined(DUAL_CORE)
 801:HAL_Lib/STM32H7xx_HAL_Driver/Src/stm32h7xx_hal_exti.c ****   if (HAL_GetCurrentCPUID() == CM7_CPUID)
 802:HAL_Lib/STM32H7xx_HAL_Driver/Src/stm32h7xx_hal_exti.c ****   {
 803:HAL_Lib/STM32H7xx_HAL_Driver/Src/stm32h7xx_hal_exti.c ****     /* Get pending register address */
 804:HAL_Lib/STM32H7xx_HAL_Driver/Src/stm32h7xx_hal_exti.c ****     regaddr = (__IO uint32_t *)(&EXTI->PR1 + (EXTI_MODE_OFFSET * offset));
 805:HAL_Lib/STM32H7xx_HAL_Driver/Src/stm32h7xx_hal_exti.c ****   }
 806:HAL_Lib/STM32H7xx_HAL_Driver/Src/stm32h7xx_hal_exti.c ****   else /* Cortex-M4 */
 807:HAL_Lib/STM32H7xx_HAL_Driver/Src/stm32h7xx_hal_exti.c ****   {
 808:HAL_Lib/STM32H7xx_HAL_Driver/Src/stm32h7xx_hal_exti.c ****     /* Get pending register address */
 809:HAL_Lib/STM32H7xx_HAL_Driver/Src/stm32h7xx_hal_exti.c ****     regaddr = (__IO uint32_t *)(&EXTI->C2PR1 + (EXTI_MODE_OFFSET * offset));
 810:HAL_Lib/STM32H7xx_HAL_Driver/Src/stm32h7xx_hal_exti.c ****   }
 811:HAL_Lib/STM32H7xx_HAL_Driver/Src/stm32h7xx_hal_exti.c **** #else
 812:HAL_Lib/STM32H7xx_HAL_Driver/Src/stm32h7xx_hal_exti.c ****   regaddr = (__IO uint32_t *)(&EXTI->PR1 + (EXTI_MODE_OFFSET * offset));
 1244              		.loc 1 812 3 is_stmt 1 view .LVU467
 1245              		.loc 1 812 13 is_stmt 0 view .LVU468
 1246 0010 1201     		lsls	r2, r2, #4
 1247              	.LVL166:
 1248              		.loc 1 812 11 view .LVU469
 1249 0012 0149     		ldr	r1, .L76
 1250              	.LVL167:
 813:HAL_Lib/STM32H7xx_HAL_Driver/Src/stm32h7xx_hal_exti.c **** #endif /* DUAL_CORE */
 814:HAL_Lib/STM32H7xx_HAL_Driver/Src/stm32h7xx_hal_exti.c **** 
 815:HAL_Lib/STM32H7xx_HAL_Driver/Src/stm32h7xx_hal_exti.c ****   /* Clear Pending bit */
 816:HAL_Lib/STM32H7xx_HAL_Driver/Src/stm32h7xx_hal_exti.c ****   *regaddr =  maskline;
 1251              		.loc 1 816 3 is_stmt 1 view .LVU470
 1252              		.loc 1 816 12 is_stmt 0 view .LVU471
 1253 0014 5350     		str	r3, [r2, r1]
 1254              	.LVL168:
 817:HAL_Lib/STM32H7xx_HAL_Driver/Src/stm32h7xx_hal_exti.c **** }
 1255              		.loc 1 817 1 view .LVU472
 1256 0016 7047     		bx	lr
 1257              	.L77:
 1258              		.align	2
 1259              	.L76:
 1260 0018 88000058 		.word	1476395144
ARM GAS  C:\Users\huav\AppData\Local\Temp\cc2UW7ST.s 			page 40


 1261              		.cfi_endproc
 1262              	.LFE151:
 1264              		.section	.text.HAL_EXTI_GenerateSWI,"ax",%progbits
 1265              		.align	1
 1266              		.global	HAL_EXTI_GenerateSWI
 1267              		.syntax unified
 1268              		.thumb
 1269              		.thumb_func
 1270              		.fpu fpv5-d16
 1272              	HAL_EXTI_GenerateSWI:
 1273              	.LVL169:
 1274              	.LFB152:
 818:HAL_Lib/STM32H7xx_HAL_Driver/Src/stm32h7xx_hal_exti.c **** 
 819:HAL_Lib/STM32H7xx_HAL_Driver/Src/stm32h7xx_hal_exti.c **** /**
 820:HAL_Lib/STM32H7xx_HAL_Driver/Src/stm32h7xx_hal_exti.c ****   * @brief  Generate a software interrupt for a dedicated line.
 821:HAL_Lib/STM32H7xx_HAL_Driver/Src/stm32h7xx_hal_exti.c ****   * @param  hexti Exti handle.
 822:HAL_Lib/STM32H7xx_HAL_Driver/Src/stm32h7xx_hal_exti.c ****   * @retval None.
 823:HAL_Lib/STM32H7xx_HAL_Driver/Src/stm32h7xx_hal_exti.c ****   */
 824:HAL_Lib/STM32H7xx_HAL_Driver/Src/stm32h7xx_hal_exti.c **** void HAL_EXTI_GenerateSWI(EXTI_HandleTypeDef *hexti)
 825:HAL_Lib/STM32H7xx_HAL_Driver/Src/stm32h7xx_hal_exti.c **** {
 1275              		.loc 1 825 1 is_stmt 1 view -0
 1276              		.cfi_startproc
 1277              		@ args = 0, pretend = 0, frame = 0
 1278              		@ frame_needed = 0, uses_anonymous_args = 0
 1279              		@ link register save eliminated.
 826:HAL_Lib/STM32H7xx_HAL_Driver/Src/stm32h7xx_hal_exti.c ****   __IO uint32_t *regaddr;
 1280              		.loc 1 826 3 view .LVU474
 827:HAL_Lib/STM32H7xx_HAL_Driver/Src/stm32h7xx_hal_exti.c ****   uint32_t maskline;
 1281              		.loc 1 827 3 view .LVU475
 828:HAL_Lib/STM32H7xx_HAL_Driver/Src/stm32h7xx_hal_exti.c ****   uint32_t offset;
 1282              		.loc 1 828 3 view .LVU476
 829:HAL_Lib/STM32H7xx_HAL_Driver/Src/stm32h7xx_hal_exti.c **** 
 830:HAL_Lib/STM32H7xx_HAL_Driver/Src/stm32h7xx_hal_exti.c ****   /* Check parameters */
 831:HAL_Lib/STM32H7xx_HAL_Driver/Src/stm32h7xx_hal_exti.c ****   assert_param(IS_EXTI_LINE(hexti->Line));
 1283              		.loc 1 831 3 view .LVU477
 832:HAL_Lib/STM32H7xx_HAL_Driver/Src/stm32h7xx_hal_exti.c ****   assert_param(IS_EXTI_CONFIG_LINE(hexti->Line));
 1284              		.loc 1 832 3 view .LVU478
 833:HAL_Lib/STM32H7xx_HAL_Driver/Src/stm32h7xx_hal_exti.c **** 
 834:HAL_Lib/STM32H7xx_HAL_Driver/Src/stm32h7xx_hal_exti.c ****   /* compute line register offset and line mask */
 835:HAL_Lib/STM32H7xx_HAL_Driver/Src/stm32h7xx_hal_exti.c ****   offset = ((hexti->Line & EXTI_REG_MASK) >> EXTI_REG_SHIFT);
 1285              		.loc 1 835 3 view .LVU479
 1286              		.loc 1 835 19 is_stmt 0 view .LVU480
 1287 0000 0368     		ldr	r3, [r0]
 1288              		.loc 1 835 10 view .LVU481
 1289 0002 C3F30142 		ubfx	r2, r3, #16, #2
 1290              	.LVL170:
 836:HAL_Lib/STM32H7xx_HAL_Driver/Src/stm32h7xx_hal_exti.c ****   maskline = (1UL << (hexti->Line & EXTI_PIN_MASK));
 1291              		.loc 1 836 3 is_stmt 1 view .LVU482
 1292              		.loc 1 836 35 is_stmt 0 view .LVU483
 1293 0006 03F01F03 		and	r3, r3, #31
 1294              		.loc 1 836 12 view .LVU484
 1295 000a 0121     		movs	r1, #1
 1296 000c 01FA03F3 		lsl	r3, r1, r3
 1297              	.LVL171:
 837:HAL_Lib/STM32H7xx_HAL_Driver/Src/stm32h7xx_hal_exti.c **** 
 838:HAL_Lib/STM32H7xx_HAL_Driver/Src/stm32h7xx_hal_exti.c ****   regaddr = (__IO uint32_t *)(&EXTI->SWIER1 + (EXTI_CONFIG_OFFSET * offset));
 1298              		.loc 1 838 3 is_stmt 1 view .LVU485
ARM GAS  C:\Users\huav\AppData\Local\Temp\cc2UW7ST.s 			page 41


 1299              		.loc 1 838 13 is_stmt 0 view .LVU486
 1300 0010 5201     		lsls	r2, r2, #5
 1301              	.LVL172:
 1302              		.loc 1 838 11 view .LVU487
 1303 0012 0149     		ldr	r1, .L79
 1304              	.LVL173:
 839:HAL_Lib/STM32H7xx_HAL_Driver/Src/stm32h7xx_hal_exti.c ****   *regaddr = maskline;
 1305              		.loc 1 839 3 is_stmt 1 view .LVU488
 1306              		.loc 1 839 12 is_stmt 0 view .LVU489
 1307 0014 5350     		str	r3, [r2, r1]
 1308              	.LVL174:
 840:HAL_Lib/STM32H7xx_HAL_Driver/Src/stm32h7xx_hal_exti.c **** }
 1309              		.loc 1 840 1 view .LVU490
 1310 0016 7047     		bx	lr
 1311              	.L80:
 1312              		.align	2
 1313              	.L79:
 1314 0018 08000058 		.word	1476395016
 1315              		.cfi_endproc
 1316              	.LFE152:
 1318              		.text
 1319              	.Letext0:
 1320              		.file 2 "c:\\program files (x86)\\gnu arm embedded toolchain\\10 2020-q4-major\\arm-none-eabi\\inc
 1321              		.file 3 "c:\\program files (x86)\\gnu arm embedded toolchain\\10 2020-q4-major\\arm-none-eabi\\inc
 1322              		.file 4 "HAL_Lib/CMSIS/Device/ST/STM32H7xx/Include/stm32h743xx.h"
 1323              		.file 5 "HAL_Lib/STM32H7xx_HAL_Driver/Inc/stm32h7xx_hal_def.h"
 1324              		.file 6 "HAL_Lib/STM32H7xx_HAL_Driver/Inc/stm32h7xx_hal_exti.h"
ARM GAS  C:\Users\huav\AppData\Local\Temp\cc2UW7ST.s 			page 42


DEFINED SYMBOLS
                            *ABS*:00000000 stm32h7xx_hal_exti.c
C:\Users\huav\AppData\Local\Temp\cc2UW7ST.s:17     .text.HAL_EXTI_SetConfigLine:00000000 $t
C:\Users\huav\AppData\Local\Temp\cc2UW7ST.s:25     .text.HAL_EXTI_SetConfigLine:00000000 HAL_EXTI_SetConfigLine
C:\Users\huav\AppData\Local\Temp\cc2UW7ST.s:386    .text.HAL_EXTI_SetConfigLine:00000128 $d
C:\Users\huav\AppData\Local\Temp\cc2UW7ST.s:397    .text.HAL_EXTI_GetConfigLine:00000000 $t
C:\Users\huav\AppData\Local\Temp\cc2UW7ST.s:404    .text.HAL_EXTI_GetConfigLine:00000000 HAL_EXTI_GetConfigLine
C:\Users\huav\AppData\Local\Temp\cc2UW7ST.s:706    .text.HAL_EXTI_GetConfigLine:000000f0 $d
C:\Users\huav\AppData\Local\Temp\cc2UW7ST.s:717    .text.HAL_EXTI_ClearConfigLine:00000000 $t
C:\Users\huav\AppData\Local\Temp\cc2UW7ST.s:724    .text.HAL_EXTI_ClearConfigLine:00000000 HAL_EXTI_ClearConfigLine
C:\Users\huav\AppData\Local\Temp\cc2UW7ST.s:966    .text.HAL_EXTI_ClearConfigLine:000000d4 $d
C:\Users\huav\AppData\Local\Temp\cc2UW7ST.s:976    .text.HAL_EXTI_RegisterCallback:00000000 $t
C:\Users\huav\AppData\Local\Temp\cc2UW7ST.s:983    .text.HAL_EXTI_RegisterCallback:00000000 HAL_EXTI_RegisterCallback
C:\Users\huav\AppData\Local\Temp\cc2UW7ST.s:1024   .text.HAL_EXTI_GetHandle:00000000 $t
C:\Users\huav\AppData\Local\Temp\cc2UW7ST.s:1031   .text.HAL_EXTI_GetHandle:00000000 HAL_EXTI_GetHandle
C:\Users\huav\AppData\Local\Temp\cc2UW7ST.s:1063   .text.HAL_EXTI_IRQHandler:00000000 $t
C:\Users\huav\AppData\Local\Temp\cc2UW7ST.s:1070   .text.HAL_EXTI_IRQHandler:00000000 HAL_EXTI_IRQHandler
C:\Users\huav\AppData\Local\Temp\cc2UW7ST.s:1135   .text.HAL_EXTI_IRQHandler:00000028 $d
C:\Users\huav\AppData\Local\Temp\cc2UW7ST.s:1140   .text.HAL_EXTI_GetPending:00000000 $t
C:\Users\huav\AppData\Local\Temp\cc2UW7ST.s:1147   .text.HAL_EXTI_GetPending:00000000 HAL_EXTI_GetPending
C:\Users\huav\AppData\Local\Temp\cc2UW7ST.s:1203   .text.HAL_EXTI_GetPending:0000001c $d
C:\Users\huav\AppData\Local\Temp\cc2UW7ST.s:1208   .text.HAL_EXTI_ClearPending:00000000 $t
C:\Users\huav\AppData\Local\Temp\cc2UW7ST.s:1215   .text.HAL_EXTI_ClearPending:00000000 HAL_EXTI_ClearPending
C:\Users\huav\AppData\Local\Temp\cc2UW7ST.s:1260   .text.HAL_EXTI_ClearPending:00000018 $d
C:\Users\huav\AppData\Local\Temp\cc2UW7ST.s:1265   .text.HAL_EXTI_GenerateSWI:00000000 $t
C:\Users\huav\AppData\Local\Temp\cc2UW7ST.s:1272   .text.HAL_EXTI_GenerateSWI:00000000 HAL_EXTI_GenerateSWI
C:\Users\huav\AppData\Local\Temp\cc2UW7ST.s:1314   .text.HAL_EXTI_GenerateSWI:00000018 $d

NO UNDEFINED SYMBOLS
