ARM GAS  C:\Users\huav\AppData\Local\Temp\ccAjt8Jj.s 			page 1


   1              		.cpu cortex-m7
   2              		.eabi_attribute 28, 1
   3              		.eabi_attribute 20, 1
   4              		.eabi_attribute 21, 1
   5              		.eabi_attribute 23, 3
   6              		.eabi_attribute 24, 1
   7              		.eabi_attribute 25, 1
   8              		.eabi_attribute 26, 1
   9              		.eabi_attribute 30, 1
  10              		.eabi_attribute 34, 1
  11              		.eabi_attribute 18, 4
  12              		.file	"stm32h7xx_hal_rcc.c"
  13              		.text
  14              	.Ltext0:
  15              		.cfi_sections	.debug_frame
  16              		.section	.text.HAL_RCC_DeInit,"ax",%progbits
  17              		.align	1
  18              		.global	HAL_RCC_DeInit
  19              		.arch armv7e-m
  20              		.syntax unified
  21              		.thumb
  22              		.thumb_func
  23              		.fpu fpv5-d16
  25              	HAL_RCC_DeInit:
  26              	.LFB144:
  27              		.file 1 "HAL_Lib/STM32H7xx_HAL_Driver/Src/stm32h7xx_hal_rcc.c"
   1:HAL_Lib/STM32H7xx_HAL_Driver/Src/stm32h7xx_hal_rcc.c **** /**
   2:HAL_Lib/STM32H7xx_HAL_Driver/Src/stm32h7xx_hal_rcc.c ****   ******************************************************************************
   3:HAL_Lib/STM32H7xx_HAL_Driver/Src/stm32h7xx_hal_rcc.c ****   * @file    stm32h7xx_hal_rcc.c
   4:HAL_Lib/STM32H7xx_HAL_Driver/Src/stm32h7xx_hal_rcc.c ****   * @author  MCD Application Team
   5:HAL_Lib/STM32H7xx_HAL_Driver/Src/stm32h7xx_hal_rcc.c ****   * @brief   RCC HAL module driver.
   6:HAL_Lib/STM32H7xx_HAL_Driver/Src/stm32h7xx_hal_rcc.c ****   *          This file provides firmware functions to manage the following
   7:HAL_Lib/STM32H7xx_HAL_Driver/Src/stm32h7xx_hal_rcc.c ****   *          functionalities of the Reset and Clock Control (RCC) peripheral:
   8:HAL_Lib/STM32H7xx_HAL_Driver/Src/stm32h7xx_hal_rcc.c ****   *           + Initialization and de-initialization functions
   9:HAL_Lib/STM32H7xx_HAL_Driver/Src/stm32h7xx_hal_rcc.c ****   *           + Peripheral Control functions
  10:HAL_Lib/STM32H7xx_HAL_Driver/Src/stm32h7xx_hal_rcc.c ****   *
  11:HAL_Lib/STM32H7xx_HAL_Driver/Src/stm32h7xx_hal_rcc.c ****   @verbatim
  12:HAL_Lib/STM32H7xx_HAL_Driver/Src/stm32h7xx_hal_rcc.c ****   ==============================================================================
  13:HAL_Lib/STM32H7xx_HAL_Driver/Src/stm32h7xx_hal_rcc.c ****                       ##### RCC specific features #####
  14:HAL_Lib/STM32H7xx_HAL_Driver/Src/stm32h7xx_hal_rcc.c ****   ==============================================================================
  15:HAL_Lib/STM32H7xx_HAL_Driver/Src/stm32h7xx_hal_rcc.c ****     [..]
  16:HAL_Lib/STM32H7xx_HAL_Driver/Src/stm32h7xx_hal_rcc.c ****       After reset the device is running from Internal High Speed oscillator
  17:HAL_Lib/STM32H7xx_HAL_Driver/Src/stm32h7xx_hal_rcc.c ****       (HSI 64MHz) with Flash 0 wait state,and all peripherals are off except
  18:HAL_Lib/STM32H7xx_HAL_Driver/Src/stm32h7xx_hal_rcc.c ****       internal SRAM, Flash, JTAG and PWR
  19:HAL_Lib/STM32H7xx_HAL_Driver/Src/stm32h7xx_hal_rcc.c ****       (+) There is no pre-scaler on High speed (AHB) and Low speed (APB) buses;
  20:HAL_Lib/STM32H7xx_HAL_Driver/Src/stm32h7xx_hal_rcc.c ****           all peripherals mapped on these buses are running at HSI speed.
  21:HAL_Lib/STM32H7xx_HAL_Driver/Src/stm32h7xx_hal_rcc.c ****       (+) The clock for all peripherals is switched off, except the SRAM and FLASH.
  22:HAL_Lib/STM32H7xx_HAL_Driver/Src/stm32h7xx_hal_rcc.c ****       (+) All GPIOs are in analogue mode , except the JTAG pins which
  23:HAL_Lib/STM32H7xx_HAL_Driver/Src/stm32h7xx_hal_rcc.c ****           are assigned to be used for debug purpose.
  24:HAL_Lib/STM32H7xx_HAL_Driver/Src/stm32h7xx_hal_rcc.c **** 
  25:HAL_Lib/STM32H7xx_HAL_Driver/Src/stm32h7xx_hal_rcc.c ****     [..]
  26:HAL_Lib/STM32H7xx_HAL_Driver/Src/stm32h7xx_hal_rcc.c ****       Once the device started from reset, the user application has to:
  27:HAL_Lib/STM32H7xx_HAL_Driver/Src/stm32h7xx_hal_rcc.c ****       (+) Configure the clock source to be used to drive the System clock
  28:HAL_Lib/STM32H7xx_HAL_Driver/Src/stm32h7xx_hal_rcc.c ****           (if the application needs higher frequency/performance)
  29:HAL_Lib/STM32H7xx_HAL_Driver/Src/stm32h7xx_hal_rcc.c ****       (+) Configure the System clock frequency and Flash settings
  30:HAL_Lib/STM32H7xx_HAL_Driver/Src/stm32h7xx_hal_rcc.c ****       (+) Configure the AHB and APB buses pre-scalers
  31:HAL_Lib/STM32H7xx_HAL_Driver/Src/stm32h7xx_hal_rcc.c ****       (+) Enable the clock for the peripheral(s) to be used
ARM GAS  C:\Users\huav\AppData\Local\Temp\ccAjt8Jj.s 			page 2


  32:HAL_Lib/STM32H7xx_HAL_Driver/Src/stm32h7xx_hal_rcc.c ****       (+) Configure the clock kernel source(s) for peripherals which clocks are not
  33:HAL_Lib/STM32H7xx_HAL_Driver/Src/stm32h7xx_hal_rcc.c ****           derived from the System clock through :RCC_D1CCIPR,RCC_D2CCIP1R,RCC_D2CCIP2R
  34:HAL_Lib/STM32H7xx_HAL_Driver/Src/stm32h7xx_hal_rcc.c ****           and RCC_D3CCIPR registers
  35:HAL_Lib/STM32H7xx_HAL_Driver/Src/stm32h7xx_hal_rcc.c **** 
  36:HAL_Lib/STM32H7xx_HAL_Driver/Src/stm32h7xx_hal_rcc.c ****                       ##### RCC Limitations #####
  37:HAL_Lib/STM32H7xx_HAL_Driver/Src/stm32h7xx_hal_rcc.c ****   ==============================================================================
  38:HAL_Lib/STM32H7xx_HAL_Driver/Src/stm32h7xx_hal_rcc.c ****     [..]
  39:HAL_Lib/STM32H7xx_HAL_Driver/Src/stm32h7xx_hal_rcc.c ****       A delay between an RCC peripheral clock enable and the effective peripheral
  40:HAL_Lib/STM32H7xx_HAL_Driver/Src/stm32h7xx_hal_rcc.c ****       enabling should be taken into account in order to manage the peripheral read/write
  41:HAL_Lib/STM32H7xx_HAL_Driver/Src/stm32h7xx_hal_rcc.c ****       from/to registers.
  42:HAL_Lib/STM32H7xx_HAL_Driver/Src/stm32h7xx_hal_rcc.c ****       (+) This delay depends on the peripheral mapping.
  43:HAL_Lib/STM32H7xx_HAL_Driver/Src/stm32h7xx_hal_rcc.c ****       (+) If peripheral is mapped on AHB: the delay is 2 AHB clock cycle
  44:HAL_Lib/STM32H7xx_HAL_Driver/Src/stm32h7xx_hal_rcc.c ****           after the clock enable bit is set on the hardware register
  45:HAL_Lib/STM32H7xx_HAL_Driver/Src/stm32h7xx_hal_rcc.c ****       (+) If peripheral is mapped on APB: the delay is 2 APB clock cycle
  46:HAL_Lib/STM32H7xx_HAL_Driver/Src/stm32h7xx_hal_rcc.c ****           after the clock enable bit is set on the hardware register
  47:HAL_Lib/STM32H7xx_HAL_Driver/Src/stm32h7xx_hal_rcc.c **** 
  48:HAL_Lib/STM32H7xx_HAL_Driver/Src/stm32h7xx_hal_rcc.c ****     [..]
  49:HAL_Lib/STM32H7xx_HAL_Driver/Src/stm32h7xx_hal_rcc.c ****       Implemented Workaround:
  50:HAL_Lib/STM32H7xx_HAL_Driver/Src/stm32h7xx_hal_rcc.c ****       (+) For AHB & APB peripherals, a dummy read to the peripheral register has been
  51:HAL_Lib/STM32H7xx_HAL_Driver/Src/stm32h7xx_hal_rcc.c ****           inserted in each __HAL_RCC_PPP_CLK_ENABLE() macro.
  52:HAL_Lib/STM32H7xx_HAL_Driver/Src/stm32h7xx_hal_rcc.c **** 
  53:HAL_Lib/STM32H7xx_HAL_Driver/Src/stm32h7xx_hal_rcc.c ****   @endverbatim
  54:HAL_Lib/STM32H7xx_HAL_Driver/Src/stm32h7xx_hal_rcc.c ****  ******************************************************************************
  55:HAL_Lib/STM32H7xx_HAL_Driver/Src/stm32h7xx_hal_rcc.c ****   * @attention
  56:HAL_Lib/STM32H7xx_HAL_Driver/Src/stm32h7xx_hal_rcc.c ****   *
  57:HAL_Lib/STM32H7xx_HAL_Driver/Src/stm32h7xx_hal_rcc.c ****   * Copyright (c) 2017 STMicroelectronics.
  58:HAL_Lib/STM32H7xx_HAL_Driver/Src/stm32h7xx_hal_rcc.c ****   * All rights reserved.
  59:HAL_Lib/STM32H7xx_HAL_Driver/Src/stm32h7xx_hal_rcc.c ****   *
  60:HAL_Lib/STM32H7xx_HAL_Driver/Src/stm32h7xx_hal_rcc.c ****   * This software is licensed under terms that can be found in the LICENSE file in
  61:HAL_Lib/STM32H7xx_HAL_Driver/Src/stm32h7xx_hal_rcc.c ****   * the root directory of this software component.
  62:HAL_Lib/STM32H7xx_HAL_Driver/Src/stm32h7xx_hal_rcc.c ****   * If no LICENSE file comes with this software, it is provided AS-IS.
  63:HAL_Lib/STM32H7xx_HAL_Driver/Src/stm32h7xx_hal_rcc.c ****   ******************************************************************************
  64:HAL_Lib/STM32H7xx_HAL_Driver/Src/stm32h7xx_hal_rcc.c ****   */
  65:HAL_Lib/STM32H7xx_HAL_Driver/Src/stm32h7xx_hal_rcc.c **** 
  66:HAL_Lib/STM32H7xx_HAL_Driver/Src/stm32h7xx_hal_rcc.c **** /* Includes ------------------------------------------------------------------*/
  67:HAL_Lib/STM32H7xx_HAL_Driver/Src/stm32h7xx_hal_rcc.c **** #include "stm32h7xx_hal.h"
  68:HAL_Lib/STM32H7xx_HAL_Driver/Src/stm32h7xx_hal_rcc.c **** 
  69:HAL_Lib/STM32H7xx_HAL_Driver/Src/stm32h7xx_hal_rcc.c **** /** @addtogroup STM32H7xx_HAL_Driver
  70:HAL_Lib/STM32H7xx_HAL_Driver/Src/stm32h7xx_hal_rcc.c ****  * @{
  71:HAL_Lib/STM32H7xx_HAL_Driver/Src/stm32h7xx_hal_rcc.c ****  */
  72:HAL_Lib/STM32H7xx_HAL_Driver/Src/stm32h7xx_hal_rcc.c **** 
  73:HAL_Lib/STM32H7xx_HAL_Driver/Src/stm32h7xx_hal_rcc.c **** /** @defgroup RCC  RCC
  74:HAL_Lib/STM32H7xx_HAL_Driver/Src/stm32h7xx_hal_rcc.c ****  * @brief RCC HAL module driver
  75:HAL_Lib/STM32H7xx_HAL_Driver/Src/stm32h7xx_hal_rcc.c ****  * @{
  76:HAL_Lib/STM32H7xx_HAL_Driver/Src/stm32h7xx_hal_rcc.c ****  */
  77:HAL_Lib/STM32H7xx_HAL_Driver/Src/stm32h7xx_hal_rcc.c **** 
  78:HAL_Lib/STM32H7xx_HAL_Driver/Src/stm32h7xx_hal_rcc.c **** #ifdef HAL_RCC_MODULE_ENABLED
  79:HAL_Lib/STM32H7xx_HAL_Driver/Src/stm32h7xx_hal_rcc.c **** 
  80:HAL_Lib/STM32H7xx_HAL_Driver/Src/stm32h7xx_hal_rcc.c **** /* Private typedef -----------------------------------------------------------*/
  81:HAL_Lib/STM32H7xx_HAL_Driver/Src/stm32h7xx_hal_rcc.c **** /* Private define ------------------------------------------------------------*/
  82:HAL_Lib/STM32H7xx_HAL_Driver/Src/stm32h7xx_hal_rcc.c **** /* Private macro -------------------------------------------------------------*/
  83:HAL_Lib/STM32H7xx_HAL_Driver/Src/stm32h7xx_hal_rcc.c **** /** @defgroup RCC_Private_Macros RCC Private Macros
  84:HAL_Lib/STM32H7xx_HAL_Driver/Src/stm32h7xx_hal_rcc.c ****  * @{
  85:HAL_Lib/STM32H7xx_HAL_Driver/Src/stm32h7xx_hal_rcc.c ****  */
  86:HAL_Lib/STM32H7xx_HAL_Driver/Src/stm32h7xx_hal_rcc.c **** #define MCO1_CLK_ENABLE() __HAL_RCC_GPIOA_CLK_ENABLE()
  87:HAL_Lib/STM32H7xx_HAL_Driver/Src/stm32h7xx_hal_rcc.c **** #define MCO1_GPIO_PORT GPIOA
  88:HAL_Lib/STM32H7xx_HAL_Driver/Src/stm32h7xx_hal_rcc.c **** #define MCO1_PIN GPIO_PIN_8
ARM GAS  C:\Users\huav\AppData\Local\Temp\ccAjt8Jj.s 			page 3


  89:HAL_Lib/STM32H7xx_HAL_Driver/Src/stm32h7xx_hal_rcc.c **** 
  90:HAL_Lib/STM32H7xx_HAL_Driver/Src/stm32h7xx_hal_rcc.c **** #define MCO2_CLK_ENABLE() __HAL_RCC_GPIOC_CLK_ENABLE()
  91:HAL_Lib/STM32H7xx_HAL_Driver/Src/stm32h7xx_hal_rcc.c **** #define MCO2_GPIO_PORT GPIOC
  92:HAL_Lib/STM32H7xx_HAL_Driver/Src/stm32h7xx_hal_rcc.c **** #define MCO2_PIN GPIO_PIN_9
  93:HAL_Lib/STM32H7xx_HAL_Driver/Src/stm32h7xx_hal_rcc.c **** 
  94:HAL_Lib/STM32H7xx_HAL_Driver/Src/stm32h7xx_hal_rcc.c **** /**
  95:HAL_Lib/STM32H7xx_HAL_Driver/Src/stm32h7xx_hal_rcc.c ****  * @}
  96:HAL_Lib/STM32H7xx_HAL_Driver/Src/stm32h7xx_hal_rcc.c ****  */
  97:HAL_Lib/STM32H7xx_HAL_Driver/Src/stm32h7xx_hal_rcc.c **** /* Private variables ---------------------------------------------------------*/
  98:HAL_Lib/STM32H7xx_HAL_Driver/Src/stm32h7xx_hal_rcc.c **** /** @defgroup RCC_Private_Variables RCC Private Variables
  99:HAL_Lib/STM32H7xx_HAL_Driver/Src/stm32h7xx_hal_rcc.c ****  * @{
 100:HAL_Lib/STM32H7xx_HAL_Driver/Src/stm32h7xx_hal_rcc.c ****  */
 101:HAL_Lib/STM32H7xx_HAL_Driver/Src/stm32h7xx_hal_rcc.c **** 
 102:HAL_Lib/STM32H7xx_HAL_Driver/Src/stm32h7xx_hal_rcc.c **** /**
 103:HAL_Lib/STM32H7xx_HAL_Driver/Src/stm32h7xx_hal_rcc.c ****  * @}
 104:HAL_Lib/STM32H7xx_HAL_Driver/Src/stm32h7xx_hal_rcc.c ****  */
 105:HAL_Lib/STM32H7xx_HAL_Driver/Src/stm32h7xx_hal_rcc.c **** /* Private function prototypes -----------------------------------------------*/
 106:HAL_Lib/STM32H7xx_HAL_Driver/Src/stm32h7xx_hal_rcc.c **** /* Exported functions --------------------------------------------------------*/
 107:HAL_Lib/STM32H7xx_HAL_Driver/Src/stm32h7xx_hal_rcc.c **** 
 108:HAL_Lib/STM32H7xx_HAL_Driver/Src/stm32h7xx_hal_rcc.c **** /** @defgroup RCC_Exported_Functions RCC Exported Functions
 109:HAL_Lib/STM32H7xx_HAL_Driver/Src/stm32h7xx_hal_rcc.c ****  * @{
 110:HAL_Lib/STM32H7xx_HAL_Driver/Src/stm32h7xx_hal_rcc.c ****  */
 111:HAL_Lib/STM32H7xx_HAL_Driver/Src/stm32h7xx_hal_rcc.c **** 
 112:HAL_Lib/STM32H7xx_HAL_Driver/Src/stm32h7xx_hal_rcc.c **** /** @defgroup RCC_Exported_Functions_Group1 Initialization and de-initialization functions
 113:HAL_Lib/STM32H7xx_HAL_Driver/Src/stm32h7xx_hal_rcc.c ****  *  @brief    Initialization and Configuration functions
 114:HAL_Lib/STM32H7xx_HAL_Driver/Src/stm32h7xx_hal_rcc.c ****  *
 115:HAL_Lib/STM32H7xx_HAL_Driver/Src/stm32h7xx_hal_rcc.c **** @verbatim
 116:HAL_Lib/STM32H7xx_HAL_Driver/Src/stm32h7xx_hal_rcc.c ****  ===============================================================================
 117:HAL_Lib/STM32H7xx_HAL_Driver/Src/stm32h7xx_hal_rcc.c ****            ##### Initialization and de-initialization functions #####
 118:HAL_Lib/STM32H7xx_HAL_Driver/Src/stm32h7xx_hal_rcc.c ****  ===============================================================================
 119:HAL_Lib/STM32H7xx_HAL_Driver/Src/stm32h7xx_hal_rcc.c ****     [..]
 120:HAL_Lib/STM32H7xx_HAL_Driver/Src/stm32h7xx_hal_rcc.c ****       This section provides functions allowing to configure the internal/external oscillators
 121:HAL_Lib/STM32H7xx_HAL_Driver/Src/stm32h7xx_hal_rcc.c ****       (HSE, HSI, LSE,CSI, LSI,HSI48, PLL, CSS and MCO) and the System buses clocks (SYSCLK, AHB3, A
 122:HAL_Lib/STM32H7xx_HAL_Driver/Src/stm32h7xx_hal_rcc.c ****        AHB2,AHB4,APB3, APB1L, APB1H, APB2, and APB4).
 123:HAL_Lib/STM32H7xx_HAL_Driver/Src/stm32h7xx_hal_rcc.c **** 
 124:HAL_Lib/STM32H7xx_HAL_Driver/Src/stm32h7xx_hal_rcc.c ****     [..] Internal/external clock and PLL configuration
 125:HAL_Lib/STM32H7xx_HAL_Driver/Src/stm32h7xx_hal_rcc.c ****          (#) HSI (high-speed internal), 64 MHz factory-trimmed RC used directly or through
 126:HAL_Lib/STM32H7xx_HAL_Driver/Src/stm32h7xx_hal_rcc.c ****              the PLL as System clock source.
 127:HAL_Lib/STM32H7xx_HAL_Driver/Src/stm32h7xx_hal_rcc.c ****          (#) CSI is a low-power RC oscillator which can be used directly as system clock, periphera
 128:HAL_Lib/STM32H7xx_HAL_Driver/Src/stm32h7xx_hal_rcc.c ****              clock, or PLL input.But even with frequency calibration, is less accurate than an
 129:HAL_Lib/STM32H7xx_HAL_Driver/Src/stm32h7xx_hal_rcc.c ****              external crystal oscillator or ceramic resonator.
 130:HAL_Lib/STM32H7xx_HAL_Driver/Src/stm32h7xx_hal_rcc.c ****          (#) LSI (low-speed internal), 32 KHz low consumption RC used as IWDG and/or RTC
 131:HAL_Lib/STM32H7xx_HAL_Driver/Src/stm32h7xx_hal_rcc.c ****              clock source.
 132:HAL_Lib/STM32H7xx_HAL_Driver/Src/stm32h7xx_hal_rcc.c **** 
 133:HAL_Lib/STM32H7xx_HAL_Driver/Src/stm32h7xx_hal_rcc.c ****          (#) HSE (high-speed external), 4 to 48 MHz crystal oscillator used directly or
 134:HAL_Lib/STM32H7xx_HAL_Driver/Src/stm32h7xx_hal_rcc.c ****              through the PLL as System clock source. Can be used also as RTC clock source.
 135:HAL_Lib/STM32H7xx_HAL_Driver/Src/stm32h7xx_hal_rcc.c **** 
 136:HAL_Lib/STM32H7xx_HAL_Driver/Src/stm32h7xx_hal_rcc.c ****          (#) LSE (low-speed external), 32 KHz oscillator used as RTC clock source.
 137:HAL_Lib/STM32H7xx_HAL_Driver/Src/stm32h7xx_hal_rcc.c **** 
 138:HAL_Lib/STM32H7xx_HAL_Driver/Src/stm32h7xx_hal_rcc.c ****          (#) PLL , The RCC features three independent PLLs (clocked by HSI , HSE or CSI),
 139:HAL_Lib/STM32H7xx_HAL_Driver/Src/stm32h7xx_hal_rcc.c ****              featuring three different output clocks and able  to work either in integer or Fractio
 140:HAL_Lib/STM32H7xx_HAL_Driver/Src/stm32h7xx_hal_rcc.c ****            (++) A main PLL, PLL1, which is generally used to provide clocks to the CPU
 141:HAL_Lib/STM32H7xx_HAL_Driver/Src/stm32h7xx_hal_rcc.c ****                 and to some peripherals.
 142:HAL_Lib/STM32H7xx_HAL_Driver/Src/stm32h7xx_hal_rcc.c ****            (++) Two dedicated PLLs, PLL2 and PLL3, which are used to generate the kernel clock for 
 143:HAL_Lib/STM32H7xx_HAL_Driver/Src/stm32h7xx_hal_rcc.c **** 
 144:HAL_Lib/STM32H7xx_HAL_Driver/Src/stm32h7xx_hal_rcc.c **** 
 145:HAL_Lib/STM32H7xx_HAL_Driver/Src/stm32h7xx_hal_rcc.c ****          (#) CSS (Clock security system), once enabled and if a HSE clock failure occurs
ARM GAS  C:\Users\huav\AppData\Local\Temp\ccAjt8Jj.s 			page 4


 146:HAL_Lib/STM32H7xx_HAL_Driver/Src/stm32h7xx_hal_rcc.c ****             (HSE used directly or through PLL as System clock source), the System clock
 147:HAL_Lib/STM32H7xx_HAL_Driver/Src/stm32h7xx_hal_rcc.c ****              is automatically switched to HSI and an interrupt is generated if enabled.
 148:HAL_Lib/STM32H7xx_HAL_Driver/Src/stm32h7xx_hal_rcc.c ****              The interrupt is linked to the Cortex-M NMI (Non-Mask-able Interrupt)
 149:HAL_Lib/STM32H7xx_HAL_Driver/Src/stm32h7xx_hal_rcc.c ****              exception vector.
 150:HAL_Lib/STM32H7xx_HAL_Driver/Src/stm32h7xx_hal_rcc.c **** 
 151:HAL_Lib/STM32H7xx_HAL_Driver/Src/stm32h7xx_hal_rcc.c ****          (#) MCO1 (micro controller clock output), used to output HSI, LSE, HSE, PLL1(PLL1_Q)
 152:HAL_Lib/STM32H7xx_HAL_Driver/Src/stm32h7xx_hal_rcc.c ****              or HSI48 clock (through a configurable pre-scaler) on PA8 pin.
 153:HAL_Lib/STM32H7xx_HAL_Driver/Src/stm32h7xx_hal_rcc.c **** 
 154:HAL_Lib/STM32H7xx_HAL_Driver/Src/stm32h7xx_hal_rcc.c ****          (#) MCO2 (micro controller clock output), used to output HSE, PLL2(PLL2_P), SYSCLK,
 155:HAL_Lib/STM32H7xx_HAL_Driver/Src/stm32h7xx_hal_rcc.c ****              LSI, CSI, or PLL1(PLL1_P) clock (through a configurable pre-scaler) on PC9 pin.
 156:HAL_Lib/STM32H7xx_HAL_Driver/Src/stm32h7xx_hal_rcc.c **** 
 157:HAL_Lib/STM32H7xx_HAL_Driver/Src/stm32h7xx_hal_rcc.c ****     [..] System, AHB and APB buses clocks configuration
 158:HAL_Lib/STM32H7xx_HAL_Driver/Src/stm32h7xx_hal_rcc.c ****          (#) Several clock sources can be used to drive the System clock (SYSCLK): CSI,HSI,
 159:HAL_Lib/STM32H7xx_HAL_Driver/Src/stm32h7xx_hal_rcc.c ****              HSE and PLL.
 160:HAL_Lib/STM32H7xx_HAL_Driver/Src/stm32h7xx_hal_rcc.c ****              The AHB clock (HCLK) is derived from System core clock through configurable
 161:HAL_Lib/STM32H7xx_HAL_Driver/Src/stm32h7xx_hal_rcc.c ****              pre-scaler and used to clock the CPU, memory and peripherals mapped
 162:HAL_Lib/STM32H7xx_HAL_Driver/Src/stm32h7xx_hal_rcc.c ****              on AHB and APB bus of the 3 Domains (D1, D2, D3)* through configurable pre-scalers
 163:HAL_Lib/STM32H7xx_HAL_Driver/Src/stm32h7xx_hal_rcc.c ****              and used to clock the peripherals mapped on these buses. You can use
 164:HAL_Lib/STM32H7xx_HAL_Driver/Src/stm32h7xx_hal_rcc.c ****              "HAL_RCC_GetSysClockFreq()" function to retrieve system clock frequency.
 165:HAL_Lib/STM32H7xx_HAL_Driver/Src/stm32h7xx_hal_rcc.c **** 
 166:HAL_Lib/STM32H7xx_HAL_Driver/Src/stm32h7xx_hal_rcc.c ****          -@- All the peripheral clocks are derived from the System clock (SYSCLK) except those
 167:HAL_Lib/STM32H7xx_HAL_Driver/Src/stm32h7xx_hal_rcc.c ****              with dual clock domain where kernel source clock could be selected through
 168:HAL_Lib/STM32H7xx_HAL_Driver/Src/stm32h7xx_hal_rcc.c ****              RCC_D1CCIPR,RCC_D2CCIP1R,RCC_D2CCIP2R and RCC_D3CCIPR registers.
 169:HAL_Lib/STM32H7xx_HAL_Driver/Src/stm32h7xx_hal_rcc.c **** 
 170:HAL_Lib/STM32H7xx_HAL_Driver/Src/stm32h7xx_hal_rcc.c ****      (*) : 2 Domains (CD and SRD) for stm32h7a3xx and stm32h7b3xx family lines.
 171:HAL_Lib/STM32H7xx_HAL_Driver/Src/stm32h7xx_hal_rcc.c **** @endverbatim
 172:HAL_Lib/STM32H7xx_HAL_Driver/Src/stm32h7xx_hal_rcc.c ****   * @{
 173:HAL_Lib/STM32H7xx_HAL_Driver/Src/stm32h7xx_hal_rcc.c ****   */
 174:HAL_Lib/STM32H7xx_HAL_Driver/Src/stm32h7xx_hal_rcc.c **** 
 175:HAL_Lib/STM32H7xx_HAL_Driver/Src/stm32h7xx_hal_rcc.c **** /**
 176:HAL_Lib/STM32H7xx_HAL_Driver/Src/stm32h7xx_hal_rcc.c ****  * @brief  Resets the RCC clock configuration to the default reset state.
 177:HAL_Lib/STM32H7xx_HAL_Driver/Src/stm32h7xx_hal_rcc.c ****  * @note   The default reset state of the clock configuration is given below:
 178:HAL_Lib/STM32H7xx_HAL_Driver/Src/stm32h7xx_hal_rcc.c ****  *            - HSI ON and used as system clock source
 179:HAL_Lib/STM32H7xx_HAL_Driver/Src/stm32h7xx_hal_rcc.c ****  *            - HSE, PLL1, PLL2 and PLL3 OFF
 180:HAL_Lib/STM32H7xx_HAL_Driver/Src/stm32h7xx_hal_rcc.c ****  *            - AHB, APB Bus pre-scaler set to 1.
 181:HAL_Lib/STM32H7xx_HAL_Driver/Src/stm32h7xx_hal_rcc.c ****  *            - CSS, MCO1 and MCO2 OFF
 182:HAL_Lib/STM32H7xx_HAL_Driver/Src/stm32h7xx_hal_rcc.c ****  *            - All interrupts disabled
 183:HAL_Lib/STM32H7xx_HAL_Driver/Src/stm32h7xx_hal_rcc.c ****  * @note   This function doesn't modify the configuration of the
 184:HAL_Lib/STM32H7xx_HAL_Driver/Src/stm32h7xx_hal_rcc.c ****  *            - Peripheral clocks
 185:HAL_Lib/STM32H7xx_HAL_Driver/Src/stm32h7xx_hal_rcc.c ****  *            - LSI, LSE and RTC clocks
 186:HAL_Lib/STM32H7xx_HAL_Driver/Src/stm32h7xx_hal_rcc.c ****  * @retval HAL status
 187:HAL_Lib/STM32H7xx_HAL_Driver/Src/stm32h7xx_hal_rcc.c ****  */
 188:HAL_Lib/STM32H7xx_HAL_Driver/Src/stm32h7xx_hal_rcc.c **** HAL_StatusTypeDef HAL_RCC_DeInit(void)
 189:HAL_Lib/STM32H7xx_HAL_Driver/Src/stm32h7xx_hal_rcc.c **** {
  28              		.loc 1 189 1 view -0
  29              		.cfi_startproc
  30              		@ args = 0, pretend = 0, frame = 0
  31              		@ frame_needed = 0, uses_anonymous_args = 0
  32 0000 38B5     		push	{r3, r4, r5, lr}
  33              	.LCFI0:
  34              		.cfi_def_cfa_offset 16
  35              		.cfi_offset 3, -16
  36              		.cfi_offset 4, -12
  37              		.cfi_offset 5, -8
  38              		.cfi_offset 14, -4
 190:HAL_Lib/STM32H7xx_HAL_Driver/Src/stm32h7xx_hal_rcc.c ****   uint32_t tickstart;
  39              		.loc 1 190 3 view .LVU1
ARM GAS  C:\Users\huav\AppData\Local\Temp\ccAjt8Jj.s 			page 5


 191:HAL_Lib/STM32H7xx_HAL_Driver/Src/stm32h7xx_hal_rcc.c **** 
 192:HAL_Lib/STM32H7xx_HAL_Driver/Src/stm32h7xx_hal_rcc.c ****   /* Increasing the CPU frequency */
 193:HAL_Lib/STM32H7xx_HAL_Driver/Src/stm32h7xx_hal_rcc.c ****   if (FLASH_LATENCY_DEFAULT > __HAL_FLASH_GET_LATENCY())
  40              		.loc 1 193 3 view .LVU2
  41              		.loc 1 193 31 is_stmt 0 view .LVU3
  42 0002 684B     		ldr	r3, .L33
  43 0004 1B68     		ldr	r3, [r3]
  44 0006 03F00F03 		and	r3, r3, #15
  45              		.loc 1 193 6 view .LVU4
  46 000a 062B     		cmp	r3, #6
  47 000c 0CD8     		bhi	.L2
 194:HAL_Lib/STM32H7xx_HAL_Driver/Src/stm32h7xx_hal_rcc.c ****   {
 195:HAL_Lib/STM32H7xx_HAL_Driver/Src/stm32h7xx_hal_rcc.c ****     /* Program the new number of wait states to the LATENCY bits in the FLASH_ACR register */
 196:HAL_Lib/STM32H7xx_HAL_Driver/Src/stm32h7xx_hal_rcc.c ****     __HAL_FLASH_SET_LATENCY(FLASH_LATENCY_DEFAULT);
  48              		.loc 1 196 5 is_stmt 1 view .LVU5
  49 000e 654A     		ldr	r2, .L33
  50 0010 1368     		ldr	r3, [r2]
  51 0012 23F00F03 		bic	r3, r3, #15
  52 0016 43F00703 		orr	r3, r3, #7
  53 001a 1360     		str	r3, [r2]
 197:HAL_Lib/STM32H7xx_HAL_Driver/Src/stm32h7xx_hal_rcc.c **** 
 198:HAL_Lib/STM32H7xx_HAL_Driver/Src/stm32h7xx_hal_rcc.c ****     /* Check that the new number of wait states is taken into account to access the Flash
 199:HAL_Lib/STM32H7xx_HAL_Driver/Src/stm32h7xx_hal_rcc.c ****     memory by reading the FLASH_ACR register */
 200:HAL_Lib/STM32H7xx_HAL_Driver/Src/stm32h7xx_hal_rcc.c ****     if (__HAL_FLASH_GET_LATENCY() != FLASH_LATENCY_DEFAULT)
  54              		.loc 1 200 5 view .LVU6
  55              		.loc 1 200 9 is_stmt 0 view .LVU7
  56 001c 1368     		ldr	r3, [r2]
  57 001e 03F00F03 		and	r3, r3, #15
  58              		.loc 1 200 8 view .LVU8
  59 0022 072B     		cmp	r3, #7
  60 0024 40F0BA80 		bne	.L16
  61              	.L2:
 201:HAL_Lib/STM32H7xx_HAL_Driver/Src/stm32h7xx_hal_rcc.c ****     {
 202:HAL_Lib/STM32H7xx_HAL_Driver/Src/stm32h7xx_hal_rcc.c ****       return HAL_ERROR;
 203:HAL_Lib/STM32H7xx_HAL_Driver/Src/stm32h7xx_hal_rcc.c ****     }
 204:HAL_Lib/STM32H7xx_HAL_Driver/Src/stm32h7xx_hal_rcc.c ****   }
 205:HAL_Lib/STM32H7xx_HAL_Driver/Src/stm32h7xx_hal_rcc.c **** 
 206:HAL_Lib/STM32H7xx_HAL_Driver/Src/stm32h7xx_hal_rcc.c ****   /* Get Start Tick */
 207:HAL_Lib/STM32H7xx_HAL_Driver/Src/stm32h7xx_hal_rcc.c ****   tickstart = HAL_GetTick();
  62              		.loc 1 207 3 is_stmt 1 view .LVU9
  63              		.loc 1 207 15 is_stmt 0 view .LVU10
  64 0028 FFF7FEFF 		bl	HAL_GetTick
  65              	.LVL0:
  66 002c 0446     		mov	r4, r0
  67              	.LVL1:
 208:HAL_Lib/STM32H7xx_HAL_Driver/Src/stm32h7xx_hal_rcc.c **** 
 209:HAL_Lib/STM32H7xx_HAL_Driver/Src/stm32h7xx_hal_rcc.c ****   /* Set HSION bit */
 210:HAL_Lib/STM32H7xx_HAL_Driver/Src/stm32h7xx_hal_rcc.c ****   SET_BIT(RCC->CR, RCC_CR_HSION);
  68              		.loc 1 210 3 is_stmt 1 view .LVU11
  69 002e 5E4A     		ldr	r2, .L33+4
  70 0030 1368     		ldr	r3, [r2]
  71 0032 43F00103 		orr	r3, r3, #1
  72 0036 1360     		str	r3, [r2]
 211:HAL_Lib/STM32H7xx_HAL_Driver/Src/stm32h7xx_hal_rcc.c **** 
 212:HAL_Lib/STM32H7xx_HAL_Driver/Src/stm32h7xx_hal_rcc.c ****   /* Wait till HSI is ready */
 213:HAL_Lib/STM32H7xx_HAL_Driver/Src/stm32h7xx_hal_rcc.c ****   while (READ_BIT(RCC->CR, RCC_CR_HSIRDY) == 0U)
  73              		.loc 1 213 3 view .LVU12
ARM GAS  C:\Users\huav\AppData\Local\Temp\ccAjt8Jj.s 			page 6


  74              	.LVL2:
  75              	.L4:
  76              		.loc 1 213 9 view .LVU13
  77              		.loc 1 213 10 is_stmt 0 view .LVU14
  78 0038 5B4B     		ldr	r3, .L33+4
  79 003a 1B68     		ldr	r3, [r3]
  80              		.loc 1 213 9 view .LVU15
  81 003c 13F0040F 		tst	r3, #4
  82 0040 06D1     		bne	.L26
 214:HAL_Lib/STM32H7xx_HAL_Driver/Src/stm32h7xx_hal_rcc.c ****   {
 215:HAL_Lib/STM32H7xx_HAL_Driver/Src/stm32h7xx_hal_rcc.c ****     if ((HAL_GetTick() - tickstart) > HSI_TIMEOUT_VALUE)
  83              		.loc 1 215 5 is_stmt 1 view .LVU16
  84              		.loc 1 215 10 is_stmt 0 view .LVU17
  85 0042 FFF7FEFF 		bl	HAL_GetTick
  86              	.LVL3:
  87              		.loc 1 215 24 view .LVU18
  88 0046 001B     		subs	r0, r0, r4
  89              		.loc 1 215 8 view .LVU19
  90 0048 0228     		cmp	r0, #2
  91 004a F5D9     		bls	.L4
 216:HAL_Lib/STM32H7xx_HAL_Driver/Src/stm32h7xx_hal_rcc.c ****     {
 217:HAL_Lib/STM32H7xx_HAL_Driver/Src/stm32h7xx_hal_rcc.c ****       return HAL_TIMEOUT;
  92              		.loc 1 217 14 view .LVU20
  93 004c 0324     		movs	r4, #3
  94              	.LVL4:
  95              		.loc 1 217 14 view .LVU21
  96 004e A6E0     		b	.L3
  97              	.LVL5:
  98              	.L26:
 218:HAL_Lib/STM32H7xx_HAL_Driver/Src/stm32h7xx_hal_rcc.c ****     }
 219:HAL_Lib/STM32H7xx_HAL_Driver/Src/stm32h7xx_hal_rcc.c ****   }
 220:HAL_Lib/STM32H7xx_HAL_Driver/Src/stm32h7xx_hal_rcc.c **** 
 221:HAL_Lib/STM32H7xx_HAL_Driver/Src/stm32h7xx_hal_rcc.c ****   /* Set HSITRIM[6:0] bits to the reset value */
 222:HAL_Lib/STM32H7xx_HAL_Driver/Src/stm32h7xx_hal_rcc.c ****   SET_BIT(RCC->HSICFGR, RCC_HSICFGR_HSITRIM_6);
  99              		.loc 1 222 3 is_stmt 1 view .LVU22
 100 0050 554B     		ldr	r3, .L33+4
 101 0052 5A68     		ldr	r2, [r3, #4]
 102 0054 42F08042 		orr	r2, r2, #1073741824
 103 0058 5A60     		str	r2, [r3, #4]
 223:HAL_Lib/STM32H7xx_HAL_Driver/Src/stm32h7xx_hal_rcc.c **** 
 224:HAL_Lib/STM32H7xx_HAL_Driver/Src/stm32h7xx_hal_rcc.c ****   /* Reset CFGR register */
 225:HAL_Lib/STM32H7xx_HAL_Driver/Src/stm32h7xx_hal_rcc.c ****   CLEAR_REG(RCC->CFGR);
 104              		.loc 1 225 3 view .LVU23
 105 005a 0022     		movs	r2, #0
 106 005c 1A61     		str	r2, [r3, #16]
 226:HAL_Lib/STM32H7xx_HAL_Driver/Src/stm32h7xx_hal_rcc.c **** 
 227:HAL_Lib/STM32H7xx_HAL_Driver/Src/stm32h7xx_hal_rcc.c ****   /* Update the SystemCoreClock and SystemD2Clock global variables */
 228:HAL_Lib/STM32H7xx_HAL_Driver/Src/stm32h7xx_hal_rcc.c ****   SystemCoreClock = HSI_VALUE;
 107              		.loc 1 228 3 view .LVU24
 108              		.loc 1 228 19 is_stmt 0 view .LVU25
 109 005e 534B     		ldr	r3, .L33+8
 110 0060 534A     		ldr	r2, .L33+12
 111 0062 1360     		str	r3, [r2]
 229:HAL_Lib/STM32H7xx_HAL_Driver/Src/stm32h7xx_hal_rcc.c ****   SystemD2Clock = HSI_VALUE;
 112              		.loc 1 229 3 is_stmt 1 view .LVU26
 113              		.loc 1 229 17 is_stmt 0 view .LVU27
 114 0064 534A     		ldr	r2, .L33+16
ARM GAS  C:\Users\huav\AppData\Local\Temp\ccAjt8Jj.s 			page 7


 115 0066 1360     		str	r3, [r2]
 230:HAL_Lib/STM32H7xx_HAL_Driver/Src/stm32h7xx_hal_rcc.c **** 
 231:HAL_Lib/STM32H7xx_HAL_Driver/Src/stm32h7xx_hal_rcc.c ****   /* Adapt Systick interrupt period */
 232:HAL_Lib/STM32H7xx_HAL_Driver/Src/stm32h7xx_hal_rcc.c ****   if (HAL_InitTick(uwTickPrio) != HAL_OK)
 116              		.loc 1 232 3 is_stmt 1 view .LVU28
 117              		.loc 1 232 7 is_stmt 0 view .LVU29
 118 0068 534B     		ldr	r3, .L33+20
 119 006a 1868     		ldr	r0, [r3]
 120 006c FFF7FEFF 		bl	HAL_InitTick
 121              	.LVL6:
 122              		.loc 1 232 6 view .LVU30
 123 0070 0446     		mov	r4, r0
 124              	.LVL7:
 125              		.loc 1 232 6 view .LVU31
 126 0072 08B1     		cbz	r0, .L27
 233:HAL_Lib/STM32H7xx_HAL_Driver/Src/stm32h7xx_hal_rcc.c ****   {
 234:HAL_Lib/STM32H7xx_HAL_Driver/Src/stm32h7xx_hal_rcc.c ****     return HAL_ERROR;
 127              		.loc 1 234 12 view .LVU32
 128 0074 0124     		movs	r4, #1
 129 0076 92E0     		b	.L3
 130              	.L27:
 235:HAL_Lib/STM32H7xx_HAL_Driver/Src/stm32h7xx_hal_rcc.c ****   }
 236:HAL_Lib/STM32H7xx_HAL_Driver/Src/stm32h7xx_hal_rcc.c **** 
 237:HAL_Lib/STM32H7xx_HAL_Driver/Src/stm32h7xx_hal_rcc.c ****   /* Get Start Tick */
 238:HAL_Lib/STM32H7xx_HAL_Driver/Src/stm32h7xx_hal_rcc.c ****   tickstart = HAL_GetTick();
 131              		.loc 1 238 3 is_stmt 1 view .LVU33
 132              		.loc 1 238 15 is_stmt 0 view .LVU34
 133 0078 FFF7FEFF 		bl	HAL_GetTick
 134              	.LVL8:
 135 007c 0546     		mov	r5, r0
 136              	.LVL9:
 239:HAL_Lib/STM32H7xx_HAL_Driver/Src/stm32h7xx_hal_rcc.c **** 
 240:HAL_Lib/STM32H7xx_HAL_Driver/Src/stm32h7xx_hal_rcc.c ****   /* Wait till clock switch is ready */
 241:HAL_Lib/STM32H7xx_HAL_Driver/Src/stm32h7xx_hal_rcc.c ****   while (READ_BIT(RCC->CFGR, RCC_CFGR_SWS) != 0U)
 137              		.loc 1 241 3 is_stmt 1 view .LVU35
 138              	.L6:
 139              		.loc 1 241 9 view .LVU36
 140              		.loc 1 241 10 is_stmt 0 view .LVU37
 141 007e 4A4B     		ldr	r3, .L33+4
 142 0080 1B69     		ldr	r3, [r3, #16]
 143              		.loc 1 241 9 view .LVU38
 144 0082 13F0380F 		tst	r3, #56
 145 0086 08D0     		beq	.L28
 242:HAL_Lib/STM32H7xx_HAL_Driver/Src/stm32h7xx_hal_rcc.c ****   {
 243:HAL_Lib/STM32H7xx_HAL_Driver/Src/stm32h7xx_hal_rcc.c ****     if ((HAL_GetTick() - tickstart) > CLOCKSWITCH_TIMEOUT_VALUE)
 146              		.loc 1 243 5 is_stmt 1 view .LVU39
 147              		.loc 1 243 10 is_stmt 0 view .LVU40
 148 0088 FFF7FEFF 		bl	HAL_GetTick
 149              	.LVL10:
 150              		.loc 1 243 24 view .LVU41
 151 008c 401B     		subs	r0, r0, r5
 152              		.loc 1 243 8 view .LVU42
 153 008e 41F28833 		movw	r3, #5000
 154 0092 9842     		cmp	r0, r3
 155 0094 F3D9     		bls	.L6
 244:HAL_Lib/STM32H7xx_HAL_Driver/Src/stm32h7xx_hal_rcc.c ****     {
 245:HAL_Lib/STM32H7xx_HAL_Driver/Src/stm32h7xx_hal_rcc.c ****       return HAL_TIMEOUT;
ARM GAS  C:\Users\huav\AppData\Local\Temp\ccAjt8Jj.s 			page 8


 156              		.loc 1 245 14 view .LVU43
 157 0096 0324     		movs	r4, #3
 158 0098 81E0     		b	.L3
 159              	.L28:
 246:HAL_Lib/STM32H7xx_HAL_Driver/Src/stm32h7xx_hal_rcc.c ****     }
 247:HAL_Lib/STM32H7xx_HAL_Driver/Src/stm32h7xx_hal_rcc.c ****   }
 248:HAL_Lib/STM32H7xx_HAL_Driver/Src/stm32h7xx_hal_rcc.c **** 
 249:HAL_Lib/STM32H7xx_HAL_Driver/Src/stm32h7xx_hal_rcc.c ****   /* Get Start Tick */
 250:HAL_Lib/STM32H7xx_HAL_Driver/Src/stm32h7xx_hal_rcc.c ****   tickstart = HAL_GetTick();
 160              		.loc 1 250 3 is_stmt 1 view .LVU44
 161              		.loc 1 250 15 is_stmt 0 view .LVU45
 162 009a FFF7FEFF 		bl	HAL_GetTick
 163              	.LVL11:
 164 009e 0546     		mov	r5, r0
 165              	.LVL12:
 251:HAL_Lib/STM32H7xx_HAL_Driver/Src/stm32h7xx_hal_rcc.c **** 
 252:HAL_Lib/STM32H7xx_HAL_Driver/Src/stm32h7xx_hal_rcc.c ****   /* Reset CSION, CSIKERON, HSEON, HSI48ON, HSECSSON, HSIDIV bits */
 253:HAL_Lib/STM32H7xx_HAL_Driver/Src/stm32h7xx_hal_rcc.c ****   CLEAR_BIT(RCC->CR, RCC_CR_HSEON | RCC_CR_HSIKERON | RCC_CR_HSIDIV | RCC_CR_HSIDIVF | RCC_CR_CSION
 166              		.loc 1 253 3 is_stmt 1 view .LVU46
 167 00a0 414A     		ldr	r2, .L33+4
 168 00a2 1168     		ldr	r1, [r2]
 169 00a4 454B     		ldr	r3, .L33+24
 170 00a6 0B40     		ands	r3, r3, r1
 171 00a8 1360     		str	r3, [r2]
 254:HAL_Lib/STM32H7xx_HAL_Driver/Src/stm32h7xx_hal_rcc.c **** 
 255:HAL_Lib/STM32H7xx_HAL_Driver/Src/stm32h7xx_hal_rcc.c ****   /* Wait till HSE is disabled */
 256:HAL_Lib/STM32H7xx_HAL_Driver/Src/stm32h7xx_hal_rcc.c ****   while (READ_BIT(RCC->CR, RCC_CR_HSERDY) != 0U)
 172              		.loc 1 256 3 view .LVU47
 173              	.LVL13:
 174              	.L8:
 175              		.loc 1 256 9 view .LVU48
 176              		.loc 1 256 10 is_stmt 0 view .LVU49
 177 00aa 3F4B     		ldr	r3, .L33+4
 178 00ac 1B68     		ldr	r3, [r3]
 179              		.loc 1 256 9 view .LVU50
 180 00ae 13F4003F 		tst	r3, #131072
 181 00b2 06D0     		beq	.L29
 257:HAL_Lib/STM32H7xx_HAL_Driver/Src/stm32h7xx_hal_rcc.c ****   {
 258:HAL_Lib/STM32H7xx_HAL_Driver/Src/stm32h7xx_hal_rcc.c ****     if ((HAL_GetTick() - tickstart) > HSE_TIMEOUT_VALUE)
 182              		.loc 1 258 5 is_stmt 1 view .LVU51
 183              		.loc 1 258 10 is_stmt 0 view .LVU52
 184 00b4 FFF7FEFF 		bl	HAL_GetTick
 185              	.LVL14:
 186              		.loc 1 258 24 view .LVU53
 187 00b8 401B     		subs	r0, r0, r5
 188              		.loc 1 258 8 view .LVU54
 189 00ba 6428     		cmp	r0, #100
 190 00bc F5D9     		bls	.L8
 259:HAL_Lib/STM32H7xx_HAL_Driver/Src/stm32h7xx_hal_rcc.c ****     {
 260:HAL_Lib/STM32H7xx_HAL_Driver/Src/stm32h7xx_hal_rcc.c ****       return HAL_TIMEOUT;
 191              		.loc 1 260 14 view .LVU55
 192 00be 0324     		movs	r4, #3
 193 00c0 6DE0     		b	.L3
 194              	.L29:
 261:HAL_Lib/STM32H7xx_HAL_Driver/Src/stm32h7xx_hal_rcc.c ****     }
 262:HAL_Lib/STM32H7xx_HAL_Driver/Src/stm32h7xx_hal_rcc.c ****   }
 263:HAL_Lib/STM32H7xx_HAL_Driver/Src/stm32h7xx_hal_rcc.c **** 
ARM GAS  C:\Users\huav\AppData\Local\Temp\ccAjt8Jj.s 			page 9


 264:HAL_Lib/STM32H7xx_HAL_Driver/Src/stm32h7xx_hal_rcc.c ****   /* Get Start Tick */
 265:HAL_Lib/STM32H7xx_HAL_Driver/Src/stm32h7xx_hal_rcc.c ****   tickstart = HAL_GetTick();
 195              		.loc 1 265 3 is_stmt 1 view .LVU56
 196              		.loc 1 265 15 is_stmt 0 view .LVU57
 197 00c2 FFF7FEFF 		bl	HAL_GetTick
 198              	.LVL15:
 199 00c6 0546     		mov	r5, r0
 200              	.LVL16:
 266:HAL_Lib/STM32H7xx_HAL_Driver/Src/stm32h7xx_hal_rcc.c **** 
 267:HAL_Lib/STM32H7xx_HAL_Driver/Src/stm32h7xx_hal_rcc.c ****   /* Clear PLLON bit */
 268:HAL_Lib/STM32H7xx_HAL_Driver/Src/stm32h7xx_hal_rcc.c ****   CLEAR_BIT(RCC->CR, RCC_CR_PLL1ON);
 201              		.loc 1 268 3 is_stmt 1 view .LVU58
 202 00c8 374A     		ldr	r2, .L33+4
 203 00ca 1368     		ldr	r3, [r2]
 204 00cc 23F08073 		bic	r3, r3, #16777216
 205 00d0 1360     		str	r3, [r2]
 269:HAL_Lib/STM32H7xx_HAL_Driver/Src/stm32h7xx_hal_rcc.c **** 
 270:HAL_Lib/STM32H7xx_HAL_Driver/Src/stm32h7xx_hal_rcc.c ****   /* Wait till PLL is disabled */
 271:HAL_Lib/STM32H7xx_HAL_Driver/Src/stm32h7xx_hal_rcc.c ****   while (READ_BIT(RCC->CR, RCC_CR_PLL1RDY) != 0U)
 206              		.loc 1 271 3 view .LVU59
 207              	.LVL17:
 208              	.L10:
 209              		.loc 1 271 9 view .LVU60
 210              		.loc 1 271 10 is_stmt 0 view .LVU61
 211 00d2 354B     		ldr	r3, .L33+4
 212 00d4 1B68     		ldr	r3, [r3]
 213              		.loc 1 271 9 view .LVU62
 214 00d6 13F0007F 		tst	r3, #33554432
 215 00da 06D0     		beq	.L30
 272:HAL_Lib/STM32H7xx_HAL_Driver/Src/stm32h7xx_hal_rcc.c ****   {
 273:HAL_Lib/STM32H7xx_HAL_Driver/Src/stm32h7xx_hal_rcc.c ****     if ((HAL_GetTick() - tickstart) > PLL_TIMEOUT_VALUE)
 216              		.loc 1 273 5 is_stmt 1 view .LVU63
 217              		.loc 1 273 10 is_stmt 0 view .LVU64
 218 00dc FFF7FEFF 		bl	HAL_GetTick
 219              	.LVL18:
 220              		.loc 1 273 24 view .LVU65
 221 00e0 401B     		subs	r0, r0, r5
 222              		.loc 1 273 8 view .LVU66
 223 00e2 0228     		cmp	r0, #2
 224 00e4 F5D9     		bls	.L10
 274:HAL_Lib/STM32H7xx_HAL_Driver/Src/stm32h7xx_hal_rcc.c ****     {
 275:HAL_Lib/STM32H7xx_HAL_Driver/Src/stm32h7xx_hal_rcc.c ****       return HAL_TIMEOUT;
 225              		.loc 1 275 14 view .LVU67
 226 00e6 0324     		movs	r4, #3
 227 00e8 59E0     		b	.L3
 228              	.L30:
 276:HAL_Lib/STM32H7xx_HAL_Driver/Src/stm32h7xx_hal_rcc.c ****     }
 277:HAL_Lib/STM32H7xx_HAL_Driver/Src/stm32h7xx_hal_rcc.c ****   }
 278:HAL_Lib/STM32H7xx_HAL_Driver/Src/stm32h7xx_hal_rcc.c **** 
 279:HAL_Lib/STM32H7xx_HAL_Driver/Src/stm32h7xx_hal_rcc.c ****   /* Get Start Tick */
 280:HAL_Lib/STM32H7xx_HAL_Driver/Src/stm32h7xx_hal_rcc.c ****   tickstart = HAL_GetTick();
 229              		.loc 1 280 3 is_stmt 1 view .LVU68
 230              		.loc 1 280 15 is_stmt 0 view .LVU69
 231 00ea FFF7FEFF 		bl	HAL_GetTick
 232              	.LVL19:
 233 00ee 0546     		mov	r5, r0
 234              	.LVL20:
ARM GAS  C:\Users\huav\AppData\Local\Temp\ccAjt8Jj.s 			page 10


 281:HAL_Lib/STM32H7xx_HAL_Driver/Src/stm32h7xx_hal_rcc.c **** 
 282:HAL_Lib/STM32H7xx_HAL_Driver/Src/stm32h7xx_hal_rcc.c ****   /* Reset PLL2ON bit */
 283:HAL_Lib/STM32H7xx_HAL_Driver/Src/stm32h7xx_hal_rcc.c ****   CLEAR_BIT(RCC->CR, RCC_CR_PLL2ON);
 235              		.loc 1 283 3 is_stmt 1 view .LVU70
 236 00f0 2D4A     		ldr	r2, .L33+4
 237 00f2 1368     		ldr	r3, [r2]
 238 00f4 23F08063 		bic	r3, r3, #67108864
 239 00f8 1360     		str	r3, [r2]
 284:HAL_Lib/STM32H7xx_HAL_Driver/Src/stm32h7xx_hal_rcc.c **** 
 285:HAL_Lib/STM32H7xx_HAL_Driver/Src/stm32h7xx_hal_rcc.c ****   /* Wait till PLL2 is disabled */
 286:HAL_Lib/STM32H7xx_HAL_Driver/Src/stm32h7xx_hal_rcc.c ****   while (READ_BIT(RCC->CR, RCC_CR_PLL2RDY) != 0U)
 240              		.loc 1 286 3 view .LVU71
 241              	.LVL21:
 242              	.L12:
 243              		.loc 1 286 9 view .LVU72
 244              		.loc 1 286 10 is_stmt 0 view .LVU73
 245 00fa 2B4B     		ldr	r3, .L33+4
 246 00fc 1B68     		ldr	r3, [r3]
 247              		.loc 1 286 9 view .LVU74
 248 00fe 13F0006F 		tst	r3, #134217728
 249 0102 06D0     		beq	.L31
 287:HAL_Lib/STM32H7xx_HAL_Driver/Src/stm32h7xx_hal_rcc.c ****   {
 288:HAL_Lib/STM32H7xx_HAL_Driver/Src/stm32h7xx_hal_rcc.c ****     if ((HAL_GetTick() - tickstart) > PLL_TIMEOUT_VALUE)
 250              		.loc 1 288 5 is_stmt 1 view .LVU75
 251              		.loc 1 288 10 is_stmt 0 view .LVU76
 252 0104 FFF7FEFF 		bl	HAL_GetTick
 253              	.LVL22:
 254              		.loc 1 288 24 view .LVU77
 255 0108 401B     		subs	r0, r0, r5
 256              		.loc 1 288 8 view .LVU78
 257 010a 0228     		cmp	r0, #2
 258 010c F5D9     		bls	.L12
 289:HAL_Lib/STM32H7xx_HAL_Driver/Src/stm32h7xx_hal_rcc.c ****     {
 290:HAL_Lib/STM32H7xx_HAL_Driver/Src/stm32h7xx_hal_rcc.c ****       return HAL_TIMEOUT;
 259              		.loc 1 290 14 view .LVU79
 260 010e 0324     		movs	r4, #3
 261 0110 45E0     		b	.L3
 262              	.L31:
 291:HAL_Lib/STM32H7xx_HAL_Driver/Src/stm32h7xx_hal_rcc.c ****     }
 292:HAL_Lib/STM32H7xx_HAL_Driver/Src/stm32h7xx_hal_rcc.c ****   }
 293:HAL_Lib/STM32H7xx_HAL_Driver/Src/stm32h7xx_hal_rcc.c **** 
 294:HAL_Lib/STM32H7xx_HAL_Driver/Src/stm32h7xx_hal_rcc.c ****   /* Get Start Tick */
 295:HAL_Lib/STM32H7xx_HAL_Driver/Src/stm32h7xx_hal_rcc.c ****   tickstart = HAL_GetTick();
 263              		.loc 1 295 3 is_stmt 1 view .LVU80
 264              		.loc 1 295 15 is_stmt 0 view .LVU81
 265 0112 FFF7FEFF 		bl	HAL_GetTick
 266              	.LVL23:
 267 0116 0546     		mov	r5, r0
 268              	.LVL24:
 296:HAL_Lib/STM32H7xx_HAL_Driver/Src/stm32h7xx_hal_rcc.c **** 
 297:HAL_Lib/STM32H7xx_HAL_Driver/Src/stm32h7xx_hal_rcc.c ****   /* Reset PLL3 bit */
 298:HAL_Lib/STM32H7xx_HAL_Driver/Src/stm32h7xx_hal_rcc.c ****   CLEAR_BIT(RCC->CR, RCC_CR_PLL3ON);
 269              		.loc 1 298 3 is_stmt 1 view .LVU82
 270 0118 234A     		ldr	r2, .L33+4
 271 011a 1368     		ldr	r3, [r2]
 272 011c 23F08053 		bic	r3, r3, #268435456
 273 0120 1360     		str	r3, [r2]
ARM GAS  C:\Users\huav\AppData\Local\Temp\ccAjt8Jj.s 			page 11


 299:HAL_Lib/STM32H7xx_HAL_Driver/Src/stm32h7xx_hal_rcc.c **** 
 300:HAL_Lib/STM32H7xx_HAL_Driver/Src/stm32h7xx_hal_rcc.c ****   /* Wait till PLL3 is disabled */
 301:HAL_Lib/STM32H7xx_HAL_Driver/Src/stm32h7xx_hal_rcc.c ****   while (READ_BIT(RCC->CR, RCC_CR_PLL3RDY) != 0U)
 274              		.loc 1 301 3 view .LVU83
 275              	.LVL25:
 276              	.L14:
 277              		.loc 1 301 9 view .LVU84
 278              		.loc 1 301 10 is_stmt 0 view .LVU85
 279 0122 214B     		ldr	r3, .L33+4
 280 0124 1B68     		ldr	r3, [r3]
 281              		.loc 1 301 9 view .LVU86
 282 0126 13F0005F 		tst	r3, #536870912
 283 012a 06D0     		beq	.L32
 302:HAL_Lib/STM32H7xx_HAL_Driver/Src/stm32h7xx_hal_rcc.c ****   {
 303:HAL_Lib/STM32H7xx_HAL_Driver/Src/stm32h7xx_hal_rcc.c ****     if ((HAL_GetTick() - tickstart) > PLL_TIMEOUT_VALUE)
 284              		.loc 1 303 5 is_stmt 1 view .LVU87
 285              		.loc 1 303 10 is_stmt 0 view .LVU88
 286 012c FFF7FEFF 		bl	HAL_GetTick
 287              	.LVL26:
 288              		.loc 1 303 24 view .LVU89
 289 0130 401B     		subs	r0, r0, r5
 290              		.loc 1 303 8 view .LVU90
 291 0132 0228     		cmp	r0, #2
 292 0134 F5D9     		bls	.L14
 304:HAL_Lib/STM32H7xx_HAL_Driver/Src/stm32h7xx_hal_rcc.c ****     {
 305:HAL_Lib/STM32H7xx_HAL_Driver/Src/stm32h7xx_hal_rcc.c ****       return HAL_TIMEOUT;
 293              		.loc 1 305 14 view .LVU91
 294 0136 0324     		movs	r4, #3
 295 0138 31E0     		b	.L3
 296              	.L32:
 306:HAL_Lib/STM32H7xx_HAL_Driver/Src/stm32h7xx_hal_rcc.c ****     }
 307:HAL_Lib/STM32H7xx_HAL_Driver/Src/stm32h7xx_hal_rcc.c ****   }
 308:HAL_Lib/STM32H7xx_HAL_Driver/Src/stm32h7xx_hal_rcc.c **** 
 309:HAL_Lib/STM32H7xx_HAL_Driver/Src/stm32h7xx_hal_rcc.c **** #if defined(RCC_D1CFGR_HPRE)
 310:HAL_Lib/STM32H7xx_HAL_Driver/Src/stm32h7xx_hal_rcc.c ****   /* Reset D1CFGR register */
 311:HAL_Lib/STM32H7xx_HAL_Driver/Src/stm32h7xx_hal_rcc.c ****   CLEAR_REG(RCC->D1CFGR);
 297              		.loc 1 311 3 is_stmt 1 view .LVU92
 298 013a 1B4B     		ldr	r3, .L33+4
 299 013c 0022     		movs	r2, #0
 300 013e 9A61     		str	r2, [r3, #24]
 312:HAL_Lib/STM32H7xx_HAL_Driver/Src/stm32h7xx_hal_rcc.c **** 
 313:HAL_Lib/STM32H7xx_HAL_Driver/Src/stm32h7xx_hal_rcc.c ****   /* Reset D2CFGR register */
 314:HAL_Lib/STM32H7xx_HAL_Driver/Src/stm32h7xx_hal_rcc.c ****   CLEAR_REG(RCC->D2CFGR);
 301              		.loc 1 314 3 view .LVU93
 302 0140 DA61     		str	r2, [r3, #28]
 315:HAL_Lib/STM32H7xx_HAL_Driver/Src/stm32h7xx_hal_rcc.c **** 
 316:HAL_Lib/STM32H7xx_HAL_Driver/Src/stm32h7xx_hal_rcc.c ****   /* Reset D3CFGR register */
 317:HAL_Lib/STM32H7xx_HAL_Driver/Src/stm32h7xx_hal_rcc.c ****   CLEAR_REG(RCC->D3CFGR);
 303              		.loc 1 317 3 view .LVU94
 304 0142 1A62     		str	r2, [r3, #32]
 318:HAL_Lib/STM32H7xx_HAL_Driver/Src/stm32h7xx_hal_rcc.c **** #else
 319:HAL_Lib/STM32H7xx_HAL_Driver/Src/stm32h7xx_hal_rcc.c ****   /* Reset CDCFGR1 register */
 320:HAL_Lib/STM32H7xx_HAL_Driver/Src/stm32h7xx_hal_rcc.c ****   CLEAR_REG(RCC->CDCFGR1);
 321:HAL_Lib/STM32H7xx_HAL_Driver/Src/stm32h7xx_hal_rcc.c **** 
 322:HAL_Lib/STM32H7xx_HAL_Driver/Src/stm32h7xx_hal_rcc.c ****   /* Reset CDCFGR2 register */
 323:HAL_Lib/STM32H7xx_HAL_Driver/Src/stm32h7xx_hal_rcc.c ****   CLEAR_REG(RCC->CDCFGR2);
 324:HAL_Lib/STM32H7xx_HAL_Driver/Src/stm32h7xx_hal_rcc.c **** 
ARM GAS  C:\Users\huav\AppData\Local\Temp\ccAjt8Jj.s 			page 12


 325:HAL_Lib/STM32H7xx_HAL_Driver/Src/stm32h7xx_hal_rcc.c ****   /* Reset SRDCFGR register */
 326:HAL_Lib/STM32H7xx_HAL_Driver/Src/stm32h7xx_hal_rcc.c ****   CLEAR_REG(RCC->SRDCFGR);
 327:HAL_Lib/STM32H7xx_HAL_Driver/Src/stm32h7xx_hal_rcc.c **** #endif
 328:HAL_Lib/STM32H7xx_HAL_Driver/Src/stm32h7xx_hal_rcc.c **** 
 329:HAL_Lib/STM32H7xx_HAL_Driver/Src/stm32h7xx_hal_rcc.c ****   /* Reset PLLCKSELR register to default value */
 330:HAL_Lib/STM32H7xx_HAL_Driver/Src/stm32h7xx_hal_rcc.c ****   RCC->PLLCKSELR = RCC_PLLCKSELR_DIVM1_5 | RCC_PLLCKSELR_DIVM2_5 | RCC_PLLCKSELR_DIVM3_5;
 305              		.loc 1 330 3 view .LVU95
 306              		.loc 1 330 18 is_stmt 0 view .LVU96
 307 0144 1E49     		ldr	r1, .L33+28
 308 0146 9962     		str	r1, [r3, #40]
 331:HAL_Lib/STM32H7xx_HAL_Driver/Src/stm32h7xx_hal_rcc.c **** 
 332:HAL_Lib/STM32H7xx_HAL_Driver/Src/stm32h7xx_hal_rcc.c ****   /* Reset PLLCFGR register to default value */
 333:HAL_Lib/STM32H7xx_HAL_Driver/Src/stm32h7xx_hal_rcc.c ****   WRITE_REG(RCC->PLLCFGR, 0x01FF0000U);
 309              		.loc 1 333 3 is_stmt 1 view .LVU97
 310 0148 1E49     		ldr	r1, .L33+32
 311 014a D962     		str	r1, [r3, #44]
 334:HAL_Lib/STM32H7xx_HAL_Driver/Src/stm32h7xx_hal_rcc.c **** 
 335:HAL_Lib/STM32H7xx_HAL_Driver/Src/stm32h7xx_hal_rcc.c ****   /* Reset PLL1DIVR register to default value */
 336:HAL_Lib/STM32H7xx_HAL_Driver/Src/stm32h7xx_hal_rcc.c ****   WRITE_REG(RCC->PLL1DIVR, 0x01010280U);
 312              		.loc 1 336 3 view .LVU98
 313 014c 1E49     		ldr	r1, .L33+36
 314 014e 1963     		str	r1, [r3, #48]
 337:HAL_Lib/STM32H7xx_HAL_Driver/Src/stm32h7xx_hal_rcc.c **** 
 338:HAL_Lib/STM32H7xx_HAL_Driver/Src/stm32h7xx_hal_rcc.c ****   /* Reset PLL1FRACR register */
 339:HAL_Lib/STM32H7xx_HAL_Driver/Src/stm32h7xx_hal_rcc.c ****   CLEAR_REG(RCC->PLL1FRACR);
 315              		.loc 1 339 3 view .LVU99
 316 0150 5A63     		str	r2, [r3, #52]
 340:HAL_Lib/STM32H7xx_HAL_Driver/Src/stm32h7xx_hal_rcc.c **** 
 341:HAL_Lib/STM32H7xx_HAL_Driver/Src/stm32h7xx_hal_rcc.c ****   /* Reset PLL2DIVR register to default value */
 342:HAL_Lib/STM32H7xx_HAL_Driver/Src/stm32h7xx_hal_rcc.c ****   WRITE_REG(RCC->PLL2DIVR, 0x01010280U);
 317              		.loc 1 342 3 view .LVU100
 318 0152 9963     		str	r1, [r3, #56]
 343:HAL_Lib/STM32H7xx_HAL_Driver/Src/stm32h7xx_hal_rcc.c **** 
 344:HAL_Lib/STM32H7xx_HAL_Driver/Src/stm32h7xx_hal_rcc.c ****   /* Reset PLL2FRACR register */
 345:HAL_Lib/STM32H7xx_HAL_Driver/Src/stm32h7xx_hal_rcc.c ****   CLEAR_REG(RCC->PLL2FRACR);
 319              		.loc 1 345 3 view .LVU101
 320 0154 DA63     		str	r2, [r3, #60]
 346:HAL_Lib/STM32H7xx_HAL_Driver/Src/stm32h7xx_hal_rcc.c **** 
 347:HAL_Lib/STM32H7xx_HAL_Driver/Src/stm32h7xx_hal_rcc.c ****   /* Reset PLL3DIVR register to default value */
 348:HAL_Lib/STM32H7xx_HAL_Driver/Src/stm32h7xx_hal_rcc.c ****   WRITE_REG(RCC->PLL3DIVR, 0x01010280U);
 321              		.loc 1 348 3 view .LVU102
 322 0156 1964     		str	r1, [r3, #64]
 349:HAL_Lib/STM32H7xx_HAL_Driver/Src/stm32h7xx_hal_rcc.c **** 
 350:HAL_Lib/STM32H7xx_HAL_Driver/Src/stm32h7xx_hal_rcc.c ****   /* Reset PLL3FRACR register */
 351:HAL_Lib/STM32H7xx_HAL_Driver/Src/stm32h7xx_hal_rcc.c ****   CLEAR_REG(RCC->PLL3FRACR);
 323              		.loc 1 351 3 view .LVU103
 324 0158 5A64     		str	r2, [r3, #68]
 352:HAL_Lib/STM32H7xx_HAL_Driver/Src/stm32h7xx_hal_rcc.c **** 
 353:HAL_Lib/STM32H7xx_HAL_Driver/Src/stm32h7xx_hal_rcc.c **** #if defined(RCC_CR_HSEEXT)
 354:HAL_Lib/STM32H7xx_HAL_Driver/Src/stm32h7xx_hal_rcc.c ****   /* Reset HSEEXT  */
 355:HAL_Lib/STM32H7xx_HAL_Driver/Src/stm32h7xx_hal_rcc.c ****   CLEAR_BIT(RCC->CR, RCC_CR_HSEEXT);
 356:HAL_Lib/STM32H7xx_HAL_Driver/Src/stm32h7xx_hal_rcc.c **** #endif /* RCC_CR_HSEEXT */
 357:HAL_Lib/STM32H7xx_HAL_Driver/Src/stm32h7xx_hal_rcc.c **** 
 358:HAL_Lib/STM32H7xx_HAL_Driver/Src/stm32h7xx_hal_rcc.c ****   /* Reset HSEBYP bit */
 359:HAL_Lib/STM32H7xx_HAL_Driver/Src/stm32h7xx_hal_rcc.c ****   CLEAR_BIT(RCC->CR, RCC_CR_HSEBYP);
 325              		.loc 1 359 3 view .LVU104
 326 015a 1968     		ldr	r1, [r3]
ARM GAS  C:\Users\huav\AppData\Local\Temp\ccAjt8Jj.s 			page 13


 327 015c 21F48021 		bic	r1, r1, #262144
 328 0160 1960     		str	r1, [r3]
 360:HAL_Lib/STM32H7xx_HAL_Driver/Src/stm32h7xx_hal_rcc.c **** 
 361:HAL_Lib/STM32H7xx_HAL_Driver/Src/stm32h7xx_hal_rcc.c ****   /* Disable all interrupts */
 362:HAL_Lib/STM32H7xx_HAL_Driver/Src/stm32h7xx_hal_rcc.c ****   CLEAR_REG(RCC->CIER);
 329              		.loc 1 362 3 view .LVU105
 330 0162 1A66     		str	r2, [r3, #96]
 363:HAL_Lib/STM32H7xx_HAL_Driver/Src/stm32h7xx_hal_rcc.c **** 
 364:HAL_Lib/STM32H7xx_HAL_Driver/Src/stm32h7xx_hal_rcc.c ****   /* Clear all interrupts flags */
 365:HAL_Lib/STM32H7xx_HAL_Driver/Src/stm32h7xx_hal_rcc.c ****   WRITE_REG(RCC->CICR, 0xFFFFFFFFU);
 331              		.loc 1 365 3 view .LVU106
 332 0164 4FF0FF32 		mov	r2, #-1
 333 0168 9A66     		str	r2, [r3, #104]
 366:HAL_Lib/STM32H7xx_HAL_Driver/Src/stm32h7xx_hal_rcc.c **** 
 367:HAL_Lib/STM32H7xx_HAL_Driver/Src/stm32h7xx_hal_rcc.c ****   /* Reset all RSR flags */
 368:HAL_Lib/STM32H7xx_HAL_Driver/Src/stm32h7xx_hal_rcc.c ****   SET_BIT(RCC->RSR, RCC_RSR_RMVF);
 334              		.loc 1 368 3 view .LVU107
 335 016a D3F8D020 		ldr	r2, [r3, #208]
 336 016e 42F48032 		orr	r2, r2, #65536
 337 0172 C3F8D020 		str	r2, [r3, #208]
 369:HAL_Lib/STM32H7xx_HAL_Driver/Src/stm32h7xx_hal_rcc.c **** 
 370:HAL_Lib/STM32H7xx_HAL_Driver/Src/stm32h7xx_hal_rcc.c ****   /* Decreasing the number of wait states because of lower CPU frequency */
 371:HAL_Lib/STM32H7xx_HAL_Driver/Src/stm32h7xx_hal_rcc.c ****   if (FLASH_LATENCY_DEFAULT < __HAL_FLASH_GET_LATENCY())
 338              		.loc 1 371 3 view .LVU108
 339              		.loc 1 371 31 is_stmt 0 view .LVU109
 340 0176 0B4B     		ldr	r3, .L33
 341 0178 1B68     		ldr	r3, [r3]
 342              		.loc 1 371 6 view .LVU110
 343 017a 13F0080F 		tst	r3, #8
 344 017e 0ED0     		beq	.L3
 372:HAL_Lib/STM32H7xx_HAL_Driver/Src/stm32h7xx_hal_rcc.c ****   {
 373:HAL_Lib/STM32H7xx_HAL_Driver/Src/stm32h7xx_hal_rcc.c ****     /* Program the new number of wait states to the LATENCY bits in the FLASH_ACR register */
 374:HAL_Lib/STM32H7xx_HAL_Driver/Src/stm32h7xx_hal_rcc.c ****     __HAL_FLASH_SET_LATENCY(FLASH_LATENCY_DEFAULT);
 345              		.loc 1 374 5 is_stmt 1 view .LVU111
 346 0180 084A     		ldr	r2, .L33
 347 0182 1368     		ldr	r3, [r2]
 348 0184 23F00F03 		bic	r3, r3, #15
 349 0188 43F00703 		orr	r3, r3, #7
 350 018c 1360     		str	r3, [r2]
 375:HAL_Lib/STM32H7xx_HAL_Driver/Src/stm32h7xx_hal_rcc.c **** 
 376:HAL_Lib/STM32H7xx_HAL_Driver/Src/stm32h7xx_hal_rcc.c ****     /* Check that the new number of wait states is taken into account to access the Flash
 377:HAL_Lib/STM32H7xx_HAL_Driver/Src/stm32h7xx_hal_rcc.c ****     memory by reading the FLASH_ACR register */
 378:HAL_Lib/STM32H7xx_HAL_Driver/Src/stm32h7xx_hal_rcc.c ****     if (__HAL_FLASH_GET_LATENCY() != FLASH_LATENCY_DEFAULT)
 351              		.loc 1 378 5 view .LVU112
 352              		.loc 1 378 9 is_stmt 0 view .LVU113
 353 018e 1368     		ldr	r3, [r2]
 354 0190 03F00F03 		and	r3, r3, #15
 355              		.loc 1 378 8 view .LVU114
 356 0194 072B     		cmp	r3, #7
 357 0196 02D0     		beq	.L3
 379:HAL_Lib/STM32H7xx_HAL_Driver/Src/stm32h7xx_hal_rcc.c ****     {
 380:HAL_Lib/STM32H7xx_HAL_Driver/Src/stm32h7xx_hal_rcc.c ****       return HAL_ERROR;
 358              		.loc 1 380 14 view .LVU115
 359 0198 0124     		movs	r4, #1
 360 019a 00E0     		b	.L3
 361              	.LVL27:
 362              	.L16:
ARM GAS  C:\Users\huav\AppData\Local\Temp\ccAjt8Jj.s 			page 14


 202:HAL_Lib/STM32H7xx_HAL_Driver/Src/stm32h7xx_hal_rcc.c ****     }
 363              		.loc 1 202 14 view .LVU116
 364 019c 0124     		movs	r4, #1
 365              	.L3:
 381:HAL_Lib/STM32H7xx_HAL_Driver/Src/stm32h7xx_hal_rcc.c ****     }
 382:HAL_Lib/STM32H7xx_HAL_Driver/Src/stm32h7xx_hal_rcc.c ****   }
 383:HAL_Lib/STM32H7xx_HAL_Driver/Src/stm32h7xx_hal_rcc.c **** 
 384:HAL_Lib/STM32H7xx_HAL_Driver/Src/stm32h7xx_hal_rcc.c ****   return HAL_OK;
 385:HAL_Lib/STM32H7xx_HAL_Driver/Src/stm32h7xx_hal_rcc.c **** }
 366              		.loc 1 385 1 view .LVU117
 367 019e 2046     		mov	r0, r4
 368 01a0 38BD     		pop	{r3, r4, r5, pc}
 369              	.L34:
 370 01a2 00BF     		.align	2
 371              	.L33:
 372 01a4 00200052 		.word	1375739904
 373 01a8 00440258 		.word	1476543488
 374 01ac 0090D003 		.word	64000000
 375 01b0 00000000 		.word	SystemCoreClock
 376 01b4 00000000 		.word	SystemD2Clock
 377 01b8 00000000 		.word	uwTickPrio
 378 01bc 45EDF6FF 		.word	-594619
 379 01c0 00020202 		.word	33686016
 380 01c4 0000FF01 		.word	33488896
 381 01c8 80020101 		.word	16843392
 382              		.cfi_endproc
 383              	.LFE144:
 385              		.section	.text.HAL_RCC_OscConfig,"ax",%progbits
 386              		.align	1
 387              		.weak	HAL_RCC_OscConfig
 388              		.syntax unified
 389              		.thumb
 390              		.thumb_func
 391              		.fpu fpv5-d16
 393              	HAL_RCC_OscConfig:
 394              	.LVL28:
 395              	.LFB145:
 386:HAL_Lib/STM32H7xx_HAL_Driver/Src/stm32h7xx_hal_rcc.c **** 
 387:HAL_Lib/STM32H7xx_HAL_Driver/Src/stm32h7xx_hal_rcc.c **** /**
 388:HAL_Lib/STM32H7xx_HAL_Driver/Src/stm32h7xx_hal_rcc.c ****  * @brief  Initializes the RCC Oscillators according to the specified parameters in the
 389:HAL_Lib/STM32H7xx_HAL_Driver/Src/stm32h7xx_hal_rcc.c ****  *         RCC_OscInitTypeDef.
 390:HAL_Lib/STM32H7xx_HAL_Driver/Src/stm32h7xx_hal_rcc.c ****  * @param  RCC_OscInitStruct: pointer to an RCC_OscInitTypeDef structure that
 391:HAL_Lib/STM32H7xx_HAL_Driver/Src/stm32h7xx_hal_rcc.c ****  *         contains the configuration information for the RCC Oscillators.
 392:HAL_Lib/STM32H7xx_HAL_Driver/Src/stm32h7xx_hal_rcc.c ****  * @note   The PLL is not disabled when used as system clock.
 393:HAL_Lib/STM32H7xx_HAL_Driver/Src/stm32h7xx_hal_rcc.c ****  * @note   Transitions LSE Bypass to LSE On and LSE On to LSE Bypass are not
 394:HAL_Lib/STM32H7xx_HAL_Driver/Src/stm32h7xx_hal_rcc.c ****  *         supported by this function. User should request a transition to LSE Off
 395:HAL_Lib/STM32H7xx_HAL_Driver/Src/stm32h7xx_hal_rcc.c ****  *         first and then LSE On or LSE Bypass.
 396:HAL_Lib/STM32H7xx_HAL_Driver/Src/stm32h7xx_hal_rcc.c ****  * @note   Transition HSE Bypass to HSE On and HSE On to HSE Bypass are not
 397:HAL_Lib/STM32H7xx_HAL_Driver/Src/stm32h7xx_hal_rcc.c ****  *         supported by this function. User should request a transition to HSE Off
 398:HAL_Lib/STM32H7xx_HAL_Driver/Src/stm32h7xx_hal_rcc.c ****  *         first and then HSE On or HSE Bypass.
 399:HAL_Lib/STM32H7xx_HAL_Driver/Src/stm32h7xx_hal_rcc.c ****  * @retval HAL status
 400:HAL_Lib/STM32H7xx_HAL_Driver/Src/stm32h7xx_hal_rcc.c ****  */
 401:HAL_Lib/STM32H7xx_HAL_Driver/Src/stm32h7xx_hal_rcc.c **** __weak HAL_StatusTypeDef HAL_RCC_OscConfig(RCC_OscInitTypeDef *RCC_OscInitStruct)
 402:HAL_Lib/STM32H7xx_HAL_Driver/Src/stm32h7xx_hal_rcc.c **** {
 396              		.loc 1 402 1 is_stmt 1 view -0
 397              		.cfi_startproc
 398              		@ args = 0, pretend = 0, frame = 0
ARM GAS  C:\Users\huav\AppData\Local\Temp\ccAjt8Jj.s 			page 15


 399              		@ frame_needed = 0, uses_anonymous_args = 0
 403:HAL_Lib/STM32H7xx_HAL_Driver/Src/stm32h7xx_hal_rcc.c ****   uint32_t tickstart;
 400              		.loc 1 403 3 view .LVU119
 404:HAL_Lib/STM32H7xx_HAL_Driver/Src/stm32h7xx_hal_rcc.c ****   uint32_t temp1_pllckcfg, temp2_pllckcfg;
 401              		.loc 1 404 3 view .LVU120
 405:HAL_Lib/STM32H7xx_HAL_Driver/Src/stm32h7xx_hal_rcc.c **** 
 406:HAL_Lib/STM32H7xx_HAL_Driver/Src/stm32h7xx_hal_rcc.c ****   /* Check Null pointer */
 407:HAL_Lib/STM32H7xx_HAL_Driver/Src/stm32h7xx_hal_rcc.c ****   if (RCC_OscInitStruct == NULL)
 402              		.loc 1 407 3 view .LVU121
 403              		.loc 1 407 6 is_stmt 0 view .LVU122
 404 0000 0028     		cmp	r0, #0
 405 0002 00F01883 		beq	.L109
 402:HAL_Lib/STM32H7xx_HAL_Driver/Src/stm32h7xx_hal_rcc.c ****   uint32_t tickstart;
 406              		.loc 1 402 1 view .LVU123
 407 0006 38B5     		push	{r3, r4, r5, lr}
 408              	.LCFI1:
 409              		.cfi_def_cfa_offset 16
 410              		.cfi_offset 3, -16
 411              		.cfi_offset 4, -12
 412              		.cfi_offset 5, -8
 413              		.cfi_offset 14, -4
 414 0008 0446     		mov	r4, r0
 408:HAL_Lib/STM32H7xx_HAL_Driver/Src/stm32h7xx_hal_rcc.c ****   {
 409:HAL_Lib/STM32H7xx_HAL_Driver/Src/stm32h7xx_hal_rcc.c ****     return HAL_ERROR;
 410:HAL_Lib/STM32H7xx_HAL_Driver/Src/stm32h7xx_hal_rcc.c ****   }
 411:HAL_Lib/STM32H7xx_HAL_Driver/Src/stm32h7xx_hal_rcc.c **** 
 412:HAL_Lib/STM32H7xx_HAL_Driver/Src/stm32h7xx_hal_rcc.c ****   /* Check the parameters */
 413:HAL_Lib/STM32H7xx_HAL_Driver/Src/stm32h7xx_hal_rcc.c ****   assert_param(IS_RCC_OSCILLATORTYPE(RCC_OscInitStruct->OscillatorType));
 415              		.loc 1 413 3 is_stmt 1 view .LVU124
 414:HAL_Lib/STM32H7xx_HAL_Driver/Src/stm32h7xx_hal_rcc.c ****   /*------------------------------- HSE Configuration ------------------------*/
 415:HAL_Lib/STM32H7xx_HAL_Driver/Src/stm32h7xx_hal_rcc.c ****   if (((RCC_OscInitStruct->OscillatorType) & RCC_OSCILLATORTYPE_HSE) == RCC_OSCILLATORTYPE_HSE)
 416              		.loc 1 415 3 view .LVU125
 417              		.loc 1 415 26 is_stmt 0 view .LVU126
 418 000a 0368     		ldr	r3, [r0]
 419              		.loc 1 415 6 view .LVU127
 420 000c 13F0010F 		tst	r3, #1
 421 0010 25D0     		beq	.L37
 422              	.LBB2:
 416:HAL_Lib/STM32H7xx_HAL_Driver/Src/stm32h7xx_hal_rcc.c ****   {
 417:HAL_Lib/STM32H7xx_HAL_Driver/Src/stm32h7xx_hal_rcc.c ****     /* Check the parameters */
 418:HAL_Lib/STM32H7xx_HAL_Driver/Src/stm32h7xx_hal_rcc.c ****     assert_param(IS_RCC_HSE(RCC_OscInitStruct->HSEState));
 423              		.loc 1 418 5 is_stmt 1 view .LVU128
 419:HAL_Lib/STM32H7xx_HAL_Driver/Src/stm32h7xx_hal_rcc.c **** 
 420:HAL_Lib/STM32H7xx_HAL_Driver/Src/stm32h7xx_hal_rcc.c ****     const uint32_t temp_sysclksrc = __HAL_RCC_GET_SYSCLK_SOURCE();
 424              		.loc 1 420 5 view .LVU129
 425              		.loc 1 420 37 is_stmt 0 view .LVU130
 426 0012 944A     		ldr	r2, .L163
 427 0014 1369     		ldr	r3, [r2, #16]
 428              		.loc 1 420 20 view .LVU131
 429 0016 03F03803 		and	r3, r3, #56
 430              	.LVL29:
 421:HAL_Lib/STM32H7xx_HAL_Driver/Src/stm32h7xx_hal_rcc.c ****     const uint32_t temp_pllckselr = RCC->PLLCKSELR;
 431              		.loc 1 421 5 is_stmt 1 view .LVU132
 432              		.loc 1 421 20 is_stmt 0 view .LVU133
 433 001a 926A     		ldr	r2, [r2, #40]
 434              	.LVL30:
 422:HAL_Lib/STM32H7xx_HAL_Driver/Src/stm32h7xx_hal_rcc.c ****     /* When the HSE is used as system clock or clock source for PLL in these cases HSE will not dis
ARM GAS  C:\Users\huav\AppData\Local\Temp\ccAjt8Jj.s 			page 16


 423:HAL_Lib/STM32H7xx_HAL_Driver/Src/stm32h7xx_hal_rcc.c ****     if ((temp_sysclksrc == RCC_CFGR_SWS_HSE) || ((temp_sysclksrc == RCC_CFGR_SWS_PLL1) && ((temp_pl
 435              		.loc 1 423 5 is_stmt 1 view .LVU134
 436              		.loc 1 423 8 is_stmt 0 view .LVU135
 437 001c 102B     		cmp	r3, #16
 438 001e 15D0     		beq	.L38
 439              		.loc 1 423 46 discriminator 1 view .LVU136
 440 0020 182B     		cmp	r3, #24
 441 0022 0FD0     		beq	.L142
 442              	.LVL31:
 443              	.L39:
 424:HAL_Lib/STM32H7xx_HAL_Driver/Src/stm32h7xx_hal_rcc.c ****     {
 425:HAL_Lib/STM32H7xx_HAL_Driver/Src/stm32h7xx_hal_rcc.c ****       if ((__HAL_RCC_GET_FLAG(RCC_FLAG_HSERDY) != 0U) && (RCC_OscInitStruct->HSEState == RCC_HSE_OF
 426:HAL_Lib/STM32H7xx_HAL_Driver/Src/stm32h7xx_hal_rcc.c ****       {
 427:HAL_Lib/STM32H7xx_HAL_Driver/Src/stm32h7xx_hal_rcc.c ****         return HAL_ERROR;
 428:HAL_Lib/STM32H7xx_HAL_Driver/Src/stm32h7xx_hal_rcc.c ****       }
 429:HAL_Lib/STM32H7xx_HAL_Driver/Src/stm32h7xx_hal_rcc.c ****     }
 430:HAL_Lib/STM32H7xx_HAL_Driver/Src/stm32h7xx_hal_rcc.c ****     else
 431:HAL_Lib/STM32H7xx_HAL_Driver/Src/stm32h7xx_hal_rcc.c ****     {
 432:HAL_Lib/STM32H7xx_HAL_Driver/Src/stm32h7xx_hal_rcc.c ****       /* Set the new HSE configuration ---------------------------------------*/
 433:HAL_Lib/STM32H7xx_HAL_Driver/Src/stm32h7xx_hal_rcc.c ****       __HAL_RCC_HSE_CONFIG(RCC_OscInitStruct->HSEState);
 444              		.loc 1 433 7 is_stmt 1 view .LVU137
 445              		.loc 1 433 7 view .LVU138
 446 0024 6368     		ldr	r3, [r4, #4]
 447              	.LVL32:
 448              		.loc 1 433 7 is_stmt 0 view .LVU139
 449 0026 B3F5803F 		cmp	r3, #65536
 450 002a 3FD0     		beq	.L143
 451              		.loc 1 433 7 is_stmt 1 discriminator 2 view .LVU140
 452 002c 002B     		cmp	r3, #0
 453 002e 53D1     		bne	.L42
 454              		.loc 1 433 7 discriminator 4 view .LVU141
 455 0030 8C4B     		ldr	r3, .L163
 456 0032 1A68     		ldr	r2, [r3]
 457 0034 22F48032 		bic	r2, r2, #65536
 458 0038 1A60     		str	r2, [r3]
 459              		.loc 1 433 7 discriminator 4 view .LVU142
 460 003a 1A68     		ldr	r2, [r3]
 461 003c 22F48022 		bic	r2, r2, #262144
 462 0040 1A60     		str	r2, [r3]
 463 0042 38E0     		b	.L41
 464              	.LVL33:
 465              	.L142:
 423:HAL_Lib/STM32H7xx_HAL_Driver/Src/stm32h7xx_hal_rcc.c ****     {
 466              		.loc 1 423 108 is_stmt 0 discriminator 2 view .LVU143
 467 0044 02F00302 		and	r2, r2, #3
 468              	.LVL34:
 423:HAL_Lib/STM32H7xx_HAL_Driver/Src/stm32h7xx_hal_rcc.c ****     {
 469              		.loc 1 423 88 discriminator 2 view .LVU144
 470 0048 022A     		cmp	r2, #2
 471 004a EBD1     		bne	.L39
 472              	.L38:
 425:HAL_Lib/STM32H7xx_HAL_Driver/Src/stm32h7xx_hal_rcc.c ****       {
 473              		.loc 1 425 7 is_stmt 1 view .LVU145
 425:HAL_Lib/STM32H7xx_HAL_Driver/Src/stm32h7xx_hal_rcc.c ****       {
 474              		.loc 1 425 12 is_stmt 0 view .LVU146
 475 004c 854B     		ldr	r3, .L163
 476              	.LVL35:
ARM GAS  C:\Users\huav\AppData\Local\Temp\ccAjt8Jj.s 			page 17


 425:HAL_Lib/STM32H7xx_HAL_Driver/Src/stm32h7xx_hal_rcc.c ****       {
 477              		.loc 1 425 12 view .LVU147
 478 004e 1B68     		ldr	r3, [r3]
 425:HAL_Lib/STM32H7xx_HAL_Driver/Src/stm32h7xx_hal_rcc.c ****       {
 479              		.loc 1 425 10 view .LVU148
 480 0050 13F4003F 		tst	r3, #131072
 481 0054 03D0     		beq	.L37
 425:HAL_Lib/STM32H7xx_HAL_Driver/Src/stm32h7xx_hal_rcc.c ****       {
 482              		.loc 1 425 76 discriminator 1 view .LVU149
 483 0056 6368     		ldr	r3, [r4, #4]
 425:HAL_Lib/STM32H7xx_HAL_Driver/Src/stm32h7xx_hal_rcc.c ****       {
 484              		.loc 1 425 55 discriminator 1 view .LVU150
 485 0058 002B     		cmp	r3, #0
 486 005a 00F0EE82 		beq	.L144
 487              	.LVL36:
 488              	.L37:
 425:HAL_Lib/STM32H7xx_HAL_Driver/Src/stm32h7xx_hal_rcc.c ****       {
 489              		.loc 1 425 55 discriminator 1 view .LVU151
 490              	.LBE2:
 434:HAL_Lib/STM32H7xx_HAL_Driver/Src/stm32h7xx_hal_rcc.c **** 
 435:HAL_Lib/STM32H7xx_HAL_Driver/Src/stm32h7xx_hal_rcc.c ****       /* Check the HSE State */
 436:HAL_Lib/STM32H7xx_HAL_Driver/Src/stm32h7xx_hal_rcc.c ****       if (RCC_OscInitStruct->HSEState != RCC_HSE_OFF)
 437:HAL_Lib/STM32H7xx_HAL_Driver/Src/stm32h7xx_hal_rcc.c ****       {
 438:HAL_Lib/STM32H7xx_HAL_Driver/Src/stm32h7xx_hal_rcc.c ****         /* Get Start Tick*/
 439:HAL_Lib/STM32H7xx_HAL_Driver/Src/stm32h7xx_hal_rcc.c ****         tickstart = HAL_GetTick();
 440:HAL_Lib/STM32H7xx_HAL_Driver/Src/stm32h7xx_hal_rcc.c **** 
 441:HAL_Lib/STM32H7xx_HAL_Driver/Src/stm32h7xx_hal_rcc.c ****         /* Wait till HSE is ready */
 442:HAL_Lib/STM32H7xx_HAL_Driver/Src/stm32h7xx_hal_rcc.c ****         while (__HAL_RCC_GET_FLAG(RCC_FLAG_HSERDY) == 0U)
 443:HAL_Lib/STM32H7xx_HAL_Driver/Src/stm32h7xx_hal_rcc.c ****         {
 444:HAL_Lib/STM32H7xx_HAL_Driver/Src/stm32h7xx_hal_rcc.c ****           if ((uint32_t)(HAL_GetTick() - tickstart) > HSE_TIMEOUT_VALUE)
 445:HAL_Lib/STM32H7xx_HAL_Driver/Src/stm32h7xx_hal_rcc.c ****           {
 446:HAL_Lib/STM32H7xx_HAL_Driver/Src/stm32h7xx_hal_rcc.c ****             return HAL_TIMEOUT;
 447:HAL_Lib/STM32H7xx_HAL_Driver/Src/stm32h7xx_hal_rcc.c ****           }
 448:HAL_Lib/STM32H7xx_HAL_Driver/Src/stm32h7xx_hal_rcc.c ****         }
 449:HAL_Lib/STM32H7xx_HAL_Driver/Src/stm32h7xx_hal_rcc.c ****       }
 450:HAL_Lib/STM32H7xx_HAL_Driver/Src/stm32h7xx_hal_rcc.c ****       else
 451:HAL_Lib/STM32H7xx_HAL_Driver/Src/stm32h7xx_hal_rcc.c ****       {
 452:HAL_Lib/STM32H7xx_HAL_Driver/Src/stm32h7xx_hal_rcc.c ****         /* Get Start Tick*/
 453:HAL_Lib/STM32H7xx_HAL_Driver/Src/stm32h7xx_hal_rcc.c ****         tickstart = HAL_GetTick();
 454:HAL_Lib/STM32H7xx_HAL_Driver/Src/stm32h7xx_hal_rcc.c **** 
 455:HAL_Lib/STM32H7xx_HAL_Driver/Src/stm32h7xx_hal_rcc.c ****         /* Wait till HSE is disabled */
 456:HAL_Lib/STM32H7xx_HAL_Driver/Src/stm32h7xx_hal_rcc.c ****         while (__HAL_RCC_GET_FLAG(RCC_FLAG_HSERDY) != 0U)
 457:HAL_Lib/STM32H7xx_HAL_Driver/Src/stm32h7xx_hal_rcc.c ****         {
 458:HAL_Lib/STM32H7xx_HAL_Driver/Src/stm32h7xx_hal_rcc.c ****           if ((uint32_t)(HAL_GetTick() - tickstart) > HSE_TIMEOUT_VALUE)
 459:HAL_Lib/STM32H7xx_HAL_Driver/Src/stm32h7xx_hal_rcc.c ****           {
 460:HAL_Lib/STM32H7xx_HAL_Driver/Src/stm32h7xx_hal_rcc.c ****             return HAL_TIMEOUT;
 461:HAL_Lib/STM32H7xx_HAL_Driver/Src/stm32h7xx_hal_rcc.c ****           }
 462:HAL_Lib/STM32H7xx_HAL_Driver/Src/stm32h7xx_hal_rcc.c ****         }
 463:HAL_Lib/STM32H7xx_HAL_Driver/Src/stm32h7xx_hal_rcc.c ****       }
 464:HAL_Lib/STM32H7xx_HAL_Driver/Src/stm32h7xx_hal_rcc.c ****     }
 465:HAL_Lib/STM32H7xx_HAL_Driver/Src/stm32h7xx_hal_rcc.c ****   }
 466:HAL_Lib/STM32H7xx_HAL_Driver/Src/stm32h7xx_hal_rcc.c ****   /*----------------------------- HSI Configuration --------------------------*/
 467:HAL_Lib/STM32H7xx_HAL_Driver/Src/stm32h7xx_hal_rcc.c ****   if (((RCC_OscInitStruct->OscillatorType) & RCC_OSCILLATORTYPE_HSI) == RCC_OSCILLATORTYPE_HSI)
 491              		.loc 1 467 3 is_stmt 1 view .LVU152
 492              		.loc 1 467 26 is_stmt 0 view .LVU153
 493 005e 2368     		ldr	r3, [r4]
 494              		.loc 1 467 6 view .LVU154
ARM GAS  C:\Users\huav\AppData\Local\Temp\ccAjt8Jj.s 			page 18


 495 0060 13F0020F 		tst	r3, #2
 496 0064 00F0A180 		beq	.L49
 497              	.LBB3:
 468:HAL_Lib/STM32H7xx_HAL_Driver/Src/stm32h7xx_hal_rcc.c ****   {
 469:HAL_Lib/STM32H7xx_HAL_Driver/Src/stm32h7xx_hal_rcc.c ****     /* Check the parameters */
 470:HAL_Lib/STM32H7xx_HAL_Driver/Src/stm32h7xx_hal_rcc.c ****     assert_param(IS_RCC_HSI(RCC_OscInitStruct->HSIState));
 498              		.loc 1 470 5 is_stmt 1 view .LVU155
 471:HAL_Lib/STM32H7xx_HAL_Driver/Src/stm32h7xx_hal_rcc.c ****     assert_param(IS_RCC_HSICALIBRATION_VALUE(RCC_OscInitStruct->HSICalibrationValue));
 499              		.loc 1 471 5 view .LVU156
 472:HAL_Lib/STM32H7xx_HAL_Driver/Src/stm32h7xx_hal_rcc.c **** 
 473:HAL_Lib/STM32H7xx_HAL_Driver/Src/stm32h7xx_hal_rcc.c ****     /* When the HSI is used as system clock it will not be disabled */
 474:HAL_Lib/STM32H7xx_HAL_Driver/Src/stm32h7xx_hal_rcc.c ****     const uint32_t temp_sysclksrc = __HAL_RCC_GET_SYSCLK_SOURCE();
 500              		.loc 1 474 5 view .LVU157
 501              		.loc 1 474 37 is_stmt 0 view .LVU158
 502 0068 7E4A     		ldr	r2, .L163
 503 006a 1369     		ldr	r3, [r2, #16]
 504              	.LVL37:
 475:HAL_Lib/STM32H7xx_HAL_Driver/Src/stm32h7xx_hal_rcc.c ****     const uint32_t temp_pllckselr = RCC->PLLCKSELR;
 505              		.loc 1 475 5 is_stmt 1 view .LVU159
 506              		.loc 1 475 20 is_stmt 0 view .LVU160
 507 006c 926A     		ldr	r2, [r2, #40]
 508              	.LVL38:
 476:HAL_Lib/STM32H7xx_HAL_Driver/Src/stm32h7xx_hal_rcc.c ****     if ((temp_sysclksrc == RCC_CFGR_SWS_HSI) || ((temp_sysclksrc == RCC_CFGR_SWS_PLL1) && ((temp_pl
 509              		.loc 1 476 5 is_stmt 1 view .LVU161
 510              		.loc 1 476 8 is_stmt 0 view .LVU162
 511 006e 13F03803 		ands	r3, r3, #56
 512              	.LVL39:
 513              		.loc 1 476 8 view .LVU163
 514 0072 5AD0     		beq	.L50
 515              		.loc 1 476 46 discriminator 1 view .LVU164
 516 0074 182B     		cmp	r3, #24
 517 0076 55D0     		beq	.L145
 518              	.L51:
 477:HAL_Lib/STM32H7xx_HAL_Driver/Src/stm32h7xx_hal_rcc.c ****     {
 478:HAL_Lib/STM32H7xx_HAL_Driver/Src/stm32h7xx_hal_rcc.c ****       /* When HSI is used as system clock it will not be disabled */
 479:HAL_Lib/STM32H7xx_HAL_Driver/Src/stm32h7xx_hal_rcc.c ****       if ((__HAL_RCC_GET_FLAG(RCC_FLAG_HSIRDY) != 0U) && (RCC_OscInitStruct->HSIState == RCC_HSI_OF
 480:HAL_Lib/STM32H7xx_HAL_Driver/Src/stm32h7xx_hal_rcc.c ****       {
 481:HAL_Lib/STM32H7xx_HAL_Driver/Src/stm32h7xx_hal_rcc.c ****         return HAL_ERROR;
 482:HAL_Lib/STM32H7xx_HAL_Driver/Src/stm32h7xx_hal_rcc.c ****       }
 483:HAL_Lib/STM32H7xx_HAL_Driver/Src/stm32h7xx_hal_rcc.c ****       /* Otherwise, only HSI division and calibration are allowed */
 484:HAL_Lib/STM32H7xx_HAL_Driver/Src/stm32h7xx_hal_rcc.c ****       else
 485:HAL_Lib/STM32H7xx_HAL_Driver/Src/stm32h7xx_hal_rcc.c ****       {
 486:HAL_Lib/STM32H7xx_HAL_Driver/Src/stm32h7xx_hal_rcc.c ****         /* Enable the Internal High Speed oscillator (HSI, HSIDIV2, HSIDIV4, or HSIDIV8) */
 487:HAL_Lib/STM32H7xx_HAL_Driver/Src/stm32h7xx_hal_rcc.c ****         __HAL_RCC_HSI_CONFIG(RCC_OscInitStruct->HSIState);
 488:HAL_Lib/STM32H7xx_HAL_Driver/Src/stm32h7xx_hal_rcc.c **** 
 489:HAL_Lib/STM32H7xx_HAL_Driver/Src/stm32h7xx_hal_rcc.c ****         /* Get Start Tick*/
 490:HAL_Lib/STM32H7xx_HAL_Driver/Src/stm32h7xx_hal_rcc.c ****         tickstart = HAL_GetTick();
 491:HAL_Lib/STM32H7xx_HAL_Driver/Src/stm32h7xx_hal_rcc.c **** 
 492:HAL_Lib/STM32H7xx_HAL_Driver/Src/stm32h7xx_hal_rcc.c ****         /* Wait till HSI is ready */
 493:HAL_Lib/STM32H7xx_HAL_Driver/Src/stm32h7xx_hal_rcc.c ****         while (__HAL_RCC_GET_FLAG(RCC_FLAG_HSIRDY) == 0U)
 494:HAL_Lib/STM32H7xx_HAL_Driver/Src/stm32h7xx_hal_rcc.c ****         {
 495:HAL_Lib/STM32H7xx_HAL_Driver/Src/stm32h7xx_hal_rcc.c ****           if ((uint32_t)(HAL_GetTick() - tickstart) > HSI_TIMEOUT_VALUE)
 496:HAL_Lib/STM32H7xx_HAL_Driver/Src/stm32h7xx_hal_rcc.c ****           {
 497:HAL_Lib/STM32H7xx_HAL_Driver/Src/stm32h7xx_hal_rcc.c ****             return HAL_TIMEOUT;
 498:HAL_Lib/STM32H7xx_HAL_Driver/Src/stm32h7xx_hal_rcc.c ****           }
 499:HAL_Lib/STM32H7xx_HAL_Driver/Src/stm32h7xx_hal_rcc.c ****         }
 500:HAL_Lib/STM32H7xx_HAL_Driver/Src/stm32h7xx_hal_rcc.c ****         /* Adjusts the Internal High Speed oscillator (HSI) calibration value.*/
ARM GAS  C:\Users\huav\AppData\Local\Temp\ccAjt8Jj.s 			page 19


 501:HAL_Lib/STM32H7xx_HAL_Driver/Src/stm32h7xx_hal_rcc.c ****         __HAL_RCC_HSI_CALIBRATIONVALUE_ADJUST(RCC_OscInitStruct->HSICalibrationValue);
 502:HAL_Lib/STM32H7xx_HAL_Driver/Src/stm32h7xx_hal_rcc.c ****       }
 503:HAL_Lib/STM32H7xx_HAL_Driver/Src/stm32h7xx_hal_rcc.c ****     }
 504:HAL_Lib/STM32H7xx_HAL_Driver/Src/stm32h7xx_hal_rcc.c **** 
 505:HAL_Lib/STM32H7xx_HAL_Driver/Src/stm32h7xx_hal_rcc.c ****     else
 506:HAL_Lib/STM32H7xx_HAL_Driver/Src/stm32h7xx_hal_rcc.c ****     {
 507:HAL_Lib/STM32H7xx_HAL_Driver/Src/stm32h7xx_hal_rcc.c ****       /* Check the HSI State */
 508:HAL_Lib/STM32H7xx_HAL_Driver/Src/stm32h7xx_hal_rcc.c ****       if ((RCC_OscInitStruct->HSIState) != RCC_HSI_OFF)
 519              		.loc 1 508 7 is_stmt 1 view .LVU165
 520              		.loc 1 508 29 is_stmt 0 view .LVU166
 521 0078 E368     		ldr	r3, [r4, #12]
 522              	.LVL40:
 523              		.loc 1 508 10 view .LVU167
 524 007a 002B     		cmp	r3, #0
 525 007c 00F0DE80 		beq	.L57
 509:HAL_Lib/STM32H7xx_HAL_Driver/Src/stm32h7xx_hal_rcc.c ****       {
 510:HAL_Lib/STM32H7xx_HAL_Driver/Src/stm32h7xx_hal_rcc.c ****         /* Enable the Internal High Speed oscillator (HSI, HSIDIV2,HSIDIV4, or HSIDIV8) */
 511:HAL_Lib/STM32H7xx_HAL_Driver/Src/stm32h7xx_hal_rcc.c ****         __HAL_RCC_HSI_CONFIG(RCC_OscInitStruct->HSIState);
 526              		.loc 1 511 9 is_stmt 1 view .LVU168
 527 0080 7849     		ldr	r1, .L163
 528 0082 0A68     		ldr	r2, [r1]
 529              	.LVL41:
 530              		.loc 1 511 9 is_stmt 0 view .LVU169
 531 0084 22F01902 		bic	r2, r2, #25
 532 0088 1343     		orrs	r3, r3, r2
 533 008a 0B60     		str	r3, [r1]
 512:HAL_Lib/STM32H7xx_HAL_Driver/Src/stm32h7xx_hal_rcc.c **** 
 513:HAL_Lib/STM32H7xx_HAL_Driver/Src/stm32h7xx_hal_rcc.c ****         /* Get Start Tick*/
 514:HAL_Lib/STM32H7xx_HAL_Driver/Src/stm32h7xx_hal_rcc.c ****         tickstart = HAL_GetTick();
 534              		.loc 1 514 9 is_stmt 1 view .LVU170
 535              		.loc 1 514 21 is_stmt 0 view .LVU171
 536 008c FFF7FEFF 		bl	HAL_GetTick
 537              	.LVL42:
 538 0090 0546     		mov	r5, r0
 539              	.LVL43:
 515:HAL_Lib/STM32H7xx_HAL_Driver/Src/stm32h7xx_hal_rcc.c **** 
 516:HAL_Lib/STM32H7xx_HAL_Driver/Src/stm32h7xx_hal_rcc.c ****         /* Wait till HSI is ready */
 517:HAL_Lib/STM32H7xx_HAL_Driver/Src/stm32h7xx_hal_rcc.c ****         while (__HAL_RCC_GET_FLAG(RCC_FLAG_HSIRDY) == 0U)
 540              		.loc 1 517 9 is_stmt 1 view .LVU172
 541              	.L58:
 542              		.loc 1 517 15 view .LVU173
 543              		.loc 1 517 16 is_stmt 0 view .LVU174
 544 0092 744B     		ldr	r3, .L163
 545 0094 1B68     		ldr	r3, [r3]
 546              		.loc 1 517 15 view .LVU175
 547 0096 13F0040F 		tst	r3, #4
 548 009a 40F0AD80 		bne	.L146
 518:HAL_Lib/STM32H7xx_HAL_Driver/Src/stm32h7xx_hal_rcc.c ****         {
 519:HAL_Lib/STM32H7xx_HAL_Driver/Src/stm32h7xx_hal_rcc.c ****           if ((HAL_GetTick() - tickstart) > HSI_TIMEOUT_VALUE)
 549              		.loc 1 519 11 is_stmt 1 view .LVU176
 550              		.loc 1 519 16 is_stmt 0 view .LVU177
 551 009e FFF7FEFF 		bl	HAL_GetTick
 552              	.LVL44:
 553              		.loc 1 519 30 view .LVU178
 554 00a2 401B     		subs	r0, r0, r5
 555              		.loc 1 519 14 view .LVU179
 556 00a4 0228     		cmp	r0, #2
ARM GAS  C:\Users\huav\AppData\Local\Temp\ccAjt8Jj.s 			page 20


 557 00a6 F4D9     		bls	.L58
 520:HAL_Lib/STM32H7xx_HAL_Driver/Src/stm32h7xx_hal_rcc.c ****           {
 521:HAL_Lib/STM32H7xx_HAL_Driver/Src/stm32h7xx_hal_rcc.c ****             return HAL_TIMEOUT;
 558              		.loc 1 521 20 view .LVU180
 559 00a8 0320     		movs	r0, #3
 560 00aa CDE2     		b	.L36
 561              	.LVL45:
 562              	.L143:
 563              		.loc 1 521 20 view .LVU181
 564              	.LBE3:
 565              	.LBB4:
 433:HAL_Lib/STM32H7xx_HAL_Driver/Src/stm32h7xx_hal_rcc.c **** 
 566              		.loc 1 433 7 is_stmt 1 discriminator 1 view .LVU182
 567 00ac 6D4A     		ldr	r2, .L163
 568 00ae 1368     		ldr	r3, [r2]
 569 00b0 43F48033 		orr	r3, r3, #65536
 570 00b4 1360     		str	r3, [r2]
 571              	.L41:
 433:HAL_Lib/STM32H7xx_HAL_Driver/Src/stm32h7xx_hal_rcc.c **** 
 572              		.loc 1 433 7 discriminator 10 view .LVU183
 436:HAL_Lib/STM32H7xx_HAL_Driver/Src/stm32h7xx_hal_rcc.c ****       {
 573              		.loc 1 436 7 discriminator 10 view .LVU184
 436:HAL_Lib/STM32H7xx_HAL_Driver/Src/stm32h7xx_hal_rcc.c ****       {
 574              		.loc 1 436 28 is_stmt 0 discriminator 10 view .LVU185
 575 00b6 6368     		ldr	r3, [r4, #4]
 436:HAL_Lib/STM32H7xx_HAL_Driver/Src/stm32h7xx_hal_rcc.c ****       {
 576              		.loc 1 436 10 discriminator 10 view .LVU186
 577 00b8 2BB3     		cbz	r3, .L44
 439:HAL_Lib/STM32H7xx_HAL_Driver/Src/stm32h7xx_hal_rcc.c **** 
 578              		.loc 1 439 9 is_stmt 1 view .LVU187
 439:HAL_Lib/STM32H7xx_HAL_Driver/Src/stm32h7xx_hal_rcc.c **** 
 579              		.loc 1 439 21 is_stmt 0 view .LVU188
 580 00ba FFF7FEFF 		bl	HAL_GetTick
 581              	.LVL46:
 439:HAL_Lib/STM32H7xx_HAL_Driver/Src/stm32h7xx_hal_rcc.c **** 
 582              		.loc 1 439 21 view .LVU189
 583 00be 0546     		mov	r5, r0
 584              	.LVL47:
 442:HAL_Lib/STM32H7xx_HAL_Driver/Src/stm32h7xx_hal_rcc.c ****         {
 585              		.loc 1 442 9 is_stmt 1 view .LVU190
 586              	.L45:
 442:HAL_Lib/STM32H7xx_HAL_Driver/Src/stm32h7xx_hal_rcc.c ****         {
 587              		.loc 1 442 15 view .LVU191
 442:HAL_Lib/STM32H7xx_HAL_Driver/Src/stm32h7xx_hal_rcc.c ****         {
 588              		.loc 1 442 16 is_stmt 0 view .LVU192
 589 00c0 684B     		ldr	r3, .L163
 590 00c2 1B68     		ldr	r3, [r3]
 442:HAL_Lib/STM32H7xx_HAL_Driver/Src/stm32h7xx_hal_rcc.c ****         {
 591              		.loc 1 442 15 view .LVU193
 592 00c4 13F4003F 		tst	r3, #131072
 593 00c8 C9D1     		bne	.L37
 444:HAL_Lib/STM32H7xx_HAL_Driver/Src/stm32h7xx_hal_rcc.c ****           {
 594              		.loc 1 444 11 is_stmt 1 view .LVU194
 444:HAL_Lib/STM32H7xx_HAL_Driver/Src/stm32h7xx_hal_rcc.c ****           {
 595              		.loc 1 444 26 is_stmt 0 view .LVU195
 596 00ca FFF7FEFF 		bl	HAL_GetTick
 597              	.LVL48:
ARM GAS  C:\Users\huav\AppData\Local\Temp\ccAjt8Jj.s 			page 21


 444:HAL_Lib/STM32H7xx_HAL_Driver/Src/stm32h7xx_hal_rcc.c ****           {
 598              		.loc 1 444 40 view .LVU196
 599 00ce 401B     		subs	r0, r0, r5
 444:HAL_Lib/STM32H7xx_HAL_Driver/Src/stm32h7xx_hal_rcc.c ****           {
 600              		.loc 1 444 14 view .LVU197
 601 00d0 6428     		cmp	r0, #100
 602 00d2 F5D9     		bls	.L45
 446:HAL_Lib/STM32H7xx_HAL_Driver/Src/stm32h7xx_hal_rcc.c ****           }
 603              		.loc 1 446 20 view .LVU198
 604 00d4 0320     		movs	r0, #3
 605 00d6 B7E2     		b	.L36
 606              	.LVL49:
 607              	.L42:
 433:HAL_Lib/STM32H7xx_HAL_Driver/Src/stm32h7xx_hal_rcc.c **** 
 608              		.loc 1 433 7 is_stmt 1 discriminator 5 view .LVU199
 609 00d8 B3F5A02F 		cmp	r3, #327680
 610 00dc 09D0     		beq	.L147
 433:HAL_Lib/STM32H7xx_HAL_Driver/Src/stm32h7xx_hal_rcc.c **** 
 611              		.loc 1 433 7 discriminator 8 view .LVU200
 612 00de 614B     		ldr	r3, .L163
 613 00e0 1A68     		ldr	r2, [r3]
 614 00e2 22F48032 		bic	r2, r2, #65536
 615 00e6 1A60     		str	r2, [r3]
 433:HAL_Lib/STM32H7xx_HAL_Driver/Src/stm32h7xx_hal_rcc.c **** 
 616              		.loc 1 433 7 discriminator 8 view .LVU201
 617 00e8 1A68     		ldr	r2, [r3]
 618 00ea 22F48022 		bic	r2, r2, #262144
 619 00ee 1A60     		str	r2, [r3]
 620 00f0 E1E7     		b	.L41
 621              	.L147:
 433:HAL_Lib/STM32H7xx_HAL_Driver/Src/stm32h7xx_hal_rcc.c **** 
 622              		.loc 1 433 7 discriminator 7 view .LVU202
 623 00f2 5C4B     		ldr	r3, .L163
 624 00f4 1A68     		ldr	r2, [r3]
 625 00f6 42F48022 		orr	r2, r2, #262144
 626 00fa 1A60     		str	r2, [r3]
 433:HAL_Lib/STM32H7xx_HAL_Driver/Src/stm32h7xx_hal_rcc.c **** 
 627              		.loc 1 433 7 discriminator 7 view .LVU203
 628 00fc 1A68     		ldr	r2, [r3]
 629 00fe 42F48032 		orr	r2, r2, #65536
 630 0102 1A60     		str	r2, [r3]
 631 0104 D7E7     		b	.L41
 632              	.L44:
 453:HAL_Lib/STM32H7xx_HAL_Driver/Src/stm32h7xx_hal_rcc.c **** 
 633              		.loc 1 453 9 view .LVU204
 453:HAL_Lib/STM32H7xx_HAL_Driver/Src/stm32h7xx_hal_rcc.c **** 
 634              		.loc 1 453 21 is_stmt 0 view .LVU205
 635 0106 FFF7FEFF 		bl	HAL_GetTick
 636              	.LVL50:
 453:HAL_Lib/STM32H7xx_HAL_Driver/Src/stm32h7xx_hal_rcc.c **** 
 637              		.loc 1 453 21 view .LVU206
 638 010a 0546     		mov	r5, r0
 639              	.LVL51:
 456:HAL_Lib/STM32H7xx_HAL_Driver/Src/stm32h7xx_hal_rcc.c ****         {
 640              		.loc 1 456 9 is_stmt 1 view .LVU207
 641              	.L47:
 456:HAL_Lib/STM32H7xx_HAL_Driver/Src/stm32h7xx_hal_rcc.c ****         {
ARM GAS  C:\Users\huav\AppData\Local\Temp\ccAjt8Jj.s 			page 22


 642              		.loc 1 456 15 view .LVU208
 456:HAL_Lib/STM32H7xx_HAL_Driver/Src/stm32h7xx_hal_rcc.c ****         {
 643              		.loc 1 456 16 is_stmt 0 view .LVU209
 644 010c 554B     		ldr	r3, .L163
 645 010e 1B68     		ldr	r3, [r3]
 456:HAL_Lib/STM32H7xx_HAL_Driver/Src/stm32h7xx_hal_rcc.c ****         {
 646              		.loc 1 456 15 view .LVU210
 647 0110 13F4003F 		tst	r3, #131072
 648 0114 A3D0     		beq	.L37
 458:HAL_Lib/STM32H7xx_HAL_Driver/Src/stm32h7xx_hal_rcc.c ****           {
 649              		.loc 1 458 11 is_stmt 1 view .LVU211
 458:HAL_Lib/STM32H7xx_HAL_Driver/Src/stm32h7xx_hal_rcc.c ****           {
 650              		.loc 1 458 26 is_stmt 0 view .LVU212
 651 0116 FFF7FEFF 		bl	HAL_GetTick
 652              	.LVL52:
 458:HAL_Lib/STM32H7xx_HAL_Driver/Src/stm32h7xx_hal_rcc.c ****           {
 653              		.loc 1 458 40 view .LVU213
 654 011a 401B     		subs	r0, r0, r5
 458:HAL_Lib/STM32H7xx_HAL_Driver/Src/stm32h7xx_hal_rcc.c ****           {
 655              		.loc 1 458 14 view .LVU214
 656 011c 6428     		cmp	r0, #100
 657 011e F5D9     		bls	.L47
 460:HAL_Lib/STM32H7xx_HAL_Driver/Src/stm32h7xx_hal_rcc.c ****           }
 658              		.loc 1 460 20 view .LVU215
 659 0120 0320     		movs	r0, #3
 660 0122 91E2     		b	.L36
 661              	.LVL53:
 662              	.L145:
 460:HAL_Lib/STM32H7xx_HAL_Driver/Src/stm32h7xx_hal_rcc.c ****           }
 663              		.loc 1 460 20 view .LVU216
 664              	.LBE4:
 665              	.LBB5:
 476:HAL_Lib/STM32H7xx_HAL_Driver/Src/stm32h7xx_hal_rcc.c ****     {
 666              		.loc 1 476 88 discriminator 2 view .LVU217
 667 0124 12F0030F 		tst	r2, #3
 668 0128 A6D1     		bne	.L51
 669              	.L50:
 479:HAL_Lib/STM32H7xx_HAL_Driver/Src/stm32h7xx_hal_rcc.c ****       {
 670              		.loc 1 479 7 is_stmt 1 view .LVU218
 479:HAL_Lib/STM32H7xx_HAL_Driver/Src/stm32h7xx_hal_rcc.c ****       {
 671              		.loc 1 479 12 is_stmt 0 view .LVU219
 672 012a 4E4B     		ldr	r3, .L163
 673              	.LVL54:
 479:HAL_Lib/STM32H7xx_HAL_Driver/Src/stm32h7xx_hal_rcc.c ****       {
 674              		.loc 1 479 12 view .LVU220
 675 012c 1B68     		ldr	r3, [r3]
 479:HAL_Lib/STM32H7xx_HAL_Driver/Src/stm32h7xx_hal_rcc.c ****       {
 676              		.loc 1 479 10 view .LVU221
 677 012e 13F0040F 		tst	r3, #4
 678 0132 03D0     		beq	.L52
 479:HAL_Lib/STM32H7xx_HAL_Driver/Src/stm32h7xx_hal_rcc.c ****       {
 679              		.loc 1 479 76 discriminator 1 view .LVU222
 680 0134 E368     		ldr	r3, [r4, #12]
 479:HAL_Lib/STM32H7xx_HAL_Driver/Src/stm32h7xx_hal_rcc.c ****       {
 681              		.loc 1 479 55 discriminator 1 view .LVU223
 682 0136 002B     		cmp	r3, #0
 683 0138 00F08182 		beq	.L113
ARM GAS  C:\Users\huav\AppData\Local\Temp\ccAjt8Jj.s 			page 23


 684              	.L52:
 487:HAL_Lib/STM32H7xx_HAL_Driver/Src/stm32h7xx_hal_rcc.c **** 
 685              		.loc 1 487 9 is_stmt 1 view .LVU224
 686 013c 494A     		ldr	r2, .L163
 687              	.LVL55:
 487:HAL_Lib/STM32H7xx_HAL_Driver/Src/stm32h7xx_hal_rcc.c **** 
 688              		.loc 1 487 9 is_stmt 0 view .LVU225
 689 013e 1368     		ldr	r3, [r2]
 690 0140 23F01903 		bic	r3, r3, #25
 691 0144 E168     		ldr	r1, [r4, #12]
 692 0146 0B43     		orrs	r3, r3, r1
 693 0148 1360     		str	r3, [r2]
 490:HAL_Lib/STM32H7xx_HAL_Driver/Src/stm32h7xx_hal_rcc.c **** 
 694              		.loc 1 490 9 is_stmt 1 view .LVU226
 490:HAL_Lib/STM32H7xx_HAL_Driver/Src/stm32h7xx_hal_rcc.c **** 
 695              		.loc 1 490 21 is_stmt 0 view .LVU227
 696 014a FFF7FEFF 		bl	HAL_GetTick
 697              	.LVL56:
 698 014e 0546     		mov	r5, r0
 699              	.LVL57:
 493:HAL_Lib/STM32H7xx_HAL_Driver/Src/stm32h7xx_hal_rcc.c ****         {
 700              		.loc 1 493 9 is_stmt 1 view .LVU228
 701              	.L53:
 493:HAL_Lib/STM32H7xx_HAL_Driver/Src/stm32h7xx_hal_rcc.c ****         {
 702              		.loc 1 493 15 view .LVU229
 493:HAL_Lib/STM32H7xx_HAL_Driver/Src/stm32h7xx_hal_rcc.c ****         {
 703              		.loc 1 493 16 is_stmt 0 view .LVU230
 704 0150 444B     		ldr	r3, .L163
 705 0152 1B68     		ldr	r3, [r3]
 493:HAL_Lib/STM32H7xx_HAL_Driver/Src/stm32h7xx_hal_rcc.c ****         {
 706              		.loc 1 493 15 view .LVU231
 707 0154 13F0040F 		tst	r3, #4
 708 0158 06D1     		bne	.L148
 495:HAL_Lib/STM32H7xx_HAL_Driver/Src/stm32h7xx_hal_rcc.c ****           {
 709              		.loc 1 495 11 is_stmt 1 view .LVU232
 495:HAL_Lib/STM32H7xx_HAL_Driver/Src/stm32h7xx_hal_rcc.c ****           {
 710              		.loc 1 495 26 is_stmt 0 view .LVU233
 711 015a FFF7FEFF 		bl	HAL_GetTick
 712              	.LVL58:
 495:HAL_Lib/STM32H7xx_HAL_Driver/Src/stm32h7xx_hal_rcc.c ****           {
 713              		.loc 1 495 40 view .LVU234
 714 015e 401B     		subs	r0, r0, r5
 495:HAL_Lib/STM32H7xx_HAL_Driver/Src/stm32h7xx_hal_rcc.c ****           {
 715              		.loc 1 495 14 view .LVU235
 716 0160 0228     		cmp	r0, #2
 717 0162 F5D9     		bls	.L53
 497:HAL_Lib/STM32H7xx_HAL_Driver/Src/stm32h7xx_hal_rcc.c ****           }
 718              		.loc 1 497 20 view .LVU236
 719 0164 0320     		movs	r0, #3
 720 0166 6FE2     		b	.L36
 721              	.L148:
 501:HAL_Lib/STM32H7xx_HAL_Driver/Src/stm32h7xx_hal_rcc.c ****       }
 722              		.loc 1 501 9 is_stmt 1 view .LVU237
 501:HAL_Lib/STM32H7xx_HAL_Driver/Src/stm32h7xx_hal_rcc.c ****       }
 723              		.loc 1 501 9 view .LVU238
 724 0168 FFF7FEFF 		bl	HAL_GetREVID
 725              	.LVL59:
ARM GAS  C:\Users\huav\AppData\Local\Temp\ccAjt8Jj.s 			page 24


 726 016c 41F20303 		movw	r3, #4099
 727 0170 9842     		cmp	r0, r3
 728 0172 12D8     		bhi	.L55
 501:HAL_Lib/STM32H7xx_HAL_Driver/Src/stm32h7xx_hal_rcc.c ****       }
 729              		.loc 1 501 9 discriminator 1 view .LVU239
 730 0174 2269     		ldr	r2, [r4, #16]
 731 0176 402A     		cmp	r2, #64
 732 0178 07D0     		beq	.L149
 501:HAL_Lib/STM32H7xx_HAL_Driver/Src/stm32h7xx_hal_rcc.c ****       }
 733              		.loc 1 501 9 discriminator 4 view .LVU240
 734 017a 3A49     		ldr	r1, .L163
 735 017c 4B68     		ldr	r3, [r1, #4]
 736 017e 23F47C33 		bic	r3, r3, #258048
 737 0182 43EA0233 		orr	r3, r3, r2, lsl #12
 738 0186 4B60     		str	r3, [r1, #4]
 739 0188 0FE0     		b	.L49
 740              	.L149:
 501:HAL_Lib/STM32H7xx_HAL_Driver/Src/stm32h7xx_hal_rcc.c ****       }
 741              		.loc 1 501 9 discriminator 3 view .LVU241
 742 018a 364A     		ldr	r2, .L163
 743 018c 5368     		ldr	r3, [r2, #4]
 744 018e 23F47C33 		bic	r3, r3, #258048
 745 0192 43F40033 		orr	r3, r3, #131072
 746 0196 5360     		str	r3, [r2, #4]
 747 0198 07E0     		b	.L49
 748              	.L55:
 501:HAL_Lib/STM32H7xx_HAL_Driver/Src/stm32h7xx_hal_rcc.c ****       }
 749              		.loc 1 501 9 discriminator 2 view .LVU242
 750 019a 324A     		ldr	r2, .L163
 751 019c 5368     		ldr	r3, [r2, #4]
 752 019e 23F0FE43 		bic	r3, r3, #2130706432
 753 01a2 2169     		ldr	r1, [r4, #16]
 754 01a4 43EA0163 		orr	r3, r3, r1, lsl #24
 755 01a8 5360     		str	r3, [r2, #4]
 756              	.LVL60:
 757              	.L49:
 501:HAL_Lib/STM32H7xx_HAL_Driver/Src/stm32h7xx_hal_rcc.c ****       }
 758              		.loc 1 501 9 is_stmt 0 discriminator 2 view .LVU243
 759              	.LBE5:
 522:HAL_Lib/STM32H7xx_HAL_Driver/Src/stm32h7xx_hal_rcc.c ****           }
 523:HAL_Lib/STM32H7xx_HAL_Driver/Src/stm32h7xx_hal_rcc.c ****         }
 524:HAL_Lib/STM32H7xx_HAL_Driver/Src/stm32h7xx_hal_rcc.c **** 
 525:HAL_Lib/STM32H7xx_HAL_Driver/Src/stm32h7xx_hal_rcc.c ****         /* Adjusts the Internal High Speed oscillator (HSI) calibration value.*/
 526:HAL_Lib/STM32H7xx_HAL_Driver/Src/stm32h7xx_hal_rcc.c ****         __HAL_RCC_HSI_CALIBRATIONVALUE_ADJUST(RCC_OscInitStruct->HSICalibrationValue);
 527:HAL_Lib/STM32H7xx_HAL_Driver/Src/stm32h7xx_hal_rcc.c ****       }
 528:HAL_Lib/STM32H7xx_HAL_Driver/Src/stm32h7xx_hal_rcc.c ****       else
 529:HAL_Lib/STM32H7xx_HAL_Driver/Src/stm32h7xx_hal_rcc.c ****       {
 530:HAL_Lib/STM32H7xx_HAL_Driver/Src/stm32h7xx_hal_rcc.c ****         /* Disable the Internal High Speed oscillator (HSI). */
 531:HAL_Lib/STM32H7xx_HAL_Driver/Src/stm32h7xx_hal_rcc.c ****         __HAL_RCC_HSI_DISABLE();
 532:HAL_Lib/STM32H7xx_HAL_Driver/Src/stm32h7xx_hal_rcc.c **** 
 533:HAL_Lib/STM32H7xx_HAL_Driver/Src/stm32h7xx_hal_rcc.c ****         /* Get Start Tick*/
 534:HAL_Lib/STM32H7xx_HAL_Driver/Src/stm32h7xx_hal_rcc.c ****         tickstart = HAL_GetTick();
 535:HAL_Lib/STM32H7xx_HAL_Driver/Src/stm32h7xx_hal_rcc.c **** 
 536:HAL_Lib/STM32H7xx_HAL_Driver/Src/stm32h7xx_hal_rcc.c ****         /* Wait till HSI is disabled */
 537:HAL_Lib/STM32H7xx_HAL_Driver/Src/stm32h7xx_hal_rcc.c ****         while (__HAL_RCC_GET_FLAG(RCC_FLAG_HSIRDY) != 0U)
 538:HAL_Lib/STM32H7xx_HAL_Driver/Src/stm32h7xx_hal_rcc.c ****         {
 539:HAL_Lib/STM32H7xx_HAL_Driver/Src/stm32h7xx_hal_rcc.c ****           if ((HAL_GetTick() - tickstart) > HSI_TIMEOUT_VALUE)
ARM GAS  C:\Users\huav\AppData\Local\Temp\ccAjt8Jj.s 			page 25


 540:HAL_Lib/STM32H7xx_HAL_Driver/Src/stm32h7xx_hal_rcc.c ****           {
 541:HAL_Lib/STM32H7xx_HAL_Driver/Src/stm32h7xx_hal_rcc.c ****             return HAL_TIMEOUT;
 542:HAL_Lib/STM32H7xx_HAL_Driver/Src/stm32h7xx_hal_rcc.c ****           }
 543:HAL_Lib/STM32H7xx_HAL_Driver/Src/stm32h7xx_hal_rcc.c ****         }
 544:HAL_Lib/STM32H7xx_HAL_Driver/Src/stm32h7xx_hal_rcc.c ****       }
 545:HAL_Lib/STM32H7xx_HAL_Driver/Src/stm32h7xx_hal_rcc.c ****     }
 546:HAL_Lib/STM32H7xx_HAL_Driver/Src/stm32h7xx_hal_rcc.c ****   }
 547:HAL_Lib/STM32H7xx_HAL_Driver/Src/stm32h7xx_hal_rcc.c ****   /*----------------------------- CSI Configuration --------------------------*/
 548:HAL_Lib/STM32H7xx_HAL_Driver/Src/stm32h7xx_hal_rcc.c ****   if (((RCC_OscInitStruct->OscillatorType) & RCC_OSCILLATORTYPE_CSI) == RCC_OSCILLATORTYPE_CSI)
 760              		.loc 1 548 3 is_stmt 1 view .LVU244
 761              		.loc 1 548 26 is_stmt 0 view .LVU245
 762 01aa 2368     		ldr	r3, [r4]
 763              		.loc 1 548 6 view .LVU246
 764 01ac 13F0100F 		tst	r3, #16
 765 01b0 00F08880 		beq	.L64
 766              	.LBB6:
 549:HAL_Lib/STM32H7xx_HAL_Driver/Src/stm32h7xx_hal_rcc.c ****   {
 550:HAL_Lib/STM32H7xx_HAL_Driver/Src/stm32h7xx_hal_rcc.c ****     /* Check the parameters */
 551:HAL_Lib/STM32H7xx_HAL_Driver/Src/stm32h7xx_hal_rcc.c ****     assert_param(IS_RCC_CSI(RCC_OscInitStruct->CSIState));
 767              		.loc 1 551 5 is_stmt 1 view .LVU247
 552:HAL_Lib/STM32H7xx_HAL_Driver/Src/stm32h7xx_hal_rcc.c ****     assert_param(IS_RCC_CSICALIBRATION_VALUE(RCC_OscInitStruct->CSICalibrationValue));
 768              		.loc 1 552 5 view .LVU248
 553:HAL_Lib/STM32H7xx_HAL_Driver/Src/stm32h7xx_hal_rcc.c **** 
 554:HAL_Lib/STM32H7xx_HAL_Driver/Src/stm32h7xx_hal_rcc.c ****     /* When the CSI is used as system clock it will not disabled */
 555:HAL_Lib/STM32H7xx_HAL_Driver/Src/stm32h7xx_hal_rcc.c ****     const uint32_t temp_sysclksrc = __HAL_RCC_GET_SYSCLK_SOURCE();
 769              		.loc 1 555 5 view .LVU249
 770              		.loc 1 555 37 is_stmt 0 view .LVU250
 771 01b4 2B4A     		ldr	r2, .L163
 772 01b6 1369     		ldr	r3, [r2, #16]
 773              		.loc 1 555 20 view .LVU251
 774 01b8 03F03803 		and	r3, r3, #56
 775              	.LVL61:
 556:HAL_Lib/STM32H7xx_HAL_Driver/Src/stm32h7xx_hal_rcc.c ****     const uint32_t temp_pllckselr = RCC->PLLCKSELR;
 776              		.loc 1 556 5 is_stmt 1 view .LVU252
 777              		.loc 1 556 20 is_stmt 0 view .LVU253
 778 01bc 926A     		ldr	r2, [r2, #40]
 779              	.LVL62:
 557:HAL_Lib/STM32H7xx_HAL_Driver/Src/stm32h7xx_hal_rcc.c ****     if ((temp_sysclksrc == RCC_CFGR_SWS_CSI) || ((temp_sysclksrc == RCC_CFGR_SWS_PLL1) && ((temp_pl
 780              		.loc 1 557 5 is_stmt 1 view .LVU254
 781              		.loc 1 557 8 is_stmt 0 view .LVU255
 782 01be 082B     		cmp	r3, #8
 783 01c0 56D0     		beq	.L65
 784              		.loc 1 557 46 discriminator 1 view .LVU256
 785 01c2 182B     		cmp	r3, #24
 786 01c4 50D0     		beq	.L150
 787              	.LVL63:
 788              	.L66:
 558:HAL_Lib/STM32H7xx_HAL_Driver/Src/stm32h7xx_hal_rcc.c ****     {
 559:HAL_Lib/STM32H7xx_HAL_Driver/Src/stm32h7xx_hal_rcc.c ****       /* When CSI is used as system clock it will not disabled */
 560:HAL_Lib/STM32H7xx_HAL_Driver/Src/stm32h7xx_hal_rcc.c ****       if ((__HAL_RCC_GET_FLAG(RCC_FLAG_CSIRDY) != 0U) && (RCC_OscInitStruct->CSIState != RCC_CSI_ON
 561:HAL_Lib/STM32H7xx_HAL_Driver/Src/stm32h7xx_hal_rcc.c ****       {
 562:HAL_Lib/STM32H7xx_HAL_Driver/Src/stm32h7xx_hal_rcc.c ****         return HAL_ERROR;
 563:HAL_Lib/STM32H7xx_HAL_Driver/Src/stm32h7xx_hal_rcc.c ****       }
 564:HAL_Lib/STM32H7xx_HAL_Driver/Src/stm32h7xx_hal_rcc.c ****       /* Otherwise, just the calibration is allowed */
 565:HAL_Lib/STM32H7xx_HAL_Driver/Src/stm32h7xx_hal_rcc.c ****       else
 566:HAL_Lib/STM32H7xx_HAL_Driver/Src/stm32h7xx_hal_rcc.c ****       {
 567:HAL_Lib/STM32H7xx_HAL_Driver/Src/stm32h7xx_hal_rcc.c ****         /* Adjusts the Internal High Speed oscillator (CSI) calibration value.*/
ARM GAS  C:\Users\huav\AppData\Local\Temp\ccAjt8Jj.s 			page 26


 568:HAL_Lib/STM32H7xx_HAL_Driver/Src/stm32h7xx_hal_rcc.c ****         __HAL_RCC_CSI_CALIBRATIONVALUE_ADJUST(RCC_OscInitStruct->CSICalibrationValue);
 569:HAL_Lib/STM32H7xx_HAL_Driver/Src/stm32h7xx_hal_rcc.c ****       }
 570:HAL_Lib/STM32H7xx_HAL_Driver/Src/stm32h7xx_hal_rcc.c ****     }
 571:HAL_Lib/STM32H7xx_HAL_Driver/Src/stm32h7xx_hal_rcc.c ****     else
 572:HAL_Lib/STM32H7xx_HAL_Driver/Src/stm32h7xx_hal_rcc.c ****     {
 573:HAL_Lib/STM32H7xx_HAL_Driver/Src/stm32h7xx_hal_rcc.c ****       /* Check the CSI State */
 574:HAL_Lib/STM32H7xx_HAL_Driver/Src/stm32h7xx_hal_rcc.c ****       if ((RCC_OscInitStruct->CSIState) != RCC_CSI_OFF)
 789              		.loc 1 574 7 is_stmt 1 view .LVU257
 790              		.loc 1 574 29 is_stmt 0 view .LVU258
 791 01c6 E369     		ldr	r3, [r4, #28]
 792              	.LVL64:
 793              		.loc 1 574 10 view .LVU259
 794 01c8 002B     		cmp	r3, #0
 795 01ca 00F0B880 		beq	.L70
 575:HAL_Lib/STM32H7xx_HAL_Driver/Src/stm32h7xx_hal_rcc.c ****       {
 576:HAL_Lib/STM32H7xx_HAL_Driver/Src/stm32h7xx_hal_rcc.c ****         /* Enable the Internal High Speed oscillator (CSI). */
 577:HAL_Lib/STM32H7xx_HAL_Driver/Src/stm32h7xx_hal_rcc.c ****         __HAL_RCC_CSI_ENABLE();
 796              		.loc 1 577 9 is_stmt 1 view .LVU260
 797 01ce 254A     		ldr	r2, .L163
 798 01d0 1368     		ldr	r3, [r2]
 799 01d2 43F08003 		orr	r3, r3, #128
 800 01d6 1360     		str	r3, [r2]
 578:HAL_Lib/STM32H7xx_HAL_Driver/Src/stm32h7xx_hal_rcc.c **** 
 579:HAL_Lib/STM32H7xx_HAL_Driver/Src/stm32h7xx_hal_rcc.c ****         /* Get Start Tick*/
 580:HAL_Lib/STM32H7xx_HAL_Driver/Src/stm32h7xx_hal_rcc.c ****         tickstart = HAL_GetTick();
 801              		.loc 1 580 9 view .LVU261
 802              		.loc 1 580 21 is_stmt 0 view .LVU262
 803 01d8 FFF7FEFF 		bl	HAL_GetTick
 804              	.LVL65:
 805 01dc 0546     		mov	r5, r0
 806              	.LVL66:
 581:HAL_Lib/STM32H7xx_HAL_Driver/Src/stm32h7xx_hal_rcc.c **** 
 582:HAL_Lib/STM32H7xx_HAL_Driver/Src/stm32h7xx_hal_rcc.c ****         /* Wait till CSI is ready */
 583:HAL_Lib/STM32H7xx_HAL_Driver/Src/stm32h7xx_hal_rcc.c ****         while (__HAL_RCC_GET_FLAG(RCC_FLAG_CSIRDY) == 0U)
 807              		.loc 1 583 9 is_stmt 1 view .LVU263
 808              	.L71:
 809              		.loc 1 583 15 view .LVU264
 810              		.loc 1 583 16 is_stmt 0 view .LVU265
 811 01de 214B     		ldr	r3, .L163
 812 01e0 1B68     		ldr	r3, [r3]
 813              		.loc 1 583 15 view .LVU266
 814 01e2 13F4807F 		tst	r3, #256
 815 01e6 40F08880 		bne	.L151
 584:HAL_Lib/STM32H7xx_HAL_Driver/Src/stm32h7xx_hal_rcc.c ****         {
 585:HAL_Lib/STM32H7xx_HAL_Driver/Src/stm32h7xx_hal_rcc.c ****           if ((HAL_GetTick() - tickstart) > CSI_TIMEOUT_VALUE)
 816              		.loc 1 585 11 is_stmt 1 view .LVU267
 817              		.loc 1 585 16 is_stmt 0 view .LVU268
 818 01ea FFF7FEFF 		bl	HAL_GetTick
 819              	.LVL67:
 820              		.loc 1 585 30 view .LVU269
 821 01ee 401B     		subs	r0, r0, r5
 822              		.loc 1 585 14 view .LVU270
 823 01f0 0228     		cmp	r0, #2
 824 01f2 F4D9     		bls	.L71
 586:HAL_Lib/STM32H7xx_HAL_Driver/Src/stm32h7xx_hal_rcc.c ****           {
 587:HAL_Lib/STM32H7xx_HAL_Driver/Src/stm32h7xx_hal_rcc.c ****             return HAL_TIMEOUT;
 825              		.loc 1 587 20 view .LVU271
ARM GAS  C:\Users\huav\AppData\Local\Temp\ccAjt8Jj.s 			page 27


 826 01f4 0320     		movs	r0, #3
 827 01f6 27E2     		b	.L36
 828              	.L146:
 829              		.loc 1 587 20 view .LVU272
 830              	.LBE6:
 831              	.LBB7:
 526:HAL_Lib/STM32H7xx_HAL_Driver/Src/stm32h7xx_hal_rcc.c ****       }
 832              		.loc 1 526 9 is_stmt 1 view .LVU273
 526:HAL_Lib/STM32H7xx_HAL_Driver/Src/stm32h7xx_hal_rcc.c ****       }
 833              		.loc 1 526 9 view .LVU274
 834 01f8 FFF7FEFF 		bl	HAL_GetREVID
 835              	.LVL68:
 836 01fc 41F20303 		movw	r3, #4099
 837 0200 9842     		cmp	r0, r3
 838 0202 12D8     		bhi	.L60
 526:HAL_Lib/STM32H7xx_HAL_Driver/Src/stm32h7xx_hal_rcc.c ****       }
 839              		.loc 1 526 9 discriminator 1 view .LVU275
 840 0204 2269     		ldr	r2, [r4, #16]
 841 0206 402A     		cmp	r2, #64
 842 0208 07D0     		beq	.L152
 526:HAL_Lib/STM32H7xx_HAL_Driver/Src/stm32h7xx_hal_rcc.c ****       }
 843              		.loc 1 526 9 discriminator 4 view .LVU276
 844 020a 1649     		ldr	r1, .L163
 845 020c 4B68     		ldr	r3, [r1, #4]
 846 020e 23F47C33 		bic	r3, r3, #258048
 847 0212 43EA0233 		orr	r3, r3, r2, lsl #12
 848 0216 4B60     		str	r3, [r1, #4]
 849 0218 C7E7     		b	.L49
 850              	.L152:
 526:HAL_Lib/STM32H7xx_HAL_Driver/Src/stm32h7xx_hal_rcc.c ****       }
 851              		.loc 1 526 9 discriminator 3 view .LVU277
 852 021a 124A     		ldr	r2, .L163
 853 021c 5368     		ldr	r3, [r2, #4]
 854 021e 23F47C33 		bic	r3, r3, #258048
 855 0222 43F40033 		orr	r3, r3, #131072
 856 0226 5360     		str	r3, [r2, #4]
 857 0228 BFE7     		b	.L49
 858              	.L60:
 526:HAL_Lib/STM32H7xx_HAL_Driver/Src/stm32h7xx_hal_rcc.c ****       }
 859              		.loc 1 526 9 discriminator 2 view .LVU278
 860 022a 0E4A     		ldr	r2, .L163
 861 022c 5368     		ldr	r3, [r2, #4]
 862 022e 23F0FE43 		bic	r3, r3, #2130706432
 863 0232 2169     		ldr	r1, [r4, #16]
 864 0234 43EA0163 		orr	r3, r3, r1, lsl #24
 865 0238 5360     		str	r3, [r2, #4]
 866 023a B6E7     		b	.L49
 867              	.LVL69:
 868              	.L57:
 531:HAL_Lib/STM32H7xx_HAL_Driver/Src/stm32h7xx_hal_rcc.c **** 
 869              		.loc 1 531 9 view .LVU279
 870 023c 094A     		ldr	r2, .L163
 871              	.LVL70:
 531:HAL_Lib/STM32H7xx_HAL_Driver/Src/stm32h7xx_hal_rcc.c **** 
 872              		.loc 1 531 9 is_stmt 0 view .LVU280
 873 023e 1368     		ldr	r3, [r2]
 874 0240 23F00103 		bic	r3, r3, #1
ARM GAS  C:\Users\huav\AppData\Local\Temp\ccAjt8Jj.s 			page 28


 875 0244 1360     		str	r3, [r2]
 534:HAL_Lib/STM32H7xx_HAL_Driver/Src/stm32h7xx_hal_rcc.c **** 
 876              		.loc 1 534 9 is_stmt 1 view .LVU281
 534:HAL_Lib/STM32H7xx_HAL_Driver/Src/stm32h7xx_hal_rcc.c **** 
 877              		.loc 1 534 21 is_stmt 0 view .LVU282
 878 0246 FFF7FEFF 		bl	HAL_GetTick
 879              	.LVL71:
 880 024a 0546     		mov	r5, r0
 881              	.LVL72:
 537:HAL_Lib/STM32H7xx_HAL_Driver/Src/stm32h7xx_hal_rcc.c ****         {
 882              		.loc 1 537 9 is_stmt 1 view .LVU283
 883              	.L62:
 537:HAL_Lib/STM32H7xx_HAL_Driver/Src/stm32h7xx_hal_rcc.c ****         {
 884              		.loc 1 537 15 view .LVU284
 537:HAL_Lib/STM32H7xx_HAL_Driver/Src/stm32h7xx_hal_rcc.c ****         {
 885              		.loc 1 537 16 is_stmt 0 view .LVU285
 886 024c 054B     		ldr	r3, .L163
 887 024e 1B68     		ldr	r3, [r3]
 537:HAL_Lib/STM32H7xx_HAL_Driver/Src/stm32h7xx_hal_rcc.c ****         {
 888              		.loc 1 537 15 view .LVU286
 889 0250 13F0040F 		tst	r3, #4
 890 0254 A9D0     		beq	.L49
 539:HAL_Lib/STM32H7xx_HAL_Driver/Src/stm32h7xx_hal_rcc.c ****           {
 891              		.loc 1 539 11 is_stmt 1 view .LVU287
 539:HAL_Lib/STM32H7xx_HAL_Driver/Src/stm32h7xx_hal_rcc.c ****           {
 892              		.loc 1 539 16 is_stmt 0 view .LVU288
 893 0256 FFF7FEFF 		bl	HAL_GetTick
 894              	.LVL73:
 539:HAL_Lib/STM32H7xx_HAL_Driver/Src/stm32h7xx_hal_rcc.c ****           {
 895              		.loc 1 539 30 view .LVU289
 896 025a 401B     		subs	r0, r0, r5
 539:HAL_Lib/STM32H7xx_HAL_Driver/Src/stm32h7xx_hal_rcc.c ****           {
 897              		.loc 1 539 14 view .LVU290
 898 025c 0228     		cmp	r0, #2
 899 025e F5D9     		bls	.L62
 541:HAL_Lib/STM32H7xx_HAL_Driver/Src/stm32h7xx_hal_rcc.c ****           }
 900              		.loc 1 541 20 view .LVU291
 901 0260 0320     		movs	r0, #3
 902 0262 F1E1     		b	.L36
 903              	.L164:
 904              		.align	2
 905              	.L163:
 906 0264 00440258 		.word	1476543488
 907              	.LVL74:
 908              	.L150:
 541:HAL_Lib/STM32H7xx_HAL_Driver/Src/stm32h7xx_hal_rcc.c ****           }
 909              		.loc 1 541 20 view .LVU292
 910              	.LBE7:
 911              	.LBB8:
 557:HAL_Lib/STM32H7xx_HAL_Driver/Src/stm32h7xx_hal_rcc.c ****     {
 912              		.loc 1 557 108 discriminator 2 view .LVU293
 913 0268 02F00302 		and	r2, r2, #3
 914              	.LVL75:
 557:HAL_Lib/STM32H7xx_HAL_Driver/Src/stm32h7xx_hal_rcc.c ****     {
 915              		.loc 1 557 88 discriminator 2 view .LVU294
 916 026c 012A     		cmp	r2, #1
 917 026e AAD1     		bne	.L66
ARM GAS  C:\Users\huav\AppData\Local\Temp\ccAjt8Jj.s 			page 29


 918              	.L65:
 560:HAL_Lib/STM32H7xx_HAL_Driver/Src/stm32h7xx_hal_rcc.c ****       {
 919              		.loc 1 560 7 is_stmt 1 view .LVU295
 560:HAL_Lib/STM32H7xx_HAL_Driver/Src/stm32h7xx_hal_rcc.c ****       {
 920              		.loc 1 560 12 is_stmt 0 view .LVU296
 921 0270 A14B     		ldr	r3, .L165
 922              	.LVL76:
 560:HAL_Lib/STM32H7xx_HAL_Driver/Src/stm32h7xx_hal_rcc.c ****       {
 923              		.loc 1 560 12 view .LVU297
 924 0272 1B68     		ldr	r3, [r3]
 560:HAL_Lib/STM32H7xx_HAL_Driver/Src/stm32h7xx_hal_rcc.c ****       {
 925              		.loc 1 560 10 view .LVU298
 926 0274 13F4807F 		tst	r3, #256
 927 0278 03D0     		beq	.L67
 560:HAL_Lib/STM32H7xx_HAL_Driver/Src/stm32h7xx_hal_rcc.c ****       {
 928              		.loc 1 560 76 discriminator 1 view .LVU299
 929 027a E369     		ldr	r3, [r4, #28]
 560:HAL_Lib/STM32H7xx_HAL_Driver/Src/stm32h7xx_hal_rcc.c ****       {
 930              		.loc 1 560 55 discriminator 1 view .LVU300
 931 027c 802B     		cmp	r3, #128
 932 027e 40F0E081 		bne	.L117
 933              	.L67:
 568:HAL_Lib/STM32H7xx_HAL_Driver/Src/stm32h7xx_hal_rcc.c ****       }
 934              		.loc 1 568 9 is_stmt 1 view .LVU301
 568:HAL_Lib/STM32H7xx_HAL_Driver/Src/stm32h7xx_hal_rcc.c ****       }
 935              		.loc 1 568 9 view .LVU302
 936 0282 FFF7FEFF 		bl	HAL_GetREVID
 937              	.LVL77:
 938 0286 41F20303 		movw	r3, #4099
 939 028a 9842     		cmp	r0, r3
 940 028c 12D8     		bhi	.L68
 568:HAL_Lib/STM32H7xx_HAL_Driver/Src/stm32h7xx_hal_rcc.c ****       }
 941              		.loc 1 568 9 discriminator 1 view .LVU303
 942 028e 226A     		ldr	r2, [r4, #32]
 943 0290 202A     		cmp	r2, #32
 944 0292 07D0     		beq	.L153
 568:HAL_Lib/STM32H7xx_HAL_Driver/Src/stm32h7xx_hal_rcc.c ****       }
 945              		.loc 1 568 9 discriminator 4 view .LVU304
 946 0294 9849     		ldr	r1, .L165
 947 0296 4B68     		ldr	r3, [r1, #4]
 948 0298 23F0F843 		bic	r3, r3, #2080374784
 949 029c 43EA8263 		orr	r3, r3, r2, lsl #26
 950 02a0 4B60     		str	r3, [r1, #4]
 951 02a2 0FE0     		b	.L64
 952              	.L153:
 568:HAL_Lib/STM32H7xx_HAL_Driver/Src/stm32h7xx_hal_rcc.c ****       }
 953              		.loc 1 568 9 discriminator 3 view .LVU305
 954 02a4 944A     		ldr	r2, .L165
 955 02a6 5368     		ldr	r3, [r2, #4]
 956 02a8 23F0F843 		bic	r3, r3, #2080374784
 957 02ac 43F08043 		orr	r3, r3, #1073741824
 958 02b0 5360     		str	r3, [r2, #4]
 959 02b2 07E0     		b	.L64
 960              	.L68:
 568:HAL_Lib/STM32H7xx_HAL_Driver/Src/stm32h7xx_hal_rcc.c ****       }
 961              		.loc 1 568 9 discriminator 2 view .LVU306
 962 02b4 904A     		ldr	r2, .L165
ARM GAS  C:\Users\huav\AppData\Local\Temp\ccAjt8Jj.s 			page 30


 963 02b6 D368     		ldr	r3, [r2, #12]
 964 02b8 23F07C53 		bic	r3, r3, #1056964608
 965 02bc 216A     		ldr	r1, [r4, #32]
 966 02be 43EA0163 		orr	r3, r3, r1, lsl #24
 967 02c2 D360     		str	r3, [r2, #12]
 968              	.L64:
 568:HAL_Lib/STM32H7xx_HAL_Driver/Src/stm32h7xx_hal_rcc.c ****       }
 969              		.loc 1 568 9 is_stmt 0 discriminator 2 view .LVU307
 970              	.LBE8:
 588:HAL_Lib/STM32H7xx_HAL_Driver/Src/stm32h7xx_hal_rcc.c ****           }
 589:HAL_Lib/STM32H7xx_HAL_Driver/Src/stm32h7xx_hal_rcc.c ****         }
 590:HAL_Lib/STM32H7xx_HAL_Driver/Src/stm32h7xx_hal_rcc.c **** 
 591:HAL_Lib/STM32H7xx_HAL_Driver/Src/stm32h7xx_hal_rcc.c ****         /* Adjusts the Internal High Speed oscillator (CSI) calibration value.*/
 592:HAL_Lib/STM32H7xx_HAL_Driver/Src/stm32h7xx_hal_rcc.c ****         __HAL_RCC_CSI_CALIBRATIONVALUE_ADJUST(RCC_OscInitStruct->CSICalibrationValue);
 593:HAL_Lib/STM32H7xx_HAL_Driver/Src/stm32h7xx_hal_rcc.c ****       }
 594:HAL_Lib/STM32H7xx_HAL_Driver/Src/stm32h7xx_hal_rcc.c ****       else
 595:HAL_Lib/STM32H7xx_HAL_Driver/Src/stm32h7xx_hal_rcc.c ****       {
 596:HAL_Lib/STM32H7xx_HAL_Driver/Src/stm32h7xx_hal_rcc.c ****         /* Disable the Internal High Speed oscillator (CSI). */
 597:HAL_Lib/STM32H7xx_HAL_Driver/Src/stm32h7xx_hal_rcc.c ****         __HAL_RCC_CSI_DISABLE();
 598:HAL_Lib/STM32H7xx_HAL_Driver/Src/stm32h7xx_hal_rcc.c **** 
 599:HAL_Lib/STM32H7xx_HAL_Driver/Src/stm32h7xx_hal_rcc.c ****         /* Get Start Tick*/
 600:HAL_Lib/STM32H7xx_HAL_Driver/Src/stm32h7xx_hal_rcc.c ****         tickstart = HAL_GetTick();
 601:HAL_Lib/STM32H7xx_HAL_Driver/Src/stm32h7xx_hal_rcc.c **** 
 602:HAL_Lib/STM32H7xx_HAL_Driver/Src/stm32h7xx_hal_rcc.c ****         /* Wait till CSI is disabled */
 603:HAL_Lib/STM32H7xx_HAL_Driver/Src/stm32h7xx_hal_rcc.c ****         while (__HAL_RCC_GET_FLAG(RCC_FLAG_CSIRDY) != 0U)
 604:HAL_Lib/STM32H7xx_HAL_Driver/Src/stm32h7xx_hal_rcc.c ****         {
 605:HAL_Lib/STM32H7xx_HAL_Driver/Src/stm32h7xx_hal_rcc.c ****           if ((HAL_GetTick() - tickstart) > CSI_TIMEOUT_VALUE)
 606:HAL_Lib/STM32H7xx_HAL_Driver/Src/stm32h7xx_hal_rcc.c ****           {
 607:HAL_Lib/STM32H7xx_HAL_Driver/Src/stm32h7xx_hal_rcc.c ****             return HAL_TIMEOUT;
 608:HAL_Lib/STM32H7xx_HAL_Driver/Src/stm32h7xx_hal_rcc.c ****           }
 609:HAL_Lib/STM32H7xx_HAL_Driver/Src/stm32h7xx_hal_rcc.c ****         }
 610:HAL_Lib/STM32H7xx_HAL_Driver/Src/stm32h7xx_hal_rcc.c ****       }
 611:HAL_Lib/STM32H7xx_HAL_Driver/Src/stm32h7xx_hal_rcc.c ****     }
 612:HAL_Lib/STM32H7xx_HAL_Driver/Src/stm32h7xx_hal_rcc.c ****   }
 613:HAL_Lib/STM32H7xx_HAL_Driver/Src/stm32h7xx_hal_rcc.c ****   /*------------------------------ LSI Configuration -------------------------*/
 614:HAL_Lib/STM32H7xx_HAL_Driver/Src/stm32h7xx_hal_rcc.c ****   if (((RCC_OscInitStruct->OscillatorType) & RCC_OSCILLATORTYPE_LSI) == RCC_OSCILLATORTYPE_LSI)
 971              		.loc 1 614 3 is_stmt 1 view .LVU308
 972              		.loc 1 614 26 is_stmt 0 view .LVU309
 973 02c4 2368     		ldr	r3, [r4]
 974              		.loc 1 614 6 view .LVU310
 975 02c6 13F0080F 		tst	r3, #8
 976 02ca 60D0     		beq	.L77
 615:HAL_Lib/STM32H7xx_HAL_Driver/Src/stm32h7xx_hal_rcc.c ****   {
 616:HAL_Lib/STM32H7xx_HAL_Driver/Src/stm32h7xx_hal_rcc.c ****     /* Check the parameters */
 617:HAL_Lib/STM32H7xx_HAL_Driver/Src/stm32h7xx_hal_rcc.c ****     assert_param(IS_RCC_LSI(RCC_OscInitStruct->LSIState));
 977              		.loc 1 617 5 is_stmt 1 view .LVU311
 618:HAL_Lib/STM32H7xx_HAL_Driver/Src/stm32h7xx_hal_rcc.c **** 
 619:HAL_Lib/STM32H7xx_HAL_Driver/Src/stm32h7xx_hal_rcc.c ****     /* Check the LSI State */
 620:HAL_Lib/STM32H7xx_HAL_Driver/Src/stm32h7xx_hal_rcc.c ****     if ((RCC_OscInitStruct->LSIState) != RCC_LSI_OFF)
 978              		.loc 1 620 5 view .LVU312
 979              		.loc 1 620 27 is_stmt 0 view .LVU313
 980 02cc 6369     		ldr	r3, [r4, #20]
 981              		.loc 1 620 8 view .LVU314
 982 02ce 002B     		cmp	r3, #0
 983 02d0 49D0     		beq	.L78
 621:HAL_Lib/STM32H7xx_HAL_Driver/Src/stm32h7xx_hal_rcc.c ****     {
 622:HAL_Lib/STM32H7xx_HAL_Driver/Src/stm32h7xx_hal_rcc.c ****       /* Enable the Internal Low Speed oscillator (LSI). */
ARM GAS  C:\Users\huav\AppData\Local\Temp\ccAjt8Jj.s 			page 31


 623:HAL_Lib/STM32H7xx_HAL_Driver/Src/stm32h7xx_hal_rcc.c ****       __HAL_RCC_LSI_ENABLE();
 984              		.loc 1 623 7 is_stmt 1 view .LVU315
 985 02d2 894A     		ldr	r2, .L165
 986 02d4 536F     		ldr	r3, [r2, #116]
 987 02d6 43F00103 		orr	r3, r3, #1
 988 02da 5367     		str	r3, [r2, #116]
 624:HAL_Lib/STM32H7xx_HAL_Driver/Src/stm32h7xx_hal_rcc.c **** 
 625:HAL_Lib/STM32H7xx_HAL_Driver/Src/stm32h7xx_hal_rcc.c ****       /* Get Start Tick*/
 626:HAL_Lib/STM32H7xx_HAL_Driver/Src/stm32h7xx_hal_rcc.c ****       tickstart = HAL_GetTick();
 989              		.loc 1 626 7 view .LVU316
 990              		.loc 1 626 19 is_stmt 0 view .LVU317
 991 02dc FFF7FEFF 		bl	HAL_GetTick
 992              	.LVL78:
 993 02e0 0546     		mov	r5, r0
 994              	.LVL79:
 627:HAL_Lib/STM32H7xx_HAL_Driver/Src/stm32h7xx_hal_rcc.c **** 
 628:HAL_Lib/STM32H7xx_HAL_Driver/Src/stm32h7xx_hal_rcc.c ****       /* Wait till LSI is ready */
 629:HAL_Lib/STM32H7xx_HAL_Driver/Src/stm32h7xx_hal_rcc.c ****       while (__HAL_RCC_GET_FLAG(RCC_FLAG_LSIRDY) == 0U)
 995              		.loc 1 629 7 is_stmt 1 view .LVU318
 996              	.L79:
 997              		.loc 1 629 13 view .LVU319
 998              		.loc 1 629 14 is_stmt 0 view .LVU320
 999 02e2 854B     		ldr	r3, .L165
 1000 02e4 5B6F     		ldr	r3, [r3, #116]
 1001              		.loc 1 629 13 view .LVU321
 1002 02e6 13F0020F 		tst	r3, #2
 1003 02ea 50D1     		bne	.L77
 630:HAL_Lib/STM32H7xx_HAL_Driver/Src/stm32h7xx_hal_rcc.c ****       {
 631:HAL_Lib/STM32H7xx_HAL_Driver/Src/stm32h7xx_hal_rcc.c ****         if ((HAL_GetTick() - tickstart) > LSI_TIMEOUT_VALUE)
 1004              		.loc 1 631 9 is_stmt 1 view .LVU322
 1005              		.loc 1 631 14 is_stmt 0 view .LVU323
 1006 02ec FFF7FEFF 		bl	HAL_GetTick
 1007              	.LVL80:
 1008              		.loc 1 631 28 view .LVU324
 1009 02f0 401B     		subs	r0, r0, r5
 1010              		.loc 1 631 12 view .LVU325
 1011 02f2 0228     		cmp	r0, #2
 1012 02f4 F5D9     		bls	.L79
 632:HAL_Lib/STM32H7xx_HAL_Driver/Src/stm32h7xx_hal_rcc.c ****         {
 633:HAL_Lib/STM32H7xx_HAL_Driver/Src/stm32h7xx_hal_rcc.c ****           return HAL_TIMEOUT;
 1013              		.loc 1 633 18 view .LVU326
 1014 02f6 0320     		movs	r0, #3
 1015 02f8 A6E1     		b	.L36
 1016              	.L151:
 1017              	.LBB9:
 592:HAL_Lib/STM32H7xx_HAL_Driver/Src/stm32h7xx_hal_rcc.c ****       }
 1018              		.loc 1 592 9 is_stmt 1 view .LVU327
 592:HAL_Lib/STM32H7xx_HAL_Driver/Src/stm32h7xx_hal_rcc.c ****       }
 1019              		.loc 1 592 9 view .LVU328
 1020 02fa FFF7FEFF 		bl	HAL_GetREVID
 1021              	.LVL81:
 1022 02fe 41F20303 		movw	r3, #4099
 1023 0302 9842     		cmp	r0, r3
 1024 0304 12D8     		bhi	.L73
 592:HAL_Lib/STM32H7xx_HAL_Driver/Src/stm32h7xx_hal_rcc.c ****       }
 1025              		.loc 1 592 9 discriminator 1 view .LVU329
 1026 0306 226A     		ldr	r2, [r4, #32]
ARM GAS  C:\Users\huav\AppData\Local\Temp\ccAjt8Jj.s 			page 32


 1027 0308 202A     		cmp	r2, #32
 1028 030a 07D0     		beq	.L154
 592:HAL_Lib/STM32H7xx_HAL_Driver/Src/stm32h7xx_hal_rcc.c ****       }
 1029              		.loc 1 592 9 discriminator 4 view .LVU330
 1030 030c 7A49     		ldr	r1, .L165
 1031 030e 4B68     		ldr	r3, [r1, #4]
 1032 0310 23F0F843 		bic	r3, r3, #2080374784
 1033 0314 43EA8263 		orr	r3, r3, r2, lsl #26
 1034 0318 4B60     		str	r3, [r1, #4]
 1035 031a D3E7     		b	.L64
 1036              	.L154:
 592:HAL_Lib/STM32H7xx_HAL_Driver/Src/stm32h7xx_hal_rcc.c ****       }
 1037              		.loc 1 592 9 discriminator 3 view .LVU331
 1038 031c 764A     		ldr	r2, .L165
 1039 031e 5368     		ldr	r3, [r2, #4]
 1040 0320 23F0F843 		bic	r3, r3, #2080374784
 1041 0324 43F08043 		orr	r3, r3, #1073741824
 1042 0328 5360     		str	r3, [r2, #4]
 1043 032a CBE7     		b	.L64
 1044              	.L73:
 592:HAL_Lib/STM32H7xx_HAL_Driver/Src/stm32h7xx_hal_rcc.c ****       }
 1045              		.loc 1 592 9 discriminator 2 view .LVU332
 1046 032c 724A     		ldr	r2, .L165
 1047 032e D368     		ldr	r3, [r2, #12]
 1048 0330 23F07C53 		bic	r3, r3, #1056964608
 1049 0334 216A     		ldr	r1, [r4, #32]
 1050 0336 43EA0163 		orr	r3, r3, r1, lsl #24
 1051 033a D360     		str	r3, [r2, #12]
 1052 033c C2E7     		b	.L64
 1053              	.LVL82:
 1054              	.L70:
 597:HAL_Lib/STM32H7xx_HAL_Driver/Src/stm32h7xx_hal_rcc.c **** 
 1055              		.loc 1 597 9 view .LVU333
 1056 033e 6E4A     		ldr	r2, .L165
 1057 0340 1368     		ldr	r3, [r2]
 1058 0342 23F08003 		bic	r3, r3, #128
 1059 0346 1360     		str	r3, [r2]
 600:HAL_Lib/STM32H7xx_HAL_Driver/Src/stm32h7xx_hal_rcc.c **** 
 1060              		.loc 1 600 9 view .LVU334
 600:HAL_Lib/STM32H7xx_HAL_Driver/Src/stm32h7xx_hal_rcc.c **** 
 1061              		.loc 1 600 21 is_stmt 0 view .LVU335
 1062 0348 FFF7FEFF 		bl	HAL_GetTick
 1063              	.LVL83:
 1064 034c 0546     		mov	r5, r0
 1065              	.LVL84:
 603:HAL_Lib/STM32H7xx_HAL_Driver/Src/stm32h7xx_hal_rcc.c ****         {
 1066              		.loc 1 603 9 is_stmt 1 view .LVU336
 1067              	.L75:
 603:HAL_Lib/STM32H7xx_HAL_Driver/Src/stm32h7xx_hal_rcc.c ****         {
 1068              		.loc 1 603 15 view .LVU337
 603:HAL_Lib/STM32H7xx_HAL_Driver/Src/stm32h7xx_hal_rcc.c ****         {
 1069              		.loc 1 603 16 is_stmt 0 view .LVU338
 1070 034e 6A4B     		ldr	r3, .L165
 1071 0350 1B68     		ldr	r3, [r3]
 603:HAL_Lib/STM32H7xx_HAL_Driver/Src/stm32h7xx_hal_rcc.c ****         {
 1072              		.loc 1 603 15 view .LVU339
 1073 0352 13F4807F 		tst	r3, #256
ARM GAS  C:\Users\huav\AppData\Local\Temp\ccAjt8Jj.s 			page 33


 1074 0356 B5D0     		beq	.L64
 605:HAL_Lib/STM32H7xx_HAL_Driver/Src/stm32h7xx_hal_rcc.c ****           {
 1075              		.loc 1 605 11 is_stmt 1 view .LVU340
 605:HAL_Lib/STM32H7xx_HAL_Driver/Src/stm32h7xx_hal_rcc.c ****           {
 1076              		.loc 1 605 16 is_stmt 0 view .LVU341
 1077 0358 FFF7FEFF 		bl	HAL_GetTick
 1078              	.LVL85:
 605:HAL_Lib/STM32H7xx_HAL_Driver/Src/stm32h7xx_hal_rcc.c ****           {
 1079              		.loc 1 605 30 view .LVU342
 1080 035c 401B     		subs	r0, r0, r5
 605:HAL_Lib/STM32H7xx_HAL_Driver/Src/stm32h7xx_hal_rcc.c ****           {
 1081              		.loc 1 605 14 view .LVU343
 1082 035e 0228     		cmp	r0, #2
 1083 0360 F5D9     		bls	.L75
 607:HAL_Lib/STM32H7xx_HAL_Driver/Src/stm32h7xx_hal_rcc.c ****           }
 1084              		.loc 1 607 20 view .LVU344
 1085 0362 0320     		movs	r0, #3
 1086 0364 70E1     		b	.L36
 1087              	.LVL86:
 1088              	.L78:
 607:HAL_Lib/STM32H7xx_HAL_Driver/Src/stm32h7xx_hal_rcc.c ****           }
 1089              		.loc 1 607 20 view .LVU345
 1090              	.LBE9:
 634:HAL_Lib/STM32H7xx_HAL_Driver/Src/stm32h7xx_hal_rcc.c ****         }
 635:HAL_Lib/STM32H7xx_HAL_Driver/Src/stm32h7xx_hal_rcc.c ****       }
 636:HAL_Lib/STM32H7xx_HAL_Driver/Src/stm32h7xx_hal_rcc.c ****     }
 637:HAL_Lib/STM32H7xx_HAL_Driver/Src/stm32h7xx_hal_rcc.c ****     else
 638:HAL_Lib/STM32H7xx_HAL_Driver/Src/stm32h7xx_hal_rcc.c ****     {
 639:HAL_Lib/STM32H7xx_HAL_Driver/Src/stm32h7xx_hal_rcc.c ****       /* Disable the Internal Low Speed oscillator (LSI). */
 640:HAL_Lib/STM32H7xx_HAL_Driver/Src/stm32h7xx_hal_rcc.c ****       __HAL_RCC_LSI_DISABLE();
 1091              		.loc 1 640 7 is_stmt 1 view .LVU346
 1092 0366 644A     		ldr	r2, .L165
 1093 0368 536F     		ldr	r3, [r2, #116]
 1094 036a 23F00103 		bic	r3, r3, #1
 1095 036e 5367     		str	r3, [r2, #116]
 641:HAL_Lib/STM32H7xx_HAL_Driver/Src/stm32h7xx_hal_rcc.c **** 
 642:HAL_Lib/STM32H7xx_HAL_Driver/Src/stm32h7xx_hal_rcc.c ****       /* Get Start Tick*/
 643:HAL_Lib/STM32H7xx_HAL_Driver/Src/stm32h7xx_hal_rcc.c ****       tickstart = HAL_GetTick();
 1096              		.loc 1 643 7 view .LVU347
 1097              		.loc 1 643 19 is_stmt 0 view .LVU348
 1098 0370 FFF7FEFF 		bl	HAL_GetTick
 1099              	.LVL87:
 1100 0374 0546     		mov	r5, r0
 1101              	.LVL88:
 644:HAL_Lib/STM32H7xx_HAL_Driver/Src/stm32h7xx_hal_rcc.c **** 
 645:HAL_Lib/STM32H7xx_HAL_Driver/Src/stm32h7xx_hal_rcc.c ****       /* Wait till LSI is ready */
 646:HAL_Lib/STM32H7xx_HAL_Driver/Src/stm32h7xx_hal_rcc.c ****       while (__HAL_RCC_GET_FLAG(RCC_FLAG_LSIRDY) != 0U)
 1102              		.loc 1 646 7 is_stmt 1 view .LVU349
 1103              	.L81:
 1104              		.loc 1 646 13 view .LVU350
 1105              		.loc 1 646 14 is_stmt 0 view .LVU351
 1106 0376 604B     		ldr	r3, .L165
 1107 0378 5B6F     		ldr	r3, [r3, #116]
 1108              		.loc 1 646 13 view .LVU352
 1109 037a 13F0020F 		tst	r3, #2
 1110 037e 06D0     		beq	.L77
 647:HAL_Lib/STM32H7xx_HAL_Driver/Src/stm32h7xx_hal_rcc.c ****       {
ARM GAS  C:\Users\huav\AppData\Local\Temp\ccAjt8Jj.s 			page 34


 648:HAL_Lib/STM32H7xx_HAL_Driver/Src/stm32h7xx_hal_rcc.c ****         if ((HAL_GetTick() - tickstart) > LSI_TIMEOUT_VALUE)
 1111              		.loc 1 648 9 is_stmt 1 view .LVU353
 1112              		.loc 1 648 14 is_stmt 0 view .LVU354
 1113 0380 FFF7FEFF 		bl	HAL_GetTick
 1114              	.LVL89:
 1115              		.loc 1 648 28 view .LVU355
 1116 0384 401B     		subs	r0, r0, r5
 1117              		.loc 1 648 12 view .LVU356
 1118 0386 0228     		cmp	r0, #2
 1119 0388 F5D9     		bls	.L81
 649:HAL_Lib/STM32H7xx_HAL_Driver/Src/stm32h7xx_hal_rcc.c ****         {
 650:HAL_Lib/STM32H7xx_HAL_Driver/Src/stm32h7xx_hal_rcc.c ****           return HAL_TIMEOUT;
 1120              		.loc 1 650 18 view .LVU357
 1121 038a 0320     		movs	r0, #3
 1122 038c 5CE1     		b	.L36
 1123              	.LVL90:
 1124              	.L77:
 651:HAL_Lib/STM32H7xx_HAL_Driver/Src/stm32h7xx_hal_rcc.c ****         }
 652:HAL_Lib/STM32H7xx_HAL_Driver/Src/stm32h7xx_hal_rcc.c ****       }
 653:HAL_Lib/STM32H7xx_HAL_Driver/Src/stm32h7xx_hal_rcc.c ****     }
 654:HAL_Lib/STM32H7xx_HAL_Driver/Src/stm32h7xx_hal_rcc.c ****   }
 655:HAL_Lib/STM32H7xx_HAL_Driver/Src/stm32h7xx_hal_rcc.c **** 
 656:HAL_Lib/STM32H7xx_HAL_Driver/Src/stm32h7xx_hal_rcc.c ****   /*------------------------------ HSI48 Configuration -------------------------*/
 657:HAL_Lib/STM32H7xx_HAL_Driver/Src/stm32h7xx_hal_rcc.c ****   if (((RCC_OscInitStruct->OscillatorType) & RCC_OSCILLATORTYPE_HSI48) == RCC_OSCILLATORTYPE_HSI48)
 1125              		.loc 1 657 3 is_stmt 1 view .LVU358
 1126              		.loc 1 657 26 is_stmt 0 view .LVU359
 1127 038e 2368     		ldr	r3, [r4]
 1128              		.loc 1 657 6 view .LVU360
 1129 0390 13F0200F 		tst	r3, #32
 1130 0394 29D0     		beq	.L83
 658:HAL_Lib/STM32H7xx_HAL_Driver/Src/stm32h7xx_hal_rcc.c ****   {
 659:HAL_Lib/STM32H7xx_HAL_Driver/Src/stm32h7xx_hal_rcc.c ****     /* Check the parameters */
 660:HAL_Lib/STM32H7xx_HAL_Driver/Src/stm32h7xx_hal_rcc.c ****     assert_param(IS_RCC_HSI48(RCC_OscInitStruct->HSI48State));
 1131              		.loc 1 660 5 is_stmt 1 view .LVU361
 661:HAL_Lib/STM32H7xx_HAL_Driver/Src/stm32h7xx_hal_rcc.c **** 
 662:HAL_Lib/STM32H7xx_HAL_Driver/Src/stm32h7xx_hal_rcc.c ****     /* Check the HSI48 State */
 663:HAL_Lib/STM32H7xx_HAL_Driver/Src/stm32h7xx_hal_rcc.c ****     if ((RCC_OscInitStruct->HSI48State) != RCC_HSI48_OFF)
 1132              		.loc 1 663 5 view .LVU362
 1133              		.loc 1 663 27 is_stmt 0 view .LVU363
 1134 0396 A369     		ldr	r3, [r4, #24]
 1135              		.loc 1 663 8 view .LVU364
 1136 0398 9BB1     		cbz	r3, .L84
 664:HAL_Lib/STM32H7xx_HAL_Driver/Src/stm32h7xx_hal_rcc.c ****     {
 665:HAL_Lib/STM32H7xx_HAL_Driver/Src/stm32h7xx_hal_rcc.c ****       /* Enable the Internal Low Speed oscillator (HSI48). */
 666:HAL_Lib/STM32H7xx_HAL_Driver/Src/stm32h7xx_hal_rcc.c ****       __HAL_RCC_HSI48_ENABLE();
 1137              		.loc 1 666 7 is_stmt 1 view .LVU365
 1138 039a 574A     		ldr	r2, .L165
 1139 039c 1368     		ldr	r3, [r2]
 1140 039e 43F48053 		orr	r3, r3, #4096
 1141 03a2 1360     		str	r3, [r2]
 1142              		.loc 1 666 31 view .LVU366
 667:HAL_Lib/STM32H7xx_HAL_Driver/Src/stm32h7xx_hal_rcc.c **** 
 668:HAL_Lib/STM32H7xx_HAL_Driver/Src/stm32h7xx_hal_rcc.c ****       /* Get time-out */
 669:HAL_Lib/STM32H7xx_HAL_Driver/Src/stm32h7xx_hal_rcc.c ****       tickstart = HAL_GetTick();
 1143              		.loc 1 669 7 view .LVU367
 1144              		.loc 1 669 19 is_stmt 0 view .LVU368
 1145 03a4 FFF7FEFF 		bl	HAL_GetTick
ARM GAS  C:\Users\huav\AppData\Local\Temp\ccAjt8Jj.s 			page 35


 1146              	.LVL91:
 1147 03a8 0546     		mov	r5, r0
 1148              	.LVL92:
 670:HAL_Lib/STM32H7xx_HAL_Driver/Src/stm32h7xx_hal_rcc.c **** 
 671:HAL_Lib/STM32H7xx_HAL_Driver/Src/stm32h7xx_hal_rcc.c ****       /* Wait till HSI48 is ready */
 672:HAL_Lib/STM32H7xx_HAL_Driver/Src/stm32h7xx_hal_rcc.c ****       while (__HAL_RCC_GET_FLAG(RCC_FLAG_HSI48RDY) == 0U)
 1149              		.loc 1 672 7 is_stmt 1 view .LVU369
 1150              	.L85:
 1151              		.loc 1 672 13 view .LVU370
 1152              		.loc 1 672 14 is_stmt 0 view .LVU371
 1153 03aa 534B     		ldr	r3, .L165
 1154 03ac 1B68     		ldr	r3, [r3]
 1155              		.loc 1 672 13 view .LVU372
 1156 03ae 13F4005F 		tst	r3, #8192
 1157 03b2 1AD1     		bne	.L83
 673:HAL_Lib/STM32H7xx_HAL_Driver/Src/stm32h7xx_hal_rcc.c ****       {
 674:HAL_Lib/STM32H7xx_HAL_Driver/Src/stm32h7xx_hal_rcc.c ****         if ((HAL_GetTick() - tickstart) > HSI48_TIMEOUT_VALUE)
 1158              		.loc 1 674 9 is_stmt 1 view .LVU373
 1159              		.loc 1 674 14 is_stmt 0 view .LVU374
 1160 03b4 FFF7FEFF 		bl	HAL_GetTick
 1161              	.LVL93:
 1162              		.loc 1 674 28 view .LVU375
 1163 03b8 401B     		subs	r0, r0, r5
 1164              		.loc 1 674 12 view .LVU376
 1165 03ba 0228     		cmp	r0, #2
 1166 03bc F5D9     		bls	.L85
 675:HAL_Lib/STM32H7xx_HAL_Driver/Src/stm32h7xx_hal_rcc.c ****         {
 676:HAL_Lib/STM32H7xx_HAL_Driver/Src/stm32h7xx_hal_rcc.c ****           return HAL_TIMEOUT;
 1167              		.loc 1 676 18 view .LVU377
 1168 03be 0320     		movs	r0, #3
 1169 03c0 42E1     		b	.L36
 1170              	.LVL94:
 1171              	.L84:
 677:HAL_Lib/STM32H7xx_HAL_Driver/Src/stm32h7xx_hal_rcc.c ****         }
 678:HAL_Lib/STM32H7xx_HAL_Driver/Src/stm32h7xx_hal_rcc.c ****       }
 679:HAL_Lib/STM32H7xx_HAL_Driver/Src/stm32h7xx_hal_rcc.c ****     }
 680:HAL_Lib/STM32H7xx_HAL_Driver/Src/stm32h7xx_hal_rcc.c ****     else
 681:HAL_Lib/STM32H7xx_HAL_Driver/Src/stm32h7xx_hal_rcc.c ****     {
 682:HAL_Lib/STM32H7xx_HAL_Driver/Src/stm32h7xx_hal_rcc.c ****       /* Disable the Internal Low Speed oscillator (HSI48). */
 683:HAL_Lib/STM32H7xx_HAL_Driver/Src/stm32h7xx_hal_rcc.c ****       __HAL_RCC_HSI48_DISABLE();
 1172              		.loc 1 683 7 is_stmt 1 view .LVU378
 1173 03c2 4D4A     		ldr	r2, .L165
 1174 03c4 1368     		ldr	r3, [r2]
 1175 03c6 23F48053 		bic	r3, r3, #4096
 1176 03ca 1360     		str	r3, [r2]
 1177              		.loc 1 683 32 view .LVU379
 684:HAL_Lib/STM32H7xx_HAL_Driver/Src/stm32h7xx_hal_rcc.c **** 
 685:HAL_Lib/STM32H7xx_HAL_Driver/Src/stm32h7xx_hal_rcc.c ****       /* Get time-out */
 686:HAL_Lib/STM32H7xx_HAL_Driver/Src/stm32h7xx_hal_rcc.c ****       tickstart = HAL_GetTick();
 1178              		.loc 1 686 7 view .LVU380
 1179              		.loc 1 686 19 is_stmt 0 view .LVU381
 1180 03cc FFF7FEFF 		bl	HAL_GetTick
 1181              	.LVL95:
 1182 03d0 0546     		mov	r5, r0
 1183              	.LVL96:
 687:HAL_Lib/STM32H7xx_HAL_Driver/Src/stm32h7xx_hal_rcc.c **** 
 688:HAL_Lib/STM32H7xx_HAL_Driver/Src/stm32h7xx_hal_rcc.c ****       /* Wait till HSI48 is ready */
ARM GAS  C:\Users\huav\AppData\Local\Temp\ccAjt8Jj.s 			page 36


 689:HAL_Lib/STM32H7xx_HAL_Driver/Src/stm32h7xx_hal_rcc.c ****       while (__HAL_RCC_GET_FLAG(RCC_FLAG_HSI48RDY) != 0U)
 1184              		.loc 1 689 7 is_stmt 1 view .LVU382
 1185              	.L87:
 1186              		.loc 1 689 13 view .LVU383
 1187              		.loc 1 689 14 is_stmt 0 view .LVU384
 1188 03d2 494B     		ldr	r3, .L165
 1189 03d4 1B68     		ldr	r3, [r3]
 1190              		.loc 1 689 13 view .LVU385
 1191 03d6 13F4005F 		tst	r3, #8192
 1192 03da 06D0     		beq	.L83
 690:HAL_Lib/STM32H7xx_HAL_Driver/Src/stm32h7xx_hal_rcc.c ****       {
 691:HAL_Lib/STM32H7xx_HAL_Driver/Src/stm32h7xx_hal_rcc.c ****         if ((HAL_GetTick() - tickstart) > HSI48_TIMEOUT_VALUE)
 1193              		.loc 1 691 9 is_stmt 1 view .LVU386
 1194              		.loc 1 691 14 is_stmt 0 view .LVU387
 1195 03dc FFF7FEFF 		bl	HAL_GetTick
 1196              	.LVL97:
 1197              		.loc 1 691 28 view .LVU388
 1198 03e0 401B     		subs	r0, r0, r5
 1199              		.loc 1 691 12 view .LVU389
 1200 03e2 0228     		cmp	r0, #2
 1201 03e4 F5D9     		bls	.L87
 692:HAL_Lib/STM32H7xx_HAL_Driver/Src/stm32h7xx_hal_rcc.c ****         {
 693:HAL_Lib/STM32H7xx_HAL_Driver/Src/stm32h7xx_hal_rcc.c ****           return HAL_TIMEOUT;
 1202              		.loc 1 693 18 view .LVU390
 1203 03e6 0320     		movs	r0, #3
 1204 03e8 2EE1     		b	.L36
 1205              	.LVL98:
 1206              	.L83:
 694:HAL_Lib/STM32H7xx_HAL_Driver/Src/stm32h7xx_hal_rcc.c ****         }
 695:HAL_Lib/STM32H7xx_HAL_Driver/Src/stm32h7xx_hal_rcc.c ****       }
 696:HAL_Lib/STM32H7xx_HAL_Driver/Src/stm32h7xx_hal_rcc.c ****     }
 697:HAL_Lib/STM32H7xx_HAL_Driver/Src/stm32h7xx_hal_rcc.c ****   }
 698:HAL_Lib/STM32H7xx_HAL_Driver/Src/stm32h7xx_hal_rcc.c ****   /*------------------------------ LSE Configuration -------------------------*/
 699:HAL_Lib/STM32H7xx_HAL_Driver/Src/stm32h7xx_hal_rcc.c ****   if (((RCC_OscInitStruct->OscillatorType) & RCC_OSCILLATORTYPE_LSE) == RCC_OSCILLATORTYPE_LSE)
 1207              		.loc 1 699 3 is_stmt 1 view .LVU391
 1208              		.loc 1 699 26 is_stmt 0 view .LVU392
 1209 03ea 2368     		ldr	r3, [r4]
 1210              		.loc 1 699 6 view .LVU393
 1211 03ec 13F0040F 		tst	r3, #4
 1212 03f0 21D1     		bne	.L155
 1213              	.L89:
 700:HAL_Lib/STM32H7xx_HAL_Driver/Src/stm32h7xx_hal_rcc.c ****   {
 701:HAL_Lib/STM32H7xx_HAL_Driver/Src/stm32h7xx_hal_rcc.c ****     /* Check the parameters */
 702:HAL_Lib/STM32H7xx_HAL_Driver/Src/stm32h7xx_hal_rcc.c ****     assert_param(IS_RCC_LSE(RCC_OscInitStruct->LSEState));
 703:HAL_Lib/STM32H7xx_HAL_Driver/Src/stm32h7xx_hal_rcc.c **** 
 704:HAL_Lib/STM32H7xx_HAL_Driver/Src/stm32h7xx_hal_rcc.c ****     /* Enable write access to Backup domain */
 705:HAL_Lib/STM32H7xx_HAL_Driver/Src/stm32h7xx_hal_rcc.c ****     PWR->CR1 |= PWR_CR1_DBP;
 706:HAL_Lib/STM32H7xx_HAL_Driver/Src/stm32h7xx_hal_rcc.c **** 
 707:HAL_Lib/STM32H7xx_HAL_Driver/Src/stm32h7xx_hal_rcc.c ****     /* Wait for Backup domain Write protection disable */
 708:HAL_Lib/STM32H7xx_HAL_Driver/Src/stm32h7xx_hal_rcc.c ****     tickstart = HAL_GetTick();
 709:HAL_Lib/STM32H7xx_HAL_Driver/Src/stm32h7xx_hal_rcc.c **** 
 710:HAL_Lib/STM32H7xx_HAL_Driver/Src/stm32h7xx_hal_rcc.c ****     while ((PWR->CR1 & PWR_CR1_DBP) == 0U)
 711:HAL_Lib/STM32H7xx_HAL_Driver/Src/stm32h7xx_hal_rcc.c ****     {
 712:HAL_Lib/STM32H7xx_HAL_Driver/Src/stm32h7xx_hal_rcc.c ****       if ((HAL_GetTick() - tickstart) > RCC_DBP_TIMEOUT_VALUE)
 713:HAL_Lib/STM32H7xx_HAL_Driver/Src/stm32h7xx_hal_rcc.c ****       {
 714:HAL_Lib/STM32H7xx_HAL_Driver/Src/stm32h7xx_hal_rcc.c ****         return HAL_TIMEOUT;
 715:HAL_Lib/STM32H7xx_HAL_Driver/Src/stm32h7xx_hal_rcc.c ****       }
ARM GAS  C:\Users\huav\AppData\Local\Temp\ccAjt8Jj.s 			page 37


 716:HAL_Lib/STM32H7xx_HAL_Driver/Src/stm32h7xx_hal_rcc.c ****     }
 717:HAL_Lib/STM32H7xx_HAL_Driver/Src/stm32h7xx_hal_rcc.c **** 
 718:HAL_Lib/STM32H7xx_HAL_Driver/Src/stm32h7xx_hal_rcc.c ****     /* Set the new LSE configuration -----------------------------------------*/
 719:HAL_Lib/STM32H7xx_HAL_Driver/Src/stm32h7xx_hal_rcc.c ****     __HAL_RCC_LSE_CONFIG(RCC_OscInitStruct->LSEState);
 720:HAL_Lib/STM32H7xx_HAL_Driver/Src/stm32h7xx_hal_rcc.c ****     /* Check the LSE State */
 721:HAL_Lib/STM32H7xx_HAL_Driver/Src/stm32h7xx_hal_rcc.c ****     if ((RCC_OscInitStruct->LSEState) != RCC_LSE_OFF)
 722:HAL_Lib/STM32H7xx_HAL_Driver/Src/stm32h7xx_hal_rcc.c ****     {
 723:HAL_Lib/STM32H7xx_HAL_Driver/Src/stm32h7xx_hal_rcc.c ****       /* Get Start Tick*/
 724:HAL_Lib/STM32H7xx_HAL_Driver/Src/stm32h7xx_hal_rcc.c ****       tickstart = HAL_GetTick();
 725:HAL_Lib/STM32H7xx_HAL_Driver/Src/stm32h7xx_hal_rcc.c **** 
 726:HAL_Lib/STM32H7xx_HAL_Driver/Src/stm32h7xx_hal_rcc.c ****       /* Wait till LSE is ready */
 727:HAL_Lib/STM32H7xx_HAL_Driver/Src/stm32h7xx_hal_rcc.c ****       while (__HAL_RCC_GET_FLAG(RCC_FLAG_LSERDY) == 0U)
 728:HAL_Lib/STM32H7xx_HAL_Driver/Src/stm32h7xx_hal_rcc.c ****       {
 729:HAL_Lib/STM32H7xx_HAL_Driver/Src/stm32h7xx_hal_rcc.c ****         if ((HAL_GetTick() - tickstart) > RCC_LSE_TIMEOUT_VALUE)
 730:HAL_Lib/STM32H7xx_HAL_Driver/Src/stm32h7xx_hal_rcc.c ****         {
 731:HAL_Lib/STM32H7xx_HAL_Driver/Src/stm32h7xx_hal_rcc.c ****           return HAL_TIMEOUT;
 732:HAL_Lib/STM32H7xx_HAL_Driver/Src/stm32h7xx_hal_rcc.c ****         }
 733:HAL_Lib/STM32H7xx_HAL_Driver/Src/stm32h7xx_hal_rcc.c ****       }
 734:HAL_Lib/STM32H7xx_HAL_Driver/Src/stm32h7xx_hal_rcc.c ****     }
 735:HAL_Lib/STM32H7xx_HAL_Driver/Src/stm32h7xx_hal_rcc.c ****     else
 736:HAL_Lib/STM32H7xx_HAL_Driver/Src/stm32h7xx_hal_rcc.c ****     {
 737:HAL_Lib/STM32H7xx_HAL_Driver/Src/stm32h7xx_hal_rcc.c ****       /* Get Start Tick*/
 738:HAL_Lib/STM32H7xx_HAL_Driver/Src/stm32h7xx_hal_rcc.c ****       tickstart = HAL_GetTick();
 739:HAL_Lib/STM32H7xx_HAL_Driver/Src/stm32h7xx_hal_rcc.c **** 
 740:HAL_Lib/STM32H7xx_HAL_Driver/Src/stm32h7xx_hal_rcc.c ****       /* Wait till LSE is disabled */
 741:HAL_Lib/STM32H7xx_HAL_Driver/Src/stm32h7xx_hal_rcc.c ****       while (__HAL_RCC_GET_FLAG(RCC_FLAG_LSERDY) != 0U)
 742:HAL_Lib/STM32H7xx_HAL_Driver/Src/stm32h7xx_hal_rcc.c ****       {
 743:HAL_Lib/STM32H7xx_HAL_Driver/Src/stm32h7xx_hal_rcc.c ****         if ((HAL_GetTick() - tickstart) > RCC_LSE_TIMEOUT_VALUE)
 744:HAL_Lib/STM32H7xx_HAL_Driver/Src/stm32h7xx_hal_rcc.c ****         {
 745:HAL_Lib/STM32H7xx_HAL_Driver/Src/stm32h7xx_hal_rcc.c ****           return HAL_TIMEOUT;
 746:HAL_Lib/STM32H7xx_HAL_Driver/Src/stm32h7xx_hal_rcc.c ****         }
 747:HAL_Lib/STM32H7xx_HAL_Driver/Src/stm32h7xx_hal_rcc.c ****       }
 748:HAL_Lib/STM32H7xx_HAL_Driver/Src/stm32h7xx_hal_rcc.c ****     }
 749:HAL_Lib/STM32H7xx_HAL_Driver/Src/stm32h7xx_hal_rcc.c ****   }
 750:HAL_Lib/STM32H7xx_HAL_Driver/Src/stm32h7xx_hal_rcc.c ****   /*-------------------------------- PLL Configuration -----------------------*/
 751:HAL_Lib/STM32H7xx_HAL_Driver/Src/stm32h7xx_hal_rcc.c ****   /* Check the parameters */
 752:HAL_Lib/STM32H7xx_HAL_Driver/Src/stm32h7xx_hal_rcc.c ****   assert_param(IS_RCC_PLL(RCC_OscInitStruct->PLL.PLLState));
 1214              		.loc 1 752 3 is_stmt 1 view .LVU394
 753:HAL_Lib/STM32H7xx_HAL_Driver/Src/stm32h7xx_hal_rcc.c ****   if ((RCC_OscInitStruct->PLL.PLLState) != RCC_PLL_NONE)
 1215              		.loc 1 753 3 view .LVU395
 1216              		.loc 1 753 30 is_stmt 0 view .LVU396
 1217 03f2 636A     		ldr	r3, [r4, #36]
 1218              		.loc 1 753 6 view .LVU397
 1219 03f4 002B     		cmp	r3, #0
 1220 03f6 00F02681 		beq	.L127
 754:HAL_Lib/STM32H7xx_HAL_Driver/Src/stm32h7xx_hal_rcc.c ****   {
 755:HAL_Lib/STM32H7xx_HAL_Driver/Src/stm32h7xx_hal_rcc.c ****     /* Check if the PLL is used as system clock or not */
 756:HAL_Lib/STM32H7xx_HAL_Driver/Src/stm32h7xx_hal_rcc.c ****     if (__HAL_RCC_GET_SYSCLK_SOURCE() != RCC_CFGR_SWS_PLL1)
 1221              		.loc 1 756 5 is_stmt 1 view .LVU398
 1222              		.loc 1 756 9 is_stmt 0 view .LVU399
 1223 03fa 3F4A     		ldr	r2, .L165
 1224 03fc 1269     		ldr	r2, [r2, #16]
 1225 03fe 02F03802 		and	r2, r2, #56
 1226              		.loc 1 756 8 view .LVU400
 1227 0402 182A     		cmp	r2, #24
 1228 0404 00F0EE80 		beq	.L101
 757:HAL_Lib/STM32H7xx_HAL_Driver/Src/stm32h7xx_hal_rcc.c ****     {
ARM GAS  C:\Users\huav\AppData\Local\Temp\ccAjt8Jj.s 			page 38


 758:HAL_Lib/STM32H7xx_HAL_Driver/Src/stm32h7xx_hal_rcc.c ****       if ((RCC_OscInitStruct->PLL.PLLState) == RCC_PLL_ON)
 1229              		.loc 1 758 7 is_stmt 1 view .LVU401
 1230              		.loc 1 758 10 is_stmt 0 view .LVU402
 1231 0408 022B     		cmp	r3, #2
 1232 040a 79D0     		beq	.L156
 759:HAL_Lib/STM32H7xx_HAL_Driver/Src/stm32h7xx_hal_rcc.c ****       {
 760:HAL_Lib/STM32H7xx_HAL_Driver/Src/stm32h7xx_hal_rcc.c ****         /* Check the parameters */
 761:HAL_Lib/STM32H7xx_HAL_Driver/Src/stm32h7xx_hal_rcc.c ****         assert_param(IS_RCC_PLLSOURCE(RCC_OscInitStruct->PLL.PLLSource));
 762:HAL_Lib/STM32H7xx_HAL_Driver/Src/stm32h7xx_hal_rcc.c ****         assert_param(IS_RCC_PLLRGE_VALUE(RCC_OscInitStruct->PLL.PLLRGE));
 763:HAL_Lib/STM32H7xx_HAL_Driver/Src/stm32h7xx_hal_rcc.c ****         assert_param(IS_RCC_PLLVCO_VALUE(RCC_OscInitStruct->PLL.PLLVCOSEL));
 764:HAL_Lib/STM32H7xx_HAL_Driver/Src/stm32h7xx_hal_rcc.c ****         assert_param(IS_RCC_PLLM_VALUE(RCC_OscInitStruct->PLL.PLLM));
 765:HAL_Lib/STM32H7xx_HAL_Driver/Src/stm32h7xx_hal_rcc.c ****         assert_param(IS_RCC_PLLN_VALUE(RCC_OscInitStruct->PLL.PLLN));
 766:HAL_Lib/STM32H7xx_HAL_Driver/Src/stm32h7xx_hal_rcc.c ****         assert_param(IS_RCC_PLLP_VALUE(RCC_OscInitStruct->PLL.PLLP));
 767:HAL_Lib/STM32H7xx_HAL_Driver/Src/stm32h7xx_hal_rcc.c ****         assert_param(IS_RCC_PLLQ_VALUE(RCC_OscInitStruct->PLL.PLLQ));
 768:HAL_Lib/STM32H7xx_HAL_Driver/Src/stm32h7xx_hal_rcc.c ****         assert_param(IS_RCC_PLLR_VALUE(RCC_OscInitStruct->PLL.PLLR));
 769:HAL_Lib/STM32H7xx_HAL_Driver/Src/stm32h7xx_hal_rcc.c ****         assert_param(IS_RCC_PLLFRACN_VALUE(RCC_OscInitStruct->PLL.PLLFRACN));
 770:HAL_Lib/STM32H7xx_HAL_Driver/Src/stm32h7xx_hal_rcc.c **** 
 771:HAL_Lib/STM32H7xx_HAL_Driver/Src/stm32h7xx_hal_rcc.c ****         /* Disable the main PLL. */
 772:HAL_Lib/STM32H7xx_HAL_Driver/Src/stm32h7xx_hal_rcc.c ****         __HAL_RCC_PLL_DISABLE();
 773:HAL_Lib/STM32H7xx_HAL_Driver/Src/stm32h7xx_hal_rcc.c **** 
 774:HAL_Lib/STM32H7xx_HAL_Driver/Src/stm32h7xx_hal_rcc.c ****         /* Get Start Tick*/
 775:HAL_Lib/STM32H7xx_HAL_Driver/Src/stm32h7xx_hal_rcc.c ****         tickstart = HAL_GetTick();
 776:HAL_Lib/STM32H7xx_HAL_Driver/Src/stm32h7xx_hal_rcc.c **** 
 777:HAL_Lib/STM32H7xx_HAL_Driver/Src/stm32h7xx_hal_rcc.c ****         /* Wait till PLL is disabled */
 778:HAL_Lib/STM32H7xx_HAL_Driver/Src/stm32h7xx_hal_rcc.c ****         while (__HAL_RCC_GET_FLAG(RCC_FLAG_PLLRDY) != 0U)
 779:HAL_Lib/STM32H7xx_HAL_Driver/Src/stm32h7xx_hal_rcc.c ****         {
 780:HAL_Lib/STM32H7xx_HAL_Driver/Src/stm32h7xx_hal_rcc.c ****           if ((HAL_GetTick() - tickstart) > PLL_TIMEOUT_VALUE)
 781:HAL_Lib/STM32H7xx_HAL_Driver/Src/stm32h7xx_hal_rcc.c ****           {
 782:HAL_Lib/STM32H7xx_HAL_Driver/Src/stm32h7xx_hal_rcc.c ****             return HAL_TIMEOUT;
 783:HAL_Lib/STM32H7xx_HAL_Driver/Src/stm32h7xx_hal_rcc.c ****           }
 784:HAL_Lib/STM32H7xx_HAL_Driver/Src/stm32h7xx_hal_rcc.c ****         }
 785:HAL_Lib/STM32H7xx_HAL_Driver/Src/stm32h7xx_hal_rcc.c **** 
 786:HAL_Lib/STM32H7xx_HAL_Driver/Src/stm32h7xx_hal_rcc.c ****         /* Configure the main PLL clock source, multiplication and division factors. */
 787:HAL_Lib/STM32H7xx_HAL_Driver/Src/stm32h7xx_hal_rcc.c ****         __HAL_RCC_PLL_CONFIG(RCC_OscInitStruct->PLL.PLLSource,
 788:HAL_Lib/STM32H7xx_HAL_Driver/Src/stm32h7xx_hal_rcc.c ****                              RCC_OscInitStruct->PLL.PLLM,
 789:HAL_Lib/STM32H7xx_HAL_Driver/Src/stm32h7xx_hal_rcc.c ****                              RCC_OscInitStruct->PLL.PLLN,
 790:HAL_Lib/STM32H7xx_HAL_Driver/Src/stm32h7xx_hal_rcc.c ****                              RCC_OscInitStruct->PLL.PLLP,
 791:HAL_Lib/STM32H7xx_HAL_Driver/Src/stm32h7xx_hal_rcc.c ****                              RCC_OscInitStruct->PLL.PLLQ,
 792:HAL_Lib/STM32H7xx_HAL_Driver/Src/stm32h7xx_hal_rcc.c ****                              RCC_OscInitStruct->PLL.PLLR);
 793:HAL_Lib/STM32H7xx_HAL_Driver/Src/stm32h7xx_hal_rcc.c **** 
 794:HAL_Lib/STM32H7xx_HAL_Driver/Src/stm32h7xx_hal_rcc.c ****         /* Disable PLLFRACN . */
 795:HAL_Lib/STM32H7xx_HAL_Driver/Src/stm32h7xx_hal_rcc.c ****         __HAL_RCC_PLLFRACN_DISABLE();
 796:HAL_Lib/STM32H7xx_HAL_Driver/Src/stm32h7xx_hal_rcc.c **** 
 797:HAL_Lib/STM32H7xx_HAL_Driver/Src/stm32h7xx_hal_rcc.c ****         /* Configure PLL PLL1FRACN */
 798:HAL_Lib/STM32H7xx_HAL_Driver/Src/stm32h7xx_hal_rcc.c ****         __HAL_RCC_PLLFRACN_CONFIG(RCC_OscInitStruct->PLL.PLLFRACN);
 799:HAL_Lib/STM32H7xx_HAL_Driver/Src/stm32h7xx_hal_rcc.c **** 
 800:HAL_Lib/STM32H7xx_HAL_Driver/Src/stm32h7xx_hal_rcc.c ****         /* Select PLL1 input reference frequency range: VCI */
 801:HAL_Lib/STM32H7xx_HAL_Driver/Src/stm32h7xx_hal_rcc.c ****         __HAL_RCC_PLL_VCIRANGE(RCC_OscInitStruct->PLL.PLLRGE);
 802:HAL_Lib/STM32H7xx_HAL_Driver/Src/stm32h7xx_hal_rcc.c **** 
 803:HAL_Lib/STM32H7xx_HAL_Driver/Src/stm32h7xx_hal_rcc.c ****         /* Select PLL1 output frequency range : VCO */
 804:HAL_Lib/STM32H7xx_HAL_Driver/Src/stm32h7xx_hal_rcc.c ****         __HAL_RCC_PLL_VCORANGE(RCC_OscInitStruct->PLL.PLLVCOSEL);
 805:HAL_Lib/STM32H7xx_HAL_Driver/Src/stm32h7xx_hal_rcc.c **** 
 806:HAL_Lib/STM32H7xx_HAL_Driver/Src/stm32h7xx_hal_rcc.c ****         /* Enable PLL System Clock output. */
 807:HAL_Lib/STM32H7xx_HAL_Driver/Src/stm32h7xx_hal_rcc.c ****         __HAL_RCC_PLLCLKOUT_ENABLE(RCC_PLL1_DIVP);
 808:HAL_Lib/STM32H7xx_HAL_Driver/Src/stm32h7xx_hal_rcc.c **** 
 809:HAL_Lib/STM32H7xx_HAL_Driver/Src/stm32h7xx_hal_rcc.c ****         /* Enable PLL1Q Clock output. */
 810:HAL_Lib/STM32H7xx_HAL_Driver/Src/stm32h7xx_hal_rcc.c ****         __HAL_RCC_PLLCLKOUT_ENABLE(RCC_PLL1_DIVQ);
ARM GAS  C:\Users\huav\AppData\Local\Temp\ccAjt8Jj.s 			page 39


 811:HAL_Lib/STM32H7xx_HAL_Driver/Src/stm32h7xx_hal_rcc.c **** 
 812:HAL_Lib/STM32H7xx_HAL_Driver/Src/stm32h7xx_hal_rcc.c ****         /* Enable PLL1R  Clock output. */
 813:HAL_Lib/STM32H7xx_HAL_Driver/Src/stm32h7xx_hal_rcc.c ****         __HAL_RCC_PLLCLKOUT_ENABLE(RCC_PLL1_DIVR);
 814:HAL_Lib/STM32H7xx_HAL_Driver/Src/stm32h7xx_hal_rcc.c **** 
 815:HAL_Lib/STM32H7xx_HAL_Driver/Src/stm32h7xx_hal_rcc.c ****         /* Enable PLL1FRACN . */
 816:HAL_Lib/STM32H7xx_HAL_Driver/Src/stm32h7xx_hal_rcc.c ****         __HAL_RCC_PLLFRACN_ENABLE();
 817:HAL_Lib/STM32H7xx_HAL_Driver/Src/stm32h7xx_hal_rcc.c **** 
 818:HAL_Lib/STM32H7xx_HAL_Driver/Src/stm32h7xx_hal_rcc.c ****         /* Enable the main PLL. */
 819:HAL_Lib/STM32H7xx_HAL_Driver/Src/stm32h7xx_hal_rcc.c ****         __HAL_RCC_PLL_ENABLE();
 820:HAL_Lib/STM32H7xx_HAL_Driver/Src/stm32h7xx_hal_rcc.c **** 
 821:HAL_Lib/STM32H7xx_HAL_Driver/Src/stm32h7xx_hal_rcc.c ****         /* Get Start Tick*/
 822:HAL_Lib/STM32H7xx_HAL_Driver/Src/stm32h7xx_hal_rcc.c ****         tickstart = HAL_GetTick();
 823:HAL_Lib/STM32H7xx_HAL_Driver/Src/stm32h7xx_hal_rcc.c **** 
 824:HAL_Lib/STM32H7xx_HAL_Driver/Src/stm32h7xx_hal_rcc.c ****         /* Wait till PLL is ready */
 825:HAL_Lib/STM32H7xx_HAL_Driver/Src/stm32h7xx_hal_rcc.c ****         while (__HAL_RCC_GET_FLAG(RCC_FLAG_PLLRDY) == 0U)
 826:HAL_Lib/STM32H7xx_HAL_Driver/Src/stm32h7xx_hal_rcc.c ****         {
 827:HAL_Lib/STM32H7xx_HAL_Driver/Src/stm32h7xx_hal_rcc.c ****           if ((HAL_GetTick() - tickstart) > PLL_TIMEOUT_VALUE)
 828:HAL_Lib/STM32H7xx_HAL_Driver/Src/stm32h7xx_hal_rcc.c ****           {
 829:HAL_Lib/STM32H7xx_HAL_Driver/Src/stm32h7xx_hal_rcc.c ****             return HAL_TIMEOUT;
 830:HAL_Lib/STM32H7xx_HAL_Driver/Src/stm32h7xx_hal_rcc.c ****           }
 831:HAL_Lib/STM32H7xx_HAL_Driver/Src/stm32h7xx_hal_rcc.c ****         }
 832:HAL_Lib/STM32H7xx_HAL_Driver/Src/stm32h7xx_hal_rcc.c ****       }
 833:HAL_Lib/STM32H7xx_HAL_Driver/Src/stm32h7xx_hal_rcc.c ****       else
 834:HAL_Lib/STM32H7xx_HAL_Driver/Src/stm32h7xx_hal_rcc.c ****       {
 835:HAL_Lib/STM32H7xx_HAL_Driver/Src/stm32h7xx_hal_rcc.c ****         /* Disable the main PLL. */
 836:HAL_Lib/STM32H7xx_HAL_Driver/Src/stm32h7xx_hal_rcc.c ****         __HAL_RCC_PLL_DISABLE();
 1233              		.loc 1 836 9 is_stmt 1 view .LVU403
 1234 040c 3A4A     		ldr	r2, .L165
 1235 040e 1368     		ldr	r3, [r2]
 1236 0410 23F08073 		bic	r3, r3, #16777216
 1237 0414 1360     		str	r3, [r2]
 837:HAL_Lib/STM32H7xx_HAL_Driver/Src/stm32h7xx_hal_rcc.c **** 
 838:HAL_Lib/STM32H7xx_HAL_Driver/Src/stm32h7xx_hal_rcc.c ****         /* Get Start Tick*/
 839:HAL_Lib/STM32H7xx_HAL_Driver/Src/stm32h7xx_hal_rcc.c ****         tickstart = HAL_GetTick();
 1238              		.loc 1 839 9 view .LVU404
 1239              		.loc 1 839 21 is_stmt 0 view .LVU405
 1240 0416 FFF7FEFF 		bl	HAL_GetTick
 1241              	.LVL99:
 1242 041a 0446     		mov	r4, r0
 1243              	.LVL100:
 840:HAL_Lib/STM32H7xx_HAL_Driver/Src/stm32h7xx_hal_rcc.c **** 
 841:HAL_Lib/STM32H7xx_HAL_Driver/Src/stm32h7xx_hal_rcc.c ****         /* Wait till PLL is disabled */
 842:HAL_Lib/STM32H7xx_HAL_Driver/Src/stm32h7xx_hal_rcc.c ****         while (__HAL_RCC_GET_FLAG(RCC_FLAG_PLLRDY) != 0U)
 1244              		.loc 1 842 9 is_stmt 1 view .LVU406
 1245              	.L107:
 1246              		.loc 1 842 15 view .LVU407
 1247              		.loc 1 842 16 is_stmt 0 view .LVU408
 1248 041c 364B     		ldr	r3, .L165
 1249 041e 1B68     		ldr	r3, [r3]
 1250              		.loc 1 842 15 view .LVU409
 1251 0420 13F0007F 		tst	r3, #33554432
 1252 0424 00F0DC80 		beq	.L157
 843:HAL_Lib/STM32H7xx_HAL_Driver/Src/stm32h7xx_hal_rcc.c ****         {
 844:HAL_Lib/STM32H7xx_HAL_Driver/Src/stm32h7xx_hal_rcc.c ****           if ((HAL_GetTick() - tickstart) > PLL_TIMEOUT_VALUE)
 1253              		.loc 1 844 11 is_stmt 1 view .LVU410
 1254              		.loc 1 844 16 is_stmt 0 view .LVU411
 1255 0428 FFF7FEFF 		bl	HAL_GetTick
ARM GAS  C:\Users\huav\AppData\Local\Temp\ccAjt8Jj.s 			page 40


 1256              	.LVL101:
 1257              		.loc 1 844 30 view .LVU412
 1258 042c 001B     		subs	r0, r0, r4
 1259              		.loc 1 844 14 view .LVU413
 1260 042e 0228     		cmp	r0, #2
 1261 0430 F4D9     		bls	.L107
 845:HAL_Lib/STM32H7xx_HAL_Driver/Src/stm32h7xx_hal_rcc.c ****           {
 846:HAL_Lib/STM32H7xx_HAL_Driver/Src/stm32h7xx_hal_rcc.c ****             return HAL_TIMEOUT;
 1262              		.loc 1 846 20 view .LVU414
 1263 0432 0320     		movs	r0, #3
 1264 0434 08E1     		b	.L36
 1265              	.LVL102:
 1266              	.L155:
 702:HAL_Lib/STM32H7xx_HAL_Driver/Src/stm32h7xx_hal_rcc.c **** 
 1267              		.loc 1 702 5 is_stmt 1 view .LVU415
 705:HAL_Lib/STM32H7xx_HAL_Driver/Src/stm32h7xx_hal_rcc.c **** 
 1268              		.loc 1 705 5 view .LVU416
 705:HAL_Lib/STM32H7xx_HAL_Driver/Src/stm32h7xx_hal_rcc.c **** 
 1269              		.loc 1 705 14 is_stmt 0 view .LVU417
 1270 0436 314A     		ldr	r2, .L165+4
 1271 0438 1368     		ldr	r3, [r2]
 1272 043a 43F48073 		orr	r3, r3, #256
 1273 043e 1360     		str	r3, [r2]
 708:HAL_Lib/STM32H7xx_HAL_Driver/Src/stm32h7xx_hal_rcc.c **** 
 1274              		.loc 1 708 5 is_stmt 1 view .LVU418
 708:HAL_Lib/STM32H7xx_HAL_Driver/Src/stm32h7xx_hal_rcc.c **** 
 1275              		.loc 1 708 17 is_stmt 0 view .LVU419
 1276 0440 FFF7FEFF 		bl	HAL_GetTick
 1277              	.LVL103:
 1278 0444 0546     		mov	r5, r0
 1279              	.LVL104:
 710:HAL_Lib/STM32H7xx_HAL_Driver/Src/stm32h7xx_hal_rcc.c ****     {
 1280              		.loc 1 710 5 is_stmt 1 view .LVU420
 1281              	.L90:
 710:HAL_Lib/STM32H7xx_HAL_Driver/Src/stm32h7xx_hal_rcc.c ****     {
 1282              		.loc 1 710 11 view .LVU421
 710:HAL_Lib/STM32H7xx_HAL_Driver/Src/stm32h7xx_hal_rcc.c ****     {
 1283              		.loc 1 710 16 is_stmt 0 view .LVU422
 1284 0446 2D4B     		ldr	r3, .L165+4
 1285 0448 1B68     		ldr	r3, [r3]
 710:HAL_Lib/STM32H7xx_HAL_Driver/Src/stm32h7xx_hal_rcc.c ****     {
 1286              		.loc 1 710 11 view .LVU423
 1287 044a 13F4807F 		tst	r3, #256
 1288 044e 06D1     		bne	.L158
 712:HAL_Lib/STM32H7xx_HAL_Driver/Src/stm32h7xx_hal_rcc.c ****       {
 1289              		.loc 1 712 7 is_stmt 1 view .LVU424
 712:HAL_Lib/STM32H7xx_HAL_Driver/Src/stm32h7xx_hal_rcc.c ****       {
 1290              		.loc 1 712 12 is_stmt 0 view .LVU425
 1291 0450 FFF7FEFF 		bl	HAL_GetTick
 1292              	.LVL105:
 712:HAL_Lib/STM32H7xx_HAL_Driver/Src/stm32h7xx_hal_rcc.c ****       {
 1293              		.loc 1 712 26 view .LVU426
 1294 0454 401B     		subs	r0, r0, r5
 712:HAL_Lib/STM32H7xx_HAL_Driver/Src/stm32h7xx_hal_rcc.c ****       {
 1295              		.loc 1 712 10 view .LVU427
 1296 0456 6428     		cmp	r0, #100
 1297 0458 F5D9     		bls	.L90
ARM GAS  C:\Users\huav\AppData\Local\Temp\ccAjt8Jj.s 			page 41


 714:HAL_Lib/STM32H7xx_HAL_Driver/Src/stm32h7xx_hal_rcc.c ****       }
 1298              		.loc 1 714 16 view .LVU428
 1299 045a 0320     		movs	r0, #3
 1300 045c F4E0     		b	.L36
 1301              	.L158:
 719:HAL_Lib/STM32H7xx_HAL_Driver/Src/stm32h7xx_hal_rcc.c ****     /* Check the LSE State */
 1302              		.loc 1 719 5 is_stmt 1 view .LVU429
 719:HAL_Lib/STM32H7xx_HAL_Driver/Src/stm32h7xx_hal_rcc.c ****     /* Check the LSE State */
 1303              		.loc 1 719 5 view .LVU430
 1304 045e A368     		ldr	r3, [r4, #8]
 1305 0460 012B     		cmp	r3, #1
 1306 0462 0AD0     		beq	.L159
 719:HAL_Lib/STM32H7xx_HAL_Driver/Src/stm32h7xx_hal_rcc.c ****     /* Check the LSE State */
 1307              		.loc 1 719 5 discriminator 2 view .LVU431
 1308 0464 0BBB     		cbnz	r3, .L94
 719:HAL_Lib/STM32H7xx_HAL_Driver/Src/stm32h7xx_hal_rcc.c ****     /* Check the LSE State */
 1309              		.loc 1 719 5 discriminator 4 view .LVU432
 1310 0466 244B     		ldr	r3, .L165
 1311 0468 1A6F     		ldr	r2, [r3, #112]
 1312 046a 22F00102 		bic	r2, r2, #1
 1313 046e 1A67     		str	r2, [r3, #112]
 719:HAL_Lib/STM32H7xx_HAL_Driver/Src/stm32h7xx_hal_rcc.c ****     /* Check the LSE State */
 1314              		.loc 1 719 5 discriminator 4 view .LVU433
 1315 0470 1A6F     		ldr	r2, [r3, #112]
 1316 0472 22F00402 		bic	r2, r2, #4
 1317 0476 1A67     		str	r2, [r3, #112]
 1318 0478 04E0     		b	.L93
 1319              	.L159:
 719:HAL_Lib/STM32H7xx_HAL_Driver/Src/stm32h7xx_hal_rcc.c ****     /* Check the LSE State */
 1320              		.loc 1 719 5 discriminator 1 view .LVU434
 1321 047a 1F4A     		ldr	r2, .L165
 1322 047c 136F     		ldr	r3, [r2, #112]
 1323 047e 43F00103 		orr	r3, r3, #1
 1324 0482 1367     		str	r3, [r2, #112]
 1325              	.L93:
 719:HAL_Lib/STM32H7xx_HAL_Driver/Src/stm32h7xx_hal_rcc.c ****     /* Check the LSE State */
 1326              		.loc 1 719 5 discriminator 10 view .LVU435
 721:HAL_Lib/STM32H7xx_HAL_Driver/Src/stm32h7xx_hal_rcc.c ****     {
 1327              		.loc 1 721 5 discriminator 10 view .LVU436
 721:HAL_Lib/STM32H7xx_HAL_Driver/Src/stm32h7xx_hal_rcc.c ****     {
 1328              		.loc 1 721 27 is_stmt 0 discriminator 10 view .LVU437
 1329 0484 A368     		ldr	r3, [r4, #8]
 721:HAL_Lib/STM32H7xx_HAL_Driver/Src/stm32h7xx_hal_rcc.c ****     {
 1330              		.loc 1 721 8 discriminator 10 view .LVU438
 1331 0486 33B3     		cbz	r3, .L96
 724:HAL_Lib/STM32H7xx_HAL_Driver/Src/stm32h7xx_hal_rcc.c **** 
 1332              		.loc 1 724 7 is_stmt 1 view .LVU439
 724:HAL_Lib/STM32H7xx_HAL_Driver/Src/stm32h7xx_hal_rcc.c **** 
 1333              		.loc 1 724 19 is_stmt 0 view .LVU440
 1334 0488 FFF7FEFF 		bl	HAL_GetTick
 1335              	.LVL106:
 1336 048c 0546     		mov	r5, r0
 1337              	.LVL107:
 727:HAL_Lib/STM32H7xx_HAL_Driver/Src/stm32h7xx_hal_rcc.c ****       {
 1338              		.loc 1 727 7 is_stmt 1 view .LVU441
 1339              	.L97:
 727:HAL_Lib/STM32H7xx_HAL_Driver/Src/stm32h7xx_hal_rcc.c ****       {
ARM GAS  C:\Users\huav\AppData\Local\Temp\ccAjt8Jj.s 			page 42


 1340              		.loc 1 727 13 view .LVU442
 727:HAL_Lib/STM32H7xx_HAL_Driver/Src/stm32h7xx_hal_rcc.c ****       {
 1341              		.loc 1 727 14 is_stmt 0 view .LVU443
 1342 048e 1A4B     		ldr	r3, .L165
 1343 0490 1B6F     		ldr	r3, [r3, #112]
 727:HAL_Lib/STM32H7xx_HAL_Driver/Src/stm32h7xx_hal_rcc.c ****       {
 1344              		.loc 1 727 13 view .LVU444
 1345 0492 13F0020F 		tst	r3, #2
 1346 0496 ACD1     		bne	.L89
 729:HAL_Lib/STM32H7xx_HAL_Driver/Src/stm32h7xx_hal_rcc.c ****         {
 1347              		.loc 1 729 9 is_stmt 1 view .LVU445
 729:HAL_Lib/STM32H7xx_HAL_Driver/Src/stm32h7xx_hal_rcc.c ****         {
 1348              		.loc 1 729 14 is_stmt 0 view .LVU446
 1349 0498 FFF7FEFF 		bl	HAL_GetTick
 1350              	.LVL108:
 729:HAL_Lib/STM32H7xx_HAL_Driver/Src/stm32h7xx_hal_rcc.c ****         {
 1351              		.loc 1 729 28 view .LVU447
 1352 049c 401B     		subs	r0, r0, r5
 729:HAL_Lib/STM32H7xx_HAL_Driver/Src/stm32h7xx_hal_rcc.c ****         {
 1353              		.loc 1 729 12 view .LVU448
 1354 049e 41F28833 		movw	r3, #5000
 1355 04a2 9842     		cmp	r0, r3
 1356 04a4 F3D9     		bls	.L97
 731:HAL_Lib/STM32H7xx_HAL_Driver/Src/stm32h7xx_hal_rcc.c ****         }
 1357              		.loc 1 731 18 view .LVU449
 1358 04a6 0320     		movs	r0, #3
 1359 04a8 CEE0     		b	.L36
 1360              	.L94:
 719:HAL_Lib/STM32H7xx_HAL_Driver/Src/stm32h7xx_hal_rcc.c ****     /* Check the LSE State */
 1361              		.loc 1 719 5 is_stmt 1 discriminator 5 view .LVU450
 1362 04aa 052B     		cmp	r3, #5
 1363 04ac 09D0     		beq	.L160
 719:HAL_Lib/STM32H7xx_HAL_Driver/Src/stm32h7xx_hal_rcc.c ****     /* Check the LSE State */
 1364              		.loc 1 719 5 discriminator 8 view .LVU451
 1365 04ae 124B     		ldr	r3, .L165
 1366 04b0 1A6F     		ldr	r2, [r3, #112]
 1367 04b2 22F00102 		bic	r2, r2, #1
 1368 04b6 1A67     		str	r2, [r3, #112]
 719:HAL_Lib/STM32H7xx_HAL_Driver/Src/stm32h7xx_hal_rcc.c ****     /* Check the LSE State */
 1369              		.loc 1 719 5 discriminator 8 view .LVU452
 1370 04b8 1A6F     		ldr	r2, [r3, #112]
 1371 04ba 22F00402 		bic	r2, r2, #4
 1372 04be 1A67     		str	r2, [r3, #112]
 1373 04c0 E0E7     		b	.L93
 1374              	.L160:
 719:HAL_Lib/STM32H7xx_HAL_Driver/Src/stm32h7xx_hal_rcc.c ****     /* Check the LSE State */
 1375              		.loc 1 719 5 discriminator 7 view .LVU453
 1376 04c2 0D4B     		ldr	r3, .L165
 1377 04c4 1A6F     		ldr	r2, [r3, #112]
 1378 04c6 42F00402 		orr	r2, r2, #4
 1379 04ca 1A67     		str	r2, [r3, #112]
 719:HAL_Lib/STM32H7xx_HAL_Driver/Src/stm32h7xx_hal_rcc.c ****     /* Check the LSE State */
 1380              		.loc 1 719 5 discriminator 7 view .LVU454
 1381 04cc 1A6F     		ldr	r2, [r3, #112]
 1382 04ce 42F00102 		orr	r2, r2, #1
 1383 04d2 1A67     		str	r2, [r3, #112]
 1384 04d4 D6E7     		b	.L93
ARM GAS  C:\Users\huav\AppData\Local\Temp\ccAjt8Jj.s 			page 43


 1385              	.L96:
 738:HAL_Lib/STM32H7xx_HAL_Driver/Src/stm32h7xx_hal_rcc.c **** 
 1386              		.loc 1 738 7 view .LVU455
 738:HAL_Lib/STM32H7xx_HAL_Driver/Src/stm32h7xx_hal_rcc.c **** 
 1387              		.loc 1 738 19 is_stmt 0 view .LVU456
 1388 04d6 FFF7FEFF 		bl	HAL_GetTick
 1389              	.LVL109:
 1390 04da 0546     		mov	r5, r0
 1391              	.LVL110:
 741:HAL_Lib/STM32H7xx_HAL_Driver/Src/stm32h7xx_hal_rcc.c ****       {
 1392              		.loc 1 741 7 is_stmt 1 view .LVU457
 1393              	.L99:
 741:HAL_Lib/STM32H7xx_HAL_Driver/Src/stm32h7xx_hal_rcc.c ****       {
 1394              		.loc 1 741 13 view .LVU458
 741:HAL_Lib/STM32H7xx_HAL_Driver/Src/stm32h7xx_hal_rcc.c ****       {
 1395              		.loc 1 741 14 is_stmt 0 view .LVU459
 1396 04dc 064B     		ldr	r3, .L165
 1397 04de 1B6F     		ldr	r3, [r3, #112]
 741:HAL_Lib/STM32H7xx_HAL_Driver/Src/stm32h7xx_hal_rcc.c ****       {
 1398              		.loc 1 741 13 view .LVU460
 1399 04e0 13F0020F 		tst	r3, #2
 1400 04e4 85D0     		beq	.L89
 743:HAL_Lib/STM32H7xx_HAL_Driver/Src/stm32h7xx_hal_rcc.c ****         {
 1401              		.loc 1 743 9 is_stmt 1 view .LVU461
 743:HAL_Lib/STM32H7xx_HAL_Driver/Src/stm32h7xx_hal_rcc.c ****         {
 1402              		.loc 1 743 14 is_stmt 0 view .LVU462
 1403 04e6 FFF7FEFF 		bl	HAL_GetTick
 1404              	.LVL111:
 743:HAL_Lib/STM32H7xx_HAL_Driver/Src/stm32h7xx_hal_rcc.c ****         {
 1405              		.loc 1 743 28 view .LVU463
 1406 04ea 401B     		subs	r0, r0, r5
 743:HAL_Lib/STM32H7xx_HAL_Driver/Src/stm32h7xx_hal_rcc.c ****         {
 1407              		.loc 1 743 12 view .LVU464
 1408 04ec 41F28833 		movw	r3, #5000
 1409 04f0 9842     		cmp	r0, r3
 1410 04f2 F3D9     		bls	.L99
 745:HAL_Lib/STM32H7xx_HAL_Driver/Src/stm32h7xx_hal_rcc.c ****         }
 1411              		.loc 1 745 18 view .LVU465
 1412 04f4 0320     		movs	r0, #3
 1413 04f6 A7E0     		b	.L36
 1414              	.L166:
 1415              		.align	2
 1416              	.L165:
 1417 04f8 00440258 		.word	1476543488
 1418 04fc 00480258 		.word	1476544512
 1419              	.LVL112:
 1420              	.L156:
 761:HAL_Lib/STM32H7xx_HAL_Driver/Src/stm32h7xx_hal_rcc.c ****         assert_param(IS_RCC_PLLRGE_VALUE(RCC_OscInitStruct->PLL.PLLRGE));
 1421              		.loc 1 761 9 is_stmt 1 view .LVU466
 762:HAL_Lib/STM32H7xx_HAL_Driver/Src/stm32h7xx_hal_rcc.c ****         assert_param(IS_RCC_PLLVCO_VALUE(RCC_OscInitStruct->PLL.PLLVCOSEL));
 1422              		.loc 1 762 9 view .LVU467
 763:HAL_Lib/STM32H7xx_HAL_Driver/Src/stm32h7xx_hal_rcc.c ****         assert_param(IS_RCC_PLLM_VALUE(RCC_OscInitStruct->PLL.PLLM));
 1423              		.loc 1 763 9 view .LVU468
 764:HAL_Lib/STM32H7xx_HAL_Driver/Src/stm32h7xx_hal_rcc.c ****         assert_param(IS_RCC_PLLN_VALUE(RCC_OscInitStruct->PLL.PLLN));
 1424              		.loc 1 764 9 view .LVU469
 765:HAL_Lib/STM32H7xx_HAL_Driver/Src/stm32h7xx_hal_rcc.c ****         assert_param(IS_RCC_PLLP_VALUE(RCC_OscInitStruct->PLL.PLLP));
 1425              		.loc 1 765 9 view .LVU470
ARM GAS  C:\Users\huav\AppData\Local\Temp\ccAjt8Jj.s 			page 44


 766:HAL_Lib/STM32H7xx_HAL_Driver/Src/stm32h7xx_hal_rcc.c ****         assert_param(IS_RCC_PLLQ_VALUE(RCC_OscInitStruct->PLL.PLLQ));
 1426              		.loc 1 766 9 view .LVU471
 767:HAL_Lib/STM32H7xx_HAL_Driver/Src/stm32h7xx_hal_rcc.c ****         assert_param(IS_RCC_PLLR_VALUE(RCC_OscInitStruct->PLL.PLLR));
 1427              		.loc 1 767 9 view .LVU472
 768:HAL_Lib/STM32H7xx_HAL_Driver/Src/stm32h7xx_hal_rcc.c ****         assert_param(IS_RCC_PLLFRACN_VALUE(RCC_OscInitStruct->PLL.PLLFRACN));
 1428              		.loc 1 768 9 view .LVU473
 769:HAL_Lib/STM32H7xx_HAL_Driver/Src/stm32h7xx_hal_rcc.c **** 
 1429              		.loc 1 769 9 view .LVU474
 772:HAL_Lib/STM32H7xx_HAL_Driver/Src/stm32h7xx_hal_rcc.c **** 
 1430              		.loc 1 772 9 view .LVU475
 1431 0500 594A     		ldr	r2, .L167
 1432 0502 1368     		ldr	r3, [r2]
 1433 0504 23F08073 		bic	r3, r3, #16777216
 1434 0508 1360     		str	r3, [r2]
 775:HAL_Lib/STM32H7xx_HAL_Driver/Src/stm32h7xx_hal_rcc.c **** 
 1435              		.loc 1 775 9 view .LVU476
 775:HAL_Lib/STM32H7xx_HAL_Driver/Src/stm32h7xx_hal_rcc.c **** 
 1436              		.loc 1 775 21 is_stmt 0 view .LVU477
 1437 050a FFF7FEFF 		bl	HAL_GetTick
 1438              	.LVL113:
 1439 050e 0546     		mov	r5, r0
 1440              	.LVL114:
 778:HAL_Lib/STM32H7xx_HAL_Driver/Src/stm32h7xx_hal_rcc.c ****         {
 1441              		.loc 1 778 9 is_stmt 1 view .LVU478
 1442              	.L103:
 778:HAL_Lib/STM32H7xx_HAL_Driver/Src/stm32h7xx_hal_rcc.c ****         {
 1443              		.loc 1 778 15 view .LVU479
 778:HAL_Lib/STM32H7xx_HAL_Driver/Src/stm32h7xx_hal_rcc.c ****         {
 1444              		.loc 1 778 16 is_stmt 0 view .LVU480
 1445 0510 554B     		ldr	r3, .L167
 1446 0512 1B68     		ldr	r3, [r3]
 778:HAL_Lib/STM32H7xx_HAL_Driver/Src/stm32h7xx_hal_rcc.c ****         {
 1447              		.loc 1 778 15 view .LVU481
 1448 0514 13F0007F 		tst	r3, #33554432
 1449 0518 06D0     		beq	.L161
 780:HAL_Lib/STM32H7xx_HAL_Driver/Src/stm32h7xx_hal_rcc.c ****           {
 1450              		.loc 1 780 11 is_stmt 1 view .LVU482
 780:HAL_Lib/STM32H7xx_HAL_Driver/Src/stm32h7xx_hal_rcc.c ****           {
 1451              		.loc 1 780 16 is_stmt 0 view .LVU483
 1452 051a FFF7FEFF 		bl	HAL_GetTick
 1453              	.LVL115:
 780:HAL_Lib/STM32H7xx_HAL_Driver/Src/stm32h7xx_hal_rcc.c ****           {
 1454              		.loc 1 780 30 view .LVU484
 1455 051e 401B     		subs	r0, r0, r5
 780:HAL_Lib/STM32H7xx_HAL_Driver/Src/stm32h7xx_hal_rcc.c ****           {
 1456              		.loc 1 780 14 view .LVU485
 1457 0520 0228     		cmp	r0, #2
 1458 0522 F5D9     		bls	.L103
 782:HAL_Lib/STM32H7xx_HAL_Driver/Src/stm32h7xx_hal_rcc.c ****           }
 1459              		.loc 1 782 20 view .LVU486
 1460 0524 0320     		movs	r0, #3
 1461 0526 8FE0     		b	.L36
 1462              	.L161:
 787:HAL_Lib/STM32H7xx_HAL_Driver/Src/stm32h7xx_hal_rcc.c ****                              RCC_OscInitStruct->PLL.PLLM,
 1463              		.loc 1 787 9 is_stmt 1 view .LVU487
 787:HAL_Lib/STM32H7xx_HAL_Driver/Src/stm32h7xx_hal_rcc.c ****                              RCC_OscInitStruct->PLL.PLLM,
 1464              		.loc 1 787 9 view .LVU488
ARM GAS  C:\Users\huav\AppData\Local\Temp\ccAjt8Jj.s 			page 45


 1465 0528 4F4B     		ldr	r3, .L167
 1466 052a 996A     		ldr	r1, [r3, #40]
 1467 052c 4F4A     		ldr	r2, .L167+4
 1468 052e 0A40     		ands	r2, r2, r1
 1469 0530 A16A     		ldr	r1, [r4, #40]
 1470 0532 E06A     		ldr	r0, [r4, #44]
 1471 0534 41EA0011 		orr	r1, r1, r0, lsl #4
 1472 0538 0A43     		orrs	r2, r2, r1
 1473 053a 9A62     		str	r2, [r3, #40]
 787:HAL_Lib/STM32H7xx_HAL_Driver/Src/stm32h7xx_hal_rcc.c ****                              RCC_OscInitStruct->PLL.PLLM,
 1474              		.loc 1 787 9 view .LVU489
 1475 053c 226B     		ldr	r2, [r4, #48]
 1476 053e 013A     		subs	r2, r2, #1
 1477 0540 C2F30802 		ubfx	r2, r2, #0, #9
 1478 0544 616B     		ldr	r1, [r4, #52]
 1479 0546 0139     		subs	r1, r1, #1
 1480 0548 4902     		lsls	r1, r1, #9
 1481 054a 89B2     		uxth	r1, r1
 1482 054c 0A43     		orrs	r2, r2, r1
 1483 054e A16B     		ldr	r1, [r4, #56]
 1484 0550 0139     		subs	r1, r1, #1
 1485 0552 0904     		lsls	r1, r1, #16
 1486 0554 01F4FE01 		and	r1, r1, #8323072
 1487 0558 0A43     		orrs	r2, r2, r1
 1488 055a E16B     		ldr	r1, [r4, #60]
 1489 055c 0139     		subs	r1, r1, #1
 1490 055e 0906     		lsls	r1, r1, #24
 1491 0560 01F0FE41 		and	r1, r1, #2130706432
 1492 0564 0A43     		orrs	r2, r2, r1
 1493 0566 1A63     		str	r2, [r3, #48]
 787:HAL_Lib/STM32H7xx_HAL_Driver/Src/stm32h7xx_hal_rcc.c ****                              RCC_OscInitStruct->PLL.PLLM,
 1494              		.loc 1 787 9 view .LVU490
 795:HAL_Lib/STM32H7xx_HAL_Driver/Src/stm32h7xx_hal_rcc.c **** 
 1495              		.loc 1 795 9 view .LVU491
 1496 0568 DA6A     		ldr	r2, [r3, #44]
 1497 056a 22F00102 		bic	r2, r2, #1
 1498 056e DA62     		str	r2, [r3, #44]
 798:HAL_Lib/STM32H7xx_HAL_Driver/Src/stm32h7xx_hal_rcc.c **** 
 1499              		.loc 1 798 9 view .LVU492
 1500 0570 596B     		ldr	r1, [r3, #52]
 1501 0572 3F4A     		ldr	r2, .L167+8
 1502 0574 0A40     		ands	r2, r2, r1
 1503 0576 A16C     		ldr	r1, [r4, #72]
 1504 0578 42EAC102 		orr	r2, r2, r1, lsl #3
 1505 057c 5A63     		str	r2, [r3, #52]
 801:HAL_Lib/STM32H7xx_HAL_Driver/Src/stm32h7xx_hal_rcc.c **** 
 1506              		.loc 1 801 9 view .LVU493
 1507 057e DA6A     		ldr	r2, [r3, #44]
 1508 0580 22F00C02 		bic	r2, r2, #12
 1509 0584 216C     		ldr	r1, [r4, #64]
 1510 0586 0A43     		orrs	r2, r2, r1
 1511 0588 DA62     		str	r2, [r3, #44]
 804:HAL_Lib/STM32H7xx_HAL_Driver/Src/stm32h7xx_hal_rcc.c **** 
 1512              		.loc 1 804 9 view .LVU494
 1513 058a DA6A     		ldr	r2, [r3, #44]
 1514 058c 22F00202 		bic	r2, r2, #2
 1515 0590 616C     		ldr	r1, [r4, #68]
ARM GAS  C:\Users\huav\AppData\Local\Temp\ccAjt8Jj.s 			page 46


 1516 0592 0A43     		orrs	r2, r2, r1
 1517 0594 DA62     		str	r2, [r3, #44]
 807:HAL_Lib/STM32H7xx_HAL_Driver/Src/stm32h7xx_hal_rcc.c **** 
 1518              		.loc 1 807 9 view .LVU495
 1519 0596 DA6A     		ldr	r2, [r3, #44]
 1520 0598 42F48032 		orr	r2, r2, #65536
 1521 059c DA62     		str	r2, [r3, #44]
 810:HAL_Lib/STM32H7xx_HAL_Driver/Src/stm32h7xx_hal_rcc.c **** 
 1522              		.loc 1 810 9 view .LVU496
 1523 059e DA6A     		ldr	r2, [r3, #44]
 1524 05a0 42F40032 		orr	r2, r2, #131072
 1525 05a4 DA62     		str	r2, [r3, #44]
 813:HAL_Lib/STM32H7xx_HAL_Driver/Src/stm32h7xx_hal_rcc.c **** 
 1526              		.loc 1 813 9 view .LVU497
 1527 05a6 DA6A     		ldr	r2, [r3, #44]
 1528 05a8 42F48022 		orr	r2, r2, #262144
 1529 05ac DA62     		str	r2, [r3, #44]
 816:HAL_Lib/STM32H7xx_HAL_Driver/Src/stm32h7xx_hal_rcc.c **** 
 1530              		.loc 1 816 9 view .LVU498
 1531 05ae DA6A     		ldr	r2, [r3, #44]
 1532 05b0 42F00102 		orr	r2, r2, #1
 1533 05b4 DA62     		str	r2, [r3, #44]
 819:HAL_Lib/STM32H7xx_HAL_Driver/Src/stm32h7xx_hal_rcc.c **** 
 1534              		.loc 1 819 9 view .LVU499
 1535 05b6 1A68     		ldr	r2, [r3]
 1536 05b8 42F08072 		orr	r2, r2, #16777216
 1537 05bc 1A60     		str	r2, [r3]
 822:HAL_Lib/STM32H7xx_HAL_Driver/Src/stm32h7xx_hal_rcc.c **** 
 1538              		.loc 1 822 9 view .LVU500
 822:HAL_Lib/STM32H7xx_HAL_Driver/Src/stm32h7xx_hal_rcc.c **** 
 1539              		.loc 1 822 21 is_stmt 0 view .LVU501
 1540 05be FFF7FEFF 		bl	HAL_GetTick
 1541              	.LVL116:
 1542 05c2 0446     		mov	r4, r0
 1543              	.LVL117:
 825:HAL_Lib/STM32H7xx_HAL_Driver/Src/stm32h7xx_hal_rcc.c ****         {
 1544              		.loc 1 825 9 is_stmt 1 view .LVU502
 1545              	.L105:
 825:HAL_Lib/STM32H7xx_HAL_Driver/Src/stm32h7xx_hal_rcc.c ****         {
 1546              		.loc 1 825 15 view .LVU503
 825:HAL_Lib/STM32H7xx_HAL_Driver/Src/stm32h7xx_hal_rcc.c ****         {
 1547              		.loc 1 825 16 is_stmt 0 view .LVU504
 1548 05c4 284B     		ldr	r3, .L167
 1549 05c6 1B68     		ldr	r3, [r3]
 825:HAL_Lib/STM32H7xx_HAL_Driver/Src/stm32h7xx_hal_rcc.c ****         {
 1550              		.loc 1 825 15 view .LVU505
 1551 05c8 13F0007F 		tst	r3, #33554432
 1552 05cc 06D1     		bne	.L162
 827:HAL_Lib/STM32H7xx_HAL_Driver/Src/stm32h7xx_hal_rcc.c ****           {
 1553              		.loc 1 827 11 is_stmt 1 view .LVU506
 827:HAL_Lib/STM32H7xx_HAL_Driver/Src/stm32h7xx_hal_rcc.c ****           {
 1554              		.loc 1 827 16 is_stmt 0 view .LVU507
 1555 05ce FFF7FEFF 		bl	HAL_GetTick
 1556              	.LVL118:
 827:HAL_Lib/STM32H7xx_HAL_Driver/Src/stm32h7xx_hal_rcc.c ****           {
 1557              		.loc 1 827 30 view .LVU508
 1558 05d2 001B     		subs	r0, r0, r4
ARM GAS  C:\Users\huav\AppData\Local\Temp\ccAjt8Jj.s 			page 47


 827:HAL_Lib/STM32H7xx_HAL_Driver/Src/stm32h7xx_hal_rcc.c ****           {
 1559              		.loc 1 827 14 view .LVU509
 1560 05d4 0228     		cmp	r0, #2
 1561 05d6 F5D9     		bls	.L105
 829:HAL_Lib/STM32H7xx_HAL_Driver/Src/stm32h7xx_hal_rcc.c ****           }
 1562              		.loc 1 829 20 view .LVU510
 1563 05d8 0320     		movs	r0, #3
 1564 05da 35E0     		b	.L36
 1565              	.L162:
 847:HAL_Lib/STM32H7xx_HAL_Driver/Src/stm32h7xx_hal_rcc.c ****           }
 848:HAL_Lib/STM32H7xx_HAL_Driver/Src/stm32h7xx_hal_rcc.c ****         }
 849:HAL_Lib/STM32H7xx_HAL_Driver/Src/stm32h7xx_hal_rcc.c ****       }
 850:HAL_Lib/STM32H7xx_HAL_Driver/Src/stm32h7xx_hal_rcc.c ****     }
 851:HAL_Lib/STM32H7xx_HAL_Driver/Src/stm32h7xx_hal_rcc.c ****     else
 852:HAL_Lib/STM32H7xx_HAL_Driver/Src/stm32h7xx_hal_rcc.c ****     {
 853:HAL_Lib/STM32H7xx_HAL_Driver/Src/stm32h7xx_hal_rcc.c ****       /* Do not return HAL_ERROR if request repeats the current configuration */
 854:HAL_Lib/STM32H7xx_HAL_Driver/Src/stm32h7xx_hal_rcc.c ****       temp1_pllckcfg = RCC->PLLCKSELR;
 855:HAL_Lib/STM32H7xx_HAL_Driver/Src/stm32h7xx_hal_rcc.c ****       temp2_pllckcfg = RCC->PLL1DIVR;
 856:HAL_Lib/STM32H7xx_HAL_Driver/Src/stm32h7xx_hal_rcc.c ****       if (((RCC_OscInitStruct->PLL.PLLState) == RCC_PLL_OFF) ||
 857:HAL_Lib/STM32H7xx_HAL_Driver/Src/stm32h7xx_hal_rcc.c ****           (READ_BIT(temp1_pllckcfg, RCC_PLLCKSELR_PLLSRC) != RCC_OscInitStruct->PLL.PLLSource) ||
 858:HAL_Lib/STM32H7xx_HAL_Driver/Src/stm32h7xx_hal_rcc.c ****           ((READ_BIT(temp1_pllckcfg, RCC_PLLCKSELR_DIVM1) >> RCC_PLLCKSELR_DIVM1_Pos) != RCC_OscIni
 859:HAL_Lib/STM32H7xx_HAL_Driver/Src/stm32h7xx_hal_rcc.c ****           (READ_BIT(temp2_pllckcfg, RCC_PLL1DIVR_N1) != (RCC_OscInitStruct->PLL.PLLN - 1U)) ||
 860:HAL_Lib/STM32H7xx_HAL_Driver/Src/stm32h7xx_hal_rcc.c ****           ((READ_BIT(temp2_pllckcfg, RCC_PLL1DIVR_P1) >> RCC_PLL1DIVR_P1_Pos) != (RCC_OscInitStruct
 861:HAL_Lib/STM32H7xx_HAL_Driver/Src/stm32h7xx_hal_rcc.c ****           ((READ_BIT(temp2_pllckcfg, RCC_PLL1DIVR_Q1) >> RCC_PLL1DIVR_Q1_Pos) != (RCC_OscInitStruct
 862:HAL_Lib/STM32H7xx_HAL_Driver/Src/stm32h7xx_hal_rcc.c ****           ((READ_BIT(temp2_pllckcfg, RCC_PLL1DIVR_R1) >> RCC_PLL1DIVR_R1_Pos) != (RCC_OscInitStruct
 863:HAL_Lib/STM32H7xx_HAL_Driver/Src/stm32h7xx_hal_rcc.c ****       {
 864:HAL_Lib/STM32H7xx_HAL_Driver/Src/stm32h7xx_hal_rcc.c ****         return HAL_ERROR;
 865:HAL_Lib/STM32H7xx_HAL_Driver/Src/stm32h7xx_hal_rcc.c ****       }
 866:HAL_Lib/STM32H7xx_HAL_Driver/Src/stm32h7xx_hal_rcc.c ****     }
 867:HAL_Lib/STM32H7xx_HAL_Driver/Src/stm32h7xx_hal_rcc.c ****   }
 868:HAL_Lib/STM32H7xx_HAL_Driver/Src/stm32h7xx_hal_rcc.c ****   return HAL_OK;
 1566              		.loc 1 868 10 view .LVU511
 1567 05dc 0020     		movs	r0, #0
 1568 05de 33E0     		b	.L36
 1569              	.L157:
 1570              		.loc 1 868 10 view .LVU512
 1571 05e0 0020     		movs	r0, #0
 1572 05e2 31E0     		b	.L36
 1573              	.LVL119:
 1574              	.L101:
 854:HAL_Lib/STM32H7xx_HAL_Driver/Src/stm32h7xx_hal_rcc.c ****       temp2_pllckcfg = RCC->PLL1DIVR;
 1575              		.loc 1 854 7 is_stmt 1 view .LVU513
 854:HAL_Lib/STM32H7xx_HAL_Driver/Src/stm32h7xx_hal_rcc.c ****       temp2_pllckcfg = RCC->PLL1DIVR;
 1576              		.loc 1 854 22 is_stmt 0 view .LVU514
 1577 05e4 204A     		ldr	r2, .L167
 1578 05e6 916A     		ldr	r1, [r2, #40]
 1579              	.LVL120:
 855:HAL_Lib/STM32H7xx_HAL_Driver/Src/stm32h7xx_hal_rcc.c ****       if (((RCC_OscInitStruct->PLL.PLLState) == RCC_PLL_OFF) ||
 1580              		.loc 1 855 7 is_stmt 1 view .LVU515
 855:HAL_Lib/STM32H7xx_HAL_Driver/Src/stm32h7xx_hal_rcc.c ****       if (((RCC_OscInitStruct->PLL.PLLState) == RCC_PLL_OFF) ||
 1581              		.loc 1 855 22 is_stmt 0 view .LVU516
 1582 05e8 106B     		ldr	r0, [r2, #48]
 1583              	.LVL121:
 856:HAL_Lib/STM32H7xx_HAL_Driver/Src/stm32h7xx_hal_rcc.c ****           (READ_BIT(temp1_pllckcfg, RCC_PLLCKSELR_PLLSRC) != RCC_OscInitStruct->PLL.PLLSource) ||
 1584              		.loc 1 856 7 is_stmt 1 view .LVU517
 856:HAL_Lib/STM32H7xx_HAL_Driver/Src/stm32h7xx_hal_rcc.c ****           (READ_BIT(temp1_pllckcfg, RCC_PLLCKSELR_PLLSRC) != RCC_OscInitStruct->PLL.PLLSource) ||
 1585              		.loc 1 856 10 is_stmt 0 view .LVU518
ARM GAS  C:\Users\huav\AppData\Local\Temp\ccAjt8Jj.s 			page 48


 1586 05ea 012B     		cmp	r3, #1
 1587 05ec 2DD0     		beq	.L131
 857:HAL_Lib/STM32H7xx_HAL_Driver/Src/stm32h7xx_hal_rcc.c ****           ((READ_BIT(temp1_pllckcfg, RCC_PLLCKSELR_DIVM1) >> RCC_PLLCKSELR_DIVM1_Pos) != RCC_OscIni
 1588              		.loc 1 857 12 discriminator 1 view .LVU519
 1589 05ee 01F00303 		and	r3, r1, #3
 857:HAL_Lib/STM32H7xx_HAL_Driver/Src/stm32h7xx_hal_rcc.c ****           ((READ_BIT(temp1_pllckcfg, RCC_PLLCKSELR_DIVM1) >> RCC_PLLCKSELR_DIVM1_Pos) != RCC_OscIni
 1590              		.loc 1 857 84 discriminator 1 view .LVU520
 1591 05f2 A26A     		ldr	r2, [r4, #40]
 856:HAL_Lib/STM32H7xx_HAL_Driver/Src/stm32h7xx_hal_rcc.c ****           (READ_BIT(temp1_pllckcfg, RCC_PLLCKSELR_PLLSRC) != RCC_OscInitStruct->PLL.PLLSource) ||
 1592              		.loc 1 856 62 discriminator 1 view .LVU521
 1593 05f4 9342     		cmp	r3, r2
 1594 05f6 2AD1     		bne	.L132
 858:HAL_Lib/STM32H7xx_HAL_Driver/Src/stm32h7xx_hal_rcc.c ****           (READ_BIT(temp2_pllckcfg, RCC_PLL1DIVR_N1) != (RCC_OscInitStruct->PLL.PLLN - 1U)) ||
 1595              		.loc 1 858 59 view .LVU522
 1596 05f8 C1F30511 		ubfx	r1, r1, #4, #6
 1597              	.LVL122:
 858:HAL_Lib/STM32H7xx_HAL_Driver/Src/stm32h7xx_hal_rcc.c ****           (READ_BIT(temp2_pllckcfg, RCC_PLL1DIVR_N1) != (RCC_OscInitStruct->PLL.PLLN - 1U)) ||
 1598              		.loc 1 858 112 view .LVU523
 1599 05fc E36A     		ldr	r3, [r4, #44]
 857:HAL_Lib/STM32H7xx_HAL_Driver/Src/stm32h7xx_hal_rcc.c ****           ((READ_BIT(temp1_pllckcfg, RCC_PLLCKSELR_DIVM1) >> RCC_PLLCKSELR_DIVM1_Pos) != RCC_OscIni
 1600              		.loc 1 857 96 view .LVU524
 1601 05fe 9942     		cmp	r1, r3
 1602 0600 27D1     		bne	.L133
 859:HAL_Lib/STM32H7xx_HAL_Driver/Src/stm32h7xx_hal_rcc.c ****           ((READ_BIT(temp2_pllckcfg, RCC_PLL1DIVR_P1) >> RCC_PLL1DIVR_P1_Pos) != (RCC_OscInitStruct
 1603              		.loc 1 859 12 view .LVU525
 1604 0602 C0F30802 		ubfx	r2, r0, #0, #9
 859:HAL_Lib/STM32H7xx_HAL_Driver/Src/stm32h7xx_hal_rcc.c ****           ((READ_BIT(temp2_pllckcfg, RCC_PLL1DIVR_P1) >> RCC_PLL1DIVR_P1_Pos) != (RCC_OscInitStruct
 1605              		.loc 1 859 80 view .LVU526
 1606 0606 236B     		ldr	r3, [r4, #48]
 859:HAL_Lib/STM32H7xx_HAL_Driver/Src/stm32h7xx_hal_rcc.c ****           ((READ_BIT(temp2_pllckcfg, RCC_PLL1DIVR_P1) >> RCC_PLL1DIVR_P1_Pos) != (RCC_OscInitStruct
 1607              		.loc 1 859 86 view .LVU527
 1608 0608 013B     		subs	r3, r3, #1
 858:HAL_Lib/STM32H7xx_HAL_Driver/Src/stm32h7xx_hal_rcc.c ****           (READ_BIT(temp2_pllckcfg, RCC_PLL1DIVR_N1) != (RCC_OscInitStruct->PLL.PLLN - 1U)) ||
 1609              		.loc 1 858 119 view .LVU528
 1610 060a 9A42     		cmp	r2, r3
 1611 060c 23D1     		bne	.L134
 860:HAL_Lib/STM32H7xx_HAL_Driver/Src/stm32h7xx_hal_rcc.c ****           ((READ_BIT(temp2_pllckcfg, RCC_PLL1DIVR_Q1) >> RCC_PLL1DIVR_Q1_Pos) != (RCC_OscInitStruct
 1612              		.loc 1 860 55 view .LVU529
 1613 060e C0F34622 		ubfx	r2, r0, #9, #7
 860:HAL_Lib/STM32H7xx_HAL_Driver/Src/stm32h7xx_hal_rcc.c ****           ((READ_BIT(temp2_pllckcfg, RCC_PLL1DIVR_Q1) >> RCC_PLL1DIVR_Q1_Pos) != (RCC_OscInitStruct
 1614              		.loc 1 860 105 view .LVU530
 1615 0612 636B     		ldr	r3, [r4, #52]
 860:HAL_Lib/STM32H7xx_HAL_Driver/Src/stm32h7xx_hal_rcc.c ****           ((READ_BIT(temp2_pllckcfg, RCC_PLL1DIVR_Q1) >> RCC_PLL1DIVR_Q1_Pos) != (RCC_OscInitStruct
 1616              		.loc 1 860 111 view .LVU531
 1617 0614 013B     		subs	r3, r3, #1
 859:HAL_Lib/STM32H7xx_HAL_Driver/Src/stm32h7xx_hal_rcc.c ****           ((READ_BIT(temp2_pllckcfg, RCC_PLL1DIVR_P1) >> RCC_PLL1DIVR_P1_Pos) != (RCC_OscInitStruct
 1618              		.loc 1 859 93 view .LVU532
 1619 0616 9A42     		cmp	r2, r3
 1620 0618 1FD1     		bne	.L135
 861:HAL_Lib/STM32H7xx_HAL_Driver/Src/stm32h7xx_hal_rcc.c ****           ((READ_BIT(temp2_pllckcfg, RCC_PLL1DIVR_R1) >> RCC_PLL1DIVR_R1_Pos) != (RCC_OscInitStruct
 1621              		.loc 1 861 55 view .LVU533
 1622 061a C0F30642 		ubfx	r2, r0, #16, #7
 861:HAL_Lib/STM32H7xx_HAL_Driver/Src/stm32h7xx_hal_rcc.c ****           ((READ_BIT(temp2_pllckcfg, RCC_PLL1DIVR_R1) >> RCC_PLL1DIVR_R1_Pos) != (RCC_OscInitStruct
 1623              		.loc 1 861 105 view .LVU534
 1624 061e A36B     		ldr	r3, [r4, #56]
 861:HAL_Lib/STM32H7xx_HAL_Driver/Src/stm32h7xx_hal_rcc.c ****           ((READ_BIT(temp2_pllckcfg, RCC_PLL1DIVR_R1) >> RCC_PLL1DIVR_R1_Pos) != (RCC_OscInitStruct
 1625              		.loc 1 861 111 view .LVU535
ARM GAS  C:\Users\huav\AppData\Local\Temp\ccAjt8Jj.s 			page 49


 1626 0620 013B     		subs	r3, r3, #1
 860:HAL_Lib/STM32H7xx_HAL_Driver/Src/stm32h7xx_hal_rcc.c ****           ((READ_BIT(temp2_pllckcfg, RCC_PLL1DIVR_Q1) >> RCC_PLL1DIVR_Q1_Pos) != (RCC_OscInitStruct
 1627              		.loc 1 860 118 view .LVU536
 1628 0622 9A42     		cmp	r2, r3
 1629 0624 1BD1     		bne	.L136
 862:HAL_Lib/STM32H7xx_HAL_Driver/Src/stm32h7xx_hal_rcc.c ****       {
 1630              		.loc 1 862 55 view .LVU537
 1631 0626 C0F30660 		ubfx	r0, r0, #24, #7
 1632              	.LVL123:
 862:HAL_Lib/STM32H7xx_HAL_Driver/Src/stm32h7xx_hal_rcc.c ****       {
 1633              		.loc 1 862 105 view .LVU538
 1634 062a E36B     		ldr	r3, [r4, #60]
 862:HAL_Lib/STM32H7xx_HAL_Driver/Src/stm32h7xx_hal_rcc.c ****       {
 1635              		.loc 1 862 111 view .LVU539
 1636 062c 013B     		subs	r3, r3, #1
 861:HAL_Lib/STM32H7xx_HAL_Driver/Src/stm32h7xx_hal_rcc.c ****           ((READ_BIT(temp2_pllckcfg, RCC_PLL1DIVR_R1) >> RCC_PLL1DIVR_R1_Pos) != (RCC_OscInitStruct
 1637              		.loc 1 861 118 view .LVU540
 1638 062e 9842     		cmp	r0, r3
 1639 0630 17D1     		bne	.L137
 1640              		.loc 1 868 10 view .LVU541
 1641 0632 0020     		movs	r0, #0
 1642 0634 08E0     		b	.L36
 1643              	.LVL124:
 1644              	.L109:
 1645              	.LCFI2:
 1646              		.cfi_def_cfa_offset 0
 1647              		.cfi_restore 3
 1648              		.cfi_restore 4
 1649              		.cfi_restore 5
 1650              		.cfi_restore 14
 409:HAL_Lib/STM32H7xx_HAL_Driver/Src/stm32h7xx_hal_rcc.c ****   }
 1651              		.loc 1 409 12 view .LVU542
 1652 0636 0120     		movs	r0, #1
 1653              	.LVL125:
 869:HAL_Lib/STM32H7xx_HAL_Driver/Src/stm32h7xx_hal_rcc.c **** }
 1654              		.loc 1 869 1 view .LVU543
 1655 0638 7047     		bx	lr
 1656              	.LVL126:
 1657              	.L144:
 1658              	.LCFI3:
 1659              		.cfi_def_cfa_offset 16
 1660              		.cfi_offset 3, -16
 1661              		.cfi_offset 4, -12
 1662              		.cfi_offset 5, -8
 1663              		.cfi_offset 14, -4
 1664              	.LBB10:
 427:HAL_Lib/STM32H7xx_HAL_Driver/Src/stm32h7xx_hal_rcc.c ****       }
 1665              		.loc 1 427 16 view .LVU544
 1666 063a 0120     		movs	r0, #1
 1667              	.LVL127:
 427:HAL_Lib/STM32H7xx_HAL_Driver/Src/stm32h7xx_hal_rcc.c ****       }
 1668              		.loc 1 427 16 view .LVU545
 1669 063c 04E0     		b	.L36
 1670              	.LVL128:
 1671              	.L113:
 427:HAL_Lib/STM32H7xx_HAL_Driver/Src/stm32h7xx_hal_rcc.c ****       }
 1672              		.loc 1 427 16 view .LVU546
ARM GAS  C:\Users\huav\AppData\Local\Temp\ccAjt8Jj.s 			page 50


 1673              	.LBE10:
 1674              	.LBB11:
 481:HAL_Lib/STM32H7xx_HAL_Driver/Src/stm32h7xx_hal_rcc.c ****       }
 1675              		.loc 1 481 16 view .LVU547
 1676 063e 0120     		movs	r0, #1
 1677 0640 02E0     		b	.L36
 1678              	.LVL129:
 1679              	.L117:
 481:HAL_Lib/STM32H7xx_HAL_Driver/Src/stm32h7xx_hal_rcc.c ****       }
 1680              		.loc 1 481 16 view .LVU548
 1681              	.LBE11:
 1682              	.LBB12:
 562:HAL_Lib/STM32H7xx_HAL_Driver/Src/stm32h7xx_hal_rcc.c ****       }
 1683              		.loc 1 562 16 view .LVU549
 1684 0642 0120     		movs	r0, #1
 1685 0644 00E0     		b	.L36
 1686              	.L127:
 562:HAL_Lib/STM32H7xx_HAL_Driver/Src/stm32h7xx_hal_rcc.c ****       }
 1687              		.loc 1 562 16 view .LVU550
 1688              	.LBE12:
 868:HAL_Lib/STM32H7xx_HAL_Driver/Src/stm32h7xx_hal_rcc.c **** }
 1689              		.loc 1 868 10 view .LVU551
 1690 0646 0020     		movs	r0, #0
 1691              	.LVL130:
 1692              	.L36:
 1693              		.loc 1 869 1 view .LVU552
 1694 0648 38BD     		pop	{r3, r4, r5, pc}
 1695              	.LVL131:
 1696              	.L131:
 864:HAL_Lib/STM32H7xx_HAL_Driver/Src/stm32h7xx_hal_rcc.c ****       }
 1697              		.loc 1 864 16 view .LVU553
 1698 064a 0120     		movs	r0, #1
 1699              	.LVL132:
 864:HAL_Lib/STM32H7xx_HAL_Driver/Src/stm32h7xx_hal_rcc.c ****       }
 1700              		.loc 1 864 16 view .LVU554
 1701 064c FCE7     		b	.L36
 1702              	.LVL133:
 1703              	.L132:
 864:HAL_Lib/STM32H7xx_HAL_Driver/Src/stm32h7xx_hal_rcc.c ****       }
 1704              		.loc 1 864 16 view .LVU555
 1705 064e 0120     		movs	r0, #1
 1706              	.LVL134:
 864:HAL_Lib/STM32H7xx_HAL_Driver/Src/stm32h7xx_hal_rcc.c ****       }
 1707              		.loc 1 864 16 view .LVU556
 1708 0650 FAE7     		b	.L36
 1709              	.LVL135:
 1710              	.L133:
 864:HAL_Lib/STM32H7xx_HAL_Driver/Src/stm32h7xx_hal_rcc.c ****       }
 1711              		.loc 1 864 16 view .LVU557
 1712 0652 0120     		movs	r0, #1
 1713              	.LVL136:
 864:HAL_Lib/STM32H7xx_HAL_Driver/Src/stm32h7xx_hal_rcc.c ****       }
 1714              		.loc 1 864 16 view .LVU558
 1715 0654 F8E7     		b	.L36
 1716              	.LVL137:
 1717              	.L134:
 864:HAL_Lib/STM32H7xx_HAL_Driver/Src/stm32h7xx_hal_rcc.c ****       }
ARM GAS  C:\Users\huav\AppData\Local\Temp\ccAjt8Jj.s 			page 51


 1718              		.loc 1 864 16 view .LVU559
 1719 0656 0120     		movs	r0, #1
 1720              	.LVL138:
 864:HAL_Lib/STM32H7xx_HAL_Driver/Src/stm32h7xx_hal_rcc.c ****       }
 1721              		.loc 1 864 16 view .LVU560
 1722 0658 F6E7     		b	.L36
 1723              	.LVL139:
 1724              	.L135:
 864:HAL_Lib/STM32H7xx_HAL_Driver/Src/stm32h7xx_hal_rcc.c ****       }
 1725              		.loc 1 864 16 view .LVU561
 1726 065a 0120     		movs	r0, #1
 1727              	.LVL140:
 864:HAL_Lib/STM32H7xx_HAL_Driver/Src/stm32h7xx_hal_rcc.c ****       }
 1728              		.loc 1 864 16 view .LVU562
 1729 065c F4E7     		b	.L36
 1730              	.LVL141:
 1731              	.L136:
 864:HAL_Lib/STM32H7xx_HAL_Driver/Src/stm32h7xx_hal_rcc.c ****       }
 1732              		.loc 1 864 16 view .LVU563
 1733 065e 0120     		movs	r0, #1
 1734              	.LVL142:
 864:HAL_Lib/STM32H7xx_HAL_Driver/Src/stm32h7xx_hal_rcc.c ****       }
 1735              		.loc 1 864 16 view .LVU564
 1736 0660 F2E7     		b	.L36
 1737              	.L137:
 1738 0662 0120     		movs	r0, #1
 1739 0664 F0E7     		b	.L36
 1740              	.L168:
 1741 0666 00BF     		.align	2
 1742              	.L167:
 1743 0668 00440258 		.word	1476543488
 1744 066c 0CFCFFFF 		.word	-1012
 1745 0670 0700FFFF 		.word	-65529
 1746              		.cfi_endproc
 1747              	.LFE145:
 1749              		.section	.text.HAL_RCC_MCOConfig,"ax",%progbits
 1750              		.align	1
 1751              		.global	HAL_RCC_MCOConfig
 1752              		.syntax unified
 1753              		.thumb
 1754              		.thumb_func
 1755              		.fpu fpv5-d16
 1757              	HAL_RCC_MCOConfig:
 1758              	.LVL143:
 1759              	.LFB147:
 870:HAL_Lib/STM32H7xx_HAL_Driver/Src/stm32h7xx_hal_rcc.c **** 
 871:HAL_Lib/STM32H7xx_HAL_Driver/Src/stm32h7xx_hal_rcc.c **** /**
 872:HAL_Lib/STM32H7xx_HAL_Driver/Src/stm32h7xx_hal_rcc.c ****  * @brief  Initializes the CPU, AHB and APB buses clocks according to the specified
 873:HAL_Lib/STM32H7xx_HAL_Driver/Src/stm32h7xx_hal_rcc.c ****  *         parameters in the RCC_ClkInitStruct.
 874:HAL_Lib/STM32H7xx_HAL_Driver/Src/stm32h7xx_hal_rcc.c ****  * @param  RCC_ClkInitStruct: pointer to an RCC_OscInitTypeDef structure that
 875:HAL_Lib/STM32H7xx_HAL_Driver/Src/stm32h7xx_hal_rcc.c ****  *         contains the configuration information for the RCC peripheral.
 876:HAL_Lib/STM32H7xx_HAL_Driver/Src/stm32h7xx_hal_rcc.c ****  * @param  FLatency: FLASH Latency, this parameter depend on device selected
 877:HAL_Lib/STM32H7xx_HAL_Driver/Src/stm32h7xx_hal_rcc.c ****  *
 878:HAL_Lib/STM32H7xx_HAL_Driver/Src/stm32h7xx_hal_rcc.c ****  * @note   The SystemCoreClock CMSIS variable is used to store System Core Clock Frequency
 879:HAL_Lib/STM32H7xx_HAL_Driver/Src/stm32h7xx_hal_rcc.c ****  *         and updated by HAL_InitTick() function called within this function
 880:HAL_Lib/STM32H7xx_HAL_Driver/Src/stm32h7xx_hal_rcc.c ****  *
 881:HAL_Lib/STM32H7xx_HAL_Driver/Src/stm32h7xx_hal_rcc.c ****  * @note   The HSI is used (enabled by hardware) as system clock source after
ARM GAS  C:\Users\huav\AppData\Local\Temp\ccAjt8Jj.s 			page 52


 882:HAL_Lib/STM32H7xx_HAL_Driver/Src/stm32h7xx_hal_rcc.c ****  *         start-up from Reset, wake-up from STOP and STANDBY mode, or in case
 883:HAL_Lib/STM32H7xx_HAL_Driver/Src/stm32h7xx_hal_rcc.c ****  *         of failure of the HSE used directly or indirectly as system clock
 884:HAL_Lib/STM32H7xx_HAL_Driver/Src/stm32h7xx_hal_rcc.c ****  *         (if the Clock Security System CSS is enabled).
 885:HAL_Lib/STM32H7xx_HAL_Driver/Src/stm32h7xx_hal_rcc.c ****  *
 886:HAL_Lib/STM32H7xx_HAL_Driver/Src/stm32h7xx_hal_rcc.c ****  * @note   A switch from one clock source to another occurs only if the target
 887:HAL_Lib/STM32H7xx_HAL_Driver/Src/stm32h7xx_hal_rcc.c ****  *         clock source is ready (clock stable after start-up delay or PLL locked).
 888:HAL_Lib/STM32H7xx_HAL_Driver/Src/stm32h7xx_hal_rcc.c ****  *         If a clock source which is not yet ready is selected, the switch will
 889:HAL_Lib/STM32H7xx_HAL_Driver/Src/stm32h7xx_hal_rcc.c ****  *         occur when the clock source will be ready.
 890:HAL_Lib/STM32H7xx_HAL_Driver/Src/stm32h7xx_hal_rcc.c ****  *         You can use HAL_RCC_GetClockConfig() function to know which clock is
 891:HAL_Lib/STM32H7xx_HAL_Driver/Src/stm32h7xx_hal_rcc.c ****  *         currently used as system clock source.
 892:HAL_Lib/STM32H7xx_HAL_Driver/Src/stm32h7xx_hal_rcc.c ****  * @note   Depending on the device voltage range, the software has to set correctly
 893:HAL_Lib/STM32H7xx_HAL_Driver/Src/stm32h7xx_hal_rcc.c ****  *         D1CPRE[3:0] bits to ensure that  Domain1 core clock not exceed the maximum allowed frequ
 894:HAL_Lib/STM32H7xx_HAL_Driver/Src/stm32h7xx_hal_rcc.c ****  *         (for more details refer to section above "Initialization/de-initialization functions")
 895:HAL_Lib/STM32H7xx_HAL_Driver/Src/stm32h7xx_hal_rcc.c ****  * @retval None
 896:HAL_Lib/STM32H7xx_HAL_Driver/Src/stm32h7xx_hal_rcc.c ****  */
 897:HAL_Lib/STM32H7xx_HAL_Driver/Src/stm32h7xx_hal_rcc.c **** HAL_StatusTypeDef HAL_RCC_ClockConfig(RCC_ClkInitTypeDef *RCC_ClkInitStruct, uint32_t FLatency)
 898:HAL_Lib/STM32H7xx_HAL_Driver/Src/stm32h7xx_hal_rcc.c **** {
 899:HAL_Lib/STM32H7xx_HAL_Driver/Src/stm32h7xx_hal_rcc.c ****   HAL_StatusTypeDef halstatus;
 900:HAL_Lib/STM32H7xx_HAL_Driver/Src/stm32h7xx_hal_rcc.c ****   uint32_t tickstart;
 901:HAL_Lib/STM32H7xx_HAL_Driver/Src/stm32h7xx_hal_rcc.c ****   uint32_t common_system_clock;
 902:HAL_Lib/STM32H7xx_HAL_Driver/Src/stm32h7xx_hal_rcc.c **** 
 903:HAL_Lib/STM32H7xx_HAL_Driver/Src/stm32h7xx_hal_rcc.c ****   /* Check Null pointer */
 904:HAL_Lib/STM32H7xx_HAL_Driver/Src/stm32h7xx_hal_rcc.c ****   if (RCC_ClkInitStruct == NULL)
 905:HAL_Lib/STM32H7xx_HAL_Driver/Src/stm32h7xx_hal_rcc.c ****   {
 906:HAL_Lib/STM32H7xx_HAL_Driver/Src/stm32h7xx_hal_rcc.c ****     return HAL_ERROR;
 907:HAL_Lib/STM32H7xx_HAL_Driver/Src/stm32h7xx_hal_rcc.c ****   }
 908:HAL_Lib/STM32H7xx_HAL_Driver/Src/stm32h7xx_hal_rcc.c **** 
 909:HAL_Lib/STM32H7xx_HAL_Driver/Src/stm32h7xx_hal_rcc.c ****   /* Check the parameters */
 910:HAL_Lib/STM32H7xx_HAL_Driver/Src/stm32h7xx_hal_rcc.c ****   assert_param(IS_RCC_CLOCKTYPE(RCC_ClkInitStruct->ClockType));
 911:HAL_Lib/STM32H7xx_HAL_Driver/Src/stm32h7xx_hal_rcc.c ****   assert_param(IS_FLASH_LATENCY(FLatency));
 912:HAL_Lib/STM32H7xx_HAL_Driver/Src/stm32h7xx_hal_rcc.c **** 
 913:HAL_Lib/STM32H7xx_HAL_Driver/Src/stm32h7xx_hal_rcc.c ****   /* To correctly read data from FLASH memory, the number of wait states (LATENCY)
 914:HAL_Lib/STM32H7xx_HAL_Driver/Src/stm32h7xx_hal_rcc.c ****     must be correctly programmed according to the frequency of the CPU clock
 915:HAL_Lib/STM32H7xx_HAL_Driver/Src/stm32h7xx_hal_rcc.c ****     (HCLK) and the supply voltage of the device. */
 916:HAL_Lib/STM32H7xx_HAL_Driver/Src/stm32h7xx_hal_rcc.c **** 
 917:HAL_Lib/STM32H7xx_HAL_Driver/Src/stm32h7xx_hal_rcc.c ****   /* Increasing the CPU frequency */
 918:HAL_Lib/STM32H7xx_HAL_Driver/Src/stm32h7xx_hal_rcc.c ****   if (FLatency > __HAL_FLASH_GET_LATENCY())
 919:HAL_Lib/STM32H7xx_HAL_Driver/Src/stm32h7xx_hal_rcc.c ****   {
 920:HAL_Lib/STM32H7xx_HAL_Driver/Src/stm32h7xx_hal_rcc.c ****     /* Program the new number of wait states to the LATENCY bits in the FLASH_ACR register */
 921:HAL_Lib/STM32H7xx_HAL_Driver/Src/stm32h7xx_hal_rcc.c ****     __HAL_FLASH_SET_LATENCY(FLatency);
 922:HAL_Lib/STM32H7xx_HAL_Driver/Src/stm32h7xx_hal_rcc.c **** 
 923:HAL_Lib/STM32H7xx_HAL_Driver/Src/stm32h7xx_hal_rcc.c ****     /* Check that the new number of wait states is taken into account to access the Flash
 924:HAL_Lib/STM32H7xx_HAL_Driver/Src/stm32h7xx_hal_rcc.c ****     memory by reading the FLASH_ACR register */
 925:HAL_Lib/STM32H7xx_HAL_Driver/Src/stm32h7xx_hal_rcc.c ****     if (__HAL_FLASH_GET_LATENCY() != FLatency)
 926:HAL_Lib/STM32H7xx_HAL_Driver/Src/stm32h7xx_hal_rcc.c ****     {
 927:HAL_Lib/STM32H7xx_HAL_Driver/Src/stm32h7xx_hal_rcc.c ****       return HAL_ERROR;
 928:HAL_Lib/STM32H7xx_HAL_Driver/Src/stm32h7xx_hal_rcc.c ****     }
 929:HAL_Lib/STM32H7xx_HAL_Driver/Src/stm32h7xx_hal_rcc.c ****   }
 930:HAL_Lib/STM32H7xx_HAL_Driver/Src/stm32h7xx_hal_rcc.c **** 
 931:HAL_Lib/STM32H7xx_HAL_Driver/Src/stm32h7xx_hal_rcc.c ****   /* Increasing the BUS frequency divider */
 932:HAL_Lib/STM32H7xx_HAL_Driver/Src/stm32h7xx_hal_rcc.c ****   /*-------------------------- D1PCLK1/CDPCLK1 Configuration ---------------------------*/
 933:HAL_Lib/STM32H7xx_HAL_Driver/Src/stm32h7xx_hal_rcc.c ****   if (((RCC_ClkInitStruct->ClockType) & RCC_CLOCKTYPE_D1PCLK1) == RCC_CLOCKTYPE_D1PCLK1)
 934:HAL_Lib/STM32H7xx_HAL_Driver/Src/stm32h7xx_hal_rcc.c ****   {
 935:HAL_Lib/STM32H7xx_HAL_Driver/Src/stm32h7xx_hal_rcc.c **** #if defined(RCC_D1CFGR_D1PPRE)
 936:HAL_Lib/STM32H7xx_HAL_Driver/Src/stm32h7xx_hal_rcc.c ****     if ((RCC_ClkInitStruct->APB3CLKDivider) > (RCC->D1CFGR & RCC_D1CFGR_D1PPRE))
 937:HAL_Lib/STM32H7xx_HAL_Driver/Src/stm32h7xx_hal_rcc.c ****     {
 938:HAL_Lib/STM32H7xx_HAL_Driver/Src/stm32h7xx_hal_rcc.c ****       assert_param(IS_RCC_D1PCLK1(RCC_ClkInitStruct->APB3CLKDivider));
ARM GAS  C:\Users\huav\AppData\Local\Temp\ccAjt8Jj.s 			page 53


 939:HAL_Lib/STM32H7xx_HAL_Driver/Src/stm32h7xx_hal_rcc.c ****       MODIFY_REG(RCC->D1CFGR, RCC_D1CFGR_D1PPRE, RCC_ClkInitStruct->APB3CLKDivider);
 940:HAL_Lib/STM32H7xx_HAL_Driver/Src/stm32h7xx_hal_rcc.c ****     }
 941:HAL_Lib/STM32H7xx_HAL_Driver/Src/stm32h7xx_hal_rcc.c **** #else
 942:HAL_Lib/STM32H7xx_HAL_Driver/Src/stm32h7xx_hal_rcc.c ****     if ((RCC_ClkInitStruct->APB3CLKDivider) > (RCC->CDCFGR1 & RCC_CDCFGR1_CDPPRE))
 943:HAL_Lib/STM32H7xx_HAL_Driver/Src/stm32h7xx_hal_rcc.c ****     {
 944:HAL_Lib/STM32H7xx_HAL_Driver/Src/stm32h7xx_hal_rcc.c ****       assert_param(IS_RCC_CDPCLK1(RCC_ClkInitStruct->APB3CLKDivider));
 945:HAL_Lib/STM32H7xx_HAL_Driver/Src/stm32h7xx_hal_rcc.c ****       MODIFY_REG(RCC->CDCFGR1, RCC_CDCFGR1_CDPPRE, RCC_ClkInitStruct->APB3CLKDivider);
 946:HAL_Lib/STM32H7xx_HAL_Driver/Src/stm32h7xx_hal_rcc.c ****     }
 947:HAL_Lib/STM32H7xx_HAL_Driver/Src/stm32h7xx_hal_rcc.c **** #endif
 948:HAL_Lib/STM32H7xx_HAL_Driver/Src/stm32h7xx_hal_rcc.c ****   }
 949:HAL_Lib/STM32H7xx_HAL_Driver/Src/stm32h7xx_hal_rcc.c **** 
 950:HAL_Lib/STM32H7xx_HAL_Driver/Src/stm32h7xx_hal_rcc.c ****   /*-------------------------- PCLK1 Configuration ---------------------------*/
 951:HAL_Lib/STM32H7xx_HAL_Driver/Src/stm32h7xx_hal_rcc.c ****   if (((RCC_ClkInitStruct->ClockType) & RCC_CLOCKTYPE_PCLK1) == RCC_CLOCKTYPE_PCLK1)
 952:HAL_Lib/STM32H7xx_HAL_Driver/Src/stm32h7xx_hal_rcc.c ****   {
 953:HAL_Lib/STM32H7xx_HAL_Driver/Src/stm32h7xx_hal_rcc.c **** #if defined(RCC_D2CFGR_D2PPRE1)
 954:HAL_Lib/STM32H7xx_HAL_Driver/Src/stm32h7xx_hal_rcc.c ****     if ((RCC_ClkInitStruct->APB1CLKDivider) > (RCC->D2CFGR & RCC_D2CFGR_D2PPRE1))
 955:HAL_Lib/STM32H7xx_HAL_Driver/Src/stm32h7xx_hal_rcc.c ****     {
 956:HAL_Lib/STM32H7xx_HAL_Driver/Src/stm32h7xx_hal_rcc.c ****       assert_param(IS_RCC_PCLK1(RCC_ClkInitStruct->APB1CLKDivider));
 957:HAL_Lib/STM32H7xx_HAL_Driver/Src/stm32h7xx_hal_rcc.c ****       MODIFY_REG(RCC->D2CFGR, RCC_D2CFGR_D2PPRE1, (RCC_ClkInitStruct->APB1CLKDivider));
 958:HAL_Lib/STM32H7xx_HAL_Driver/Src/stm32h7xx_hal_rcc.c ****     }
 959:HAL_Lib/STM32H7xx_HAL_Driver/Src/stm32h7xx_hal_rcc.c **** #else
 960:HAL_Lib/STM32H7xx_HAL_Driver/Src/stm32h7xx_hal_rcc.c ****     if ((RCC_ClkInitStruct->APB1CLKDivider) > (RCC->CDCFGR2 & RCC_CDCFGR2_CDPPRE1))
 961:HAL_Lib/STM32H7xx_HAL_Driver/Src/stm32h7xx_hal_rcc.c ****     {
 962:HAL_Lib/STM32H7xx_HAL_Driver/Src/stm32h7xx_hal_rcc.c ****       assert_param(IS_RCC_PCLK1(RCC_ClkInitStruct->APB1CLKDivider));
 963:HAL_Lib/STM32H7xx_HAL_Driver/Src/stm32h7xx_hal_rcc.c ****       MODIFY_REG(RCC->CDCFGR2, RCC_CDCFGR2_CDPPRE1, (RCC_ClkInitStruct->APB1CLKDivider));
 964:HAL_Lib/STM32H7xx_HAL_Driver/Src/stm32h7xx_hal_rcc.c ****     }
 965:HAL_Lib/STM32H7xx_HAL_Driver/Src/stm32h7xx_hal_rcc.c **** #endif
 966:HAL_Lib/STM32H7xx_HAL_Driver/Src/stm32h7xx_hal_rcc.c ****   }
 967:HAL_Lib/STM32H7xx_HAL_Driver/Src/stm32h7xx_hal_rcc.c ****   /*-------------------------- PCLK2 Configuration ---------------------------*/
 968:HAL_Lib/STM32H7xx_HAL_Driver/Src/stm32h7xx_hal_rcc.c ****   if (((RCC_ClkInitStruct->ClockType) & RCC_CLOCKTYPE_PCLK2) == RCC_CLOCKTYPE_PCLK2)
 969:HAL_Lib/STM32H7xx_HAL_Driver/Src/stm32h7xx_hal_rcc.c ****   {
 970:HAL_Lib/STM32H7xx_HAL_Driver/Src/stm32h7xx_hal_rcc.c **** #if defined(RCC_D2CFGR_D2PPRE2)
 971:HAL_Lib/STM32H7xx_HAL_Driver/Src/stm32h7xx_hal_rcc.c ****     if ((RCC_ClkInitStruct->APB2CLKDivider) > (RCC->D2CFGR & RCC_D2CFGR_D2PPRE2))
 972:HAL_Lib/STM32H7xx_HAL_Driver/Src/stm32h7xx_hal_rcc.c ****     {
 973:HAL_Lib/STM32H7xx_HAL_Driver/Src/stm32h7xx_hal_rcc.c ****       assert_param(IS_RCC_PCLK2(RCC_ClkInitStruct->APB2CLKDivider));
 974:HAL_Lib/STM32H7xx_HAL_Driver/Src/stm32h7xx_hal_rcc.c ****       MODIFY_REG(RCC->D2CFGR, RCC_D2CFGR_D2PPRE2, (RCC_ClkInitStruct->APB2CLKDivider));
 975:HAL_Lib/STM32H7xx_HAL_Driver/Src/stm32h7xx_hal_rcc.c ****     }
 976:HAL_Lib/STM32H7xx_HAL_Driver/Src/stm32h7xx_hal_rcc.c **** #else
 977:HAL_Lib/STM32H7xx_HAL_Driver/Src/stm32h7xx_hal_rcc.c ****     if ((RCC_ClkInitStruct->APB2CLKDivider) > (RCC->CDCFGR2 & RCC_CDCFGR2_CDPPRE2))
 978:HAL_Lib/STM32H7xx_HAL_Driver/Src/stm32h7xx_hal_rcc.c ****     {
 979:HAL_Lib/STM32H7xx_HAL_Driver/Src/stm32h7xx_hal_rcc.c ****       assert_param(IS_RCC_PCLK2(RCC_ClkInitStruct->APB2CLKDivider));
 980:HAL_Lib/STM32H7xx_HAL_Driver/Src/stm32h7xx_hal_rcc.c ****       MODIFY_REG(RCC->CDCFGR2, RCC_CDCFGR2_CDPPRE2, (RCC_ClkInitStruct->APB2CLKDivider));
 981:HAL_Lib/STM32H7xx_HAL_Driver/Src/stm32h7xx_hal_rcc.c ****     }
 982:HAL_Lib/STM32H7xx_HAL_Driver/Src/stm32h7xx_hal_rcc.c **** #endif
 983:HAL_Lib/STM32H7xx_HAL_Driver/Src/stm32h7xx_hal_rcc.c ****   }
 984:HAL_Lib/STM32H7xx_HAL_Driver/Src/stm32h7xx_hal_rcc.c **** 
 985:HAL_Lib/STM32H7xx_HAL_Driver/Src/stm32h7xx_hal_rcc.c ****   /*-------------------------- D3PCLK1 Configuration ---------------------------*/
 986:HAL_Lib/STM32H7xx_HAL_Driver/Src/stm32h7xx_hal_rcc.c ****   if (((RCC_ClkInitStruct->ClockType) & RCC_CLOCKTYPE_D3PCLK1) == RCC_CLOCKTYPE_D3PCLK1)
 987:HAL_Lib/STM32H7xx_HAL_Driver/Src/stm32h7xx_hal_rcc.c ****   {
 988:HAL_Lib/STM32H7xx_HAL_Driver/Src/stm32h7xx_hal_rcc.c **** #if defined(RCC_D3CFGR_D3PPRE)
 989:HAL_Lib/STM32H7xx_HAL_Driver/Src/stm32h7xx_hal_rcc.c ****     if ((RCC_ClkInitStruct->APB4CLKDivider) > (RCC->D3CFGR & RCC_D3CFGR_D3PPRE))
 990:HAL_Lib/STM32H7xx_HAL_Driver/Src/stm32h7xx_hal_rcc.c ****     {
 991:HAL_Lib/STM32H7xx_HAL_Driver/Src/stm32h7xx_hal_rcc.c ****       assert_param(IS_RCC_D3PCLK1(RCC_ClkInitStruct->APB4CLKDivider));
 992:HAL_Lib/STM32H7xx_HAL_Driver/Src/stm32h7xx_hal_rcc.c ****       MODIFY_REG(RCC->D3CFGR, RCC_D3CFGR_D3PPRE, (RCC_ClkInitStruct->APB4CLKDivider));
 993:HAL_Lib/STM32H7xx_HAL_Driver/Src/stm32h7xx_hal_rcc.c ****     }
 994:HAL_Lib/STM32H7xx_HAL_Driver/Src/stm32h7xx_hal_rcc.c **** #else
 995:HAL_Lib/STM32H7xx_HAL_Driver/Src/stm32h7xx_hal_rcc.c ****     if ((RCC_ClkInitStruct->APB4CLKDivider) > (RCC->SRDCFGR & RCC_SRDCFGR_SRDPPRE))
ARM GAS  C:\Users\huav\AppData\Local\Temp\ccAjt8Jj.s 			page 54


 996:HAL_Lib/STM32H7xx_HAL_Driver/Src/stm32h7xx_hal_rcc.c ****     {
 997:HAL_Lib/STM32H7xx_HAL_Driver/Src/stm32h7xx_hal_rcc.c ****       assert_param(IS_RCC_D3PCLK1(RCC_ClkInitStruct->APB4CLKDivider));
 998:HAL_Lib/STM32H7xx_HAL_Driver/Src/stm32h7xx_hal_rcc.c ****       MODIFY_REG(RCC->SRDCFGR, RCC_SRDCFGR_SRDPPRE, (RCC_ClkInitStruct->APB4CLKDivider));
 999:HAL_Lib/STM32H7xx_HAL_Driver/Src/stm32h7xx_hal_rcc.c ****     }
1000:HAL_Lib/STM32H7xx_HAL_Driver/Src/stm32h7xx_hal_rcc.c **** #endif
1001:HAL_Lib/STM32H7xx_HAL_Driver/Src/stm32h7xx_hal_rcc.c ****   }
1002:HAL_Lib/STM32H7xx_HAL_Driver/Src/stm32h7xx_hal_rcc.c **** 
1003:HAL_Lib/STM32H7xx_HAL_Driver/Src/stm32h7xx_hal_rcc.c ****   /*-------------------------- HCLK Configuration --------------------------*/
1004:HAL_Lib/STM32H7xx_HAL_Driver/Src/stm32h7xx_hal_rcc.c ****   if (((RCC_ClkInitStruct->ClockType) & RCC_CLOCKTYPE_HCLK) == RCC_CLOCKTYPE_HCLK)
1005:HAL_Lib/STM32H7xx_HAL_Driver/Src/stm32h7xx_hal_rcc.c ****   {
1006:HAL_Lib/STM32H7xx_HAL_Driver/Src/stm32h7xx_hal_rcc.c **** #if defined(RCC_D1CFGR_HPRE)
1007:HAL_Lib/STM32H7xx_HAL_Driver/Src/stm32h7xx_hal_rcc.c ****     if ((RCC_ClkInitStruct->AHBCLKDivider) > (RCC->D1CFGR & RCC_D1CFGR_HPRE))
1008:HAL_Lib/STM32H7xx_HAL_Driver/Src/stm32h7xx_hal_rcc.c ****     {
1009:HAL_Lib/STM32H7xx_HAL_Driver/Src/stm32h7xx_hal_rcc.c ****       /* Set the new HCLK clock divider */
1010:HAL_Lib/STM32H7xx_HAL_Driver/Src/stm32h7xx_hal_rcc.c ****       assert_param(IS_RCC_HCLK(RCC_ClkInitStruct->AHBCLKDivider));
1011:HAL_Lib/STM32H7xx_HAL_Driver/Src/stm32h7xx_hal_rcc.c ****       MODIFY_REG(RCC->D1CFGR, RCC_D1CFGR_HPRE, RCC_ClkInitStruct->AHBCLKDivider);
1012:HAL_Lib/STM32H7xx_HAL_Driver/Src/stm32h7xx_hal_rcc.c ****     }
1013:HAL_Lib/STM32H7xx_HAL_Driver/Src/stm32h7xx_hal_rcc.c **** #else
1014:HAL_Lib/STM32H7xx_HAL_Driver/Src/stm32h7xx_hal_rcc.c ****     if ((RCC_ClkInitStruct->AHBCLKDivider) > (RCC->CDCFGR1 & RCC_CDCFGR1_HPRE))
1015:HAL_Lib/STM32H7xx_HAL_Driver/Src/stm32h7xx_hal_rcc.c ****     {
1016:HAL_Lib/STM32H7xx_HAL_Driver/Src/stm32h7xx_hal_rcc.c ****       /* Set the new HCLK clock divider */
1017:HAL_Lib/STM32H7xx_HAL_Driver/Src/stm32h7xx_hal_rcc.c ****       assert_param(IS_RCC_HCLK(RCC_ClkInitStruct->AHBCLKDivider));
1018:HAL_Lib/STM32H7xx_HAL_Driver/Src/stm32h7xx_hal_rcc.c ****       MODIFY_REG(RCC->CDCFGR1, RCC_CDCFGR1_HPRE, RCC_ClkInitStruct->AHBCLKDivider);
1019:HAL_Lib/STM32H7xx_HAL_Driver/Src/stm32h7xx_hal_rcc.c ****     }
1020:HAL_Lib/STM32H7xx_HAL_Driver/Src/stm32h7xx_hal_rcc.c **** #endif
1021:HAL_Lib/STM32H7xx_HAL_Driver/Src/stm32h7xx_hal_rcc.c ****   }
1022:HAL_Lib/STM32H7xx_HAL_Driver/Src/stm32h7xx_hal_rcc.c **** 
1023:HAL_Lib/STM32H7xx_HAL_Driver/Src/stm32h7xx_hal_rcc.c ****   /*------------------------- SYSCLK Configuration -------------------------*/
1024:HAL_Lib/STM32H7xx_HAL_Driver/Src/stm32h7xx_hal_rcc.c ****   if (((RCC_ClkInitStruct->ClockType) & RCC_CLOCKTYPE_SYSCLK) == RCC_CLOCKTYPE_SYSCLK)
1025:HAL_Lib/STM32H7xx_HAL_Driver/Src/stm32h7xx_hal_rcc.c ****   {
1026:HAL_Lib/STM32H7xx_HAL_Driver/Src/stm32h7xx_hal_rcc.c ****     assert_param(IS_RCC_SYSCLK(RCC_ClkInitStruct->SYSCLKDivider));
1027:HAL_Lib/STM32H7xx_HAL_Driver/Src/stm32h7xx_hal_rcc.c ****     assert_param(IS_RCC_SYSCLKSOURCE(RCC_ClkInitStruct->SYSCLKSource));
1028:HAL_Lib/STM32H7xx_HAL_Driver/Src/stm32h7xx_hal_rcc.c **** #if defined(RCC_D1CFGR_D1CPRE)
1029:HAL_Lib/STM32H7xx_HAL_Driver/Src/stm32h7xx_hal_rcc.c ****     MODIFY_REG(RCC->D1CFGR, RCC_D1CFGR_D1CPRE, RCC_ClkInitStruct->SYSCLKDivider);
1030:HAL_Lib/STM32H7xx_HAL_Driver/Src/stm32h7xx_hal_rcc.c **** #else
1031:HAL_Lib/STM32H7xx_HAL_Driver/Src/stm32h7xx_hal_rcc.c ****     MODIFY_REG(RCC->CDCFGR1, RCC_CDCFGR1_CDCPRE, RCC_ClkInitStruct->SYSCLKDivider);
1032:HAL_Lib/STM32H7xx_HAL_Driver/Src/stm32h7xx_hal_rcc.c **** #endif
1033:HAL_Lib/STM32H7xx_HAL_Driver/Src/stm32h7xx_hal_rcc.c ****     /* HSE is selected as System Clock Source */
1034:HAL_Lib/STM32H7xx_HAL_Driver/Src/stm32h7xx_hal_rcc.c ****     if (RCC_ClkInitStruct->SYSCLKSource == RCC_SYSCLKSOURCE_HSE)
1035:HAL_Lib/STM32H7xx_HAL_Driver/Src/stm32h7xx_hal_rcc.c ****     {
1036:HAL_Lib/STM32H7xx_HAL_Driver/Src/stm32h7xx_hal_rcc.c ****       /* Check the HSE ready flag */
1037:HAL_Lib/STM32H7xx_HAL_Driver/Src/stm32h7xx_hal_rcc.c ****       if (__HAL_RCC_GET_FLAG(RCC_FLAG_HSERDY) == 0U)
1038:HAL_Lib/STM32H7xx_HAL_Driver/Src/stm32h7xx_hal_rcc.c ****       {
1039:HAL_Lib/STM32H7xx_HAL_Driver/Src/stm32h7xx_hal_rcc.c ****         return HAL_ERROR;
1040:HAL_Lib/STM32H7xx_HAL_Driver/Src/stm32h7xx_hal_rcc.c ****       }
1041:HAL_Lib/STM32H7xx_HAL_Driver/Src/stm32h7xx_hal_rcc.c ****     }
1042:HAL_Lib/STM32H7xx_HAL_Driver/Src/stm32h7xx_hal_rcc.c ****     /* PLL is selected as System Clock Source */
1043:HAL_Lib/STM32H7xx_HAL_Driver/Src/stm32h7xx_hal_rcc.c ****     else if (RCC_ClkInitStruct->SYSCLKSource == RCC_SYSCLKSOURCE_PLLCLK)
1044:HAL_Lib/STM32H7xx_HAL_Driver/Src/stm32h7xx_hal_rcc.c ****     {
1045:HAL_Lib/STM32H7xx_HAL_Driver/Src/stm32h7xx_hal_rcc.c ****       /* Check the PLL ready flag */
1046:HAL_Lib/STM32H7xx_HAL_Driver/Src/stm32h7xx_hal_rcc.c ****       if (__HAL_RCC_GET_FLAG(RCC_FLAG_PLLRDY) == 0U)
1047:HAL_Lib/STM32H7xx_HAL_Driver/Src/stm32h7xx_hal_rcc.c ****       {
1048:HAL_Lib/STM32H7xx_HAL_Driver/Src/stm32h7xx_hal_rcc.c ****         return HAL_ERROR;
1049:HAL_Lib/STM32H7xx_HAL_Driver/Src/stm32h7xx_hal_rcc.c ****       }
1050:HAL_Lib/STM32H7xx_HAL_Driver/Src/stm32h7xx_hal_rcc.c ****     }
1051:HAL_Lib/STM32H7xx_HAL_Driver/Src/stm32h7xx_hal_rcc.c ****     /* CSI is selected as System Clock Source */
1052:HAL_Lib/STM32H7xx_HAL_Driver/Src/stm32h7xx_hal_rcc.c ****     else if (RCC_ClkInitStruct->SYSCLKSource == RCC_SYSCLKSOURCE_CSI)
ARM GAS  C:\Users\huav\AppData\Local\Temp\ccAjt8Jj.s 			page 55


1053:HAL_Lib/STM32H7xx_HAL_Driver/Src/stm32h7xx_hal_rcc.c ****     {
1054:HAL_Lib/STM32H7xx_HAL_Driver/Src/stm32h7xx_hal_rcc.c ****       /* Check the PLL ready flag */
1055:HAL_Lib/STM32H7xx_HAL_Driver/Src/stm32h7xx_hal_rcc.c ****       if (__HAL_RCC_GET_FLAG(RCC_FLAG_CSIRDY) == 0U)
1056:HAL_Lib/STM32H7xx_HAL_Driver/Src/stm32h7xx_hal_rcc.c ****       {
1057:HAL_Lib/STM32H7xx_HAL_Driver/Src/stm32h7xx_hal_rcc.c ****         return HAL_ERROR;
1058:HAL_Lib/STM32H7xx_HAL_Driver/Src/stm32h7xx_hal_rcc.c ****       }
1059:HAL_Lib/STM32H7xx_HAL_Driver/Src/stm32h7xx_hal_rcc.c ****     }
1060:HAL_Lib/STM32H7xx_HAL_Driver/Src/stm32h7xx_hal_rcc.c ****     /* HSI is selected as System Clock Source */
1061:HAL_Lib/STM32H7xx_HAL_Driver/Src/stm32h7xx_hal_rcc.c ****     else
1062:HAL_Lib/STM32H7xx_HAL_Driver/Src/stm32h7xx_hal_rcc.c ****     {
1063:HAL_Lib/STM32H7xx_HAL_Driver/Src/stm32h7xx_hal_rcc.c ****       /* Check the HSI ready flag */
1064:HAL_Lib/STM32H7xx_HAL_Driver/Src/stm32h7xx_hal_rcc.c ****       if (__HAL_RCC_GET_FLAG(RCC_FLAG_HSIRDY) == 0U)
1065:HAL_Lib/STM32H7xx_HAL_Driver/Src/stm32h7xx_hal_rcc.c ****       {
1066:HAL_Lib/STM32H7xx_HAL_Driver/Src/stm32h7xx_hal_rcc.c ****         return HAL_ERROR;
1067:HAL_Lib/STM32H7xx_HAL_Driver/Src/stm32h7xx_hal_rcc.c ****       }
1068:HAL_Lib/STM32H7xx_HAL_Driver/Src/stm32h7xx_hal_rcc.c ****     }
1069:HAL_Lib/STM32H7xx_HAL_Driver/Src/stm32h7xx_hal_rcc.c ****     MODIFY_REG(RCC->CFGR, RCC_CFGR_SW, RCC_ClkInitStruct->SYSCLKSource);
1070:HAL_Lib/STM32H7xx_HAL_Driver/Src/stm32h7xx_hal_rcc.c **** 
1071:HAL_Lib/STM32H7xx_HAL_Driver/Src/stm32h7xx_hal_rcc.c ****     /* Get Start Tick*/
1072:HAL_Lib/STM32H7xx_HAL_Driver/Src/stm32h7xx_hal_rcc.c ****     tickstart = HAL_GetTick();
1073:HAL_Lib/STM32H7xx_HAL_Driver/Src/stm32h7xx_hal_rcc.c **** 
1074:HAL_Lib/STM32H7xx_HAL_Driver/Src/stm32h7xx_hal_rcc.c ****     while (__HAL_RCC_GET_SYSCLK_SOURCE() != (RCC_ClkInitStruct->SYSCLKSource << RCC_CFGR_SWS_Pos))
1075:HAL_Lib/STM32H7xx_HAL_Driver/Src/stm32h7xx_hal_rcc.c ****     {
1076:HAL_Lib/STM32H7xx_HAL_Driver/Src/stm32h7xx_hal_rcc.c ****       if ((HAL_GetTick() - tickstart) > CLOCKSWITCH_TIMEOUT_VALUE)
1077:HAL_Lib/STM32H7xx_HAL_Driver/Src/stm32h7xx_hal_rcc.c ****       {
1078:HAL_Lib/STM32H7xx_HAL_Driver/Src/stm32h7xx_hal_rcc.c ****         return HAL_TIMEOUT;
1079:HAL_Lib/STM32H7xx_HAL_Driver/Src/stm32h7xx_hal_rcc.c ****       }
1080:HAL_Lib/STM32H7xx_HAL_Driver/Src/stm32h7xx_hal_rcc.c ****     }
1081:HAL_Lib/STM32H7xx_HAL_Driver/Src/stm32h7xx_hal_rcc.c ****   }
1082:HAL_Lib/STM32H7xx_HAL_Driver/Src/stm32h7xx_hal_rcc.c **** 
1083:HAL_Lib/STM32H7xx_HAL_Driver/Src/stm32h7xx_hal_rcc.c ****   /* Decreasing the BUS frequency divider */
1084:HAL_Lib/STM32H7xx_HAL_Driver/Src/stm32h7xx_hal_rcc.c ****   /*-------------------------- HCLK Configuration --------------------------*/
1085:HAL_Lib/STM32H7xx_HAL_Driver/Src/stm32h7xx_hal_rcc.c ****   if (((RCC_ClkInitStruct->ClockType) & RCC_CLOCKTYPE_HCLK) == RCC_CLOCKTYPE_HCLK)
1086:HAL_Lib/STM32H7xx_HAL_Driver/Src/stm32h7xx_hal_rcc.c ****   {
1087:HAL_Lib/STM32H7xx_HAL_Driver/Src/stm32h7xx_hal_rcc.c **** #if defined(RCC_D1CFGR_HPRE)
1088:HAL_Lib/STM32H7xx_HAL_Driver/Src/stm32h7xx_hal_rcc.c ****     if ((RCC_ClkInitStruct->AHBCLKDivider) < (RCC->D1CFGR & RCC_D1CFGR_HPRE))
1089:HAL_Lib/STM32H7xx_HAL_Driver/Src/stm32h7xx_hal_rcc.c ****     {
1090:HAL_Lib/STM32H7xx_HAL_Driver/Src/stm32h7xx_hal_rcc.c ****       /* Set the new HCLK clock divider */
1091:HAL_Lib/STM32H7xx_HAL_Driver/Src/stm32h7xx_hal_rcc.c ****       assert_param(IS_RCC_HCLK(RCC_ClkInitStruct->AHBCLKDivider));
1092:HAL_Lib/STM32H7xx_HAL_Driver/Src/stm32h7xx_hal_rcc.c ****       MODIFY_REG(RCC->D1CFGR, RCC_D1CFGR_HPRE, RCC_ClkInitStruct->AHBCLKDivider);
1093:HAL_Lib/STM32H7xx_HAL_Driver/Src/stm32h7xx_hal_rcc.c ****     }
1094:HAL_Lib/STM32H7xx_HAL_Driver/Src/stm32h7xx_hal_rcc.c **** #else
1095:HAL_Lib/STM32H7xx_HAL_Driver/Src/stm32h7xx_hal_rcc.c ****     if ((RCC_ClkInitStruct->AHBCLKDivider) < (RCC->CDCFGR1 & RCC_CDCFGR1_HPRE))
1096:HAL_Lib/STM32H7xx_HAL_Driver/Src/stm32h7xx_hal_rcc.c ****     {
1097:HAL_Lib/STM32H7xx_HAL_Driver/Src/stm32h7xx_hal_rcc.c ****       /* Set the new HCLK clock divider */
1098:HAL_Lib/STM32H7xx_HAL_Driver/Src/stm32h7xx_hal_rcc.c ****       assert_param(IS_RCC_HCLK(RCC_ClkInitStruct->AHBCLKDivider));
1099:HAL_Lib/STM32H7xx_HAL_Driver/Src/stm32h7xx_hal_rcc.c ****       MODIFY_REG(RCC->CDCFGR1, RCC_CDCFGR1_HPRE, RCC_ClkInitStruct->AHBCLKDivider);
1100:HAL_Lib/STM32H7xx_HAL_Driver/Src/stm32h7xx_hal_rcc.c ****     }
1101:HAL_Lib/STM32H7xx_HAL_Driver/Src/stm32h7xx_hal_rcc.c **** #endif
1102:HAL_Lib/STM32H7xx_HAL_Driver/Src/stm32h7xx_hal_rcc.c ****   }
1103:HAL_Lib/STM32H7xx_HAL_Driver/Src/stm32h7xx_hal_rcc.c **** 
1104:HAL_Lib/STM32H7xx_HAL_Driver/Src/stm32h7xx_hal_rcc.c ****   /* Decreasing the number of wait states because of lower CPU frequency */
1105:HAL_Lib/STM32H7xx_HAL_Driver/Src/stm32h7xx_hal_rcc.c ****   if (FLatency < __HAL_FLASH_GET_LATENCY())
1106:HAL_Lib/STM32H7xx_HAL_Driver/Src/stm32h7xx_hal_rcc.c ****   {
1107:HAL_Lib/STM32H7xx_HAL_Driver/Src/stm32h7xx_hal_rcc.c ****     /* Program the new number of wait states to the LATENCY bits in the FLASH_ACR register */
1108:HAL_Lib/STM32H7xx_HAL_Driver/Src/stm32h7xx_hal_rcc.c ****     __HAL_FLASH_SET_LATENCY(FLatency);
1109:HAL_Lib/STM32H7xx_HAL_Driver/Src/stm32h7xx_hal_rcc.c **** 
ARM GAS  C:\Users\huav\AppData\Local\Temp\ccAjt8Jj.s 			page 56


1110:HAL_Lib/STM32H7xx_HAL_Driver/Src/stm32h7xx_hal_rcc.c ****     /* Check that the new number of wait states is taken into account to access the Flash
1111:HAL_Lib/STM32H7xx_HAL_Driver/Src/stm32h7xx_hal_rcc.c ****     memory by reading the FLASH_ACR register */
1112:HAL_Lib/STM32H7xx_HAL_Driver/Src/stm32h7xx_hal_rcc.c ****     if (__HAL_FLASH_GET_LATENCY() != FLatency)
1113:HAL_Lib/STM32H7xx_HAL_Driver/Src/stm32h7xx_hal_rcc.c ****     {
1114:HAL_Lib/STM32H7xx_HAL_Driver/Src/stm32h7xx_hal_rcc.c ****       return HAL_ERROR;
1115:HAL_Lib/STM32H7xx_HAL_Driver/Src/stm32h7xx_hal_rcc.c ****     }
1116:HAL_Lib/STM32H7xx_HAL_Driver/Src/stm32h7xx_hal_rcc.c ****   }
1117:HAL_Lib/STM32H7xx_HAL_Driver/Src/stm32h7xx_hal_rcc.c **** 
1118:HAL_Lib/STM32H7xx_HAL_Driver/Src/stm32h7xx_hal_rcc.c ****   /*-------------------------- D1PCLK1/CDPCLK Configuration ---------------------------*/
1119:HAL_Lib/STM32H7xx_HAL_Driver/Src/stm32h7xx_hal_rcc.c ****   if (((RCC_ClkInitStruct->ClockType) & RCC_CLOCKTYPE_D1PCLK1) == RCC_CLOCKTYPE_D1PCLK1)
1120:HAL_Lib/STM32H7xx_HAL_Driver/Src/stm32h7xx_hal_rcc.c ****   {
1121:HAL_Lib/STM32H7xx_HAL_Driver/Src/stm32h7xx_hal_rcc.c **** #if defined(RCC_D1CFGR_D1PPRE)
1122:HAL_Lib/STM32H7xx_HAL_Driver/Src/stm32h7xx_hal_rcc.c ****     if ((RCC_ClkInitStruct->APB3CLKDivider) < (RCC->D1CFGR & RCC_D1CFGR_D1PPRE))
1123:HAL_Lib/STM32H7xx_HAL_Driver/Src/stm32h7xx_hal_rcc.c ****     {
1124:HAL_Lib/STM32H7xx_HAL_Driver/Src/stm32h7xx_hal_rcc.c ****       assert_param(IS_RCC_D1PCLK1(RCC_ClkInitStruct->APB3CLKDivider));
1125:HAL_Lib/STM32H7xx_HAL_Driver/Src/stm32h7xx_hal_rcc.c ****       MODIFY_REG(RCC->D1CFGR, RCC_D1CFGR_D1PPRE, RCC_ClkInitStruct->APB3CLKDivider);
1126:HAL_Lib/STM32H7xx_HAL_Driver/Src/stm32h7xx_hal_rcc.c ****     }
1127:HAL_Lib/STM32H7xx_HAL_Driver/Src/stm32h7xx_hal_rcc.c **** #else
1128:HAL_Lib/STM32H7xx_HAL_Driver/Src/stm32h7xx_hal_rcc.c ****     if ((RCC_ClkInitStruct->APB3CLKDivider) < (RCC->CDCFGR1 & RCC_CDCFGR1_CDPPRE))
1129:HAL_Lib/STM32H7xx_HAL_Driver/Src/stm32h7xx_hal_rcc.c ****     {
1130:HAL_Lib/STM32H7xx_HAL_Driver/Src/stm32h7xx_hal_rcc.c ****       assert_param(IS_RCC_CDPCLK1(RCC_ClkInitStruct->APB3CLKDivider));
1131:HAL_Lib/STM32H7xx_HAL_Driver/Src/stm32h7xx_hal_rcc.c ****       MODIFY_REG(RCC->CDCFGR1, RCC_CDCFGR1_CDPPRE, RCC_ClkInitStruct->APB3CLKDivider);
1132:HAL_Lib/STM32H7xx_HAL_Driver/Src/stm32h7xx_hal_rcc.c ****     }
1133:HAL_Lib/STM32H7xx_HAL_Driver/Src/stm32h7xx_hal_rcc.c **** #endif
1134:HAL_Lib/STM32H7xx_HAL_Driver/Src/stm32h7xx_hal_rcc.c ****   }
1135:HAL_Lib/STM32H7xx_HAL_Driver/Src/stm32h7xx_hal_rcc.c **** 
1136:HAL_Lib/STM32H7xx_HAL_Driver/Src/stm32h7xx_hal_rcc.c ****   /*-------------------------- PCLK1 Configuration ---------------------------*/
1137:HAL_Lib/STM32H7xx_HAL_Driver/Src/stm32h7xx_hal_rcc.c ****   if (((RCC_ClkInitStruct->ClockType) & RCC_CLOCKTYPE_PCLK1) == RCC_CLOCKTYPE_PCLK1)
1138:HAL_Lib/STM32H7xx_HAL_Driver/Src/stm32h7xx_hal_rcc.c ****   {
1139:HAL_Lib/STM32H7xx_HAL_Driver/Src/stm32h7xx_hal_rcc.c **** #if defined(RCC_D2CFGR_D2PPRE1)
1140:HAL_Lib/STM32H7xx_HAL_Driver/Src/stm32h7xx_hal_rcc.c ****     if ((RCC_ClkInitStruct->APB1CLKDivider) < (RCC->D2CFGR & RCC_D2CFGR_D2PPRE1))
1141:HAL_Lib/STM32H7xx_HAL_Driver/Src/stm32h7xx_hal_rcc.c ****     {
1142:HAL_Lib/STM32H7xx_HAL_Driver/Src/stm32h7xx_hal_rcc.c ****       assert_param(IS_RCC_PCLK1(RCC_ClkInitStruct->APB1CLKDivider));
1143:HAL_Lib/STM32H7xx_HAL_Driver/Src/stm32h7xx_hal_rcc.c ****       MODIFY_REG(RCC->D2CFGR, RCC_D2CFGR_D2PPRE1, (RCC_ClkInitStruct->APB1CLKDivider));
1144:HAL_Lib/STM32H7xx_HAL_Driver/Src/stm32h7xx_hal_rcc.c ****     }
1145:HAL_Lib/STM32H7xx_HAL_Driver/Src/stm32h7xx_hal_rcc.c **** #else
1146:HAL_Lib/STM32H7xx_HAL_Driver/Src/stm32h7xx_hal_rcc.c ****     if ((RCC_ClkInitStruct->APB1CLKDivider) < (RCC->CDCFGR2 & RCC_CDCFGR2_CDPPRE1))
1147:HAL_Lib/STM32H7xx_HAL_Driver/Src/stm32h7xx_hal_rcc.c ****     {
1148:HAL_Lib/STM32H7xx_HAL_Driver/Src/stm32h7xx_hal_rcc.c ****       assert_param(IS_RCC_PCLK1(RCC_ClkInitStruct->APB1CLKDivider));
1149:HAL_Lib/STM32H7xx_HAL_Driver/Src/stm32h7xx_hal_rcc.c ****       MODIFY_REG(RCC->CDCFGR2, RCC_CDCFGR2_CDPPRE1, (RCC_ClkInitStruct->APB1CLKDivider));
1150:HAL_Lib/STM32H7xx_HAL_Driver/Src/stm32h7xx_hal_rcc.c ****     }
1151:HAL_Lib/STM32H7xx_HAL_Driver/Src/stm32h7xx_hal_rcc.c **** #endif
1152:HAL_Lib/STM32H7xx_HAL_Driver/Src/stm32h7xx_hal_rcc.c ****   }
1153:HAL_Lib/STM32H7xx_HAL_Driver/Src/stm32h7xx_hal_rcc.c **** 
1154:HAL_Lib/STM32H7xx_HAL_Driver/Src/stm32h7xx_hal_rcc.c ****   /*-------------------------- PCLK2 Configuration ---------------------------*/
1155:HAL_Lib/STM32H7xx_HAL_Driver/Src/stm32h7xx_hal_rcc.c ****   if (((RCC_ClkInitStruct->ClockType) & RCC_CLOCKTYPE_PCLK2) == RCC_CLOCKTYPE_PCLK2)
1156:HAL_Lib/STM32H7xx_HAL_Driver/Src/stm32h7xx_hal_rcc.c ****   {
1157:HAL_Lib/STM32H7xx_HAL_Driver/Src/stm32h7xx_hal_rcc.c **** #if defined(RCC_D2CFGR_D2PPRE2)
1158:HAL_Lib/STM32H7xx_HAL_Driver/Src/stm32h7xx_hal_rcc.c ****     if ((RCC_ClkInitStruct->APB2CLKDivider) < (RCC->D2CFGR & RCC_D2CFGR_D2PPRE2))
1159:HAL_Lib/STM32H7xx_HAL_Driver/Src/stm32h7xx_hal_rcc.c ****     {
1160:HAL_Lib/STM32H7xx_HAL_Driver/Src/stm32h7xx_hal_rcc.c ****       assert_param(IS_RCC_PCLK2(RCC_ClkInitStruct->APB2CLKDivider));
1161:HAL_Lib/STM32H7xx_HAL_Driver/Src/stm32h7xx_hal_rcc.c ****       MODIFY_REG(RCC->D2CFGR, RCC_D2CFGR_D2PPRE2, (RCC_ClkInitStruct->APB2CLKDivider));
1162:HAL_Lib/STM32H7xx_HAL_Driver/Src/stm32h7xx_hal_rcc.c ****     }
1163:HAL_Lib/STM32H7xx_HAL_Driver/Src/stm32h7xx_hal_rcc.c **** #else
1164:HAL_Lib/STM32H7xx_HAL_Driver/Src/stm32h7xx_hal_rcc.c ****     if ((RCC_ClkInitStruct->APB2CLKDivider) < (RCC->CDCFGR2 & RCC_CDCFGR2_CDPPRE2))
1165:HAL_Lib/STM32H7xx_HAL_Driver/Src/stm32h7xx_hal_rcc.c ****     {
1166:HAL_Lib/STM32H7xx_HAL_Driver/Src/stm32h7xx_hal_rcc.c ****       assert_param(IS_RCC_PCLK2(RCC_ClkInitStruct->APB2CLKDivider));
ARM GAS  C:\Users\huav\AppData\Local\Temp\ccAjt8Jj.s 			page 57


1167:HAL_Lib/STM32H7xx_HAL_Driver/Src/stm32h7xx_hal_rcc.c ****       MODIFY_REG(RCC->CDCFGR2, RCC_CDCFGR2_CDPPRE2, (RCC_ClkInitStruct->APB2CLKDivider));
1168:HAL_Lib/STM32H7xx_HAL_Driver/Src/stm32h7xx_hal_rcc.c ****     }
1169:HAL_Lib/STM32H7xx_HAL_Driver/Src/stm32h7xx_hal_rcc.c **** #endif
1170:HAL_Lib/STM32H7xx_HAL_Driver/Src/stm32h7xx_hal_rcc.c ****   }
1171:HAL_Lib/STM32H7xx_HAL_Driver/Src/stm32h7xx_hal_rcc.c **** 
1172:HAL_Lib/STM32H7xx_HAL_Driver/Src/stm32h7xx_hal_rcc.c ****   /*-------------------------- D3PCLK1/SRDPCLK1 Configuration ---------------------------*/
1173:HAL_Lib/STM32H7xx_HAL_Driver/Src/stm32h7xx_hal_rcc.c ****   if (((RCC_ClkInitStruct->ClockType) & RCC_CLOCKTYPE_D3PCLK1) == RCC_CLOCKTYPE_D3PCLK1)
1174:HAL_Lib/STM32H7xx_HAL_Driver/Src/stm32h7xx_hal_rcc.c ****   {
1175:HAL_Lib/STM32H7xx_HAL_Driver/Src/stm32h7xx_hal_rcc.c **** #if defined(RCC_D3CFGR_D3PPRE)
1176:HAL_Lib/STM32H7xx_HAL_Driver/Src/stm32h7xx_hal_rcc.c ****     if ((RCC_ClkInitStruct->APB4CLKDivider) < (RCC->D3CFGR & RCC_D3CFGR_D3PPRE))
1177:HAL_Lib/STM32H7xx_HAL_Driver/Src/stm32h7xx_hal_rcc.c ****     {
1178:HAL_Lib/STM32H7xx_HAL_Driver/Src/stm32h7xx_hal_rcc.c ****       assert_param(IS_RCC_D3PCLK1(RCC_ClkInitStruct->APB4CLKDivider));
1179:HAL_Lib/STM32H7xx_HAL_Driver/Src/stm32h7xx_hal_rcc.c ****       MODIFY_REG(RCC->D3CFGR, RCC_D3CFGR_D3PPRE, (RCC_ClkInitStruct->APB4CLKDivider));
1180:HAL_Lib/STM32H7xx_HAL_Driver/Src/stm32h7xx_hal_rcc.c ****     }
1181:HAL_Lib/STM32H7xx_HAL_Driver/Src/stm32h7xx_hal_rcc.c **** #else
1182:HAL_Lib/STM32H7xx_HAL_Driver/Src/stm32h7xx_hal_rcc.c ****     if ((RCC_ClkInitStruct->APB4CLKDivider) < (RCC->SRDCFGR & RCC_SRDCFGR_SRDPPRE))
1183:HAL_Lib/STM32H7xx_HAL_Driver/Src/stm32h7xx_hal_rcc.c ****     {
1184:HAL_Lib/STM32H7xx_HAL_Driver/Src/stm32h7xx_hal_rcc.c ****       assert_param(IS_RCC_SRDPCLK1(RCC_ClkInitStruct->APB4CLKDivider));
1185:HAL_Lib/STM32H7xx_HAL_Driver/Src/stm32h7xx_hal_rcc.c ****       MODIFY_REG(RCC->SRDCFGR, RCC_SRDCFGR_SRDPPRE, (RCC_ClkInitStruct->APB4CLKDivider));
1186:HAL_Lib/STM32H7xx_HAL_Driver/Src/stm32h7xx_hal_rcc.c ****     }
1187:HAL_Lib/STM32H7xx_HAL_Driver/Src/stm32h7xx_hal_rcc.c **** #endif
1188:HAL_Lib/STM32H7xx_HAL_Driver/Src/stm32h7xx_hal_rcc.c ****   }
1189:HAL_Lib/STM32H7xx_HAL_Driver/Src/stm32h7xx_hal_rcc.c **** 
1190:HAL_Lib/STM32H7xx_HAL_Driver/Src/stm32h7xx_hal_rcc.c ****   /* Update the SystemCoreClock global variable */
1191:HAL_Lib/STM32H7xx_HAL_Driver/Src/stm32h7xx_hal_rcc.c **** #if defined(RCC_D1CFGR_D1CPRE)
1192:HAL_Lib/STM32H7xx_HAL_Driver/Src/stm32h7xx_hal_rcc.c ****   common_system_clock = HAL_RCC_GetSysClockFreq() >> ((D1CorePrescTable[(RCC->D1CFGR & RCC_D1CFGR_D
1193:HAL_Lib/STM32H7xx_HAL_Driver/Src/stm32h7xx_hal_rcc.c **** #else
1194:HAL_Lib/STM32H7xx_HAL_Driver/Src/stm32h7xx_hal_rcc.c ****   common_system_clock = HAL_RCC_GetSysClockFreq() >> ((D1CorePrescTable[(RCC->CDCFGR1 & RCC_CDCFGR1
1195:HAL_Lib/STM32H7xx_HAL_Driver/Src/stm32h7xx_hal_rcc.c **** #endif
1196:HAL_Lib/STM32H7xx_HAL_Driver/Src/stm32h7xx_hal_rcc.c **** 
1197:HAL_Lib/STM32H7xx_HAL_Driver/Src/stm32h7xx_hal_rcc.c **** #if defined(RCC_D1CFGR_HPRE)
1198:HAL_Lib/STM32H7xx_HAL_Driver/Src/stm32h7xx_hal_rcc.c ****   SystemD2Clock = (common_system_clock >> ((D1CorePrescTable[(RCC->D1CFGR & RCC_D1CFGR_HPRE) >> RCC
1199:HAL_Lib/STM32H7xx_HAL_Driver/Src/stm32h7xx_hal_rcc.c **** #else
1200:HAL_Lib/STM32H7xx_HAL_Driver/Src/stm32h7xx_hal_rcc.c ****   SystemD2Clock = (common_system_clock >> ((D1CorePrescTable[(RCC->CDCFGR1 & RCC_CDCFGR1_HPRE) >> R
1201:HAL_Lib/STM32H7xx_HAL_Driver/Src/stm32h7xx_hal_rcc.c **** #endif
1202:HAL_Lib/STM32H7xx_HAL_Driver/Src/stm32h7xx_hal_rcc.c **** 
1203:HAL_Lib/STM32H7xx_HAL_Driver/Src/stm32h7xx_hal_rcc.c **** #if defined(DUAL_CORE) && defined(CORE_CM4)
1204:HAL_Lib/STM32H7xx_HAL_Driver/Src/stm32h7xx_hal_rcc.c ****   SystemCoreClock = SystemD2Clock;
1205:HAL_Lib/STM32H7xx_HAL_Driver/Src/stm32h7xx_hal_rcc.c **** #else
1206:HAL_Lib/STM32H7xx_HAL_Driver/Src/stm32h7xx_hal_rcc.c ****   SystemCoreClock = common_system_clock;
1207:HAL_Lib/STM32H7xx_HAL_Driver/Src/stm32h7xx_hal_rcc.c **** #endif /* DUAL_CORE && CORE_CM4 */
1208:HAL_Lib/STM32H7xx_HAL_Driver/Src/stm32h7xx_hal_rcc.c **** 
1209:HAL_Lib/STM32H7xx_HAL_Driver/Src/stm32h7xx_hal_rcc.c ****   /* Configure the source of time base considering new system clocks settings*/
1210:HAL_Lib/STM32H7xx_HAL_Driver/Src/stm32h7xx_hal_rcc.c ****   halstatus = HAL_InitTick(uwTickPrio);
1211:HAL_Lib/STM32H7xx_HAL_Driver/Src/stm32h7xx_hal_rcc.c **** 
1212:HAL_Lib/STM32H7xx_HAL_Driver/Src/stm32h7xx_hal_rcc.c ****   return halstatus;
1213:HAL_Lib/STM32H7xx_HAL_Driver/Src/stm32h7xx_hal_rcc.c **** }
1214:HAL_Lib/STM32H7xx_HAL_Driver/Src/stm32h7xx_hal_rcc.c **** 
1215:HAL_Lib/STM32H7xx_HAL_Driver/Src/stm32h7xx_hal_rcc.c **** /**
1216:HAL_Lib/STM32H7xx_HAL_Driver/Src/stm32h7xx_hal_rcc.c ****  * @}
1217:HAL_Lib/STM32H7xx_HAL_Driver/Src/stm32h7xx_hal_rcc.c ****  */
1218:HAL_Lib/STM32H7xx_HAL_Driver/Src/stm32h7xx_hal_rcc.c **** 
1219:HAL_Lib/STM32H7xx_HAL_Driver/Src/stm32h7xx_hal_rcc.c **** /** @defgroup RCC_Group2 Peripheral Control functions
1220:HAL_Lib/STM32H7xx_HAL_Driver/Src/stm32h7xx_hal_rcc.c ****  *  @brief   RCC clocks control functions
1221:HAL_Lib/STM32H7xx_HAL_Driver/Src/stm32h7xx_hal_rcc.c ****  *
1222:HAL_Lib/STM32H7xx_HAL_Driver/Src/stm32h7xx_hal_rcc.c **** @verbatim
1223:HAL_Lib/STM32H7xx_HAL_Driver/Src/stm32h7xx_hal_rcc.c ****  ===============================================================================
ARM GAS  C:\Users\huav\AppData\Local\Temp\ccAjt8Jj.s 			page 58


1224:HAL_Lib/STM32H7xx_HAL_Driver/Src/stm32h7xx_hal_rcc.c ****                       ##### Peripheral Control functions #####
1225:HAL_Lib/STM32H7xx_HAL_Driver/Src/stm32h7xx_hal_rcc.c ****  ===============================================================================
1226:HAL_Lib/STM32H7xx_HAL_Driver/Src/stm32h7xx_hal_rcc.c ****     [..]
1227:HAL_Lib/STM32H7xx_HAL_Driver/Src/stm32h7xx_hal_rcc.c ****     This subsection provides a set of functions allowing to control the RCC Clocks
1228:HAL_Lib/STM32H7xx_HAL_Driver/Src/stm32h7xx_hal_rcc.c ****     frequencies.
1229:HAL_Lib/STM32H7xx_HAL_Driver/Src/stm32h7xx_hal_rcc.c **** 
1230:HAL_Lib/STM32H7xx_HAL_Driver/Src/stm32h7xx_hal_rcc.c **** @endverbatim
1231:HAL_Lib/STM32H7xx_HAL_Driver/Src/stm32h7xx_hal_rcc.c ****   * @{
1232:HAL_Lib/STM32H7xx_HAL_Driver/Src/stm32h7xx_hal_rcc.c ****   */
1233:HAL_Lib/STM32H7xx_HAL_Driver/Src/stm32h7xx_hal_rcc.c **** 
1234:HAL_Lib/STM32H7xx_HAL_Driver/Src/stm32h7xx_hal_rcc.c **** /**
1235:HAL_Lib/STM32H7xx_HAL_Driver/Src/stm32h7xx_hal_rcc.c ****  * @brief  Selects the clock source to output on MCO1 pin(PA8) or on MCO2 pin(PC9).
1236:HAL_Lib/STM32H7xx_HAL_Driver/Src/stm32h7xx_hal_rcc.c ****  * @note   PA8/PC9 should be configured in alternate function mode.
1237:HAL_Lib/STM32H7xx_HAL_Driver/Src/stm32h7xx_hal_rcc.c ****  * @param  RCC_MCOx: specifies the output direction for the clock source.
1238:HAL_Lib/STM32H7xx_HAL_Driver/Src/stm32h7xx_hal_rcc.c ****  *          This parameter can be one of the following values:
1239:HAL_Lib/STM32H7xx_HAL_Driver/Src/stm32h7xx_hal_rcc.c ****  *            @arg RCC_MCO1: Clock source to output on MCO1 pin(PA8).
1240:HAL_Lib/STM32H7xx_HAL_Driver/Src/stm32h7xx_hal_rcc.c ****  *            @arg RCC_MCO2: Clock source to output on MCO2 pin(PC9).
1241:HAL_Lib/STM32H7xx_HAL_Driver/Src/stm32h7xx_hal_rcc.c ****  * @param  RCC_MCOSource: specifies the clock source to output.
1242:HAL_Lib/STM32H7xx_HAL_Driver/Src/stm32h7xx_hal_rcc.c ****  *          This parameter can be one of the following values:
1243:HAL_Lib/STM32H7xx_HAL_Driver/Src/stm32h7xx_hal_rcc.c ****  *            @arg RCC_MCO1SOURCE_HSI: HSI clock selected as MCO1 source
1244:HAL_Lib/STM32H7xx_HAL_Driver/Src/stm32h7xx_hal_rcc.c ****  *            @arg RCC_MCO1SOURCE_LSE: LSE clock selected as MCO1 source
1245:HAL_Lib/STM32H7xx_HAL_Driver/Src/stm32h7xx_hal_rcc.c ****  *            @arg RCC_MCO1SOURCE_HSE: HSE clock selected as MCO1 source
1246:HAL_Lib/STM32H7xx_HAL_Driver/Src/stm32h7xx_hal_rcc.c ****  *            @arg RCC_MCO1SOURCE_PLL1QCLK:  PLL1Q clock selected as MCO1 source
1247:HAL_Lib/STM32H7xx_HAL_Driver/Src/stm32h7xx_hal_rcc.c ****  *            @arg RCC_MCO1SOURCE_HSI48: HSI48 (48MHZ) selected as MCO1 source
1248:HAL_Lib/STM32H7xx_HAL_Driver/Src/stm32h7xx_hal_rcc.c ****  *            @arg RCC_MCO2SOURCE_SYSCLK: System clock (SYSCLK) selected as MCO2 source
1249:HAL_Lib/STM32H7xx_HAL_Driver/Src/stm32h7xx_hal_rcc.c ****  *            @arg RCC_MCO2SOURCE_PLL2PCLK: PLL2P clock selected as MCO2 source
1250:HAL_Lib/STM32H7xx_HAL_Driver/Src/stm32h7xx_hal_rcc.c ****  *            @arg RCC_MCO2SOURCE_HSE: HSE clock selected as MCO2 source
1251:HAL_Lib/STM32H7xx_HAL_Driver/Src/stm32h7xx_hal_rcc.c ****  *            @arg RCC_MCO2SOURCE_PLLCLK:  PLL1P clock selected as MCO2 source
1252:HAL_Lib/STM32H7xx_HAL_Driver/Src/stm32h7xx_hal_rcc.c ****  *            @arg RCC_MCO2SOURCE_CSICLK:  CSI clock selected as MCO2 source
1253:HAL_Lib/STM32H7xx_HAL_Driver/Src/stm32h7xx_hal_rcc.c ****  *            @arg RCC_MCO2SOURCE_LSICLK:  LSI clock selected as MCO2 source
1254:HAL_Lib/STM32H7xx_HAL_Driver/Src/stm32h7xx_hal_rcc.c ****  * @param  RCC_MCODiv: specifies the MCOx pre-scaler.
1255:HAL_Lib/STM32H7xx_HAL_Driver/Src/stm32h7xx_hal_rcc.c ****  *          This parameter can be one of the following values:
1256:HAL_Lib/STM32H7xx_HAL_Driver/Src/stm32h7xx_hal_rcc.c ****  *            @arg RCC_MCODIV_1 up to RCC_MCODIV_15  : divider applied to MCOx clock
1257:HAL_Lib/STM32H7xx_HAL_Driver/Src/stm32h7xx_hal_rcc.c ****  * @retval None
1258:HAL_Lib/STM32H7xx_HAL_Driver/Src/stm32h7xx_hal_rcc.c ****  */
1259:HAL_Lib/STM32H7xx_HAL_Driver/Src/stm32h7xx_hal_rcc.c **** void HAL_RCC_MCOConfig(uint32_t RCC_MCOx, uint32_t RCC_MCOSource, uint32_t RCC_MCODiv)
1260:HAL_Lib/STM32H7xx_HAL_Driver/Src/stm32h7xx_hal_rcc.c **** {
 1760              		.loc 1 1260 1 is_stmt 1 view -0
 1761              		.cfi_startproc
 1762              		@ args = 0, pretend = 0, frame = 32
 1763              		@ frame_needed = 0, uses_anonymous_args = 0
 1764              		.loc 1 1260 1 is_stmt 0 view .LVU566
 1765 0000 70B5     		push	{r4, r5, r6, lr}
 1766              	.LCFI4:
 1767              		.cfi_def_cfa_offset 16
 1768              		.cfi_offset 4, -16
 1769              		.cfi_offset 5, -12
 1770              		.cfi_offset 6, -8
 1771              		.cfi_offset 14, -4
 1772 0002 88B0     		sub	sp, sp, #32
 1773              	.LCFI5:
 1774              		.cfi_def_cfa_offset 48
 1775 0004 0C46     		mov	r4, r1
 1776 0006 1546     		mov	r5, r2
1261:HAL_Lib/STM32H7xx_HAL_Driver/Src/stm32h7xx_hal_rcc.c ****   GPIO_InitTypeDef GPIO_InitStruct;
 1777              		.loc 1 1261 3 is_stmt 1 view .LVU567
1262:HAL_Lib/STM32H7xx_HAL_Driver/Src/stm32h7xx_hal_rcc.c ****   /* Check the parameters */
ARM GAS  C:\Users\huav\AppData\Local\Temp\ccAjt8Jj.s 			page 59


1263:HAL_Lib/STM32H7xx_HAL_Driver/Src/stm32h7xx_hal_rcc.c ****   assert_param(IS_RCC_MCO(RCC_MCOx));
 1778              		.loc 1 1263 3 view .LVU568
1264:HAL_Lib/STM32H7xx_HAL_Driver/Src/stm32h7xx_hal_rcc.c ****   assert_param(IS_RCC_MCODIV(RCC_MCODiv));
 1779              		.loc 1 1264 3 view .LVU569
1265:HAL_Lib/STM32H7xx_HAL_Driver/Src/stm32h7xx_hal_rcc.c ****   /* RCC_MCO1 */
1266:HAL_Lib/STM32H7xx_HAL_Driver/Src/stm32h7xx_hal_rcc.c ****   if (RCC_MCOx == RCC_MCO1)
 1780              		.loc 1 1266 3 view .LVU570
 1781              		.loc 1 1266 6 is_stmt 0 view .LVU571
 1782 0008 10BB     		cbnz	r0, .L170
1267:HAL_Lib/STM32H7xx_HAL_Driver/Src/stm32h7xx_hal_rcc.c ****   {
1268:HAL_Lib/STM32H7xx_HAL_Driver/Src/stm32h7xx_hal_rcc.c ****     assert_param(IS_RCC_MCO1SOURCE(RCC_MCOSource));
 1783              		.loc 1 1268 5 is_stmt 1 view .LVU572
1269:HAL_Lib/STM32H7xx_HAL_Driver/Src/stm32h7xx_hal_rcc.c **** 
1270:HAL_Lib/STM32H7xx_HAL_Driver/Src/stm32h7xx_hal_rcc.c ****     /* MCO1 Clock Enable */
1271:HAL_Lib/STM32H7xx_HAL_Driver/Src/stm32h7xx_hal_rcc.c ****     MCO1_CLK_ENABLE();
 1784              		.loc 1 1271 5 view .LVU573
 1785              	.LBB13:
 1786              		.loc 1 1271 5 view .LVU574
 1787              		.loc 1 1271 5 view .LVU575
 1788 000a 234E     		ldr	r6, .L173
 1789 000c D6F8E030 		ldr	r3, [r6, #224]
 1790 0010 43F00103 		orr	r3, r3, #1
 1791 0014 C6F8E030 		str	r3, [r6, #224]
 1792              		.loc 1 1271 5 view .LVU576
 1793 0018 D6F8E030 		ldr	r3, [r6, #224]
 1794 001c 03F00103 		and	r3, r3, #1
 1795 0020 0193     		str	r3, [sp, #4]
 1796              		.loc 1 1271 5 view .LVU577
 1797 0022 019B     		ldr	r3, [sp, #4]
 1798              	.LBE13:
 1799              		.loc 1 1271 5 view .LVU578
1272:HAL_Lib/STM32H7xx_HAL_Driver/Src/stm32h7xx_hal_rcc.c **** 
1273:HAL_Lib/STM32H7xx_HAL_Driver/Src/stm32h7xx_hal_rcc.c ****     /* Configure the MCO1 pin in alternate function mode */
1274:HAL_Lib/STM32H7xx_HAL_Driver/Src/stm32h7xx_hal_rcc.c ****     GPIO_InitStruct.Pin = MCO1_PIN;
 1800              		.loc 1 1274 5 view .LVU579
 1801              		.loc 1 1274 25 is_stmt 0 view .LVU580
 1802 0024 4FF48073 		mov	r3, #256
 1803 0028 0393     		str	r3, [sp, #12]
1275:HAL_Lib/STM32H7xx_HAL_Driver/Src/stm32h7xx_hal_rcc.c ****     GPIO_InitStruct.Mode = GPIO_MODE_AF_PP;
 1804              		.loc 1 1275 5 is_stmt 1 view .LVU581
 1805              		.loc 1 1275 26 is_stmt 0 view .LVU582
 1806 002a 0223     		movs	r3, #2
 1807 002c 0493     		str	r3, [sp, #16]
1276:HAL_Lib/STM32H7xx_HAL_Driver/Src/stm32h7xx_hal_rcc.c ****     GPIO_InitStruct.Speed = GPIO_SPEED_FREQ_VERY_HIGH;
 1808              		.loc 1 1276 5 is_stmt 1 view .LVU583
 1809              		.loc 1 1276 27 is_stmt 0 view .LVU584
 1810 002e 0323     		movs	r3, #3
 1811 0030 0693     		str	r3, [sp, #24]
1277:HAL_Lib/STM32H7xx_HAL_Driver/Src/stm32h7xx_hal_rcc.c ****     GPIO_InitStruct.Pull = GPIO_NOPULL;
 1812              		.loc 1 1277 5 is_stmt 1 view .LVU585
 1813              		.loc 1 1277 26 is_stmt 0 view .LVU586
 1814 0032 0023     		movs	r3, #0
 1815 0034 0593     		str	r3, [sp, #20]
1278:HAL_Lib/STM32H7xx_HAL_Driver/Src/stm32h7xx_hal_rcc.c ****     GPIO_InitStruct.Alternate = GPIO_AF0_MCO;
 1816              		.loc 1 1278 5 is_stmt 1 view .LVU587
 1817              		.loc 1 1278 31 is_stmt 0 view .LVU588
 1818 0036 0793     		str	r3, [sp, #28]
ARM GAS  C:\Users\huav\AppData\Local\Temp\ccAjt8Jj.s 			page 60


1279:HAL_Lib/STM32H7xx_HAL_Driver/Src/stm32h7xx_hal_rcc.c ****     HAL_GPIO_Init(MCO1_GPIO_PORT, &GPIO_InitStruct);
 1819              		.loc 1 1279 5 is_stmt 1 view .LVU589
 1820 0038 03A9     		add	r1, sp, #12
 1821              	.LVL144:
 1822              		.loc 1 1279 5 is_stmt 0 view .LVU590
 1823 003a 1848     		ldr	r0, .L173+4
 1824              	.LVL145:
 1825              		.loc 1 1279 5 view .LVU591
 1826 003c FFF7FEFF 		bl	HAL_GPIO_Init
 1827              	.LVL146:
1280:HAL_Lib/STM32H7xx_HAL_Driver/Src/stm32h7xx_hal_rcc.c **** 
1281:HAL_Lib/STM32H7xx_HAL_Driver/Src/stm32h7xx_hal_rcc.c ****     /* Mask MCO1 and MCO1PRE[3:0] bits then Select MCO1 clock source and pre-scaler */
1282:HAL_Lib/STM32H7xx_HAL_Driver/Src/stm32h7xx_hal_rcc.c ****     MODIFY_REG(RCC->CFGR, (RCC_CFGR_MCO1 | RCC_CFGR_MCO1PRE), (RCC_MCOSource | RCC_MCODiv));
 1828              		.loc 1 1282 5 is_stmt 1 view .LVU592
 1829 0040 3369     		ldr	r3, [r6, #16]
 1830 0042 23F0FE73 		bic	r3, r3, #33292288
 1831 0046 2543     		orrs	r5, r5, r4
 1832              	.LVL147:
 1833              		.loc 1 1282 5 is_stmt 0 view .LVU593
 1834 0048 1D43     		orrs	r5, r5, r3
 1835 004a 3561     		str	r5, [r6, #16]
 1836              	.LVL148:
 1837              	.L169:
1283:HAL_Lib/STM32H7xx_HAL_Driver/Src/stm32h7xx_hal_rcc.c ****   }
1284:HAL_Lib/STM32H7xx_HAL_Driver/Src/stm32h7xx_hal_rcc.c ****   else
1285:HAL_Lib/STM32H7xx_HAL_Driver/Src/stm32h7xx_hal_rcc.c ****   {
1286:HAL_Lib/STM32H7xx_HAL_Driver/Src/stm32h7xx_hal_rcc.c ****     assert_param(IS_RCC_MCO2SOURCE(RCC_MCOSource));
1287:HAL_Lib/STM32H7xx_HAL_Driver/Src/stm32h7xx_hal_rcc.c **** 
1288:HAL_Lib/STM32H7xx_HAL_Driver/Src/stm32h7xx_hal_rcc.c ****     /* MCO2 Clock Enable */
1289:HAL_Lib/STM32H7xx_HAL_Driver/Src/stm32h7xx_hal_rcc.c ****     MCO2_CLK_ENABLE();
1290:HAL_Lib/STM32H7xx_HAL_Driver/Src/stm32h7xx_hal_rcc.c **** 
1291:HAL_Lib/STM32H7xx_HAL_Driver/Src/stm32h7xx_hal_rcc.c ****     /* Configure the MCO2 pin in alternate function mode */
1292:HAL_Lib/STM32H7xx_HAL_Driver/Src/stm32h7xx_hal_rcc.c ****     GPIO_InitStruct.Pin = MCO2_PIN;
1293:HAL_Lib/STM32H7xx_HAL_Driver/Src/stm32h7xx_hal_rcc.c ****     GPIO_InitStruct.Mode = GPIO_MODE_AF_PP;
1294:HAL_Lib/STM32H7xx_HAL_Driver/Src/stm32h7xx_hal_rcc.c ****     GPIO_InitStruct.Speed = GPIO_SPEED_FREQ_VERY_HIGH;
1295:HAL_Lib/STM32H7xx_HAL_Driver/Src/stm32h7xx_hal_rcc.c ****     GPIO_InitStruct.Pull = GPIO_NOPULL;
1296:HAL_Lib/STM32H7xx_HAL_Driver/Src/stm32h7xx_hal_rcc.c ****     GPIO_InitStruct.Alternate = GPIO_AF0_MCO;
1297:HAL_Lib/STM32H7xx_HAL_Driver/Src/stm32h7xx_hal_rcc.c ****     HAL_GPIO_Init(MCO2_GPIO_PORT, &GPIO_InitStruct);
1298:HAL_Lib/STM32H7xx_HAL_Driver/Src/stm32h7xx_hal_rcc.c **** 
1299:HAL_Lib/STM32H7xx_HAL_Driver/Src/stm32h7xx_hal_rcc.c ****     /* Mask MCO2 and MCO2PRE[3:0] bits then Select MCO2 clock source and pre-scaler */
1300:HAL_Lib/STM32H7xx_HAL_Driver/Src/stm32h7xx_hal_rcc.c ****     MODIFY_REG(RCC->CFGR, (RCC_CFGR_MCO2 | RCC_CFGR_MCO2PRE), (RCC_MCOSource | (RCC_MCODiv << 7U)))
1301:HAL_Lib/STM32H7xx_HAL_Driver/Src/stm32h7xx_hal_rcc.c ****   }
1302:HAL_Lib/STM32H7xx_HAL_Driver/Src/stm32h7xx_hal_rcc.c **** }
 1838              		.loc 1 1302 1 view .LVU594
 1839 004c 08B0     		add	sp, sp, #32
 1840              	.LCFI6:
 1841              		.cfi_remember_state
 1842              		.cfi_def_cfa_offset 16
 1843              		@ sp needed
 1844 004e 70BD     		pop	{r4, r5, r6, pc}
 1845              	.LVL149:
 1846              	.L170:
 1847              	.LCFI7:
 1848              		.cfi_restore_state
1286:HAL_Lib/STM32H7xx_HAL_Driver/Src/stm32h7xx_hal_rcc.c **** 
 1849              		.loc 1 1286 5 is_stmt 1 view .LVU595
1289:HAL_Lib/STM32H7xx_HAL_Driver/Src/stm32h7xx_hal_rcc.c **** 
ARM GAS  C:\Users\huav\AppData\Local\Temp\ccAjt8Jj.s 			page 61


 1850              		.loc 1 1289 5 view .LVU596
 1851              	.LBB14:
1289:HAL_Lib/STM32H7xx_HAL_Driver/Src/stm32h7xx_hal_rcc.c **** 
 1852              		.loc 1 1289 5 view .LVU597
1289:HAL_Lib/STM32H7xx_HAL_Driver/Src/stm32h7xx_hal_rcc.c **** 
 1853              		.loc 1 1289 5 view .LVU598
 1854 0050 114E     		ldr	r6, .L173
 1855 0052 D6F8E030 		ldr	r3, [r6, #224]
 1856 0056 43F00403 		orr	r3, r3, #4
 1857 005a C6F8E030 		str	r3, [r6, #224]
1289:HAL_Lib/STM32H7xx_HAL_Driver/Src/stm32h7xx_hal_rcc.c **** 
 1858              		.loc 1 1289 5 view .LVU599
 1859 005e D6F8E030 		ldr	r3, [r6, #224]
 1860 0062 03F00403 		and	r3, r3, #4
 1861 0066 0293     		str	r3, [sp, #8]
1289:HAL_Lib/STM32H7xx_HAL_Driver/Src/stm32h7xx_hal_rcc.c **** 
 1862              		.loc 1 1289 5 view .LVU600
 1863 0068 029B     		ldr	r3, [sp, #8]
 1864              	.LBE14:
1289:HAL_Lib/STM32H7xx_HAL_Driver/Src/stm32h7xx_hal_rcc.c **** 
 1865              		.loc 1 1289 5 view .LVU601
1292:HAL_Lib/STM32H7xx_HAL_Driver/Src/stm32h7xx_hal_rcc.c ****     GPIO_InitStruct.Mode = GPIO_MODE_AF_PP;
 1866              		.loc 1 1292 5 view .LVU602
1292:HAL_Lib/STM32H7xx_HAL_Driver/Src/stm32h7xx_hal_rcc.c ****     GPIO_InitStruct.Mode = GPIO_MODE_AF_PP;
 1867              		.loc 1 1292 25 is_stmt 0 view .LVU603
 1868 006a 4FF40073 		mov	r3, #512
 1869 006e 0393     		str	r3, [sp, #12]
1293:HAL_Lib/STM32H7xx_HAL_Driver/Src/stm32h7xx_hal_rcc.c ****     GPIO_InitStruct.Speed = GPIO_SPEED_FREQ_VERY_HIGH;
 1870              		.loc 1 1293 5 is_stmt 1 view .LVU604
1293:HAL_Lib/STM32H7xx_HAL_Driver/Src/stm32h7xx_hal_rcc.c ****     GPIO_InitStruct.Speed = GPIO_SPEED_FREQ_VERY_HIGH;
 1871              		.loc 1 1293 26 is_stmt 0 view .LVU605
 1872 0070 0223     		movs	r3, #2
 1873 0072 0493     		str	r3, [sp, #16]
1294:HAL_Lib/STM32H7xx_HAL_Driver/Src/stm32h7xx_hal_rcc.c ****     GPIO_InitStruct.Pull = GPIO_NOPULL;
 1874              		.loc 1 1294 5 is_stmt 1 view .LVU606
1294:HAL_Lib/STM32H7xx_HAL_Driver/Src/stm32h7xx_hal_rcc.c ****     GPIO_InitStruct.Pull = GPIO_NOPULL;
 1875              		.loc 1 1294 27 is_stmt 0 view .LVU607
 1876 0074 0323     		movs	r3, #3
 1877 0076 0693     		str	r3, [sp, #24]
1295:HAL_Lib/STM32H7xx_HAL_Driver/Src/stm32h7xx_hal_rcc.c ****     GPIO_InitStruct.Alternate = GPIO_AF0_MCO;
 1878              		.loc 1 1295 5 is_stmt 1 view .LVU608
1295:HAL_Lib/STM32H7xx_HAL_Driver/Src/stm32h7xx_hal_rcc.c ****     GPIO_InitStruct.Alternate = GPIO_AF0_MCO;
 1879              		.loc 1 1295 26 is_stmt 0 view .LVU609
 1880 0078 0023     		movs	r3, #0
 1881 007a 0593     		str	r3, [sp, #20]
1296:HAL_Lib/STM32H7xx_HAL_Driver/Src/stm32h7xx_hal_rcc.c ****     HAL_GPIO_Init(MCO2_GPIO_PORT, &GPIO_InitStruct);
 1882              		.loc 1 1296 5 is_stmt 1 view .LVU610
1296:HAL_Lib/STM32H7xx_HAL_Driver/Src/stm32h7xx_hal_rcc.c ****     HAL_GPIO_Init(MCO2_GPIO_PORT, &GPIO_InitStruct);
 1883              		.loc 1 1296 31 is_stmt 0 view .LVU611
 1884 007c 0793     		str	r3, [sp, #28]
1297:HAL_Lib/STM32H7xx_HAL_Driver/Src/stm32h7xx_hal_rcc.c **** 
 1885              		.loc 1 1297 5 is_stmt 1 view .LVU612
 1886 007e 03A9     		add	r1, sp, #12
 1887              	.LVL150:
1297:HAL_Lib/STM32H7xx_HAL_Driver/Src/stm32h7xx_hal_rcc.c **** 
 1888              		.loc 1 1297 5 is_stmt 0 view .LVU613
 1889 0080 0748     		ldr	r0, .L173+8
ARM GAS  C:\Users\huav\AppData\Local\Temp\ccAjt8Jj.s 			page 62


 1890              	.LVL151:
1297:HAL_Lib/STM32H7xx_HAL_Driver/Src/stm32h7xx_hal_rcc.c **** 
 1891              		.loc 1 1297 5 view .LVU614
 1892 0082 FFF7FEFF 		bl	HAL_GPIO_Init
 1893              	.LVL152:
1300:HAL_Lib/STM32H7xx_HAL_Driver/Src/stm32h7xx_hal_rcc.c ****   }
 1894              		.loc 1 1300 5 is_stmt 1 view .LVU615
 1895 0086 3369     		ldr	r3, [r6, #16]
 1896 0088 23F07E43 		bic	r3, r3, #-33554432
 1897 008c 44EAC514 		orr	r4, r4, r5, lsl #7
 1898              	.LVL153:
1300:HAL_Lib/STM32H7xx_HAL_Driver/Src/stm32h7xx_hal_rcc.c ****   }
 1899              		.loc 1 1300 5 is_stmt 0 view .LVU616
 1900 0090 1C43     		orrs	r4, r4, r3
 1901 0092 3461     		str	r4, [r6, #16]
 1902              		.loc 1 1302 1 view .LVU617
 1903 0094 DAE7     		b	.L169
 1904              	.L174:
 1905 0096 00BF     		.align	2
 1906              	.L173:
 1907 0098 00440258 		.word	1476543488
 1908 009c 00000258 		.word	1476526080
 1909 00a0 00080258 		.word	1476528128
 1910              		.cfi_endproc
 1911              	.LFE147:
 1913              		.section	.text.HAL_RCC_EnableCSS,"ax",%progbits
 1914              		.align	1
 1915              		.global	HAL_RCC_EnableCSS
 1916              		.syntax unified
 1917              		.thumb
 1918              		.thumb_func
 1919              		.fpu fpv5-d16
 1921              	HAL_RCC_EnableCSS:
 1922              	.LFB148:
1303:HAL_Lib/STM32H7xx_HAL_Driver/Src/stm32h7xx_hal_rcc.c **** 
1304:HAL_Lib/STM32H7xx_HAL_Driver/Src/stm32h7xx_hal_rcc.c **** /**
1305:HAL_Lib/STM32H7xx_HAL_Driver/Src/stm32h7xx_hal_rcc.c ****  * @brief  Enables the Clock Security System.
1306:HAL_Lib/STM32H7xx_HAL_Driver/Src/stm32h7xx_hal_rcc.c ****  * @note   If a failure is detected on the HSE oscillator clock, this oscillator
1307:HAL_Lib/STM32H7xx_HAL_Driver/Src/stm32h7xx_hal_rcc.c ****  *         is automatically disabled and an interrupt is generated to inform the
1308:HAL_Lib/STM32H7xx_HAL_Driver/Src/stm32h7xx_hal_rcc.c ****  *         software about the failure (Clock Security System Interrupt, CSSI),
1309:HAL_Lib/STM32H7xx_HAL_Driver/Src/stm32h7xx_hal_rcc.c ****  *         allowing the MCU to perform rescue operations. The CSSI is linked to
1310:HAL_Lib/STM32H7xx_HAL_Driver/Src/stm32h7xx_hal_rcc.c ****  *         the Cortex-M NMI (Non-Mask-able Interrupt) exception vector.
1311:HAL_Lib/STM32H7xx_HAL_Driver/Src/stm32h7xx_hal_rcc.c ****  * @retval None
1312:HAL_Lib/STM32H7xx_HAL_Driver/Src/stm32h7xx_hal_rcc.c ****  */
1313:HAL_Lib/STM32H7xx_HAL_Driver/Src/stm32h7xx_hal_rcc.c **** void HAL_RCC_EnableCSS(void)
1314:HAL_Lib/STM32H7xx_HAL_Driver/Src/stm32h7xx_hal_rcc.c **** {
 1923              		.loc 1 1314 1 is_stmt 1 view -0
 1924              		.cfi_startproc
 1925              		@ args = 0, pretend = 0, frame = 0
 1926              		@ frame_needed = 0, uses_anonymous_args = 0
 1927              		@ link register save eliminated.
1315:HAL_Lib/STM32H7xx_HAL_Driver/Src/stm32h7xx_hal_rcc.c ****   SET_BIT(RCC->CR, RCC_CR_CSSHSEON);
 1928              		.loc 1 1315 3 view .LVU619
 1929 0000 024A     		ldr	r2, .L176
 1930 0002 1368     		ldr	r3, [r2]
 1931 0004 43F40023 		orr	r3, r3, #524288
 1932 0008 1360     		str	r3, [r2]
ARM GAS  C:\Users\huav\AppData\Local\Temp\ccAjt8Jj.s 			page 63


1316:HAL_Lib/STM32H7xx_HAL_Driver/Src/stm32h7xx_hal_rcc.c **** }
 1933              		.loc 1 1316 1 is_stmt 0 view .LVU620
 1934 000a 7047     		bx	lr
 1935              	.L177:
 1936              		.align	2
 1937              	.L176:
 1938 000c 00440258 		.word	1476543488
 1939              		.cfi_endproc
 1940              	.LFE148:
 1942              		.section	.text.HAL_RCC_DisableCSS,"ax",%progbits
 1943              		.align	1
 1944              		.global	HAL_RCC_DisableCSS
 1945              		.syntax unified
 1946              		.thumb
 1947              		.thumb_func
 1948              		.fpu fpv5-d16
 1950              	HAL_RCC_DisableCSS:
 1951              	.LFB149:
1317:HAL_Lib/STM32H7xx_HAL_Driver/Src/stm32h7xx_hal_rcc.c **** 
1318:HAL_Lib/STM32H7xx_HAL_Driver/Src/stm32h7xx_hal_rcc.c **** /**
1319:HAL_Lib/STM32H7xx_HAL_Driver/Src/stm32h7xx_hal_rcc.c ****  * @brief  Disables the Clock Security System.
1320:HAL_Lib/STM32H7xx_HAL_Driver/Src/stm32h7xx_hal_rcc.c ****  * @retval None
1321:HAL_Lib/STM32H7xx_HAL_Driver/Src/stm32h7xx_hal_rcc.c ****  */
1322:HAL_Lib/STM32H7xx_HAL_Driver/Src/stm32h7xx_hal_rcc.c **** void HAL_RCC_DisableCSS(void)
1323:HAL_Lib/STM32H7xx_HAL_Driver/Src/stm32h7xx_hal_rcc.c **** {
 1952              		.loc 1 1323 1 is_stmt 1 view -0
 1953              		.cfi_startproc
 1954              		@ args = 0, pretend = 0, frame = 0
 1955              		@ frame_needed = 0, uses_anonymous_args = 0
 1956              		@ link register save eliminated.
1324:HAL_Lib/STM32H7xx_HAL_Driver/Src/stm32h7xx_hal_rcc.c ****   CLEAR_BIT(RCC->CR, RCC_CR_CSSHSEON);
 1957              		.loc 1 1324 3 view .LVU622
 1958 0000 024A     		ldr	r2, .L179
 1959 0002 1368     		ldr	r3, [r2]
 1960 0004 23F40023 		bic	r3, r3, #524288
 1961 0008 1360     		str	r3, [r2]
1325:HAL_Lib/STM32H7xx_HAL_Driver/Src/stm32h7xx_hal_rcc.c **** }
 1962              		.loc 1 1325 1 is_stmt 0 view .LVU623
 1963 000a 7047     		bx	lr
 1964              	.L180:
 1965              		.align	2
 1966              	.L179:
 1967 000c 00440258 		.word	1476543488
 1968              		.cfi_endproc
 1969              	.LFE149:
 1971              		.section	.text.HAL_RCC_GetSysClockFreq,"ax",%progbits
 1972              		.align	1
 1973              		.global	HAL_RCC_GetSysClockFreq
 1974              		.syntax unified
 1975              		.thumb
 1976              		.thumb_func
 1977              		.fpu fpv5-d16
 1979              	HAL_RCC_GetSysClockFreq:
 1980              	.LFB150:
1326:HAL_Lib/STM32H7xx_HAL_Driver/Src/stm32h7xx_hal_rcc.c **** 
1327:HAL_Lib/STM32H7xx_HAL_Driver/Src/stm32h7xx_hal_rcc.c **** /**
1328:HAL_Lib/STM32H7xx_HAL_Driver/Src/stm32h7xx_hal_rcc.c ****  * @brief  Returns the SYSCLK frequency
ARM GAS  C:\Users\huav\AppData\Local\Temp\ccAjt8Jj.s 			page 64


1329:HAL_Lib/STM32H7xx_HAL_Driver/Src/stm32h7xx_hal_rcc.c ****  *
1330:HAL_Lib/STM32H7xx_HAL_Driver/Src/stm32h7xx_hal_rcc.c ****  * @note   The system frequency computed by this function is not the real
1331:HAL_Lib/STM32H7xx_HAL_Driver/Src/stm32h7xx_hal_rcc.c ****  *         frequency in the chip. It is calculated based on the predefined
1332:HAL_Lib/STM32H7xx_HAL_Driver/Src/stm32h7xx_hal_rcc.c ****  *         constant and the selected clock source:
1333:HAL_Lib/STM32H7xx_HAL_Driver/Src/stm32h7xx_hal_rcc.c ****  * @note     If SYSCLK source is CSI, function returns values based on CSI_VALUE(*)
1334:HAL_Lib/STM32H7xx_HAL_Driver/Src/stm32h7xx_hal_rcc.c ****  * @note     If SYSCLK source is HSI, function returns values based on HSI_VALUE(**)
1335:HAL_Lib/STM32H7xx_HAL_Driver/Src/stm32h7xx_hal_rcc.c ****  * @note     If SYSCLK source is HSE, function returns values based on HSE_VALUE(***)
1336:HAL_Lib/STM32H7xx_HAL_Driver/Src/stm32h7xx_hal_rcc.c ****  * @note     If SYSCLK source is PLL, function returns values based on CSI_VALUE(*),
1337:HAL_Lib/STM32H7xx_HAL_Driver/Src/stm32h7xx_hal_rcc.c ****  *           HSI_VALUE(**) or HSE_VALUE(***) multiplied/divided by the PLL factors.
1338:HAL_Lib/STM32H7xx_HAL_Driver/Src/stm32h7xx_hal_rcc.c ****  * @note     (*) CSI_VALUE is a constant defined in stm32h7xx_hal_conf.h file (default value
1339:HAL_Lib/STM32H7xx_HAL_Driver/Src/stm32h7xx_hal_rcc.c ****  *               4 MHz) but the real value may vary depending on the variations
1340:HAL_Lib/STM32H7xx_HAL_Driver/Src/stm32h7xx_hal_rcc.c ****  *               in voltage and temperature.
1341:HAL_Lib/STM32H7xx_HAL_Driver/Src/stm32h7xx_hal_rcc.c ****  * @note     (**) HSI_VALUE is a constant defined in stm32h7xx_hal_conf.h file (default value
1342:HAL_Lib/STM32H7xx_HAL_Driver/Src/stm32h7xx_hal_rcc.c ****  *               64 MHz) but the real value may vary depending on the variations
1343:HAL_Lib/STM32H7xx_HAL_Driver/Src/stm32h7xx_hal_rcc.c ****  *               in voltage and temperature.
1344:HAL_Lib/STM32H7xx_HAL_Driver/Src/stm32h7xx_hal_rcc.c ****  * @note     (***) HSE_VALUE is a constant defined in stm32h7xx_hal_conf.h file (default value
1345:HAL_Lib/STM32H7xx_HAL_Driver/Src/stm32h7xx_hal_rcc.c ****  *                25 MHz), user has to ensure that HSE_VALUE is same as the real
1346:HAL_Lib/STM32H7xx_HAL_Driver/Src/stm32h7xx_hal_rcc.c ****  *                frequency of the crystal used. Otherwise, this function may
1347:HAL_Lib/STM32H7xx_HAL_Driver/Src/stm32h7xx_hal_rcc.c ****  *                have wrong result.
1348:HAL_Lib/STM32H7xx_HAL_Driver/Src/stm32h7xx_hal_rcc.c ****  *
1349:HAL_Lib/STM32H7xx_HAL_Driver/Src/stm32h7xx_hal_rcc.c ****  * @note   The result of this function could be not correct when using fractional
1350:HAL_Lib/STM32H7xx_HAL_Driver/Src/stm32h7xx_hal_rcc.c ****  *         value for HSE crystal.
1351:HAL_Lib/STM32H7xx_HAL_Driver/Src/stm32h7xx_hal_rcc.c ****  *
1352:HAL_Lib/STM32H7xx_HAL_Driver/Src/stm32h7xx_hal_rcc.c ****  * @note   This function can be used by the user application to compute the
1353:HAL_Lib/STM32H7xx_HAL_Driver/Src/stm32h7xx_hal_rcc.c ****  *         baud rate for the communication peripherals or configure other parameters.
1354:HAL_Lib/STM32H7xx_HAL_Driver/Src/stm32h7xx_hal_rcc.c ****  *
1355:HAL_Lib/STM32H7xx_HAL_Driver/Src/stm32h7xx_hal_rcc.c ****  * @note   Each time SYSCLK changes, this function must be called to update the
1356:HAL_Lib/STM32H7xx_HAL_Driver/Src/stm32h7xx_hal_rcc.c ****  *         right SYSCLK value. Otherwise, any configuration based on this function will be incorrec
1357:HAL_Lib/STM32H7xx_HAL_Driver/Src/stm32h7xx_hal_rcc.c ****  *
1358:HAL_Lib/STM32H7xx_HAL_Driver/Src/stm32h7xx_hal_rcc.c ****  *
1359:HAL_Lib/STM32H7xx_HAL_Driver/Src/stm32h7xx_hal_rcc.c ****  * @retval SYSCLK frequency
1360:HAL_Lib/STM32H7xx_HAL_Driver/Src/stm32h7xx_hal_rcc.c ****  */
1361:HAL_Lib/STM32H7xx_HAL_Driver/Src/stm32h7xx_hal_rcc.c **** uint32_t HAL_RCC_GetSysClockFreq(void)
1362:HAL_Lib/STM32H7xx_HAL_Driver/Src/stm32h7xx_hal_rcc.c **** {
 1981              		.loc 1 1362 1 is_stmt 1 view -0
 1982              		.cfi_startproc
 1983              		@ args = 0, pretend = 0, frame = 0
 1984              		@ frame_needed = 0, uses_anonymous_args = 0
 1985              		@ link register save eliminated.
1363:HAL_Lib/STM32H7xx_HAL_Driver/Src/stm32h7xx_hal_rcc.c ****   uint32_t pllp, pllsource, pllm, pllfracen, hsivalue;
 1986              		.loc 1 1363 3 view .LVU625
1364:HAL_Lib/STM32H7xx_HAL_Driver/Src/stm32h7xx_hal_rcc.c ****   float_t fracn1, pllvco;
 1987              		.loc 1 1364 3 view .LVU626
1365:HAL_Lib/STM32H7xx_HAL_Driver/Src/stm32h7xx_hal_rcc.c ****   uint32_t sysclockfreq;
 1988              		.loc 1 1365 3 view .LVU627
1366:HAL_Lib/STM32H7xx_HAL_Driver/Src/stm32h7xx_hal_rcc.c **** 
1367:HAL_Lib/STM32H7xx_HAL_Driver/Src/stm32h7xx_hal_rcc.c ****   /* Get SYSCLK source -------------------------------------------------------*/
1368:HAL_Lib/STM32H7xx_HAL_Driver/Src/stm32h7xx_hal_rcc.c **** 
1369:HAL_Lib/STM32H7xx_HAL_Driver/Src/stm32h7xx_hal_rcc.c ****   switch (RCC->CFGR & RCC_CFGR_SWS)
 1989              		.loc 1 1369 3 view .LVU628
 1990              		.loc 1 1369 14 is_stmt 0 view .LVU629
 1991 0000 744B     		ldr	r3, .L197
 1992 0002 1B69     		ldr	r3, [r3, #16]
 1993              		.loc 1 1369 21 view .LVU630
 1994 0004 03F03803 		and	r3, r3, #56
 1995              		.loc 1 1369 3 view .LVU631
 1996 0008 102B     		cmp	r3, #16
ARM GAS  C:\Users\huav\AppData\Local\Temp\ccAjt8Jj.s 			page 65


 1997 000a 00F0DE80 		beq	.L189
 1998 000e 182B     		cmp	r3, #24
 1999 0010 10D0     		beq	.L183
 2000 0012 0BB1     		cbz	r3, .L195
 2001 0014 7048     		ldr	r0, .L197+4
 2002 0016 7047     		bx	lr
 2003              	.L195:
1370:HAL_Lib/STM32H7xx_HAL_Driver/Src/stm32h7xx_hal_rcc.c ****   {
1371:HAL_Lib/STM32H7xx_HAL_Driver/Src/stm32h7xx_hal_rcc.c ****   case RCC_CFGR_SWS_HSI: /* HSI used as system clock source */
1372:HAL_Lib/STM32H7xx_HAL_Driver/Src/stm32h7xx_hal_rcc.c **** 
1373:HAL_Lib/STM32H7xx_HAL_Driver/Src/stm32h7xx_hal_rcc.c ****     if (__HAL_RCC_GET_FLAG(RCC_FLAG_HSIDIV) != 0U)
 2004              		.loc 1 1373 5 is_stmt 1 view .LVU632
 2005              		.loc 1 1373 9 is_stmt 0 view .LVU633
 2006 0018 6E4B     		ldr	r3, .L197
 2007 001a 1B68     		ldr	r3, [r3]
 2008              		.loc 1 1373 8 view .LVU634
 2009 001c 13F0200F 		tst	r3, #32
 2010 0020 00F0D580 		beq	.L191
1374:HAL_Lib/STM32H7xx_HAL_Driver/Src/stm32h7xx_hal_rcc.c ****     {
1375:HAL_Lib/STM32H7xx_HAL_Driver/Src/stm32h7xx_hal_rcc.c ****       sysclockfreq = (uint32_t)(HSI_VALUE >> (__HAL_RCC_GET_HSI_DIVIDER() >> 3));
 2011              		.loc 1 1375 7 is_stmt 1 view .LVU635
 2012              		.loc 1 1375 47 is_stmt 0 view .LVU636
 2013 0024 6B4B     		ldr	r3, .L197
 2014 0026 1868     		ldr	r0, [r3]
 2015              		.loc 1 1375 75 view .LVU637
 2016 0028 C0F3C100 		ubfx	r0, r0, #3, #2
 2017              		.loc 1 1375 20 view .LVU638
 2018 002c 6B4B     		ldr	r3, .L197+8
 2019 002e 23FA00F0 		lsr	r0, r3, r0
 2020              	.LVL154:
 2021              		.loc 1 1375 20 view .LVU639
 2022 0032 7047     		bx	lr
 2023              	.LVL155:
 2024              	.L183:
1362:HAL_Lib/STM32H7xx_HAL_Driver/Src/stm32h7xx_hal_rcc.c ****   uint32_t pllp, pllsource, pllm, pllfracen, hsivalue;
 2025              		.loc 1 1362 1 view .LVU640
 2026 0034 10B4     		push	{r4}
 2027              	.LCFI8:
 2028              		.cfi_def_cfa_offset 4
 2029              		.cfi_offset 4, -4
1376:HAL_Lib/STM32H7xx_HAL_Driver/Src/stm32h7xx_hal_rcc.c ****     }
1377:HAL_Lib/STM32H7xx_HAL_Driver/Src/stm32h7xx_hal_rcc.c ****     else
1378:HAL_Lib/STM32H7xx_HAL_Driver/Src/stm32h7xx_hal_rcc.c ****     {
1379:HAL_Lib/STM32H7xx_HAL_Driver/Src/stm32h7xx_hal_rcc.c ****       sysclockfreq = (uint32_t)HSI_VALUE;
1380:HAL_Lib/STM32H7xx_HAL_Driver/Src/stm32h7xx_hal_rcc.c ****     }
1381:HAL_Lib/STM32H7xx_HAL_Driver/Src/stm32h7xx_hal_rcc.c **** 
1382:HAL_Lib/STM32H7xx_HAL_Driver/Src/stm32h7xx_hal_rcc.c ****     break;
1383:HAL_Lib/STM32H7xx_HAL_Driver/Src/stm32h7xx_hal_rcc.c **** 
1384:HAL_Lib/STM32H7xx_HAL_Driver/Src/stm32h7xx_hal_rcc.c ****   case RCC_CFGR_SWS_CSI: /* CSI used as system clock  source */
1385:HAL_Lib/STM32H7xx_HAL_Driver/Src/stm32h7xx_hal_rcc.c ****     sysclockfreq = CSI_VALUE;
1386:HAL_Lib/STM32H7xx_HAL_Driver/Src/stm32h7xx_hal_rcc.c ****     break;
1387:HAL_Lib/STM32H7xx_HAL_Driver/Src/stm32h7xx_hal_rcc.c **** 
1388:HAL_Lib/STM32H7xx_HAL_Driver/Src/stm32h7xx_hal_rcc.c ****   case RCC_CFGR_SWS_HSE: /* HSE used as system clock  source */
1389:HAL_Lib/STM32H7xx_HAL_Driver/Src/stm32h7xx_hal_rcc.c ****     sysclockfreq = HSE_VALUE;
1390:HAL_Lib/STM32H7xx_HAL_Driver/Src/stm32h7xx_hal_rcc.c ****     break;
1391:HAL_Lib/STM32H7xx_HAL_Driver/Src/stm32h7xx_hal_rcc.c **** 
1392:HAL_Lib/STM32H7xx_HAL_Driver/Src/stm32h7xx_hal_rcc.c ****   case RCC_CFGR_SWS_PLL1: /* PLL1 used as system clock  source */
ARM GAS  C:\Users\huav\AppData\Local\Temp\ccAjt8Jj.s 			page 66


1393:HAL_Lib/STM32H7xx_HAL_Driver/Src/stm32h7xx_hal_rcc.c **** 
1394:HAL_Lib/STM32H7xx_HAL_Driver/Src/stm32h7xx_hal_rcc.c ****     /* PLL_VCO = (HSE_VALUE or HSI_VALUE or CSI_VALUE/ PLLM) * PLLN
1395:HAL_Lib/STM32H7xx_HAL_Driver/Src/stm32h7xx_hal_rcc.c ****     SYSCLK = PLL_VCO / PLLR
1396:HAL_Lib/STM32H7xx_HAL_Driver/Src/stm32h7xx_hal_rcc.c ****     */
1397:HAL_Lib/STM32H7xx_HAL_Driver/Src/stm32h7xx_hal_rcc.c ****     pllsource = (RCC->PLLCKSELR & RCC_PLLCKSELR_PLLSRC);
 2030              		.loc 1 1397 5 is_stmt 1 view .LVU641
 2031              		.loc 1 1397 21 is_stmt 0 view .LVU642
 2032 0036 674A     		ldr	r2, .L197
 2033 0038 916A     		ldr	r1, [r2, #40]
 2034              		.loc 1 1397 15 view .LVU643
 2035 003a 01F00301 		and	r1, r1, #3
 2036              	.LVL156:
1398:HAL_Lib/STM32H7xx_HAL_Driver/Src/stm32h7xx_hal_rcc.c ****     pllm = ((RCC->PLLCKSELR & RCC_PLLCKSELR_DIVM1) >> 4);
 2037              		.loc 1 1398 5 is_stmt 1 view .LVU644
 2038              		.loc 1 1398 17 is_stmt 0 view .LVU645
 2039 003e 946A     		ldr	r4, [r2, #40]
 2040              		.loc 1 1398 10 view .LVU646
 2041 0040 C4F30510 		ubfx	r0, r4, #4, #6
 2042              	.LVL157:
1399:HAL_Lib/STM32H7xx_HAL_Driver/Src/stm32h7xx_hal_rcc.c ****     pllfracen = ((RCC->PLLCFGR & RCC_PLLCFGR_PLL1FRACEN) >> RCC_PLLCFGR_PLL1FRACEN_Pos);
 2043              		.loc 1 1399 5 is_stmt 1 view .LVU647
 2044              		.loc 1 1399 22 is_stmt 0 view .LVU648
 2045 0044 D36A     		ldr	r3, [r2, #44]
 2046              		.loc 1 1399 15 view .LVU649
 2047 0046 03F0010C 		and	ip, r3, #1
 2048              	.LVL158:
1400:HAL_Lib/STM32H7xx_HAL_Driver/Src/stm32h7xx_hal_rcc.c ****     fracn1 = (float_t)(uint32_t)(pllfracen * ((RCC->PLL1FRACR & RCC_PLL1FRACR_FRACN1) >> 3));
 2049              		.loc 1 1400 5 is_stmt 1 view .LVU650
 2050              		.loc 1 1400 51 is_stmt 0 view .LVU651
 2051 004a 536B     		ldr	r3, [r2, #52]
 2052              		.loc 1 1400 87 view .LVU652
 2053 004c C3F3CC03 		ubfx	r3, r3, #3, #13
 2054              		.loc 1 1400 23 view .LVU653
 2055 0050 0CFB03F3 		mul	r3, ip, r3
 2056              		.loc 1 1400 12 view .LVU654
 2057 0054 07EE903A 		vmov	s15, r3	@ int
 2058 0058 F8EE677A 		vcvt.f32.u32	s15, s15
 2059              	.LVL159:
1401:HAL_Lib/STM32H7xx_HAL_Driver/Src/stm32h7xx_hal_rcc.c **** 
1402:HAL_Lib/STM32H7xx_HAL_Driver/Src/stm32h7xx_hal_rcc.c ****     if (pllm != 0U)
 2060              		.loc 1 1402 5 is_stmt 1 view .LVU655
 2061              		.loc 1 1402 8 is_stmt 0 view .LVU656
 2062 005c 14F47C7F 		tst	r4, #1008
 2063 0060 00F09380 		beq	.L181
1403:HAL_Lib/STM32H7xx_HAL_Driver/Src/stm32h7xx_hal_rcc.c ****     {
1404:HAL_Lib/STM32H7xx_HAL_Driver/Src/stm32h7xx_hal_rcc.c ****       switch (pllsource)
 2064              		.loc 1 1404 7 is_stmt 1 view .LVU657
 2065 0064 0129     		cmp	r1, #1
 2066 0066 65D0     		beq	.L184
 2067 0068 0229     		cmp	r1, #2
 2068 006a 00F09180 		beq	.L185
 2069 006e E1B1     		cbz	r1, .L196
1405:HAL_Lib/STM32H7xx_HAL_Driver/Src/stm32h7xx_hal_rcc.c ****       {
