ARM GAS  /var/folders/8_/_8bzxkcs1296m80nzxdrn9q80000gn/T//cct2bcP8.s 			page 1


   1              		.cpu cortex-m7
   2              		.eabi_attribute 28, 1
   3              		.eabi_attribute 20, 1
   4              		.eabi_attribute 21, 1
   5              		.eabi_attribute 23, 3
   6              		.eabi_attribute 24, 1
   7              		.eabi_attribute 25, 1
   8              		.eabi_attribute 26, 1
   9              		.eabi_attribute 30, 1
  10              		.eabi_attribute 34, 1
  11              		.eabi_attribute 18, 4
  12              		.file	"stm32h7xx_hal_pwr.c"
  13              		.text
  14              	.Ltext0:
  15              		.cfi_sections	.debug_frame
  16              		.section	.text.HAL_PWR_DeInit,"ax",%progbits
  17              		.align	1
  18              		.global	HAL_PWR_DeInit
  19              		.arch armv7e-m
  20              		.syntax unified
  21              		.thumb
  22              		.thumb_func
  23              		.fpu fpv5-d16
  25              	HAL_PWR_DeInit:
  26              	.LFB144:
  27              		.file 1 "HAL_Lib/STM32H7xx_HAL_Driver/Src/stm32h7xx_hal_pwr.c"
   1:HAL_Lib/STM32H7xx_HAL_Driver/Src/stm32h7xx_hal_pwr.c **** /**
   2:HAL_Lib/STM32H7xx_HAL_Driver/Src/stm32h7xx_hal_pwr.c ****   ******************************************************************************
   3:HAL_Lib/STM32H7xx_HAL_Driver/Src/stm32h7xx_hal_pwr.c ****   * @file    stm32h7xx_hal_pwr.c
   4:HAL_Lib/STM32H7xx_HAL_Driver/Src/stm32h7xx_hal_pwr.c ****   * @author  MCD Application Team
   5:HAL_Lib/STM32H7xx_HAL_Driver/Src/stm32h7xx_hal_pwr.c ****   * @brief   PWR HAL module driver.
   6:HAL_Lib/STM32H7xx_HAL_Driver/Src/stm32h7xx_hal_pwr.c ****   *          This file provides firmware functions to manage the following
   7:HAL_Lib/STM32H7xx_HAL_Driver/Src/stm32h7xx_hal_pwr.c ****   *          functionalities of the Power Controller (PWR) peripheral:
   8:HAL_Lib/STM32H7xx_HAL_Driver/Src/stm32h7xx_hal_pwr.c ****   *           + Initialization and de-initialization functions.
   9:HAL_Lib/STM32H7xx_HAL_Driver/Src/stm32h7xx_hal_pwr.c ****   *           + Peripheral Control functions.
  10:HAL_Lib/STM32H7xx_HAL_Driver/Src/stm32h7xx_hal_pwr.c ****   *           + Interrupt Handling functions.
  11:HAL_Lib/STM32H7xx_HAL_Driver/Src/stm32h7xx_hal_pwr.c ****   ******************************************************************************
  12:HAL_Lib/STM32H7xx_HAL_Driver/Src/stm32h7xx_hal_pwr.c ****   * @attention
  13:HAL_Lib/STM32H7xx_HAL_Driver/Src/stm32h7xx_hal_pwr.c ****   *
  14:HAL_Lib/STM32H7xx_HAL_Driver/Src/stm32h7xx_hal_pwr.c ****   * Copyright (c) 2017 STMicroelectronics.
  15:HAL_Lib/STM32H7xx_HAL_Driver/Src/stm32h7xx_hal_pwr.c ****   * All rights reserved.
  16:HAL_Lib/STM32H7xx_HAL_Driver/Src/stm32h7xx_hal_pwr.c ****   *
  17:HAL_Lib/STM32H7xx_HAL_Driver/Src/stm32h7xx_hal_pwr.c ****   * This software is licensed under terms that can be found in the LICENSE file
  18:HAL_Lib/STM32H7xx_HAL_Driver/Src/stm32h7xx_hal_pwr.c ****   * in the root directory of this software component.
  19:HAL_Lib/STM32H7xx_HAL_Driver/Src/stm32h7xx_hal_pwr.c ****   * If no LICENSE file comes with this software, it is provided AS-IS.
  20:HAL_Lib/STM32H7xx_HAL_Driver/Src/stm32h7xx_hal_pwr.c ****   *
  21:HAL_Lib/STM32H7xx_HAL_Driver/Src/stm32h7xx_hal_pwr.c ****   ******************************************************************************
  22:HAL_Lib/STM32H7xx_HAL_Driver/Src/stm32h7xx_hal_pwr.c ****   @verbatim
  23:HAL_Lib/STM32H7xx_HAL_Driver/Src/stm32h7xx_hal_pwr.c ****   ==============================================================================
  24:HAL_Lib/STM32H7xx_HAL_Driver/Src/stm32h7xx_hal_pwr.c ****                         ##### PWR peripheral overview #####
  25:HAL_Lib/STM32H7xx_HAL_Driver/Src/stm32h7xx_hal_pwr.c ****   ==============================================================================
  26:HAL_Lib/STM32H7xx_HAL_Driver/Src/stm32h7xx_hal_pwr.c ****   [..]
  27:HAL_Lib/STM32H7xx_HAL_Driver/Src/stm32h7xx_hal_pwr.c ****    (#) The Power control (PWR) provides an overview of the supply architecture
  28:HAL_Lib/STM32H7xx_HAL_Driver/Src/stm32h7xx_hal_pwr.c ****        for the different power domains and of the supply configuration
  29:HAL_Lib/STM32H7xx_HAL_Driver/Src/stm32h7xx_hal_pwr.c ****        controller.
  30:HAL_Lib/STM32H7xx_HAL_Driver/Src/stm32h7xx_hal_pwr.c ****        In the H7 family, the number of power domains is different between
  31:HAL_Lib/STM32H7xx_HAL_Driver/Src/stm32h7xx_hal_pwr.c ****        device lines. This difference is due to characteristics of each device.
ARM GAS  /var/folders/8_/_8bzxkcs1296m80nzxdrn9q80000gn/T//cct2bcP8.s 			page 2


  32:HAL_Lib/STM32H7xx_HAL_Driver/Src/stm32h7xx_hal_pwr.c **** 
  33:HAL_Lib/STM32H7xx_HAL_Driver/Src/stm32h7xx_hal_pwr.c ****    (#) Domain architecture overview for the different H7 lines:
  34:HAL_Lib/STM32H7xx_HAL_Driver/Src/stm32h7xx_hal_pwr.c ****       (+) Dual core lines are STM32H745, STM32H747, STM32H755 and STM32H757.
  35:HAL_Lib/STM32H7xx_HAL_Driver/Src/stm32h7xx_hal_pwr.c ****           These devices have 3 power domains (D1, D2 and D3).
  36:HAL_Lib/STM32H7xx_HAL_Driver/Src/stm32h7xx_hal_pwr.c ****           The domain D1 contains a CPU (Cortex-M7), a Flash memory and some
  37:HAL_Lib/STM32H7xx_HAL_Driver/Src/stm32h7xx_hal_pwr.c ****           peripherals. The D2 domain contains peripherals and a CPU
  38:HAL_Lib/STM32H7xx_HAL_Driver/Src/stm32h7xx_hal_pwr.c ****           (Cortex-M4). The D3 domain contains the system control, I/O logic
  39:HAL_Lib/STM32H7xx_HAL_Driver/Src/stm32h7xx_hal_pwr.c ****           and low-power peripherals.
  40:HAL_Lib/STM32H7xx_HAL_Driver/Src/stm32h7xx_hal_pwr.c ****       (+) STM32H72x, STM32H73x, STM32H742, STM32H743, STM32H750 and STM32H753 
  41:HAL_Lib/STM32H7xx_HAL_Driver/Src/stm32h7xx_hal_pwr.c ****           devices have 3 power domains (D1, D2 and D3).
  42:HAL_Lib/STM32H7xx_HAL_Driver/Src/stm32h7xx_hal_pwr.c ****           The domain D1 contains a CPU (Cortex-M7), a Flash memory and some
  43:HAL_Lib/STM32H7xx_HAL_Driver/Src/stm32h7xx_hal_pwr.c ****           peripherals. The D2 domain contains peripherals. The D3 domains
  44:HAL_Lib/STM32H7xx_HAL_Driver/Src/stm32h7xx_hal_pwr.c ****           contains the system control, I/O logic and low-power peripherals.
  45:HAL_Lib/STM32H7xx_HAL_Driver/Src/stm32h7xx_hal_pwr.c ****       (+) STM32H7Axxx and STM32H7Bxxx devices have 2 power domains (CD and SRD).
  46:HAL_Lib/STM32H7xx_HAL_Driver/Src/stm32h7xx_hal_pwr.c ****           The core domain (CD) contains a CPU (Cortex-M7), a Flash
  47:HAL_Lib/STM32H7xx_HAL_Driver/Src/stm32h7xx_hal_pwr.c ****           memory and peripherals. The SmartRun domain contains the system
  48:HAL_Lib/STM32H7xx_HAL_Driver/Src/stm32h7xx_hal_pwr.c ****           control, I/O logic and low-power peripherals.
  49:HAL_Lib/STM32H7xx_HAL_Driver/Src/stm32h7xx_hal_pwr.c **** 
  50:HAL_Lib/STM32H7xx_HAL_Driver/Src/stm32h7xx_hal_pwr.c ****    (#) Every entity have low power mode as described below :
  51:HAL_Lib/STM32H7xx_HAL_Driver/Src/stm32h7xx_hal_pwr.c ****    (#) The CPU low power modes are :
  52:HAL_Lib/STM32H7xx_HAL_Driver/Src/stm32h7xx_hal_pwr.c ****       (+) CPU CRUN.
  53:HAL_Lib/STM32H7xx_HAL_Driver/Src/stm32h7xx_hal_pwr.c ****       (+) CPU CSLEEP.
  54:HAL_Lib/STM32H7xx_HAL_Driver/Src/stm32h7xx_hal_pwr.c ****       (+) CPU CSTOP.
  55:HAL_Lib/STM32H7xx_HAL_Driver/Src/stm32h7xx_hal_pwr.c ****    (#) The domain low power modes are :
  56:HAL_Lib/STM32H7xx_HAL_Driver/Src/stm32h7xx_hal_pwr.c ****       (+) DRUN.
  57:HAL_Lib/STM32H7xx_HAL_Driver/Src/stm32h7xx_hal_pwr.c ****       (+) DSTOP.
  58:HAL_Lib/STM32H7xx_HAL_Driver/Src/stm32h7xx_hal_pwr.c ****       (+) DSTANDBY.
  59:HAL_Lib/STM32H7xx_HAL_Driver/Src/stm32h7xx_hal_pwr.c ****    (#) The SYSTEM low power modes are :
  60:HAL_Lib/STM32H7xx_HAL_Driver/Src/stm32h7xx_hal_pwr.c ****       (+) RUN* : The Run* mode is entered after a POR reset and a wakeup from
  61:HAL_Lib/STM32H7xx_HAL_Driver/Src/stm32h7xx_hal_pwr.c ****                  Standby. In Run* mode, the performance is limited and the
  62:HAL_Lib/STM32H7xx_HAL_Driver/Src/stm32h7xx_hal_pwr.c ****                  system supply configuration shall be programmed. The system
  63:HAL_Lib/STM32H7xx_HAL_Driver/Src/stm32h7xx_hal_pwr.c ****                  enters Run mode only when the ACTVOSRDY bit in PWR control
  64:HAL_Lib/STM32H7xx_HAL_Driver/Src/stm32h7xx_hal_pwr.c ****                  status register 1 (PWR_CSR1) is set to 1.
  65:HAL_Lib/STM32H7xx_HAL_Driver/Src/stm32h7xx_hal_pwr.c ****       (+) RUN.
  66:HAL_Lib/STM32H7xx_HAL_Driver/Src/stm32h7xx_hal_pwr.c ****       (+) STOP.
  67:HAL_Lib/STM32H7xx_HAL_Driver/Src/stm32h7xx_hal_pwr.c ****       (+) STANDBY.
  68:HAL_Lib/STM32H7xx_HAL_Driver/Src/stm32h7xx_hal_pwr.c **** 
  69:HAL_Lib/STM32H7xx_HAL_Driver/Src/stm32h7xx_hal_pwr.c ****   ==============================================================================
  70:HAL_Lib/STM32H7xx_HAL_Driver/Src/stm32h7xx_hal_pwr.c ****                         ##### How to use this driver #####
  71:HAL_Lib/STM32H7xx_HAL_Driver/Src/stm32h7xx_hal_pwr.c ****   ==============================================================================
  72:HAL_Lib/STM32H7xx_HAL_Driver/Src/stm32h7xx_hal_pwr.c ****   [..]
  73:HAL_Lib/STM32H7xx_HAL_Driver/Src/stm32h7xx_hal_pwr.c ****    (#) Power management peripheral is active by default at startup level in
  74:HAL_Lib/STM32H7xx_HAL_Driver/Src/stm32h7xx_hal_pwr.c ****        STM32h7xx lines.
  75:HAL_Lib/STM32H7xx_HAL_Driver/Src/stm32h7xx_hal_pwr.c **** 
  76:HAL_Lib/STM32H7xx_HAL_Driver/Src/stm32h7xx_hal_pwr.c ****    (#) Call HAL_PWR_EnableBkUpAccess() and HAL_PWR_DisableBkUpAccess() functions
  77:HAL_Lib/STM32H7xx_HAL_Driver/Src/stm32h7xx_hal_pwr.c ****        to enable/disable access to the backup domain (RTC registers, RTC backup
  78:HAL_Lib/STM32H7xx_HAL_Driver/Src/stm32h7xx_hal_pwr.c ****        data registers and backup SRAM).
  79:HAL_Lib/STM32H7xx_HAL_Driver/Src/stm32h7xx_hal_pwr.c **** 
  80:HAL_Lib/STM32H7xx_HAL_Driver/Src/stm32h7xx_hal_pwr.c ****    (#) Call HAL_PWR_ConfigPVD() after setting parameters to be configured (event
  81:HAL_Lib/STM32H7xx_HAL_Driver/Src/stm32h7xx_hal_pwr.c ****        mode and voltage threshold) in order to set up the Power Voltage Detector,
  82:HAL_Lib/STM32H7xx_HAL_Driver/Src/stm32h7xx_hal_pwr.c ****        then use HAL_PWR_EnablePVD() and  HAL_PWR_DisablePVD() functions to start
  83:HAL_Lib/STM32H7xx_HAL_Driver/Src/stm32h7xx_hal_pwr.c ****        and stop the PVD detection.
  84:HAL_Lib/STM32H7xx_HAL_Driver/Src/stm32h7xx_hal_pwr.c ****        (+) PVD level could be one of the following values :
  85:HAL_Lib/STM32H7xx_HAL_Driver/Src/stm32h7xx_hal_pwr.c ****              (++) 1V95
  86:HAL_Lib/STM32H7xx_HAL_Driver/Src/stm32h7xx_hal_pwr.c ****              (++) 2V1
  87:HAL_Lib/STM32H7xx_HAL_Driver/Src/stm32h7xx_hal_pwr.c ****              (++) 2V25
  88:HAL_Lib/STM32H7xx_HAL_Driver/Src/stm32h7xx_hal_pwr.c ****              (++) 2V4
ARM GAS  /var/folders/8_/_8bzxkcs1296m80nzxdrn9q80000gn/T//cct2bcP8.s 			page 3


  89:HAL_Lib/STM32H7xx_HAL_Driver/Src/stm32h7xx_hal_pwr.c ****              (++) 2V55
  90:HAL_Lib/STM32H7xx_HAL_Driver/Src/stm32h7xx_hal_pwr.c ****              (++) 2V7
  91:HAL_Lib/STM32H7xx_HAL_Driver/Src/stm32h7xx_hal_pwr.c ****              (++) 2V85
  92:HAL_Lib/STM32H7xx_HAL_Driver/Src/stm32h7xx_hal_pwr.c ****              (++) External voltage level
  93:HAL_Lib/STM32H7xx_HAL_Driver/Src/stm32h7xx_hal_pwr.c **** 
  94:HAL_Lib/STM32H7xx_HAL_Driver/Src/stm32h7xx_hal_pwr.c ****    (#) Call HAL_PWR_EnableWakeUpPin() and HAL_PWR_DisableWakeUpPin() functions
  95:HAL_Lib/STM32H7xx_HAL_Driver/Src/stm32h7xx_hal_pwr.c ****        with the right parameter to configure the wake up pin polarity (Low or
  96:HAL_Lib/STM32H7xx_HAL_Driver/Src/stm32h7xx_hal_pwr.c ****        High) and to enable and disable it.
  97:HAL_Lib/STM32H7xx_HAL_Driver/Src/stm32h7xx_hal_pwr.c **** 
  98:HAL_Lib/STM32H7xx_HAL_Driver/Src/stm32h7xx_hal_pwr.c ****    (#) Call HAL_PWR_EnterSLEEPMode() function to enter the current Core in SLEEP
  99:HAL_Lib/STM32H7xx_HAL_Driver/Src/stm32h7xx_hal_pwr.c ****        mode. Wake-up from SLEEP mode could be following to an event or an
 100:HAL_Lib/STM32H7xx_HAL_Driver/Src/stm32h7xx_hal_pwr.c ****        interrupt according to low power mode intrinsic request called (__WFI()
 101:HAL_Lib/STM32H7xx_HAL_Driver/Src/stm32h7xx_hal_pwr.c ****        or __WFE()).
 102:HAL_Lib/STM32H7xx_HAL_Driver/Src/stm32h7xx_hal_pwr.c ****        Please ensure to clear all CPU pending events by calling
 103:HAL_Lib/STM32H7xx_HAL_Driver/Src/stm32h7xx_hal_pwr.c ****        HAL_PWREx_ClearPendingEvent() function when trying to enter the Cortex-Mx
 104:HAL_Lib/STM32H7xx_HAL_Driver/Src/stm32h7xx_hal_pwr.c ****        in SLEEP mode with __WFE() entry.
 105:HAL_Lib/STM32H7xx_HAL_Driver/Src/stm32h7xx_hal_pwr.c **** 
 106:HAL_Lib/STM32H7xx_HAL_Driver/Src/stm32h7xx_hal_pwr.c ****    (#) Call HAL_PWR_EnterSTOPMode() function to enter the whole system to Stop 0
 107:HAL_Lib/STM32H7xx_HAL_Driver/Src/stm32h7xx_hal_pwr.c ****        mode for single core devices. For dual core devices, this API will enter
 108:HAL_Lib/STM32H7xx_HAL_Driver/Src/stm32h7xx_hal_pwr.c ****        the domain (containing Cortex-Mx that executing this function) in DSTOP
 109:HAL_Lib/STM32H7xx_HAL_Driver/Src/stm32h7xx_hal_pwr.c ****        mode. According to the used parameter, user could select the regulator to
 110:HAL_Lib/STM32H7xx_HAL_Driver/Src/stm32h7xx_hal_pwr.c ****        be kept actif in low power mode and wake-up event type.
 111:HAL_Lib/STM32H7xx_HAL_Driver/Src/stm32h7xx_hal_pwr.c ****        Please ensure to clear all CPU pending events by calling
 112:HAL_Lib/STM32H7xx_HAL_Driver/Src/stm32h7xx_hal_pwr.c ****        HAL_PWREx_ClearPendingEvent() function when trying to enter the Cortex-Mx
 113:HAL_Lib/STM32H7xx_HAL_Driver/Src/stm32h7xx_hal_pwr.c ****        in CSTOP mode with __WFE() entry.
 114:HAL_Lib/STM32H7xx_HAL_Driver/Src/stm32h7xx_hal_pwr.c **** 
 115:HAL_Lib/STM32H7xx_HAL_Driver/Src/stm32h7xx_hal_pwr.c ****    (#) Call HAL_PWR_EnterSTANDBYMode() function to enter the whole system in
 116:HAL_Lib/STM32H7xx_HAL_Driver/Src/stm32h7xx_hal_pwr.c ****        STANDBY mode for single core devices. For dual core devices, this API
 117:HAL_Lib/STM32H7xx_HAL_Driver/Src/stm32h7xx_hal_pwr.c ****        will enter the domain (containing Cortex-Mx that executing this function)
 118:HAL_Lib/STM32H7xx_HAL_Driver/Src/stm32h7xx_hal_pwr.c ****        in DSTANDBY mode.
 119:HAL_Lib/STM32H7xx_HAL_Driver/Src/stm32h7xx_hal_pwr.c **** 
 120:HAL_Lib/STM32H7xx_HAL_Driver/Src/stm32h7xx_hal_pwr.c ****    (#) Call HAL_PWR_EnableSleepOnExit() and HAL_PWR_DisableSleepOnExit() APIs to
 121:HAL_Lib/STM32H7xx_HAL_Driver/Src/stm32h7xx_hal_pwr.c ****        enable and disable the Cortex-Mx re-entring in SLEEP mode after an
 122:HAL_Lib/STM32H7xx_HAL_Driver/Src/stm32h7xx_hal_pwr.c ****        interruption handling is over.
 123:HAL_Lib/STM32H7xx_HAL_Driver/Src/stm32h7xx_hal_pwr.c **** 
 124:HAL_Lib/STM32H7xx_HAL_Driver/Src/stm32h7xx_hal_pwr.c ****    (#) Call HAL_PWR_EnableSEVOnPend() and HAL_PWR_DisableSEVOnPend() functions
 125:HAL_Lib/STM32H7xx_HAL_Driver/Src/stm32h7xx_hal_pwr.c ****        to configure the Cortex-Mx to wake-up after any pending event / interrupt
 126:HAL_Lib/STM32H7xx_HAL_Driver/Src/stm32h7xx_hal_pwr.c ****        even if it's disabled or has insufficient priority to cause exception
 127:HAL_Lib/STM32H7xx_HAL_Driver/Src/stm32h7xx_hal_pwr.c ****        entry.
 128:HAL_Lib/STM32H7xx_HAL_Driver/Src/stm32h7xx_hal_pwr.c **** 
 129:HAL_Lib/STM32H7xx_HAL_Driver/Src/stm32h7xx_hal_pwr.c ****    (#) Call HAL_PWR_PVD_IRQHandler() function to handle the PWR PVD interrupt
 130:HAL_Lib/STM32H7xx_HAL_Driver/Src/stm32h7xx_hal_pwr.c ****        request.
 131:HAL_Lib/STM32H7xx_HAL_Driver/Src/stm32h7xx_hal_pwr.c **** 
 132:HAL_Lib/STM32H7xx_HAL_Driver/Src/stm32h7xx_hal_pwr.c ****      *** PWR HAL driver macros list ***
 133:HAL_Lib/STM32H7xx_HAL_Driver/Src/stm32h7xx_hal_pwr.c ****      =============================================
 134:HAL_Lib/STM32H7xx_HAL_Driver/Src/stm32h7xx_hal_pwr.c ****      [..]
 135:HAL_Lib/STM32H7xx_HAL_Driver/Src/stm32h7xx_hal_pwr.c ****        Below the list of most used macros in PWR HAL driver.
 136:HAL_Lib/STM32H7xx_HAL_Driver/Src/stm32h7xx_hal_pwr.c **** 
 137:HAL_Lib/STM32H7xx_HAL_Driver/Src/stm32h7xx_hal_pwr.c ****       (+) __HAL_PWR_VOLTAGESCALING_CONFIG() : Configure the main internal
 138:HAL_Lib/STM32H7xx_HAL_Driver/Src/stm32h7xx_hal_pwr.c ****                                               regulator output voltage.
 139:HAL_Lib/STM32H7xx_HAL_Driver/Src/stm32h7xx_hal_pwr.c ****       (+) __HAL_PWR_GET_FLAG()              : Get the PWR pending flags.
 140:HAL_Lib/STM32H7xx_HAL_Driver/Src/stm32h7xx_hal_pwr.c ****       (+) __HAL_PWR_CLEAR_FLAG()            : Clear the PWR pending flags.
 141:HAL_Lib/STM32H7xx_HAL_Driver/Src/stm32h7xx_hal_pwr.c **** 
 142:HAL_Lib/STM32H7xx_HAL_Driver/Src/stm32h7xx_hal_pwr.c ****   @endverbatim
 143:HAL_Lib/STM32H7xx_HAL_Driver/Src/stm32h7xx_hal_pwr.c ****   */
 144:HAL_Lib/STM32H7xx_HAL_Driver/Src/stm32h7xx_hal_pwr.c **** 
 145:HAL_Lib/STM32H7xx_HAL_Driver/Src/stm32h7xx_hal_pwr.c **** /* Includes ------------------------------------------------------------------*/
ARM GAS  /var/folders/8_/_8bzxkcs1296m80nzxdrn9q80000gn/T//cct2bcP8.s 			page 4


 146:HAL_Lib/STM32H7xx_HAL_Driver/Src/stm32h7xx_hal_pwr.c **** #include "stm32h7xx_hal.h"
 147:HAL_Lib/STM32H7xx_HAL_Driver/Src/stm32h7xx_hal_pwr.c **** 
 148:HAL_Lib/STM32H7xx_HAL_Driver/Src/stm32h7xx_hal_pwr.c **** /** @addtogroup STM32H7xx_HAL_Driver
 149:HAL_Lib/STM32H7xx_HAL_Driver/Src/stm32h7xx_hal_pwr.c ****   * @{
 150:HAL_Lib/STM32H7xx_HAL_Driver/Src/stm32h7xx_hal_pwr.c ****   */
 151:HAL_Lib/STM32H7xx_HAL_Driver/Src/stm32h7xx_hal_pwr.c **** 
 152:HAL_Lib/STM32H7xx_HAL_Driver/Src/stm32h7xx_hal_pwr.c **** /** @defgroup PWR PWR
 153:HAL_Lib/STM32H7xx_HAL_Driver/Src/stm32h7xx_hal_pwr.c ****   * @brief PWR HAL module driver
 154:HAL_Lib/STM32H7xx_HAL_Driver/Src/stm32h7xx_hal_pwr.c ****   * @{
 155:HAL_Lib/STM32H7xx_HAL_Driver/Src/stm32h7xx_hal_pwr.c ****   */
 156:HAL_Lib/STM32H7xx_HAL_Driver/Src/stm32h7xx_hal_pwr.c **** 
 157:HAL_Lib/STM32H7xx_HAL_Driver/Src/stm32h7xx_hal_pwr.c **** #ifdef HAL_PWR_MODULE_ENABLED
 158:HAL_Lib/STM32H7xx_HAL_Driver/Src/stm32h7xx_hal_pwr.c **** 
 159:HAL_Lib/STM32H7xx_HAL_Driver/Src/stm32h7xx_hal_pwr.c **** /* Private typedef -----------------------------------------------------------*/
 160:HAL_Lib/STM32H7xx_HAL_Driver/Src/stm32h7xx_hal_pwr.c **** /* Private define ------------------------------------------------------------*/
 161:HAL_Lib/STM32H7xx_HAL_Driver/Src/stm32h7xx_hal_pwr.c **** 
 162:HAL_Lib/STM32H7xx_HAL_Driver/Src/stm32h7xx_hal_pwr.c **** /** @addtogroup PWR_Private_Constants PWR Private Constants
 163:HAL_Lib/STM32H7xx_HAL_Driver/Src/stm32h7xx_hal_pwr.c ****   * @{
 164:HAL_Lib/STM32H7xx_HAL_Driver/Src/stm32h7xx_hal_pwr.c ****   */
 165:HAL_Lib/STM32H7xx_HAL_Driver/Src/stm32h7xx_hal_pwr.c **** 
 166:HAL_Lib/STM32H7xx_HAL_Driver/Src/stm32h7xx_hal_pwr.c **** /** @defgroup PWR_PVD_Mode_Mask PWR PVD Mode Mask
 167:HAL_Lib/STM32H7xx_HAL_Driver/Src/stm32h7xx_hal_pwr.c ****   * @{
 168:HAL_Lib/STM32H7xx_HAL_Driver/Src/stm32h7xx_hal_pwr.c ****   */
 169:HAL_Lib/STM32H7xx_HAL_Driver/Src/stm32h7xx_hal_pwr.c **** #if !defined (DUAL_CORE)
 170:HAL_Lib/STM32H7xx_HAL_Driver/Src/stm32h7xx_hal_pwr.c **** #define PVD_MODE_IT              (0x00010000U)
 171:HAL_Lib/STM32H7xx_HAL_Driver/Src/stm32h7xx_hal_pwr.c **** #define PVD_MODE_EVT             (0x00020000U)
 172:HAL_Lib/STM32H7xx_HAL_Driver/Src/stm32h7xx_hal_pwr.c **** #endif /* !defined (DUAL_CORE) */
 173:HAL_Lib/STM32H7xx_HAL_Driver/Src/stm32h7xx_hal_pwr.c **** 
 174:HAL_Lib/STM32H7xx_HAL_Driver/Src/stm32h7xx_hal_pwr.c **** #define PVD_RISING_EDGE          (0x00000001U)
 175:HAL_Lib/STM32H7xx_HAL_Driver/Src/stm32h7xx_hal_pwr.c **** #define PVD_FALLING_EDGE         (0x00000002U)
 176:HAL_Lib/STM32H7xx_HAL_Driver/Src/stm32h7xx_hal_pwr.c **** #define PVD_RISING_FALLING_EDGE  (0x00000003U)
 177:HAL_Lib/STM32H7xx_HAL_Driver/Src/stm32h7xx_hal_pwr.c **** /**
 178:HAL_Lib/STM32H7xx_HAL_Driver/Src/stm32h7xx_hal_pwr.c ****   * @}
 179:HAL_Lib/STM32H7xx_HAL_Driver/Src/stm32h7xx_hal_pwr.c ****   */
 180:HAL_Lib/STM32H7xx_HAL_Driver/Src/stm32h7xx_hal_pwr.c **** 
 181:HAL_Lib/STM32H7xx_HAL_Driver/Src/stm32h7xx_hal_pwr.c **** /**
 182:HAL_Lib/STM32H7xx_HAL_Driver/Src/stm32h7xx_hal_pwr.c ****   * @}
 183:HAL_Lib/STM32H7xx_HAL_Driver/Src/stm32h7xx_hal_pwr.c ****   */
 184:HAL_Lib/STM32H7xx_HAL_Driver/Src/stm32h7xx_hal_pwr.c **** 
 185:HAL_Lib/STM32H7xx_HAL_Driver/Src/stm32h7xx_hal_pwr.c **** /* Private macro -------------------------------------------------------------*/
 186:HAL_Lib/STM32H7xx_HAL_Driver/Src/stm32h7xx_hal_pwr.c **** /* Private variables ---------------------------------------------------------*/
 187:HAL_Lib/STM32H7xx_HAL_Driver/Src/stm32h7xx_hal_pwr.c **** /* Private function prototypes -----------------------------------------------*/
 188:HAL_Lib/STM32H7xx_HAL_Driver/Src/stm32h7xx_hal_pwr.c **** /* Private functions ---------------------------------------------------------*/
 189:HAL_Lib/STM32H7xx_HAL_Driver/Src/stm32h7xx_hal_pwr.c **** 
 190:HAL_Lib/STM32H7xx_HAL_Driver/Src/stm32h7xx_hal_pwr.c **** /** @defgroup PWR_Exported_Functions PWR Exported Functions
 191:HAL_Lib/STM32H7xx_HAL_Driver/Src/stm32h7xx_hal_pwr.c ****   * @{
 192:HAL_Lib/STM32H7xx_HAL_Driver/Src/stm32h7xx_hal_pwr.c ****   */
 193:HAL_Lib/STM32H7xx_HAL_Driver/Src/stm32h7xx_hal_pwr.c **** 
 194:HAL_Lib/STM32H7xx_HAL_Driver/Src/stm32h7xx_hal_pwr.c **** /** @defgroup PWR_Exported_Functions_Group1 Initialization and De-Initialization Functions
 195:HAL_Lib/STM32H7xx_HAL_Driver/Src/stm32h7xx_hal_pwr.c ****   * @brief    Initialization and De-Initialization functions
 196:HAL_Lib/STM32H7xx_HAL_Driver/Src/stm32h7xx_hal_pwr.c ****   *
 197:HAL_Lib/STM32H7xx_HAL_Driver/Src/stm32h7xx_hal_pwr.c **** @verbatim
 198:HAL_Lib/STM32H7xx_HAL_Driver/Src/stm32h7xx_hal_pwr.c ****  ===============================================================================
 199:HAL_Lib/STM32H7xx_HAL_Driver/Src/stm32h7xx_hal_pwr.c ****               ##### Initialization and De-Initialization Functions #####
 200:HAL_Lib/STM32H7xx_HAL_Driver/Src/stm32h7xx_hal_pwr.c ****  ===============================================================================
 201:HAL_Lib/STM32H7xx_HAL_Driver/Src/stm32h7xx_hal_pwr.c ****     [..]
 202:HAL_Lib/STM32H7xx_HAL_Driver/Src/stm32h7xx_hal_pwr.c ****       This section provides functions allowing to deinitialize power peripheral.
ARM GAS  /var/folders/8_/_8bzxkcs1296m80nzxdrn9q80000gn/T//cct2bcP8.s 			page 5


 203:HAL_Lib/STM32H7xx_HAL_Driver/Src/stm32h7xx_hal_pwr.c **** 
 204:HAL_Lib/STM32H7xx_HAL_Driver/Src/stm32h7xx_hal_pwr.c ****     [..]
 205:HAL_Lib/STM32H7xx_HAL_Driver/Src/stm32h7xx_hal_pwr.c ****       After system reset, the backup domain (RTC registers, RTC backup data
 206:HAL_Lib/STM32H7xx_HAL_Driver/Src/stm32h7xx_hal_pwr.c ****       registers and backup SRAM) is protected against possible unwanted write
 207:HAL_Lib/STM32H7xx_HAL_Driver/Src/stm32h7xx_hal_pwr.c ****       accesses.
 208:HAL_Lib/STM32H7xx_HAL_Driver/Src/stm32h7xx_hal_pwr.c ****       The HAL_PWR_EnableBkUpAccess() function enables the access to the backup
 209:HAL_Lib/STM32H7xx_HAL_Driver/Src/stm32h7xx_hal_pwr.c ****       domain.
 210:HAL_Lib/STM32H7xx_HAL_Driver/Src/stm32h7xx_hal_pwr.c ****       The HAL_PWR_DisableBkUpAccess() function disables the access to the backup
 211:HAL_Lib/STM32H7xx_HAL_Driver/Src/stm32h7xx_hal_pwr.c ****       domain.
 212:HAL_Lib/STM32H7xx_HAL_Driver/Src/stm32h7xx_hal_pwr.c **** 
 213:HAL_Lib/STM32H7xx_HAL_Driver/Src/stm32h7xx_hal_pwr.c **** @endverbatim
 214:HAL_Lib/STM32H7xx_HAL_Driver/Src/stm32h7xx_hal_pwr.c ****   * @{
 215:HAL_Lib/STM32H7xx_HAL_Driver/Src/stm32h7xx_hal_pwr.c ****   */
 216:HAL_Lib/STM32H7xx_HAL_Driver/Src/stm32h7xx_hal_pwr.c **** 
 217:HAL_Lib/STM32H7xx_HAL_Driver/Src/stm32h7xx_hal_pwr.c **** /**
 218:HAL_Lib/STM32H7xx_HAL_Driver/Src/stm32h7xx_hal_pwr.c ****   * @brief  Deinitialize the HAL PWR peripheral registers to their default reset
 219:HAL_Lib/STM32H7xx_HAL_Driver/Src/stm32h7xx_hal_pwr.c ****   *         values.
 220:HAL_Lib/STM32H7xx_HAL_Driver/Src/stm32h7xx_hal_pwr.c ****   * @note   This functionality is not available in this product.
 221:HAL_Lib/STM32H7xx_HAL_Driver/Src/stm32h7xx_hal_pwr.c ****   *         The prototype is kept just to maintain compatibility with other
 222:HAL_Lib/STM32H7xx_HAL_Driver/Src/stm32h7xx_hal_pwr.c ****   *         products.
 223:HAL_Lib/STM32H7xx_HAL_Driver/Src/stm32h7xx_hal_pwr.c ****   * @retval None.
 224:HAL_Lib/STM32H7xx_HAL_Driver/Src/stm32h7xx_hal_pwr.c ****   */
 225:HAL_Lib/STM32H7xx_HAL_Driver/Src/stm32h7xx_hal_pwr.c **** void HAL_PWR_DeInit (void)
 226:HAL_Lib/STM32H7xx_HAL_Driver/Src/stm32h7xx_hal_pwr.c **** {
  28              		.loc 1 226 1 view -0
  29              		.cfi_startproc
  30              		@ args = 0, pretend = 0, frame = 0
  31              		@ frame_needed = 0, uses_anonymous_args = 0
  32              		@ link register save eliminated.
 227:HAL_Lib/STM32H7xx_HAL_Driver/Src/stm32h7xx_hal_pwr.c **** }
  33              		.loc 1 227 1 view .LVU1
  34 0000 7047     		bx	lr
  35              		.cfi_endproc
  36              	.LFE144:
  38              		.section	.text.HAL_PWR_EnableBkUpAccess,"ax",%progbits
  39              		.align	1
  40              		.global	HAL_PWR_EnableBkUpAccess
  41              		.syntax unified
  42              		.thumb
  43              		.thumb_func
  44              		.fpu fpv5-d16
  46              	HAL_PWR_EnableBkUpAccess:
  47              	.LFB145:
 228:HAL_Lib/STM32H7xx_HAL_Driver/Src/stm32h7xx_hal_pwr.c **** 
 229:HAL_Lib/STM32H7xx_HAL_Driver/Src/stm32h7xx_hal_pwr.c **** /**
 230:HAL_Lib/STM32H7xx_HAL_Driver/Src/stm32h7xx_hal_pwr.c ****   * @brief  Enable access to the backup domain (RTC registers, RTC backup data
 231:HAL_Lib/STM32H7xx_HAL_Driver/Src/stm32h7xx_hal_pwr.c ****   *         registers and backup SRAM).
 232:HAL_Lib/STM32H7xx_HAL_Driver/Src/stm32h7xx_hal_pwr.c ****   * @note   If the HSE divided by 2, 3, ..31 is used as the RTC clock, the
 233:HAL_Lib/STM32H7xx_HAL_Driver/Src/stm32h7xx_hal_pwr.c ****   *         Backup Domain Access should be kept enabled.
 234:HAL_Lib/STM32H7xx_HAL_Driver/Src/stm32h7xx_hal_pwr.c ****   * @retval None.
 235:HAL_Lib/STM32H7xx_HAL_Driver/Src/stm32h7xx_hal_pwr.c ****   */
 236:HAL_Lib/STM32H7xx_HAL_Driver/Src/stm32h7xx_hal_pwr.c **** void HAL_PWR_EnableBkUpAccess (void)
 237:HAL_Lib/STM32H7xx_HAL_Driver/Src/stm32h7xx_hal_pwr.c **** {
  48              		.loc 1 237 1 view -0
  49              		.cfi_startproc
  50              		@ args = 0, pretend = 0, frame = 0
  51              		@ frame_needed = 0, uses_anonymous_args = 0
ARM GAS  /var/folders/8_/_8bzxkcs1296m80nzxdrn9q80000gn/T//cct2bcP8.s 			page 6


  52              		@ link register save eliminated.
 238:HAL_Lib/STM32H7xx_HAL_Driver/Src/stm32h7xx_hal_pwr.c ****   /* Enable access to RTC and backup registers */
 239:HAL_Lib/STM32H7xx_HAL_Driver/Src/stm32h7xx_hal_pwr.c ****   SET_BIT (PWR->CR1, PWR_CR1_DBP);
  53              		.loc 1 239 3 view .LVU3
  54 0000 024A     		ldr	r2, .L3
  55 0002 1368     		ldr	r3, [r2]
  56 0004 43F48073 		orr	r3, r3, #256
  57 0008 1360     		str	r3, [r2]
 240:HAL_Lib/STM32H7xx_HAL_Driver/Src/stm32h7xx_hal_pwr.c **** }
  58              		.loc 1 240 1 is_stmt 0 view .LVU4
  59 000a 7047     		bx	lr
  60              	.L4:
  61              		.align	2
  62              	.L3:
  63 000c 00480258 		.word	1476544512
  64              		.cfi_endproc
  65              	.LFE145:
  67              		.section	.text.HAL_PWR_DisableBkUpAccess,"ax",%progbits
  68              		.align	1
  69              		.global	HAL_PWR_DisableBkUpAccess
  70              		.syntax unified
  71              		.thumb
  72              		.thumb_func
  73              		.fpu fpv5-d16
  75              	HAL_PWR_DisableBkUpAccess:
  76              	.LFB146:
 241:HAL_Lib/STM32H7xx_HAL_Driver/Src/stm32h7xx_hal_pwr.c **** 
 242:HAL_Lib/STM32H7xx_HAL_Driver/Src/stm32h7xx_hal_pwr.c **** /**
 243:HAL_Lib/STM32H7xx_HAL_Driver/Src/stm32h7xx_hal_pwr.c ****   * @brief  Disable access to the backup domain (RTC registers, RTC backup data
 244:HAL_Lib/STM32H7xx_HAL_Driver/Src/stm32h7xx_hal_pwr.c ****   *         registers and backup SRAM).
 245:HAL_Lib/STM32H7xx_HAL_Driver/Src/stm32h7xx_hal_pwr.c ****   * @note   If the HSE divided by 2, 3, ..31 is used as the RTC clock, the
 246:HAL_Lib/STM32H7xx_HAL_Driver/Src/stm32h7xx_hal_pwr.c ****   *         Backup Domain Access should be kept enabled.
 247:HAL_Lib/STM32H7xx_HAL_Driver/Src/stm32h7xx_hal_pwr.c ****   * @retval None.
 248:HAL_Lib/STM32H7xx_HAL_Driver/Src/stm32h7xx_hal_pwr.c ****   */
 249:HAL_Lib/STM32H7xx_HAL_Driver/Src/stm32h7xx_hal_pwr.c **** void HAL_PWR_DisableBkUpAccess (void)
 250:HAL_Lib/STM32H7xx_HAL_Driver/Src/stm32h7xx_hal_pwr.c **** {
  77              		.loc 1 250 1 is_stmt 1 view -0
  78              		.cfi_startproc
  79              		@ args = 0, pretend = 0, frame = 0
  80              		@ frame_needed = 0, uses_anonymous_args = 0
  81              		@ link register save eliminated.
 251:HAL_Lib/STM32H7xx_HAL_Driver/Src/stm32h7xx_hal_pwr.c ****   /* Disable access to RTC and backup registers */
 252:HAL_Lib/STM32H7xx_HAL_Driver/Src/stm32h7xx_hal_pwr.c ****   CLEAR_BIT (PWR->CR1, PWR_CR1_DBP);
  82              		.loc 1 252 3 view .LVU6
  83 0000 024A     		ldr	r2, .L6
  84 0002 1368     		ldr	r3, [r2]
  85 0004 23F48073 		bic	r3, r3, #256
  86 0008 1360     		str	r3, [r2]
 253:HAL_Lib/STM32H7xx_HAL_Driver/Src/stm32h7xx_hal_pwr.c **** }
  87              		.loc 1 253 1 is_stmt 0 view .LVU7
  88 000a 7047     		bx	lr
  89              	.L7:
  90              		.align	2
  91              	.L6:
  92 000c 00480258 		.word	1476544512
  93              		.cfi_endproc
  94              	.LFE146:
ARM GAS  /var/folders/8_/_8bzxkcs1296m80nzxdrn9q80000gn/T//cct2bcP8.s 			page 7


  96              		.section	.text.HAL_PWR_ConfigPVD,"ax",%progbits
  97              		.align	1
  98              		.global	HAL_PWR_ConfigPVD
  99              		.syntax unified
 100              		.thumb
 101              		.thumb_func
 102              		.fpu fpv5-d16
 104              	HAL_PWR_ConfigPVD:
 105              	.LVL0:
 106              	.LFB147:
 254:HAL_Lib/STM32H7xx_HAL_Driver/Src/stm32h7xx_hal_pwr.c **** /**
 255:HAL_Lib/STM32H7xx_HAL_Driver/Src/stm32h7xx_hal_pwr.c ****   * @}
 256:HAL_Lib/STM32H7xx_HAL_Driver/Src/stm32h7xx_hal_pwr.c ****   */
 257:HAL_Lib/STM32H7xx_HAL_Driver/Src/stm32h7xx_hal_pwr.c **** 
 258:HAL_Lib/STM32H7xx_HAL_Driver/Src/stm32h7xx_hal_pwr.c **** /** @defgroup PWR_Exported_Functions_Group2 Peripheral Control Functions
 259:HAL_Lib/STM32H7xx_HAL_Driver/Src/stm32h7xx_hal_pwr.c ****   *  @brief   Power Control functions
 260:HAL_Lib/STM32H7xx_HAL_Driver/Src/stm32h7xx_hal_pwr.c ****   *
 261:HAL_Lib/STM32H7xx_HAL_Driver/Src/stm32h7xx_hal_pwr.c **** @verbatim
 262:HAL_Lib/STM32H7xx_HAL_Driver/Src/stm32h7xx_hal_pwr.c ****  ===============================================================================
 263:HAL_Lib/STM32H7xx_HAL_Driver/Src/stm32h7xx_hal_pwr.c ****                  ##### Peripheral Control Functions #####
 264:HAL_Lib/STM32H7xx_HAL_Driver/Src/stm32h7xx_hal_pwr.c ****  ===============================================================================
 265:HAL_Lib/STM32H7xx_HAL_Driver/Src/stm32h7xx_hal_pwr.c ****     [..]
 266:HAL_Lib/STM32H7xx_HAL_Driver/Src/stm32h7xx_hal_pwr.c ****       This section provides functions allowing to control power peripheral.
 267:HAL_Lib/STM32H7xx_HAL_Driver/Src/stm32h7xx_hal_pwr.c **** 
 268:HAL_Lib/STM32H7xx_HAL_Driver/Src/stm32h7xx_hal_pwr.c ****     *** PVD configuration ***
 269:HAL_Lib/STM32H7xx_HAL_Driver/Src/stm32h7xx_hal_pwr.c ****     =========================
 270:HAL_Lib/STM32H7xx_HAL_Driver/Src/stm32h7xx_hal_pwr.c ****     [..]
 271:HAL_Lib/STM32H7xx_HAL_Driver/Src/stm32h7xx_hal_pwr.c ****       (+) The PVD is used to monitor the VDD power supply by comparing it to a
 272:HAL_Lib/STM32H7xx_HAL_Driver/Src/stm32h7xx_hal_pwr.c ****           threshold selected by the PVD Level (PLS[7:0] bits in the PWR_CR1
 273:HAL_Lib/STM32H7xx_HAL_Driver/Src/stm32h7xx_hal_pwr.c ****           register).
 274:HAL_Lib/STM32H7xx_HAL_Driver/Src/stm32h7xx_hal_pwr.c **** 
 275:HAL_Lib/STM32H7xx_HAL_Driver/Src/stm32h7xx_hal_pwr.c ****       (+) A PVDO flag is available to indicate if VDD is higher or lower
 276:HAL_Lib/STM32H7xx_HAL_Driver/Src/stm32h7xx_hal_pwr.c ****           than the PVD threshold. This event is internally connected to the EXTI
 277:HAL_Lib/STM32H7xx_HAL_Driver/Src/stm32h7xx_hal_pwr.c ****           line 16 to generate an interrupt if enabled.
 278:HAL_Lib/STM32H7xx_HAL_Driver/Src/stm32h7xx_hal_pwr.c ****           It is configurable through __HAL_PWR_PVD_EXTI_ENABLE_IT() macro.
 279:HAL_Lib/STM32H7xx_HAL_Driver/Src/stm32h7xx_hal_pwr.c **** 
 280:HAL_Lib/STM32H7xx_HAL_Driver/Src/stm32h7xx_hal_pwr.c ****       (+) The PVD is stopped in STANDBY mode.
 281:HAL_Lib/STM32H7xx_HAL_Driver/Src/stm32h7xx_hal_pwr.c **** 
 282:HAL_Lib/STM32H7xx_HAL_Driver/Src/stm32h7xx_hal_pwr.c ****     *** Wake-up pin configuration ***
 283:HAL_Lib/STM32H7xx_HAL_Driver/Src/stm32h7xx_hal_pwr.c ****     =================================
 284:HAL_Lib/STM32H7xx_HAL_Driver/Src/stm32h7xx_hal_pwr.c ****     [..]
 285:HAL_Lib/STM32H7xx_HAL_Driver/Src/stm32h7xx_hal_pwr.c ****       (+) Wake-up pin is used to wake up the system from STANDBY mode.
 286:HAL_Lib/STM32H7xx_HAL_Driver/Src/stm32h7xx_hal_pwr.c ****           The pin pull is configurable through the WKUPEPR register to be in
 287:HAL_Lib/STM32H7xx_HAL_Driver/Src/stm32h7xx_hal_pwr.c ****           No-pull, Pull-up and Pull-down.
 288:HAL_Lib/STM32H7xx_HAL_Driver/Src/stm32h7xx_hal_pwr.c ****           The pin polarity is configurable through the WKUPEPR register to be
 289:HAL_Lib/STM32H7xx_HAL_Driver/Src/stm32h7xx_hal_pwr.c ****           active on rising or falling edges.
 290:HAL_Lib/STM32H7xx_HAL_Driver/Src/stm32h7xx_hal_pwr.c **** 
 291:HAL_Lib/STM32H7xx_HAL_Driver/Src/stm32h7xx_hal_pwr.c ****       (+) There are up to six Wake-up pin in the STM32H7 devices family.
 292:HAL_Lib/STM32H7xx_HAL_Driver/Src/stm32h7xx_hal_pwr.c **** 
 293:HAL_Lib/STM32H7xx_HAL_Driver/Src/stm32h7xx_hal_pwr.c ****     *** Low Power modes configuration ***
 294:HAL_Lib/STM32H7xx_HAL_Driver/Src/stm32h7xx_hal_pwr.c ****     =====================================
 295:HAL_Lib/STM32H7xx_HAL_Driver/Src/stm32h7xx_hal_pwr.c ****     [..]
 296:HAL_Lib/STM32H7xx_HAL_Driver/Src/stm32h7xx_hal_pwr.c ****      The device present 3 principles low-power modes features:
 297:HAL_Lib/STM32H7xx_HAL_Driver/Src/stm32h7xx_hal_pwr.c ****       (+) SLEEP mode   : Cortex-Mx is stopped and all PWR domains are remaining
 298:HAL_Lib/STM32H7xx_HAL_Driver/Src/stm32h7xx_hal_pwr.c ****                          active (Powered and Clocked).
 299:HAL_Lib/STM32H7xx_HAL_Driver/Src/stm32h7xx_hal_pwr.c **** 
 300:HAL_Lib/STM32H7xx_HAL_Driver/Src/stm32h7xx_hal_pwr.c ****       (+) STOP mode    : Cortex-Mx is stopped, clocks are stopped and the
ARM GAS  /var/folders/8_/_8bzxkcs1296m80nzxdrn9q80000gn/T//cct2bcP8.s 			page 8


 301:HAL_Lib/STM32H7xx_HAL_Driver/Src/stm32h7xx_hal_pwr.c ****                          regulator is running. The Main regulator or the LP
 302:HAL_Lib/STM32H7xx_HAL_Driver/Src/stm32h7xx_hal_pwr.c ****                          regulator could be selected.
 303:HAL_Lib/STM32H7xx_HAL_Driver/Src/stm32h7xx_hal_pwr.c **** 
 304:HAL_Lib/STM32H7xx_HAL_Driver/Src/stm32h7xx_hal_pwr.c ****       (+) STANDBY mode : All PWR domains enter DSTANDBY mode and the VCORE
 305:HAL_Lib/STM32H7xx_HAL_Driver/Src/stm32h7xx_hal_pwr.c ****                          supply regulator is powered off.
 306:HAL_Lib/STM32H7xx_HAL_Driver/Src/stm32h7xx_hal_pwr.c **** 
 307:HAL_Lib/STM32H7xx_HAL_Driver/Src/stm32h7xx_hal_pwr.c ****    *** SLEEP mode ***
 308:HAL_Lib/STM32H7xx_HAL_Driver/Src/stm32h7xx_hal_pwr.c ****    ==================
 309:HAL_Lib/STM32H7xx_HAL_Driver/Src/stm32h7xx_hal_pwr.c ****     [..]
 310:HAL_Lib/STM32H7xx_HAL_Driver/Src/stm32h7xx_hal_pwr.c ****       (+) Entry:
 311:HAL_Lib/STM32H7xx_HAL_Driver/Src/stm32h7xx_hal_pwr.c ****         The SLEEP mode is entered by using the HAL_PWR_EnterSLEEPMode(Regulator,
 312:HAL_Lib/STM32H7xx_HAL_Driver/Src/stm32h7xx_hal_pwr.c ****         SLEEPEntry) function.
 313:HAL_Lib/STM32H7xx_HAL_Driver/Src/stm32h7xx_hal_pwr.c **** 
 314:HAL_Lib/STM32H7xx_HAL_Driver/Src/stm32h7xx_hal_pwr.c ****           (++) PWR_SLEEPENTRY_WFI: enter SLEEP mode with WFI instruction.
 315:HAL_Lib/STM32H7xx_HAL_Driver/Src/stm32h7xx_hal_pwr.c ****           (++) PWR_SLEEPENTRY_WFE: enter SLEEP mode with WFE instruction.
 316:HAL_Lib/STM32H7xx_HAL_Driver/Src/stm32h7xx_hal_pwr.c **** 
 317:HAL_Lib/STM32H7xx_HAL_Driver/Src/stm32h7xx_hal_pwr.c ****       -@@- The Regulator parameter is not used for the STM32H7 family
 318:HAL_Lib/STM32H7xx_HAL_Driver/Src/stm32h7xx_hal_pwr.c ****               and is kept as parameter just to maintain compatibility with the
 319:HAL_Lib/STM32H7xx_HAL_Driver/Src/stm32h7xx_hal_pwr.c ****               lower power families (STM32L).
 320:HAL_Lib/STM32H7xx_HAL_Driver/Src/stm32h7xx_hal_pwr.c **** 
 321:HAL_Lib/STM32H7xx_HAL_Driver/Src/stm32h7xx_hal_pwr.c ****       (+) Exit:
 322:HAL_Lib/STM32H7xx_HAL_Driver/Src/stm32h7xx_hal_pwr.c ****         Any peripheral interrupt acknowledged by the nested vectored interrupt
 323:HAL_Lib/STM32H7xx_HAL_Driver/Src/stm32h7xx_hal_pwr.c ****         controller (NVIC) can wake up the device from SLEEP mode.
 324:HAL_Lib/STM32H7xx_HAL_Driver/Src/stm32h7xx_hal_pwr.c **** 
 325:HAL_Lib/STM32H7xx_HAL_Driver/Src/stm32h7xx_hal_pwr.c ****    *** STOP mode ***
 326:HAL_Lib/STM32H7xx_HAL_Driver/Src/stm32h7xx_hal_pwr.c ****    =================
 327:HAL_Lib/STM32H7xx_HAL_Driver/Src/stm32h7xx_hal_pwr.c ****     [..]
 328:HAL_Lib/STM32H7xx_HAL_Driver/Src/stm32h7xx_hal_pwr.c ****       In system STOP mode, all clocks in the 1.2V domain are stopped, the PLL,
 329:HAL_Lib/STM32H7xx_HAL_Driver/Src/stm32h7xx_hal_pwr.c ****       the HSI, and the HSE RC oscillators are disabled. Internal SRAM and
 330:HAL_Lib/STM32H7xx_HAL_Driver/Src/stm32h7xx_hal_pwr.c ****       register contents are preserved.
 331:HAL_Lib/STM32H7xx_HAL_Driver/Src/stm32h7xx_hal_pwr.c ****       The voltage regulator can be configured either in normal or low-power mode.
 332:HAL_Lib/STM32H7xx_HAL_Driver/Src/stm32h7xx_hal_pwr.c ****       To minimize the consumption in STOP mode, FLASH can be powered off before
 333:HAL_Lib/STM32H7xx_HAL_Driver/Src/stm32h7xx_hal_pwr.c ****       entering the STOP mode using the HAL_PWREx_EnableFlashPowerDown() function.
 334:HAL_Lib/STM32H7xx_HAL_Driver/Src/stm32h7xx_hal_pwr.c ****       It can be switched on again by software after exiting the STOP mode using
 335:HAL_Lib/STM32H7xx_HAL_Driver/Src/stm32h7xx_hal_pwr.c ****       the HAL_PWREx_DisableFlashPowerDown() function.
 336:HAL_Lib/STM32H7xx_HAL_Driver/Src/stm32h7xx_hal_pwr.c **** 
 337:HAL_Lib/STM32H7xx_HAL_Driver/Src/stm32h7xx_hal_pwr.c ****       (+) Entry:
 338:HAL_Lib/STM32H7xx_HAL_Driver/Src/stm32h7xx_hal_pwr.c ****          The STOP mode is entered using the HAL_PWR_EnterSTOPMode(Regulator,
 339:HAL_Lib/STM32H7xx_HAL_Driver/Src/stm32h7xx_hal_pwr.c ****          STOPEntry) function with:
 340:HAL_Lib/STM32H7xx_HAL_Driver/Src/stm32h7xx_hal_pwr.c **** 
 341:HAL_Lib/STM32H7xx_HAL_Driver/Src/stm32h7xx_hal_pwr.c ****          (++) Regulator:
 342:HAL_Lib/STM32H7xx_HAL_Driver/Src/stm32h7xx_hal_pwr.c ****           (+++) PWR_MAINREGULATOR_ON: Main regulator ON.
 343:HAL_Lib/STM32H7xx_HAL_Driver/Src/stm32h7xx_hal_pwr.c ****           (+++) PWR_LOWPOWERREGULATOR_ON: Low Power regulator ON.
 344:HAL_Lib/STM32H7xx_HAL_Driver/Src/stm32h7xx_hal_pwr.c **** 
 345:HAL_Lib/STM32H7xx_HAL_Driver/Src/stm32h7xx_hal_pwr.c ****          (++) STOPEntry:
 346:HAL_Lib/STM32H7xx_HAL_Driver/Src/stm32h7xx_hal_pwr.c ****           (+++) PWR_STOPENTRY_WFI: enter STOP mode with WFI instruction.
 347:HAL_Lib/STM32H7xx_HAL_Driver/Src/stm32h7xx_hal_pwr.c ****           (+++) PWR_STOPENTRY_WFE: enter STOP mode with WFE instruction.
 348:HAL_Lib/STM32H7xx_HAL_Driver/Src/stm32h7xx_hal_pwr.c **** 
 349:HAL_Lib/STM32H7xx_HAL_Driver/Src/stm32h7xx_hal_pwr.c ****       (+) Exit:
 350:HAL_Lib/STM32H7xx_HAL_Driver/Src/stm32h7xx_hal_pwr.c ****          Any EXTI Line (Internal or External) configured in Interrupt/Event mode.
 351:HAL_Lib/STM32H7xx_HAL_Driver/Src/stm32h7xx_hal_pwr.c **** 
 352:HAL_Lib/STM32H7xx_HAL_Driver/Src/stm32h7xx_hal_pwr.c ****    *** STANDBY mode ***
 353:HAL_Lib/STM32H7xx_HAL_Driver/Src/stm32h7xx_hal_pwr.c ****    ====================
 354:HAL_Lib/STM32H7xx_HAL_Driver/Src/stm32h7xx_hal_pwr.c ****     [..]
 355:HAL_Lib/STM32H7xx_HAL_Driver/Src/stm32h7xx_hal_pwr.c ****     (+)
 356:HAL_Lib/STM32H7xx_HAL_Driver/Src/stm32h7xx_hal_pwr.c ****       The system STANDBY mode allows to achieve the lowest power consumption.
 357:HAL_Lib/STM32H7xx_HAL_Driver/Src/stm32h7xx_hal_pwr.c ****       It is based on the Cortex-Mx deep SLEEP mode, with the voltage regulator
ARM GAS  /var/folders/8_/_8bzxkcs1296m80nzxdrn9q80000gn/T//cct2bcP8.s 			page 9


 358:HAL_Lib/STM32H7xx_HAL_Driver/Src/stm32h7xx_hal_pwr.c ****       disabled. The system is consequently powered off. The PLL, the HSI
 359:HAL_Lib/STM32H7xx_HAL_Driver/Src/stm32h7xx_hal_pwr.c ****       oscillator and the HSE oscillator are also switched off. SRAM and register
 360:HAL_Lib/STM32H7xx_HAL_Driver/Src/stm32h7xx_hal_pwr.c ****       contents are lost except for the RTC registers, RTC backup registers,
 361:HAL_Lib/STM32H7xx_HAL_Driver/Src/stm32h7xx_hal_pwr.c ****       backup SRAM and standby circuitry.
 362:HAL_Lib/STM32H7xx_HAL_Driver/Src/stm32h7xx_hal_pwr.c **** 
 363:HAL_Lib/STM32H7xx_HAL_Driver/Src/stm32h7xx_hal_pwr.c ****     [..]
 364:HAL_Lib/STM32H7xx_HAL_Driver/Src/stm32h7xx_hal_pwr.c ****       The voltage regulator is OFF.
 365:HAL_Lib/STM32H7xx_HAL_Driver/Src/stm32h7xx_hal_pwr.c **** 
 366:HAL_Lib/STM32H7xx_HAL_Driver/Src/stm32h7xx_hal_pwr.c ****       (++) Entry:
 367:HAL_Lib/STM32H7xx_HAL_Driver/Src/stm32h7xx_hal_pwr.c ****         (+++) The STANDBY mode is entered using the HAL_PWR_EnterSTANDBYMode()
 368:HAL_Lib/STM32H7xx_HAL_Driver/Src/stm32h7xx_hal_pwr.c ****               function.
 369:HAL_Lib/STM32H7xx_HAL_Driver/Src/stm32h7xx_hal_pwr.c **** 
 370:HAL_Lib/STM32H7xx_HAL_Driver/Src/stm32h7xx_hal_pwr.c ****       (++) Exit:
 371:HAL_Lib/STM32H7xx_HAL_Driver/Src/stm32h7xx_hal_pwr.c ****         (+++) WKUP pin rising or falling edge, RTC alarm (Alarm A and Alarm B),
 372:HAL_Lib/STM32H7xx_HAL_Driver/Src/stm32h7xx_hal_pwr.c ****               RTC wakeup, tamper event, time stamp event, external reset in NRST
 373:HAL_Lib/STM32H7xx_HAL_Driver/Src/stm32h7xx_hal_pwr.c ****               pin, IWDG reset.
 374:HAL_Lib/STM32H7xx_HAL_Driver/Src/stm32h7xx_hal_pwr.c **** 
 375:HAL_Lib/STM32H7xx_HAL_Driver/Src/stm32h7xx_hal_pwr.c ****    *** Auto-wakeup (AWU) from low-power mode ***
 376:HAL_Lib/STM32H7xx_HAL_Driver/Src/stm32h7xx_hal_pwr.c ****    =============================================
 377:HAL_Lib/STM32H7xx_HAL_Driver/Src/stm32h7xx_hal_pwr.c ****     [..]
 378:HAL_Lib/STM32H7xx_HAL_Driver/Src/stm32h7xx_hal_pwr.c ****      (+) The MCU can be woken up from low-power mode by an RTC Alarm event, an
 379:HAL_Lib/STM32H7xx_HAL_Driver/Src/stm32h7xx_hal_pwr.c ****          RTC Wakeup event, a tamper event or a time-stamp event, without
 380:HAL_Lib/STM32H7xx_HAL_Driver/Src/stm32h7xx_hal_pwr.c ****          depending on an external interrupt (Auto-wakeup mode).
 381:HAL_Lib/STM32H7xx_HAL_Driver/Src/stm32h7xx_hal_pwr.c **** 
 382:HAL_Lib/STM32H7xx_HAL_Driver/Src/stm32h7xx_hal_pwr.c ****      (+) RTC auto-wakeup (AWU) from the STOP and STANDBY modes
 383:HAL_Lib/STM32H7xx_HAL_Driver/Src/stm32h7xx_hal_pwr.c **** 
 384:HAL_Lib/STM32H7xx_HAL_Driver/Src/stm32h7xx_hal_pwr.c ****        (++) To wake up from the STOP mode with an RTC alarm event, it is
 385:HAL_Lib/STM32H7xx_HAL_Driver/Src/stm32h7xx_hal_pwr.c ****             necessary to configure the RTC to generate the RTC alarm using the
 386:HAL_Lib/STM32H7xx_HAL_Driver/Src/stm32h7xx_hal_pwr.c ****             HAL_RTC_SetAlarm_IT() function.
 387:HAL_Lib/STM32H7xx_HAL_Driver/Src/stm32h7xx_hal_pwr.c **** 
 388:HAL_Lib/STM32H7xx_HAL_Driver/Src/stm32h7xx_hal_pwr.c ****        (++) To wake up from the STOP mode with an RTC Tamper or time stamp event,
 389:HAL_Lib/STM32H7xx_HAL_Driver/Src/stm32h7xx_hal_pwr.c ****             it is necessary to configure the RTC to detect the tamper or time
 390:HAL_Lib/STM32H7xx_HAL_Driver/Src/stm32h7xx_hal_pwr.c ****             stamp event using the HAL_RTCEx_SetTimeStamp_IT() or
 391:HAL_Lib/STM32H7xx_HAL_Driver/Src/stm32h7xx_hal_pwr.c ****             HAL_RTCEx_SetTamper_IT() functions.
 392:HAL_Lib/STM32H7xx_HAL_Driver/Src/stm32h7xx_hal_pwr.c **** 
 393:HAL_Lib/STM32H7xx_HAL_Driver/Src/stm32h7xx_hal_pwr.c ****        (++) To wake up from the STOP mode with an RTC WakeUp event, it is
 394:HAL_Lib/STM32H7xx_HAL_Driver/Src/stm32h7xx_hal_pwr.c ****             necessary to configure the RTC to generate the RTC WakeUp event
 395:HAL_Lib/STM32H7xx_HAL_Driver/Src/stm32h7xx_hal_pwr.c ****             using the HAL_RTCEx_SetWakeUpTimer_IT() function.
 396:HAL_Lib/STM32H7xx_HAL_Driver/Src/stm32h7xx_hal_pwr.c **** 
 397:HAL_Lib/STM32H7xx_HAL_Driver/Src/stm32h7xx_hal_pwr.c **** @endverbatim
 398:HAL_Lib/STM32H7xx_HAL_Driver/Src/stm32h7xx_hal_pwr.c ****   * @{
 399:HAL_Lib/STM32H7xx_HAL_Driver/Src/stm32h7xx_hal_pwr.c ****   */
 400:HAL_Lib/STM32H7xx_HAL_Driver/Src/stm32h7xx_hal_pwr.c **** 
 401:HAL_Lib/STM32H7xx_HAL_Driver/Src/stm32h7xx_hal_pwr.c **** /**
 402:HAL_Lib/STM32H7xx_HAL_Driver/Src/stm32h7xx_hal_pwr.c ****   * @brief  Configure the event mode and the voltage threshold detected by the
 403:HAL_Lib/STM32H7xx_HAL_Driver/Src/stm32h7xx_hal_pwr.c ****   *         Programmable Voltage Detector(PVD).
 404:HAL_Lib/STM32H7xx_HAL_Driver/Src/stm32h7xx_hal_pwr.c ****   * @param  sConfigPVD : Pointer to an PWR_PVDTypeDef structure that contains
 405:HAL_Lib/STM32H7xx_HAL_Driver/Src/stm32h7xx_hal_pwr.c ****   *                      the configuration information for the PVD.
 406:HAL_Lib/STM32H7xx_HAL_Driver/Src/stm32h7xx_hal_pwr.c ****   * @note   Refer to the electrical characteristics of your device datasheet for
 407:HAL_Lib/STM32H7xx_HAL_Driver/Src/stm32h7xx_hal_pwr.c ****   *         more details about the voltage threshold corresponding to each
 408:HAL_Lib/STM32H7xx_HAL_Driver/Src/stm32h7xx_hal_pwr.c ****   *         detection level.
 409:HAL_Lib/STM32H7xx_HAL_Driver/Src/stm32h7xx_hal_pwr.c ****   * @note   For dual core devices, please ensure to configure the EXTI lines for
 410:HAL_Lib/STM32H7xx_HAL_Driver/Src/stm32h7xx_hal_pwr.c ****   *         the different Cortex-Mx through PWR_Exported_Macro provided by this
 411:HAL_Lib/STM32H7xx_HAL_Driver/Src/stm32h7xx_hal_pwr.c ****   *         driver. All combination are allowed: wake up only Cortex-M7, wake up
 412:HAL_Lib/STM32H7xx_HAL_Driver/Src/stm32h7xx_hal_pwr.c ****   *         only Cortex-M4 or wake up Cortex-M7 and Cortex-M4.
 413:HAL_Lib/STM32H7xx_HAL_Driver/Src/stm32h7xx_hal_pwr.c ****   * @retval None.
 414:HAL_Lib/STM32H7xx_HAL_Driver/Src/stm32h7xx_hal_pwr.c ****   */
ARM GAS  /var/folders/8_/_8bzxkcs1296m80nzxdrn9q80000gn/T//cct2bcP8.s 			page 10


 415:HAL_Lib/STM32H7xx_HAL_Driver/Src/stm32h7xx_hal_pwr.c **** void HAL_PWR_ConfigPVD (PWR_PVDTypeDef *sConfigPVD)
 416:HAL_Lib/STM32H7xx_HAL_Driver/Src/stm32h7xx_hal_pwr.c **** {
 107              		.loc 1 416 1 is_stmt 1 view -0
 108              		.cfi_startproc
 109              		@ args = 0, pretend = 0, frame = 0
 110              		@ frame_needed = 0, uses_anonymous_args = 0
 111              		@ link register save eliminated.
 417:HAL_Lib/STM32H7xx_HAL_Driver/Src/stm32h7xx_hal_pwr.c ****   /* Check the PVD configuration parameter */
 418:HAL_Lib/STM32H7xx_HAL_Driver/Src/stm32h7xx_hal_pwr.c ****   if (sConfigPVD == NULL)
 112              		.loc 1 418 3 view .LVU9
 113              		.loc 1 418 6 is_stmt 0 view .LVU10
 114 0000 0246     		mov	r2, r0
 115 0002 0028     		cmp	r0, #0
 116 0004 48D0     		beq	.L8
 419:HAL_Lib/STM32H7xx_HAL_Driver/Src/stm32h7xx_hal_pwr.c ****   {
 420:HAL_Lib/STM32H7xx_HAL_Driver/Src/stm32h7xx_hal_pwr.c ****     return;
 421:HAL_Lib/STM32H7xx_HAL_Driver/Src/stm32h7xx_hal_pwr.c ****   }
 422:HAL_Lib/STM32H7xx_HAL_Driver/Src/stm32h7xx_hal_pwr.c **** 
 423:HAL_Lib/STM32H7xx_HAL_Driver/Src/stm32h7xx_hal_pwr.c ****   /* Check the parameters */
 424:HAL_Lib/STM32H7xx_HAL_Driver/Src/stm32h7xx_hal_pwr.c ****   assert_param (IS_PWR_PVD_LEVEL (sConfigPVD->PVDLevel));
 117              		.loc 1 424 3 is_stmt 1 view .LVU11
 425:HAL_Lib/STM32H7xx_HAL_Driver/Src/stm32h7xx_hal_pwr.c ****   assert_param (IS_PWR_PVD_MODE (sConfigPVD->Mode));
 118              		.loc 1 425 3 view .LVU12
 426:HAL_Lib/STM32H7xx_HAL_Driver/Src/stm32h7xx_hal_pwr.c **** 
 427:HAL_Lib/STM32H7xx_HAL_Driver/Src/stm32h7xx_hal_pwr.c ****   /* Set PLS[7:5] bits according to PVDLevel value */
 428:HAL_Lib/STM32H7xx_HAL_Driver/Src/stm32h7xx_hal_pwr.c ****   MODIFY_REG (PWR->CR1, PWR_CR1_PLS, sConfigPVD->PVDLevel);
 119              		.loc 1 428 3 view .LVU13
 120 0006 2549     		ldr	r1, .L13
 121 0008 0B68     		ldr	r3, [r1]
 122 000a 23F0E003 		bic	r3, r3, #224
 123 000e 0068     		ldr	r0, [r0]
 124              	.LVL1:
 125              		.loc 1 428 3 is_stmt 0 view .LVU14
 126 0010 0343     		orrs	r3, r3, r0
 127 0012 0B60     		str	r3, [r1]
 429:HAL_Lib/STM32H7xx_HAL_Driver/Src/stm32h7xx_hal_pwr.c **** 
 430:HAL_Lib/STM32H7xx_HAL_Driver/Src/stm32h7xx_hal_pwr.c ****   /* Clear previous config */
 431:HAL_Lib/STM32H7xx_HAL_Driver/Src/stm32h7xx_hal_pwr.c **** #if !defined (DUAL_CORE)
 432:HAL_Lib/STM32H7xx_HAL_Driver/Src/stm32h7xx_hal_pwr.c ****   __HAL_PWR_PVD_EXTI_DISABLE_EVENT ();
 128              		.loc 1 432 3 is_stmt 1 view .LVU15
 129 0014 4FF0B043 		mov	r3, #1476395008
 130 0018 D3F88410 		ldr	r1, [r3, #132]
 131 001c 21F48031 		bic	r1, r1, #65536
 132 0020 C3F88410 		str	r1, [r3, #132]
 433:HAL_Lib/STM32H7xx_HAL_Driver/Src/stm32h7xx_hal_pwr.c ****   __HAL_PWR_PVD_EXTI_DISABLE_IT ();
 133              		.loc 1 433 3 view .LVU16
 134 0024 D3F88010 		ldr	r1, [r3, #128]
 135 0028 21F48031 		bic	r1, r1, #65536
 136 002c C3F88010 		str	r1, [r3, #128]
 434:HAL_Lib/STM32H7xx_HAL_Driver/Src/stm32h7xx_hal_pwr.c **** #endif /* !defined (DUAL_CORE) */
 435:HAL_Lib/STM32H7xx_HAL_Driver/Src/stm32h7xx_hal_pwr.c **** 
 436:HAL_Lib/STM32H7xx_HAL_Driver/Src/stm32h7xx_hal_pwr.c ****   __HAL_PWR_PVD_EXTI_DISABLE_RISING_EDGE ();
 137              		.loc 1 436 3 view .LVU17
 138 0030 1968     		ldr	r1, [r3]
 139 0032 21F48031 		bic	r1, r1, #65536
 140 0036 1960     		str	r1, [r3]
 437:HAL_Lib/STM32H7xx_HAL_Driver/Src/stm32h7xx_hal_pwr.c ****   __HAL_PWR_PVD_EXTI_DISABLE_FALLING_EDGE ();
ARM GAS  /var/folders/8_/_8bzxkcs1296m80nzxdrn9q80000gn/T//cct2bcP8.s 			page 11


 141              		.loc 1 437 3 view .LVU18
 142 0038 5968     		ldr	r1, [r3, #4]
 143 003a 21F48031 		bic	r1, r1, #65536
 144 003e 5960     		str	r1, [r3, #4]
 438:HAL_Lib/STM32H7xx_HAL_Driver/Src/stm32h7xx_hal_pwr.c **** 
 439:HAL_Lib/STM32H7xx_HAL_Driver/Src/stm32h7xx_hal_pwr.c **** #if !defined (DUAL_CORE)
 440:HAL_Lib/STM32H7xx_HAL_Driver/Src/stm32h7xx_hal_pwr.c ****   /* Interrupt mode configuration */
 441:HAL_Lib/STM32H7xx_HAL_Driver/Src/stm32h7xx_hal_pwr.c ****   if ((sConfigPVD->Mode & PVD_MODE_IT) == PVD_MODE_IT)
 145              		.loc 1 441 3 view .LVU19
 146              		.loc 1 441 18 is_stmt 0 view .LVU20
 147 0040 5368     		ldr	r3, [r2, #4]
 148              		.loc 1 441 6 view .LVU21
 149 0042 13F4803F 		tst	r3, #65536
 150 0046 07D0     		beq	.L10
 442:HAL_Lib/STM32H7xx_HAL_Driver/Src/stm32h7xx_hal_pwr.c ****   {
 443:HAL_Lib/STM32H7xx_HAL_Driver/Src/stm32h7xx_hal_pwr.c ****     __HAL_PWR_PVD_EXTI_ENABLE_IT ();
 151              		.loc 1 443 5 is_stmt 1 view .LVU22
 152 0048 4FF0B041 		mov	r1, #1476395008
 153 004c D1F88030 		ldr	r3, [r1, #128]
 154 0050 43F48033 		orr	r3, r3, #65536
 155 0054 C1F88030 		str	r3, [r1, #128]
 156              	.L10:
 444:HAL_Lib/STM32H7xx_HAL_Driver/Src/stm32h7xx_hal_pwr.c ****   }
 445:HAL_Lib/STM32H7xx_HAL_Driver/Src/stm32h7xx_hal_pwr.c **** 
 446:HAL_Lib/STM32H7xx_HAL_Driver/Src/stm32h7xx_hal_pwr.c ****   /* Event mode configuration */
 447:HAL_Lib/STM32H7xx_HAL_Driver/Src/stm32h7xx_hal_pwr.c ****   if ((sConfigPVD->Mode & PVD_MODE_EVT) == PVD_MODE_EVT)
 157              		.loc 1 447 3 view .LVU23
 158              		.loc 1 447 18 is_stmt 0 view .LVU24
 159 0058 5368     		ldr	r3, [r2, #4]
 160              		.loc 1 447 6 view .LVU25
 161 005a 13F4003F 		tst	r3, #131072
 162 005e 07D0     		beq	.L11
 448:HAL_Lib/STM32H7xx_HAL_Driver/Src/stm32h7xx_hal_pwr.c ****   {
 449:HAL_Lib/STM32H7xx_HAL_Driver/Src/stm32h7xx_hal_pwr.c ****     __HAL_PWR_PVD_EXTI_ENABLE_EVENT ();
 163              		.loc 1 449 5 is_stmt 1 view .LVU26
 164 0060 4FF0B041 		mov	r1, #1476395008
 165 0064 D1F88430 		ldr	r3, [r1, #132]
 166 0068 43F48033 		orr	r3, r3, #65536
 167 006c C1F88430 		str	r3, [r1, #132]
 168              	.L11:
 450:HAL_Lib/STM32H7xx_HAL_Driver/Src/stm32h7xx_hal_pwr.c ****   }
 451:HAL_Lib/STM32H7xx_HAL_Driver/Src/stm32h7xx_hal_pwr.c **** #endif /* !defined (DUAL_CORE) */
 452:HAL_Lib/STM32H7xx_HAL_Driver/Src/stm32h7xx_hal_pwr.c **** 
 453:HAL_Lib/STM32H7xx_HAL_Driver/Src/stm32h7xx_hal_pwr.c ****   /* Rising edge configuration */
 454:HAL_Lib/STM32H7xx_HAL_Driver/Src/stm32h7xx_hal_pwr.c ****   if ((sConfigPVD->Mode & PVD_RISING_EDGE) == PVD_RISING_EDGE)
 169              		.loc 1 454 3 view .LVU27
 170              		.loc 1 454 18 is_stmt 0 view .LVU28
 171 0070 5368     		ldr	r3, [r2, #4]
 172              		.loc 1 454 6 view .LVU29
 173 0072 13F0010F 		tst	r3, #1
 174 0076 05D0     		beq	.L12
 455:HAL_Lib/STM32H7xx_HAL_Driver/Src/stm32h7xx_hal_pwr.c ****   {
 456:HAL_Lib/STM32H7xx_HAL_Driver/Src/stm32h7xx_hal_pwr.c ****     __HAL_PWR_PVD_EXTI_ENABLE_RISING_EDGE ();
 175              		.loc 1 456 5 is_stmt 1 view .LVU30
 176 0078 4FF0B041 		mov	r1, #1476395008
 177 007c 0B68     		ldr	r3, [r1]
 178 007e 43F48033 		orr	r3, r3, #65536
ARM GAS  /var/folders/8_/_8bzxkcs1296m80nzxdrn9q80000gn/T//cct2bcP8.s 			page 12


 179 0082 0B60     		str	r3, [r1]
 180              	.L12:
 457:HAL_Lib/STM32H7xx_HAL_Driver/Src/stm32h7xx_hal_pwr.c ****   }
 458:HAL_Lib/STM32H7xx_HAL_Driver/Src/stm32h7xx_hal_pwr.c **** 
 459:HAL_Lib/STM32H7xx_HAL_Driver/Src/stm32h7xx_hal_pwr.c ****   /* Falling edge configuration */
 460:HAL_Lib/STM32H7xx_HAL_Driver/Src/stm32h7xx_hal_pwr.c ****   if ((sConfigPVD->Mode & PVD_FALLING_EDGE) == PVD_FALLING_EDGE)
 181              		.loc 1 460 3 view .LVU31
 182              		.loc 1 460 18 is_stmt 0 view .LVU32
 183 0084 5368     		ldr	r3, [r2, #4]
 184              		.loc 1 460 6 view .LVU33
 185 0086 13F0020F 		tst	r3, #2
 186 008a 05D0     		beq	.L8
 461:HAL_Lib/STM32H7xx_HAL_Driver/Src/stm32h7xx_hal_pwr.c ****   {
 462:HAL_Lib/STM32H7xx_HAL_Driver/Src/stm32h7xx_hal_pwr.c ****     __HAL_PWR_PVD_EXTI_ENABLE_FALLING_EDGE ();
 187              		.loc 1 462 5 is_stmt 1 view .LVU34
 188 008c 4FF0B042 		mov	r2, #1476395008
 189              	.LVL2:
 190              		.loc 1 462 5 is_stmt 0 view .LVU35
 191 0090 5368     		ldr	r3, [r2, #4]
 192 0092 43F48033 		orr	r3, r3, #65536
 193 0096 5360     		str	r3, [r2, #4]
 194              	.L8:
 463:HAL_Lib/STM32H7xx_HAL_Driver/Src/stm32h7xx_hal_pwr.c ****   }
 464:HAL_Lib/STM32H7xx_HAL_Driver/Src/stm32h7xx_hal_pwr.c **** }
 195              		.loc 1 464 1 view .LVU36
 196 0098 7047     		bx	lr
 197              	.L14:
 198 009a 00BF     		.align	2
 199              	.L13:
 200 009c 00480258 		.word	1476544512
 201              		.cfi_endproc
 202              	.LFE147:
 204              		.section	.text.HAL_PWR_EnablePVD,"ax",%progbits
 205              		.align	1
 206              		.global	HAL_PWR_EnablePVD
 207              		.syntax unified
 208              		.thumb
 209              		.thumb_func
 210              		.fpu fpv5-d16
 212              	HAL_PWR_EnablePVD:
 213              	.LFB148:
 465:HAL_Lib/STM32H7xx_HAL_Driver/Src/stm32h7xx_hal_pwr.c **** 
 466:HAL_Lib/STM32H7xx_HAL_Driver/Src/stm32h7xx_hal_pwr.c **** /**
 467:HAL_Lib/STM32H7xx_HAL_Driver/Src/stm32h7xx_hal_pwr.c ****   * @brief Enable the Programmable Voltage Detector (PVD).
 468:HAL_Lib/STM32H7xx_HAL_Driver/Src/stm32h7xx_hal_pwr.c ****   * @retval None.
 469:HAL_Lib/STM32H7xx_HAL_Driver/Src/stm32h7xx_hal_pwr.c ****   */
 470:HAL_Lib/STM32H7xx_HAL_Driver/Src/stm32h7xx_hal_pwr.c **** void HAL_PWR_EnablePVD (void)
 471:HAL_Lib/STM32H7xx_HAL_Driver/Src/stm32h7xx_hal_pwr.c **** {
 214              		.loc 1 471 1 is_stmt 1 view -0
 215              		.cfi_startproc
 216              		@ args = 0, pretend = 0, frame = 0
 217              		@ frame_needed = 0, uses_anonymous_args = 0
 218              		@ link register save eliminated.
 472:HAL_Lib/STM32H7xx_HAL_Driver/Src/stm32h7xx_hal_pwr.c ****   /* Enable the power voltage detector */
 473:HAL_Lib/STM32H7xx_HAL_Driver/Src/stm32h7xx_hal_pwr.c ****   SET_BIT (PWR->CR1, PWR_CR1_PVDEN);
 219              		.loc 1 473 3 view .LVU38
 220 0000 024A     		ldr	r2, .L16
ARM GAS  /var/folders/8_/_8bzxkcs1296m80nzxdrn9q80000gn/T//cct2bcP8.s 			page 13


 221 0002 1368     		ldr	r3, [r2]
 222 0004 43F01003 		orr	r3, r3, #16
 223 0008 1360     		str	r3, [r2]
 474:HAL_Lib/STM32H7xx_HAL_Driver/Src/stm32h7xx_hal_pwr.c **** }
 224              		.loc 1 474 1 is_stmt 0 view .LVU39
 225 000a 7047     		bx	lr
 226              	.L17:
 227              		.align	2
 228              	.L16:
 229 000c 00480258 		.word	1476544512
 230              		.cfi_endproc
 231              	.LFE148:
 233              		.section	.text.HAL_PWR_DisablePVD,"ax",%progbits
 234              		.align	1
 235              		.global	HAL_PWR_DisablePVD
 236              		.syntax unified
 237              		.thumb
 238              		.thumb_func
 239              		.fpu fpv5-d16
 241              	HAL_PWR_DisablePVD:
 242              	.LFB149:
 475:HAL_Lib/STM32H7xx_HAL_Driver/Src/stm32h7xx_hal_pwr.c **** 
 476:HAL_Lib/STM32H7xx_HAL_Driver/Src/stm32h7xx_hal_pwr.c **** /**
 477:HAL_Lib/STM32H7xx_HAL_Driver/Src/stm32h7xx_hal_pwr.c ****   * @brief Disable the Programmable Voltage Detector (PVD).
 478:HAL_Lib/STM32H7xx_HAL_Driver/Src/stm32h7xx_hal_pwr.c ****   * @retval None.
 479:HAL_Lib/STM32H7xx_HAL_Driver/Src/stm32h7xx_hal_pwr.c ****   */
 480:HAL_Lib/STM32H7xx_HAL_Driver/Src/stm32h7xx_hal_pwr.c **** void HAL_PWR_DisablePVD (void)
 481:HAL_Lib/STM32H7xx_HAL_Driver/Src/stm32h7xx_hal_pwr.c **** {
 243              		.loc 1 481 1 is_stmt 1 view -0
 244              		.cfi_startproc
 245              		@ args = 0, pretend = 0, frame = 0
 246              		@ frame_needed = 0, uses_anonymous_args = 0
 247              		@ link register save eliminated.
 482:HAL_Lib/STM32H7xx_HAL_Driver/Src/stm32h7xx_hal_pwr.c ****   /* Disable the power voltage detector */
 483:HAL_Lib/STM32H7xx_HAL_Driver/Src/stm32h7xx_hal_pwr.c ****   CLEAR_BIT (PWR->CR1, PWR_CR1_PVDEN);
 248              		.loc 1 483 3 view .LVU41
 249 0000 024A     		ldr	r2, .L19
 250 0002 1368     		ldr	r3, [r2]
 251 0004 23F01003 		bic	r3, r3, #16
 252 0008 1360     		str	r3, [r2]
 484:HAL_Lib/STM32H7xx_HAL_Driver/Src/stm32h7xx_hal_pwr.c **** }
 253              		.loc 1 484 1 is_stmt 0 view .LVU42
 254 000a 7047     		bx	lr
 255              	.L20:
 256              		.align	2
 257              	.L19:
 258 000c 00480258 		.word	1476544512
 259              		.cfi_endproc
 260              	.LFE149:
 262              		.section	.text.HAL_PWR_EnableWakeUpPin,"ax",%progbits
 263              		.align	1
 264              		.global	HAL_PWR_EnableWakeUpPin
 265              		.syntax unified
 266              		.thumb
 267              		.thumb_func
 268              		.fpu fpv5-d16
 270              	HAL_PWR_EnableWakeUpPin:
ARM GAS  /var/folders/8_/_8bzxkcs1296m80nzxdrn9q80000gn/T//cct2bcP8.s 			page 14


 271              	.LVL3:
 272              	.LFB150:
 485:HAL_Lib/STM32H7xx_HAL_Driver/Src/stm32h7xx_hal_pwr.c **** 
 486:HAL_Lib/STM32H7xx_HAL_Driver/Src/stm32h7xx_hal_pwr.c **** /**
 487:HAL_Lib/STM32H7xx_HAL_Driver/Src/stm32h7xx_hal_pwr.c ****   * @brief  Enable the WakeUp PINx functionality.
 488:HAL_Lib/STM32H7xx_HAL_Driver/Src/stm32h7xx_hal_pwr.c ****   * @param  WakeUpPinPolarity : Specifies which Wake-Up pin to enable.
 489:HAL_Lib/STM32H7xx_HAL_Driver/Src/stm32h7xx_hal_pwr.c ****   *          This parameter can be one of the following legacy values, which
 490:HAL_Lib/STM32H7xx_HAL_Driver/Src/stm32h7xx_hal_pwr.c ****   *          sets the default (rising edge):
 491:HAL_Lib/STM32H7xx_HAL_Driver/Src/stm32h7xx_hal_pwr.c ****   *            @arg PWR_WAKEUP_PIN1, PWR_WAKEUP_PIN2, PWR_WAKEUP_PIN3,
 492:HAL_Lib/STM32H7xx_HAL_Driver/Src/stm32h7xx_hal_pwr.c ****   *                 PWR_WAKEUP_PIN4, PWR_WAKEUP_PIN5, PWR_WAKEUP_PIN6.
 493:HAL_Lib/STM32H7xx_HAL_Driver/Src/stm32h7xx_hal_pwr.c ****   *          or one of the following values where the user can explicitly states
 494:HAL_Lib/STM32H7xx_HAL_Driver/Src/stm32h7xx_hal_pwr.c ****   *          the enabled pin and the chosen polarity:
 495:HAL_Lib/STM32H7xx_HAL_Driver/Src/stm32h7xx_hal_pwr.c ****   *            @arg PWR_WAKEUP_PIN1_HIGH, PWR_WAKEUP_PIN1_LOW,
 496:HAL_Lib/STM32H7xx_HAL_Driver/Src/stm32h7xx_hal_pwr.c ****   *                 PWR_WAKEUP_PIN2_HIGH, PWR_WAKEUP_PIN2_LOW,
 497:HAL_Lib/STM32H7xx_HAL_Driver/Src/stm32h7xx_hal_pwr.c ****   *                 PWR_WAKEUP_PIN3_HIGH, PWR_WAKEUP_PIN3_LOW,
 498:HAL_Lib/STM32H7xx_HAL_Driver/Src/stm32h7xx_hal_pwr.c ****   *                 PWR_WAKEUP_PIN4_HIGH, PWR_WAKEUP_PIN4_LOW,
 499:HAL_Lib/STM32H7xx_HAL_Driver/Src/stm32h7xx_hal_pwr.c ****   *                 PWR_WAKEUP_PIN5_HIGH, PWR_WAKEUP_PIN5_LOW,
 500:HAL_Lib/STM32H7xx_HAL_Driver/Src/stm32h7xx_hal_pwr.c ****   *                 PWR_WAKEUP_PIN6_HIGH, PWR_WAKEUP_PIN6_LOW.
 501:HAL_Lib/STM32H7xx_HAL_Driver/Src/stm32h7xx_hal_pwr.c ****   * @note   PWR_WAKEUP_PINx and PWR_WAKEUP_PINx_HIGH are equivalent.
 502:HAL_Lib/STM32H7xx_HAL_Driver/Src/stm32h7xx_hal_pwr.c ****   * @note   The PWR_WAKEUP_PIN3_HIGH, PWR_WAKEUP_PIN3_LOW, PWR_WAKEUP_PIN5_HIGH
 503:HAL_Lib/STM32H7xx_HAL_Driver/Src/stm32h7xx_hal_pwr.c ****   *         and PWR_WAKEUP_PIN5_LOW are available only for devices that includes
 504:HAL_Lib/STM32H7xx_HAL_Driver/Src/stm32h7xx_hal_pwr.c ****   *         GPIOI port.
 505:HAL_Lib/STM32H7xx_HAL_Driver/Src/stm32h7xx_hal_pwr.c ****   * @retval None.
 506:HAL_Lib/STM32H7xx_HAL_Driver/Src/stm32h7xx_hal_pwr.c ****   */
 507:HAL_Lib/STM32H7xx_HAL_Driver/Src/stm32h7xx_hal_pwr.c **** void HAL_PWR_EnableWakeUpPin (uint32_t WakeUpPinPolarity)
 508:HAL_Lib/STM32H7xx_HAL_Driver/Src/stm32h7xx_hal_pwr.c **** {
 273              		.loc 1 508 1 is_stmt 1 view -0
 274              		.cfi_startproc
 275              		@ args = 0, pretend = 0, frame = 0
 276              		@ frame_needed = 0, uses_anonymous_args = 0
 277              		@ link register save eliminated.
 509:HAL_Lib/STM32H7xx_HAL_Driver/Src/stm32h7xx_hal_pwr.c ****   /* Check the parameters */
 510:HAL_Lib/STM32H7xx_HAL_Driver/Src/stm32h7xx_hal_pwr.c ****   assert_param (IS_PWR_WAKEUP_PIN (WakeUpPinPolarity));
 278              		.loc 1 510 3 view .LVU44
 511:HAL_Lib/STM32H7xx_HAL_Driver/Src/stm32h7xx_hal_pwr.c **** 
 512:HAL_Lib/STM32H7xx_HAL_Driver/Src/stm32h7xx_hal_pwr.c ****   /*
 513:HAL_Lib/STM32H7xx_HAL_Driver/Src/stm32h7xx_hal_pwr.c ****      Enable and Specify the Wake-Up pin polarity and the pull configuration
 514:HAL_Lib/STM32H7xx_HAL_Driver/Src/stm32h7xx_hal_pwr.c ****      for the event detection (rising or falling edge).
 515:HAL_Lib/STM32H7xx_HAL_Driver/Src/stm32h7xx_hal_pwr.c ****   */
 516:HAL_Lib/STM32H7xx_HAL_Driver/Src/stm32h7xx_hal_pwr.c ****   MODIFY_REG (PWR->WKUPEPR, PWR_EWUP_MASK, WakeUpPinPolarity);
 279              		.loc 1 516 3 view .LVU45
 280 0000 034A     		ldr	r2, .L22
 281 0002 916A     		ldr	r1, [r2, #40]
 282 0004 034B     		ldr	r3, .L22+4
 283 0006 0B40     		ands	r3, r3, r1
 284 0008 0343     		orrs	r3, r3, r0
 285 000a 9362     		str	r3, [r2, #40]
 517:HAL_Lib/STM32H7xx_HAL_Driver/Src/stm32h7xx_hal_pwr.c **** }
 286              		.loc 1 517 1 is_stmt 0 view .LVU46
 287 000c 7047     		bx	lr
 288              	.L23:
 289 000e 00BF     		.align	2
 290              	.L22:
 291 0010 00480258 		.word	1476544512
 292 0014 C0C000F0 		.word	-268386112
 293              		.cfi_endproc
 294              	.LFE150:
ARM GAS  /var/folders/8_/_8bzxkcs1296m80nzxdrn9q80000gn/T//cct2bcP8.s 			page 15


 296              		.section	.text.HAL_PWR_DisableWakeUpPin,"ax",%progbits
 297              		.align	1
 298              		.global	HAL_PWR_DisableWakeUpPin
 299              		.syntax unified
 300              		.thumb
 301              		.thumb_func
 302              		.fpu fpv5-d16
 304              	HAL_PWR_DisableWakeUpPin:
 305              	.LVL4:
 306              	.LFB151:
 518:HAL_Lib/STM32H7xx_HAL_Driver/Src/stm32h7xx_hal_pwr.c **** 
 519:HAL_Lib/STM32H7xx_HAL_Driver/Src/stm32h7xx_hal_pwr.c **** /**
 520:HAL_Lib/STM32H7xx_HAL_Driver/Src/stm32h7xx_hal_pwr.c ****   * @brief  Disable the WakeUp PINx functionality.
 521:HAL_Lib/STM32H7xx_HAL_Driver/Src/stm32h7xx_hal_pwr.c ****   * @param  WakeUpPinx : Specifies the Power Wake-Up pin to disable.
 522:HAL_Lib/STM32H7xx_HAL_Driver/Src/stm32h7xx_hal_pwr.c ****   *          This parameter can be one of the following values:
 523:HAL_Lib/STM32H7xx_HAL_Driver/Src/stm32h7xx_hal_pwr.c ****   *            @arg PWR_WAKEUP_PIN1, PWR_WAKEUP_PIN2, PWR_WAKEUP_PIN3,
 524:HAL_Lib/STM32H7xx_HAL_Driver/Src/stm32h7xx_hal_pwr.c ****   *                 PWR_WAKEUP_PIN4, PWR_WAKEUP_PIN5, PWR_WAKEUP_PIN6,
 525:HAL_Lib/STM32H7xx_HAL_Driver/Src/stm32h7xx_hal_pwr.c ****   *                 PWR_WAKEUP_PIN1_HIGH, PWR_WAKEUP_PIN1_LOW,
 526:HAL_Lib/STM32H7xx_HAL_Driver/Src/stm32h7xx_hal_pwr.c ****   *                 PWR_WAKEUP_PIN2_HIGH, PWR_WAKEUP_PIN2_LOW,
 527:HAL_Lib/STM32H7xx_HAL_Driver/Src/stm32h7xx_hal_pwr.c ****   *                 PWR_WAKEUP_PIN3_HIGH, PWR_WAKEUP_PIN3_LOW,
 528:HAL_Lib/STM32H7xx_HAL_Driver/Src/stm32h7xx_hal_pwr.c ****   *                 PWR_WAKEUP_PIN4_HIGH, PWR_WAKEUP_PIN4_LOW,
 529:HAL_Lib/STM32H7xx_HAL_Driver/Src/stm32h7xx_hal_pwr.c ****   *                 PWR_WAKEUP_PIN5_HIGH, PWR_WAKEUP_PIN5_LOW,
 530:HAL_Lib/STM32H7xx_HAL_Driver/Src/stm32h7xx_hal_pwr.c ****   *                 PWR_WAKEUP_PIN6_HIGH, PWR_WAKEUP_PIN6_LOW.
 531:HAL_Lib/STM32H7xx_HAL_Driver/Src/stm32h7xx_hal_pwr.c ****   * @note   The PWR_WAKEUP_PIN3_HIGH, PWR_WAKEUP_PIN3_LOW, PWR_WAKEUP_PIN5_HIGH
 532:HAL_Lib/STM32H7xx_HAL_Driver/Src/stm32h7xx_hal_pwr.c ****   *         and PWR_WAKEUP_PIN5_LOW are available only for devices that includes
 533:HAL_Lib/STM32H7xx_HAL_Driver/Src/stm32h7xx_hal_pwr.c ****   *         GPIOI port.
 534:HAL_Lib/STM32H7xx_HAL_Driver/Src/stm32h7xx_hal_pwr.c ****   * @retval None.
 535:HAL_Lib/STM32H7xx_HAL_Driver/Src/stm32h7xx_hal_pwr.c ****   */
 536:HAL_Lib/STM32H7xx_HAL_Driver/Src/stm32h7xx_hal_pwr.c **** void HAL_PWR_DisableWakeUpPin (uint32_t WakeUpPinx)
 537:HAL_Lib/STM32H7xx_HAL_Driver/Src/stm32h7xx_hal_pwr.c **** {
 307              		.loc 1 537 1 is_stmt 1 view -0
 308              		.cfi_startproc
 309              		@ args = 0, pretend = 0, frame = 0
 310              		@ frame_needed = 0, uses_anonymous_args = 0
 311              		@ link register save eliminated.
 538:HAL_Lib/STM32H7xx_HAL_Driver/Src/stm32h7xx_hal_pwr.c ****   /* Check the parameters */
 539:HAL_Lib/STM32H7xx_HAL_Driver/Src/stm32h7xx_hal_pwr.c ****   assert_param (IS_PWR_WAKEUP_PIN (WakeUpPinx));
 312              		.loc 1 539 3 view .LVU48
 540:HAL_Lib/STM32H7xx_HAL_Driver/Src/stm32h7xx_hal_pwr.c **** 
 541:HAL_Lib/STM32H7xx_HAL_Driver/Src/stm32h7xx_hal_pwr.c ****   /* Disable the wake up pin selected */
 542:HAL_Lib/STM32H7xx_HAL_Driver/Src/stm32h7xx_hal_pwr.c ****   CLEAR_BIT (PWR->WKUPEPR, (PWR_WKUPEPR_WKUPEN & WakeUpPinx));
 313              		.loc 1 542 3 view .LVU49
 314 0000 034A     		ldr	r2, .L25
 315 0002 936A     		ldr	r3, [r2, #40]
 316 0004 00F03F00 		and	r0, r0, #63
 317              	.LVL5:
 318              		.loc 1 542 3 is_stmt 0 view .LVU50
 319 0008 23EA0003 		bic	r3, r3, r0
 320 000c 9362     		str	r3, [r2, #40]
 543:HAL_Lib/STM32H7xx_HAL_Driver/Src/stm32h7xx_hal_pwr.c **** }
 321              		.loc 1 543 1 view .LVU51
 322 000e 7047     		bx	lr
 323              	.L26:
 324              		.align	2
 325              	.L25:
 326 0010 00480258 		.word	1476544512
 327              		.cfi_endproc
ARM GAS  /var/folders/8_/_8bzxkcs1296m80nzxdrn9q80000gn/T//cct2bcP8.s 			page 16


 328              	.LFE151:
 330              		.section	.text.HAL_PWR_EnterSLEEPMode,"ax",%progbits
 331              		.align	1
 332              		.global	HAL_PWR_EnterSLEEPMode
 333              		.syntax unified
 334              		.thumb
 335              		.thumb_func
 336              		.fpu fpv5-d16
 338              	HAL_PWR_EnterSLEEPMode:
 339              	.LVL6:
 340              	.LFB152:
 544:HAL_Lib/STM32H7xx_HAL_Driver/Src/stm32h7xx_hal_pwr.c **** 
 545:HAL_Lib/STM32H7xx_HAL_Driver/Src/stm32h7xx_hal_pwr.c **** /**
 546:HAL_Lib/STM32H7xx_HAL_Driver/Src/stm32h7xx_hal_pwr.c ****   * @brief  Enter the current core in SLEEP mode (CSLEEP).
 547:HAL_Lib/STM32H7xx_HAL_Driver/Src/stm32h7xx_hal_pwr.c ****   * @param  Regulator : Specifies the regulator state in SLEEP mode.
 548:HAL_Lib/STM32H7xx_HAL_Driver/Src/stm32h7xx_hal_pwr.c ****   *          This parameter can be one of the following values:
 549:HAL_Lib/STM32H7xx_HAL_Driver/Src/stm32h7xx_hal_pwr.c ****   *            @arg PWR_MAINREGULATOR_ON     : SLEEP mode with regulator ON.
 550:HAL_Lib/STM32H7xx_HAL_Driver/Src/stm32h7xx_hal_pwr.c ****   *            @arg PWR_LOWPOWERREGULATOR_ON : SLEEP mode with low power
 551:HAL_Lib/STM32H7xx_HAL_Driver/Src/stm32h7xx_hal_pwr.c ****   *                                           regulator ON.
 552:HAL_Lib/STM32H7xx_HAL_Driver/Src/stm32h7xx_hal_pwr.c ****   * @note   This parameter is not used for the STM32H7 family and is kept as
 553:HAL_Lib/STM32H7xx_HAL_Driver/Src/stm32h7xx_hal_pwr.c ****   *         parameter just to maintain compatibility with the lower power
 554:HAL_Lib/STM32H7xx_HAL_Driver/Src/stm32h7xx_hal_pwr.c ****   *         families.
 555:HAL_Lib/STM32H7xx_HAL_Driver/Src/stm32h7xx_hal_pwr.c ****   * @param  SLEEPEntry : Specifies if SLEEP mode is entered with WFI or WFE
 556:HAL_Lib/STM32H7xx_HAL_Driver/Src/stm32h7xx_hal_pwr.c ****   *                      intrinsic instruction.
 557:HAL_Lib/STM32H7xx_HAL_Driver/Src/stm32h7xx_hal_pwr.c ****   *          This parameter can be one of the following values:
 558:HAL_Lib/STM32H7xx_HAL_Driver/Src/stm32h7xx_hal_pwr.c ****   *            @arg PWR_SLEEPENTRY_WFI : enter SLEEP mode with WFI instruction.
 559:HAL_Lib/STM32H7xx_HAL_Driver/Src/stm32h7xx_hal_pwr.c ****   *            @arg PWR_SLEEPENTRY_WFE : enter SLEEP mode with WFE instruction.
 560:HAL_Lib/STM32H7xx_HAL_Driver/Src/stm32h7xx_hal_pwr.c ****   * @note   Ensure to clear pending events before calling this API through
 561:HAL_Lib/STM32H7xx_HAL_Driver/Src/stm32h7xx_hal_pwr.c ****   *         HAL_PWREx_ClearPendingEvent() when the SLEEP entry is WFE.
 562:HAL_Lib/STM32H7xx_HAL_Driver/Src/stm32h7xx_hal_pwr.c ****   * @retval None.
 563:HAL_Lib/STM32H7xx_HAL_Driver/Src/stm32h7xx_hal_pwr.c ****   */
 564:HAL_Lib/STM32H7xx_HAL_Driver/Src/stm32h7xx_hal_pwr.c **** void HAL_PWR_EnterSLEEPMode (uint32_t Regulator, uint8_t SLEEPEntry)
 565:HAL_Lib/STM32H7xx_HAL_Driver/Src/stm32h7xx_hal_pwr.c **** {
 341              		.loc 1 565 1 is_stmt 1 view -0
 342              		.cfi_startproc
 343              		@ args = 0, pretend = 0, frame = 0
 344              		@ frame_needed = 0, uses_anonymous_args = 0
 345              		@ link register save eliminated.
 566:HAL_Lib/STM32H7xx_HAL_Driver/Src/stm32h7xx_hal_pwr.c ****   /* Check the parameters */
 567:HAL_Lib/STM32H7xx_HAL_Driver/Src/stm32h7xx_hal_pwr.c ****   assert_param (IS_PWR_REGULATOR (Regulator));
 346              		.loc 1 567 3 view .LVU53
 568:HAL_Lib/STM32H7xx_HAL_Driver/Src/stm32h7xx_hal_pwr.c ****   assert_param (IS_PWR_SLEEP_ENTRY (SLEEPEntry));
 347              		.loc 1 568 3 view .LVU54
 569:HAL_Lib/STM32H7xx_HAL_Driver/Src/stm32h7xx_hal_pwr.c **** 
 570:HAL_Lib/STM32H7xx_HAL_Driver/Src/stm32h7xx_hal_pwr.c ****   /* Clear SLEEPDEEP bit of Cortex System Control Register */
 571:HAL_Lib/STM32H7xx_HAL_Driver/Src/stm32h7xx_hal_pwr.c ****   CLEAR_BIT (SCB->SCR, SCB_SCR_SLEEPDEEP_Msk);
 348              		.loc 1 571 3 view .LVU55
 349 0000 054A     		ldr	r2, .L31
 350 0002 1369     		ldr	r3, [r2, #16]
 351 0004 23F00403 		bic	r3, r3, #4
 352 0008 1361     		str	r3, [r2, #16]
 572:HAL_Lib/STM32H7xx_HAL_Driver/Src/stm32h7xx_hal_pwr.c **** 
 573:HAL_Lib/STM32H7xx_HAL_Driver/Src/stm32h7xx_hal_pwr.c ****   /* Select SLEEP mode entry */
 574:HAL_Lib/STM32H7xx_HAL_Driver/Src/stm32h7xx_hal_pwr.c ****   if (SLEEPEntry == PWR_SLEEPENTRY_WFI)
 353              		.loc 1 574 3 view .LVU56
 354              		.loc 1 574 6 is_stmt 0 view .LVU57
 355 000a 0129     		cmp	r1, #1
ARM GAS  /var/folders/8_/_8bzxkcs1296m80nzxdrn9q80000gn/T//cct2bcP8.s 			page 17


 356 000c 01D0     		beq	.L30
 575:HAL_Lib/STM32H7xx_HAL_Driver/Src/stm32h7xx_hal_pwr.c ****   {
 576:HAL_Lib/STM32H7xx_HAL_Driver/Src/stm32h7xx_hal_pwr.c ****     /* Request Wait For Interrupt */
 577:HAL_Lib/STM32H7xx_HAL_Driver/Src/stm32h7xx_hal_pwr.c ****     __WFI ();
 578:HAL_Lib/STM32H7xx_HAL_Driver/Src/stm32h7xx_hal_pwr.c ****   }
 579:HAL_Lib/STM32H7xx_HAL_Driver/Src/stm32h7xx_hal_pwr.c ****   else
 580:HAL_Lib/STM32H7xx_HAL_Driver/Src/stm32h7xx_hal_pwr.c ****   {
 581:HAL_Lib/STM32H7xx_HAL_Driver/Src/stm32h7xx_hal_pwr.c ****     /* Request Wait For Event */
 582:HAL_Lib/STM32H7xx_HAL_Driver/Src/stm32h7xx_hal_pwr.c ****     __WFE ();
 357              		.loc 1 582 5 is_stmt 1 view .LVU58
 358              		.syntax unified
 359              	@ 582 "HAL_Lib/STM32H7xx_HAL_Driver/Src/stm32h7xx_hal_pwr.c" 1
 360 000e 20BF     		wfe
 361              	@ 0 "" 2
 583:HAL_Lib/STM32H7xx_HAL_Driver/Src/stm32h7xx_hal_pwr.c ****   }
 584:HAL_Lib/STM32H7xx_HAL_Driver/Src/stm32h7xx_hal_pwr.c **** }
 362              		.loc 1 584 1 is_stmt 0 view .LVU59
 363              		.thumb
 364              		.syntax unified
 365 0010 7047     		bx	lr
 366              	.L30:
 577:HAL_Lib/STM32H7xx_HAL_Driver/Src/stm32h7xx_hal_pwr.c ****   }
 367              		.loc 1 577 5 is_stmt 1 view .LVU60
 368              		.syntax unified
 369              	@ 577 "HAL_Lib/STM32H7xx_HAL_Driver/Src/stm32h7xx_hal_pwr.c" 1
 370 0012 30BF     		wfi
 371              	@ 0 "" 2
 372              		.thumb
 373              		.syntax unified
 374 0014 7047     		bx	lr
 375              	.L32:
 376 0016 00BF     		.align	2
 377              	.L31:
 378 0018 00ED00E0 		.word	-536810240
 379              		.cfi_endproc
 380              	.LFE152:
 382              		.section	.text.HAL_PWR_EnterSTOPMode,"ax",%progbits
 383              		.align	1
 384              		.global	HAL_PWR_EnterSTOPMode
 385              		.syntax unified
 386              		.thumb
 387              		.thumb_func
 388              		.fpu fpv5-d16
 390              	HAL_PWR_EnterSTOPMode:
 391              	.LVL7:
 392              	.LFB153:
 585:HAL_Lib/STM32H7xx_HAL_Driver/Src/stm32h7xx_hal_pwr.c **** 
 586:HAL_Lib/STM32H7xx_HAL_Driver/Src/stm32h7xx_hal_pwr.c **** /**
 587:HAL_Lib/STM32H7xx_HAL_Driver/Src/stm32h7xx_hal_pwr.c ****   * @brief  Enter STOP mode.
 588:HAL_Lib/STM32H7xx_HAL_Driver/Src/stm32h7xx_hal_pwr.c ****   * @note   For single core devices, this API will enter the system in STOP mode
 589:HAL_Lib/STM32H7xx_HAL_Driver/Src/stm32h7xx_hal_pwr.c ****   *         with all domains in DSTOP, if RUN_D3/RUN_SRD bit in CPUCR register is
 590:HAL_Lib/STM32H7xx_HAL_Driver/Src/stm32h7xx_hal_pwr.c ****   *         cleared.
 591:HAL_Lib/STM32H7xx_HAL_Driver/Src/stm32h7xx_hal_pwr.c ****   *         For dual core devices, this API will enter the domain (containing
 592:HAL_Lib/STM32H7xx_HAL_Driver/Src/stm32h7xx_hal_pwr.c ****   *         Cortex-Mx that executing this function) in DSTOP mode. If all
 593:HAL_Lib/STM32H7xx_HAL_Driver/Src/stm32h7xx_hal_pwr.c ****   *         Cortex-Mx domains are in DSTOP and RUN_D3 bit in CPUCR register is
 594:HAL_Lib/STM32H7xx_HAL_Driver/Src/stm32h7xx_hal_pwr.c ****   *         cleared, all the system will enter in STOP mode.
 595:HAL_Lib/STM32H7xx_HAL_Driver/Src/stm32h7xx_hal_pwr.c ****   * @param  Regulator : Specifies the regulator state in STOP mode.
ARM GAS  /var/folders/8_/_8bzxkcs1296m80nzxdrn9q80000gn/T//cct2bcP8.s 			page 18


 596:HAL_Lib/STM32H7xx_HAL_Driver/Src/stm32h7xx_hal_pwr.c ****   *          This parameter can be one of the following values:
 597:HAL_Lib/STM32H7xx_HAL_Driver/Src/stm32h7xx_hal_pwr.c ****   *            @arg PWR_MAINREGULATOR_ON     : STOP mode with regulator ON.
 598:HAL_Lib/STM32H7xx_HAL_Driver/Src/stm32h7xx_hal_pwr.c ****   *            @arg PWR_LOWPOWERREGULATOR_ON : STOP mode with low power
 599:HAL_Lib/STM32H7xx_HAL_Driver/Src/stm32h7xx_hal_pwr.c ****   *                                            regulator ON.
 600:HAL_Lib/STM32H7xx_HAL_Driver/Src/stm32h7xx_hal_pwr.c ****   * @param  STOPEntry : Specifies if STOP mode in entered with WFI or WFE
 601:HAL_Lib/STM32H7xx_HAL_Driver/Src/stm32h7xx_hal_pwr.c ****   *                     intrinsic instruction.
 602:HAL_Lib/STM32H7xx_HAL_Driver/Src/stm32h7xx_hal_pwr.c ****   *          This parameter can be one of the following values:
 603:HAL_Lib/STM32H7xx_HAL_Driver/Src/stm32h7xx_hal_pwr.c ****   *            @arg PWR_STOPENTRY_WFI : Enter STOP mode with WFI instruction.
 604:HAL_Lib/STM32H7xx_HAL_Driver/Src/stm32h7xx_hal_pwr.c ****   *            @arg PWR_STOPENTRY_WFE : Enter STOP mode with WFE instruction.
 605:HAL_Lib/STM32H7xx_HAL_Driver/Src/stm32h7xx_hal_pwr.c ****   * @note   In System STOP mode, all I/O pins keep the same state as in Run mode.
 606:HAL_Lib/STM32H7xx_HAL_Driver/Src/stm32h7xx_hal_pwr.c ****   * @note   When exiting System STOP mode by issuing an interrupt or a wakeup
 607:HAL_Lib/STM32H7xx_HAL_Driver/Src/stm32h7xx_hal_pwr.c ****   *         event, the HSI RC oscillator is selected as default system wakeup
 608:HAL_Lib/STM32H7xx_HAL_Driver/Src/stm32h7xx_hal_pwr.c ****   *         clock.
 609:HAL_Lib/STM32H7xx_HAL_Driver/Src/stm32h7xx_hal_pwr.c ****   * @note   In System STOP mode, when the voltage regulator operates in low
 610:HAL_Lib/STM32H7xx_HAL_Driver/Src/stm32h7xx_hal_pwr.c ****   *         power mode, an additional startup delay is incurred when the system
 611:HAL_Lib/STM32H7xx_HAL_Driver/Src/stm32h7xx_hal_pwr.c ****   *         is waking up. By keeping the internal regulator ON during STOP mode,
 612:HAL_Lib/STM32H7xx_HAL_Driver/Src/stm32h7xx_hal_pwr.c ****   *         the consumption is higher although the startup time is reduced.
 613:HAL_Lib/STM32H7xx_HAL_Driver/Src/stm32h7xx_hal_pwr.c ****   * @retval None.
 614:HAL_Lib/STM32H7xx_HAL_Driver/Src/stm32h7xx_hal_pwr.c ****   */
 615:HAL_Lib/STM32H7xx_HAL_Driver/Src/stm32h7xx_hal_pwr.c **** void HAL_PWR_EnterSTOPMode (uint32_t Regulator, uint8_t STOPEntry)
 616:HAL_Lib/STM32H7xx_HAL_Driver/Src/stm32h7xx_hal_pwr.c **** {
 393              		.loc 1 616 1 view -0
 394              		.cfi_startproc
 395              		@ args = 0, pretend = 0, frame = 0
 396              		@ frame_needed = 0, uses_anonymous_args = 0
 397              		@ link register save eliminated.
 617:HAL_Lib/STM32H7xx_HAL_Driver/Src/stm32h7xx_hal_pwr.c ****   /* Check the parameters */
 618:HAL_Lib/STM32H7xx_HAL_Driver/Src/stm32h7xx_hal_pwr.c ****   assert_param (IS_PWR_REGULATOR (Regulator));
 398              		.loc 1 618 3 view .LVU62
 619:HAL_Lib/STM32H7xx_HAL_Driver/Src/stm32h7xx_hal_pwr.c ****   assert_param (IS_PWR_STOP_ENTRY (STOPEntry));
 399              		.loc 1 619 3 view .LVU63
 620:HAL_Lib/STM32H7xx_HAL_Driver/Src/stm32h7xx_hal_pwr.c **** 
 621:HAL_Lib/STM32H7xx_HAL_Driver/Src/stm32h7xx_hal_pwr.c ****   /* Select the regulator state in STOP mode */
 622:HAL_Lib/STM32H7xx_HAL_Driver/Src/stm32h7xx_hal_pwr.c ****   MODIFY_REG (PWR->CR1, PWR_CR1_LPDS, Regulator);
 400              		.loc 1 622 3 view .LVU64
 401 0000 104B     		ldr	r3, .L37
 402 0002 1A68     		ldr	r2, [r3]
 403 0004 22F00102 		bic	r2, r2, #1
 404 0008 0243     		orrs	r2, r2, r0
 405 000a 1A60     		str	r2, [r3]
 623:HAL_Lib/STM32H7xx_HAL_Driver/Src/stm32h7xx_hal_pwr.c **** 
 624:HAL_Lib/STM32H7xx_HAL_Driver/Src/stm32h7xx_hal_pwr.c ****   /* Configure the PWR mode for the different Domains */
 625:HAL_Lib/STM32H7xx_HAL_Driver/Src/stm32h7xx_hal_pwr.c **** #if defined (DUAL_CORE)
 626:HAL_Lib/STM32H7xx_HAL_Driver/Src/stm32h7xx_hal_pwr.c ****   /* Check CPU ID */
 627:HAL_Lib/STM32H7xx_HAL_Driver/Src/stm32h7xx_hal_pwr.c ****   if (HAL_GetCurrentCPUID () == CM7_CPUID)
 628:HAL_Lib/STM32H7xx_HAL_Driver/Src/stm32h7xx_hal_pwr.c ****   {
 629:HAL_Lib/STM32H7xx_HAL_Driver/Src/stm32h7xx_hal_pwr.c ****     /* Keep DSTOP mode when Cortex-M7 enters DEEP-SLEEP */
 630:HAL_Lib/STM32H7xx_HAL_Driver/Src/stm32h7xx_hal_pwr.c ****     CLEAR_BIT (PWR->CPUCR, (PWR_CPUCR_PDDS_D1 | PWR_CPUCR_PDDS_D3));
 631:HAL_Lib/STM32H7xx_HAL_Driver/Src/stm32h7xx_hal_pwr.c ****   }
 632:HAL_Lib/STM32H7xx_HAL_Driver/Src/stm32h7xx_hal_pwr.c ****   else
 633:HAL_Lib/STM32H7xx_HAL_Driver/Src/stm32h7xx_hal_pwr.c ****   {
 634:HAL_Lib/STM32H7xx_HAL_Driver/Src/stm32h7xx_hal_pwr.c ****     /* Keep DSTOP mode when Cortex-M4 enters DEEP-SLEEP */
 635:HAL_Lib/STM32H7xx_HAL_Driver/Src/stm32h7xx_hal_pwr.c ****     CLEAR_BIT (PWR->CPUCR, (PWR_CPUCR_PDDS_D2 | PWR_CPUCR_PDDS_D3));
 636:HAL_Lib/STM32H7xx_HAL_Driver/Src/stm32h7xx_hal_pwr.c ****   }
 637:HAL_Lib/STM32H7xx_HAL_Driver/Src/stm32h7xx_hal_pwr.c **** #else /* Single core devices */
 638:HAL_Lib/STM32H7xx_HAL_Driver/Src/stm32h7xx_hal_pwr.c ****   /* Keep DSTOP mode when Cortex-M7 enter in DEEP-SLEEP */
 639:HAL_Lib/STM32H7xx_HAL_Driver/Src/stm32h7xx_hal_pwr.c ****   CLEAR_BIT (PWR->CPUCR, (PWR_CPUCR_PDDS_D1 | PWR_CPUCR_PDDS_D3));
ARM GAS  /var/folders/8_/_8bzxkcs1296m80nzxdrn9q80000gn/T//cct2bcP8.s 			page 19


 406              		.loc 1 639 3 view .LVU65
 407 000c 1A69     		ldr	r2, [r3, #16]
 408 000e 22F00502 		bic	r2, r2, #5
 409 0012 1A61     		str	r2, [r3, #16]
 640:HAL_Lib/STM32H7xx_HAL_Driver/Src/stm32h7xx_hal_pwr.c **** 
 641:HAL_Lib/STM32H7xx_HAL_Driver/Src/stm32h7xx_hal_pwr.c **** #if defined (PWR_CPUCR_PDDS_D2)
 642:HAL_Lib/STM32H7xx_HAL_Driver/Src/stm32h7xx_hal_pwr.c ****   /* Keep DSTOP mode when Cortex-M7 enter in DEEP-SLEEP */
 643:HAL_Lib/STM32H7xx_HAL_Driver/Src/stm32h7xx_hal_pwr.c ****   CLEAR_BIT (PWR->CPUCR, PWR_CPUCR_PDDS_D2);
 410              		.loc 1 643 3 view .LVU66
 411 0014 1A69     		ldr	r2, [r3, #16]
 412 0016 22F00202 		bic	r2, r2, #2
 413 001a 1A61     		str	r2, [r3, #16]
 644:HAL_Lib/STM32H7xx_HAL_Driver/Src/stm32h7xx_hal_pwr.c **** #endif /* PWR_CPUCR_PDDS_D2 */
 645:HAL_Lib/STM32H7xx_HAL_Driver/Src/stm32h7xx_hal_pwr.c **** #endif /* defined (DUAL_CORE) */
 646:HAL_Lib/STM32H7xx_HAL_Driver/Src/stm32h7xx_hal_pwr.c **** 
 647:HAL_Lib/STM32H7xx_HAL_Driver/Src/stm32h7xx_hal_pwr.c ****   /* Set SLEEPDEEP bit of Cortex System Control Register */
 648:HAL_Lib/STM32H7xx_HAL_Driver/Src/stm32h7xx_hal_pwr.c ****   SET_BIT (SCB->SCR, SCB_SCR_SLEEPDEEP_Msk);
 414              		.loc 1 648 3 view .LVU67
 415 001c 0A4A     		ldr	r2, .L37+4
 416 001e 1369     		ldr	r3, [r2, #16]
 417 0020 43F00403 		orr	r3, r3, #4
 418 0024 1361     		str	r3, [r2, #16]
 649:HAL_Lib/STM32H7xx_HAL_Driver/Src/stm32h7xx_hal_pwr.c **** 
 650:HAL_Lib/STM32H7xx_HAL_Driver/Src/stm32h7xx_hal_pwr.c ****   /* Ensure that all instructions are done before entering STOP mode */
 651:HAL_Lib/STM32H7xx_HAL_Driver/Src/stm32h7xx_hal_pwr.c ****   __DSB ();
 419              		.loc 1 651 3 view .LVU68
 420              	.LBB10:
 421              	.LBI10:
 422              		.file 2 "HAL_Lib/CMSIS/Core/Include/cmsis_gcc.h"
   1:HAL_Lib/CMSIS/Core/Include/cmsis_gcc.h **** /**************************************************************************//**
   2:HAL_Lib/CMSIS/Core/Include/cmsis_gcc.h ****  * @file     cmsis_gcc.h
   3:HAL_Lib/CMSIS/Core/Include/cmsis_gcc.h ****  * @brief    CMSIS compiler GCC header file
   4:HAL_Lib/CMSIS/Core/Include/cmsis_gcc.h ****  * @version  V5.2.0
   5:HAL_Lib/CMSIS/Core/Include/cmsis_gcc.h ****  * @date     08. May 2019
   6:HAL_Lib/CMSIS/Core/Include/cmsis_gcc.h ****  ******************************************************************************/
   7:HAL_Lib/CMSIS/Core/Include/cmsis_gcc.h **** /*
   8:HAL_Lib/CMSIS/Core/Include/cmsis_gcc.h ****  * Copyright (c) 2009-2019 Arm Limited. All rights reserved.
   9:HAL_Lib/CMSIS/Core/Include/cmsis_gcc.h ****  *
  10:HAL_Lib/CMSIS/Core/Include/cmsis_gcc.h ****  * SPDX-License-Identifier: Apache-2.0
  11:HAL_Lib/CMSIS/Core/Include/cmsis_gcc.h ****  *
  12:HAL_Lib/CMSIS/Core/Include/cmsis_gcc.h ****  * Licensed under the Apache License, Version 2.0 (the License); you may
  13:HAL_Lib/CMSIS/Core/Include/cmsis_gcc.h ****  * not use this file except in compliance with the License.
  14:HAL_Lib/CMSIS/Core/Include/cmsis_gcc.h ****  * You may obtain a copy of the License at
  15:HAL_Lib/CMSIS/Core/Include/cmsis_gcc.h ****  *
  16:HAL_Lib/CMSIS/Core/Include/cmsis_gcc.h ****  * www.apache.org/licenses/LICENSE-2.0
  17:HAL_Lib/CMSIS/Core/Include/cmsis_gcc.h ****  *
  18:HAL_Lib/CMSIS/Core/Include/cmsis_gcc.h ****  * Unless required by applicable law or agreed to in writing, software
  19:HAL_Lib/CMSIS/Core/Include/cmsis_gcc.h ****  * distributed under the License is distributed on an AS IS BASIS, WITHOUT
  20:HAL_Lib/CMSIS/Core/Include/cmsis_gcc.h ****  * WARRANTIES OR CONDITIONS OF ANY KIND, either express or implied.
  21:HAL_Lib/CMSIS/Core/Include/cmsis_gcc.h ****  * See the License for the specific language governing permissions and
  22:HAL_Lib/CMSIS/Core/Include/cmsis_gcc.h ****  * limitations under the License.
  23:HAL_Lib/CMSIS/Core/Include/cmsis_gcc.h ****  */
  24:HAL_Lib/CMSIS/Core/Include/cmsis_gcc.h **** 
  25:HAL_Lib/CMSIS/Core/Include/cmsis_gcc.h **** #ifndef __CMSIS_GCC_H
  26:HAL_Lib/CMSIS/Core/Include/cmsis_gcc.h **** #define __CMSIS_GCC_H
  27:HAL_Lib/CMSIS/Core/Include/cmsis_gcc.h **** 
  28:HAL_Lib/CMSIS/Core/Include/cmsis_gcc.h **** /* ignore some GCC warnings */
ARM GAS  /var/folders/8_/_8bzxkcs1296m80nzxdrn9q80000gn/T//cct2bcP8.s 			page 20


  29:HAL_Lib/CMSIS/Core/Include/cmsis_gcc.h **** #pragma GCC diagnostic push
  30:HAL_Lib/CMSIS/Core/Include/cmsis_gcc.h **** #pragma GCC diagnostic ignored "-Wsign-conversion"
  31:HAL_Lib/CMSIS/Core/Include/cmsis_gcc.h **** #pragma GCC diagnostic ignored "-Wconversion"
  32:HAL_Lib/CMSIS/Core/Include/cmsis_gcc.h **** #pragma GCC diagnostic ignored "-Wunused-parameter"
  33:HAL_Lib/CMSIS/Core/Include/cmsis_gcc.h **** 
  34:HAL_Lib/CMSIS/Core/Include/cmsis_gcc.h **** /* Fallback for __has_builtin */
  35:HAL_Lib/CMSIS/Core/Include/cmsis_gcc.h **** #ifndef __has_builtin
  36:HAL_Lib/CMSIS/Core/Include/cmsis_gcc.h ****   #define __has_builtin(x) (0)
  37:HAL_Lib/CMSIS/Core/Include/cmsis_gcc.h **** #endif
  38:HAL_Lib/CMSIS/Core/Include/cmsis_gcc.h **** 
  39:HAL_Lib/CMSIS/Core/Include/cmsis_gcc.h **** /* CMSIS compiler specific defines */
  40:HAL_Lib/CMSIS/Core/Include/cmsis_gcc.h **** #ifndef   __ASM
  41:HAL_Lib/CMSIS/Core/Include/cmsis_gcc.h ****   #define __ASM                                  __asm
  42:HAL_Lib/CMSIS/Core/Include/cmsis_gcc.h **** #endif
  43:HAL_Lib/CMSIS/Core/Include/cmsis_gcc.h **** #ifndef   __INLINE
  44:HAL_Lib/CMSIS/Core/Include/cmsis_gcc.h ****   #define __INLINE                               inline
  45:HAL_Lib/CMSIS/Core/Include/cmsis_gcc.h **** #endif
  46:HAL_Lib/CMSIS/Core/Include/cmsis_gcc.h **** #ifndef   __STATIC_INLINE
  47:HAL_Lib/CMSIS/Core/Include/cmsis_gcc.h ****   #define __STATIC_INLINE                        static inline
  48:HAL_Lib/CMSIS/Core/Include/cmsis_gcc.h **** #endif
  49:HAL_Lib/CMSIS/Core/Include/cmsis_gcc.h **** #ifndef   __STATIC_FORCEINLINE                 
  50:HAL_Lib/CMSIS/Core/Include/cmsis_gcc.h ****   #define __STATIC_FORCEINLINE                   __attribute__((always_inline)) static inline
  51:HAL_Lib/CMSIS/Core/Include/cmsis_gcc.h **** #endif                                           
  52:HAL_Lib/CMSIS/Core/Include/cmsis_gcc.h **** #ifndef   __NO_RETURN
  53:HAL_Lib/CMSIS/Core/Include/cmsis_gcc.h ****   #define __NO_RETURN                            __attribute__((__noreturn__))
  54:HAL_Lib/CMSIS/Core/Include/cmsis_gcc.h **** #endif
  55:HAL_Lib/CMSIS/Core/Include/cmsis_gcc.h **** #ifndef   __USED
  56:HAL_Lib/CMSIS/Core/Include/cmsis_gcc.h ****   #define __USED                                 __attribute__((used))
  57:HAL_Lib/CMSIS/Core/Include/cmsis_gcc.h **** #endif
  58:HAL_Lib/CMSIS/Core/Include/cmsis_gcc.h **** #ifndef   __WEAK
  59:HAL_Lib/CMSIS/Core/Include/cmsis_gcc.h ****   #define __WEAK                                 __attribute__((weak))
  60:HAL_Lib/CMSIS/Core/Include/cmsis_gcc.h **** #endif
  61:HAL_Lib/CMSIS/Core/Include/cmsis_gcc.h **** #ifndef   __PACKED
  62:HAL_Lib/CMSIS/Core/Include/cmsis_gcc.h ****   #define __PACKED                               __attribute__((packed, aligned(1)))
  63:HAL_Lib/CMSIS/Core/Include/cmsis_gcc.h **** #endif
  64:HAL_Lib/CMSIS/Core/Include/cmsis_gcc.h **** #ifndef   __PACKED_STRUCT
  65:HAL_Lib/CMSIS/Core/Include/cmsis_gcc.h ****   #define __PACKED_STRUCT                        struct __attribute__((packed, aligned(1)))
  66:HAL_Lib/CMSIS/Core/Include/cmsis_gcc.h **** #endif
  67:HAL_Lib/CMSIS/Core/Include/cmsis_gcc.h **** #ifndef   __PACKED_UNION
  68:HAL_Lib/CMSIS/Core/Include/cmsis_gcc.h ****   #define __PACKED_UNION                         union __attribute__((packed, aligned(1)))
  69:HAL_Lib/CMSIS/Core/Include/cmsis_gcc.h **** #endif
  70:HAL_Lib/CMSIS/Core/Include/cmsis_gcc.h **** #ifndef   __UNALIGNED_UINT32        /* deprecated */
  71:HAL_Lib/CMSIS/Core/Include/cmsis_gcc.h ****   #pragma GCC diagnostic push
  72:HAL_Lib/CMSIS/Core/Include/cmsis_gcc.h ****   #pragma GCC diagnostic ignored "-Wpacked"
  73:HAL_Lib/CMSIS/Core/Include/cmsis_gcc.h ****   #pragma GCC diagnostic ignored "-Wattributes"
  74:HAL_Lib/CMSIS/Core/Include/cmsis_gcc.h ****   struct __attribute__((packed)) T_UINT32 { uint32_t v; };
  75:HAL_Lib/CMSIS/Core/Include/cmsis_gcc.h ****   #pragma GCC diagnostic pop
  76:HAL_Lib/CMSIS/Core/Include/cmsis_gcc.h ****   #define __UNALIGNED_UINT32(x)                  (((struct T_UINT32 *)(x))->v)
  77:HAL_Lib/CMSIS/Core/Include/cmsis_gcc.h **** #endif
  78:HAL_Lib/CMSIS/Core/Include/cmsis_gcc.h **** #ifndef   __UNALIGNED_UINT16_WRITE
  79:HAL_Lib/CMSIS/Core/Include/cmsis_gcc.h ****   #pragma GCC diagnostic push
  80:HAL_Lib/CMSIS/Core/Include/cmsis_gcc.h ****   #pragma GCC diagnostic ignored "-Wpacked"
  81:HAL_Lib/CMSIS/Core/Include/cmsis_gcc.h ****   #pragma GCC diagnostic ignored "-Wattributes"
  82:HAL_Lib/CMSIS/Core/Include/cmsis_gcc.h ****   __PACKED_STRUCT T_UINT16_WRITE { uint16_t v; };
  83:HAL_Lib/CMSIS/Core/Include/cmsis_gcc.h ****   #pragma GCC diagnostic pop
  84:HAL_Lib/CMSIS/Core/Include/cmsis_gcc.h ****   #define __UNALIGNED_UINT16_WRITE(addr, val)    (void)((((struct T_UINT16_WRITE *)(void *)(addr))-
  85:HAL_Lib/CMSIS/Core/Include/cmsis_gcc.h **** #endif
ARM GAS  /var/folders/8_/_8bzxkcs1296m80nzxdrn9q80000gn/T//cct2bcP8.s 			page 21


  86:HAL_Lib/CMSIS/Core/Include/cmsis_gcc.h **** #ifndef   __UNALIGNED_UINT16_READ
  87:HAL_Lib/CMSIS/Core/Include/cmsis_gcc.h ****   #pragma GCC diagnostic push
  88:HAL_Lib/CMSIS/Core/Include/cmsis_gcc.h ****   #pragma GCC diagnostic ignored "-Wpacked"
  89:HAL_Lib/CMSIS/Core/Include/cmsis_gcc.h ****   #pragma GCC diagnostic ignored "-Wattributes"
  90:HAL_Lib/CMSIS/Core/Include/cmsis_gcc.h ****   __PACKED_STRUCT T_UINT16_READ { uint16_t v; };
  91:HAL_Lib/CMSIS/Core/Include/cmsis_gcc.h ****   #pragma GCC diagnostic pop
  92:HAL_Lib/CMSIS/Core/Include/cmsis_gcc.h ****   #define __UNALIGNED_UINT16_READ(addr)          (((const struct T_UINT16_READ *)(const void *)(add
  93:HAL_Lib/CMSIS/Core/Include/cmsis_gcc.h **** #endif
  94:HAL_Lib/CMSIS/Core/Include/cmsis_gcc.h **** #ifndef   __UNALIGNED_UINT32_WRITE
  95:HAL_Lib/CMSIS/Core/Include/cmsis_gcc.h ****   #pragma GCC diagnostic push
  96:HAL_Lib/CMSIS/Core/Include/cmsis_gcc.h ****   #pragma GCC diagnostic ignored "-Wpacked"
  97:HAL_Lib/CMSIS/Core/Include/cmsis_gcc.h ****   #pragma GCC diagnostic ignored "-Wattributes"
  98:HAL_Lib/CMSIS/Core/Include/cmsis_gcc.h ****   __PACKED_STRUCT T_UINT32_WRITE { uint32_t v; };
  99:HAL_Lib/CMSIS/Core/Include/cmsis_gcc.h ****   #pragma GCC diagnostic pop
 100:HAL_Lib/CMSIS/Core/Include/cmsis_gcc.h ****   #define __UNALIGNED_UINT32_WRITE(addr, val)    (void)((((struct T_UINT32_WRITE *)(void *)(addr))-
 101:HAL_Lib/CMSIS/Core/Include/cmsis_gcc.h **** #endif
 102:HAL_Lib/CMSIS/Core/Include/cmsis_gcc.h **** #ifndef   __UNALIGNED_UINT32_READ
 103:HAL_Lib/CMSIS/Core/Include/cmsis_gcc.h ****   #pragma GCC diagnostic push
 104:HAL_Lib/CMSIS/Core/Include/cmsis_gcc.h ****   #pragma GCC diagnostic ignored "-Wpacked"
 105:HAL_Lib/CMSIS/Core/Include/cmsis_gcc.h ****   #pragma GCC diagnostic ignored "-Wattributes"
 106:HAL_Lib/CMSIS/Core/Include/cmsis_gcc.h ****   __PACKED_STRUCT T_UINT32_READ { uint32_t v; };
 107:HAL_Lib/CMSIS/Core/Include/cmsis_gcc.h ****   #pragma GCC diagnostic pop
 108:HAL_Lib/CMSIS/Core/Include/cmsis_gcc.h ****   #define __UNALIGNED_UINT32_READ(addr)          (((const struct T_UINT32_READ *)(const void *)(add
 109:HAL_Lib/CMSIS/Core/Include/cmsis_gcc.h **** #endif
 110:HAL_Lib/CMSIS/Core/Include/cmsis_gcc.h **** #ifndef   __ALIGNED
 111:HAL_Lib/CMSIS/Core/Include/cmsis_gcc.h ****   #define __ALIGNED(x)                           __attribute__((aligned(x)))
 112:HAL_Lib/CMSIS/Core/Include/cmsis_gcc.h **** #endif
 113:HAL_Lib/CMSIS/Core/Include/cmsis_gcc.h **** #ifndef   __RESTRICT
 114:HAL_Lib/CMSIS/Core/Include/cmsis_gcc.h ****   #define __RESTRICT                             __restrict
 115:HAL_Lib/CMSIS/Core/Include/cmsis_gcc.h **** #endif
 116:HAL_Lib/CMSIS/Core/Include/cmsis_gcc.h **** #ifndef   __COMPILER_BARRIER
 117:HAL_Lib/CMSIS/Core/Include/cmsis_gcc.h ****   #define __COMPILER_BARRIER()                   __ASM volatile("":::"memory")
 118:HAL_Lib/CMSIS/Core/Include/cmsis_gcc.h **** #endif
 119:HAL_Lib/CMSIS/Core/Include/cmsis_gcc.h **** 
 120:HAL_Lib/CMSIS/Core/Include/cmsis_gcc.h **** /* #########################  Startup and Lowlevel Init  ######################## */
 121:HAL_Lib/CMSIS/Core/Include/cmsis_gcc.h **** 
 122:HAL_Lib/CMSIS/Core/Include/cmsis_gcc.h **** #ifndef __PROGRAM_START
 123:HAL_Lib/CMSIS/Core/Include/cmsis_gcc.h **** 
 124:HAL_Lib/CMSIS/Core/Include/cmsis_gcc.h **** /**
 125:HAL_Lib/CMSIS/Core/Include/cmsis_gcc.h ****   \brief   Initializes data and bss sections
 126:HAL_Lib/CMSIS/Core/Include/cmsis_gcc.h ****   \details This default implementations initialized all data and additional bss
 127:HAL_Lib/CMSIS/Core/Include/cmsis_gcc.h ****            sections relying on .copy.table and .zero.table specified properly
 128:HAL_Lib/CMSIS/Core/Include/cmsis_gcc.h ****            in the used linker script.
 129:HAL_Lib/CMSIS/Core/Include/cmsis_gcc.h ****   
 130:HAL_Lib/CMSIS/Core/Include/cmsis_gcc.h ****  */
 131:HAL_Lib/CMSIS/Core/Include/cmsis_gcc.h **** __STATIC_FORCEINLINE __NO_RETURN void __cmsis_start(void)
 132:HAL_Lib/CMSIS/Core/Include/cmsis_gcc.h **** {
 133:HAL_Lib/CMSIS/Core/Include/cmsis_gcc.h ****   extern void _start(void) __NO_RETURN;
 134:HAL_Lib/CMSIS/Core/Include/cmsis_gcc.h ****   
 135:HAL_Lib/CMSIS/Core/Include/cmsis_gcc.h ****   typedef struct {
 136:HAL_Lib/CMSIS/Core/Include/cmsis_gcc.h ****     uint32_t const* src;
 137:HAL_Lib/CMSIS/Core/Include/cmsis_gcc.h ****     uint32_t* dest;
 138:HAL_Lib/CMSIS/Core/Include/cmsis_gcc.h ****     uint32_t  wlen;
 139:HAL_Lib/CMSIS/Core/Include/cmsis_gcc.h ****   } __copy_table_t;
 140:HAL_Lib/CMSIS/Core/Include/cmsis_gcc.h ****   
 141:HAL_Lib/CMSIS/Core/Include/cmsis_gcc.h ****   typedef struct {
 142:HAL_Lib/CMSIS/Core/Include/cmsis_gcc.h ****     uint32_t* dest;
ARM GAS  /var/folders/8_/_8bzxkcs1296m80nzxdrn9q80000gn/T//cct2bcP8.s 			page 22


 143:HAL_Lib/CMSIS/Core/Include/cmsis_gcc.h ****     uint32_t  wlen;
 144:HAL_Lib/CMSIS/Core/Include/cmsis_gcc.h ****   } __zero_table_t;
 145:HAL_Lib/CMSIS/Core/Include/cmsis_gcc.h ****   
 146:HAL_Lib/CMSIS/Core/Include/cmsis_gcc.h ****   extern const __copy_table_t __copy_table_start__;
 147:HAL_Lib/CMSIS/Core/Include/cmsis_gcc.h ****   extern const __copy_table_t __copy_table_end__;
 148:HAL_Lib/CMSIS/Core/Include/cmsis_gcc.h ****   extern const __zero_table_t __zero_table_start__;
 149:HAL_Lib/CMSIS/Core/Include/cmsis_gcc.h ****   extern const __zero_table_t __zero_table_end__;
 150:HAL_Lib/CMSIS/Core/Include/cmsis_gcc.h **** 
 151:HAL_Lib/CMSIS/Core/Include/cmsis_gcc.h ****   for (__copy_table_t const* pTable = &__copy_table_start__; pTable < &__copy_table_end__; ++pTable
 152:HAL_Lib/CMSIS/Core/Include/cmsis_gcc.h ****     for(uint32_t i=0u; i<pTable->wlen; ++i) {
 153:HAL_Lib/CMSIS/Core/Include/cmsis_gcc.h ****       pTable->dest[i] = pTable->src[i];
 154:HAL_Lib/CMSIS/Core/Include/cmsis_gcc.h ****     }
 155:HAL_Lib/CMSIS/Core/Include/cmsis_gcc.h ****   }
 156:HAL_Lib/CMSIS/Core/Include/cmsis_gcc.h ****  
 157:HAL_Lib/CMSIS/Core/Include/cmsis_gcc.h ****   for (__zero_table_t const* pTable = &__zero_table_start__; pTable < &__zero_table_end__; ++pTable
 158:HAL_Lib/CMSIS/Core/Include/cmsis_gcc.h ****     for(uint32_t i=0u; i<pTable->wlen; ++i) {
 159:HAL_Lib/CMSIS/Core/Include/cmsis_gcc.h ****       pTable->dest[i] = 0u;
 160:HAL_Lib/CMSIS/Core/Include/cmsis_gcc.h ****     }
 161:HAL_Lib/CMSIS/Core/Include/cmsis_gcc.h ****   }
 162:HAL_Lib/CMSIS/Core/Include/cmsis_gcc.h ****  
 163:HAL_Lib/CMSIS/Core/Include/cmsis_gcc.h ****   _start();
 164:HAL_Lib/CMSIS/Core/Include/cmsis_gcc.h **** }
 165:HAL_Lib/CMSIS/Core/Include/cmsis_gcc.h ****   
 166:HAL_Lib/CMSIS/Core/Include/cmsis_gcc.h **** #define __PROGRAM_START           __cmsis_start
 167:HAL_Lib/CMSIS/Core/Include/cmsis_gcc.h **** #endif
 168:HAL_Lib/CMSIS/Core/Include/cmsis_gcc.h **** 
 169:HAL_Lib/CMSIS/Core/Include/cmsis_gcc.h **** #ifndef __INITIAL_SP
 170:HAL_Lib/CMSIS/Core/Include/cmsis_gcc.h **** #define __INITIAL_SP              __StackTop
 171:HAL_Lib/CMSIS/Core/Include/cmsis_gcc.h **** #endif
 172:HAL_Lib/CMSIS/Core/Include/cmsis_gcc.h **** 
 173:HAL_Lib/CMSIS/Core/Include/cmsis_gcc.h **** #ifndef __STACK_LIMIT
 174:HAL_Lib/CMSIS/Core/Include/cmsis_gcc.h **** #define __STACK_LIMIT             __StackLimit
 175:HAL_Lib/CMSIS/Core/Include/cmsis_gcc.h **** #endif
 176:HAL_Lib/CMSIS/Core/Include/cmsis_gcc.h **** 
 177:HAL_Lib/CMSIS/Core/Include/cmsis_gcc.h **** #ifndef __VECTOR_TABLE
 178:HAL_Lib/CMSIS/Core/Include/cmsis_gcc.h **** #define __VECTOR_TABLE            __Vectors
 179:HAL_Lib/CMSIS/Core/Include/cmsis_gcc.h **** #endif
 180:HAL_Lib/CMSIS/Core/Include/cmsis_gcc.h **** 
 181:HAL_Lib/CMSIS/Core/Include/cmsis_gcc.h **** #ifndef __VECTOR_TABLE_ATTRIBUTE
 182:HAL_Lib/CMSIS/Core/Include/cmsis_gcc.h **** #define __VECTOR_TABLE_ATTRIBUTE  __attribute((used, section(".vectors")))
 183:HAL_Lib/CMSIS/Core/Include/cmsis_gcc.h **** #endif
 184:HAL_Lib/CMSIS/Core/Include/cmsis_gcc.h **** 
 185:HAL_Lib/CMSIS/Core/Include/cmsis_gcc.h **** /* ###########################  Core Function Access  ########################### */
 186:HAL_Lib/CMSIS/Core/Include/cmsis_gcc.h **** /** \ingroup  CMSIS_Core_FunctionInterface
 187:HAL_Lib/CMSIS/Core/Include/cmsis_gcc.h ****     \defgroup CMSIS_Core_RegAccFunctions CMSIS Core Register Access Functions
 188:HAL_Lib/CMSIS/Core/Include/cmsis_gcc.h ****   @{
 189:HAL_Lib/CMSIS/Core/Include/cmsis_gcc.h ****  */
 190:HAL_Lib/CMSIS/Core/Include/cmsis_gcc.h **** 
 191:HAL_Lib/CMSIS/Core/Include/cmsis_gcc.h **** /**
 192:HAL_Lib/CMSIS/Core/Include/cmsis_gcc.h ****   \brief   Enable IRQ Interrupts
 193:HAL_Lib/CMSIS/Core/Include/cmsis_gcc.h ****   \details Enables IRQ interrupts by clearing the I-bit in the CPSR.
 194:HAL_Lib/CMSIS/Core/Include/cmsis_gcc.h ****            Can only be executed in Privileged modes.
 195:HAL_Lib/CMSIS/Core/Include/cmsis_gcc.h ****  */
 196:HAL_Lib/CMSIS/Core/Include/cmsis_gcc.h **** __STATIC_FORCEINLINE void __enable_irq(void)
 197:HAL_Lib/CMSIS/Core/Include/cmsis_gcc.h **** {
 198:HAL_Lib/CMSIS/Core/Include/cmsis_gcc.h ****   __ASM volatile ("cpsie i" : : : "memory");
 199:HAL_Lib/CMSIS/Core/Include/cmsis_gcc.h **** }
ARM GAS  /var/folders/8_/_8bzxkcs1296m80nzxdrn9q80000gn/T//cct2bcP8.s 			page 23


 200:HAL_Lib/CMSIS/Core/Include/cmsis_gcc.h **** 
 201:HAL_Lib/CMSIS/Core/Include/cmsis_gcc.h **** 
 202:HAL_Lib/CMSIS/Core/Include/cmsis_gcc.h **** /**
 203:HAL_Lib/CMSIS/Core/Include/cmsis_gcc.h ****   \brief   Disable IRQ Interrupts
 204:HAL_Lib/CMSIS/Core/Include/cmsis_gcc.h ****   \details Disables IRQ interrupts by setting the I-bit in the CPSR.
 205:HAL_Lib/CMSIS/Core/Include/cmsis_gcc.h ****            Can only be executed in Privileged modes.
 206:HAL_Lib/CMSIS/Core/Include/cmsis_gcc.h ****  */
 207:HAL_Lib/CMSIS/Core/Include/cmsis_gcc.h **** __STATIC_FORCEINLINE void __disable_irq(void)
 208:HAL_Lib/CMSIS/Core/Include/cmsis_gcc.h **** {
 209:HAL_Lib/CMSIS/Core/Include/cmsis_gcc.h ****   __ASM volatile ("cpsid i" : : : "memory");
 210:HAL_Lib/CMSIS/Core/Include/cmsis_gcc.h **** }
 211:HAL_Lib/CMSIS/Core/Include/cmsis_gcc.h **** 
 212:HAL_Lib/CMSIS/Core/Include/cmsis_gcc.h **** 
 213:HAL_Lib/CMSIS/Core/Include/cmsis_gcc.h **** /**
 214:HAL_Lib/CMSIS/Core/Include/cmsis_gcc.h ****   \brief   Get Control Register
 215:HAL_Lib/CMSIS/Core/Include/cmsis_gcc.h ****   \details Returns the content of the Control Register.
 216:HAL_Lib/CMSIS/Core/Include/cmsis_gcc.h ****   \return               Control Register value
 217:HAL_Lib/CMSIS/Core/Include/cmsis_gcc.h ****  */
 218:HAL_Lib/CMSIS/Core/Include/cmsis_gcc.h **** __STATIC_FORCEINLINE uint32_t __get_CONTROL(void)
 219:HAL_Lib/CMSIS/Core/Include/cmsis_gcc.h **** {
 220:HAL_Lib/CMSIS/Core/Include/cmsis_gcc.h ****   uint32_t result;
 221:HAL_Lib/CMSIS/Core/Include/cmsis_gcc.h **** 
 222:HAL_Lib/CMSIS/Core/Include/cmsis_gcc.h ****   __ASM volatile ("MRS %0, control" : "=r" (result) );
 223:HAL_Lib/CMSIS/Core/Include/cmsis_gcc.h ****   return(result);
 224:HAL_Lib/CMSIS/Core/Include/cmsis_gcc.h **** }
 225:HAL_Lib/CMSIS/Core/Include/cmsis_gcc.h **** 
 226:HAL_Lib/CMSIS/Core/Include/cmsis_gcc.h **** 
 227:HAL_Lib/CMSIS/Core/Include/cmsis_gcc.h **** #if (defined (__ARM_FEATURE_CMSE ) && (__ARM_FEATURE_CMSE == 3))
 228:HAL_Lib/CMSIS/Core/Include/cmsis_gcc.h **** /**
 229:HAL_Lib/CMSIS/Core/Include/cmsis_gcc.h ****   \brief   Get Control Register (non-secure)
 230:HAL_Lib/CMSIS/Core/Include/cmsis_gcc.h ****   \details Returns the content of the non-secure Control Register when in secure mode.
 231:HAL_Lib/CMSIS/Core/Include/cmsis_gcc.h ****   \return               non-secure Control Register value
 232:HAL_Lib/CMSIS/Core/Include/cmsis_gcc.h ****  */
 233:HAL_Lib/CMSIS/Core/Include/cmsis_gcc.h **** __STATIC_FORCEINLINE uint32_t __TZ_get_CONTROL_NS(void)
 234:HAL_Lib/CMSIS/Core/Include/cmsis_gcc.h **** {
 235:HAL_Lib/CMSIS/Core/Include/cmsis_gcc.h ****   uint32_t result;
 236:HAL_Lib/CMSIS/Core/Include/cmsis_gcc.h **** 
 237:HAL_Lib/CMSIS/Core/Include/cmsis_gcc.h ****   __ASM volatile ("MRS %0, control_ns" : "=r" (result) );
 238:HAL_Lib/CMSIS/Core/Include/cmsis_gcc.h ****   return(result);
 239:HAL_Lib/CMSIS/Core/Include/cmsis_gcc.h **** }
 240:HAL_Lib/CMSIS/Core/Include/cmsis_gcc.h **** #endif
 241:HAL_Lib/CMSIS/Core/Include/cmsis_gcc.h **** 
 242:HAL_Lib/CMSIS/Core/Include/cmsis_gcc.h **** 
 243:HAL_Lib/CMSIS/Core/Include/cmsis_gcc.h **** /**
 244:HAL_Lib/CMSIS/Core/Include/cmsis_gcc.h ****   \brief   Set Control Register
 245:HAL_Lib/CMSIS/Core/Include/cmsis_gcc.h ****   \details Writes the given value to the Control Register.
 246:HAL_Lib/CMSIS/Core/Include/cmsis_gcc.h ****   \param [in]    control  Control Register value to set
 247:HAL_Lib/CMSIS/Core/Include/cmsis_gcc.h ****  */
 248:HAL_Lib/CMSIS/Core/Include/cmsis_gcc.h **** __STATIC_FORCEINLINE void __set_CONTROL(uint32_t control)
 249:HAL_Lib/CMSIS/Core/Include/cmsis_gcc.h **** {
 250:HAL_Lib/CMSIS/Core/Include/cmsis_gcc.h ****   __ASM volatile ("MSR control, %0" : : "r" (control) : "memory");
 251:HAL_Lib/CMSIS/Core/Include/cmsis_gcc.h **** }
 252:HAL_Lib/CMSIS/Core/Include/cmsis_gcc.h **** 
 253:HAL_Lib/CMSIS/Core/Include/cmsis_gcc.h **** 
 254:HAL_Lib/CMSIS/Core/Include/cmsis_gcc.h **** #if (defined (__ARM_FEATURE_CMSE ) && (__ARM_FEATURE_CMSE == 3))
 255:HAL_Lib/CMSIS/Core/Include/cmsis_gcc.h **** /**
 256:HAL_Lib/CMSIS/Core/Include/cmsis_gcc.h ****   \brief   Set Control Register (non-secure)
ARM GAS  /var/folders/8_/_8bzxkcs1296m80nzxdrn9q80000gn/T//cct2bcP8.s 			page 24


 257:HAL_Lib/CMSIS/Core/Include/cmsis_gcc.h ****   \details Writes the given value to the non-secure Control Register when in secure state.
 258:HAL_Lib/CMSIS/Core/Include/cmsis_gcc.h ****   \param [in]    control  Control Register value to set
 259:HAL_Lib/CMSIS/Core/Include/cmsis_gcc.h ****  */
 260:HAL_Lib/CMSIS/Core/Include/cmsis_gcc.h **** __STATIC_FORCEINLINE void __TZ_set_CONTROL_NS(uint32_t control)
 261:HAL_Lib/CMSIS/Core/Include/cmsis_gcc.h **** {
 262:HAL_Lib/CMSIS/Core/Include/cmsis_gcc.h ****   __ASM volatile ("MSR control_ns, %0" : : "r" (control) : "memory");
 263:HAL_Lib/CMSIS/Core/Include/cmsis_gcc.h **** }
 264:HAL_Lib/CMSIS/Core/Include/cmsis_gcc.h **** #endif
 265:HAL_Lib/CMSIS/Core/Include/cmsis_gcc.h **** 
 266:HAL_Lib/CMSIS/Core/Include/cmsis_gcc.h **** 
 267:HAL_Lib/CMSIS/Core/Include/cmsis_gcc.h **** /**
 268:HAL_Lib/CMSIS/Core/Include/cmsis_gcc.h ****   \brief   Get IPSR Register
 269:HAL_Lib/CMSIS/Core/Include/cmsis_gcc.h ****   \details Returns the content of the IPSR Register.
 270:HAL_Lib/CMSIS/Core/Include/cmsis_gcc.h ****   \return               IPSR Register value
 271:HAL_Lib/CMSIS/Core/Include/cmsis_gcc.h ****  */
 272:HAL_Lib/CMSIS/Core/Include/cmsis_gcc.h **** __STATIC_FORCEINLINE uint32_t __get_IPSR(void)
 273:HAL_Lib/CMSIS/Core/Include/cmsis_gcc.h **** {
 274:HAL_Lib/CMSIS/Core/Include/cmsis_gcc.h ****   uint32_t result;
 275:HAL_Lib/CMSIS/Core/Include/cmsis_gcc.h **** 
 276:HAL_Lib/CMSIS/Core/Include/cmsis_gcc.h ****   __ASM volatile ("MRS %0, ipsr" : "=r" (result) );
 277:HAL_Lib/CMSIS/Core/Include/cmsis_gcc.h ****   return(result);
 278:HAL_Lib/CMSIS/Core/Include/cmsis_gcc.h **** }
 279:HAL_Lib/CMSIS/Core/Include/cmsis_gcc.h **** 
 280:HAL_Lib/CMSIS/Core/Include/cmsis_gcc.h **** 
 281:HAL_Lib/CMSIS/Core/Include/cmsis_gcc.h **** /**
 282:HAL_Lib/CMSIS/Core/Include/cmsis_gcc.h ****   \brief   Get APSR Register
 283:HAL_Lib/CMSIS/Core/Include/cmsis_gcc.h ****   \details Returns the content of the APSR Register.
 284:HAL_Lib/CMSIS/Core/Include/cmsis_gcc.h ****   \return               APSR Register value
 285:HAL_Lib/CMSIS/Core/Include/cmsis_gcc.h ****  */
 286:HAL_Lib/CMSIS/Core/Include/cmsis_gcc.h **** __STATIC_FORCEINLINE uint32_t __get_APSR(void)
 287:HAL_Lib/CMSIS/Core/Include/cmsis_gcc.h **** {
 288:HAL_Lib/CMSIS/Core/Include/cmsis_gcc.h ****   uint32_t result;
 289:HAL_Lib/CMSIS/Core/Include/cmsis_gcc.h **** 
 290:HAL_Lib/CMSIS/Core/Include/cmsis_gcc.h ****   __ASM volatile ("MRS %0, apsr" : "=r" (result) );
 291:HAL_Lib/CMSIS/Core/Include/cmsis_gcc.h ****   return(result);
 292:HAL_Lib/CMSIS/Core/Include/cmsis_gcc.h **** }
 293:HAL_Lib/CMSIS/Core/Include/cmsis_gcc.h **** 
 294:HAL_Lib/CMSIS/Core/Include/cmsis_gcc.h **** 
 295:HAL_Lib/CMSIS/Core/Include/cmsis_gcc.h **** /**
 296:HAL_Lib/CMSIS/Core/Include/cmsis_gcc.h ****   \brief   Get xPSR Register
 297:HAL_Lib/CMSIS/Core/Include/cmsis_gcc.h ****   \details Returns the content of the xPSR Register.
 298:HAL_Lib/CMSIS/Core/Include/cmsis_gcc.h ****   \return               xPSR Register value
 299:HAL_Lib/CMSIS/Core/Include/cmsis_gcc.h ****  */
 300:HAL_Lib/CMSIS/Core/Include/cmsis_gcc.h **** __STATIC_FORCEINLINE uint32_t __get_xPSR(void)
 301:HAL_Lib/CMSIS/Core/Include/cmsis_gcc.h **** {
 302:HAL_Lib/CMSIS/Core/Include/cmsis_gcc.h ****   uint32_t result;
 303:HAL_Lib/CMSIS/Core/Include/cmsis_gcc.h **** 
 304:HAL_Lib/CMSIS/Core/Include/cmsis_gcc.h ****   __ASM volatile ("MRS %0, xpsr" : "=r" (result) );
 305:HAL_Lib/CMSIS/Core/Include/cmsis_gcc.h ****   return(result);
 306:HAL_Lib/CMSIS/Core/Include/cmsis_gcc.h **** }
 307:HAL_Lib/CMSIS/Core/Include/cmsis_gcc.h **** 
 308:HAL_Lib/CMSIS/Core/Include/cmsis_gcc.h **** 
 309:HAL_Lib/CMSIS/Core/Include/cmsis_gcc.h **** /**
 310:HAL_Lib/CMSIS/Core/Include/cmsis_gcc.h ****   \brief   Get Process Stack Pointer
 311:HAL_Lib/CMSIS/Core/Include/cmsis_gcc.h ****   \details Returns the current value of the Process Stack Pointer (PSP).
 312:HAL_Lib/CMSIS/Core/Include/cmsis_gcc.h ****   \return               PSP Register value
 313:HAL_Lib/CMSIS/Core/Include/cmsis_gcc.h ****  */
ARM GAS  /var/folders/8_/_8bzxkcs1296m80nzxdrn9q80000gn/T//cct2bcP8.s 			page 25


 314:HAL_Lib/CMSIS/Core/Include/cmsis_gcc.h **** __STATIC_FORCEINLINE uint32_t __get_PSP(void)
 315:HAL_Lib/CMSIS/Core/Include/cmsis_gcc.h **** {
 316:HAL_Lib/CMSIS/Core/Include/cmsis_gcc.h ****   uint32_t result;
 317:HAL_Lib/CMSIS/Core/Include/cmsis_gcc.h **** 
 318:HAL_Lib/CMSIS/Core/Include/cmsis_gcc.h ****   __ASM volatile ("MRS %0, psp"  : "=r" (result) );
 319:HAL_Lib/CMSIS/Core/Include/cmsis_gcc.h ****   return(result);
 320:HAL_Lib/CMSIS/Core/Include/cmsis_gcc.h **** }
 321:HAL_Lib/CMSIS/Core/Include/cmsis_gcc.h **** 
 322:HAL_Lib/CMSIS/Core/Include/cmsis_gcc.h **** 
 323:HAL_Lib/CMSIS/Core/Include/cmsis_gcc.h **** #if (defined (__ARM_FEATURE_CMSE ) && (__ARM_FEATURE_CMSE == 3))
 324:HAL_Lib/CMSIS/Core/Include/cmsis_gcc.h **** /**
 325:HAL_Lib/CMSIS/Core/Include/cmsis_gcc.h ****   \brief   Get Process Stack Pointer (non-secure)
 326:HAL_Lib/CMSIS/Core/Include/cmsis_gcc.h ****   \details Returns the current value of the non-secure Process Stack Pointer (PSP) when in secure s
 327:HAL_Lib/CMSIS/Core/Include/cmsis_gcc.h ****   \return               PSP Register value
 328:HAL_Lib/CMSIS/Core/Include/cmsis_gcc.h ****  */
 329:HAL_Lib/CMSIS/Core/Include/cmsis_gcc.h **** __STATIC_FORCEINLINE uint32_t __TZ_get_PSP_NS(void)
 330:HAL_Lib/CMSIS/Core/Include/cmsis_gcc.h **** {
 331:HAL_Lib/CMSIS/Core/Include/cmsis_gcc.h ****   uint32_t result;
 332:HAL_Lib/CMSIS/Core/Include/cmsis_gcc.h **** 
 333:HAL_Lib/CMSIS/Core/Include/cmsis_gcc.h ****   __ASM volatile ("MRS %0, psp_ns"  : "=r" (result) );
 334:HAL_Lib/CMSIS/Core/Include/cmsis_gcc.h ****   return(result);
 335:HAL_Lib/CMSIS/Core/Include/cmsis_gcc.h **** }
 336:HAL_Lib/CMSIS/Core/Include/cmsis_gcc.h **** #endif
 337:HAL_Lib/CMSIS/Core/Include/cmsis_gcc.h **** 
 338:HAL_Lib/CMSIS/Core/Include/cmsis_gcc.h **** 
 339:HAL_Lib/CMSIS/Core/Include/cmsis_gcc.h **** /**
 340:HAL_Lib/CMSIS/Core/Include/cmsis_gcc.h ****   \brief   Set Process Stack Pointer
 341:HAL_Lib/CMSIS/Core/Include/cmsis_gcc.h ****   \details Assigns the given value to the Process Stack Pointer (PSP).
 342:HAL_Lib/CMSIS/Core/Include/cmsis_gcc.h ****   \param [in]    topOfProcStack  Process Stack Pointer value to set
 343:HAL_Lib/CMSIS/Core/Include/cmsis_gcc.h ****  */
 344:HAL_Lib/CMSIS/Core/Include/cmsis_gcc.h **** __STATIC_FORCEINLINE void __set_PSP(uint32_t topOfProcStack)
 345:HAL_Lib/CMSIS/Core/Include/cmsis_gcc.h **** {
 346:HAL_Lib/CMSIS/Core/Include/cmsis_gcc.h ****   __ASM volatile ("MSR psp, %0" : : "r" (topOfProcStack) : );
 347:HAL_Lib/CMSIS/Core/Include/cmsis_gcc.h **** }
 348:HAL_Lib/CMSIS/Core/Include/cmsis_gcc.h **** 
 349:HAL_Lib/CMSIS/Core/Include/cmsis_gcc.h **** 
 350:HAL_Lib/CMSIS/Core/Include/cmsis_gcc.h **** #if (defined (__ARM_FEATURE_CMSE ) && (__ARM_FEATURE_CMSE == 3))
 351:HAL_Lib/CMSIS/Core/Include/cmsis_gcc.h **** /**
 352:HAL_Lib/CMSIS/Core/Include/cmsis_gcc.h ****   \brief   Set Process Stack Pointer (non-secure)
 353:HAL_Lib/CMSIS/Core/Include/cmsis_gcc.h ****   \details Assigns the given value to the non-secure Process Stack Pointer (PSP) when in secure sta
 354:HAL_Lib/CMSIS/Core/Include/cmsis_gcc.h ****   \param [in]    topOfProcStack  Process Stack Pointer value to set
 355:HAL_Lib/CMSIS/Core/Include/cmsis_gcc.h ****  */
 356:HAL_Lib/CMSIS/Core/Include/cmsis_gcc.h **** __STATIC_FORCEINLINE void __TZ_set_PSP_NS(uint32_t topOfProcStack)
 357:HAL_Lib/CMSIS/Core/Include/cmsis_gcc.h **** {
 358:HAL_Lib/CMSIS/Core/Include/cmsis_gcc.h ****   __ASM volatile ("MSR psp_ns, %0" : : "r" (topOfProcStack) : );
 359:HAL_Lib/CMSIS/Core/Include/cmsis_gcc.h **** }
 360:HAL_Lib/CMSIS/Core/Include/cmsis_gcc.h **** #endif
 361:HAL_Lib/CMSIS/Core/Include/cmsis_gcc.h **** 
 362:HAL_Lib/CMSIS/Core/Include/cmsis_gcc.h **** 
 363:HAL_Lib/CMSIS/Core/Include/cmsis_gcc.h **** /**
 364:HAL_Lib/CMSIS/Core/Include/cmsis_gcc.h ****   \brief   Get Main Stack Pointer
 365:HAL_Lib/CMSIS/Core/Include/cmsis_gcc.h ****   \details Returns the current value of the Main Stack Pointer (MSP).
 366:HAL_Lib/CMSIS/Core/Include/cmsis_gcc.h ****   \return               MSP Register value
 367:HAL_Lib/CMSIS/Core/Include/cmsis_gcc.h ****  */
 368:HAL_Lib/CMSIS/Core/Include/cmsis_gcc.h **** __STATIC_FORCEINLINE uint32_t __get_MSP(void)
 369:HAL_Lib/CMSIS/Core/Include/cmsis_gcc.h **** {
 370:HAL_Lib/CMSIS/Core/Include/cmsis_gcc.h ****   uint32_t result;
ARM GAS  /var/folders/8_/_8bzxkcs1296m80nzxdrn9q80000gn/T//cct2bcP8.s 			page 26


 371:HAL_Lib/CMSIS/Core/Include/cmsis_gcc.h **** 
 372:HAL_Lib/CMSIS/Core/Include/cmsis_gcc.h ****   __ASM volatile ("MRS %0, msp" : "=r" (result) );
 373:HAL_Lib/CMSIS/Core/Include/cmsis_gcc.h ****   return(result);
 374:HAL_Lib/CMSIS/Core/Include/cmsis_gcc.h **** }
 375:HAL_Lib/CMSIS/Core/Include/cmsis_gcc.h **** 
 376:HAL_Lib/CMSIS/Core/Include/cmsis_gcc.h **** 
 377:HAL_Lib/CMSIS/Core/Include/cmsis_gcc.h **** #if (defined (__ARM_FEATURE_CMSE ) && (__ARM_FEATURE_CMSE == 3))
 378:HAL_Lib/CMSIS/Core/Include/cmsis_gcc.h **** /**
 379:HAL_Lib/CMSIS/Core/Include/cmsis_gcc.h ****   \brief   Get Main Stack Pointer (non-secure)
 380:HAL_Lib/CMSIS/Core/Include/cmsis_gcc.h ****   \details Returns the current value of the non-secure Main Stack Pointer (MSP) when in secure stat
 381:HAL_Lib/CMSIS/Core/Include/cmsis_gcc.h ****   \return               MSP Register value
 382:HAL_Lib/CMSIS/Core/Include/cmsis_gcc.h ****  */
 383:HAL_Lib/CMSIS/Core/Include/cmsis_gcc.h **** __STATIC_FORCEINLINE uint32_t __TZ_get_MSP_NS(void)
 384:HAL_Lib/CMSIS/Core/Include/cmsis_gcc.h **** {
 385:HAL_Lib/CMSIS/Core/Include/cmsis_gcc.h ****   uint32_t result;
 386:HAL_Lib/CMSIS/Core/Include/cmsis_gcc.h **** 
 387:HAL_Lib/CMSIS/Core/Include/cmsis_gcc.h ****   __ASM volatile ("MRS %0, msp_ns" : "=r" (result) );
 388:HAL_Lib/CMSIS/Core/Include/cmsis_gcc.h ****   return(result);
 389:HAL_Lib/CMSIS/Core/Include/cmsis_gcc.h **** }
 390:HAL_Lib/CMSIS/Core/Include/cmsis_gcc.h **** #endif
 391:HAL_Lib/CMSIS/Core/Include/cmsis_gcc.h **** 
 392:HAL_Lib/CMSIS/Core/Include/cmsis_gcc.h **** 
 393:HAL_Lib/CMSIS/Core/Include/cmsis_gcc.h **** /**
 394:HAL_Lib/CMSIS/Core/Include/cmsis_gcc.h ****   \brief   Set Main Stack Pointer
 395:HAL_Lib/CMSIS/Core/Include/cmsis_gcc.h ****   \details Assigns the given value to the Main Stack Pointer (MSP).
 396:HAL_Lib/CMSIS/Core/Include/cmsis_gcc.h ****   \param [in]    topOfMainStack  Main Stack Pointer value to set
 397:HAL_Lib/CMSIS/Core/Include/cmsis_gcc.h ****  */
 398:HAL_Lib/CMSIS/Core/Include/cmsis_gcc.h **** __STATIC_FORCEINLINE void __set_MSP(uint32_t topOfMainStack)
 399:HAL_Lib/CMSIS/Core/Include/cmsis_gcc.h **** {
 400:HAL_Lib/CMSIS/Core/Include/cmsis_gcc.h ****   __ASM volatile ("MSR msp, %0" : : "r" (topOfMainStack) : );
 401:HAL_Lib/CMSIS/Core/Include/cmsis_gcc.h **** }
 402:HAL_Lib/CMSIS/Core/Include/cmsis_gcc.h **** 
 403:HAL_Lib/CMSIS/Core/Include/cmsis_gcc.h **** 
 404:HAL_Lib/CMSIS/Core/Include/cmsis_gcc.h **** #if (defined (__ARM_FEATURE_CMSE ) && (__ARM_FEATURE_CMSE == 3))
 405:HAL_Lib/CMSIS/Core/Include/cmsis_gcc.h **** /**
 406:HAL_Lib/CMSIS/Core/Include/cmsis_gcc.h ****   \brief   Set Main Stack Pointer (non-secure)
 407:HAL_Lib/CMSIS/Core/Include/cmsis_gcc.h ****   \details Assigns the given value to the non-secure Main Stack Pointer (MSP) when in secure state.
 408:HAL_Lib/CMSIS/Core/Include/cmsis_gcc.h ****   \param [in]    topOfMainStack  Main Stack Pointer value to set
 409:HAL_Lib/CMSIS/Core/Include/cmsis_gcc.h ****  */
 410:HAL_Lib/CMSIS/Core/Include/cmsis_gcc.h **** __STATIC_FORCEINLINE void __TZ_set_MSP_NS(uint32_t topOfMainStack)
 411:HAL_Lib/CMSIS/Core/Include/cmsis_gcc.h **** {
 412:HAL_Lib/CMSIS/Core/Include/cmsis_gcc.h ****   __ASM volatile ("MSR msp_ns, %0" : : "r" (topOfMainStack) : );
 413:HAL_Lib/CMSIS/Core/Include/cmsis_gcc.h **** }
 414:HAL_Lib/CMSIS/Core/Include/cmsis_gcc.h **** #endif
 415:HAL_Lib/CMSIS/Core/Include/cmsis_gcc.h **** 
 416:HAL_Lib/CMSIS/Core/Include/cmsis_gcc.h **** 
 417:HAL_Lib/CMSIS/Core/Include/cmsis_gcc.h **** #if (defined (__ARM_FEATURE_CMSE ) && (__ARM_FEATURE_CMSE == 3))
 418:HAL_Lib/CMSIS/Core/Include/cmsis_gcc.h **** /**
 419:HAL_Lib/CMSIS/Core/Include/cmsis_gcc.h ****   \brief   Get Stack Pointer (non-secure)
 420:HAL_Lib/CMSIS/Core/Include/cmsis_gcc.h ****   \details Returns the current value of the non-secure Stack Pointer (SP) when in secure state.
 421:HAL_Lib/CMSIS/Core/Include/cmsis_gcc.h ****   \return               SP Register value
 422:HAL_Lib/CMSIS/Core/Include/cmsis_gcc.h ****  */
 423:HAL_Lib/CMSIS/Core/Include/cmsis_gcc.h **** __STATIC_FORCEINLINE uint32_t __TZ_get_SP_NS(void)
 424:HAL_Lib/CMSIS/Core/Include/cmsis_gcc.h **** {
 425:HAL_Lib/CMSIS/Core/Include/cmsis_gcc.h ****   uint32_t result;
 426:HAL_Lib/CMSIS/Core/Include/cmsis_gcc.h **** 
 427:HAL_Lib/CMSIS/Core/Include/cmsis_gcc.h ****   __ASM volatile ("MRS %0, sp_ns" : "=r" (result) );
ARM GAS  /var/folders/8_/_8bzxkcs1296m80nzxdrn9q80000gn/T//cct2bcP8.s 			page 27


 428:HAL_Lib/CMSIS/Core/Include/cmsis_gcc.h ****   return(result);
 429:HAL_Lib/CMSIS/Core/Include/cmsis_gcc.h **** }
 430:HAL_Lib/CMSIS/Core/Include/cmsis_gcc.h **** 
 431:HAL_Lib/CMSIS/Core/Include/cmsis_gcc.h **** 
 432:HAL_Lib/CMSIS/Core/Include/cmsis_gcc.h **** /**
 433:HAL_Lib/CMSIS/Core/Include/cmsis_gcc.h ****   \brief   Set Stack Pointer (non-secure)
 434:HAL_Lib/CMSIS/Core/Include/cmsis_gcc.h ****   \details Assigns the given value to the non-secure Stack Pointer (SP) when in secure state.
 435:HAL_Lib/CMSIS/Core/Include/cmsis_gcc.h ****   \param [in]    topOfStack  Stack Pointer value to set
 436:HAL_Lib/CMSIS/Core/Include/cmsis_gcc.h ****  */
 437:HAL_Lib/CMSIS/Core/Include/cmsis_gcc.h **** __STATIC_FORCEINLINE void __TZ_set_SP_NS(uint32_t topOfStack)
 438:HAL_Lib/CMSIS/Core/Include/cmsis_gcc.h **** {
 439:HAL_Lib/CMSIS/Core/Include/cmsis_gcc.h ****   __ASM volatile ("MSR sp_ns, %0" : : "r" (topOfStack) : );
 440:HAL_Lib/CMSIS/Core/Include/cmsis_gcc.h **** }
 441:HAL_Lib/CMSIS/Core/Include/cmsis_gcc.h **** #endif
 442:HAL_Lib/CMSIS/Core/Include/cmsis_gcc.h **** 
 443:HAL_Lib/CMSIS/Core/Include/cmsis_gcc.h **** 
 444:HAL_Lib/CMSIS/Core/Include/cmsis_gcc.h **** /**
 445:HAL_Lib/CMSIS/Core/Include/cmsis_gcc.h ****   \brief   Get Priority Mask
 446:HAL_Lib/CMSIS/Core/Include/cmsis_gcc.h ****   \details Returns the current state of the priority mask bit from the Priority Mask Register.
 447:HAL_Lib/CMSIS/Core/Include/cmsis_gcc.h ****   \return               Priority Mask value
 448:HAL_Lib/CMSIS/Core/Include/cmsis_gcc.h ****  */
 449:HAL_Lib/CMSIS/Core/Include/cmsis_gcc.h **** __STATIC_FORCEINLINE uint32_t __get_PRIMASK(void)
 450:HAL_Lib/CMSIS/Core/Include/cmsis_gcc.h **** {
 451:HAL_Lib/CMSIS/Core/Include/cmsis_gcc.h ****   uint32_t result;
 452:HAL_Lib/CMSIS/Core/Include/cmsis_gcc.h **** 
 453:HAL_Lib/CMSIS/Core/Include/cmsis_gcc.h ****   __ASM volatile ("MRS %0, primask" : "=r" (result) :: "memory");
 454:HAL_Lib/CMSIS/Core/Include/cmsis_gcc.h ****   return(result);
 455:HAL_Lib/CMSIS/Core/Include/cmsis_gcc.h **** }
 456:HAL_Lib/CMSIS/Core/Include/cmsis_gcc.h **** 
 457:HAL_Lib/CMSIS/Core/Include/cmsis_gcc.h **** 
 458:HAL_Lib/CMSIS/Core/Include/cmsis_gcc.h **** #if (defined (__ARM_FEATURE_CMSE ) && (__ARM_FEATURE_CMSE == 3))
 459:HAL_Lib/CMSIS/Core/Include/cmsis_gcc.h **** /**
 460:HAL_Lib/CMSIS/Core/Include/cmsis_gcc.h ****   \brief   Get Priority Mask (non-secure)
 461:HAL_Lib/CMSIS/Core/Include/cmsis_gcc.h ****   \details Returns the current state of the non-secure priority mask bit from the Priority Mask Reg
 462:HAL_Lib/CMSIS/Core/Include/cmsis_gcc.h ****   \return               Priority Mask value
 463:HAL_Lib/CMSIS/Core/Include/cmsis_gcc.h ****  */
 464:HAL_Lib/CMSIS/Core/Include/cmsis_gcc.h **** __STATIC_FORCEINLINE uint32_t __TZ_get_PRIMASK_NS(void)
 465:HAL_Lib/CMSIS/Core/Include/cmsis_gcc.h **** {
 466:HAL_Lib/CMSIS/Core/Include/cmsis_gcc.h ****   uint32_t result;
 467:HAL_Lib/CMSIS/Core/Include/cmsis_gcc.h **** 
 468:HAL_Lib/CMSIS/Core/Include/cmsis_gcc.h ****   __ASM volatile ("MRS %0, primask_ns" : "=r" (result) :: "memory");
 469:HAL_Lib/CMSIS/Core/Include/cmsis_gcc.h ****   return(result);
 470:HAL_Lib/CMSIS/Core/Include/cmsis_gcc.h **** }
 471:HAL_Lib/CMSIS/Core/Include/cmsis_gcc.h **** #endif
 472:HAL_Lib/CMSIS/Core/Include/cmsis_gcc.h **** 
 473:HAL_Lib/CMSIS/Core/Include/cmsis_gcc.h **** 
 474:HAL_Lib/CMSIS/Core/Include/cmsis_gcc.h **** /**
 475:HAL_Lib/CMSIS/Core/Include/cmsis_gcc.h ****   \brief   Set Priority Mask
 476:HAL_Lib/CMSIS/Core/Include/cmsis_gcc.h ****   \details Assigns the given value to the Priority Mask Register.
 477:HAL_Lib/CMSIS/Core/Include/cmsis_gcc.h ****   \param [in]    priMask  Priority Mask
 478:HAL_Lib/CMSIS/Core/Include/cmsis_gcc.h ****  */
 479:HAL_Lib/CMSIS/Core/Include/cmsis_gcc.h **** __STATIC_FORCEINLINE void __set_PRIMASK(uint32_t priMask)
 480:HAL_Lib/CMSIS/Core/Include/cmsis_gcc.h **** {
 481:HAL_Lib/CMSIS/Core/Include/cmsis_gcc.h ****   __ASM volatile ("MSR primask, %0" : : "r" (priMask) : "memory");
 482:HAL_Lib/CMSIS/Core/Include/cmsis_gcc.h **** }
 483:HAL_Lib/CMSIS/Core/Include/cmsis_gcc.h **** 
 484:HAL_Lib/CMSIS/Core/Include/cmsis_gcc.h **** 
ARM GAS  /var/folders/8_/_8bzxkcs1296m80nzxdrn9q80000gn/T//cct2bcP8.s 			page 28


 485:HAL_Lib/CMSIS/Core/Include/cmsis_gcc.h **** #if (defined (__ARM_FEATURE_CMSE ) && (__ARM_FEATURE_CMSE == 3))
 486:HAL_Lib/CMSIS/Core/Include/cmsis_gcc.h **** /**
 487:HAL_Lib/CMSIS/Core/Include/cmsis_gcc.h ****   \brief   Set Priority Mask (non-secure)
 488:HAL_Lib/CMSIS/Core/Include/cmsis_gcc.h ****   \details Assigns the given value to the non-secure Priority Mask Register when in secure state.
 489:HAL_Lib/CMSIS/Core/Include/cmsis_gcc.h ****   \param [in]    priMask  Priority Mask
 490:HAL_Lib/CMSIS/Core/Include/cmsis_gcc.h ****  */
 491:HAL_Lib/CMSIS/Core/Include/cmsis_gcc.h **** __STATIC_FORCEINLINE void __TZ_set_PRIMASK_NS(uint32_t priMask)
 492:HAL_Lib/CMSIS/Core/Include/cmsis_gcc.h **** {
 493:HAL_Lib/CMSIS/Core/Include/cmsis_gcc.h ****   __ASM volatile ("MSR primask_ns, %0" : : "r" (priMask) : "memory");
 494:HAL_Lib/CMSIS/Core/Include/cmsis_gcc.h **** }
 495:HAL_Lib/CMSIS/Core/Include/cmsis_gcc.h **** #endif
 496:HAL_Lib/CMSIS/Core/Include/cmsis_gcc.h **** 
 497:HAL_Lib/CMSIS/Core/Include/cmsis_gcc.h **** 
 498:HAL_Lib/CMSIS/Core/Include/cmsis_gcc.h **** #if ((defined (__ARM_ARCH_7M__      ) && (__ARM_ARCH_7M__      == 1)) || \
 499:HAL_Lib/CMSIS/Core/Include/cmsis_gcc.h ****      (defined (__ARM_ARCH_7EM__     ) && (__ARM_ARCH_7EM__     == 1)) || \
 500:HAL_Lib/CMSIS/Core/Include/cmsis_gcc.h ****      (defined (__ARM_ARCH_8M_MAIN__ ) && (__ARM_ARCH_8M_MAIN__ == 1))    )
 501:HAL_Lib/CMSIS/Core/Include/cmsis_gcc.h **** /**
 502:HAL_Lib/CMSIS/Core/Include/cmsis_gcc.h ****   \brief   Enable FIQ
 503:HAL_Lib/CMSIS/Core/Include/cmsis_gcc.h ****   \details Enables FIQ interrupts by clearing the F-bit in the CPSR.
 504:HAL_Lib/CMSIS/Core/Include/cmsis_gcc.h ****            Can only be executed in Privileged modes.
 505:HAL_Lib/CMSIS/Core/Include/cmsis_gcc.h ****  */
 506:HAL_Lib/CMSIS/Core/Include/cmsis_gcc.h **** __STATIC_FORCEINLINE void __enable_fault_irq(void)
 507:HAL_Lib/CMSIS/Core/Include/cmsis_gcc.h **** {
 508:HAL_Lib/CMSIS/Core/Include/cmsis_gcc.h ****   __ASM volatile ("cpsie f" : : : "memory");
 509:HAL_Lib/CMSIS/Core/Include/cmsis_gcc.h **** }
 510:HAL_Lib/CMSIS/Core/Include/cmsis_gcc.h **** 
 511:HAL_Lib/CMSIS/Core/Include/cmsis_gcc.h **** 
 512:HAL_Lib/CMSIS/Core/Include/cmsis_gcc.h **** /**
 513:HAL_Lib/CMSIS/Core/Include/cmsis_gcc.h ****   \brief   Disable FIQ
 514:HAL_Lib/CMSIS/Core/Include/cmsis_gcc.h ****   \details Disables FIQ interrupts by setting the F-bit in the CPSR.
 515:HAL_Lib/CMSIS/Core/Include/cmsis_gcc.h ****            Can only be executed in Privileged modes.
 516:HAL_Lib/CMSIS/Core/Include/cmsis_gcc.h ****  */
 517:HAL_Lib/CMSIS/Core/Include/cmsis_gcc.h **** __STATIC_FORCEINLINE void __disable_fault_irq(void)
 518:HAL_Lib/CMSIS/Core/Include/cmsis_gcc.h **** {
 519:HAL_Lib/CMSIS/Core/Include/cmsis_gcc.h ****   __ASM volatile ("cpsid f" : : : "memory");
 520:HAL_Lib/CMSIS/Core/Include/cmsis_gcc.h **** }
 521:HAL_Lib/CMSIS/Core/Include/cmsis_gcc.h **** 
 522:HAL_Lib/CMSIS/Core/Include/cmsis_gcc.h **** 
 523:HAL_Lib/CMSIS/Core/Include/cmsis_gcc.h **** /**
 524:HAL_Lib/CMSIS/Core/Include/cmsis_gcc.h ****   \brief   Get Base Priority
 525:HAL_Lib/CMSIS/Core/Include/cmsis_gcc.h ****   \details Returns the current value of the Base Priority register.
 526:HAL_Lib/CMSIS/Core/Include/cmsis_gcc.h ****   \return               Base Priority register value
 527:HAL_Lib/CMSIS/Core/Include/cmsis_gcc.h ****  */
 528:HAL_Lib/CMSIS/Core/Include/cmsis_gcc.h **** __STATIC_FORCEINLINE uint32_t __get_BASEPRI(void)
 529:HAL_Lib/CMSIS/Core/Include/cmsis_gcc.h **** {
 530:HAL_Lib/CMSIS/Core/Include/cmsis_gcc.h ****   uint32_t result;
 531:HAL_Lib/CMSIS/Core/Include/cmsis_gcc.h **** 
 532:HAL_Lib/CMSIS/Core/Include/cmsis_gcc.h ****   __ASM volatile ("MRS %0, basepri" : "=r" (result) );
 533:HAL_Lib/CMSIS/Core/Include/cmsis_gcc.h ****   return(result);
 534:HAL_Lib/CMSIS/Core/Include/cmsis_gcc.h **** }
 535:HAL_Lib/CMSIS/Core/Include/cmsis_gcc.h **** 
 536:HAL_Lib/CMSIS/Core/Include/cmsis_gcc.h **** 
 537:HAL_Lib/CMSIS/Core/Include/cmsis_gcc.h **** #if (defined (__ARM_FEATURE_CMSE ) && (__ARM_FEATURE_CMSE == 3))
 538:HAL_Lib/CMSIS/Core/Include/cmsis_gcc.h **** /**
 539:HAL_Lib/CMSIS/Core/Include/cmsis_gcc.h ****   \brief   Get Base Priority (non-secure)
 540:HAL_Lib/CMSIS/Core/Include/cmsis_gcc.h ****   \details Returns the current value of the non-secure Base Priority register when in secure state.
 541:HAL_Lib/CMSIS/Core/Include/cmsis_gcc.h ****   \return               Base Priority register value
ARM GAS  /var/folders/8_/_8bzxkcs1296m80nzxdrn9q80000gn/T//cct2bcP8.s 			page 29


 542:HAL_Lib/CMSIS/Core/Include/cmsis_gcc.h ****  */
 543:HAL_Lib/CMSIS/Core/Include/cmsis_gcc.h **** __STATIC_FORCEINLINE uint32_t __TZ_get_BASEPRI_NS(void)
 544:HAL_Lib/CMSIS/Core/Include/cmsis_gcc.h **** {
 545:HAL_Lib/CMSIS/Core/Include/cmsis_gcc.h ****   uint32_t result;
 546:HAL_Lib/CMSIS/Core/Include/cmsis_gcc.h **** 
 547:HAL_Lib/CMSIS/Core/Include/cmsis_gcc.h ****   __ASM volatile ("MRS %0, basepri_ns" : "=r" (result) );
 548:HAL_Lib/CMSIS/Core/Include/cmsis_gcc.h ****   return(result);
 549:HAL_Lib/CMSIS/Core/Include/cmsis_gcc.h **** }
 550:HAL_Lib/CMSIS/Core/Include/cmsis_gcc.h **** #endif
 551:HAL_Lib/CMSIS/Core/Include/cmsis_gcc.h **** 
 552:HAL_Lib/CMSIS/Core/Include/cmsis_gcc.h **** 
 553:HAL_Lib/CMSIS/Core/Include/cmsis_gcc.h **** /**
 554:HAL_Lib/CMSIS/Core/Include/cmsis_gcc.h ****   \brief   Set Base Priority
 555:HAL_Lib/CMSIS/Core/Include/cmsis_gcc.h ****   \details Assigns the given value to the Base Priority register.
 556:HAL_Lib/CMSIS/Core/Include/cmsis_gcc.h ****   \param [in]    basePri  Base Priority value to set
 557:HAL_Lib/CMSIS/Core/Include/cmsis_gcc.h ****  */
 558:HAL_Lib/CMSIS/Core/Include/cmsis_gcc.h **** __STATIC_FORCEINLINE void __set_BASEPRI(uint32_t basePri)
 559:HAL_Lib/CMSIS/Core/Include/cmsis_gcc.h **** {
 560:HAL_Lib/CMSIS/Core/Include/cmsis_gcc.h ****   __ASM volatile ("MSR basepri, %0" : : "r" (basePri) : "memory");
 561:HAL_Lib/CMSIS/Core/Include/cmsis_gcc.h **** }
 562:HAL_Lib/CMSIS/Core/Include/cmsis_gcc.h **** 
 563:HAL_Lib/CMSIS/Core/Include/cmsis_gcc.h **** 
 564:HAL_Lib/CMSIS/Core/Include/cmsis_gcc.h **** #if (defined (__ARM_FEATURE_CMSE ) && (__ARM_FEATURE_CMSE == 3))
 565:HAL_Lib/CMSIS/Core/Include/cmsis_gcc.h **** /**
 566:HAL_Lib/CMSIS/Core/Include/cmsis_gcc.h ****   \brief   Set Base Priority (non-secure)
 567:HAL_Lib/CMSIS/Core/Include/cmsis_gcc.h ****   \details Assigns the given value to the non-secure Base Priority register when in secure state.
 568:HAL_Lib/CMSIS/Core/Include/cmsis_gcc.h ****   \param [in]    basePri  Base Priority value to set
 569:HAL_Lib/CMSIS/Core/Include/cmsis_gcc.h ****  */
 570:HAL_Lib/CMSIS/Core/Include/cmsis_gcc.h **** __STATIC_FORCEINLINE void __TZ_set_BASEPRI_NS(uint32_t basePri)
 571:HAL_Lib/CMSIS/Core/Include/cmsis_gcc.h **** {
 572:HAL_Lib/CMSIS/Core/Include/cmsis_gcc.h ****   __ASM volatile ("MSR basepri_ns, %0" : : "r" (basePri) : "memory");
 573:HAL_Lib/CMSIS/Core/Include/cmsis_gcc.h **** }
 574:HAL_Lib/CMSIS/Core/Include/cmsis_gcc.h **** #endif
 575:HAL_Lib/CMSIS/Core/Include/cmsis_gcc.h **** 
 576:HAL_Lib/CMSIS/Core/Include/cmsis_gcc.h **** 
 577:HAL_Lib/CMSIS/Core/Include/cmsis_gcc.h **** /**
 578:HAL_Lib/CMSIS/Core/Include/cmsis_gcc.h ****   \brief   Set Base Priority with condition
 579:HAL_Lib/CMSIS/Core/Include/cmsis_gcc.h ****   \details Assigns the given value to the Base Priority register only if BASEPRI masking is disable
 580:HAL_Lib/CMSIS/Core/Include/cmsis_gcc.h ****            or the new value increases the BASEPRI priority level.
 581:HAL_Lib/CMSIS/Core/Include/cmsis_gcc.h ****   \param [in]    basePri  Base Priority value to set
 582:HAL_Lib/CMSIS/Core/Include/cmsis_gcc.h ****  */
 583:HAL_Lib/CMSIS/Core/Include/cmsis_gcc.h **** __STATIC_FORCEINLINE void __set_BASEPRI_MAX(uint32_t basePri)
 584:HAL_Lib/CMSIS/Core/Include/cmsis_gcc.h **** {
 585:HAL_Lib/CMSIS/Core/Include/cmsis_gcc.h ****   __ASM volatile ("MSR basepri_max, %0" : : "r" (basePri) : "memory");
 586:HAL_Lib/CMSIS/Core/Include/cmsis_gcc.h **** }
 587:HAL_Lib/CMSIS/Core/Include/cmsis_gcc.h **** 
 588:HAL_Lib/CMSIS/Core/Include/cmsis_gcc.h **** 
 589:HAL_Lib/CMSIS/Core/Include/cmsis_gcc.h **** /**
 590:HAL_Lib/CMSIS/Core/Include/cmsis_gcc.h ****   \brief   Get Fault Mask
 591:HAL_Lib/CMSIS/Core/Include/cmsis_gcc.h ****   \details Returns the current value of the Fault Mask register.
 592:HAL_Lib/CMSIS/Core/Include/cmsis_gcc.h ****   \return               Fault Mask register value
 593:HAL_Lib/CMSIS/Core/Include/cmsis_gcc.h ****  */
 594:HAL_Lib/CMSIS/Core/Include/cmsis_gcc.h **** __STATIC_FORCEINLINE uint32_t __get_FAULTMASK(void)
 595:HAL_Lib/CMSIS/Core/Include/cmsis_gcc.h **** {
 596:HAL_Lib/CMSIS/Core/Include/cmsis_gcc.h ****   uint32_t result;
 597:HAL_Lib/CMSIS/Core/Include/cmsis_gcc.h **** 
 598:HAL_Lib/CMSIS/Core/Include/cmsis_gcc.h ****   __ASM volatile ("MRS %0, faultmask" : "=r" (result) );
ARM GAS  /var/folders/8_/_8bzxkcs1296m80nzxdrn9q80000gn/T//cct2bcP8.s 			page 30


 599:HAL_Lib/CMSIS/Core/Include/cmsis_gcc.h ****   return(result);
 600:HAL_Lib/CMSIS/Core/Include/cmsis_gcc.h **** }
 601:HAL_Lib/CMSIS/Core/Include/cmsis_gcc.h **** 
 602:HAL_Lib/CMSIS/Core/Include/cmsis_gcc.h **** 
 603:HAL_Lib/CMSIS/Core/Include/cmsis_gcc.h **** #if (defined (__ARM_FEATURE_CMSE ) && (__ARM_FEATURE_CMSE == 3))
 604:HAL_Lib/CMSIS/Core/Include/cmsis_gcc.h **** /**
 605:HAL_Lib/CMSIS/Core/Include/cmsis_gcc.h ****   \brief   Get Fault Mask (non-secure)
 606:HAL_Lib/CMSIS/Core/Include/cmsis_gcc.h ****   \details Returns the current value of the non-secure Fault Mask register when in secure state.
 607:HAL_Lib/CMSIS/Core/Include/cmsis_gcc.h ****   \return               Fault Mask register value
 608:HAL_Lib/CMSIS/Core/Include/cmsis_gcc.h ****  */
 609:HAL_Lib/CMSIS/Core/Include/cmsis_gcc.h **** __STATIC_FORCEINLINE uint32_t __TZ_get_FAULTMASK_NS(void)
 610:HAL_Lib/CMSIS/Core/Include/cmsis_gcc.h **** {
 611:HAL_Lib/CMSIS/Core/Include/cmsis_gcc.h ****   uint32_t result;
 612:HAL_Lib/CMSIS/Core/Include/cmsis_gcc.h **** 
 613:HAL_Lib/CMSIS/Core/Include/cmsis_gcc.h ****   __ASM volatile ("MRS %0, faultmask_ns" : "=r" (result) );
 614:HAL_Lib/CMSIS/Core/Include/cmsis_gcc.h ****   return(result);
 615:HAL_Lib/CMSIS/Core/Include/cmsis_gcc.h **** }
 616:HAL_Lib/CMSIS/Core/Include/cmsis_gcc.h **** #endif
 617:HAL_Lib/CMSIS/Core/Include/cmsis_gcc.h **** 
 618:HAL_Lib/CMSIS/Core/Include/cmsis_gcc.h **** 
 619:HAL_Lib/CMSIS/Core/Include/cmsis_gcc.h **** /**
 620:HAL_Lib/CMSIS/Core/Include/cmsis_gcc.h ****   \brief   Set Fault Mask
 621:HAL_Lib/CMSIS/Core/Include/cmsis_gcc.h ****   \details Assigns the given value to the Fault Mask register.
 622:HAL_Lib/CMSIS/Core/Include/cmsis_gcc.h ****   \param [in]    faultMask  Fault Mask value to set
 623:HAL_Lib/CMSIS/Core/Include/cmsis_gcc.h ****  */
 624:HAL_Lib/CMSIS/Core/Include/cmsis_gcc.h **** __STATIC_FORCEINLINE void __set_FAULTMASK(uint32_t faultMask)
 625:HAL_Lib/CMSIS/Core/Include/cmsis_gcc.h **** {
 626:HAL_Lib/CMSIS/Core/Include/cmsis_gcc.h ****   __ASM volatile ("MSR faultmask, %0" : : "r" (faultMask) : "memory");
 627:HAL_Lib/CMSIS/Core/Include/cmsis_gcc.h **** }
 628:HAL_Lib/CMSIS/Core/Include/cmsis_gcc.h **** 
 629:HAL_Lib/CMSIS/Core/Include/cmsis_gcc.h **** 
 630:HAL_Lib/CMSIS/Core/Include/cmsis_gcc.h **** #if (defined (__ARM_FEATURE_CMSE ) && (__ARM_FEATURE_CMSE == 3))
 631:HAL_Lib/CMSIS/Core/Include/cmsis_gcc.h **** /**
 632:HAL_Lib/CMSIS/Core/Include/cmsis_gcc.h ****   \brief   Set Fault Mask (non-secure)
 633:HAL_Lib/CMSIS/Core/Include/cmsis_gcc.h ****   \details Assigns the given value to the non-secure Fault Mask register when in secure state.
 634:HAL_Lib/CMSIS/Core/Include/cmsis_gcc.h ****   \param [in]    faultMask  Fault Mask value to set
 635:HAL_Lib/CMSIS/Core/Include/cmsis_gcc.h ****  */
 636:HAL_Lib/CMSIS/Core/Include/cmsis_gcc.h **** __STATIC_FORCEINLINE void __TZ_set_FAULTMASK_NS(uint32_t faultMask)
 637:HAL_Lib/CMSIS/Core/Include/cmsis_gcc.h **** {
 638:HAL_Lib/CMSIS/Core/Include/cmsis_gcc.h ****   __ASM volatile ("MSR faultmask_ns, %0" : : "r" (faultMask) : "memory");
 639:HAL_Lib/CMSIS/Core/Include/cmsis_gcc.h **** }
 640:HAL_Lib/CMSIS/Core/Include/cmsis_gcc.h **** #endif
 641:HAL_Lib/CMSIS/Core/Include/cmsis_gcc.h **** 
 642:HAL_Lib/CMSIS/Core/Include/cmsis_gcc.h **** #endif /* ((defined (__ARM_ARCH_7M__      ) && (__ARM_ARCH_7M__      == 1)) || \
 643:HAL_Lib/CMSIS/Core/Include/cmsis_gcc.h ****            (defined (__ARM_ARCH_7EM__     ) && (__ARM_ARCH_7EM__     == 1)) || \
 644:HAL_Lib/CMSIS/Core/Include/cmsis_gcc.h ****            (defined (__ARM_ARCH_8M_MAIN__ ) && (__ARM_ARCH_8M_MAIN__ == 1))    ) */
 645:HAL_Lib/CMSIS/Core/Include/cmsis_gcc.h **** 
 646:HAL_Lib/CMSIS/Core/Include/cmsis_gcc.h **** 
 647:HAL_Lib/CMSIS/Core/Include/cmsis_gcc.h **** #if ((defined (__ARM_ARCH_8M_MAIN__ ) && (__ARM_ARCH_8M_MAIN__ == 1)) || \
 648:HAL_Lib/CMSIS/Core/Include/cmsis_gcc.h ****      (defined (__ARM_ARCH_8M_BASE__ ) && (__ARM_ARCH_8M_BASE__ == 1))    )
 649:HAL_Lib/CMSIS/Core/Include/cmsis_gcc.h **** 
 650:HAL_Lib/CMSIS/Core/Include/cmsis_gcc.h **** /**
 651:HAL_Lib/CMSIS/Core/Include/cmsis_gcc.h ****   \brief   Get Process Stack Pointer Limit
 652:HAL_Lib/CMSIS/Core/Include/cmsis_gcc.h ****   Devices without ARMv8-M Main Extensions (i.e. Cortex-M23) lack the non-secure
 653:HAL_Lib/CMSIS/Core/Include/cmsis_gcc.h ****   Stack Pointer Limit register hence zero is returned always in non-secure
 654:HAL_Lib/CMSIS/Core/Include/cmsis_gcc.h ****   mode.
 655:HAL_Lib/CMSIS/Core/Include/cmsis_gcc.h ****   
ARM GAS  /var/folders/8_/_8bzxkcs1296m80nzxdrn9q80000gn/T//cct2bcP8.s 			page 31


 656:HAL_Lib/CMSIS/Core/Include/cmsis_gcc.h ****   \details Returns the current value of the Process Stack Pointer Limit (PSPLIM).
 657:HAL_Lib/CMSIS/Core/Include/cmsis_gcc.h ****   \return               PSPLIM Register value
 658:HAL_Lib/CMSIS/Core/Include/cmsis_gcc.h ****  */
 659:HAL_Lib/CMSIS/Core/Include/cmsis_gcc.h **** __STATIC_FORCEINLINE uint32_t __get_PSPLIM(void)
 660:HAL_Lib/CMSIS/Core/Include/cmsis_gcc.h **** {
 661:HAL_Lib/CMSIS/Core/Include/cmsis_gcc.h **** #if (!(defined (__ARM_ARCH_8M_MAIN__ ) && (__ARM_ARCH_8M_MAIN__ == 1)) && \
 662:HAL_Lib/CMSIS/Core/Include/cmsis_gcc.h ****     (!defined (__ARM_FEATURE_CMSE) || (__ARM_FEATURE_CMSE < 3)))
 663:HAL_Lib/CMSIS/Core/Include/cmsis_gcc.h ****     // without main extensions, the non-secure PSPLIM is RAZ/WI
 664:HAL_Lib/CMSIS/Core/Include/cmsis_gcc.h ****   return 0U;
 665:HAL_Lib/CMSIS/Core/Include/cmsis_gcc.h **** #else
 666:HAL_Lib/CMSIS/Core/Include/cmsis_gcc.h ****   uint32_t result;
 667:HAL_Lib/CMSIS/Core/Include/cmsis_gcc.h ****   __ASM volatile ("MRS %0, psplim"  : "=r" (result) );
 668:HAL_Lib/CMSIS/Core/Include/cmsis_gcc.h ****   return result;
 669:HAL_Lib/CMSIS/Core/Include/cmsis_gcc.h **** #endif
 670:HAL_Lib/CMSIS/Core/Include/cmsis_gcc.h **** }
 671:HAL_Lib/CMSIS/Core/Include/cmsis_gcc.h **** 
 672:HAL_Lib/CMSIS/Core/Include/cmsis_gcc.h **** #if (defined (__ARM_FEATURE_CMSE) && (__ARM_FEATURE_CMSE == 3))
 673:HAL_Lib/CMSIS/Core/Include/cmsis_gcc.h **** /**
 674:HAL_Lib/CMSIS/Core/Include/cmsis_gcc.h ****   \brief   Get Process Stack Pointer Limit (non-secure)
 675:HAL_Lib/CMSIS/Core/Include/cmsis_gcc.h ****   Devices without ARMv8-M Main Extensions (i.e. Cortex-M23) lack the non-secure
 676:HAL_Lib/CMSIS/Core/Include/cmsis_gcc.h ****   Stack Pointer Limit register hence zero is returned always.
 677:HAL_Lib/CMSIS/Core/Include/cmsis_gcc.h **** 
 678:HAL_Lib/CMSIS/Core/Include/cmsis_gcc.h ****   \details Returns the current value of the non-secure Process Stack Pointer Limit (PSPLIM) when in
 679:HAL_Lib/CMSIS/Core/Include/cmsis_gcc.h ****   \return               PSPLIM Register value
 680:HAL_Lib/CMSIS/Core/Include/cmsis_gcc.h ****  */
 681:HAL_Lib/CMSIS/Core/Include/cmsis_gcc.h **** __STATIC_FORCEINLINE uint32_t __TZ_get_PSPLIM_NS(void)
 682:HAL_Lib/CMSIS/Core/Include/cmsis_gcc.h **** {
 683:HAL_Lib/CMSIS/Core/Include/cmsis_gcc.h **** #if (!(defined (__ARM_ARCH_8M_MAIN__ ) && (__ARM_ARCH_8M_MAIN__ == 1)))
 684:HAL_Lib/CMSIS/Core/Include/cmsis_gcc.h ****   // without main extensions, the non-secure PSPLIM is RAZ/WI
 685:HAL_Lib/CMSIS/Core/Include/cmsis_gcc.h ****   return 0U;
 686:HAL_Lib/CMSIS/Core/Include/cmsis_gcc.h **** #else
 687:HAL_Lib/CMSIS/Core/Include/cmsis_gcc.h ****   uint32_t result;
 688:HAL_Lib/CMSIS/Core/Include/cmsis_gcc.h ****   __ASM volatile ("MRS %0, psplim_ns"  : "=r" (result) );
 689:HAL_Lib/CMSIS/Core/Include/cmsis_gcc.h ****   return result;
 690:HAL_Lib/CMSIS/Core/Include/cmsis_gcc.h **** #endif
 691:HAL_Lib/CMSIS/Core/Include/cmsis_gcc.h **** }
 692:HAL_Lib/CMSIS/Core/Include/cmsis_gcc.h **** #endif
 693:HAL_Lib/CMSIS/Core/Include/cmsis_gcc.h **** 
 694:HAL_Lib/CMSIS/Core/Include/cmsis_gcc.h **** 
 695:HAL_Lib/CMSIS/Core/Include/cmsis_gcc.h **** /**
 696:HAL_Lib/CMSIS/Core/Include/cmsis_gcc.h ****   \brief   Set Process Stack Pointer Limit
 697:HAL_Lib/CMSIS/Core/Include/cmsis_gcc.h ****   Devices without ARMv8-M Main Extensions (i.e. Cortex-M23) lack the non-secure
 698:HAL_Lib/CMSIS/Core/Include/cmsis_gcc.h ****   Stack Pointer Limit register hence the write is silently ignored in non-secure
 699:HAL_Lib/CMSIS/Core/Include/cmsis_gcc.h ****   mode.
 700:HAL_Lib/CMSIS/Core/Include/cmsis_gcc.h ****   
 701:HAL_Lib/CMSIS/Core/Include/cmsis_gcc.h ****   \details Assigns the given value to the Process Stack Pointer Limit (PSPLIM).
 702:HAL_Lib/CMSIS/Core/Include/cmsis_gcc.h ****   \param [in]    ProcStackPtrLimit  Process Stack Pointer Limit value to set
 703:HAL_Lib/CMSIS/Core/Include/cmsis_gcc.h ****  */
 704:HAL_Lib/CMSIS/Core/Include/cmsis_gcc.h **** __STATIC_FORCEINLINE void __set_PSPLIM(uint32_t ProcStackPtrLimit)
 705:HAL_Lib/CMSIS/Core/Include/cmsis_gcc.h **** {
 706:HAL_Lib/CMSIS/Core/Include/cmsis_gcc.h **** #if (!(defined (__ARM_ARCH_8M_MAIN__ ) && (__ARM_ARCH_8M_MAIN__ == 1)) && \
 707:HAL_Lib/CMSIS/Core/Include/cmsis_gcc.h ****     (!defined (__ARM_FEATURE_CMSE) || (__ARM_FEATURE_CMSE < 3)))
 708:HAL_Lib/CMSIS/Core/Include/cmsis_gcc.h ****   // without main extensions, the non-secure PSPLIM is RAZ/WI
 709:HAL_Lib/CMSIS/Core/Include/cmsis_gcc.h ****   (void)ProcStackPtrLimit;
 710:HAL_Lib/CMSIS/Core/Include/cmsis_gcc.h **** #else
 711:HAL_Lib/CMSIS/Core/Include/cmsis_gcc.h ****   __ASM volatile ("MSR psplim, %0" : : "r" (ProcStackPtrLimit));
 712:HAL_Lib/CMSIS/Core/Include/cmsis_gcc.h **** #endif
ARM GAS  /var/folders/8_/_8bzxkcs1296m80nzxdrn9q80000gn/T//cct2bcP8.s 			page 32


 713:HAL_Lib/CMSIS/Core/Include/cmsis_gcc.h **** }
 714:HAL_Lib/CMSIS/Core/Include/cmsis_gcc.h **** 
 715:HAL_Lib/CMSIS/Core/Include/cmsis_gcc.h **** 
 716:HAL_Lib/CMSIS/Core/Include/cmsis_gcc.h **** #if (defined (__ARM_FEATURE_CMSE  ) && (__ARM_FEATURE_CMSE   == 3))
 717:HAL_Lib/CMSIS/Core/Include/cmsis_gcc.h **** /**
 718:HAL_Lib/CMSIS/Core/Include/cmsis_gcc.h ****   \brief   Set Process Stack Pointer (non-secure)
 719:HAL_Lib/CMSIS/Core/Include/cmsis_gcc.h ****   Devices without ARMv8-M Main Extensions (i.e. Cortex-M23) lack the non-secure
 720:HAL_Lib/CMSIS/Core/Include/cmsis_gcc.h ****   Stack Pointer Limit register hence the write is silently ignored.
 721:HAL_Lib/CMSIS/Core/Include/cmsis_gcc.h **** 
 722:HAL_Lib/CMSIS/Core/Include/cmsis_gcc.h ****   \details Assigns the given value to the non-secure Process Stack Pointer Limit (PSPLIM) when in s
 723:HAL_Lib/CMSIS/Core/Include/cmsis_gcc.h ****   \param [in]    ProcStackPtrLimit  Process Stack Pointer Limit value to set
 724:HAL_Lib/CMSIS/Core/Include/cmsis_gcc.h ****  */
 725:HAL_Lib/CMSIS/Core/Include/cmsis_gcc.h **** __STATIC_FORCEINLINE void __TZ_set_PSPLIM_NS(uint32_t ProcStackPtrLimit)
 726:HAL_Lib/CMSIS/Core/Include/cmsis_gcc.h **** {
 727:HAL_Lib/CMSIS/Core/Include/cmsis_gcc.h **** #if (!(defined (__ARM_ARCH_8M_MAIN__ ) && (__ARM_ARCH_8M_MAIN__ == 1)))
 728:HAL_Lib/CMSIS/Core/Include/cmsis_gcc.h ****   // without main extensions, the non-secure PSPLIM is RAZ/WI
 729:HAL_Lib/CMSIS/Core/Include/cmsis_gcc.h ****   (void)ProcStackPtrLimit;
 730:HAL_Lib/CMSIS/Core/Include/cmsis_gcc.h **** #else
 731:HAL_Lib/CMSIS/Core/Include/cmsis_gcc.h ****   __ASM volatile ("MSR psplim_ns, %0\n" : : "r" (ProcStackPtrLimit));
 732:HAL_Lib/CMSIS/Core/Include/cmsis_gcc.h **** #endif
 733:HAL_Lib/CMSIS/Core/Include/cmsis_gcc.h **** }
 734:HAL_Lib/CMSIS/Core/Include/cmsis_gcc.h **** #endif
 735:HAL_Lib/CMSIS/Core/Include/cmsis_gcc.h **** 
 736:HAL_Lib/CMSIS/Core/Include/cmsis_gcc.h **** 
 737:HAL_Lib/CMSIS/Core/Include/cmsis_gcc.h **** /**
 738:HAL_Lib/CMSIS/Core/Include/cmsis_gcc.h ****   \brief   Get Main Stack Pointer Limit
 739:HAL_Lib/CMSIS/Core/Include/cmsis_gcc.h ****   Devices without ARMv8-M Main Extensions (i.e. Cortex-M23) lack the non-secure
 740:HAL_Lib/CMSIS/Core/Include/cmsis_gcc.h ****   Stack Pointer Limit register hence zero is returned always in non-secure
 741:HAL_Lib/CMSIS/Core/Include/cmsis_gcc.h ****   mode.
 742:HAL_Lib/CMSIS/Core/Include/cmsis_gcc.h **** 
 743:HAL_Lib/CMSIS/Core/Include/cmsis_gcc.h ****   \details Returns the current value of the Main Stack Pointer Limit (MSPLIM).
 744:HAL_Lib/CMSIS/Core/Include/cmsis_gcc.h ****   \return               MSPLIM Register value
 745:HAL_Lib/CMSIS/Core/Include/cmsis_gcc.h ****  */
 746:HAL_Lib/CMSIS/Core/Include/cmsis_gcc.h **** __STATIC_FORCEINLINE uint32_t __get_MSPLIM(void)
 747:HAL_Lib/CMSIS/Core/Include/cmsis_gcc.h **** {
 748:HAL_Lib/CMSIS/Core/Include/cmsis_gcc.h **** #if (!(defined (__ARM_ARCH_8M_MAIN__ ) && (__ARM_ARCH_8M_MAIN__ == 1)) && \
 749:HAL_Lib/CMSIS/Core/Include/cmsis_gcc.h ****     (!defined (__ARM_FEATURE_CMSE) || (__ARM_FEATURE_CMSE < 3)))
 750:HAL_Lib/CMSIS/Core/Include/cmsis_gcc.h ****   // without main extensions, the non-secure MSPLIM is RAZ/WI
 751:HAL_Lib/CMSIS/Core/Include/cmsis_gcc.h ****   return 0U;
 752:HAL_Lib/CMSIS/Core/Include/cmsis_gcc.h **** #else
 753:HAL_Lib/CMSIS/Core/Include/cmsis_gcc.h ****   uint32_t result;
 754:HAL_Lib/CMSIS/Core/Include/cmsis_gcc.h ****   __ASM volatile ("MRS %0, msplim" : "=r" (result) );
 755:HAL_Lib/CMSIS/Core/Include/cmsis_gcc.h ****   return result;
 756:HAL_Lib/CMSIS/Core/Include/cmsis_gcc.h **** #endif
 757:HAL_Lib/CMSIS/Core/Include/cmsis_gcc.h **** }
 758:HAL_Lib/CMSIS/Core/Include/cmsis_gcc.h **** 
 759:HAL_Lib/CMSIS/Core/Include/cmsis_gcc.h **** 
 760:HAL_Lib/CMSIS/Core/Include/cmsis_gcc.h **** #if (defined (__ARM_FEATURE_CMSE  ) && (__ARM_FEATURE_CMSE   == 3))
 761:HAL_Lib/CMSIS/Core/Include/cmsis_gcc.h **** /**
 762:HAL_Lib/CMSIS/Core/Include/cmsis_gcc.h ****   \brief   Get Main Stack Pointer Limit (non-secure)
 763:HAL_Lib/CMSIS/Core/Include/cmsis_gcc.h ****   Devices without ARMv8-M Main Extensions (i.e. Cortex-M23) lack the non-secure
 764:HAL_Lib/CMSIS/Core/Include/cmsis_gcc.h ****   Stack Pointer Limit register hence zero is returned always.
 765:HAL_Lib/CMSIS/Core/Include/cmsis_gcc.h **** 
 766:HAL_Lib/CMSIS/Core/Include/cmsis_gcc.h ****   \details Returns the current value of the non-secure Main Stack Pointer Limit(MSPLIM) when in sec
 767:HAL_Lib/CMSIS/Core/Include/cmsis_gcc.h ****   \return               MSPLIM Register value
 768:HAL_Lib/CMSIS/Core/Include/cmsis_gcc.h ****  */
 769:HAL_Lib/CMSIS/Core/Include/cmsis_gcc.h **** __STATIC_FORCEINLINE uint32_t __TZ_get_MSPLIM_NS(void)
ARM GAS  /var/folders/8_/_8bzxkcs1296m80nzxdrn9q80000gn/T//cct2bcP8.s 			page 33


 770:HAL_Lib/CMSIS/Core/Include/cmsis_gcc.h **** {
 771:HAL_Lib/CMSIS/Core/Include/cmsis_gcc.h **** #if (!(defined (__ARM_ARCH_8M_MAIN__ ) && (__ARM_ARCH_8M_MAIN__ == 1)))
 772:HAL_Lib/CMSIS/Core/Include/cmsis_gcc.h ****   // without main extensions, the non-secure MSPLIM is RAZ/WI
 773:HAL_Lib/CMSIS/Core/Include/cmsis_gcc.h ****   return 0U;
 774:HAL_Lib/CMSIS/Core/Include/cmsis_gcc.h **** #else
 775:HAL_Lib/CMSIS/Core/Include/cmsis_gcc.h ****   uint32_t result;
 776:HAL_Lib/CMSIS/Core/Include/cmsis_gcc.h ****   __ASM volatile ("MRS %0, msplim_ns" : "=r" (result) );
 777:HAL_Lib/CMSIS/Core/Include/cmsis_gcc.h ****   return result;
 778:HAL_Lib/CMSIS/Core/Include/cmsis_gcc.h **** #endif
 779:HAL_Lib/CMSIS/Core/Include/cmsis_gcc.h **** }
 780:HAL_Lib/CMSIS/Core/Include/cmsis_gcc.h **** #endif
 781:HAL_Lib/CMSIS/Core/Include/cmsis_gcc.h **** 
 782:HAL_Lib/CMSIS/Core/Include/cmsis_gcc.h **** 
 783:HAL_Lib/CMSIS/Core/Include/cmsis_gcc.h **** /**
 784:HAL_Lib/CMSIS/Core/Include/cmsis_gcc.h ****   \brief   Set Main Stack Pointer Limit
 785:HAL_Lib/CMSIS/Core/Include/cmsis_gcc.h ****   Devices without ARMv8-M Main Extensions (i.e. Cortex-M23) lack the non-secure
 786:HAL_Lib/CMSIS/Core/Include/cmsis_gcc.h ****   Stack Pointer Limit register hence the write is silently ignored in non-secure
 787:HAL_Lib/CMSIS/Core/Include/cmsis_gcc.h ****   mode.
 788:HAL_Lib/CMSIS/Core/Include/cmsis_gcc.h **** 
 789:HAL_Lib/CMSIS/Core/Include/cmsis_gcc.h ****   \details Assigns the given value to the Main Stack Pointer Limit (MSPLIM).
 790:HAL_Lib/CMSIS/Core/Include/cmsis_gcc.h ****   \param [in]    MainStackPtrLimit  Main Stack Pointer Limit value to set
 791:HAL_Lib/CMSIS/Core/Include/cmsis_gcc.h ****  */
 792:HAL_Lib/CMSIS/Core/Include/cmsis_gcc.h **** __STATIC_FORCEINLINE void __set_MSPLIM(uint32_t MainStackPtrLimit)
 793:HAL_Lib/CMSIS/Core/Include/cmsis_gcc.h **** {
 794:HAL_Lib/CMSIS/Core/Include/cmsis_gcc.h **** #if (!(defined (__ARM_ARCH_8M_MAIN__ ) && (__ARM_ARCH_8M_MAIN__ == 1)) && \
 795:HAL_Lib/CMSIS/Core/Include/cmsis_gcc.h ****     (!defined (__ARM_FEATURE_CMSE) || (__ARM_FEATURE_CMSE < 3)))
 796:HAL_Lib/CMSIS/Core/Include/cmsis_gcc.h ****   // without main extensions, the non-secure MSPLIM is RAZ/WI
 797:HAL_Lib/CMSIS/Core/Include/cmsis_gcc.h ****   (void)MainStackPtrLimit;
 798:HAL_Lib/CMSIS/Core/Include/cmsis_gcc.h **** #else
 799:HAL_Lib/CMSIS/Core/Include/cmsis_gcc.h ****   __ASM volatile ("MSR msplim, %0" : : "r" (MainStackPtrLimit));
 800:HAL_Lib/CMSIS/Core/Include/cmsis_gcc.h **** #endif
 801:HAL_Lib/CMSIS/Core/Include/cmsis_gcc.h **** }
 802:HAL_Lib/CMSIS/Core/Include/cmsis_gcc.h **** 
 803:HAL_Lib/CMSIS/Core/Include/cmsis_gcc.h **** 
 804:HAL_Lib/CMSIS/Core/Include/cmsis_gcc.h **** #if (defined (__ARM_FEATURE_CMSE  ) && (__ARM_FEATURE_CMSE   == 3))
 805:HAL_Lib/CMSIS/Core/Include/cmsis_gcc.h **** /**
 806:HAL_Lib/CMSIS/Core/Include/cmsis_gcc.h ****   \brief   Set Main Stack Pointer Limit (non-secure)
 807:HAL_Lib/CMSIS/Core/Include/cmsis_gcc.h ****   Devices without ARMv8-M Main Extensions (i.e. Cortex-M23) lack the non-secure
 808:HAL_Lib/CMSIS/Core/Include/cmsis_gcc.h ****   Stack Pointer Limit register hence the write is silently ignored.
 809:HAL_Lib/CMSIS/Core/Include/cmsis_gcc.h **** 
 810:HAL_Lib/CMSIS/Core/Include/cmsis_gcc.h ****   \details Assigns the given value to the non-secure Main Stack Pointer Limit (MSPLIM) when in secu
 811:HAL_Lib/CMSIS/Core/Include/cmsis_gcc.h ****   \param [in]    MainStackPtrLimit  Main Stack Pointer value to set
 812:HAL_Lib/CMSIS/Core/Include/cmsis_gcc.h ****  */
 813:HAL_Lib/CMSIS/Core/Include/cmsis_gcc.h **** __STATIC_FORCEINLINE void __TZ_set_MSPLIM_NS(uint32_t MainStackPtrLimit)
 814:HAL_Lib/CMSIS/Core/Include/cmsis_gcc.h **** {
 815:HAL_Lib/CMSIS/Core/Include/cmsis_gcc.h **** #if (!(defined (__ARM_ARCH_8M_MAIN__ ) && (__ARM_ARCH_8M_MAIN__ == 1)))
 816:HAL_Lib/CMSIS/Core/Include/cmsis_gcc.h ****   // without main extensions, the non-secure MSPLIM is RAZ/WI
 817:HAL_Lib/CMSIS/Core/Include/cmsis_gcc.h ****   (void)MainStackPtrLimit;
 818:HAL_Lib/CMSIS/Core/Include/cmsis_gcc.h **** #else
 819:HAL_Lib/CMSIS/Core/Include/cmsis_gcc.h ****   __ASM volatile ("MSR msplim_ns, %0" : : "r" (MainStackPtrLimit));
 820:HAL_Lib/CMSIS/Core/Include/cmsis_gcc.h **** #endif
 821:HAL_Lib/CMSIS/Core/Include/cmsis_gcc.h **** }
 822:HAL_Lib/CMSIS/Core/Include/cmsis_gcc.h **** #endif
 823:HAL_Lib/CMSIS/Core/Include/cmsis_gcc.h **** 
 824:HAL_Lib/CMSIS/Core/Include/cmsis_gcc.h **** #endif /* ((defined (__ARM_ARCH_8M_MAIN__ ) && (__ARM_ARCH_8M_MAIN__ == 1)) || \
 825:HAL_Lib/CMSIS/Core/Include/cmsis_gcc.h ****            (defined (__ARM_ARCH_8M_BASE__ ) && (__ARM_ARCH_8M_BASE__ == 1))    ) */
 826:HAL_Lib/CMSIS/Core/Include/cmsis_gcc.h **** 
ARM GAS  /var/folders/8_/_8bzxkcs1296m80nzxdrn9q80000gn/T//cct2bcP8.s 			page 34


 827:HAL_Lib/CMSIS/Core/Include/cmsis_gcc.h **** 
 828:HAL_Lib/CMSIS/Core/Include/cmsis_gcc.h **** /**
 829:HAL_Lib/CMSIS/Core/Include/cmsis_gcc.h ****   \brief   Get FPSCR
 830:HAL_Lib/CMSIS/Core/Include/cmsis_gcc.h ****   \details Returns the current value of the Floating Point Status/Control register.
 831:HAL_Lib/CMSIS/Core/Include/cmsis_gcc.h ****   \return               Floating Point Status/Control register value
 832:HAL_Lib/CMSIS/Core/Include/cmsis_gcc.h ****  */
 833:HAL_Lib/CMSIS/Core/Include/cmsis_gcc.h **** __STATIC_FORCEINLINE uint32_t __get_FPSCR(void)
 834:HAL_Lib/CMSIS/Core/Include/cmsis_gcc.h **** {
 835:HAL_Lib/CMSIS/Core/Include/cmsis_gcc.h **** #if ((defined (__FPU_PRESENT) && (__FPU_PRESENT == 1U)) && \
 836:HAL_Lib/CMSIS/Core/Include/cmsis_gcc.h ****      (defined (__FPU_USED   ) && (__FPU_USED    == 1U))     )
 837:HAL_Lib/CMSIS/Core/Include/cmsis_gcc.h **** #if __has_builtin(__builtin_arm_get_fpscr) 
 838:HAL_Lib/CMSIS/Core/Include/cmsis_gcc.h **** // Re-enable using built-in when GCC has been fixed
 839:HAL_Lib/CMSIS/Core/Include/cmsis_gcc.h **** // || (__GNUC__ > 7) || (__GNUC__ == 7 && __GNUC_MINOR__ >= 2)
 840:HAL_Lib/CMSIS/Core/Include/cmsis_gcc.h ****   /* see https://gcc.gnu.org/ml/gcc-patches/2017-04/msg00443.html */
 841:HAL_Lib/CMSIS/Core/Include/cmsis_gcc.h ****   return __builtin_arm_get_fpscr();
 842:HAL_Lib/CMSIS/Core/Include/cmsis_gcc.h **** #else
 843:HAL_Lib/CMSIS/Core/Include/cmsis_gcc.h ****   uint32_t result;
 844:HAL_Lib/CMSIS/Core/Include/cmsis_gcc.h **** 
 845:HAL_Lib/CMSIS/Core/Include/cmsis_gcc.h ****   __ASM volatile ("VMRS %0, fpscr" : "=r" (result) );
 846:HAL_Lib/CMSIS/Core/Include/cmsis_gcc.h ****   return(result);
 847:HAL_Lib/CMSIS/Core/Include/cmsis_gcc.h **** #endif
 848:HAL_Lib/CMSIS/Core/Include/cmsis_gcc.h **** #else
 849:HAL_Lib/CMSIS/Core/Include/cmsis_gcc.h ****   return(0U);
 850:HAL_Lib/CMSIS/Core/Include/cmsis_gcc.h **** #endif
 851:HAL_Lib/CMSIS/Core/Include/cmsis_gcc.h **** }
 852:HAL_Lib/CMSIS/Core/Include/cmsis_gcc.h **** 
 853:HAL_Lib/CMSIS/Core/Include/cmsis_gcc.h **** 
 854:HAL_Lib/CMSIS/Core/Include/cmsis_gcc.h **** /**
 855:HAL_Lib/CMSIS/Core/Include/cmsis_gcc.h ****   \brief   Set FPSCR
 856:HAL_Lib/CMSIS/Core/Include/cmsis_gcc.h ****   \details Assigns the given value to the Floating Point Status/Control register.
 857:HAL_Lib/CMSIS/Core/Include/cmsis_gcc.h ****   \param [in]    fpscr  Floating Point Status/Control value to set
 858:HAL_Lib/CMSIS/Core/Include/cmsis_gcc.h ****  */
 859:HAL_Lib/CMSIS/Core/Include/cmsis_gcc.h **** __STATIC_FORCEINLINE void __set_FPSCR(uint32_t fpscr)
 860:HAL_Lib/CMSIS/Core/Include/cmsis_gcc.h **** {
 861:HAL_Lib/CMSIS/Core/Include/cmsis_gcc.h **** #if ((defined (__FPU_PRESENT) && (__FPU_PRESENT == 1U)) && \
 862:HAL_Lib/CMSIS/Core/Include/cmsis_gcc.h ****      (defined (__FPU_USED   ) && (__FPU_USED    == 1U))     )
 863:HAL_Lib/CMSIS/Core/Include/cmsis_gcc.h **** #if __has_builtin(__builtin_arm_set_fpscr)
 864:HAL_Lib/CMSIS/Core/Include/cmsis_gcc.h **** // Re-enable using built-in when GCC has been fixed
 865:HAL_Lib/CMSIS/Core/Include/cmsis_gcc.h **** // || (__GNUC__ > 7) || (__GNUC__ == 7 && __GNUC_MINOR__ >= 2)
 866:HAL_Lib/CMSIS/Core/Include/cmsis_gcc.h ****   /* see https://gcc.gnu.org/ml/gcc-patches/2017-04/msg00443.html */
 867:HAL_Lib/CMSIS/Core/Include/cmsis_gcc.h ****   __builtin_arm_set_fpscr(fpscr);
 868:HAL_Lib/CMSIS/Core/Include/cmsis_gcc.h **** #else
 869:HAL_Lib/CMSIS/Core/Include/cmsis_gcc.h ****   __ASM volatile ("VMSR fpscr, %0" : : "r" (fpscr) : "vfpcc", "memory");
 870:HAL_Lib/CMSIS/Core/Include/cmsis_gcc.h **** #endif
 871:HAL_Lib/CMSIS/Core/Include/cmsis_gcc.h **** #else
 872:HAL_Lib/CMSIS/Core/Include/cmsis_gcc.h ****   (void)fpscr;
 873:HAL_Lib/CMSIS/Core/Include/cmsis_gcc.h **** #endif
 874:HAL_Lib/CMSIS/Core/Include/cmsis_gcc.h **** }
 875:HAL_Lib/CMSIS/Core/Include/cmsis_gcc.h **** 
 876:HAL_Lib/CMSIS/Core/Include/cmsis_gcc.h **** 
 877:HAL_Lib/CMSIS/Core/Include/cmsis_gcc.h **** /*@} end of CMSIS_Core_RegAccFunctions */
 878:HAL_Lib/CMSIS/Core/Include/cmsis_gcc.h **** 
 879:HAL_Lib/CMSIS/Core/Include/cmsis_gcc.h **** 
 880:HAL_Lib/CMSIS/Core/Include/cmsis_gcc.h **** /* ##########################  Core Instruction Access  ######################### */
 881:HAL_Lib/CMSIS/Core/Include/cmsis_gcc.h **** /** \defgroup CMSIS_Core_InstructionInterface CMSIS Core Instruction Interface
 882:HAL_Lib/CMSIS/Core/Include/cmsis_gcc.h ****   Access to dedicated instructions
 883:HAL_Lib/CMSIS/Core/Include/cmsis_gcc.h ****   @{
ARM GAS  /var/folders/8_/_8bzxkcs1296m80nzxdrn9q80000gn/T//cct2bcP8.s 			page 35


 884:HAL_Lib/CMSIS/Core/Include/cmsis_gcc.h **** */
 885:HAL_Lib/CMSIS/Core/Include/cmsis_gcc.h **** 
 886:HAL_Lib/CMSIS/Core/Include/cmsis_gcc.h **** /* Define macros for porting to both thumb1 and thumb2.
 887:HAL_Lib/CMSIS/Core/Include/cmsis_gcc.h ****  * For thumb1, use low register (r0-r7), specified by constraint "l"
 888:HAL_Lib/CMSIS/Core/Include/cmsis_gcc.h ****  * Otherwise, use general registers, specified by constraint "r" */
 889:HAL_Lib/CMSIS/Core/Include/cmsis_gcc.h **** #if defined (__thumb__) && !defined (__thumb2__)
 890:HAL_Lib/CMSIS/Core/Include/cmsis_gcc.h **** #define __CMSIS_GCC_OUT_REG(r) "=l" (r)
 891:HAL_Lib/CMSIS/Core/Include/cmsis_gcc.h **** #define __CMSIS_GCC_RW_REG(r) "+l" (r)
 892:HAL_Lib/CMSIS/Core/Include/cmsis_gcc.h **** #define __CMSIS_GCC_USE_REG(r) "l" (r)
 893:HAL_Lib/CMSIS/Core/Include/cmsis_gcc.h **** #else
 894:HAL_Lib/CMSIS/Core/Include/cmsis_gcc.h **** #define __CMSIS_GCC_OUT_REG(r) "=r" (r)
 895:HAL_Lib/CMSIS/Core/Include/cmsis_gcc.h **** #define __CMSIS_GCC_RW_REG(r) "+r" (r)
 896:HAL_Lib/CMSIS/Core/Include/cmsis_gcc.h **** #define __CMSIS_GCC_USE_REG(r) "r" (r)
 897:HAL_Lib/CMSIS/Core/Include/cmsis_gcc.h **** #endif
 898:HAL_Lib/CMSIS/Core/Include/cmsis_gcc.h **** 
 899:HAL_Lib/CMSIS/Core/Include/cmsis_gcc.h **** /**
 900:HAL_Lib/CMSIS/Core/Include/cmsis_gcc.h ****   \brief   No Operation
 901:HAL_Lib/CMSIS/Core/Include/cmsis_gcc.h ****   \details No Operation does nothing. This instruction can be used for code alignment purposes.
 902:HAL_Lib/CMSIS/Core/Include/cmsis_gcc.h ****  */
 903:HAL_Lib/CMSIS/Core/Include/cmsis_gcc.h **** #define __NOP()                             __ASM volatile ("nop")
 904:HAL_Lib/CMSIS/Core/Include/cmsis_gcc.h **** 
 905:HAL_Lib/CMSIS/Core/Include/cmsis_gcc.h **** /**
 906:HAL_Lib/CMSIS/Core/Include/cmsis_gcc.h ****   \brief   Wait For Interrupt
 907:HAL_Lib/CMSIS/Core/Include/cmsis_gcc.h ****   \details Wait For Interrupt is a hint instruction that suspends execution until one of a number o
 908:HAL_Lib/CMSIS/Core/Include/cmsis_gcc.h ****  */
 909:HAL_Lib/CMSIS/Core/Include/cmsis_gcc.h **** #define __WFI()                             __ASM volatile ("wfi")
 910:HAL_Lib/CMSIS/Core/Include/cmsis_gcc.h **** 
 911:HAL_Lib/CMSIS/Core/Include/cmsis_gcc.h **** 
 912:HAL_Lib/CMSIS/Core/Include/cmsis_gcc.h **** /**
 913:HAL_Lib/CMSIS/Core/Include/cmsis_gcc.h ****   \brief   Wait For Event
 914:HAL_Lib/CMSIS/Core/Include/cmsis_gcc.h ****   \details Wait For Event is a hint instruction that permits the processor to enter
 915:HAL_Lib/CMSIS/Core/Include/cmsis_gcc.h ****            a low-power state until one of a number of events occurs.
 916:HAL_Lib/CMSIS/Core/Include/cmsis_gcc.h ****  */
 917:HAL_Lib/CMSIS/Core/Include/cmsis_gcc.h **** #define __WFE()                             __ASM volatile ("wfe")
 918:HAL_Lib/CMSIS/Core/Include/cmsis_gcc.h **** 
 919:HAL_Lib/CMSIS/Core/Include/cmsis_gcc.h **** 
 920:HAL_Lib/CMSIS/Core/Include/cmsis_gcc.h **** /**
 921:HAL_Lib/CMSIS/Core/Include/cmsis_gcc.h ****   \brief   Send Event
 922:HAL_Lib/CMSIS/Core/Include/cmsis_gcc.h ****   \details Send Event is a hint instruction. It causes an event to be signaled to the CPU.
 923:HAL_Lib/CMSIS/Core/Include/cmsis_gcc.h ****  */
 924:HAL_Lib/CMSIS/Core/Include/cmsis_gcc.h **** #define __SEV()                             __ASM volatile ("sev")
 925:HAL_Lib/CMSIS/Core/Include/cmsis_gcc.h **** 
 926:HAL_Lib/CMSIS/Core/Include/cmsis_gcc.h **** 
 927:HAL_Lib/CMSIS/Core/Include/cmsis_gcc.h **** /**
 928:HAL_Lib/CMSIS/Core/Include/cmsis_gcc.h ****   \brief   Instruction Synchronization Barrier
 929:HAL_Lib/CMSIS/Core/Include/cmsis_gcc.h ****   \details Instruction Synchronization Barrier flushes the pipeline in the processor,
 930:HAL_Lib/CMSIS/Core/Include/cmsis_gcc.h ****            so that all instructions following the ISB are fetched from cache or memory,
 931:HAL_Lib/CMSIS/Core/Include/cmsis_gcc.h ****            after the instruction has been completed.
 932:HAL_Lib/CMSIS/Core/Include/cmsis_gcc.h ****  */
 933:HAL_Lib/CMSIS/Core/Include/cmsis_gcc.h **** __STATIC_FORCEINLINE void __ISB(void)
 934:HAL_Lib/CMSIS/Core/Include/cmsis_gcc.h **** {
 935:HAL_Lib/CMSIS/Core/Include/cmsis_gcc.h ****   __ASM volatile ("isb 0xF":::"memory");
 936:HAL_Lib/CMSIS/Core/Include/cmsis_gcc.h **** }
 937:HAL_Lib/CMSIS/Core/Include/cmsis_gcc.h **** 
 938:HAL_Lib/CMSIS/Core/Include/cmsis_gcc.h **** 
 939:HAL_Lib/CMSIS/Core/Include/cmsis_gcc.h **** /**
 940:HAL_Lib/CMSIS/Core/Include/cmsis_gcc.h ****   \brief   Data Synchronization Barrier
ARM GAS  /var/folders/8_/_8bzxkcs1296m80nzxdrn9q80000gn/T//cct2bcP8.s 			page 36


 941:HAL_Lib/CMSIS/Core/Include/cmsis_gcc.h ****   \details Acts as a special kind of Data Memory Barrier.
 942:HAL_Lib/CMSIS/Core/Include/cmsis_gcc.h ****            It completes when all explicit memory accesses before this instruction complete.
 943:HAL_Lib/CMSIS/Core/Include/cmsis_gcc.h ****  */
 944:HAL_Lib/CMSIS/Core/Include/cmsis_gcc.h **** __STATIC_FORCEINLINE void __DSB(void)
 423              		.loc 2 944 27 view .LVU69
 424              	.LBB11:
 945:HAL_Lib/CMSIS/Core/Include/cmsis_gcc.h **** {
 946:HAL_Lib/CMSIS/Core/Include/cmsis_gcc.h ****   __ASM volatile ("dsb 0xF":::"memory");
 425              		.loc 2 946 3 view .LVU70
 426              		.syntax unified
 427              	@ 946 "HAL_Lib/CMSIS/Core/Include/cmsis_gcc.h" 1
 428 0026 BFF34F8F 		dsb 0xF
 429              	@ 0 "" 2
 430              		.thumb
 431              		.syntax unified
 432              	.LBE11:
 433              	.LBE10:
 652:HAL_Lib/STM32H7xx_HAL_Driver/Src/stm32h7xx_hal_pwr.c ****   __ISB ();
 434              		.loc 1 652 3 view .LVU71
 435              	.LBB12:
 436              	.LBI12:
 933:HAL_Lib/CMSIS/Core/Include/cmsis_gcc.h **** {
 437              		.loc 2 933 27 view .LVU72
 438              	.LBB13:
 935:HAL_Lib/CMSIS/Core/Include/cmsis_gcc.h **** }
 439              		.loc 2 935 3 view .LVU73
 440              		.syntax unified
 441              	@ 935 "HAL_Lib/CMSIS/Core/Include/cmsis_gcc.h" 1
 442 002a BFF36F8F 		isb 0xF
 443              	@ 0 "" 2
 444              		.thumb
 445              		.syntax unified
 446              	.LBE13:
 447              	.LBE12:
 653:HAL_Lib/STM32H7xx_HAL_Driver/Src/stm32h7xx_hal_pwr.c **** 
 654:HAL_Lib/STM32H7xx_HAL_Driver/Src/stm32h7xx_hal_pwr.c ****   /* Select STOP mode entry */
 655:HAL_Lib/STM32H7xx_HAL_Driver/Src/stm32h7xx_hal_pwr.c ****   if (STOPEntry == PWR_STOPENTRY_WFI)
 448              		.loc 1 655 3 view .LVU74
 449              		.loc 1 655 6 is_stmt 0 view .LVU75
 450 002e 0129     		cmp	r1, #1
 451 0030 06D0     		beq	.L36
 656:HAL_Lib/STM32H7xx_HAL_Driver/Src/stm32h7xx_hal_pwr.c ****   {
 657:HAL_Lib/STM32H7xx_HAL_Driver/Src/stm32h7xx_hal_pwr.c ****     /* Request Wait For Interrupt */
 658:HAL_Lib/STM32H7xx_HAL_Driver/Src/stm32h7xx_hal_pwr.c ****     __WFI ();
 659:HAL_Lib/STM32H7xx_HAL_Driver/Src/stm32h7xx_hal_pwr.c ****   }
 660:HAL_Lib/STM32H7xx_HAL_Driver/Src/stm32h7xx_hal_pwr.c ****   else
 661:HAL_Lib/STM32H7xx_HAL_Driver/Src/stm32h7xx_hal_pwr.c ****   {
 662:HAL_Lib/STM32H7xx_HAL_Driver/Src/stm32h7xx_hal_pwr.c ****     /* Request Wait For Event */
 663:HAL_Lib/STM32H7xx_HAL_Driver/Src/stm32h7xx_hal_pwr.c ****     __WFE ();
 452              		.loc 1 663 5 is_stmt 1 view .LVU76
 453              		.syntax unified
 454              	@ 663 "HAL_Lib/STM32H7xx_HAL_Driver/Src/stm32h7xx_hal_pwr.c" 1
 455 0032 20BF     		wfe
 456              	@ 0 "" 2
 457              		.thumb
 458              		.syntax unified
 459              	.L35:
ARM GAS  /var/folders/8_/_8bzxkcs1296m80nzxdrn9q80000gn/T//cct2bcP8.s 			page 37


 664:HAL_Lib/STM32H7xx_HAL_Driver/Src/stm32h7xx_hal_pwr.c ****   }
 665:HAL_Lib/STM32H7xx_HAL_Driver/Src/stm32h7xx_hal_pwr.c **** 
 666:HAL_Lib/STM32H7xx_HAL_Driver/Src/stm32h7xx_hal_pwr.c ****   /* Clear SLEEPDEEP bit of Cortex-Mx in the System Control Register */
 667:HAL_Lib/STM32H7xx_HAL_Driver/Src/stm32h7xx_hal_pwr.c ****   CLEAR_BIT (SCB->SCR, SCB_SCR_SLEEPDEEP_Msk);
 460              		.loc 1 667 3 view .LVU77
 461 0034 044A     		ldr	r2, .L37+4
 462 0036 1369     		ldr	r3, [r2, #16]
 463 0038 23F00403 		bic	r3, r3, #4
 464 003c 1361     		str	r3, [r2, #16]
 668:HAL_Lib/STM32H7xx_HAL_Driver/Src/stm32h7xx_hal_pwr.c **** }
 465              		.loc 1 668 1 is_stmt 0 view .LVU78
 466 003e 7047     		bx	lr
 467              	.L36:
 658:HAL_Lib/STM32H7xx_HAL_Driver/Src/stm32h7xx_hal_pwr.c ****   }
 468              		.loc 1 658 5 is_stmt 1 view .LVU79
 469              		.syntax unified
 470              	@ 658 "HAL_Lib/STM32H7xx_HAL_Driver/Src/stm32h7xx_hal_pwr.c" 1
 471 0040 30BF     		wfi
 472              	@ 0 "" 2
 473              		.thumb
 474              		.syntax unified
 475 0042 F7E7     		b	.L35
 476              	.L38:
 477              		.align	2
 478              	.L37:
 479 0044 00480258 		.word	1476544512
 480 0048 00ED00E0 		.word	-536810240
 481              		.cfi_endproc
 482              	.LFE153:
 484              		.section	.text.HAL_PWR_EnterSTANDBYMode,"ax",%progbits
 485              		.align	1
 486              		.global	HAL_PWR_EnterSTANDBYMode
 487              		.syntax unified
 488              		.thumb
 489              		.thumb_func
 490              		.fpu fpv5-d16
 492              	HAL_PWR_EnterSTANDBYMode:
 493              	.LFB154:
 669:HAL_Lib/STM32H7xx_HAL_Driver/Src/stm32h7xx_hal_pwr.c **** 
 670:HAL_Lib/STM32H7xx_HAL_Driver/Src/stm32h7xx_hal_pwr.c **** /**
 671:HAL_Lib/STM32H7xx_HAL_Driver/Src/stm32h7xx_hal_pwr.c ****   * @brief  Enter STANDBY mode.
 672:HAL_Lib/STM32H7xx_HAL_Driver/Src/stm32h7xx_hal_pwr.c ****   * @note   For single core devices, this API will enter the system in STANDBY
 673:HAL_Lib/STM32H7xx_HAL_Driver/Src/stm32h7xx_hal_pwr.c ****   *         mode with all domains in DSTANDBY, if RUN_D3/RUN_SRD bit in CPUCR
 674:HAL_Lib/STM32H7xx_HAL_Driver/Src/stm32h7xx_hal_pwr.c ****   *         register is cleared.
 675:HAL_Lib/STM32H7xx_HAL_Driver/Src/stm32h7xx_hal_pwr.c ****   *         For dual core devices, this API will enter the domain (containing
 676:HAL_Lib/STM32H7xx_HAL_Driver/Src/stm32h7xx_hal_pwr.c ****   *         Cortex-Mx that executing this function) in DSTANDBY mode. If all
 677:HAL_Lib/STM32H7xx_HAL_Driver/Src/stm32h7xx_hal_pwr.c ****   *         Cortex-Mx domains are in DSTANDBY and RUN_D3 bit in CPUCR register
 678:HAL_Lib/STM32H7xx_HAL_Driver/Src/stm32h7xx_hal_pwr.c ****   *         is cleared, all the system will enter in STANDBY mode.
 679:HAL_Lib/STM32H7xx_HAL_Driver/Src/stm32h7xx_hal_pwr.c ****   * @note   The system enters Standby mode only when all domains are in DSTANDBY.
 680:HAL_Lib/STM32H7xx_HAL_Driver/Src/stm32h7xx_hal_pwr.c ****   * @note   When the System exit STANDBY mode by issuing an interrupt or a
 681:HAL_Lib/STM32H7xx_HAL_Driver/Src/stm32h7xx_hal_pwr.c ****   *         wakeup event, the HSI RC oscillator is selected as system clock.
 682:HAL_Lib/STM32H7xx_HAL_Driver/Src/stm32h7xx_hal_pwr.c ****   * @note   It is recommended to disable all regulators before entring STANDBY
 683:HAL_Lib/STM32H7xx_HAL_Driver/Src/stm32h7xx_hal_pwr.c ****   *         mode for power consumption saving purpose.
 684:HAL_Lib/STM32H7xx_HAL_Driver/Src/stm32h7xx_hal_pwr.c ****   * @retval None.
 685:HAL_Lib/STM32H7xx_HAL_Driver/Src/stm32h7xx_hal_pwr.c ****   */
 686:HAL_Lib/STM32H7xx_HAL_Driver/Src/stm32h7xx_hal_pwr.c **** void HAL_PWR_EnterSTANDBYMode (void)
 687:HAL_Lib/STM32H7xx_HAL_Driver/Src/stm32h7xx_hal_pwr.c **** {
ARM GAS  /var/folders/8_/_8bzxkcs1296m80nzxdrn9q80000gn/T//cct2bcP8.s 			page 38


 494              		.loc 1 687 1 view -0
 495              		.cfi_startproc
 496              		@ args = 0, pretend = 0, frame = 0
 497              		@ frame_needed = 0, uses_anonymous_args = 0
 498              		@ link register save eliminated.
 688:HAL_Lib/STM32H7xx_HAL_Driver/Src/stm32h7xx_hal_pwr.c ****   /* Configure the PWR mode for the different Domains */
 689:HAL_Lib/STM32H7xx_HAL_Driver/Src/stm32h7xx_hal_pwr.c **** #if defined (DUAL_CORE)
 690:HAL_Lib/STM32H7xx_HAL_Driver/Src/stm32h7xx_hal_pwr.c ****   /* Check CPU ID */
 691:HAL_Lib/STM32H7xx_HAL_Driver/Src/stm32h7xx_hal_pwr.c ****   if (HAL_GetCurrentCPUID () == CM7_CPUID)
 692:HAL_Lib/STM32H7xx_HAL_Driver/Src/stm32h7xx_hal_pwr.c ****   {
 693:HAL_Lib/STM32H7xx_HAL_Driver/Src/stm32h7xx_hal_pwr.c ****     /* Enter DSTANDBY mode when Cortex-M7 enters DEEP-SLEEP */
 694:HAL_Lib/STM32H7xx_HAL_Driver/Src/stm32h7xx_hal_pwr.c ****     SET_BIT (PWR->CPUCR, (PWR_CPUCR_PDDS_D1 | PWR_CPUCR_PDDS_D3));
 695:HAL_Lib/STM32H7xx_HAL_Driver/Src/stm32h7xx_hal_pwr.c ****     SET_BIT (PWR->CPU2CR, (PWR_CPU2CR_PDDS_D1 | PWR_CPU2CR_PDDS_D3));
 696:HAL_Lib/STM32H7xx_HAL_Driver/Src/stm32h7xx_hal_pwr.c ****   }
 697:HAL_Lib/STM32H7xx_HAL_Driver/Src/stm32h7xx_hal_pwr.c ****   else
 698:HAL_Lib/STM32H7xx_HAL_Driver/Src/stm32h7xx_hal_pwr.c ****   {
 699:HAL_Lib/STM32H7xx_HAL_Driver/Src/stm32h7xx_hal_pwr.c ****     /* Enter DSTANDBY mode when Cortex-M4 enters DEEP-SLEEP */
 700:HAL_Lib/STM32H7xx_HAL_Driver/Src/stm32h7xx_hal_pwr.c ****     SET_BIT (PWR->CPUCR, (PWR_CPUCR_PDDS_D2 | PWR_CPUCR_PDDS_D3));
 701:HAL_Lib/STM32H7xx_HAL_Driver/Src/stm32h7xx_hal_pwr.c ****     SET_BIT (PWR->CPU2CR, (PWR_CPU2CR_PDDS_D2 | PWR_CPU2CR_PDDS_D3));
 702:HAL_Lib/STM32H7xx_HAL_Driver/Src/stm32h7xx_hal_pwr.c ****   }
 703:HAL_Lib/STM32H7xx_HAL_Driver/Src/stm32h7xx_hal_pwr.c **** #else /* Single core devices */
 704:HAL_Lib/STM32H7xx_HAL_Driver/Src/stm32h7xx_hal_pwr.c ****   /* Enter DSTANDBY mode when Cortex-M7 enters DEEP-SLEEP */
 705:HAL_Lib/STM32H7xx_HAL_Driver/Src/stm32h7xx_hal_pwr.c ****   SET_BIT (PWR->CPUCR, (PWR_CPUCR_PDDS_D1 | PWR_CPUCR_PDDS_D3));
 499              		.loc 1 705 3 view .LVU81
 500 0000 094B     		ldr	r3, .L40
 501 0002 1A69     		ldr	r2, [r3, #16]
 502 0004 42F00502 		orr	r2, r2, #5
 503 0008 1A61     		str	r2, [r3, #16]
 706:HAL_Lib/STM32H7xx_HAL_Driver/Src/stm32h7xx_hal_pwr.c **** 
 707:HAL_Lib/STM32H7xx_HAL_Driver/Src/stm32h7xx_hal_pwr.c **** #if defined (PWR_CPUCR_PDDS_D2)
 708:HAL_Lib/STM32H7xx_HAL_Driver/Src/stm32h7xx_hal_pwr.c ****   /* Enter DSTANDBY mode when Cortex-M7 enters DEEP-SLEEP */
 709:HAL_Lib/STM32H7xx_HAL_Driver/Src/stm32h7xx_hal_pwr.c ****   SET_BIT (PWR->CPUCR, PWR_CPUCR_PDDS_D2);
 504              		.loc 1 709 3 view .LVU82
 505 000a 1A69     		ldr	r2, [r3, #16]
 506 000c 42F00202 		orr	r2, r2, #2
 507 0010 1A61     		str	r2, [r3, #16]
 710:HAL_Lib/STM32H7xx_HAL_Driver/Src/stm32h7xx_hal_pwr.c **** #endif /* PWR_CPUCR_PDDS_D2 */
 711:HAL_Lib/STM32H7xx_HAL_Driver/Src/stm32h7xx_hal_pwr.c **** #endif /* defined (DUAL_CORE) */
 712:HAL_Lib/STM32H7xx_HAL_Driver/Src/stm32h7xx_hal_pwr.c **** 
 713:HAL_Lib/STM32H7xx_HAL_Driver/Src/stm32h7xx_hal_pwr.c ****   /* Set SLEEPDEEP bit of Cortex System Control Register */
 714:HAL_Lib/STM32H7xx_HAL_Driver/Src/stm32h7xx_hal_pwr.c ****   SET_BIT (SCB->SCR, SCB_SCR_SLEEPDEEP_Msk);
 508              		.loc 1 714 3 view .LVU83
 509 0012 064A     		ldr	r2, .L40+4
 510 0014 1369     		ldr	r3, [r2, #16]
 511 0016 43F00403 		orr	r3, r3, #4
 512 001a 1361     		str	r3, [r2, #16]
 715:HAL_Lib/STM32H7xx_HAL_Driver/Src/stm32h7xx_hal_pwr.c **** 
 716:HAL_Lib/STM32H7xx_HAL_Driver/Src/stm32h7xx_hal_pwr.c ****   /* Ensure that all instructions are done before entering STOP mode */
 717:HAL_Lib/STM32H7xx_HAL_Driver/Src/stm32h7xx_hal_pwr.c ****   __DSB ();
 513              		.loc 1 717 3 view .LVU84
 514              	.LBB14:
 515              	.LBI14:
 944:HAL_Lib/CMSIS/Core/Include/cmsis_gcc.h **** {
 516              		.loc 2 944 27 view .LVU85
 517              	.LBB15:
 518              		.loc 2 946 3 view .LVU86
 519              		.syntax unified
ARM GAS  /var/folders/8_/_8bzxkcs1296m80nzxdrn9q80000gn/T//cct2bcP8.s 			page 39


 520              	@ 946 "HAL_Lib/CMSIS/Core/Include/cmsis_gcc.h" 1
 521 001c BFF34F8F 		dsb 0xF
 522              	@ 0 "" 2
 523              		.thumb
 524              		.syntax unified
 525              	.LBE15:
 526              	.LBE14:
 718:HAL_Lib/STM32H7xx_HAL_Driver/Src/stm32h7xx_hal_pwr.c ****   __ISB ();
 527              		.loc 1 718 3 view .LVU87
 528              	.LBB16:
 529              	.LBI16:
 933:HAL_Lib/CMSIS/Core/Include/cmsis_gcc.h **** {
 530              		.loc 2 933 27 view .LVU88
 531              	.LBB17:
 935:HAL_Lib/CMSIS/Core/Include/cmsis_gcc.h **** }
 532              		.loc 2 935 3 view .LVU89
 533              		.syntax unified
 534              	@ 935 "HAL_Lib/CMSIS/Core/Include/cmsis_gcc.h" 1
 535 0020 BFF36F8F 		isb 0xF
 536              	@ 0 "" 2
 537              		.thumb
 538              		.syntax unified
 539              	.LBE17:
 540              	.LBE16:
 719:HAL_Lib/STM32H7xx_HAL_Driver/Src/stm32h7xx_hal_pwr.c **** 
 720:HAL_Lib/STM32H7xx_HAL_Driver/Src/stm32h7xx_hal_pwr.c ****   /* This option is used to ensure that store operations are completed */
 721:HAL_Lib/STM32H7xx_HAL_Driver/Src/stm32h7xx_hal_pwr.c **** #if defined (__CC_ARM)
 722:HAL_Lib/STM32H7xx_HAL_Driver/Src/stm32h7xx_hal_pwr.c ****   __force_stores();
 723:HAL_Lib/STM32H7xx_HAL_Driver/Src/stm32h7xx_hal_pwr.c **** #endif /* defined (__CC_ARM) */
 724:HAL_Lib/STM32H7xx_HAL_Driver/Src/stm32h7xx_hal_pwr.c **** 
 725:HAL_Lib/STM32H7xx_HAL_Driver/Src/stm32h7xx_hal_pwr.c ****   /* Request Wait For Interrupt */
 726:HAL_Lib/STM32H7xx_HAL_Driver/Src/stm32h7xx_hal_pwr.c ****   __WFI ();
 541              		.loc 1 726 3 view .LVU90
 542              		.syntax unified
 543              	@ 726 "HAL_Lib/STM32H7xx_HAL_Driver/Src/stm32h7xx_hal_pwr.c" 1
 544 0024 30BF     		wfi
 545              	@ 0 "" 2
 727:HAL_Lib/STM32H7xx_HAL_Driver/Src/stm32h7xx_hal_pwr.c **** }
 546              		.loc 1 727 1 is_stmt 0 view .LVU91
 547              		.thumb
 548              		.syntax unified
 549 0026 7047     		bx	lr
 550              	.L41:
 551              		.align	2
 552              	.L40:
 553 0028 00480258 		.word	1476544512
 554 002c 00ED00E0 		.word	-536810240
 555              		.cfi_endproc
 556              	.LFE154:
 558              		.section	.text.HAL_PWR_EnableSleepOnExit,"ax",%progbits
 559              		.align	1
 560              		.global	HAL_PWR_EnableSleepOnExit
 561              		.syntax unified
 562              		.thumb
 563              		.thumb_func
 564              		.fpu fpv5-d16
 566              	HAL_PWR_EnableSleepOnExit:
ARM GAS  /var/folders/8_/_8bzxkcs1296m80nzxdrn9q80000gn/T//cct2bcP8.s 			page 40


 567              	.LFB155:
 728:HAL_Lib/STM32H7xx_HAL_Driver/Src/stm32h7xx_hal_pwr.c **** 
 729:HAL_Lib/STM32H7xx_HAL_Driver/Src/stm32h7xx_hal_pwr.c **** /**
 730:HAL_Lib/STM32H7xx_HAL_Driver/Src/stm32h7xx_hal_pwr.c ****   * @brief  Indicate Sleep-On-Exit feature when returning from Handler mode to
 731:HAL_Lib/STM32H7xx_HAL_Driver/Src/stm32h7xx_hal_pwr.c ****   *         Thread mode.
 732:HAL_Lib/STM32H7xx_HAL_Driver/Src/stm32h7xx_hal_pwr.c ****   * @note   Set SLEEPONEXIT bit of SCR register. When this bit is set, the
 733:HAL_Lib/STM32H7xx_HAL_Driver/Src/stm32h7xx_hal_pwr.c ****   *         processor re-enters SLEEP mode when an interruption handling is over.
 734:HAL_Lib/STM32H7xx_HAL_Driver/Src/stm32h7xx_hal_pwr.c ****   *         Setting this bit is useful when the processor is expected to run
 735:HAL_Lib/STM32H7xx_HAL_Driver/Src/stm32h7xx_hal_pwr.c ****   *         only on interruptions handling.
 736:HAL_Lib/STM32H7xx_HAL_Driver/Src/stm32h7xx_hal_pwr.c ****   * @retval None.
 737:HAL_Lib/STM32H7xx_HAL_Driver/Src/stm32h7xx_hal_pwr.c ****   */
 738:HAL_Lib/STM32H7xx_HAL_Driver/Src/stm32h7xx_hal_pwr.c **** void HAL_PWR_EnableSleepOnExit (void)
 739:HAL_Lib/STM32H7xx_HAL_Driver/Src/stm32h7xx_hal_pwr.c **** {
 568              		.loc 1 739 1 is_stmt 1 view -0
 569              		.cfi_startproc
 570              		@ args = 0, pretend = 0, frame = 0
 571              		@ frame_needed = 0, uses_anonymous_args = 0
 572              		@ link register save eliminated.
 740:HAL_Lib/STM32H7xx_HAL_Driver/Src/stm32h7xx_hal_pwr.c ****   /* Set SLEEPONEXIT bit of Cortex-Mx System Control Register */
 741:HAL_Lib/STM32H7xx_HAL_Driver/Src/stm32h7xx_hal_pwr.c ****   SET_BIT (SCB->SCR, SCB_SCR_SLEEPONEXIT_Msk);
 573              		.loc 1 741 3 view .LVU93
 574 0000 024A     		ldr	r2, .L43
 575 0002 1369     		ldr	r3, [r2, #16]
 576 0004 43F00203 		orr	r3, r3, #2
 577 0008 1361     		str	r3, [r2, #16]
 742:HAL_Lib/STM32H7xx_HAL_Driver/Src/stm32h7xx_hal_pwr.c **** }
 578              		.loc 1 742 1 is_stmt 0 view .LVU94
 579 000a 7047     		bx	lr
 580              	.L44:
 581              		.align	2
 582              	.L43:
 583 000c 00ED00E0 		.word	-536810240
 584              		.cfi_endproc
 585              	.LFE155:
 587              		.section	.text.HAL_PWR_DisableSleepOnExit,"ax",%progbits
 588              		.align	1
 589              		.global	HAL_PWR_DisableSleepOnExit
 590              		.syntax unified
 591              		.thumb
 592              		.thumb_func
 593              		.fpu fpv5-d16
 595              	HAL_PWR_DisableSleepOnExit:
 596              	.LFB156:
 743:HAL_Lib/STM32H7xx_HAL_Driver/Src/stm32h7xx_hal_pwr.c **** 
 744:HAL_Lib/STM32H7xx_HAL_Driver/Src/stm32h7xx_hal_pwr.c **** /**
 745:HAL_Lib/STM32H7xx_HAL_Driver/Src/stm32h7xx_hal_pwr.c ****   * @brief  Disable Sleep-On-Exit feature when returning from Handler mode to
 746:HAL_Lib/STM32H7xx_HAL_Driver/Src/stm32h7xx_hal_pwr.c ****   *         Thread mode.
 747:HAL_Lib/STM32H7xx_HAL_Driver/Src/stm32h7xx_hal_pwr.c ****   * @note   Clears SLEEPONEXIT bit of SCR register. When this bit is set, the
 748:HAL_Lib/STM32H7xx_HAL_Driver/Src/stm32h7xx_hal_pwr.c ****   *         processor re-enters SLEEP mode when an interruption handling is over.
 749:HAL_Lib/STM32H7xx_HAL_Driver/Src/stm32h7xx_hal_pwr.c ****   * @retval None
 750:HAL_Lib/STM32H7xx_HAL_Driver/Src/stm32h7xx_hal_pwr.c ****   */
 751:HAL_Lib/STM32H7xx_HAL_Driver/Src/stm32h7xx_hal_pwr.c **** void HAL_PWR_DisableSleepOnExit (void)
 752:HAL_Lib/STM32H7xx_HAL_Driver/Src/stm32h7xx_hal_pwr.c **** {
 597              		.loc 1 752 1 is_stmt 1 view -0
 598              		.cfi_startproc
 599              		@ args = 0, pretend = 0, frame = 0
 600              		@ frame_needed = 0, uses_anonymous_args = 0
ARM GAS  /var/folders/8_/_8bzxkcs1296m80nzxdrn9q80000gn/T//cct2bcP8.s 			page 41


 601              		@ link register save eliminated.
 753:HAL_Lib/STM32H7xx_HAL_Driver/Src/stm32h7xx_hal_pwr.c ****   /* Clear SLEEPONEXIT bit of Cortex-Mx System Control Register */
 754:HAL_Lib/STM32H7xx_HAL_Driver/Src/stm32h7xx_hal_pwr.c ****   CLEAR_BIT (SCB->SCR, SCB_SCR_SLEEPONEXIT_Msk);
 602              		.loc 1 754 3 view .LVU96
 603 0000 024A     		ldr	r2, .L46
 604 0002 1369     		ldr	r3, [r2, #16]
 605 0004 23F00203 		bic	r3, r3, #2
 606 0008 1361     		str	r3, [r2, #16]
 755:HAL_Lib/STM32H7xx_HAL_Driver/Src/stm32h7xx_hal_pwr.c **** }
 607              		.loc 1 755 1 is_stmt 0 view .LVU97
 608 000a 7047     		bx	lr
 609              	.L47:
 610              		.align	2
 611              	.L46:
 612 000c 00ED00E0 		.word	-536810240
 613              		.cfi_endproc
 614              	.LFE156:
 616              		.section	.text.HAL_PWR_EnableSEVOnPend,"ax",%progbits
 617              		.align	1
 618              		.global	HAL_PWR_EnableSEVOnPend
 619              		.syntax unified
 620              		.thumb
 621              		.thumb_func
 622              		.fpu fpv5-d16
 624              	HAL_PWR_EnableSEVOnPend:
 625              	.LFB157:
 756:HAL_Lib/STM32H7xx_HAL_Driver/Src/stm32h7xx_hal_pwr.c **** 
 757:HAL_Lib/STM32H7xx_HAL_Driver/Src/stm32h7xx_hal_pwr.c **** /**
 758:HAL_Lib/STM32H7xx_HAL_Driver/Src/stm32h7xx_hal_pwr.c ****   * @brief  Enable CORTEX SEVONPEND feature.
 759:HAL_Lib/STM32H7xx_HAL_Driver/Src/stm32h7xx_hal_pwr.c ****   * @note   Sets SEVONPEND bit of SCR register. When this bit is set, any
 760:HAL_Lib/STM32H7xx_HAL_Driver/Src/stm32h7xx_hal_pwr.c ****   *         pending event / interrupt even if it's disabled or has insufficient
 761:HAL_Lib/STM32H7xx_HAL_Driver/Src/stm32h7xx_hal_pwr.c ****   *         priority to cause exception entry wakes up the Cortex-Mx.
 762:HAL_Lib/STM32H7xx_HAL_Driver/Src/stm32h7xx_hal_pwr.c ****   * @retval None.
 763:HAL_Lib/STM32H7xx_HAL_Driver/Src/stm32h7xx_hal_pwr.c ****   */
 764:HAL_Lib/STM32H7xx_HAL_Driver/Src/stm32h7xx_hal_pwr.c **** void HAL_PWR_EnableSEVOnPend (void)
 765:HAL_Lib/STM32H7xx_HAL_Driver/Src/stm32h7xx_hal_pwr.c **** {
 626              		.loc 1 765 1 is_stmt 1 view -0
 627              		.cfi_startproc
 628              		@ args = 0, pretend = 0, frame = 0
 629              		@ frame_needed = 0, uses_anonymous_args = 0
 630              		@ link register save eliminated.
 766:HAL_Lib/STM32H7xx_HAL_Driver/Src/stm32h7xx_hal_pwr.c ****   /* Set SEVONPEND bit of Cortex-Mx System Control Register */
 767:HAL_Lib/STM32H7xx_HAL_Driver/Src/stm32h7xx_hal_pwr.c ****   SET_BIT (SCB->SCR, SCB_SCR_SEVONPEND_Msk);
 631              		.loc 1 767 3 view .LVU99
 632 0000 024A     		ldr	r2, .L49
 633 0002 1369     		ldr	r3, [r2, #16]
 634 0004 43F01003 		orr	r3, r3, #16
 635 0008 1361     		str	r3, [r2, #16]
 768:HAL_Lib/STM32H7xx_HAL_Driver/Src/stm32h7xx_hal_pwr.c **** }
 636              		.loc 1 768 1 is_stmt 0 view .LVU100
 637 000a 7047     		bx	lr
 638              	.L50:
 639              		.align	2
 640              	.L49:
 641 000c 00ED00E0 		.word	-536810240
 642              		.cfi_endproc
 643              	.LFE157:
ARM GAS  /var/folders/8_/_8bzxkcs1296m80nzxdrn9q80000gn/T//cct2bcP8.s 			page 42


 645              		.section	.text.HAL_PWR_DisableSEVOnPend,"ax",%progbits
 646              		.align	1
 647              		.global	HAL_PWR_DisableSEVOnPend
 648              		.syntax unified
 649              		.thumb
 650              		.thumb_func
 651              		.fpu fpv5-d16
 653              	HAL_PWR_DisableSEVOnPend:
 654              	.LFB158:
 769:HAL_Lib/STM32H7xx_HAL_Driver/Src/stm32h7xx_hal_pwr.c **** 
 770:HAL_Lib/STM32H7xx_HAL_Driver/Src/stm32h7xx_hal_pwr.c **** /**
 771:HAL_Lib/STM32H7xx_HAL_Driver/Src/stm32h7xx_hal_pwr.c ****   * @brief  Disable CORTEX SEVONPEND feature.
 772:HAL_Lib/STM32H7xx_HAL_Driver/Src/stm32h7xx_hal_pwr.c ****   * @note   Resets SEVONPEND bit of SCR register. When this bit is reset, only
 773:HAL_Lib/STM32H7xx_HAL_Driver/Src/stm32h7xx_hal_pwr.c ****   *         enabled pending causes exception entry wakes up the Cortex-Mx.
 774:HAL_Lib/STM32H7xx_HAL_Driver/Src/stm32h7xx_hal_pwr.c ****   * @retval None.
 775:HAL_Lib/STM32H7xx_HAL_Driver/Src/stm32h7xx_hal_pwr.c ****   */
 776:HAL_Lib/STM32H7xx_HAL_Driver/Src/stm32h7xx_hal_pwr.c **** void HAL_PWR_DisableSEVOnPend (void)
 777:HAL_Lib/STM32H7xx_HAL_Driver/Src/stm32h7xx_hal_pwr.c **** {
 655              		.loc 1 777 1 is_stmt 1 view -0
 656              		.cfi_startproc
 657              		@ args = 0, pretend = 0, frame = 0
 658              		@ frame_needed = 0, uses_anonymous_args = 0
 659              		@ link register save eliminated.
 778:HAL_Lib/STM32H7xx_HAL_Driver/Src/stm32h7xx_hal_pwr.c ****   /* Clear SEVONPEND bit of Cortex System Control Register */
 779:HAL_Lib/STM32H7xx_HAL_Driver/Src/stm32h7xx_hal_pwr.c ****   CLEAR_BIT (SCB->SCR, SCB_SCR_SEVONPEND_Msk);
 660              		.loc 1 779 3 view .LVU102
 661 0000 024A     		ldr	r2, .L52
 662 0002 1369     		ldr	r3, [r2, #16]
 663 0004 23F01003 		bic	r3, r3, #16
 664 0008 1361     		str	r3, [r2, #16]
 780:HAL_Lib/STM32H7xx_HAL_Driver/Src/stm32h7xx_hal_pwr.c **** }
 665              		.loc 1 780 1 is_stmt 0 view .LVU103
 666 000a 7047     		bx	lr
 667              	.L53:
 668              		.align	2
 669              	.L52:
 670 000c 00ED00E0 		.word	-536810240
 671              		.cfi_endproc
 672              	.LFE158:
 674              		.section	.text.HAL_PWR_PVDCallback,"ax",%progbits
 675              		.align	1
 676              		.weak	HAL_PWR_PVDCallback
 677              		.syntax unified
 678              		.thumb
 679              		.thumb_func
 680              		.fpu fpv5-d16
 682              	HAL_PWR_PVDCallback:
 683              	.LFB160:
 781:HAL_Lib/STM32H7xx_HAL_Driver/Src/stm32h7xx_hal_pwr.c **** /**
 782:HAL_Lib/STM32H7xx_HAL_Driver/Src/stm32h7xx_hal_pwr.c ****   * @}
 783:HAL_Lib/STM32H7xx_HAL_Driver/Src/stm32h7xx_hal_pwr.c ****   */
 784:HAL_Lib/STM32H7xx_HAL_Driver/Src/stm32h7xx_hal_pwr.c **** 
 785:HAL_Lib/STM32H7xx_HAL_Driver/Src/stm32h7xx_hal_pwr.c **** /** @defgroup PWR_Exported_Functions_Group3 Interrupt Handling Functions
 786:HAL_Lib/STM32H7xx_HAL_Driver/Src/stm32h7xx_hal_pwr.c ****   *  @brief   Interrupt Handling functions
 787:HAL_Lib/STM32H7xx_HAL_Driver/Src/stm32h7xx_hal_pwr.c ****   *
 788:HAL_Lib/STM32H7xx_HAL_Driver/Src/stm32h7xx_hal_pwr.c **** @verbatim
 789:HAL_Lib/STM32H7xx_HAL_Driver/Src/stm32h7xx_hal_pwr.c ****  ===============================================================================
ARM GAS  /var/folders/8_/_8bzxkcs1296m80nzxdrn9q80000gn/T//cct2bcP8.s 			page 43


 790:HAL_Lib/STM32H7xx_HAL_Driver/Src/stm32h7xx_hal_pwr.c ****                     ##### Interrupt Handling Functions #####
 791:HAL_Lib/STM32H7xx_HAL_Driver/Src/stm32h7xx_hal_pwr.c ****  ===============================================================================
 792:HAL_Lib/STM32H7xx_HAL_Driver/Src/stm32h7xx_hal_pwr.c ****     [..]
 793:HAL_Lib/STM32H7xx_HAL_Driver/Src/stm32h7xx_hal_pwr.c ****     This section provides functions allowing to handle the PVD pending
 794:HAL_Lib/STM32H7xx_HAL_Driver/Src/stm32h7xx_hal_pwr.c ****     interrupts.
 795:HAL_Lib/STM32H7xx_HAL_Driver/Src/stm32h7xx_hal_pwr.c **** 
 796:HAL_Lib/STM32H7xx_HAL_Driver/Src/stm32h7xx_hal_pwr.c **** @endverbatim
 797:HAL_Lib/STM32H7xx_HAL_Driver/Src/stm32h7xx_hal_pwr.c ****   * @{
 798:HAL_Lib/STM32H7xx_HAL_Driver/Src/stm32h7xx_hal_pwr.c ****   */
 799:HAL_Lib/STM32H7xx_HAL_Driver/Src/stm32h7xx_hal_pwr.c **** 
 800:HAL_Lib/STM32H7xx_HAL_Driver/Src/stm32h7xx_hal_pwr.c **** /**
 801:HAL_Lib/STM32H7xx_HAL_Driver/Src/stm32h7xx_hal_pwr.c ****   * @brief  This function handles the PWR PVD interrupt request.
 802:HAL_Lib/STM32H7xx_HAL_Driver/Src/stm32h7xx_hal_pwr.c ****   * @note   This API should be called under the PVD_AVD_IRQHandler().
 803:HAL_Lib/STM32H7xx_HAL_Driver/Src/stm32h7xx_hal_pwr.c ****   * @retval None.
 804:HAL_Lib/STM32H7xx_HAL_Driver/Src/stm32h7xx_hal_pwr.c ****   */
 805:HAL_Lib/STM32H7xx_HAL_Driver/Src/stm32h7xx_hal_pwr.c **** void HAL_PWR_PVD_IRQHandler (void)
 806:HAL_Lib/STM32H7xx_HAL_Driver/Src/stm32h7xx_hal_pwr.c **** {
 807:HAL_Lib/STM32H7xx_HAL_Driver/Src/stm32h7xx_hal_pwr.c **** #if defined (DUAL_CORE)
 808:HAL_Lib/STM32H7xx_HAL_Driver/Src/stm32h7xx_hal_pwr.c ****   /* Check Cortex-Mx ID */
 809:HAL_Lib/STM32H7xx_HAL_Driver/Src/stm32h7xx_hal_pwr.c ****   if (HAL_GetCurrentCPUID () == CM7_CPUID)
 810:HAL_Lib/STM32H7xx_HAL_Driver/Src/stm32h7xx_hal_pwr.c ****   {
 811:HAL_Lib/STM32H7xx_HAL_Driver/Src/stm32h7xx_hal_pwr.c ****     /* Check PWR EXTI D1 flag */
 812:HAL_Lib/STM32H7xx_HAL_Driver/Src/stm32h7xx_hal_pwr.c ****     if(__HAL_PWR_PVD_EXTI_GET_FLAG () != 0U)
 813:HAL_Lib/STM32H7xx_HAL_Driver/Src/stm32h7xx_hal_pwr.c ****     {
 814:HAL_Lib/STM32H7xx_HAL_Driver/Src/stm32h7xx_hal_pwr.c ****       /* Clear PWR EXTI D1 pending bit */
 815:HAL_Lib/STM32H7xx_HAL_Driver/Src/stm32h7xx_hal_pwr.c ****       __HAL_PWR_PVD_EXTI_CLEAR_FLAG ();
 816:HAL_Lib/STM32H7xx_HAL_Driver/Src/stm32h7xx_hal_pwr.c **** 
 817:HAL_Lib/STM32H7xx_HAL_Driver/Src/stm32h7xx_hal_pwr.c ****       /* PWR PVD interrupt user callback */
 818:HAL_Lib/STM32H7xx_HAL_Driver/Src/stm32h7xx_hal_pwr.c ****       HAL_PWR_PVDCallback ();
 819:HAL_Lib/STM32H7xx_HAL_Driver/Src/stm32h7xx_hal_pwr.c ****     }
 820:HAL_Lib/STM32H7xx_HAL_Driver/Src/stm32h7xx_hal_pwr.c ****   }
 821:HAL_Lib/STM32H7xx_HAL_Driver/Src/stm32h7xx_hal_pwr.c ****   else
 822:HAL_Lib/STM32H7xx_HAL_Driver/Src/stm32h7xx_hal_pwr.c ****   {
 823:HAL_Lib/STM32H7xx_HAL_Driver/Src/stm32h7xx_hal_pwr.c ****     /* Check PWR EXTI D2 flag */
 824:HAL_Lib/STM32H7xx_HAL_Driver/Src/stm32h7xx_hal_pwr.c ****     if (__HAL_PWR_PVD_EXTID2_GET_FLAG () != 0U)
 825:HAL_Lib/STM32H7xx_HAL_Driver/Src/stm32h7xx_hal_pwr.c ****     {
 826:HAL_Lib/STM32H7xx_HAL_Driver/Src/stm32h7xx_hal_pwr.c ****       /* Clear PWR EXTI D2 pending bit */
 827:HAL_Lib/STM32H7xx_HAL_Driver/Src/stm32h7xx_hal_pwr.c ****       __HAL_PWR_PVD_EXTID2_CLEAR_FLAG ();
 828:HAL_Lib/STM32H7xx_HAL_Driver/Src/stm32h7xx_hal_pwr.c **** 
 829:HAL_Lib/STM32H7xx_HAL_Driver/Src/stm32h7xx_hal_pwr.c ****       /* PWR PVD interrupt user callback */
 830:HAL_Lib/STM32H7xx_HAL_Driver/Src/stm32h7xx_hal_pwr.c ****       HAL_PWR_PVDCallback ();
 831:HAL_Lib/STM32H7xx_HAL_Driver/Src/stm32h7xx_hal_pwr.c ****     }
 832:HAL_Lib/STM32H7xx_HAL_Driver/Src/stm32h7xx_hal_pwr.c ****   }
 833:HAL_Lib/STM32H7xx_HAL_Driver/Src/stm32h7xx_hal_pwr.c **** #else /* Single core devices */
 834:HAL_Lib/STM32H7xx_HAL_Driver/Src/stm32h7xx_hal_pwr.c ****   /* PVD EXTI line interrupt detected */
 835:HAL_Lib/STM32H7xx_HAL_Driver/Src/stm32h7xx_hal_pwr.c ****   if (__HAL_PWR_PVD_EXTI_GET_FLAG () != 0U)
 836:HAL_Lib/STM32H7xx_HAL_Driver/Src/stm32h7xx_hal_pwr.c ****   {
 837:HAL_Lib/STM32H7xx_HAL_Driver/Src/stm32h7xx_hal_pwr.c ****     /* Clear PWR EXTI pending bit */
 838:HAL_Lib/STM32H7xx_HAL_Driver/Src/stm32h7xx_hal_pwr.c ****     __HAL_PWR_PVD_EXTI_CLEAR_FLAG ();
 839:HAL_Lib/STM32H7xx_HAL_Driver/Src/stm32h7xx_hal_pwr.c **** 
 840:HAL_Lib/STM32H7xx_HAL_Driver/Src/stm32h7xx_hal_pwr.c ****     /* PWR PVD interrupt user callback */
 841:HAL_Lib/STM32H7xx_HAL_Driver/Src/stm32h7xx_hal_pwr.c ****     HAL_PWR_PVDCallback ();
 842:HAL_Lib/STM32H7xx_HAL_Driver/Src/stm32h7xx_hal_pwr.c ****   }
 843:HAL_Lib/STM32H7xx_HAL_Driver/Src/stm32h7xx_hal_pwr.c **** #endif /* defined (DUAL_CORE) */
 844:HAL_Lib/STM32H7xx_HAL_Driver/Src/stm32h7xx_hal_pwr.c **** }
 845:HAL_Lib/STM32H7xx_HAL_Driver/Src/stm32h7xx_hal_pwr.c **** 
 846:HAL_Lib/STM32H7xx_HAL_Driver/Src/stm32h7xx_hal_pwr.c **** /**
ARM GAS  /var/folders/8_/_8bzxkcs1296m80nzxdrn9q80000gn/T//cct2bcP8.s 			page 44


 847:HAL_Lib/STM32H7xx_HAL_Driver/Src/stm32h7xx_hal_pwr.c ****   * @brief  PWR PVD interrupt callback.
 848:HAL_Lib/STM32H7xx_HAL_Driver/Src/stm32h7xx_hal_pwr.c ****   * @retval None.
 849:HAL_Lib/STM32H7xx_HAL_Driver/Src/stm32h7xx_hal_pwr.c ****   */
 850:HAL_Lib/STM32H7xx_HAL_Driver/Src/stm32h7xx_hal_pwr.c **** __weak void HAL_PWR_PVDCallback (void)
 851:HAL_Lib/STM32H7xx_HAL_Driver/Src/stm32h7xx_hal_pwr.c **** {
 684              		.loc 1 851 1 is_stmt 1 view -0
 685              		.cfi_startproc
 686              		@ args = 0, pretend = 0, frame = 0
 687              		@ frame_needed = 0, uses_anonymous_args = 0
 688              		@ link register save eliminated.
 852:HAL_Lib/STM32H7xx_HAL_Driver/Src/stm32h7xx_hal_pwr.c ****   /* NOTE : This function should not be modified, when the callback is needed,
 853:HAL_Lib/STM32H7xx_HAL_Driver/Src/stm32h7xx_hal_pwr.c ****             the HAL_PWR_PVDCallback can be implemented in the user file
 854:HAL_Lib/STM32H7xx_HAL_Driver/Src/stm32h7xx_hal_pwr.c ****   */
 855:HAL_Lib/STM32H7xx_HAL_Driver/Src/stm32h7xx_hal_pwr.c **** }
 689              		.loc 1 855 1 view .LVU105
 690 0000 7047     		bx	lr
 691              		.cfi_endproc
 692              	.LFE160:
 694              		.section	.text.HAL_PWR_PVD_IRQHandler,"ax",%progbits
 695              		.align	1
 696              		.global	HAL_PWR_PVD_IRQHandler
 697              		.syntax unified
 698              		.thumb
 699              		.thumb_func
 700              		.fpu fpv5-d16
 702              	HAL_PWR_PVD_IRQHandler:
 703              	.LFB159:
 806:HAL_Lib/STM32H7xx_HAL_Driver/Src/stm32h7xx_hal_pwr.c **** #if defined (DUAL_CORE)
 704              		.loc 1 806 1 view -0
 705              		.cfi_startproc
 706              		@ args = 0, pretend = 0, frame = 0
 707              		@ frame_needed = 0, uses_anonymous_args = 0
 708 0000 08B5     		push	{r3, lr}
 709              	.LCFI0:
 710              		.cfi_def_cfa_offset 8
 711              		.cfi_offset 3, -8
 712              		.cfi_offset 14, -4
 835:HAL_Lib/STM32H7xx_HAL_Driver/Src/stm32h7xx_hal_pwr.c ****   {
 713              		.loc 1 835 3 view .LVU107
 835:HAL_Lib/STM32H7xx_HAL_Driver/Src/stm32h7xx_hal_pwr.c ****   {
 714              		.loc 1 835 7 is_stmt 0 view .LVU108
 715 0002 4FF0B043 		mov	r3, #1476395008
 716 0006 D3F88830 		ldr	r3, [r3, #136]
 835:HAL_Lib/STM32H7xx_HAL_Driver/Src/stm32h7xx_hal_pwr.c ****   {
 717              		.loc 1 835 6 view .LVU109
 718 000a 13F4803F 		tst	r3, #65536
 719 000e 00D1     		bne	.L58
 720              	.L55:
 844:HAL_Lib/STM32H7xx_HAL_Driver/Src/stm32h7xx_hal_pwr.c **** 
 721              		.loc 1 844 1 view .LVU110
 722 0010 08BD     		pop	{r3, pc}
 723              	.L58:
 838:HAL_Lib/STM32H7xx_HAL_Driver/Src/stm32h7xx_hal_pwr.c **** 
 724              		.loc 1 838 5 is_stmt 1 view .LVU111
 725 0012 4FF0B042 		mov	r2, #1476395008
 726 0016 D2F88830 		ldr	r3, [r2, #136]
 727 001a 43F48033 		orr	r3, r3, #65536
ARM GAS  /var/folders/8_/_8bzxkcs1296m80nzxdrn9q80000gn/T//cct2bcP8.s 			page 45


 728 001e C2F88830 		str	r3, [r2, #136]
 841:HAL_Lib/STM32H7xx_HAL_Driver/Src/stm32h7xx_hal_pwr.c ****   }
 729              		.loc 1 841 5 view .LVU112
 730 0022 FFF7FEFF 		bl	HAL_PWR_PVDCallback
 731              	.LVL8:
 844:HAL_Lib/STM32H7xx_HAL_Driver/Src/stm32h7xx_hal_pwr.c **** 
 732              		.loc 1 844 1 is_stmt 0 view .LVU113
 733 0026 F3E7     		b	.L55
 734              		.cfi_endproc
 735              	.LFE159:
 737              		.text
 738              	.Letext0:
 739              		.file 3 "/opt/homebrew/Cellar/arm-none-eabi-gcc/10.3-2021.07/gcc/arm-none-eabi/include/machine/_de
 740              		.file 4 "/opt/homebrew/Cellar/arm-none-eabi-gcc/10.3-2021.07/gcc/arm-none-eabi/include/sys/_stdint
 741              		.file 5 "HAL_Lib/CMSIS/Core/Include/core_cm7.h"
 742              		.file 6 "HAL_Lib/CMSIS/Device/ST/STM32H7xx/Include/stm32h743xx.h"
 743              		.file 7 "HAL_Lib/STM32H7xx_HAL_Driver/Inc/stm32h7xx_hal_pwr.h"
ARM GAS  /var/folders/8_/_8bzxkcs1296m80nzxdrn9q80000gn/T//cct2bcP8.s 			page 46

