ARM GAS  /var/folders/lx/hc4sn_b53233_zkc9xbbl97r0000gp/T//ccewFhgQ.s 			page 1


   1              		.cpu cortex-m7
   2              		.eabi_attribute 28, 1
   3              		.eabi_attribute 20, 1
   4              		.eabi_attribute 21, 1
   5              		.eabi_attribute 23, 3
   6              		.eabi_attribute 24, 1
   7              		.eabi_attribute 25, 1
   8              		.eabi_attribute 26, 1
   9              		.eabi_attribute 30, 1
  10              		.eabi_attribute 34, 1
  11              		.eabi_attribute 18, 4
  12              		.file	"stm32h7xx_it.c"
  13              		.text
  14              	.Ltext0:
  15              		.cfi_sections	.debug_frame
  16              		.section	.text.NMI_Handler,"ax",%progbits
  17              		.align	1
  18              		.global	NMI_Handler
  19              		.arch armv7e-m
  20              		.syntax unified
  21              		.thumb
  22              		.thumb_func
  23              		.fpu fpv5-d16
  25              	NMI_Handler:
  26              	.LFB147:
  27              		.file 1 "HAL_Lib/Core/Src/stm32h7xx_it.c"
   1:HAL_Lib/Core/Src/stm32h7xx_it.c **** #include "stm32h7xx_it.h"
   2:HAL_Lib/Core/Src/stm32h7xx_it.c **** #include "stm32h7xx_hal.h"
   3:HAL_Lib/Core/Src/stm32h7xx_it.c **** #include "kernel.h"
   4:HAL_Lib/Core/Src/stm32h7xx_it.c **** #include "runtime.h"
   5:HAL_Lib/Core/Src/stm32h7xx_it.c **** #include "scheduler.h"
   6:HAL_Lib/Core/Src/stm32h7xx_it.c **** #include "stm32h7xx_hal_gpio.h"
   7:HAL_Lib/Core/Src/stm32h7xx_it.c **** #include "IO_Definition.h"
   8:HAL_Lib/Core/Src/stm32h7xx_it.c **** #include "debug_util.h"
   9:HAL_Lib/Core/Src/stm32h7xx_it.c **** #include "DIskIO.h"
  10:HAL_Lib/Core/Src/stm32h7xx_it.c **** #include "DataPipe.h"
  11:HAL_Lib/Core/Src/stm32h7xx_it.c **** 
  12:HAL_Lib/Core/Src/stm32h7xx_it.c **** extern PCD_HandleTypeDef hpcd_USB_OTG_FS;
  13:HAL_Lib/Core/Src/stm32h7xx_it.c **** extern DevCard_Obj_TypeDef DevTFCard_Obj;
  14:HAL_Lib/Core/Src/stm32h7xx_it.c **** extern DMA_HandleTypeDef DataPipe_DMA;
  15:HAL_Lib/Core/Src/stm32h7xx_it.c **** 
  16:HAL_Lib/Core/Src/stm32h7xx_it.c **** void NMI_Handler(void)
  17:HAL_Lib/Core/Src/stm32h7xx_it.c **** {
  28              		.loc 1 17 1 view -0
  29              		.cfi_startproc
  30              		@ Volatile: function does not return.
  31              		@ args = 0, pretend = 0, frame = 0
  32              		@ frame_needed = 0, uses_anonymous_args = 0
  33              		@ link register save eliminated.
  34              	.L2:
  18:HAL_Lib/Core/Src/stm32h7xx_it.c ****   while (1)
  35              		.loc 1 18 3 discriminator 1 view .LVU1
  19:HAL_Lib/Core/Src/stm32h7xx_it.c ****   {
  20:HAL_Lib/Core/Src/stm32h7xx_it.c ****   }
  36              		.loc 1 20 3 discriminator 1 view .LVU2
  18:HAL_Lib/Core/Src/stm32h7xx_it.c ****   while (1)
  37              		.loc 1 18 9 discriminator 1 view .LVU3
ARM GAS  /var/folders/lx/hc4sn_b53233_zkc9xbbl97r0000gp/T//ccewFhgQ.s 			page 2


  38 0000 FEE7     		b	.L2
  39              		.cfi_endproc
  40              	.LFE147:
  42              		.section	.text.HardFault_Handler,"ax",%progbits
  43              		.align	1
  44              		.global	HardFault_Handler
  45              		.syntax unified
  46              		.thumb
  47              		.thumb_func
  48              		.fpu fpv5-d16
  50              	HardFault_Handler:
  51              	.LFB148:
  21:HAL_Lib/Core/Src/stm32h7xx_it.c **** }
  22:HAL_Lib/Core/Src/stm32h7xx_it.c **** 
  23:HAL_Lib/Core/Src/stm32h7xx_it.c **** void HardFault_Handler(void)
  24:HAL_Lib/Core/Src/stm32h7xx_it.c **** {
  52              		.loc 1 24 1 view -0
  53              		.cfi_startproc
  54              		@ Volatile: function does not return.
  55              		@ args = 0, pretend = 0, frame = 0
  56              		@ frame_needed = 0, uses_anonymous_args = 0
  57              		@ link register save eliminated.
  58              	.L4:
  25:HAL_Lib/Core/Src/stm32h7xx_it.c ****   while (1)
  59              		.loc 1 25 3 discriminator 1 view .LVU5
  26:HAL_Lib/Core/Src/stm32h7xx_it.c ****   {
  27:HAL_Lib/Core/Src/stm32h7xx_it.c ****   }
  60              		.loc 1 27 3 discriminator 1 view .LVU6
  25:HAL_Lib/Core/Src/stm32h7xx_it.c ****   while (1)
  61              		.loc 1 25 9 discriminator 1 view .LVU7
  62 0000 FEE7     		b	.L4
  63              		.cfi_endproc
  64              	.LFE148:
  66              		.section	.text.MemManage_Handler,"ax",%progbits
  67              		.align	1
  68              		.global	MemManage_Handler
  69              		.syntax unified
  70              		.thumb
  71              		.thumb_func
  72              		.fpu fpv5-d16
  74              	MemManage_Handler:
  75              	.LFB149:
  28:HAL_Lib/Core/Src/stm32h7xx_it.c **** }
  29:HAL_Lib/Core/Src/stm32h7xx_it.c **** 
  30:HAL_Lib/Core/Src/stm32h7xx_it.c **** void MemManage_Handler(void)
  31:HAL_Lib/Core/Src/stm32h7xx_it.c **** {
  76              		.loc 1 31 1 view -0
  77              		.cfi_startproc
  78              		@ Volatile: function does not return.
  79              		@ args = 0, pretend = 0, frame = 0
  80              		@ frame_needed = 0, uses_anonymous_args = 0
  81              		@ link register save eliminated.
  82              	.L6:
  32:HAL_Lib/Core/Src/stm32h7xx_it.c ****   while (1)
  83              		.loc 1 32 3 discriminator 1 view .LVU9
  33:HAL_Lib/Core/Src/stm32h7xx_it.c ****   {
  34:HAL_Lib/Core/Src/stm32h7xx_it.c ****   }
ARM GAS  /var/folders/lx/hc4sn_b53233_zkc9xbbl97r0000gp/T//ccewFhgQ.s 			page 3


  84              		.loc 1 34 3 discriminator 1 view .LVU10
  32:HAL_Lib/Core/Src/stm32h7xx_it.c ****   while (1)
  85              		.loc 1 32 9 discriminator 1 view .LVU11
  86 0000 FEE7     		b	.L6
  87              		.cfi_endproc
  88              	.LFE149:
  90              		.section	.text.BusFault_Handler,"ax",%progbits
  91              		.align	1
  92              		.global	BusFault_Handler
  93              		.syntax unified
  94              		.thumb
  95              		.thumb_func
  96              		.fpu fpv5-d16
  98              	BusFault_Handler:
  99              	.LFB150:
  35:HAL_Lib/Core/Src/stm32h7xx_it.c **** }
  36:HAL_Lib/Core/Src/stm32h7xx_it.c **** 
  37:HAL_Lib/Core/Src/stm32h7xx_it.c **** void BusFault_Handler(void)
  38:HAL_Lib/Core/Src/stm32h7xx_it.c **** {
 100              		.loc 1 38 1 view -0
 101              		.cfi_startproc
 102              		@ Volatile: function does not return.
 103              		@ args = 0, pretend = 0, frame = 0
 104              		@ frame_needed = 0, uses_anonymous_args = 0
 105              		@ link register save eliminated.
 106              	.L8:
  39:HAL_Lib/Core/Src/stm32h7xx_it.c ****   while (1)
 107              		.loc 1 39 3 discriminator 1 view .LVU13
  40:HAL_Lib/Core/Src/stm32h7xx_it.c ****   {
  41:HAL_Lib/Core/Src/stm32h7xx_it.c ****   }
 108              		.loc 1 41 3 discriminator 1 view .LVU14
  39:HAL_Lib/Core/Src/stm32h7xx_it.c ****   while (1)
 109              		.loc 1 39 9 discriminator 1 view .LVU15
 110 0000 FEE7     		b	.L8
 111              		.cfi_endproc
 112              	.LFE150:
 114              		.section	.text.UsageFault_Handler,"ax",%progbits
 115              		.align	1
 116              		.global	UsageFault_Handler
 117              		.syntax unified
 118              		.thumb
 119              		.thumb_func
 120              		.fpu fpv5-d16
 122              	UsageFault_Handler:
 123              	.LFB151:
  42:HAL_Lib/Core/Src/stm32h7xx_it.c **** }
  43:HAL_Lib/Core/Src/stm32h7xx_it.c **** 
  44:HAL_Lib/Core/Src/stm32h7xx_it.c **** void UsageFault_Handler(void)
  45:HAL_Lib/Core/Src/stm32h7xx_it.c **** {
 124              		.loc 1 45 1 view -0
 125              		.cfi_startproc
 126              		@ Volatile: function does not return.
 127              		@ args = 0, pretend = 0, frame = 0
 128              		@ frame_needed = 0, uses_anonymous_args = 0
 129              		@ link register save eliminated.
 130              	.L10:
  46:HAL_Lib/Core/Src/stm32h7xx_it.c ****   while (1)
ARM GAS  /var/folders/lx/hc4sn_b53233_zkc9xbbl97r0000gp/T//ccewFhgQ.s 			page 4


 131              		.loc 1 46 3 discriminator 1 view .LVU17
  47:HAL_Lib/Core/Src/stm32h7xx_it.c ****   {
  48:HAL_Lib/Core/Src/stm32h7xx_it.c ****   }
 132              		.loc 1 48 3 discriminator 1 view .LVU18
  46:HAL_Lib/Core/Src/stm32h7xx_it.c ****   while (1)
 133              		.loc 1 46 9 discriminator 1 view .LVU19
 134 0000 FEE7     		b	.L10
 135              		.cfi_endproc
 136              	.LFE151:
 138              		.section	.text.SVC_Handler,"ax",%progbits
 139              		.align	1
 140              		.global	SVC_Handler
 141              		.syntax unified
 142              		.thumb
 143              		.thumb_func
 144              		.fpu fpv5-d16
 146              	SVC_Handler:
 147              	.LFB152:
  49:HAL_Lib/Core/Src/stm32h7xx_it.c **** }
  50:HAL_Lib/Core/Src/stm32h7xx_it.c **** 
  51:HAL_Lib/Core/Src/stm32h7xx_it.c **** void SVC_Handler(void)
  52:HAL_Lib/Core/Src/stm32h7xx_it.c **** {
 148              		.loc 1 52 1 view -0
 149              		.cfi_startproc
 150              		@ args = 0, pretend = 0, frame = 0
 151              		@ frame_needed = 0, uses_anonymous_args = 0
 152 0000 08B5     		push	{r3, lr}
 153              	.LCFI0:
 154              		.cfi_def_cfa_offset 8
 155              		.cfi_offset 3, -8
 156              		.cfi_offset 14, -4
  53:HAL_Lib/Core/Src/stm32h7xx_it.c ****   Runtime_Start();
 157              		.loc 1 53 3 view .LVU21
 158 0002 FFF7FEFF 		bl	Runtime_Start
 159              	.LVL0:
  54:HAL_Lib/Core/Src/stm32h7xx_it.c ****   Os_LoadFirstTask();
 160              		.loc 1 54 3 view .LVU22
 161 0006 FFF7FEFF 		bl	Os_LoadFirstTask
 162              	.LVL1:
  55:HAL_Lib/Core/Src/stm32h7xx_it.c **** }
 163              		.loc 1 55 1 is_stmt 0 view .LVU23
 164 000a 08BD     		pop	{r3, pc}
 165              		.cfi_endproc
 166              	.LFE152:
 168              		.section	.text.DebugMon_Handler,"ax",%progbits
 169              		.align	1
 170              		.global	DebugMon_Handler
 171              		.syntax unified
 172              		.thumb
 173              		.thumb_func
 174              		.fpu fpv5-d16
 176              	DebugMon_Handler:
 177              	.LFB153:
  56:HAL_Lib/Core/Src/stm32h7xx_it.c **** 
  57:HAL_Lib/Core/Src/stm32h7xx_it.c **** void DebugMon_Handler(void)
  58:HAL_Lib/Core/Src/stm32h7xx_it.c **** {
 178              		.loc 1 58 1 is_stmt 1 view -0
ARM GAS  /var/folders/lx/hc4sn_b53233_zkc9xbbl97r0000gp/T//ccewFhgQ.s 			page 5


 179              		.cfi_startproc
 180              		@ args = 0, pretend = 0, frame = 0
 181              		@ frame_needed = 0, uses_anonymous_args = 0
 182              		@ link register save eliminated.
  59:HAL_Lib/Core/Src/stm32h7xx_it.c **** }
 183              		.loc 1 59 1 view .LVU25
 184 0000 7047     		bx	lr
 185              		.cfi_endproc
 186              	.LFE153:
 188              		.section	.text.PendSV_Handler,"ax",%progbits
 189              		.align	1
 190              		.global	PendSV_Handler
 191              		.syntax unified
 192              		.thumb
 193              		.thumb_func
 194              		.fpu fpv5-d16
 196              	PendSV_Handler:
 197              	.LFB154:
  60:HAL_Lib/Core/Src/stm32h7xx_it.c **** 
  61:HAL_Lib/Core/Src/stm32h7xx_it.c **** void PendSV_Handler(void)
  62:HAL_Lib/Core/Src/stm32h7xx_it.c **** {
 198              		.loc 1 62 1 view -0
 199              		.cfi_startproc
 200              		@ args = 0, pretend = 0, frame = 0
 201              		@ frame_needed = 0, uses_anonymous_args = 0
 202 0000 08B5     		push	{r3, lr}
 203              	.LCFI1:
 204              		.cfi_def_cfa_offset 8
 205              		.cfi_offset 3, -8
 206              		.cfi_offset 14, -4
  63:HAL_Lib/Core/Src/stm32h7xx_it.c ****   Os_SwitchContext();
 207              		.loc 1 63 3 view .LVU27
 208 0002 FFF7FEFF 		bl	Os_SwitchContext
 209              	.LVL2:
  64:HAL_Lib/Core/Src/stm32h7xx_it.c **** }
 210              		.loc 1 64 1 is_stmt 0 view .LVU28
 211 0006 08BD     		pop	{r3, pc}
 212              		.cfi_endproc
 213              	.LFE154:
 215              		.section	.text.SysTick_Handler,"ax",%progbits
 216              		.align	1
 217              		.global	SysTick_Handler
 218              		.syntax unified
 219              		.thumb
 220              		.thumb_func
 221              		.fpu fpv5-d16
 223              	SysTick_Handler:
 224              	.LFB155:
  65:HAL_Lib/Core/Src/stm32h7xx_it.c **** 
  66:HAL_Lib/Core/Src/stm32h7xx_it.c **** void SysTick_Handler(void)
  67:HAL_Lib/Core/Src/stm32h7xx_it.c **** {
 225              		.loc 1 67 1 is_stmt 1 view -0
 226              		.cfi_startproc
 227              		@ args = 0, pretend = 0, frame = 0
 228              		@ frame_needed = 0, uses_anonymous_args = 0
 229 0000 38B5     		push	{r3, r4, r5, lr}
 230              	.LCFI2:
ARM GAS  /var/folders/lx/hc4sn_b53233_zkc9xbbl97r0000gp/T//ccewFhgQ.s 			page 6


 231              		.cfi_def_cfa_offset 16
 232              		.cfi_offset 3, -16
 233              		.cfi_offset 4, -12
 234              		.cfi_offset 5, -8
 235              		.cfi_offset 14, -4
  68:HAL_Lib/Core/Src/stm32h7xx_it.c ****   static uint32_t time_base = 0;
 236              		.loc 1 68 3 view .LVU30
  69:HAL_Lib/Core/Src/stm32h7xx_it.c **** 
  70:HAL_Lib/Core/Src/stm32h7xx_it.c ****   DebugPin.ctl(Debug_PB3, true);
 237              		.loc 1 70 3 view .LVU31
 238              		.loc 1 70 11 is_stmt 0 view .LVU32
 239 0002 114D     		ldr	r5, .L21
 240 0004 6B68     		ldr	r3, [r5, #4]
 241              		.loc 1 70 3 view .LVU33
 242 0006 114C     		ldr	r4, .L21+4
 243 0008 0122     		movs	r2, #1
 244 000a 94E80300 		ldm	r4, {r0, r1}
 245 000e 9847     		blx	r3
 246              	.LVL3:
  71:HAL_Lib/Core/Src/stm32h7xx_it.c **** 
  72:HAL_Lib/Core/Src/stm32h7xx_it.c ****   /* Os relay on */
  73:HAL_Lib/Core/Src/stm32h7xx_it.c ****   Runtime_Tick();
 247              		.loc 1 73 3 is_stmt 1 view .LVU34
 248 0010 FFF7FEFF 		bl	Runtime_Tick
 249              	.LVL4:
  74:HAL_Lib/Core/Src/stm32h7xx_it.c **** 
  75:HAL_Lib/Core/Src/stm32h7xx_it.c ****   DebugPin.ctl(Debug_PB3, false);
 250              		.loc 1 75 3 view .LVU35
 251              		.loc 1 75 11 is_stmt 0 view .LVU36
 252 0014 6B68     		ldr	r3, [r5, #4]
 253              		.loc 1 75 3 view .LVU37
 254 0016 0022     		movs	r2, #0
 255 0018 94E80300 		ldm	r4, {r0, r1}
 256 001c 9847     		blx	r3
 257              	.LVL5:
  76:HAL_Lib/Core/Src/stm32h7xx_it.c **** 
  77:HAL_Lib/Core/Src/stm32h7xx_it.c ****   /* periph relay on */
  78:HAL_Lib/Core/Src/stm32h7xx_it.c ****   if (time_base == REAL_1MS - Runtime_GetTickBase())
 258              		.loc 1 78 3 is_stmt 1 view .LVU38
 259              		.loc 1 78 31 is_stmt 0 view .LVU39
 260 001e FFF7FEFF 		bl	Runtime_GetTickBase
 261              	.LVL6:
 262              		.loc 1 78 29 view .LVU40
 263 0022 C0F57A70 		rsb	r0, r0, #1000
 264              		.loc 1 78 17 view .LVU41
 265 0026 0A4B     		ldr	r3, .L21+8
 266 0028 1B68     		ldr	r3, [r3]
 267              		.loc 1 78 6 view .LVU42
 268 002a 9842     		cmp	r0, r3
 269 002c 06D0     		beq	.L20
  79:HAL_Lib/Core/Src/stm32h7xx_it.c ****   {
  80:HAL_Lib/Core/Src/stm32h7xx_it.c ****     time_base = 0;
  81:HAL_Lib/Core/Src/stm32h7xx_it.c ****     HAL_IncTick();
  82:HAL_Lib/Core/Src/stm32h7xx_it.c ****   }
  83:HAL_Lib/Core/Src/stm32h7xx_it.c ****   else
  84:HAL_Lib/Core/Src/stm32h7xx_it.c ****   {
  85:HAL_Lib/Core/Src/stm32h7xx_it.c ****     time_base += Runtime_GetTickBase();
ARM GAS  /var/folders/lx/hc4sn_b53233_zkc9xbbl97r0000gp/T//ccewFhgQ.s 			page 7


 270              		.loc 1 85 5 is_stmt 1 view .LVU43
 271              		.loc 1 85 18 is_stmt 0 view .LVU44
 272 002e FFF7FEFF 		bl	Runtime_GetTickBase
 273              	.LVL7:
 274              		.loc 1 85 15 view .LVU45
 275 0032 074A     		ldr	r2, .L21+8
 276 0034 1368     		ldr	r3, [r2]
 277 0036 0344     		add	r3, r3, r0
 278 0038 1360     		str	r3, [r2]
 279              	.L16:
  86:HAL_Lib/Core/Src/stm32h7xx_it.c ****   }
  87:HAL_Lib/Core/Src/stm32h7xx_it.c **** }
 280              		.loc 1 87 1 view .LVU46
 281 003a 38BD     		pop	{r3, r4, r5, pc}
 282              	.L20:
  80:HAL_Lib/Core/Src/stm32h7xx_it.c ****     HAL_IncTick();
 283              		.loc 1 80 5 is_stmt 1 view .LVU47
  80:HAL_Lib/Core/Src/stm32h7xx_it.c ****     HAL_IncTick();
 284              		.loc 1 80 15 is_stmt 0 view .LVU48
 285 003c 044B     		ldr	r3, .L21+8
 286 003e 0022     		movs	r2, #0
 287 0040 1A60     		str	r2, [r3]
  81:HAL_Lib/Core/Src/stm32h7xx_it.c ****   }
 288              		.loc 1 81 5 is_stmt 1 view .LVU49
 289 0042 FFF7FEFF 		bl	HAL_IncTick
 290              	.LVL8:
 291 0046 F8E7     		b	.L16
 292              	.L22:
 293              		.align	2
 294              	.L21:
 295 0048 00000000 		.word	DebugPin
 296 004c 00000000 		.word	Debug_PB3
 297 0050 00000000 		.word	.LANCHOR0
 298              		.cfi_endproc
 299              	.LFE155:
 301              		.section	.text.OTG_FS_IRQHandler,"ax",%progbits
 302              		.align	1
 303              		.global	OTG_FS_IRQHandler
 304              		.syntax unified
 305              		.thumb
 306              		.thumb_func
 307              		.fpu fpv5-d16
 309              	OTG_FS_IRQHandler:
 310              	.LFB156:
  88:HAL_Lib/Core/Src/stm32h7xx_it.c **** 
  89:HAL_Lib/Core/Src/stm32h7xx_it.c **** void OTG_FS_IRQHandler(void)
  90:HAL_Lib/Core/Src/stm32h7xx_it.c **** {
 311              		.loc 1 90 1 view -0
 312              		.cfi_startproc
 313              		@ args = 0, pretend = 0, frame = 0
 314              		@ frame_needed = 0, uses_anonymous_args = 0
 315 0000 08B5     		push	{r3, lr}
 316              	.LCFI3:
 317              		.cfi_def_cfa_offset 8
 318              		.cfi_offset 3, -8
 319              		.cfi_offset 14, -4
  91:HAL_Lib/Core/Src/stm32h7xx_it.c ****   HAL_PCD_IRQHandler(&hpcd_USB_OTG_FS);
ARM GAS  /var/folders/lx/hc4sn_b53233_zkc9xbbl97r0000gp/T//ccewFhgQ.s 			page 8


 320              		.loc 1 91 3 view .LVU51
 321 0002 0248     		ldr	r0, .L25
 322 0004 FFF7FEFF 		bl	HAL_PCD_IRQHandler
 323              	.LVL9:
  92:HAL_Lib/Core/Src/stm32h7xx_it.c **** }
 324              		.loc 1 92 1 is_stmt 0 view .LVU52
 325 0008 08BD     		pop	{r3, pc}
 326              	.L26:
 327 000a 00BF     		.align	2
 328              	.L25:
 329 000c 00000000 		.word	hpcd_USB_OTG_FS
 330              		.cfi_endproc
 331              	.LFE156:
 333              		.section	.text.EXTI0_IRQHandler,"ax",%progbits
 334              		.align	1
 335              		.global	EXTI0_IRQHandler
 336              		.syntax unified
 337              		.thumb
 338              		.thumb_func
 339              		.fpu fpv5-d16
 341              	EXTI0_IRQHandler:
 342              	.LFB157:
  93:HAL_Lib/Core/Src/stm32h7xx_it.c **** 
  94:HAL_Lib/Core/Src/stm32h7xx_it.c **** void EXTI0_IRQHandler(void)
  95:HAL_Lib/Core/Src/stm32h7xx_it.c **** {
 343              		.loc 1 95 1 is_stmt 1 view -0
 344              		.cfi_startproc
 345              		@ args = 0, pretend = 0, frame = 0
 346              		@ frame_needed = 0, uses_anonymous_args = 0
 347 0000 08B5     		push	{r3, lr}
 348              	.LCFI4:
 349              		.cfi_def_cfa_offset 8
 350              		.cfi_offset 3, -8
 351              		.cfi_offset 14, -4
  96:HAL_Lib/Core/Src/stm32h7xx_it.c ****   HAL_GPIO_EXTI_IRQHandler(GPIO_PIN_0);
 352              		.loc 1 96 3 view .LVU54
 353 0002 0120     		movs	r0, #1
 354 0004 FFF7FEFF 		bl	HAL_GPIO_EXTI_IRQHandler
 355              	.LVL10:
  97:HAL_Lib/Core/Src/stm32h7xx_it.c **** }
 356              		.loc 1 97 1 is_stmt 0 view .LVU55
 357 0008 08BD     		pop	{r3, pc}
 358              		.cfi_endproc
 359              	.LFE157:
 361              		.section	.text.EXTI1_IRQHandler,"ax",%progbits
 362              		.align	1
 363              		.global	EXTI1_IRQHandler
 364              		.syntax unified
 365              		.thumb
 366              		.thumb_func
 367              		.fpu fpv5-d16
 369              	EXTI1_IRQHandler:
 370              	.LFB158:
  98:HAL_Lib/Core/Src/stm32h7xx_it.c **** 
  99:HAL_Lib/Core/Src/stm32h7xx_it.c **** void EXTI1_IRQHandler(void)
 100:HAL_Lib/Core/Src/stm32h7xx_it.c **** {
 371              		.loc 1 100 1 is_stmt 1 view -0
ARM GAS  /var/folders/lx/hc4sn_b53233_zkc9xbbl97r0000gp/T//ccewFhgQ.s 			page 9


 372              		.cfi_startproc
 373              		@ args = 0, pretend = 0, frame = 0
 374              		@ frame_needed = 0, uses_anonymous_args = 0
 375 0000 08B5     		push	{r3, lr}
 376              	.LCFI5:
 377              		.cfi_def_cfa_offset 8
 378              		.cfi_offset 3, -8
 379              		.cfi_offset 14, -4
 101:HAL_Lib/Core/Src/stm32h7xx_it.c ****   HAL_GPIO_EXTI_IRQHandler(GPIO_PIN_1);
 380              		.loc 1 101 3 view .LVU57
 381 0002 0220     		movs	r0, #2
 382 0004 FFF7FEFF 		bl	HAL_GPIO_EXTI_IRQHandler
 383              	.LVL11:
 102:HAL_Lib/Core/Src/stm32h7xx_it.c **** }
 384              		.loc 1 102 1 is_stmt 0 view .LVU58
 385 0008 08BD     		pop	{r3, pc}
 386              		.cfi_endproc
 387              	.LFE158:
 389              		.section	.text.EXTI2_IRQHandler,"ax",%progbits
 390              		.align	1
 391              		.global	EXTI2_IRQHandler
 392              		.syntax unified
 393              		.thumb
 394              		.thumb_func
 395              		.fpu fpv5-d16
 397              	EXTI2_IRQHandler:
 398              	.LFB159:
 103:HAL_Lib/Core/Src/stm32h7xx_it.c **** 
 104:HAL_Lib/Core/Src/stm32h7xx_it.c **** void EXTI2_IRQHandler(void)
 105:HAL_Lib/Core/Src/stm32h7xx_it.c **** {
 399              		.loc 1 105 1 is_stmt 1 view -0
 400              		.cfi_startproc
 401              		@ args = 0, pretend = 0, frame = 0
 402              		@ frame_needed = 0, uses_anonymous_args = 0
 403 0000 08B5     		push	{r3, lr}
 404              	.LCFI6:
 405              		.cfi_def_cfa_offset 8
 406              		.cfi_offset 3, -8
 407              		.cfi_offset 14, -4
 106:HAL_Lib/Core/Src/stm32h7xx_it.c ****   HAL_GPIO_EXTI_IRQHandler(GPIO_PIN_2);
 408              		.loc 1 106 3 view .LVU60
 409 0002 0420     		movs	r0, #4
 410 0004 FFF7FEFF 		bl	HAL_GPIO_EXTI_IRQHandler
 411              	.LVL12:
 107:HAL_Lib/Core/Src/stm32h7xx_it.c **** }
 412              		.loc 1 107 1 is_stmt 0 view .LVU61
 413 0008 08BD     		pop	{r3, pc}
 414              		.cfi_endproc
 415              	.LFE159:
 417              		.section	.text.EXTI3_IRQHandler,"ax",%progbits
 418              		.align	1
 419              		.global	EXTI3_IRQHandler
 420              		.syntax unified
 421              		.thumb
 422              		.thumb_func
 423              		.fpu fpv5-d16
 425              	EXTI3_IRQHandler:
ARM GAS  /var/folders/lx/hc4sn_b53233_zkc9xbbl97r0000gp/T//ccewFhgQ.s 			page 10


 426              	.LFB160:
 108:HAL_Lib/Core/Src/stm32h7xx_it.c **** 
 109:HAL_Lib/Core/Src/stm32h7xx_it.c **** void EXTI3_IRQHandler(void)
 110:HAL_Lib/Core/Src/stm32h7xx_it.c **** {
 427              		.loc 1 110 1 is_stmt 1 view -0
 428              		.cfi_startproc
 429              		@ args = 0, pretend = 0, frame = 0
 430              		@ frame_needed = 0, uses_anonymous_args = 0
 431 0000 08B5     		push	{r3, lr}
 432              	.LCFI7:
 433              		.cfi_def_cfa_offset 8
 434              		.cfi_offset 3, -8
 435              		.cfi_offset 14, -4
 111:HAL_Lib/Core/Src/stm32h7xx_it.c ****   HAL_GPIO_EXTI_IRQHandler(GPIO_PIN_3);
 436              		.loc 1 111 3 view .LVU63
 437 0002 0820     		movs	r0, #8
 438 0004 FFF7FEFF 		bl	HAL_GPIO_EXTI_IRQHandler
 439              	.LVL13:
 112:HAL_Lib/Core/Src/stm32h7xx_it.c **** }
 440              		.loc 1 112 1 is_stmt 0 view .LVU64
 441 0008 08BD     		pop	{r3, pc}
 442              		.cfi_endproc
 443              	.LFE160:
 445              		.section	.text.EXTI4_IRQHandler,"ax",%progbits
 446              		.align	1
 447              		.global	EXTI4_IRQHandler
 448              		.syntax unified
 449              		.thumb
 450              		.thumb_func
 451              		.fpu fpv5-d16
 453              	EXTI4_IRQHandler:
 454              	.LFB161:
 113:HAL_Lib/Core/Src/stm32h7xx_it.c **** 
 114:HAL_Lib/Core/Src/stm32h7xx_it.c **** void EXTI4_IRQHandler(void)
 115:HAL_Lib/Core/Src/stm32h7xx_it.c **** {
 455              		.loc 1 115 1 is_stmt 1 view -0
 456              		.cfi_startproc
 457              		@ args = 0, pretend = 0, frame = 0
 458              		@ frame_needed = 0, uses_anonymous_args = 0
 459 0000 08B5     		push	{r3, lr}
 460              	.LCFI8:
 461              		.cfi_def_cfa_offset 8
 462              		.cfi_offset 3, -8
 463              		.cfi_offset 14, -4
 116:HAL_Lib/Core/Src/stm32h7xx_it.c ****   HAL_GPIO_EXTI_IRQHandler(GPIO_PIN_4);
 464              		.loc 1 116 3 view .LVU66
 465 0002 1020     		movs	r0, #16
 466 0004 FFF7FEFF 		bl	HAL_GPIO_EXTI_IRQHandler
 467              	.LVL14:
 117:HAL_Lib/Core/Src/stm32h7xx_it.c **** }
 468              		.loc 1 117 1 is_stmt 0 view .LVU67
 469 0008 08BD     		pop	{r3, pc}
 470              		.cfi_endproc
 471              	.LFE161:
 473              		.section	.text.EXTI9_5_IRQHandler,"ax",%progbits
 474              		.align	1
 475              		.global	EXTI9_5_IRQHandler
ARM GAS  /var/folders/lx/hc4sn_b53233_zkc9xbbl97r0000gp/T//ccewFhgQ.s 			page 11


 476              		.syntax unified
 477              		.thumb
 478              		.thumb_func
 479              		.fpu fpv5-d16
 481              	EXTI9_5_IRQHandler:
 482              	.LFB162:
 118:HAL_Lib/Core/Src/stm32h7xx_it.c **** 
 119:HAL_Lib/Core/Src/stm32h7xx_it.c **** void EXTI9_5_IRQHandler(void)
 120:HAL_Lib/Core/Src/stm32h7xx_it.c **** {
 483              		.loc 1 120 1 is_stmt 1 view -0
 484              		.cfi_startproc
 485              		@ args = 0, pretend = 0, frame = 0
 486              		@ frame_needed = 0, uses_anonymous_args = 0
 487 0000 08B5     		push	{r3, lr}
 488              	.LCFI9:
 489              		.cfi_def_cfa_offset 8
 490              		.cfi_offset 3, -8
 491              		.cfi_offset 14, -4
 121:HAL_Lib/Core/Src/stm32h7xx_it.c ****   HAL_GPIO_EXTI_IRQHandler(GPIO_PIN_5);
 492              		.loc 1 121 3 view .LVU69
 493 0002 2020     		movs	r0, #32
 494 0004 FFF7FEFF 		bl	HAL_GPIO_EXTI_IRQHandler
 495              	.LVL15:
 122:HAL_Lib/Core/Src/stm32h7xx_it.c ****   HAL_GPIO_EXTI_IRQHandler(GPIO_PIN_6);
 496              		.loc 1 122 3 view .LVU70
 497 0008 4020     		movs	r0, #64
 498 000a FFF7FEFF 		bl	HAL_GPIO_EXTI_IRQHandler
 499              	.LVL16:
 123:HAL_Lib/Core/Src/stm32h7xx_it.c ****   HAL_GPIO_EXTI_IRQHandler(GPIO_PIN_7);
 500              		.loc 1 123 3 view .LVU71
 501 000e 8020     		movs	r0, #128
 502 0010 FFF7FEFF 		bl	HAL_GPIO_EXTI_IRQHandler
 503              	.LVL17:
 124:HAL_Lib/Core/Src/stm32h7xx_it.c ****   HAL_GPIO_EXTI_IRQHandler(GPIO_PIN_8);
 504              		.loc 1 124 3 view .LVU72
 505 0014 4FF48070 		mov	r0, #256
 506 0018 FFF7FEFF 		bl	HAL_GPIO_EXTI_IRQHandler
 507              	.LVL18:
 125:HAL_Lib/Core/Src/stm32h7xx_it.c ****   HAL_GPIO_EXTI_IRQHandler(GPIO_PIN_9);
 508              		.loc 1 125 3 view .LVU73
 509 001c 4FF40070 		mov	r0, #512
 510 0020 FFF7FEFF 		bl	HAL_GPIO_EXTI_IRQHandler
 511              	.LVL19:
 126:HAL_Lib/Core/Src/stm32h7xx_it.c **** }
 512              		.loc 1 126 1 is_stmt 0 view .LVU74
 513 0024 08BD     		pop	{r3, pc}
 514              		.cfi_endproc
 515              	.LFE162:
 517              		.section	.text.EXTI15_10_IRQHandler,"ax",%progbits
 518              		.align	1
 519              		.global	EXTI15_10_IRQHandler
 520              		.syntax unified
 521              		.thumb
 522              		.thumb_func
 523              		.fpu fpv5-d16
 525              	EXTI15_10_IRQHandler:
 526              	.LFB163:
ARM GAS  /var/folders/lx/hc4sn_b53233_zkc9xbbl97r0000gp/T//ccewFhgQ.s 			page 12


 127:HAL_Lib/Core/Src/stm32h7xx_it.c **** 
 128:HAL_Lib/Core/Src/stm32h7xx_it.c **** void EXTI15_10_IRQHandler(void)
 129:HAL_Lib/Core/Src/stm32h7xx_it.c **** {
 527              		.loc 1 129 1 is_stmt 1 view -0
 528              		.cfi_startproc
 529              		@ args = 0, pretend = 0, frame = 0
 530              		@ frame_needed = 0, uses_anonymous_args = 0
 531 0000 08B5     		push	{r3, lr}
 532              	.LCFI10:
 533              		.cfi_def_cfa_offset 8
 534              		.cfi_offset 3, -8
 535              		.cfi_offset 14, -4
 130:HAL_Lib/Core/Src/stm32h7xx_it.c ****   HAL_GPIO_EXTI_IRQHandler(GPIO_PIN_10);
 536              		.loc 1 130 3 view .LVU76
 537 0002 4FF48060 		mov	r0, #1024
 538 0006 FFF7FEFF 		bl	HAL_GPIO_EXTI_IRQHandler
 539              	.LVL20:
 131:HAL_Lib/Core/Src/stm32h7xx_it.c ****   HAL_GPIO_EXTI_IRQHandler(GPIO_PIN_11);
 540              		.loc 1 131 3 view .LVU77
 541 000a 4FF40060 		mov	r0, #2048
 542 000e FFF7FEFF 		bl	HAL_GPIO_EXTI_IRQHandler
 543              	.LVL21:
 132:HAL_Lib/Core/Src/stm32h7xx_it.c ****   HAL_GPIO_EXTI_IRQHandler(GPIO_PIN_12);
 544              		.loc 1 132 3 view .LVU78
 545 0012 4FF48050 		mov	r0, #4096
 546 0016 FFF7FEFF 		bl	HAL_GPIO_EXTI_IRQHandler
 547              	.LVL22:
 133:HAL_Lib/Core/Src/stm32h7xx_it.c ****   HAL_GPIO_EXTI_IRQHandler(GPIO_PIN_13);
 548              		.loc 1 133 3 view .LVU79
 549 001a 4FF40050 		mov	r0, #8192
 550 001e FFF7FEFF 		bl	HAL_GPIO_EXTI_IRQHandler
 551              	.LVL23:
 134:HAL_Lib/Core/Src/stm32h7xx_it.c ****   HAL_GPIO_EXTI_IRQHandler(GPIO_PIN_14);
 552              		.loc 1 134 3 view .LVU80
 553 0022 4FF48040 		mov	r0, #16384
 554 0026 FFF7FEFF 		bl	HAL_GPIO_EXTI_IRQHandler
 555              	.LVL24:
 135:HAL_Lib/Core/Src/stm32h7xx_it.c ****   HAL_GPIO_EXTI_IRQHandler(GPIO_PIN_15);
 556              		.loc 1 135 3 view .LVU81
 557 002a 4FF40040 		mov	r0, #32768
 558 002e FFF7FEFF 		bl	HAL_GPIO_EXTI_IRQHandler
 559              	.LVL25:
 136:HAL_Lib/Core/Src/stm32h7xx_it.c **** }
 560              		.loc 1 136 1 is_stmt 0 view .LVU82
 561 0032 08BD     		pop	{r3, pc}
 562              		.cfi_endproc
 563              	.LFE163:
 565              		.section	.text.SDMMC1_IRQHandler,"ax",%progbits
 566              		.align	1
 567              		.global	SDMMC1_IRQHandler
 568              		.syntax unified
 569              		.thumb
 570              		.thumb_func
 571              		.fpu fpv5-d16
 573              	SDMMC1_IRQHandler:
 574              	.LFB164:
 137:HAL_Lib/Core/Src/stm32h7xx_it.c **** 
ARM GAS  /var/folders/lx/hc4sn_b53233_zkc9xbbl97r0000gp/T//ccewFhgQ.s 			page 13


 138:HAL_Lib/Core/Src/stm32h7xx_it.c **** void SDMMC1_IRQHandler(void)
 139:HAL_Lib/Core/Src/stm32h7xx_it.c **** {
 575              		.loc 1 139 1 is_stmt 1 view -0
 576              		.cfi_startproc
 577              		@ args = 0, pretend = 0, frame = 0
 578              		@ frame_needed = 0, uses_anonymous_args = 0
 579 0000 08B5     		push	{r3, lr}
 580              	.LCFI11:
 581              		.cfi_def_cfa_offset 8
 582              		.cfi_offset 3, -8
 583              		.cfi_offset 14, -4
 140:HAL_Lib/Core/Src/stm32h7xx_it.c ****   HAL_SD_IRQHandler(&DevTFCard_Obj.SDMMC_Obj.hdl);
 584              		.loc 1 140 3 view .LVU84
 585 0002 0248     		ldr	r0, .L43
 586 0004 FFF7FEFF 		bl	HAL_SD_IRQHandler
 587              	.LVL26:
 141:HAL_Lib/Core/Src/stm32h7xx_it.c **** }
 588              		.loc 1 141 1 is_stmt 0 view .LVU85
 589 0008 08BD     		pop	{r3, pc}
 590              	.L44:
 591 000a 00BF     		.align	2
 592              	.L43:
 593 000c 04000000 		.word	DevTFCard_Obj+4
 594              		.cfi_endproc
 595              	.LFE164:
 597              		.section	.text.MDMA_IRQHandler,"ax",%progbits
 598              		.align	1
 599              		.global	MDMA_IRQHandler
 600              		.syntax unified
 601              		.thumb
 602              		.thumb_func
 603              		.fpu fpv5-d16
 605              	MDMA_IRQHandler:
 606              	.LFB165:
 142:HAL_Lib/Core/Src/stm32h7xx_it.c **** 
 143:HAL_Lib/Core/Src/stm32h7xx_it.c **** void MDMA_IRQHandler(void)
 144:HAL_Lib/Core/Src/stm32h7xx_it.c **** {
 607              		.loc 1 144 1 is_stmt 1 view -0
 608              		.cfi_startproc
 609              		@ args = 0, pretend = 0, frame = 0
 610              		@ frame_needed = 0, uses_anonymous_args = 0
 611 0000 08B5     		push	{r3, lr}
 612              	.LCFI12:
 613              		.cfi_def_cfa_offset 8
 614              		.cfi_offset 3, -8
 615              		.cfi_offset 14, -4
 145:HAL_Lib/Core/Src/stm32h7xx_it.c ****   HAL_MDMA_IRQHandler(&DevTFCard_Obj.SDMMC_Obj.mdma);
 616              		.loc 1 145 3 view .LVU87
 617 0002 0248     		ldr	r0, .L47
 618 0004 FFF7FEFF 		bl	HAL_MDMA_IRQHandler
 619              	.LVL27:
 146:HAL_Lib/Core/Src/stm32h7xx_it.c **** }
 620              		.loc 1 146 1 is_stmt 0 view .LVU88
 621 0008 08BD     		pop	{r3, pc}
 622              	.L48:
 623 000a 00BF     		.align	2
 624              	.L47:
ARM GAS  /var/folders/lx/hc4sn_b53233_zkc9xbbl97r0000gp/T//ccewFhgQ.s 			page 14


 625 000c 84000000 		.word	DevTFCard_Obj+132
 626              		.cfi_endproc
 627              	.LFE165:
 629              		.section	.text.DMA2_Stream7_IRQHandler,"ax",%progbits
 630              		.align	1
 631              		.global	DMA2_Stream7_IRQHandler
 632              		.syntax unified
 633              		.thumb
 634              		.thumb_func
 635              		.fpu fpv5-d16
 637              	DMA2_Stream7_IRQHandler:
 638              	.LFB166:
 147:HAL_Lib/Core/Src/stm32h7xx_it.c **** 
 148:HAL_Lib/Core/Src/stm32h7xx_it.c **** void DMA2_Stream7_IRQHandler(void)
 149:HAL_Lib/Core/Src/stm32h7xx_it.c **** {
 639              		.loc 1 149 1 is_stmt 1 view -0
 640              		.cfi_startproc
 641              		@ args = 0, pretend = 0, frame = 0
 642              		@ frame_needed = 0, uses_anonymous_args = 0
 643 0000 08B5     		push	{r3, lr}
 644              	.LCFI13:
 645              		.cfi_def_cfa_offset 8
 646              		.cfi_offset 3, -8
 647              		.cfi_offset 14, -4
 150:HAL_Lib/Core/Src/stm32h7xx_it.c ****   HAL_DMA_IRQHandler(&DataPipe_DMA);
 648              		.loc 1 150 3 view .LVU90
 649 0002 0248     		ldr	r0, .L51
 650 0004 FFF7FEFF 		bl	HAL_DMA_IRQHandler
 651              	.LVL28:
 151:HAL_Lib/Core/Src/stm32h7xx_it.c **** }
 652              		.loc 1 151 1 is_stmt 0 view .LVU91
 653 0008 08BD     		pop	{r3, pc}
 654              	.L52:
 655 000a 00BF     		.align	2
 656              	.L51:
 657 000c 00000000 		.word	DataPipe_DMA
 658              		.cfi_endproc
 659              	.LFE166:
 661              		.section	.bss.time_base.0,"aw",%nobits
 662              		.align	2
 663              		.set	.LANCHOR0,. + 0
 666              	time_base.0:
 667 0000 00000000 		.space	4
 668              		.text
 669              	.Letext0:
 670              		.file 2 "/usr/local/arm-none-eabi-gcc/gcc-arm-none-eabi-10-2020-q4-major/arm-none-eabi/include/mac
 671              		.file 3 "/usr/local/arm-none-eabi-gcc/gcc-arm-none-eabi-10-2020-q4-major/arm-none-eabi/include/sys
 672              		.file 4 "HAL_Lib/CMSIS/Device/ST/STM32H7xx/Include/stm32h743xx.h"
 673              		.file 5 "HAL_Lib/STM32H7xx_HAL_Driver/Inc/stm32h7xx_hal_def.h"
 674              		.file 6 "HAL_Lib/STM32H7xx_HAL_Driver/Inc/stm32h7xx_hal_gpio.h"
 675              		.file 7 "HAL_Lib/STM32H7xx_HAL_Driver/Inc/stm32h7xx_hal_dma.h"
 676              		.file 8 "HAL_Lib/STM32H7xx_HAL_Driver/Inc/stm32h7xx_hal_mdma.h"
 677              		.file 9 "HAL_Lib/STM32H7xx_HAL_Driver/Inc/stm32h7xx_ll_sdmmc.h"
 678              		.file 10 "HAL_Lib/STM32H7xx_HAL_Driver/Inc/stm32h7xx_hal_sd.h"
 679              		.file 11 "HAL_Lib/STM32H7xx_HAL_Driver/Inc/stm32h7xx_ll_usb.h"
 680              		.file 12 "HAL_Lib/STM32H7xx_HAL_Driver/Inc/stm32h7xx_hal_pcd.h"
 681              		.file 13 "Bsp/Bsp_GPIO.h"
ARM GAS  /var/folders/lx/hc4sn_b53233_zkc9xbbl97r0000gp/T//ccewFhgQ.s 			page 15


 682              		.file 14 "debug/debug_util.h"
 683              		.file 15 "IO_Def/IO_Definition.h"
 684              		.file 16 "Bsp/Bsp_SDMMC.h"
 685              		.file 17 "Device/Dev_Card.h"
 686              		.file 18 "System/runtime/runtime.h"
 687              		.file 19 "HAL_Lib/STM32H7xx_HAL_Driver/Inc/stm32h7xx_hal.h"
 688              		.file 20 "System/scheduler/scheduler.h"
ARM GAS  /var/folders/lx/hc4sn_b53233_zkc9xbbl97r0000gp/T//ccewFhgQ.s 			page 16

