ARM GAS  /var/folders/lx/hc4sn_b53233_zkc9xbbl97r0000gp/T//cczKZe75.s 			page 1


   1              		.cpu cortex-m7
   2              		.eabi_attribute 28, 1
   3              		.eabi_attribute 20, 1
   4              		.eabi_attribute 21, 1
   5              		.eabi_attribute 23, 3
   6              		.eabi_attribute 24, 1
   7              		.eabi_attribute 25, 1
   8              		.eabi_attribute 26, 1
   9              		.eabi_attribute 30, 1
  10              		.eabi_attribute 34, 1
  11              		.eabi_attribute 18, 4
  12              		.file	"storage.c"
  13              		.text
  14              	.Ltext0:
  15              		.cfi_sections	.debug_frame
  16              		.section	.text.ExtStorage_Init,"ax",%progbits
  17              		.align	1
  18              		.global	ExtStorage_Init
  19              		.arch armv7e-m
  20              		.syntax unified
  21              		.thumb
  22              		.thumb_func
  23              		.fpu fpv5-d16
  25              	ExtStorage_Init:
  26              	.LFB333:
  27              		.file 1 "System/storage/storage.c"
   1:System/storage/storage.c **** #include "storage.h"
   2:System/storage/storage.c **** #include "Dev_W25Qxx.h"
   3:System/storage/storage.c **** #include "IO_Definition.h"
   4:System/storage/storage.c **** 
   5:System/storage/storage.c **** #if (EXTERNAL_STORAGE_MODULE == 1)
   6:System/storage/storage.c **** DevW25QxxObj_TypeDef W25Q64_Obj = {
   7:System/storage/storage.c ****     .bus_type = DevW25Qxx_Norm_SpiBus,
   8:System/storage/storage.c ****     .BusPort = SPI1,
   9:System/storage/storage.c **** };
  10:System/storage/storage.c **** 
  11:System/storage/storage.c **** DevW25QxxPin_Config_TypeDef W25Qxx_Pin = {
  12:System/storage/storage.c ****     // .pin_Alternate =,
  13:System/storage/storage.c **** 
  14:System/storage/storage.c ****     // .pin_clk =,
  15:System/storage/storage.c ****     // .pin_miso =,
  16:System/storage/storage.c ****     // .pin_mosi =,
  17:System/storage/storage.c **** 
  18:System/storage/storage.c ****     // .port_clk =,
  19:System/storage/storage.c ****     // .port_miso =,
  20:System/storage/storage.c ****     // .port_mosi =,
  21:System/storage/storage.c **** };
  22:System/storage/storage.c **** 
  23:System/storage/storage.c **** bool ExtStorage_Init(void)
  24:System/storage/storage.c **** {
  28              		.loc 1 24 1 view -0
  29              		.cfi_startproc
  30              		@ args = 0, pretend = 0, frame = 0
  31              		@ frame_needed = 0, uses_anonymous_args = 0
  32              		@ link register save eliminated.
  25:System/storage/storage.c ****     bool init_state = false;
  33              		.loc 1 25 5 view .LVU1
ARM GAS  /var/folders/lx/hc4sn_b53233_zkc9xbbl97r0000gp/T//cczKZe75.s 			page 2


  34              	.LVL0:
  26:System/storage/storage.c **** 
  27:System/storage/storage.c ****     // DevW25Q64.init(W25Q64_Obj);
  28:System/storage/storage.c **** 
  29:System/storage/storage.c ****     return init_state;
  35              		.loc 1 29 5 view .LVU2
  30:System/storage/storage.c **** }
  36              		.loc 1 30 1 is_stmt 0 view .LVU3
  37 0000 0020     		movs	r0, #0
  38 0002 7047     		bx	lr
  39              		.cfi_endproc
  40              	.LFE333:
  42              		.section	.text.IntStorage_Init,"ax",%progbits
  43              		.align	1
  44              		.global	IntStorage_Init
  45              		.syntax unified
  46              		.thumb
  47              		.thumb_func
  48              		.fpu fpv5-d16
  50              	IntStorage_Init:
  51              	.LFB334:
  31:System/storage/storage.c **** #endif
  32:System/storage/storage.c **** 
  33:System/storage/storage.c **** bool IntStorage_Init(void)
  34:System/storage/storage.c **** {
  52              		.loc 1 34 1 is_stmt 1 view -0
  53              		.cfi_startproc
  54              		@ args = 0, pretend = 0, frame = 0
  55              		@ frame_needed = 0, uses_anonymous_args = 0
  56              		@ link register save eliminated.
  35:System/storage/storage.c ****     bool init_state = false;
  57              		.loc 1 35 5 view .LVU5
  58              	.LVL1:
  36:System/storage/storage.c **** 
  37:System/storage/storage.c ****     return init_state;
  59              		.loc 1 37 5 view .LVU6
  38:System/storage/storage.c **** }
  60              		.loc 1 38 1 is_stmt 0 view .LVU7
  61 0000 0020     		movs	r0, #0
  62 0002 7047     		bx	lr
  63              		.cfi_endproc
  64              	.LFE334:
  66              		.section	.text.Storage_Init,"ax",%progbits
  67              		.align	1
  68              		.global	Storage_Init
  69              		.syntax unified
  70              		.thumb
  71              		.thumb_func
  72              		.fpu fpv5-d16
  74              	Storage_Init:
  75              	.LFB335:
  39:System/storage/storage.c **** 
  40:System/storage/storage.c **** bool Storage_Init(void)
  41:System/storage/storage.c **** {
  76              		.loc 1 41 1 is_stmt 1 view -0
  77              		.cfi_startproc
  78              		@ args = 0, pretend = 0, frame = 0
ARM GAS  /var/folders/lx/hc4sn_b53233_zkc9xbbl97r0000gp/T//cczKZe75.s 			page 3


  79              		@ frame_needed = 0, uses_anonymous_args = 0
  80 0000 08B5     		push	{r3, lr}
  81              	.LCFI0:
  82              		.cfi_def_cfa_offset 8
  83              		.cfi_offset 3, -8
  84              		.cfi_offset 14, -4
  42:System/storage/storage.c **** #if (EXTERNAL_STORAGE_MODULE == 1)
  43:System/storage/storage.c ****     if (!ExtStorage_Init())
  85              		.loc 1 43 5 view .LVU9
  86              		.loc 1 43 10 is_stmt 0 view .LVU10
  87 0002 FFF7FEFF 		bl	ExtStorage_Init
  88              	.LVL2:
  89              		.loc 1 43 8 view .LVU11
  90 0006 08B1     		cbz	r0, .L4
  44:System/storage/storage.c ****         return false;
  45:System/storage/storage.c **** #endif
  46:System/storage/storage.c **** 
  47:System/storage/storage.c ****     if (!IntStorage_Init())
  91              		.loc 1 47 5 is_stmt 1 view .LVU12
  92              		.loc 1 47 10 is_stmt 0 view .LVU13
  93 0008 FFF7FEFF 		bl	IntStorage_Init
  94              	.LVL3:
  95              	.L4:
  48:System/storage/storage.c ****         return false;
  49:System/storage/storage.c **** 
  50:System/storage/storage.c ****     return true;
  51:System/storage/storage.c **** }
  96              		.loc 1 51 1 view .LVU14
  97 000c 08BD     		pop	{r3, pc}
  98              		.cfi_endproc
  99              	.LFE335:
 101              		.global	W25Qxx_Pin
 102              		.global	W25Q64_Obj
 103              		.section	.bss.W25Qxx_Pin,"aw",%nobits
 104              		.align	2
 107              	W25Qxx_Pin:
 108 0000 00000000 		.space	28
 108      00000000 
 108      00000000 
 108      00000000 
 108      00000000 
 109              		.section	.data.W25Q64_Obj,"aw"
 110              		.align	2
 113              	W25Q64_Obj:
 114 0000 00       		.byte	0
 115 0001 00000000 		.space	4
 116 0005 00300140 		.4byte	1073819648
 117 0009 00000000 		.space	12
 117      00000000 
 117      00000000 
 118              		.text
 119              	.Letext0:
 120              		.file 2 "/usr/local/arm-none-eabi-gcc/gcc-arm-none-eabi-10-2020-q4-major/arm-none-eabi/include/mac
 121              		.file 3 "/usr/local/arm-none-eabi-gcc/gcc-arm-none-eabi-10-2020-q4-major/arm-none-eabi/include/sys
 122              		.file 4 "HAL_Lib/CMSIS/Device/ST/STM32H7xx/Include/stm32h743xx.h"
 123              		.file 5 "Bsp/Bsp_SPI.h"
 124              		.file 6 "Device/Dev_W25Qxx.h"
ARM GAS  /var/folders/lx/hc4sn_b53233_zkc9xbbl97r0000gp/T//cczKZe75.s 			page 4


ARM GAS  /var/folders/lx/hc4sn_b53233_zkc9xbbl97r0000gp/T//cczKZe75.s 			page 5

