ARM GAS  C:\Users\8bit\AppData\Local\Temp\ccMxBSAI.s 			page 1


   1              		.cpu cortex-m4
   2              		.arch armv7e-m
   3              		.fpu fpv4-sp-d16
   4              		.eabi_attribute 27, 1
   5              		.eabi_attribute 28, 1
   6              		.eabi_attribute 20, 1
   7              		.eabi_attribute 21, 1
   8              		.eabi_attribute 23, 3
   9              		.eabi_attribute 24, 1
  10              		.eabi_attribute 25, 1
  11              		.eabi_attribute 26, 1
  12              		.eabi_attribute 30, 1
  13              		.eabi_attribute 34, 1
  14              		.eabi_attribute 18, 4
  15              		.file	"Storage_Dev_Port.c"
  16              		.text
  17              	.Ltext0:
  18              		.cfi_sections	.debug_frame
  19              		.section	.text.Storage_Dev_Set,"ax",%progbits
  20              		.align	1
  21              		.syntax unified
  22              		.thumb
  23              		.thumb_func
  25              	Storage_Dev_Set:
  26              	.LVL0:
  27              	.LFB5:
  28              		.file 1 "System/storage/Storage_Dev_Port.c"
   1:System/storage/Storage_Dev_Port.c **** #include "Storage_Dev_Port.h"
   2:System/storage/Storage_Dev_Port.c **** #include "Storage_Def.h"
   3:System/storage/Storage_Dev_Port.c **** #include "Srv_OsCommon.h"
   4:System/storage/Storage_Dev_Port.c **** #include "Dev_W25Qxx.h"
   5:System/storage/Storage_Dev_Port.c **** #include "Dev_W25Nxx.h"
   6:System/storage/Storage_Dev_Port.c **** 
   7:System/storage/Storage_Dev_Port.c **** #define Storage_Dev_GetSstsTick SrvOsCommon.get_os_ms
   8:System/storage/Storage_Dev_Port.c **** #define Storage_Dev_Malloc(x)   SrvOsCommon.malloc(x)
   9:System/storage/Storage_Dev_Port.c **** #define Storage_Dev_Free(x)     SrvOsCommon.free(x)
  10:System/storage/Storage_Dev_Port.c **** 
  11:System/storage/Storage_Dev_Port.c **** /* internal vriable */
  12:System/storage/Storage_Dev_Port.c **** static uint8_t read_tmp[Storage_TabSize * 2] __attribute__((aligned(4))) __attribute__((section(".P
  13:System/storage/Storage_Dev_Port.c **** static uint8_t write_tmp[Storage_TabSize * 2] __attribute__((aligned(4))) __attribute__((section(".
  14:System/storage/Storage_Dev_Port.c **** 
  15:System/storage/Storage_Dev_Port.c **** /* external function */
  16:System/storage/Storage_Dev_Port.c **** static bool Storage_Dev_Set(StorageDevObj_TypeDef *ext_dev);
  17:System/storage/Storage_Dev_Port.c **** static bool Storage_Dev_Init(StorageDevObj_TypeDef *ext_dev, uint16_t *p_type, uint16_t *p_code);
  18:System/storage/Storage_Dev_Port.c **** 
  19:System/storage/Storage_Dev_Port.c **** static bool Storage_Dev_Write_Section(StorageDevObj_TypeDef *p_dev, uint32_t addr, uint8_t *p_data,
  20:System/storage/Storage_Dev_Port.c **** static bool Storage_Dev_Read_Section(StorageDevObj_TypeDef *p_dev, uint32_t addr, uint8_t *p_data, 
  21:System/storage/Storage_Dev_Port.c **** static bool Storage_Dev_Erase_Section(StorageDevObj_TypeDef *p_dev, uint32_t addr, uint16_t len);
  22:System/storage/Storage_Dev_Port.c **** 
  23:System/storage/Storage_Dev_Port.c **** static bool Storage_Dev_Firmware_Format(StorageDevObj_TypeDef *p_dev, uint32_t addr, uint32_t firmw
  24:System/storage/Storage_Dev_Port.c **** static bool Storage_Dev_Firmware_Read(StorageDevObj_TypeDef *p_dev, uint32_t base_addr, uint32_t ad
  25:System/storage/Storage_Dev_Port.c **** static bool Storage_Dev_Firmware_Write(StorageDevObj_TypeDef *p_dev, uint32_t base_addr, uint32_t a
  26:System/storage/Storage_Dev_Port.c **** 
  27:System/storage/Storage_Dev_Port.c **** static bool Storage_Dev_Param_Read(StorageDevObj_TypeDef *p_dev, uint32_t base_addr, uint32_t addr_
  28:System/storage/Storage_Dev_Port.c **** static bool Storage_Dev_Param_Write(StorageDevObj_TypeDef *p_dev, uint32_t base_addr, uint32_t addr
  29:System/storage/Storage_Dev_Port.c **** static bool Storage_Dev_Param_Erase(StorageDevObj_TypeDef *p_dev, uint32_t base_addr, uint32_t addr
  30:System/storage/Storage_Dev_Port.c **** 
ARM GAS  C:\Users\8bit\AppData\Local\Temp\ccMxBSAI.s 			page 2


  31:System/storage/Storage_Dev_Port.c **** StorageDevApi_TypeDef StorageDev = {
  32:System/storage/Storage_Dev_Port.c ****     .set = Storage_Dev_Set,
  33:System/storage/Storage_Dev_Port.c ****     .init = Storage_Dev_Init,
  34:System/storage/Storage_Dev_Port.c **** 
  35:System/storage/Storage_Dev_Port.c ****     .write_phy_sec = Storage_Dev_Write_Section,
  36:System/storage/Storage_Dev_Port.c ****     .read_phy_sec = Storage_Dev_Read_Section,
  37:System/storage/Storage_Dev_Port.c ****     .erase_phy_sec = Storage_Dev_Erase_Section,
  38:System/storage/Storage_Dev_Port.c **** 
  39:System/storage/Storage_Dev_Port.c ****     .firmware_format = Storage_Dev_Firmware_Format,
  40:System/storage/Storage_Dev_Port.c ****     .firmware_read = Storage_Dev_Firmware_Read,
  41:System/storage/Storage_Dev_Port.c ****     .firmware_write = Storage_Dev_Firmware_Write,
  42:System/storage/Storage_Dev_Port.c **** 
  43:System/storage/Storage_Dev_Port.c ****     .param_read = Storage_Dev_Param_Read,
  44:System/storage/Storage_Dev_Port.c ****     .param_write = Storage_Dev_Param_Write,
  45:System/storage/Storage_Dev_Port.c ****     .param_erase = Storage_Dev_Param_Erase,
  46:System/storage/Storage_Dev_Port.c **** };
  47:System/storage/Storage_Dev_Port.c **** 
  48:System/storage/Storage_Dev_Port.c **** static bool Storage_Dev_Set(StorageDevObj_TypeDef *ext_dev)
  49:System/storage/Storage_Dev_Port.c **** {
  29              		.loc 1 49 1 view -0
  30              		.cfi_startproc
  31              		@ args = 0, pretend = 0, frame = 0
  32              		@ frame_needed = 0, uses_anonymous_args = 0
  50:System/storage/Storage_Dev_Port.c ****     if ((ext_dev == NULL) || \
  33              		.loc 1 50 5 view .LVU1
  34              		.loc 1 50 8 is_stmt 0 view .LVU2
  35 0000 0028     		cmp	r0, #0
  36 0002 49D0     		beq	.L4
  49:System/storage/Storage_Dev_Port.c ****     if ((ext_dev == NULL) || \
  37              		.loc 1 49 1 discriminator 1 view .LVU3
  38 0004 10B5     		push	{r4, lr}
  39              	.LCFI0:
  40              		.cfi_def_cfa_offset 8
  41              		.cfi_offset 4, -8
  42              		.cfi_offset 14, -4
  43 0006 0446     		mov	r4, r0
  51:System/storage/Storage_Dev_Port.c ****         (ext_dev->api == NULL))
  44              		.loc 1 51 17 discriminator 1 view .LVU4
  45 0008 036B     		ldr	r3, [r0, #48]
  50:System/storage/Storage_Dev_Port.c ****     if ((ext_dev == NULL) || \
  46              		.loc 1 50 27 discriminator 1 view .LVU5
  47 000a 002B     		cmp	r3, #0
  48 000c 46D0     		beq	.L5
  52:System/storage/Storage_Dev_Port.c ****         return false;
  53:System/storage/Storage_Dev_Port.c **** 
  54:System/storage/Storage_Dev_Port.c ****     ext_dev->start_addr  = 0;
  49              		.loc 1 54 5 is_stmt 1 view .LVU6
  50              		.loc 1 54 26 is_stmt 0 view .LVU7
  51 000e 0023     		movs	r3, #0
  52 0010 4360     		str	r3, [r0, #4]
  55:System/storage/Storage_Dev_Port.c ****     ext_dev->sector_num  = 0;
  53              		.loc 1 55 5 is_stmt 1 view .LVU8
  54              		.loc 1 55 26 is_stmt 0 view .LVU9
  55 0012 4362     		str	r3, [r0, #36]
  56:System/storage/Storage_Dev_Port.c ****     ext_dev->sector_size = 0;
  56              		.loc 1 56 5 is_stmt 1 view .LVU10
  57              		.loc 1 56 26 is_stmt 0 view .LVU11
ARM GAS  C:\Users\8bit\AppData\Local\Temp\ccMxBSAI.s 			page 3


  58 0014 8362     		str	r3, [r0, #40]
  57:System/storage/Storage_Dev_Port.c ****     ext_dev->total_size  = 0;
  59              		.loc 1 57 5 is_stmt 1 view .LVU12
  60              		.loc 1 57 26 is_stmt 0 view .LVU13
  61 0016 8360     		str	r3, [r0, #8]
  58:System/storage/Storage_Dev_Port.c ****     ext_dev->page_num    = 0;
  62              		.loc 1 58 5 is_stmt 1 view .LVU14
  63              		.loc 1 58 26 is_stmt 0 view .LVU15
  64 0018 C360     		str	r3, [r0, #12]
  59:System/storage/Storage_Dev_Port.c ****     ext_dev->page_size   = 0;
  65              		.loc 1 59 5 is_stmt 1 view .LVU16
  66              		.loc 1 59 26 is_stmt 0 view .LVU17
  67 001a 0361     		str	r3, [r0, #16]
  60:System/storage/Storage_Dev_Port.c **** 
  61:System/storage/Storage_Dev_Port.c ****     if (ext_dev->chip_type == Storage_ChipType_W25Qxx)
  68              		.loc 1 61 5 is_stmt 1 view .LVU18
  69              		.loc 1 61 16 is_stmt 0 view .LVU19
  70 001c 0378     		ldrb	r3, [r0]	@ zero_extendqisi2
  71              		.loc 1 61 8 view .LVU20
  72 001e 012B     		cmp	r3, #1
  73 0020 03D0     		beq	.L13
  62:System/storage/Storage_Dev_Port.c ****     {
  63:System/storage/Storage_Dev_Port.c ****         ext_dev->obj = Storage_Dev_Malloc(sizeof(DevW25QxxObj_TypeDef));
  64:System/storage/Storage_Dev_Port.c ****         if (ext_dev->obj == NULL)
  65:System/storage/Storage_Dev_Port.c ****             return false;
  66:System/storage/Storage_Dev_Port.c **** 
  67:System/storage/Storage_Dev_Port.c ****         To_DevW25Qxx_OBJ(ext_dev->obj)->systick   = Storage_Dev_GetSstsTick;
  68:System/storage/Storage_Dev_Port.c ****         To_DevW25Qxx_OBJ(ext_dev->obj)->cs_ctl    = StoragePort_Api.cs_ctl;
  69:System/storage/Storage_Dev_Port.c ****         To_DevW25Qxx_OBJ(ext_dev->obj)->bus_tx    = StoragePort_Api.bus_tx;
  70:System/storage/Storage_Dev_Port.c ****         To_DevW25Qxx_OBJ(ext_dev->obj)->bus_rx    = StoragePort_Api.bus_rx;
  71:System/storage/Storage_Dev_Port.c ****         To_DevW25Qxx_OBJ(ext_dev->obj)->bus_trans = StoragePort_Api.bus_trans;
  72:System/storage/Storage_Dev_Port.c ****         To_DevW25Qxx_OBJ(ext_dev->obj)->delay_ms  = SrvOsCommon.delay_ms;
  73:System/storage/Storage_Dev_Port.c **** 
  74:System/storage/Storage_Dev_Port.c ****         return true;
  75:System/storage/Storage_Dev_Port.c ****     }
  76:System/storage/Storage_Dev_Port.c ****     else if (ext_dev->chip_type == Storage_ChipType_W25Nxx)
  74              		.loc 1 76 10 is_stmt 1 view .LVU21
  75              		.loc 1 76 13 is_stmt 0 view .LVU22
  76 0022 022B     		cmp	r3, #2
  77 0024 1DD0     		beq	.L14
  77:System/storage/Storage_Dev_Port.c ****     {
  78:System/storage/Storage_Dev_Port.c ****         ext_dev->obj = Storage_Dev_Malloc(sizeof(DevW25NxxObj_TypeDef));
  79:System/storage/Storage_Dev_Port.c ****         if (ext_dev->obj == NULL)
  80:System/storage/Storage_Dev_Port.c ****             return false;
  81:System/storage/Storage_Dev_Port.c ****         
  82:System/storage/Storage_Dev_Port.c ****         To_DevW25Nxx_OBJ(ext_dev->obj)->systick   = Storage_Dev_GetSstsTick;
  83:System/storage/Storage_Dev_Port.c ****         To_DevW25Nxx_OBJ(ext_dev->obj)->cs_ctl    = StoragePort_Api.cs_ctl;
  84:System/storage/Storage_Dev_Port.c ****         To_DevW25Nxx_OBJ(ext_dev->obj)->bus_tx    = StoragePort_Api.bus_tx;
  85:System/storage/Storage_Dev_Port.c ****         To_DevW25Nxx_OBJ(ext_dev->obj)->bus_rx    = StoragePort_Api.bus_rx;
  86:System/storage/Storage_Dev_Port.c ****         To_DevW25Nxx_OBJ(ext_dev->obj)->bus_trans = StoragePort_Api.bus_trans;
  87:System/storage/Storage_Dev_Port.c ****         To_DevW25Nxx_OBJ(ext_dev->obj)->delay_ms  = SrvOsCommon.delay_ms;
  88:System/storage/Storage_Dev_Port.c **** 
  89:System/storage/Storage_Dev_Port.c ****         return true;
  90:System/storage/Storage_Dev_Port.c ****     }
  91:System/storage/Storage_Dev_Port.c ****     
  92:System/storage/Storage_Dev_Port.c ****     return false;
  78              		.loc 1 92 12 view .LVU23
ARM GAS  C:\Users\8bit\AppData\Local\Temp\ccMxBSAI.s 			page 4


  79 0026 0020     		movs	r0, #0
  80              	.LVL1:
  81              	.L2:
  93:System/storage/Storage_Dev_Port.c **** }
  82              		.loc 1 93 1 view .LVU24
  83 0028 10BD     		pop	{r4, pc}
  84              	.LVL2:
  85              	.L13:
  63:System/storage/Storage_Dev_Port.c ****         if (ext_dev->obj == NULL)
  86              		.loc 1 63 9 is_stmt 1 view .LVU25
  63:System/storage/Storage_Dev_Port.c ****         if (ext_dev->obj == NULL)
  87              		.loc 1 63 24 is_stmt 0 view .LVU26
  88 002a 1F4B     		ldr	r3, .L15
  89 002c DB6A     		ldr	r3, [r3, #44]
  90 002e 2020     		movs	r0, #32
  91              	.LVL3:
  63:System/storage/Storage_Dev_Port.c ****         if (ext_dev->obj == NULL)
  92              		.loc 1 63 24 view .LVU27
  93 0030 9847     		blx	r3
  94              	.LVL4:
  63:System/storage/Storage_Dev_Port.c ****         if (ext_dev->obj == NULL)
  95              		.loc 1 63 22 view .LVU28
  96 0032 E062     		str	r0, [r4, #44]
  64:System/storage/Storage_Dev_Port.c ****             return false;
  97              		.loc 1 64 9 is_stmt 1 view .LVU29
  64:System/storage/Storage_Dev_Port.c ****             return false;
  98              		.loc 1 64 12 is_stmt 0 view .LVU30
  99 0034 0028     		cmp	r0, #0
 100 0036 33D0     		beq	.L6
  67:System/storage/Storage_Dev_Port.c ****         To_DevW25Qxx_OBJ(ext_dev->obj)->cs_ctl    = StoragePort_Api.cs_ctl;
 101              		.loc 1 67 9 is_stmt 1 view .LVU31
  67:System/storage/Storage_Dev_Port.c ****         To_DevW25Qxx_OBJ(ext_dev->obj)->cs_ctl    = StoragePort_Api.cs_ctl;
 102              		.loc 1 67 53 is_stmt 0 view .LVU32
 103 0038 1B4A     		ldr	r2, .L15
 104 003a 5368     		ldr	r3, [r2, #4]
  67:System/storage/Storage_Dev_Port.c ****         To_DevW25Qxx_OBJ(ext_dev->obj)->cs_ctl    = StoragePort_Api.cs_ctl;
 105              		.loc 1 67 51 view .LVU33
 106 003c 8361     		str	r3, [r0, #24]
  68:System/storage/Storage_Dev_Port.c ****         To_DevW25Qxx_OBJ(ext_dev->obj)->bus_tx    = StoragePort_Api.bus_tx;
 107              		.loc 1 68 9 is_stmt 1 view .LVU34
 108 003e E16A     		ldr	r1, [r4, #44]
  68:System/storage/Storage_Dev_Port.c ****         To_DevW25Qxx_OBJ(ext_dev->obj)->bus_tx    = StoragePort_Api.bus_tx;
 109              		.loc 1 68 68 is_stmt 0 view .LVU35
 110 0040 1A4B     		ldr	r3, .L15+4
 111 0042 5868     		ldr	r0, [r3, #4]
  68:System/storage/Storage_Dev_Port.c ****         To_DevW25Qxx_OBJ(ext_dev->obj)->bus_tx    = StoragePort_Api.bus_tx;
 112              		.loc 1 68 51 view .LVU36
 113 0044 0861     		str	r0, [r1, #16]
  69:System/storage/Storage_Dev_Port.c ****         To_DevW25Qxx_OBJ(ext_dev->obj)->bus_rx    = StoragePort_Api.bus_rx;
 114              		.loc 1 69 9 is_stmt 1 view .LVU37
 115 0046 E16A     		ldr	r1, [r4, #44]
  69:System/storage/Storage_Dev_Port.c ****         To_DevW25Qxx_OBJ(ext_dev->obj)->bus_rx    = StoragePort_Api.bus_rx;
 116              		.loc 1 69 68 is_stmt 0 view .LVU38
 117 0048 9868     		ldr	r0, [r3, #8]
  69:System/storage/Storage_Dev_Port.c ****         To_DevW25Qxx_OBJ(ext_dev->obj)->bus_rx    = StoragePort_Api.bus_rx;
 118              		.loc 1 69 51 view .LVU39
 119 004a 4860     		str	r0, [r1, #4]
ARM GAS  C:\Users\8bit\AppData\Local\Temp\ccMxBSAI.s 			page 5


  70:System/storage/Storage_Dev_Port.c ****         To_DevW25Qxx_OBJ(ext_dev->obj)->bus_trans = StoragePort_Api.bus_trans;
 120              		.loc 1 70 9 is_stmt 1 view .LVU40
 121 004c E16A     		ldr	r1, [r4, #44]
  70:System/storage/Storage_Dev_Port.c ****         To_DevW25Qxx_OBJ(ext_dev->obj)->bus_trans = StoragePort_Api.bus_trans;
 122              		.loc 1 70 68 is_stmt 0 view .LVU41
 123 004e D868     		ldr	r0, [r3, #12]
  70:System/storage/Storage_Dev_Port.c ****         To_DevW25Qxx_OBJ(ext_dev->obj)->bus_trans = StoragePort_Api.bus_trans;
 124              		.loc 1 70 51 view .LVU42
 125 0050 8860     		str	r0, [r1, #8]
  71:System/storage/Storage_Dev_Port.c ****         To_DevW25Qxx_OBJ(ext_dev->obj)->delay_ms  = SrvOsCommon.delay_ms;
 126              		.loc 1 71 9 is_stmt 1 view .LVU43
 127 0052 E16A     		ldr	r1, [r4, #44]
  71:System/storage/Storage_Dev_Port.c ****         To_DevW25Qxx_OBJ(ext_dev->obj)->delay_ms  = SrvOsCommon.delay_ms;
 128              		.loc 1 71 68 is_stmt 0 view .LVU44
 129 0054 1B69     		ldr	r3, [r3, #16]
  71:System/storage/Storage_Dev_Port.c ****         To_DevW25Qxx_OBJ(ext_dev->obj)->delay_ms  = SrvOsCommon.delay_ms;
 130              		.loc 1 71 51 view .LVU45
 131 0056 CB60     		str	r3, [r1, #12]
  72:System/storage/Storage_Dev_Port.c **** 
 132              		.loc 1 72 9 is_stmt 1 view .LVU46
 133 0058 E36A     		ldr	r3, [r4, #44]
  72:System/storage/Storage_Dev_Port.c **** 
 134              		.loc 1 72 64 is_stmt 0 view .LVU47
 135 005a 9268     		ldr	r2, [r2, #8]
  72:System/storage/Storage_Dev_Port.c **** 
 136              		.loc 1 72 51 view .LVU48
 137 005c 5A61     		str	r2, [r3, #20]
  74:System/storage/Storage_Dev_Port.c ****     }
 138              		.loc 1 74 9 is_stmt 1 view .LVU49
  74:System/storage/Storage_Dev_Port.c ****     }
 139              		.loc 1 74 16 is_stmt 0 view .LVU50
 140 005e 0120     		movs	r0, #1
 141 0060 E2E7     		b	.L2
 142              	.LVL5:
 143              	.L14:
  78:System/storage/Storage_Dev_Port.c ****         if (ext_dev->obj == NULL)
 144              		.loc 1 78 9 is_stmt 1 view .LVU51
  78:System/storage/Storage_Dev_Port.c ****         if (ext_dev->obj == NULL)
 145              		.loc 1 78 24 is_stmt 0 view .LVU52
 146 0062 114B     		ldr	r3, .L15
 147 0064 DB6A     		ldr	r3, [r3, #44]
 148 0066 2820     		movs	r0, #40
 149              	.LVL6:
  78:System/storage/Storage_Dev_Port.c ****         if (ext_dev->obj == NULL)
 150              		.loc 1 78 24 view .LVU53
 151 0068 9847     		blx	r3
 152              	.LVL7:
  78:System/storage/Storage_Dev_Port.c ****         if (ext_dev->obj == NULL)
 153              		.loc 1 78 22 view .LVU54
 154 006a E062     		str	r0, [r4, #44]
  79:System/storage/Storage_Dev_Port.c ****             return false;
 155              		.loc 1 79 9 is_stmt 1 view .LVU55
  79:System/storage/Storage_Dev_Port.c ****             return false;
 156              		.loc 1 79 12 is_stmt 0 view .LVU56
 157 006c D0B1     		cbz	r0, .L8
  82:System/storage/Storage_Dev_Port.c ****         To_DevW25Nxx_OBJ(ext_dev->obj)->cs_ctl    = StoragePort_Api.cs_ctl;
 158              		.loc 1 82 9 is_stmt 1 view .LVU57
ARM GAS  C:\Users\8bit\AppData\Local\Temp\ccMxBSAI.s 			page 6


  82:System/storage/Storage_Dev_Port.c ****         To_DevW25Nxx_OBJ(ext_dev->obj)->cs_ctl    = StoragePort_Api.cs_ctl;
 159              		.loc 1 82 53 is_stmt 0 view .LVU58
 160 006e 0E4A     		ldr	r2, .L15
 161 0070 5368     		ldr	r3, [r2, #4]
  82:System/storage/Storage_Dev_Port.c ****         To_DevW25Nxx_OBJ(ext_dev->obj)->cs_ctl    = StoragePort_Api.cs_ctl;
 162              		.loc 1 82 51 view .LVU59
 163 0072 0362     		str	r3, [r0, #32]
  83:System/storage/Storage_Dev_Port.c ****         To_DevW25Nxx_OBJ(ext_dev->obj)->bus_tx    = StoragePort_Api.bus_tx;
 164              		.loc 1 83 9 is_stmt 1 view .LVU60
 165 0074 E16A     		ldr	r1, [r4, #44]
  83:System/storage/Storage_Dev_Port.c ****         To_DevW25Nxx_OBJ(ext_dev->obj)->bus_tx    = StoragePort_Api.bus_tx;
 166              		.loc 1 83 68 is_stmt 0 view .LVU61
 167 0076 0D4B     		ldr	r3, .L15+4
 168 0078 5868     		ldr	r0, [r3, #4]
  83:System/storage/Storage_Dev_Port.c ****         To_DevW25Nxx_OBJ(ext_dev->obj)->bus_tx    = StoragePort_Api.bus_tx;
 169              		.loc 1 83 51 view .LVU62
 170 007a 8861     		str	r0, [r1, #24]
  84:System/storage/Storage_Dev_Port.c ****         To_DevW25Nxx_OBJ(ext_dev->obj)->bus_rx    = StoragePort_Api.bus_rx;
 171              		.loc 1 84 9 is_stmt 1 view .LVU63
 172 007c E16A     		ldr	r1, [r4, #44]
  84:System/storage/Storage_Dev_Port.c ****         To_DevW25Nxx_OBJ(ext_dev->obj)->bus_rx    = StoragePort_Api.bus_rx;
 173              		.loc 1 84 68 is_stmt 0 view .LVU64
 174 007e 9868     		ldr	r0, [r3, #8]
  84:System/storage/Storage_Dev_Port.c ****         To_DevW25Nxx_OBJ(ext_dev->obj)->bus_rx    = StoragePort_Api.bus_rx;
 175              		.loc 1 84 51 view .LVU65
 176 0080 C860     		str	r0, [r1, #12]
  85:System/storage/Storage_Dev_Port.c ****         To_DevW25Nxx_OBJ(ext_dev->obj)->bus_trans = StoragePort_Api.bus_trans;
 177              		.loc 1 85 9 is_stmt 1 view .LVU66
 178 0082 E16A     		ldr	r1, [r4, #44]
  85:System/storage/Storage_Dev_Port.c ****         To_DevW25Nxx_OBJ(ext_dev->obj)->bus_trans = StoragePort_Api.bus_trans;
 179              		.loc 1 85 68 is_stmt 0 view .LVU67
 180 0084 D868     		ldr	r0, [r3, #12]
  85:System/storage/Storage_Dev_Port.c ****         To_DevW25Nxx_OBJ(ext_dev->obj)->bus_trans = StoragePort_Api.bus_trans;
 181              		.loc 1 85 51 view .LVU68
 182 0086 0861     		str	r0, [r1, #16]
  86:System/storage/Storage_Dev_Port.c ****         To_DevW25Nxx_OBJ(ext_dev->obj)->delay_ms  = SrvOsCommon.delay_ms;
 183              		.loc 1 86 9 is_stmt 1 view .LVU69
 184 0088 E16A     		ldr	r1, [r4, #44]
  86:System/storage/Storage_Dev_Port.c ****         To_DevW25Nxx_OBJ(ext_dev->obj)->delay_ms  = SrvOsCommon.delay_ms;
 185              		.loc 1 86 68 is_stmt 0 view .LVU70
 186 008a 1B69     		ldr	r3, [r3, #16]
  86:System/storage/Storage_Dev_Port.c ****         To_DevW25Nxx_OBJ(ext_dev->obj)->delay_ms  = SrvOsCommon.delay_ms;
 187              		.loc 1 86 51 view .LVU71
 188 008c 4B61     		str	r3, [r1, #20]
  87:System/storage/Storage_Dev_Port.c **** 
 189              		.loc 1 87 9 is_stmt 1 view .LVU72
 190 008e E36A     		ldr	r3, [r4, #44]
  87:System/storage/Storage_Dev_Port.c **** 
 191              		.loc 1 87 64 is_stmt 0 view .LVU73
 192 0090 9268     		ldr	r2, [r2, #8]
  87:System/storage/Storage_Dev_Port.c **** 
 193              		.loc 1 87 51 view .LVU74
 194 0092 DA61     		str	r2, [r3, #28]
  89:System/storage/Storage_Dev_Port.c ****     }
 195              		.loc 1 89 9 is_stmt 1 view .LVU75
  89:System/storage/Storage_Dev_Port.c ****     }
 196              		.loc 1 89 16 is_stmt 0 view .LVU76
ARM GAS  C:\Users\8bit\AppData\Local\Temp\ccMxBSAI.s 			page 7


 197 0094 0120     		movs	r0, #1
 198 0096 C7E7     		b	.L2
 199              	.LVL8:
 200              	.L4:
 201              	.LCFI1:
 202              		.cfi_def_cfa_offset 0
 203              		.cfi_restore 4
 204              		.cfi_restore 14
  52:System/storage/Storage_Dev_Port.c **** 
 205              		.loc 1 52 16 view .LVU77
 206 0098 0020     		movs	r0, #0
 207              	.LVL9:
 208              		.loc 1 93 1 view .LVU78
 209 009a 7047     		bx	lr
 210              	.LVL10:
 211              	.L5:
 212              	.LCFI2:
 213              		.cfi_def_cfa_offset 8
 214              		.cfi_offset 4, -8
 215              		.cfi_offset 14, -4
  52:System/storage/Storage_Dev_Port.c **** 
 216              		.loc 1 52 16 view .LVU79
 217 009c 0020     		movs	r0, #0
 218              	.LVL11:
  52:System/storage/Storage_Dev_Port.c **** 
 219              		.loc 1 52 16 view .LVU80
 220 009e C3E7     		b	.L2
 221              	.L6:
  65:System/storage/Storage_Dev_Port.c **** 
 222              		.loc 1 65 20 view .LVU81
 223 00a0 0020     		movs	r0, #0
 224 00a2 C1E7     		b	.L2
 225              	.L8:
  80:System/storage/Storage_Dev_Port.c ****         
 226              		.loc 1 80 20 view .LVU82
 227 00a4 0020     		movs	r0, #0
 228 00a6 BFE7     		b	.L2
 229              	.L16:
 230              		.align	2
 231              	.L15:
 232 00a8 00000000 		.word	SrvOsCommon
 233 00ac 00000000 		.word	StoragePort_Api
 234              		.cfi_endproc
 235              	.LFE5:
 237              		.section	.text.Storage_Dev_Init,"ax",%progbits
 238              		.align	1
 239              		.syntax unified
 240              		.thumb
 241              		.thumb_func
 243              	Storage_Dev_Init:
 244              	.LVL12:
 245              	.LFB6:
  94:System/storage/Storage_Dev_Port.c **** 
  95:System/storage/Storage_Dev_Port.c **** static bool Storage_Dev_Init(StorageDevObj_TypeDef *ext_dev, uint16_t *p_type, uint16_t *p_code)
  96:System/storage/Storage_Dev_Port.c **** {
 246              		.loc 1 96 1 is_stmt 1 view -0
 247              		.cfi_startproc
ARM GAS  C:\Users\8bit\AppData\Local\Temp\ccMxBSAI.s 			page 8


 248              		@ args = 0, pretend = 0, frame = 336
 249              		@ frame_needed = 0, uses_anonymous_args = 0
  97:System/storage/Storage_Dev_Port.c ****     uint8_t init_state = 0;
 250              		.loc 1 97 5 view .LVU84
  98:System/storage/Storage_Dev_Port.c **** 
  99:System/storage/Storage_Dev_Port.c ****     if (ext_dev == NULL)
 251              		.loc 1 99 5 view .LVU85
 252              		.loc 1 99 8 is_stmt 0 view .LVU86
 253 0000 0028     		cmp	r0, #0
 254 0002 00F08980 		beq	.L20
  96:System/storage/Storage_Dev_Port.c ****     uint8_t init_state = 0;
 255              		.loc 1 96 1 view .LVU87
 256 0006 F0B5     		push	{r4, r5, r6, r7, lr}
 257              	.LCFI3:
 258              		.cfi_def_cfa_offset 20
 259              		.cfi_offset 4, -20
 260              		.cfi_offset 5, -16
 261              		.cfi_offset 6, -12
 262              		.cfi_offset 7, -8
 263              		.cfi_offset 14, -4
 264 0008 D5B0     		sub	sp, sp, #340
 265              	.LCFI4:
 266              		.cfi_def_cfa_offset 360
 267 000a 0F46     		mov	r7, r1
 268 000c 1646     		mov	r6, r2
 269 000e 0446     		mov	r4, r0
 100:System/storage/Storage_Dev_Port.c ****         return false;
 101:System/storage/Storage_Dev_Port.c **** 
 102:System/storage/Storage_Dev_Port.c ****     if (ext_dev->chip_type == Storage_ChipType_W25Qxx)
 270              		.loc 1 102 5 is_stmt 1 view .LVU88
 271              		.loc 1 102 16 is_stmt 0 view .LVU89
 272 0010 0378     		ldrb	r3, [r0]	@ zero_extendqisi2
 273              		.loc 1 102 8 view .LVU90
 274 0012 012B     		cmp	r3, #1
 275 0014 04D0     		beq	.L30
 103:System/storage/Storage_Dev_Port.c ****     {
 104:System/storage/Storage_Dev_Port.c ****         if ((To_DevW25Qxx_API(ext_dev->api)->init == NULL) || \
 105:System/storage/Storage_Dev_Port.c ****             (To_DevW25Qxx_API(ext_dev->api)->info == NULL))
 106:System/storage/Storage_Dev_Port.c ****             return false;
 107:System/storage/Storage_Dev_Port.c **** 
 108:System/storage/Storage_Dev_Port.c ****         init_state = To_DevW25Qxx_API(ext_dev->api)->init(To_DevW25Qxx_OBJ(ext_dev->obj));
 109:System/storage/Storage_Dev_Port.c ****         *p_type = To_DevW25Qxx_API(ext_dev->api)->info(To_DevW25Qxx_OBJ(ext_dev->obj)).prod_type;
 110:System/storage/Storage_Dev_Port.c ****         *p_code = To_DevW25Qxx_API(ext_dev->api)->info(To_DevW25Qxx_OBJ(ext_dev->obj)).prod_code;
 111:System/storage/Storage_Dev_Port.c ****     
 112:System/storage/Storage_Dev_Port.c ****         ext_dev->start_addr  = W25QXX_BASE_ADDRESS;
 113:System/storage/Storage_Dev_Port.c ****         ext_dev->sector_num  = To_DevW25Qxx_API(ext_dev->api)->info(To_DevW25Qxx_OBJ(ext_dev->obj))
 114:System/storage/Storage_Dev_Port.c ****         ext_dev->sector_size = To_DevW25Qxx_API(ext_dev->api)->info(To_DevW25Qxx_OBJ(ext_dev->obj))
 115:System/storage/Storage_Dev_Port.c ****         ext_dev->total_size  = To_DevW25Qxx_API(ext_dev->api)->info(To_DevW25Qxx_OBJ(ext_dev->obj))
 116:System/storage/Storage_Dev_Port.c ****         ext_dev->page_num    = To_DevW25Qxx_API(ext_dev->api)->info(To_DevW25Qxx_OBJ(ext_dev->obj))
 117:System/storage/Storage_Dev_Port.c ****         ext_dev->page_size   = To_DevW25Qxx_API(ext_dev->api)->info(To_DevW25Qxx_OBJ(ext_dev->obj))
 118:System/storage/Storage_Dev_Port.c **** 
 119:System/storage/Storage_Dev_Port.c ****         return ((DevW25Qxx_Error_List)init_state == DevW25Qxx_Ok) ? true : false;
 120:System/storage/Storage_Dev_Port.c ****     }
 121:System/storage/Storage_Dev_Port.c ****     else if (ext_dev->chip_type == Storage_ChipType_W25Nxx)
 276              		.loc 1 121 10 is_stmt 1 view .LVU91
 277              		.loc 1 121 13 is_stmt 0 view .LVU92
 278 0016 022B     		cmp	r3, #2
ARM GAS  C:\Users\8bit\AppData\Local\Temp\ccMxBSAI.s 			page 9


 279 0018 48D0     		beq	.L31
 122:System/storage/Storage_Dev_Port.c ****     {
 123:System/storage/Storage_Dev_Port.c ****         if ((To_DevW25Nxx_API(ext_dev->api)->init == NULL) || \
 124:System/storage/Storage_Dev_Port.c ****             (To_DevW25Nxx_API(ext_dev->api)->info == NULL))
 125:System/storage/Storage_Dev_Port.c ****             return false;
 126:System/storage/Storage_Dev_Port.c **** 
 127:System/storage/Storage_Dev_Port.c ****         init_state = To_DevW25Nxx_API(ext_dev->api)->init(To_DevW25Nxx_OBJ(ext_dev->obj));
 128:System/storage/Storage_Dev_Port.c ****         *p_type = To_DevW25Nxx_API(ext_dev->api)->info(To_DevW25Nxx_OBJ(ext_dev->obj)).prod_type;
 129:System/storage/Storage_Dev_Port.c ****         *p_code = To_DevW25Nxx_API(ext_dev->api)->info(To_DevW25Nxx_OBJ(ext_dev->obj)).prod_code;
 130:System/storage/Storage_Dev_Port.c **** 
 131:System/storage/Storage_Dev_Port.c ****         ext_dev->start_addr  = W25NXX_BASE_ADDRESS;
 132:System/storage/Storage_Dev_Port.c ****         ext_dev->total_size  = To_DevW25Nxx_API(ext_dev->api)->info(To_DevW25Nxx_OBJ(ext_dev->obj))
 133:System/storage/Storage_Dev_Port.c ****         ext_dev->page_num    = To_DevW25Nxx_API(ext_dev->api)->info(To_DevW25Nxx_OBJ(ext_dev->obj))
 134:System/storage/Storage_Dev_Port.c ****         ext_dev->page_size   = To_DevW25Nxx_API(ext_dev->api)->info(To_DevW25Nxx_OBJ(ext_dev->obj))
 135:System/storage/Storage_Dev_Port.c **** 
 136:System/storage/Storage_Dev_Port.c ****         return ((DevW25Nxx_Error_List)init_state == DevW25Nxx_Ok) ? true : false;
 137:System/storage/Storage_Dev_Port.c ****     }
 138:System/storage/Storage_Dev_Port.c **** 
 139:System/storage/Storage_Dev_Port.c ****     return false;
 280              		.loc 1 139 12 view .LVU93
 281 001a 0020     		movs	r0, #0
 282              	.LVL13:
 283              	.L18:
 140:System/storage/Storage_Dev_Port.c **** }
 284              		.loc 1 140 1 view .LVU94
 285 001c 55B0     		add	sp, sp, #340
 286              	.LCFI5:
 287              		.cfi_remember_state
 288              		.cfi_def_cfa_offset 20
 289              		@ sp needed
 290 001e F0BD     		pop	{r4, r5, r6, r7, pc}
 291              	.LVL14:
 292              	.L30:
 293              	.LCFI6:
 294              		.cfi_restore_state
 104:System/storage/Storage_Dev_Port.c ****             (To_DevW25Qxx_API(ext_dev->api)->info == NULL))
 295              		.loc 1 104 9 is_stmt 1 view .LVU95
 104:System/storage/Storage_Dev_Port.c ****             (To_DevW25Qxx_API(ext_dev->api)->info == NULL))
 296              		.loc 1 104 14 is_stmt 0 view .LVU96
 297 0020 036B     		ldr	r3, [r0, #48]
 104:System/storage/Storage_Dev_Port.c ****             (To_DevW25Qxx_API(ext_dev->api)->info == NULL))
 298              		.loc 1 104 44 view .LVU97
 299 0022 1A68     		ldr	r2, [r3]
 300              	.LVL15:
 104:System/storage/Storage_Dev_Port.c ****             (To_DevW25Qxx_API(ext_dev->api)->info == NULL))
 301              		.loc 1 104 12 view .LVU98
 302 0024 002A     		cmp	r2, #0
 303 0026 79D0     		beq	.L21
 105:System/storage/Storage_Dev_Port.c ****             return false;
 304              		.loc 1 105 44 discriminator 1 view .LVU99
 305 0028 5B69     		ldr	r3, [r3, #20]
 104:System/storage/Storage_Dev_Port.c ****             (To_DevW25Qxx_API(ext_dev->api)->info == NULL))
 306              		.loc 1 104 60 discriminator 1 view .LVU100
 307 002a 002B     		cmp	r3, #0
 308 002c 78D0     		beq	.L22
 108:System/storage/Storage_Dev_Port.c ****         *p_type = To_DevW25Qxx_API(ext_dev->api)->info(To_DevW25Qxx_OBJ(ext_dev->obj)).prod_type;
 309              		.loc 1 108 9 is_stmt 1 view .LVU101
ARM GAS  C:\Users\8bit\AppData\Local\Temp\ccMxBSAI.s 			page 10


 108:System/storage/Storage_Dev_Port.c ****         *p_type = To_DevW25Qxx_API(ext_dev->api)->info(To_DevW25Qxx_OBJ(ext_dev->obj)).prod_type;
 310              		.loc 1 108 22 is_stmt 0 view .LVU102
 311 002e C06A     		ldr	r0, [r0, #44]
 312              	.LVL16:
 108:System/storage/Storage_Dev_Port.c ****         *p_type = To_DevW25Qxx_API(ext_dev->api)->info(To_DevW25Qxx_OBJ(ext_dev->obj)).prod_type;
 313              		.loc 1 108 22 view .LVU103
 314 0030 9047     		blx	r2
 315              	.LVL17:
 108:System/storage/Storage_Dev_Port.c ****         *p_type = To_DevW25Qxx_API(ext_dev->api)->info(To_DevW25Qxx_OBJ(ext_dev->obj)).prod_type;
 316              		.loc 1 108 22 view .LVU104
 317 0032 0546     		mov	r5, r0
 318              	.LVL18:
 109:System/storage/Storage_Dev_Port.c ****         *p_code = To_DevW25Qxx_API(ext_dev->api)->info(To_DevW25Qxx_OBJ(ext_dev->obj)).prod_code;
 319              		.loc 1 109 9 is_stmt 1 view .LVU105
 109:System/storage/Storage_Dev_Port.c ****         *p_code = To_DevW25Qxx_API(ext_dev->api)->info(To_DevW25Qxx_OBJ(ext_dev->obj)).prod_code;
 320              		.loc 1 109 19 is_stmt 0 view .LVU106
 321 0034 236B     		ldr	r3, [r4, #48]
 109:System/storage/Storage_Dev_Port.c ****         *p_code = To_DevW25Qxx_API(ext_dev->api)->info(To_DevW25Qxx_OBJ(ext_dev->obj)).prod_code;
 322              		.loc 1 109 49 view .LVU107
 323 0036 5B69     		ldr	r3, [r3, #20]
 109:System/storage/Storage_Dev_Port.c ****         *p_code = To_DevW25Qxx_API(ext_dev->api)->info(To_DevW25Qxx_OBJ(ext_dev->obj)).prod_code;
 324              		.loc 1 109 19 view .LVU108
 325 0038 E16A     		ldr	r1, [r4, #44]
 326 003a 6846     		mov	r0, sp
 327 003c 9847     		blx	r3
 328              	.LVL19:
 109:System/storage/Storage_Dev_Port.c ****         *p_code = To_DevW25Qxx_API(ext_dev->api)->info(To_DevW25Qxx_OBJ(ext_dev->obj)).prod_code;
 329              		.loc 1 109 87 view .LVU109
 330 003e 9DF80030 		ldrb	r3, [sp]	@ zero_extendqisi2
 109:System/storage/Storage_Dev_Port.c ****         *p_code = To_DevW25Qxx_API(ext_dev->api)->info(To_DevW25Qxx_OBJ(ext_dev->obj)).prod_code;
 331              		.loc 1 109 17 view .LVU110
 332 0042 3B80     		strh	r3, [r7]	@ movhi
 110:System/storage/Storage_Dev_Port.c ****     
 333              		.loc 1 110 9 is_stmt 1 view .LVU111
 110:System/storage/Storage_Dev_Port.c ****     
 334              		.loc 1 110 19 is_stmt 0 view .LVU112
 335 0044 236B     		ldr	r3, [r4, #48]
 110:System/storage/Storage_Dev_Port.c ****     
 336              		.loc 1 110 49 view .LVU113
 337 0046 5B69     		ldr	r3, [r3, #20]
 110:System/storage/Storage_Dev_Port.c ****     
 338              		.loc 1 110 19 view .LVU114
 339 0048 E16A     		ldr	r1, [r4, #44]
 340 004a 07A8     		add	r0, sp, #28
 341 004c 9847     		blx	r3
 342              	.LVL20:
 110:System/storage/Storage_Dev_Port.c ****     
 343              		.loc 1 110 87 view .LVU115
 344 004e BDF81E30 		ldrh	r3, [sp, #30]
 110:System/storage/Storage_Dev_Port.c ****     
 345              		.loc 1 110 17 view .LVU116
 346 0052 3380     		strh	r3, [r6]	@ movhi
 112:System/storage/Storage_Dev_Port.c ****         ext_dev->sector_num  = To_DevW25Qxx_API(ext_dev->api)->info(To_DevW25Qxx_OBJ(ext_dev->obj))
 347              		.loc 1 112 9 is_stmt 1 view .LVU117
 112:System/storage/Storage_Dev_Port.c ****         ext_dev->sector_num  = To_DevW25Qxx_API(ext_dev->api)->info(To_DevW25Qxx_OBJ(ext_dev->obj))
 348              		.loc 1 112 30 is_stmt 0 view .LVU118
 349 0054 0023     		movs	r3, #0
ARM GAS  C:\Users\8bit\AppData\Local\Temp\ccMxBSAI.s 			page 11


 350 0056 6360     		str	r3, [r4, #4]
 113:System/storage/Storage_Dev_Port.c ****         ext_dev->sector_size = To_DevW25Qxx_API(ext_dev->api)->info(To_DevW25Qxx_OBJ(ext_dev->obj))
 351              		.loc 1 113 9 is_stmt 1 view .LVU119
 113:System/storage/Storage_Dev_Port.c ****         ext_dev->sector_size = To_DevW25Qxx_API(ext_dev->api)->info(To_DevW25Qxx_OBJ(ext_dev->obj))
 352              		.loc 1 113 32 is_stmt 0 view .LVU120
 353 0058 236B     		ldr	r3, [r4, #48]
 113:System/storage/Storage_Dev_Port.c ****         ext_dev->sector_size = To_DevW25Qxx_API(ext_dev->api)->info(To_DevW25Qxx_OBJ(ext_dev->obj))
 354              		.loc 1 113 62 view .LVU121
 355 005a 5B69     		ldr	r3, [r3, #20]
 113:System/storage/Storage_Dev_Port.c ****         ext_dev->sector_size = To_DevW25Qxx_API(ext_dev->api)->info(To_DevW25Qxx_OBJ(ext_dev->obj))
 356              		.loc 1 113 32 view .LVU122
 357 005c E16A     		ldr	r1, [r4, #44]
 358 005e 0EA8     		add	r0, sp, #56
 359 0060 9847     		blx	r3
 360              	.LVL21:
 113:System/storage/Storage_Dev_Port.c ****         ext_dev->sector_size = To_DevW25Qxx_API(ext_dev->api)->info(To_DevW25Qxx_OBJ(ext_dev->obj))
 361              		.loc 1 113 100 view .LVU123
 362 0062 BDF85030 		ldrh	r3, [sp, #80]
 113:System/storage/Storage_Dev_Port.c ****         ext_dev->sector_size = To_DevW25Qxx_API(ext_dev->api)->info(To_DevW25Qxx_OBJ(ext_dev->obj))
 363              		.loc 1 113 30 view .LVU124
 364 0066 6362     		str	r3, [r4, #36]
 114:System/storage/Storage_Dev_Port.c ****         ext_dev->total_size  = To_DevW25Qxx_API(ext_dev->api)->info(To_DevW25Qxx_OBJ(ext_dev->obj))
 365              		.loc 1 114 9 is_stmt 1 view .LVU125
 114:System/storage/Storage_Dev_Port.c ****         ext_dev->total_size  = To_DevW25Qxx_API(ext_dev->api)->info(To_DevW25Qxx_OBJ(ext_dev->obj))
 366              		.loc 1 114 32 is_stmt 0 view .LVU126
 367 0068 236B     		ldr	r3, [r4, #48]
 114:System/storage/Storage_Dev_Port.c ****         ext_dev->total_size  = To_DevW25Qxx_API(ext_dev->api)->info(To_DevW25Qxx_OBJ(ext_dev->obj))
 368              		.loc 1 114 62 view .LVU127
 369 006a 5B69     		ldr	r3, [r3, #20]
 114:System/storage/Storage_Dev_Port.c ****         ext_dev->total_size  = To_DevW25Qxx_API(ext_dev->api)->info(To_DevW25Qxx_OBJ(ext_dev->obj))
 370              		.loc 1 114 32 view .LVU128
 371 006c E16A     		ldr	r1, [r4, #44]
 372 006e 15A8     		add	r0, sp, #84
 373 0070 9847     		blx	r3
 374              	.LVL22:
 114:System/storage/Storage_Dev_Port.c ****         ext_dev->total_size  = To_DevW25Qxx_API(ext_dev->api)->info(To_DevW25Qxx_OBJ(ext_dev->obj))
 375              		.loc 1 114 100 view .LVU129
 376 0072 199B     		ldr	r3, [sp, #100]
 114:System/storage/Storage_Dev_Port.c ****         ext_dev->total_size  = To_DevW25Qxx_API(ext_dev->api)->info(To_DevW25Qxx_OBJ(ext_dev->obj))
 377              		.loc 1 114 30 view .LVU130
 378 0074 A362     		str	r3, [r4, #40]
 115:System/storage/Storage_Dev_Port.c ****         ext_dev->page_num    = To_DevW25Qxx_API(ext_dev->api)->info(To_DevW25Qxx_OBJ(ext_dev->obj))
 379              		.loc 1 115 9 is_stmt 1 view .LVU131
 115:System/storage/Storage_Dev_Port.c ****         ext_dev->page_num    = To_DevW25Qxx_API(ext_dev->api)->info(To_DevW25Qxx_OBJ(ext_dev->obj))
 380              		.loc 1 115 32 is_stmt 0 view .LVU132
 381 0076 236B     		ldr	r3, [r4, #48]
 115:System/storage/Storage_Dev_Port.c ****         ext_dev->page_num    = To_DevW25Qxx_API(ext_dev->api)->info(To_DevW25Qxx_OBJ(ext_dev->obj))
 382              		.loc 1 115 62 view .LVU133
 383 0078 5B69     		ldr	r3, [r3, #20]
 115:System/storage/Storage_Dev_Port.c ****         ext_dev->page_num    = To_DevW25Qxx_API(ext_dev->api)->info(To_DevW25Qxx_OBJ(ext_dev->obj))
 384              		.loc 1 115 32 view .LVU134
 385 007a E16A     		ldr	r1, [r4, #44]
 386 007c 1CA8     		add	r0, sp, #112
 387 007e 9847     		blx	r3
 388              	.LVL23:
 115:System/storage/Storage_Dev_Port.c ****         ext_dev->page_num    = To_DevW25Qxx_API(ext_dev->api)->info(To_DevW25Qxx_OBJ(ext_dev->obj))
 389              		.loc 1 115 100 view .LVU135
ARM GAS  C:\Users\8bit\AppData\Local\Temp\ccMxBSAI.s 			page 12


 390 0080 1E9B     		ldr	r3, [sp, #120]
 115:System/storage/Storage_Dev_Port.c ****         ext_dev->page_num    = To_DevW25Qxx_API(ext_dev->api)->info(To_DevW25Qxx_OBJ(ext_dev->obj))
 391              		.loc 1 115 30 view .LVU136
 392 0082 A360     		str	r3, [r4, #8]
 116:System/storage/Storage_Dev_Port.c ****         ext_dev->page_size   = To_DevW25Qxx_API(ext_dev->api)->info(To_DevW25Qxx_OBJ(ext_dev->obj))
 393              		.loc 1 116 9 is_stmt 1 view .LVU137
 116:System/storage/Storage_Dev_Port.c ****         ext_dev->page_size   = To_DevW25Qxx_API(ext_dev->api)->info(To_DevW25Qxx_OBJ(ext_dev->obj))
 394              		.loc 1 116 32 is_stmt 0 view .LVU138
 395 0084 236B     		ldr	r3, [r4, #48]
 116:System/storage/Storage_Dev_Port.c ****         ext_dev->page_size   = To_DevW25Qxx_API(ext_dev->api)->info(To_DevW25Qxx_OBJ(ext_dev->obj))
 396              		.loc 1 116 62 view .LVU139
 397 0086 5B69     		ldr	r3, [r3, #20]
 116:System/storage/Storage_Dev_Port.c ****         ext_dev->page_size   = To_DevW25Qxx_API(ext_dev->api)->info(To_DevW25Qxx_OBJ(ext_dev->obj))
 398              		.loc 1 116 32 view .LVU140
 399 0088 E16A     		ldr	r1, [r4, #44]
 400 008a 23A8     		add	r0, sp, #140
 401 008c 9847     		blx	r3
 402              	.LVL24:
 116:System/storage/Storage_Dev_Port.c ****         ext_dev->page_size   = To_DevW25Qxx_API(ext_dev->api)->info(To_DevW25Qxx_OBJ(ext_dev->obj))
 403              		.loc 1 116 100 view .LVU141
 404 008e BDF8A630 		ldrh	r3, [sp, #166]
 116:System/storage/Storage_Dev_Port.c ****         ext_dev->page_size   = To_DevW25Qxx_API(ext_dev->api)->info(To_DevW25Qxx_OBJ(ext_dev->obj))
 405              		.loc 1 116 30 view .LVU142
 406 0092 E360     		str	r3, [r4, #12]
 117:System/storage/Storage_Dev_Port.c **** 
 407              		.loc 1 117 9 is_stmt 1 view .LVU143
 117:System/storage/Storage_Dev_Port.c **** 
 408              		.loc 1 117 32 is_stmt 0 view .LVU144
 409 0094 236B     		ldr	r3, [r4, #48]
 117:System/storage/Storage_Dev_Port.c **** 
 410              		.loc 1 117 62 view .LVU145
 411 0096 5B69     		ldr	r3, [r3, #20]
 117:System/storage/Storage_Dev_Port.c **** 
 412              		.loc 1 117 32 view .LVU146
 413 0098 E16A     		ldr	r1, [r4, #44]
 414 009a 2AA8     		add	r0, sp, #168
 415 009c 9847     		blx	r3
 416              	.LVL25:
 117:System/storage/Storage_Dev_Port.c **** 
 417              		.loc 1 117 100 view .LVU147
 418 009e BDF8BC30 		ldrh	r3, [sp, #188]
 117:System/storage/Storage_Dev_Port.c **** 
 419              		.loc 1 117 30 view .LVU148
 420 00a2 2361     		str	r3, [r4, #16]
 119:System/storage/Storage_Dev_Port.c ****     }
 421              		.loc 1 119 9 is_stmt 1 view .LVU149
 119:System/storage/Storage_Dev_Port.c ****     }
 422              		.loc 1 119 74 is_stmt 0 view .LVU150
 423 00a4 B5FA85F0 		clz	r0, r5
 424 00a8 4009     		lsrs	r0, r0, #5
 425 00aa B7E7     		b	.L18
 426              	.LVL26:
 427              	.L31:
 123:System/storage/Storage_Dev_Port.c ****             (To_DevW25Nxx_API(ext_dev->api)->info == NULL))
 428              		.loc 1 123 9 is_stmt 1 view .LVU151
 123:System/storage/Storage_Dev_Port.c ****             (To_DevW25Nxx_API(ext_dev->api)->info == NULL))
 429              		.loc 1 123 14 is_stmt 0 view .LVU152
ARM GAS  C:\Users\8bit\AppData\Local\Temp\ccMxBSAI.s 			page 13


 430 00ac 036B     		ldr	r3, [r0, #48]
 123:System/storage/Storage_Dev_Port.c ****             (To_DevW25Nxx_API(ext_dev->api)->info == NULL))
 431              		.loc 1 123 44 view .LVU153
 432 00ae 1A68     		ldr	r2, [r3]
 433              	.LVL27:
 123:System/storage/Storage_Dev_Port.c ****             (To_DevW25Nxx_API(ext_dev->api)->info == NULL))
 434              		.loc 1 123 12 view .LVU154
 435 00b0 002A     		cmp	r2, #0
 436 00b2 37D0     		beq	.L24
 124:System/storage/Storage_Dev_Port.c ****             return false;
 437              		.loc 1 124 44 discriminator 1 view .LVU155
 438 00b4 5B69     		ldr	r3, [r3, #20]
 123:System/storage/Storage_Dev_Port.c ****             (To_DevW25Nxx_API(ext_dev->api)->info == NULL))
 439              		.loc 1 123 60 discriminator 1 view .LVU156
 440 00b6 002B     		cmp	r3, #0
 441 00b8 36D0     		beq	.L25
 127:System/storage/Storage_Dev_Port.c ****         *p_type = To_DevW25Nxx_API(ext_dev->api)->info(To_DevW25Nxx_OBJ(ext_dev->obj)).prod_type;
 442              		.loc 1 127 9 is_stmt 1 view .LVU157
 127:System/storage/Storage_Dev_Port.c ****         *p_type = To_DevW25Nxx_API(ext_dev->api)->info(To_DevW25Nxx_OBJ(ext_dev->obj)).prod_type;
 443              		.loc 1 127 22 is_stmt 0 view .LVU158
 444 00ba C06A     		ldr	r0, [r0, #44]
 445              	.LVL28:
 127:System/storage/Storage_Dev_Port.c ****         *p_type = To_DevW25Nxx_API(ext_dev->api)->info(To_DevW25Nxx_OBJ(ext_dev->obj)).prod_type;
 446              		.loc 1 127 22 view .LVU159
 447 00bc 9047     		blx	r2
 448              	.LVL29:
 127:System/storage/Storage_Dev_Port.c ****         *p_type = To_DevW25Nxx_API(ext_dev->api)->info(To_DevW25Nxx_OBJ(ext_dev->obj)).prod_type;
 449              		.loc 1 127 22 view .LVU160
 450 00be 0546     		mov	r5, r0
 451              	.LVL30:
 128:System/storage/Storage_Dev_Port.c ****         *p_code = To_DevW25Nxx_API(ext_dev->api)->info(To_DevW25Nxx_OBJ(ext_dev->obj)).prod_code;
 452              		.loc 1 128 9 is_stmt 1 view .LVU161
 128:System/storage/Storage_Dev_Port.c ****         *p_code = To_DevW25Nxx_API(ext_dev->api)->info(To_DevW25Nxx_OBJ(ext_dev->obj)).prod_code;
 453              		.loc 1 128 19 is_stmt 0 view .LVU162
 454 00c0 236B     		ldr	r3, [r4, #48]
 128:System/storage/Storage_Dev_Port.c ****         *p_code = To_DevW25Nxx_API(ext_dev->api)->info(To_DevW25Nxx_OBJ(ext_dev->obj)).prod_code;
 455              		.loc 1 128 49 view .LVU163
 456 00c2 5B69     		ldr	r3, [r3, #20]
 128:System/storage/Storage_Dev_Port.c ****         *p_code = To_DevW25Nxx_API(ext_dev->api)->info(To_DevW25Nxx_OBJ(ext_dev->obj)).prod_code;
 457              		.loc 1 128 19 view .LVU164
 458 00c4 E16A     		ldr	r1, [r4, #44]
 459 00c6 31A8     		add	r0, sp, #196
 460 00c8 9847     		blx	r3
 461              	.LVL31:
 128:System/storage/Storage_Dev_Port.c ****         *p_code = To_DevW25Nxx_API(ext_dev->api)->info(To_DevW25Nxx_OBJ(ext_dev->obj)).prod_code;
 462              		.loc 1 128 87 view .LVU165
 463 00ca 9DF8C430 		ldrb	r3, [sp, #196]	@ zero_extendqisi2
 128:System/storage/Storage_Dev_Port.c ****         *p_code = To_DevW25Nxx_API(ext_dev->api)->info(To_DevW25Nxx_OBJ(ext_dev->obj)).prod_code;
 464              		.loc 1 128 17 view .LVU166
 465 00ce 3B80     		strh	r3, [r7]	@ movhi
 129:System/storage/Storage_Dev_Port.c **** 
 466              		.loc 1 129 9 is_stmt 1 view .LVU167
 129:System/storage/Storage_Dev_Port.c **** 
 467              		.loc 1 129 19 is_stmt 0 view .LVU168
 468 00d0 236B     		ldr	r3, [r4, #48]
 129:System/storage/Storage_Dev_Port.c **** 
 469              		.loc 1 129 49 view .LVU169
ARM GAS  C:\Users\8bit\AppData\Local\Temp\ccMxBSAI.s 			page 14


 470 00d2 5B69     		ldr	r3, [r3, #20]
 129:System/storage/Storage_Dev_Port.c **** 
 471              		.loc 1 129 19 view .LVU170
 472 00d4 E16A     		ldr	r1, [r4, #44]
 473 00d6 38A8     		add	r0, sp, #224
 474 00d8 9847     		blx	r3
 475              	.LVL32:
 129:System/storage/Storage_Dev_Port.c **** 
 476              		.loc 1 129 87 view .LVU171
 477 00da BDF8E230 		ldrh	r3, [sp, #226]
 129:System/storage/Storage_Dev_Port.c **** 
 478              		.loc 1 129 17 view .LVU172
 479 00de 3380     		strh	r3, [r6]	@ movhi
 131:System/storage/Storage_Dev_Port.c ****         ext_dev->total_size  = To_DevW25Nxx_API(ext_dev->api)->info(To_DevW25Nxx_OBJ(ext_dev->obj))
 480              		.loc 1 131 9 is_stmt 1 view .LVU173
 131:System/storage/Storage_Dev_Port.c ****         ext_dev->total_size  = To_DevW25Nxx_API(ext_dev->api)->info(To_DevW25Nxx_OBJ(ext_dev->obj))
 481              		.loc 1 131 30 is_stmt 0 view .LVU174
 482 00e0 0023     		movs	r3, #0
 483 00e2 6360     		str	r3, [r4, #4]
 132:System/storage/Storage_Dev_Port.c ****         ext_dev->page_num    = To_DevW25Nxx_API(ext_dev->api)->info(To_DevW25Nxx_OBJ(ext_dev->obj))
 484              		.loc 1 132 9 is_stmt 1 view .LVU175
 132:System/storage/Storage_Dev_Port.c ****         ext_dev->page_num    = To_DevW25Nxx_API(ext_dev->api)->info(To_DevW25Nxx_OBJ(ext_dev->obj))
 485              		.loc 1 132 32 is_stmt 0 view .LVU176
 486 00e4 236B     		ldr	r3, [r4, #48]
 132:System/storage/Storage_Dev_Port.c ****         ext_dev->page_num    = To_DevW25Nxx_API(ext_dev->api)->info(To_DevW25Nxx_OBJ(ext_dev->obj))
 487              		.loc 1 132 62 view .LVU177
 488 00e6 5B69     		ldr	r3, [r3, #20]
 132:System/storage/Storage_Dev_Port.c ****         ext_dev->page_num    = To_DevW25Nxx_API(ext_dev->api)->info(To_DevW25Nxx_OBJ(ext_dev->obj))
 489              		.loc 1 132 32 view .LVU178
 490 00e8 E16A     		ldr	r1, [r4, #44]
 491 00ea 3FA8     		add	r0, sp, #252
 492 00ec 9847     		blx	r3
 493              	.LVL33:
 132:System/storage/Storage_Dev_Port.c ****         ext_dev->page_num    = To_DevW25Nxx_API(ext_dev->api)->info(To_DevW25Nxx_OBJ(ext_dev->obj))
 494              		.loc 1 132 100 view .LVU179
 495 00ee 419B     		ldr	r3, [sp, #260]
 132:System/storage/Storage_Dev_Port.c ****         ext_dev->page_num    = To_DevW25Nxx_API(ext_dev->api)->info(To_DevW25Nxx_OBJ(ext_dev->obj))
 496              		.loc 1 132 30 view .LVU180
 497 00f0 A360     		str	r3, [r4, #8]
 133:System/storage/Storage_Dev_Port.c ****         ext_dev->page_size   = To_DevW25Nxx_API(ext_dev->api)->info(To_DevW25Nxx_OBJ(ext_dev->obj))
 498              		.loc 1 133 9 is_stmt 1 view .LVU181
 133:System/storage/Storage_Dev_Port.c ****         ext_dev->page_size   = To_DevW25Nxx_API(ext_dev->api)->info(To_DevW25Nxx_OBJ(ext_dev->obj))
 499              		.loc 1 133 32 is_stmt 0 view .LVU182
 500 00f2 236B     		ldr	r3, [r4, #48]
 133:System/storage/Storage_Dev_Port.c ****         ext_dev->page_size   = To_DevW25Nxx_API(ext_dev->api)->info(To_DevW25Nxx_OBJ(ext_dev->obj))
 501              		.loc 1 133 62 view .LVU183
 502 00f4 5B69     		ldr	r3, [r3, #20]
 133:System/storage/Storage_Dev_Port.c ****         ext_dev->page_size   = To_DevW25Nxx_API(ext_dev->api)->info(To_DevW25Nxx_OBJ(ext_dev->obj))
 503              		.loc 1 133 32 view .LVU184
 504 00f6 E16A     		ldr	r1, [r4, #44]
 505 00f8 46A8     		add	r0, sp, #280
 506 00fa 9847     		blx	r3
 507              	.LVL34:
 133:System/storage/Storage_Dev_Port.c ****         ext_dev->page_size   = To_DevW25Nxx_API(ext_dev->api)->info(To_DevW25Nxx_OBJ(ext_dev->obj))
 508              		.loc 1 133 100 view .LVU185
 509 00fc 4A9B     		ldr	r3, [sp, #296]
 133:System/storage/Storage_Dev_Port.c ****         ext_dev->page_size   = To_DevW25Nxx_API(ext_dev->api)->info(To_DevW25Nxx_OBJ(ext_dev->obj))
ARM GAS  C:\Users\8bit\AppData\Local\Temp\ccMxBSAI.s 			page 15


 510              		.loc 1 133 30 view .LVU186
 511 00fe E360     		str	r3, [r4, #12]
 134:System/storage/Storage_Dev_Port.c **** 
 512              		.loc 1 134 9 is_stmt 1 view .LVU187
 134:System/storage/Storage_Dev_Port.c **** 
 513              		.loc 1 134 32 is_stmt 0 view .LVU188
 514 0100 236B     		ldr	r3, [r4, #48]
 134:System/storage/Storage_Dev_Port.c **** 
 515              		.loc 1 134 62 view .LVU189
 516 0102 5B69     		ldr	r3, [r3, #20]
 134:System/storage/Storage_Dev_Port.c **** 
 517              		.loc 1 134 32 view .LVU190
 518 0104 E16A     		ldr	r1, [r4, #44]
 519 0106 4DA8     		add	r0, sp, #308
 520 0108 9847     		blx	r3
 521              	.LVL35:
 134:System/storage/Storage_Dev_Port.c **** 
 522              		.loc 1 134 100 view .LVU191
 523 010a BDF84031 		ldrh	r3, [sp, #320]
 134:System/storage/Storage_Dev_Port.c **** 
 524              		.loc 1 134 30 view .LVU192
 525 010e 2361     		str	r3, [r4, #16]
 136:System/storage/Storage_Dev_Port.c ****     }
 526              		.loc 1 136 9 is_stmt 1 view .LVU193
 136:System/storage/Storage_Dev_Port.c ****     }
 527              		.loc 1 136 74 is_stmt 0 view .LVU194
 528 0110 B5FA85F0 		clz	r0, r5
 529 0114 4009     		lsrs	r0, r0, #5
 530 0116 81E7     		b	.L18
 531              	.LVL36:
 532              	.L20:
 533              	.LCFI7:
 534              		.cfi_def_cfa_offset 0
 535              		.cfi_restore 4
 536              		.cfi_restore 5
 537              		.cfi_restore 6
 538              		.cfi_restore 7
 539              		.cfi_restore 14
 100:System/storage/Storage_Dev_Port.c **** 
 540              		.loc 1 100 16 view .LVU195
 541 0118 0020     		movs	r0, #0
 542              	.LVL37:
 543              		.loc 1 140 1 view .LVU196
 544 011a 7047     		bx	lr
 545              	.LVL38:
 546              	.L21:
 547              	.LCFI8:
 548              		.cfi_def_cfa_offset 360
 549              		.cfi_offset 4, -20
 550              		.cfi_offset 5, -16
 551              		.cfi_offset 6, -12
 552              		.cfi_offset 7, -8
 553              		.cfi_offset 14, -4
 106:System/storage/Storage_Dev_Port.c **** 
 554              		.loc 1 106 20 view .LVU197
 555 011c 0020     		movs	r0, #0
 556              	.LVL39:
ARM GAS  C:\Users\8bit\AppData\Local\Temp\ccMxBSAI.s 			page 16


 106:System/storage/Storage_Dev_Port.c **** 
 557              		.loc 1 106 20 view .LVU198
 558 011e 7DE7     		b	.L18
 559              	.LVL40:
 560              	.L22:
 106:System/storage/Storage_Dev_Port.c **** 
 561              		.loc 1 106 20 view .LVU199
 562 0120 0020     		movs	r0, #0
 563              	.LVL41:
 106:System/storage/Storage_Dev_Port.c **** 
 564              		.loc 1 106 20 view .LVU200
 565 0122 7BE7     		b	.L18
 566              	.LVL42:
 567              	.L24:
 125:System/storage/Storage_Dev_Port.c **** 
 568              		.loc 1 125 20 view .LVU201
 569 0124 0020     		movs	r0, #0
 570              	.LVL43:
 125:System/storage/Storage_Dev_Port.c **** 
 571              		.loc 1 125 20 view .LVU202
 572 0126 79E7     		b	.L18
 573              	.LVL44:
 574              	.L25:
 125:System/storage/Storage_Dev_Port.c **** 
 575              		.loc 1 125 20 view .LVU203
 576 0128 0020     		movs	r0, #0
 577              	.LVL45:
 125:System/storage/Storage_Dev_Port.c **** 
 578              		.loc 1 125 20 view .LVU204
 579 012a 77E7     		b	.L18
 580              		.cfi_endproc
 581              	.LFE6:
 583              		.section	.text.Storage_Dev_Write_Section,"ax",%progbits
 584              		.align	1
 585              		.syntax unified
 586              		.thumb
 587              		.thumb_func
 589              	Storage_Dev_Write_Section:
 590              	.LVL46:
 591              	.LFB7:
 141:System/storage/Storage_Dev_Port.c **** 
 142:System/storage/Storage_Dev_Port.c **** static bool Storage_Dev_Write_Section(StorageDevObj_TypeDef *p_dev, uint32_t addr, uint8_t *p_data,
 143:System/storage/Storage_Dev_Port.c **** {
 592              		.loc 1 143 1 is_stmt 1 view -0
 593              		.cfi_startproc
 594              		@ args = 0, pretend = 0, frame = 0
 595              		@ frame_needed = 0, uses_anonymous_args = 0
 144:System/storage/Storage_Dev_Port.c ****     uint32_t write_cnt = 0;
 596              		.loc 1 144 5 view .LVU206
 145:System/storage/Storage_Dev_Port.c ****     uint32_t addr_tmp = 0;
 597              		.loc 1 145 5 view .LVU207
 146:System/storage/Storage_Dev_Port.c **** 
 147:System/storage/Storage_Dev_Port.c ****     if ((p_dev == NULL) || \
 598              		.loc 1 147 5 view .LVU208
 599              		.loc 1 147 8 is_stmt 0 view .LVU209
 600 0000 0028     		cmp	r0, #0
 601 0002 39D0     		beq	.L38
ARM GAS  C:\Users\8bit\AppData\Local\Temp\ccMxBSAI.s 			page 17


 143:System/storage/Storage_Dev_Port.c ****     uint32_t write_cnt = 0;
 602              		.loc 1 143 1 discriminator 1 view .LVU210
 603 0004 2DE9F843 		push	{r3, r4, r5, r6, r7, r8, r9, lr}
 604              	.LCFI9:
 605              		.cfi_def_cfa_offset 32
 606              		.cfi_offset 3, -32
 607              		.cfi_offset 4, -28
 608              		.cfi_offset 5, -24
 609              		.cfi_offset 6, -20
 610              		.cfi_offset 7, -16
 611              		.cfi_offset 8, -12
 612              		.cfi_offset 9, -8
 613              		.cfi_offset 14, -4
 614 0008 0D46     		mov	r5, r1
 615 000a 9046     		mov	r8, r2
 616 000c 0446     		mov	r4, r0
 148:System/storage/Storage_Dev_Port.c ****         (p_dev->api == NULL) || \
 617              		.loc 1 148 15 discriminator 1 view .LVU211
 618 000e 026B     		ldr	r2, [r0, #48]
 619              	.LVL47:
 147:System/storage/Storage_Dev_Port.c ****         (p_dev->api == NULL) || \
 620              		.loc 1 147 25 discriminator 1 view .LVU212
 621 0010 002A     		cmp	r2, #0
 622 0012 33D0     		beq	.L39
 149:System/storage/Storage_Dev_Port.c ****         (p_dev->obj == NULL) || \
 623              		.loc 1 149 15 view .LVU213
 624 0014 C26A     		ldr	r2, [r0, #44]
 148:System/storage/Storage_Dev_Port.c ****         (p_dev->api == NULL) || \
 625              		.loc 1 148 30 view .LVU214
 626 0016 002A     		cmp	r2, #0
 627 0018 32D0     		beq	.L40
 628              		.loc 1 149 30 view .LVU215
 629 001a B8F1000F 		cmp	r8, #0
 630 001e 31D0     		beq	.L41
 150:System/storage/Storage_Dev_Port.c ****         (p_data == NULL) || \
 631              		.loc 1 150 26 view .LVU216
 632 0020 93B3     		cbz	r3, .L42
 151:System/storage/Storage_Dev_Port.c ****         (len == 0) || \
 152:System/storage/Storage_Dev_Port.c ****         ((addr % p_dev->sector_size) || \
 633              		.loc 1 152 23 view .LVU217
 634 0022 876A     		ldr	r7, [r0, #40]
 635              		.loc 1 152 16 view .LVU218
 636 0024 B1FBF7F2 		udiv	r2, r1, r7
 637 0028 07FB1212 		mls	r2, r7, r2, r1
 151:System/storage/Storage_Dev_Port.c ****         (len == 0) || \
 638              		.loc 1 151 20 view .LVU219
 639 002c 7ABB     		cbnz	r2, .L43
 153:System/storage/Storage_Dev_Port.c ****         (len % p_dev->sector_size)))
 640              		.loc 1 153 14 view .LVU220
 641 002e B3FBF7F2 		udiv	r2, r3, r7
 642 0032 07FB1232 		mls	r2, r7, r2, r3
 152:System/storage/Storage_Dev_Port.c ****         (len % p_dev->sector_size)))
 643              		.loc 1 152 38 view .LVU221
 644 0036 62BB     		cbnz	r2, .L44
 154:System/storage/Storage_Dev_Port.c ****         return false;
 155:System/storage/Storage_Dev_Port.c **** 
 156:System/storage/Storage_Dev_Port.c ****     write_cnt = len / p_dev->sector_size;
ARM GAS  C:\Users\8bit\AppData\Local\Temp\ccMxBSAI.s 			page 18


 645              		.loc 1 156 5 is_stmt 1 view .LVU222
 646              		.loc 1 156 15 is_stmt 0 view .LVU223
 647 0038 B3FBF7F7 		udiv	r7, r3, r7
 648              	.LVL48:
 157:System/storage/Storage_Dev_Port.c ****     addr_tmp = addr;
 649              		.loc 1 157 5 is_stmt 1 view .LVU224
 158:System/storage/Storage_Dev_Port.c **** 
 159:System/storage/Storage_Dev_Port.c ****     for (uint8_t i = 0; i < write_cnt; i ++)
 650              		.loc 1 159 5 view .LVU225
 651              	.LBB2:
 652              		.loc 1 159 10 view .LVU226
 653              		.loc 1 159 18 is_stmt 0 view .LVU227
 654 003c 0026     		movs	r6, #0
 655              	.LVL49:
 656              	.L34:
 657              		.loc 1 159 25 is_stmt 1 discriminator 1 view .LVU228
 658              		.loc 1 159 5 is_stmt 0 discriminator 1 view .LVU229
 659 003e BE42     		cmp	r6, r7
 660 0040 18D2     		bcs	.L50
 160:System/storage/Storage_Dev_Port.c ****     {
 161:System/storage/Storage_Dev_Port.c ****         switch((uint8_t)p_dev->chip_type)
 661              		.loc 1 161 9 is_stmt 1 view .LVU230
 662              		.loc 1 161 30 is_stmt 0 view .LVU231
 663 0042 2378     		ldrb	r3, [r4]	@ zero_extendqisi2
 664              		.loc 1 161 9 view .LVU232
 665 0044 012B     		cmp	r3, #1
 666 0046 26D1     		bne	.L45
 162:System/storage/Storage_Dev_Port.c ****         {
 163:System/storage/Storage_Dev_Port.c ****             case Storage_ChipType_W25Qxx:
 164:System/storage/Storage_Dev_Port.c ****                 /* erase sector and update sector */
 165:System/storage/Storage_Dev_Port.c ****                 if ((To_DevW25Qxx_API(p_dev->api)->erase_sector(To_DevW25Qxx_OBJ(p_dev->obj), addr_
 667              		.loc 1 165 17 is_stmt 1 view .LVU233
 668              		.loc 1 165 22 is_stmt 0 view .LVU234
 669 0048 236B     		ldr	r3, [r4, #48]
 670              		.loc 1 165 50 view .LVU235
 671 004a DB68     		ldr	r3, [r3, #12]
 672              		.loc 1 165 22 view .LVU236
 673 004c 2946     		mov	r1, r5
 674 004e E06A     		ldr	r0, [r4, #44]
 675 0050 9847     		blx	r3
 676              	.LVL50:
 677              		.loc 1 165 20 view .LVU237
 678 0052 68B9     		cbnz	r0, .L35
 166:System/storage/Storage_Dev_Port.c ****                     (To_DevW25Qxx_API(p_dev->api)->write(To_DevW25Qxx_OBJ(p_dev->obj), addr_tmp, p_
 679              		.loc 1 166 22 discriminator 1 view .LVU238
 680 0054 236B     		ldr	r3, [r4, #48]
 681              		.loc 1 166 50 discriminator 1 view .LVU239
 682 0056 D3F80490 		ldr	r9, [r3, #4]
 683              		.loc 1 166 22 discriminator 1 view .LVU240
 684 005a A36A     		ldr	r3, [r4, #40]
 685 005c 4246     		mov	r2, r8
 686 005e 2946     		mov	r1, r5
 687 0060 E06A     		ldr	r0, [r4, #44]
 688 0062 C847     		blx	r9
 689              	.LVL51:
 165:System/storage/Storage_Dev_Port.c ****                     (To_DevW25Qxx_API(p_dev->api)->write(To_DevW25Qxx_OBJ(p_dev->obj), addr_tmp, p_
 690              		.loc 1 165 122 discriminator 1 view .LVU241
ARM GAS  C:\Users\8bit\AppData\Local\Temp\ccMxBSAI.s 			page 19


 691 0064 20B9     		cbnz	r0, .L35
 167:System/storage/Storage_Dev_Port.c ****                     return false;
 168:System/storage/Storage_Dev_Port.c ****                 break;
 692              		.loc 1 168 17 is_stmt 1 discriminator 2 view .LVU242
 169:System/storage/Storage_Dev_Port.c **** 
 170:System/storage/Storage_Dev_Port.c ****             default: return false;
 171:System/storage/Storage_Dev_Port.c ****         }
 172:System/storage/Storage_Dev_Port.c **** 
 173:System/storage/Storage_Dev_Port.c ****         addr_tmp += p_dev->sector_size;
 693              		.loc 1 173 9 discriminator 2 view .LVU243
 694              		.loc 1 173 26 is_stmt 0 discriminator 2 view .LVU244
 695 0066 A36A     		ldr	r3, [r4, #40]
 696              		.loc 1 173 18 discriminator 2 view .LVU245
 697 0068 1D44     		add	r5, r5, r3
 698              	.LVL52:
 159:System/storage/Storage_Dev_Port.c ****     {
 699              		.loc 1 159 40 is_stmt 1 discriminator 2 view .LVU246
 159:System/storage/Storage_Dev_Port.c ****     {
 700              		.loc 1 159 42 is_stmt 0 discriminator 2 view .LVU247
 701 006a 0136     		adds	r6, r6, #1
 702              	.LVL53:
 159:System/storage/Storage_Dev_Port.c ****     {
 703              		.loc 1 159 42 discriminator 2 view .LVU248
 704 006c F6B2     		uxtb	r6, r6
 705              	.LVL54:
 159:System/storage/Storage_Dev_Port.c ****     {
 706              		.loc 1 159 42 discriminator 2 view .LVU249
 707 006e E6E7     		b	.L34
 708              	.L35:
 167:System/storage/Storage_Dev_Port.c ****                     return false;
 709              		.loc 1 167 21 is_stmt 1 view .LVU250
 167:System/storage/Storage_Dev_Port.c ****                     return false;
 710              		.loc 1 167 28 is_stmt 0 view .LVU251
 711 0070 0020     		movs	r0, #0
 712 0072 0AE0     		b	.L33
 713              	.L50:
 167:System/storage/Storage_Dev_Port.c ****                     return false;
 714              		.loc 1 167 28 view .LVU252
 715              	.LBE2:
 174:System/storage/Storage_Dev_Port.c ****     }
 175:System/storage/Storage_Dev_Port.c **** 
 176:System/storage/Storage_Dev_Port.c ****     return true;
 716              		.loc 1 176 12 view .LVU253
 717 0074 0120     		movs	r0, #1
 718              	.LBB3:
 719 0076 08E0     		b	.L33
 720              	.LVL55:
 721              	.L38:
 722              	.LCFI10:
 723              		.cfi_def_cfa_offset 0
 724              		.cfi_restore 3
 725              		.cfi_restore 4
 726              		.cfi_restore 5
 727              		.cfi_restore 6
 728              		.cfi_restore 7
 729              		.cfi_restore 8
 730              		.cfi_restore 9
ARM GAS  C:\Users\8bit\AppData\Local\Temp\ccMxBSAI.s 			page 20


 731              		.cfi_restore 14
 732              		.loc 1 176 12 view .LVU254
 733              	.LBE3:
 154:System/storage/Storage_Dev_Port.c **** 
 734              		.loc 1 154 16 view .LVU255
 735 0078 0020     		movs	r0, #0
 736              	.LVL56:
 177:System/storage/Storage_Dev_Port.c **** }
 737              		.loc 1 177 1 view .LVU256
 738 007a 7047     		bx	lr
 739              	.LVL57:
 740              	.L39:
 741              	.LCFI11:
 742              		.cfi_def_cfa_offset 32
 743              		.cfi_offset 3, -32
 744              		.cfi_offset 4, -28
 745              		.cfi_offset 5, -24
 746              		.cfi_offset 6, -20
 747              		.cfi_offset 7, -16
 748              		.cfi_offset 8, -12
 749              		.cfi_offset 9, -8
 750              		.cfi_offset 14, -4
 154:System/storage/Storage_Dev_Port.c **** 
 751              		.loc 1 154 16 view .LVU257
 752 007c 0020     		movs	r0, #0
 753              	.LVL58:
 154:System/storage/Storage_Dev_Port.c **** 
 754              		.loc 1 154 16 view .LVU258
 755 007e 04E0     		b	.L33
 756              	.LVL59:
 757              	.L40:
 154:System/storage/Storage_Dev_Port.c **** 
 758              		.loc 1 154 16 view .LVU259
 759 0080 0020     		movs	r0, #0
 760              	.LVL60:
 154:System/storage/Storage_Dev_Port.c **** 
 761              		.loc 1 154 16 view .LVU260
 762 0082 02E0     		b	.L33
 763              	.LVL61:
 764              	.L41:
 154:System/storage/Storage_Dev_Port.c **** 
 765              		.loc 1 154 16 view .LVU261
 766 0084 0020     		movs	r0, #0
 767              	.LVL62:
 154:System/storage/Storage_Dev_Port.c **** 
 768              		.loc 1 154 16 view .LVU262
 769 0086 00E0     		b	.L33
 770              	.LVL63:
 771              	.L42:
 154:System/storage/Storage_Dev_Port.c **** 
 772              		.loc 1 154 16 view .LVU263
 773 0088 0020     		movs	r0, #0
 774              	.LVL64:
 775              	.L33:
 776              		.loc 1 177 1 view .LVU264
 777 008a BDE8F883 		pop	{r3, r4, r5, r6, r7, r8, r9, pc}
 778              	.LVL65:
ARM GAS  C:\Users\8bit\AppData\Local\Temp\ccMxBSAI.s 			page 21


 779              	.L43:
 154:System/storage/Storage_Dev_Port.c **** 
 780              		.loc 1 154 16 view .LVU265
 781 008e 0020     		movs	r0, #0
 782              	.LVL66:
 154:System/storage/Storage_Dev_Port.c **** 
 783              		.loc 1 154 16 view .LVU266
 784 0090 FBE7     		b	.L33
 785              	.LVL67:
 786              	.L44:
 154:System/storage/Storage_Dev_Port.c **** 
 787              		.loc 1 154 16 view .LVU267
 788 0092 0020     		movs	r0, #0
 789              	.LVL68:
 154:System/storage/Storage_Dev_Port.c **** 
 790              		.loc 1 154 16 view .LVU268
 791 0094 F9E7     		b	.L33
 792              	.LVL69:
 793              	.L45:
 794              	.LBB4:
 170:System/storage/Storage_Dev_Port.c ****         }
 795              		.loc 1 170 29 view .LVU269
 796 0096 0020     		movs	r0, #0
 797 0098 F7E7     		b	.L33
 798              	.LBE4:
 799              		.cfi_endproc
 800              	.LFE7:
 802              		.section	.text.Storage_Dev_Erase_Section,"ax",%progbits
 803              		.align	1
 804              		.syntax unified
 805              		.thumb
 806              		.thumb_func
 808              	Storage_Dev_Erase_Section:
 809              	.LVL70:
 810              	.LFB9:
 178:System/storage/Storage_Dev_Port.c **** 
 179:System/storage/Storage_Dev_Port.c **** static bool Storage_Dev_Read_Section(StorageDevObj_TypeDef *p_dev, uint32_t addr, uint8_t *p_data, 
 180:System/storage/Storage_Dev_Port.c **** {
 181:System/storage/Storage_Dev_Port.c ****     uint32_t read_cnt = 0;
 182:System/storage/Storage_Dev_Port.c ****     uint32_t addr_tmp = 0;
 183:System/storage/Storage_Dev_Port.c ****     
 184:System/storage/Storage_Dev_Port.c ****     if ((p_dev == NULL) || \
 185:System/storage/Storage_Dev_Port.c ****         (p_dev->api == NULL) || \
 186:System/storage/Storage_Dev_Port.c ****         (p_dev->obj == NULL) || \
 187:System/storage/Storage_Dev_Port.c ****         (p_data == NULL) || \
 188:System/storage/Storage_Dev_Port.c ****         (len == 0) || \
 189:System/storage/Storage_Dev_Port.c ****         ((addr % p_dev->sector_size) || \
 190:System/storage/Storage_Dev_Port.c ****         (len % p_dev->sector_size)))
 191:System/storage/Storage_Dev_Port.c ****         return false;
 192:System/storage/Storage_Dev_Port.c **** 
 193:System/storage/Storage_Dev_Port.c ****     read_cnt = len / p_dev->sector_size;
 194:System/storage/Storage_Dev_Port.c ****     addr_tmp = addr;
 195:System/storage/Storage_Dev_Port.c **** 
 196:System/storage/Storage_Dev_Port.c ****     for (uint8_t i = 0; i < read_cnt; i++)
 197:System/storage/Storage_Dev_Port.c ****     {
 198:System/storage/Storage_Dev_Port.c ****         switch((uint8_t)p_dev->chip_type)
 199:System/storage/Storage_Dev_Port.c ****         {
ARM GAS  C:\Users\8bit\AppData\Local\Temp\ccMxBSAI.s 			page 22


 200:System/storage/Storage_Dev_Port.c ****             case Storage_ChipType_W25Qxx:
 201:System/storage/Storage_Dev_Port.c ****                 /* read sector */
 202:System/storage/Storage_Dev_Port.c ****                 if (To_DevW25Qxx_API(p_dev->api)->read(To_DevW25Qxx_OBJ(p_dev->obj), addr_tmp, p_da
 203:System/storage/Storage_Dev_Port.c ****                 {
 204:System/storage/Storage_Dev_Port.c ****                     memset(p_data, 0, len);
 205:System/storage/Storage_Dev_Port.c ****                     return false;
 206:System/storage/Storage_Dev_Port.c ****                 }
 207:System/storage/Storage_Dev_Port.c ****                 break;
 208:System/storage/Storage_Dev_Port.c **** 
 209:System/storage/Storage_Dev_Port.c ****             default: return false;
 210:System/storage/Storage_Dev_Port.c ****         }
 211:System/storage/Storage_Dev_Port.c **** 
 212:System/storage/Storage_Dev_Port.c ****         addr_tmp += p_dev->sector_size;
 213:System/storage/Storage_Dev_Port.c ****     }
 214:System/storage/Storage_Dev_Port.c **** 
 215:System/storage/Storage_Dev_Port.c ****     return true;
 216:System/storage/Storage_Dev_Port.c **** }
 217:System/storage/Storage_Dev_Port.c **** 
 218:System/storage/Storage_Dev_Port.c **** static bool Storage_Dev_Erase_Section(StorageDevObj_TypeDef *p_dev, uint32_t addr, uint16_t len)
 219:System/storage/Storage_Dev_Port.c **** {
 811              		.loc 1 219 1 is_stmt 1 view -0
 812              		.cfi_startproc
 813              		@ args = 0, pretend = 0, frame = 0
 814              		@ frame_needed = 0, uses_anonymous_args = 0
 220:System/storage/Storage_Dev_Port.c ****     uint32_t erase_cnt = 0;
 815              		.loc 1 220 5 view .LVU271
 221:System/storage/Storage_Dev_Port.c ****     uint32_t addr_tmp = 0;
 816              		.loc 1 221 5 view .LVU272
 222:System/storage/Storage_Dev_Port.c **** 
 223:System/storage/Storage_Dev_Port.c ****     if ((p_dev == NULL) || \
 817              		.loc 1 223 5 view .LVU273
 818              		.loc 1 223 8 is_stmt 0 view .LVU274
 819 0000 38B3     		cbz	r0, .L55
 219:System/storage/Storage_Dev_Port.c ****     uint32_t erase_cnt = 0;
 820              		.loc 1 219 1 discriminator 1 view .LVU275
 821 0002 F8B5     		push	{r3, r4, r5, r6, r7, lr}
 822              	.LCFI12:
 823              		.cfi_def_cfa_offset 24
 824              		.cfi_offset 3, -24
 825              		.cfi_offset 4, -20
 826              		.cfi_offset 5, -16
 827              		.cfi_offset 6, -12
 828              		.cfi_offset 7, -8
 829              		.cfi_offset 14, -4
 830 0004 0D46     		mov	r5, r1
 831 0006 0446     		mov	r4, r0
 224:System/storage/Storage_Dev_Port.c ****         (p_dev->api == NULL) || \
 832              		.loc 1 224 15 discriminator 1 view .LVU276
 833 0008 036B     		ldr	r3, [r0, #48]
 223:System/storage/Storage_Dev_Port.c ****         (p_dev->api == NULL) || \
 834              		.loc 1 223 25 discriminator 1 view .LVU277
 835 000a 23B3     		cbz	r3, .L56
 225:System/storage/Storage_Dev_Port.c ****         (p_dev->obj == NULL) || \
 836              		.loc 1 225 15 view .LVU278
 837 000c C36A     		ldr	r3, [r0, #44]
 224:System/storage/Storage_Dev_Port.c ****         (p_dev->api == NULL) || \
 838              		.loc 1 224 30 view .LVU279
ARM GAS  C:\Users\8bit\AppData\Local\Temp\ccMxBSAI.s 			page 23


 839 000e 23B3     		cbz	r3, .L57
 840              		.loc 1 225 30 view .LVU280
 841 0010 2AB3     		cbz	r2, .L58
 226:System/storage/Storage_Dev_Port.c ****         (len == 0) || \
 227:System/storage/Storage_Dev_Port.c ****         ((addr % p_dev->sector_size) || \
 842              		.loc 1 227 23 view .LVU281
 843 0012 876A     		ldr	r7, [r0, #40]
 844              		.loc 1 227 16 view .LVU282
 845 0014 B1FBF7F3 		udiv	r3, r1, r7
 846 0018 07FB1313 		mls	r3, r7, r3, r1
 226:System/storage/Storage_Dev_Port.c ****         (len == 0) || \
 847              		.loc 1 226 20 view .LVU283
 848 001c 0BBB     		cbnz	r3, .L59
 228:System/storage/Storage_Dev_Port.c ****         (len % p_dev->sector_size)))
 849              		.loc 1 228 14 view .LVU284
 850 001e B2FBF7F3 		udiv	r3, r2, r7
 851 0022 07FB1323 		mls	r3, r7, r3, r2
 227:System/storage/Storage_Dev_Port.c ****         (len % p_dev->sector_size)))
 852              		.loc 1 227 38 view .LVU285
 853 0026 F3B9     		cbnz	r3, .L60
 229:System/storage/Storage_Dev_Port.c ****         return false;
 230:System/storage/Storage_Dev_Port.c **** 
 231:System/storage/Storage_Dev_Port.c ****     erase_cnt = len / p_dev->sector_size;
 854              		.loc 1 231 5 is_stmt 1 view .LVU286
 855              		.loc 1 231 15 is_stmt 0 view .LVU287
 856 0028 B2FBF7F7 		udiv	r7, r2, r7
 857              	.LVL71:
 232:System/storage/Storage_Dev_Port.c ****     addr_tmp = addr;
 858              		.loc 1 232 5 is_stmt 1 view .LVU288
 233:System/storage/Storage_Dev_Port.c **** 
 234:System/storage/Storage_Dev_Port.c ****     for (uint8_t i = 0; i < erase_cnt; i ++)
 859              		.loc 1 234 5 view .LVU289
 860              	.LBB5:
 861              		.loc 1 234 10 view .LVU290
 862              		.loc 1 234 18 is_stmt 0 view .LVU291
 863 002c 0026     		movs	r6, #0
 864              	.LVL72:
 865              	.L53:
 866              		.loc 1 234 25 is_stmt 1 discriminator 1 view .LVU292
 867              		.loc 1 234 5 is_stmt 0 discriminator 1 view .LVU293
 868 002e BE42     		cmp	r6, r7
 869 0030 0DD2     		bcs	.L67
 235:System/storage/Storage_Dev_Port.c ****     {
 236:System/storage/Storage_Dev_Port.c ****         switch((uint8_t)p_dev->chip_type)
 870              		.loc 1 236 9 is_stmt 1 view .LVU294
 871              		.loc 1 236 30 is_stmt 0 view .LVU295
 872 0032 2378     		ldrb	r3, [r4]	@ zero_extendqisi2
 873              		.loc 1 236 9 view .LVU296
 874 0034 012B     		cmp	r3, #1
 875 0036 18D1     		bne	.L61
 237:System/storage/Storage_Dev_Port.c ****         {
 238:System/storage/Storage_Dev_Port.c ****             case Storage_ChipType_W25Qxx:
 239:System/storage/Storage_Dev_Port.c ****                 /* erase sector */
 240:System/storage/Storage_Dev_Port.c ****                 if (To_DevW25Qxx_API(p_dev->api)->erase_sector(To_DevW25Qxx_OBJ(p_dev->obj), addr_t
 876              		.loc 1 240 17 is_stmt 1 view .LVU297
 877              		.loc 1 240 21 is_stmt 0 view .LVU298
 878 0038 236B     		ldr	r3, [r4, #48]
ARM GAS  C:\Users\8bit\AppData\Local\Temp\ccMxBSAI.s 			page 24


 879              		.loc 1 240 49 view .LVU299
 880 003a DB68     		ldr	r3, [r3, #12]
 881              		.loc 1 240 21 view .LVU300
 882 003c 2946     		mov	r1, r5
 883 003e E06A     		ldr	r0, [r4, #44]
 884 0040 9847     		blx	r3
 885              	.LVL73:
 886              		.loc 1 240 20 view .LVU301
 887 0042 A0B9     		cbnz	r0, .L62
 241:System/storage/Storage_Dev_Port.c ****                     return false;
 242:System/storage/Storage_Dev_Port.c ****                 break;
 888              		.loc 1 242 17 is_stmt 1 discriminator 2 view .LVU302
 243:System/storage/Storage_Dev_Port.c **** 
 244:System/storage/Storage_Dev_Port.c ****             default: return false;
 245:System/storage/Storage_Dev_Port.c ****         }
 246:System/storage/Storage_Dev_Port.c **** 
 247:System/storage/Storage_Dev_Port.c ****         addr_tmp += p_dev->sector_size;
 889              		.loc 1 247 9 discriminator 2 view .LVU303
 890              		.loc 1 247 26 is_stmt 0 discriminator 2 view .LVU304
 891 0044 A36A     		ldr	r3, [r4, #40]
 892              		.loc 1 247 18 discriminator 2 view .LVU305
 893 0046 1D44     		add	r5, r5, r3
 894              	.LVL74:
 234:System/storage/Storage_Dev_Port.c ****     {
 895              		.loc 1 234 40 is_stmt 1 discriminator 2 view .LVU306
 234:System/storage/Storage_Dev_Port.c ****     {
 896              		.loc 1 234 42 is_stmt 0 discriminator 2 view .LVU307
 897 0048 0136     		adds	r6, r6, #1
 898              	.LVL75:
 234:System/storage/Storage_Dev_Port.c ****     {
 899              		.loc 1 234 42 discriminator 2 view .LVU308
 900 004a F6B2     		uxtb	r6, r6
 901              	.LVL76:
 234:System/storage/Storage_Dev_Port.c ****     {
 902              		.loc 1 234 42 discriminator 2 view .LVU309
 903 004c EFE7     		b	.L53
 904              	.L67:
 234:System/storage/Storage_Dev_Port.c ****     {
 905              		.loc 1 234 42 discriminator 2 view .LVU310
 906              	.LBE5:
 248:System/storage/Storage_Dev_Port.c ****     }
 249:System/storage/Storage_Dev_Port.c **** 
 250:System/storage/Storage_Dev_Port.c ****     return true;
 907              		.loc 1 250 12 view .LVU311
 908 004e 0120     		movs	r0, #1
 909              	.LBB6:
 910 0050 06E0     		b	.L52
 911              	.LVL77:
 912              	.L55:
 913              	.LCFI13:
 914              		.cfi_def_cfa_offset 0
 915              		.cfi_restore 3
 916              		.cfi_restore 4
 917              		.cfi_restore 5
 918              		.cfi_restore 6
 919              		.cfi_restore 7
 920              		.cfi_restore 14
ARM GAS  C:\Users\8bit\AppData\Local\Temp\ccMxBSAI.s 			page 25


 921              		.loc 1 250 12 view .LVU312
 922              	.LBE6:
 229:System/storage/Storage_Dev_Port.c **** 
 923              		.loc 1 229 16 view .LVU313
 924 0052 0020     		movs	r0, #0
 925              	.LVL78:
 251:System/storage/Storage_Dev_Port.c **** }
 926              		.loc 1 251 1 view .LVU314
 927 0054 7047     		bx	lr
 928              	.LVL79:
 929              	.L56:
 930              	.LCFI14:
 931              		.cfi_def_cfa_offset 24
 932              		.cfi_offset 3, -24
 933              		.cfi_offset 4, -20
 934              		.cfi_offset 5, -16
 935              		.cfi_offset 6, -12
 936              		.cfi_offset 7, -8
 937              		.cfi_offset 14, -4
 229:System/storage/Storage_Dev_Port.c **** 
 938              		.loc 1 229 16 view .LVU315
 939 0056 0020     		movs	r0, #0
 940              	.LVL80:
 229:System/storage/Storage_Dev_Port.c **** 
 941              		.loc 1 229 16 view .LVU316
 942 0058 02E0     		b	.L52
 943              	.LVL81:
 944              	.L57:
 229:System/storage/Storage_Dev_Port.c **** 
 945              		.loc 1 229 16 view .LVU317
 946 005a 0020     		movs	r0, #0
 947              	.LVL82:
 229:System/storage/Storage_Dev_Port.c **** 
 948              		.loc 1 229 16 view .LVU318
 949 005c 00E0     		b	.L52
 950              	.LVL83:
 951              	.L58:
 229:System/storage/Storage_Dev_Port.c **** 
 952              		.loc 1 229 16 view .LVU319
 953 005e 0020     		movs	r0, #0
 954              	.LVL84:
 955              	.L52:
 956              		.loc 1 251 1 view .LVU320
 957 0060 F8BD     		pop	{r3, r4, r5, r6, r7, pc}
 958              	.LVL85:
 959              	.L59:
 229:System/storage/Storage_Dev_Port.c **** 
 960              		.loc 1 229 16 view .LVU321
 961 0062 0020     		movs	r0, #0
 962              	.LVL86:
 229:System/storage/Storage_Dev_Port.c **** 
 963              		.loc 1 229 16 view .LVU322
 964 0064 FCE7     		b	.L52
 965              	.LVL87:
 966              	.L60:
 229:System/storage/Storage_Dev_Port.c **** 
 967              		.loc 1 229 16 view .LVU323
ARM GAS  C:\Users\8bit\AppData\Local\Temp\ccMxBSAI.s 			page 26


 968 0066 0020     		movs	r0, #0
 969              	.LVL88:
 229:System/storage/Storage_Dev_Port.c **** 
 970              		.loc 1 229 16 view .LVU324
 971 0068 FAE7     		b	.L52
 972              	.LVL89:
 973              	.L61:
 974              	.LBB7:
 244:System/storage/Storage_Dev_Port.c ****         }
 975              		.loc 1 244 29 view .LVU325
 976 006a 0020     		movs	r0, #0
 977 006c F8E7     		b	.L52
 978              	.L62:
 241:System/storage/Storage_Dev_Port.c ****                 break;
 979              		.loc 1 241 28 view .LVU326
 980 006e 0020     		movs	r0, #0
 981 0070 F6E7     		b	.L52
 982              	.LBE7:
 983              		.cfi_endproc
 984              	.LFE9:
 986              		.section	.text.Storage_Dev_Firmware_Format,"ax",%progbits
 987              		.align	1
 988              		.syntax unified
 989              		.thumb
 990              		.thumb_func
 992              	Storage_Dev_Firmware_Format:
 993              	.LVL90:
 994              	.LFB10:
 252:System/storage/Storage_Dev_Port.c **** 
 253:System/storage/Storage_Dev_Port.c **** static bool Storage_Dev_Firmware_Format(StorageDevObj_TypeDef *p_dev, uint32_t addr, uint32_t firmw
 254:System/storage/Storage_Dev_Port.c **** {
 995              		.loc 1 254 1 is_stmt 1 view -0
 996              		.cfi_startproc
 997              		@ args = 0, pretend = 0, frame = 0
 998              		@ frame_needed = 0, uses_anonymous_args = 0
 255:System/storage/Storage_Dev_Port.c ****     uint32_t format_size = firmware_size;
 999              		.loc 1 255 5 view .LVU328
 256:System/storage/Storage_Dev_Port.c ****     uint32_t erase_addr = addr;
 1000              		.loc 1 256 5 view .LVU329
 257:System/storage/Storage_Dev_Port.c **** 
 258:System/storage/Storage_Dev_Port.c ****     if ((p_dev == NULL) || \
 1001              		.loc 1 258 5 view .LVU330
 1002              		.loc 1 258 8 is_stmt 0 view .LVU331
 1003 0000 10B3     		cbz	r0, .L73
 254:System/storage/Storage_Dev_Port.c ****     uint32_t format_size = firmware_size;
 1004              		.loc 1 254 1 discriminator 1 view .LVU332
 1005 0002 F8B5     		push	{r3, r4, r5, r6, r7, lr}
 1006              	.LCFI15:
 1007              		.cfi_def_cfa_offset 24
 1008              		.cfi_offset 3, -24
 1009              		.cfi_offset 4, -20
 1010              		.cfi_offset 5, -16
 1011              		.cfi_offset 6, -12
 1012              		.cfi_offset 7, -8
 1013              		.cfi_offset 14, -4
 1014 0004 0F46     		mov	r7, r1
 1015 0006 1546     		mov	r5, r2
ARM GAS  C:\Users\8bit\AppData\Local\Temp\ccMxBSAI.s 			page 27


 1016 0008 0646     		mov	r6, r0
 259:System/storage/Storage_Dev_Port.c ****         ((format_size % Storage_TabSize) != 0) || \
 1017              		.loc 1 259 23 discriminator 1 view .LVU333
 1018 000a C2F30B03 		ubfx	r3, r2, #0, #12
 258:System/storage/Storage_Dev_Port.c ****         ((format_size % Storage_TabSize) != 0) || \
 1019              		.loc 1 258 25 discriminator 1 view .LVU334
 1020 000e EBB9     		cbnz	r3, .L74
 260:System/storage/Storage_Dev_Port.c ****         (p_dev->api == NULL) || \
 1021              		.loc 1 260 15 view .LVU335
 1022 0010 036B     		ldr	r3, [r0, #48]
 259:System/storage/Storage_Dev_Port.c ****         ((format_size % Storage_TabSize) != 0) || \
 1023              		.loc 1 259 48 view .LVU336
 1024 0012 EBB1     		cbz	r3, .L75
 261:System/storage/Storage_Dev_Port.c ****         (p_dev->obj == NULL))
 1025              		.loc 1 261 15 view .LVU337
 1026 0014 C36A     		ldr	r3, [r0, #44]
 260:System/storage/Storage_Dev_Port.c ****         (p_dev->api == NULL) || \
 1027              		.loc 1 260 30 view .LVU338
 1028 0016 EBB1     		cbz	r3, .L76
 1029              	.LBB8:
 262:System/storage/Storage_Dev_Port.c ****         return false;
 263:System/storage/Storage_Dev_Port.c **** 
 264:System/storage/Storage_Dev_Port.c ****     for (uint16_t i = 0; i < format_size / Storage_TabSize; i++)
 1030              		.loc 1 264 19 view .LVU339
 1031 0018 0024     		movs	r4, #0
 1032 001a 01E0     		b	.L70
 1033              	.LVL91:
 1034              	.L71:
 1035              		.loc 1 264 61 is_stmt 1 discriminator 2 view .LVU340
 1036              		.loc 1 264 62 is_stmt 0 discriminator 2 view .LVU341
 1037 001c 0134     		adds	r4, r4, #1
 1038              	.LVL92:
 1039              		.loc 1 264 62 discriminator 2 view .LVU342
 1040 001e A4B2     		uxth	r4, r4
 1041              	.LVL93:
 1042              	.L70:
 1043              		.loc 1 264 26 is_stmt 1 discriminator 1 view .LVU343
 1044              		.loc 1 264 5 is_stmt 0 discriminator 1 view .LVU344
 1045 0020 B4EB153F 		cmp	r4, r5, lsr #12
 1046 0024 0ED2     		bcs	.L83
 265:System/storage/Storage_Dev_Port.c ****     {
 266:System/storage/Storage_Dev_Port.c ****         switch (p_dev->chip_type)
 1047              		.loc 1 266 9 is_stmt 1 view .LVU345
 1048              		.loc 1 266 22 is_stmt 0 view .LVU346
 1049 0026 3378     		ldrb	r3, [r6]	@ zero_extendqisi2
 1050              		.loc 1 266 9 view .LVU347
 1051 0028 012B     		cmp	r3, #1
 1052 002a F7D1     		bne	.L71
 267:System/storage/Storage_Dev_Port.c ****         {
 268:System/storage/Storage_Dev_Port.c ****             case Storage_ChipType_W25Qxx:
 269:System/storage/Storage_Dev_Port.c ****                 if (format_size == 0)
 1053              		.loc 1 269 17 is_stmt 1 view .LVU348
 1054              		.loc 1 269 20 is_stmt 0 view .LVU349
 1055 002c A5B1     		cbz	r5, .L77
 270:System/storage/Storage_Dev_Port.c ****                     return true;
 271:System/storage/Storage_Dev_Port.c **** 
 272:System/storage/Storage_Dev_Port.c ****                 if (To_DevW25Qxx_API(p_dev->api)->erase_sector(To_DevW25Qxx_OBJ(p_dev->obj), erase_
ARM GAS  C:\Users\8bit\AppData\Local\Temp\ccMxBSAI.s 			page 28


 1056              		.loc 1 272 17 is_stmt 1 view .LVU350
 1057              		.loc 1 272 21 is_stmt 0 view .LVU351
 1058 002e 336B     		ldr	r3, [r6, #48]
 1059              		.loc 1 272 49 view .LVU352
 1060 0030 DB68     		ldr	r3, [r3, #12]
 1061              		.loc 1 272 21 view .LVU353
 1062 0032 3946     		mov	r1, r7
 1063 0034 F06A     		ldr	r0, [r6, #44]
 1064 0036 9847     		blx	r3
 1065              	.LVL94:
 1066              		.loc 1 272 20 view .LVU354
 1067 0038 80B9     		cbnz	r0, .L78
 273:System/storage/Storage_Dev_Port.c ****                     return false;
 274:System/storage/Storage_Dev_Port.c ****             
 275:System/storage/Storage_Dev_Port.c ****                 erase_addr += Storage_TabSize;
 1068              		.loc 1 275 17 is_stmt 1 view .LVU355
 1069              		.loc 1 275 28 is_stmt 0 view .LVU356
 1070 003a 07F58057 		add	r7, r7, #4096
 1071              	.LVL95:
 276:System/storage/Storage_Dev_Port.c ****                 format_size -= Storage_TabSize;
 1072              		.loc 1 276 17 is_stmt 1 view .LVU357
 1073              		.loc 1 276 29 is_stmt 0 view .LVU358
 1074 003e A5F58055 		sub	r5, r5, #4096
 1075              	.LVL96:
 277:System/storage/Storage_Dev_Port.c ****                 break;
 1076              		.loc 1 277 17 is_stmt 1 view .LVU359
 1077 0042 EBE7     		b	.L71
 1078              	.L83:
 1079              		.loc 1 277 17 is_stmt 0 view .LVU360
 1080              	.LBE8:
 278:System/storage/Storage_Dev_Port.c **** 
 279:System/storage/Storage_Dev_Port.c ****             default: break;
 280:System/storage/Storage_Dev_Port.c ****         }
 281:System/storage/Storage_Dev_Port.c ****     }
 282:System/storage/Storage_Dev_Port.c **** 
 283:System/storage/Storage_Dev_Port.c ****     return false;
 1081              		.loc 1 283 12 view .LVU361
 1082 0044 0020     		movs	r0, #0
 1083              	.LBB9:
 1084 0046 02E0     		b	.L69
 1085              	.LVL97:
 1086              	.L73:
 1087              	.LCFI16:
 1088              		.cfi_def_cfa_offset 0
 1089              		.cfi_restore 3
 1090              		.cfi_restore 4
 1091              		.cfi_restore 5
 1092              		.cfi_restore 6
 1093              		.cfi_restore 7
 1094              		.cfi_restore 14
 1095              		.loc 1 283 12 view .LVU362
 1096              	.LBE9:
 262:System/storage/Storage_Dev_Port.c **** 
 1097              		.loc 1 262 16 view .LVU363
 1098 0048 0020     		movs	r0, #0
 1099              	.LVL98:
 284:System/storage/Storage_Dev_Port.c **** }
ARM GAS  C:\Users\8bit\AppData\Local\Temp\ccMxBSAI.s 			page 29


 1100              		.loc 1 284 1 view .LVU364
 1101 004a 7047     		bx	lr
 1102              	.LVL99:
 1103              	.L74:
 1104              	.LCFI17:
 1105              		.cfi_def_cfa_offset 24
 1106              		.cfi_offset 3, -24
 1107              		.cfi_offset 4, -20
 1108              		.cfi_offset 5, -16
 1109              		.cfi_offset 6, -12
 1110              		.cfi_offset 7, -8
 1111              		.cfi_offset 14, -4
 262:System/storage/Storage_Dev_Port.c **** 
 1112              		.loc 1 262 16 view .LVU365
 1113 004c 0020     		movs	r0, #0
 1114              	.LVL100:
 1115              	.L69:
 1116              		.loc 1 284 1 view .LVU366
 1117 004e F8BD     		pop	{r3, r4, r5, r6, r7, pc}
 1118              	.LVL101:
 1119              	.L75:
 262:System/storage/Storage_Dev_Port.c **** 
 1120              		.loc 1 262 16 view .LVU367
 1121 0050 0020     		movs	r0, #0
 1122              	.LVL102:
 262:System/storage/Storage_Dev_Port.c **** 
 1123              		.loc 1 262 16 view .LVU368
 1124 0052 FCE7     		b	.L69
 1125              	.LVL103:
 1126              	.L76:
 262:System/storage/Storage_Dev_Port.c **** 
 1127              		.loc 1 262 16 view .LVU369
 1128 0054 0020     		movs	r0, #0
 1129              	.LVL104:
 262:System/storage/Storage_Dev_Port.c **** 
 1130              		.loc 1 262 16 view .LVU370
 1131 0056 FAE7     		b	.L69
 1132              	.LVL105:
 1133              	.L77:
 1134              	.LBB10:
 270:System/storage/Storage_Dev_Port.c **** 
 1135              		.loc 1 270 28 view .LVU371
 1136 0058 0120     		movs	r0, #1
 1137 005a F8E7     		b	.L69
 1138              	.L78:
 273:System/storage/Storage_Dev_Port.c ****             
 1139              		.loc 1 273 28 view .LVU372
 1140 005c 0020     		movs	r0, #0
 1141 005e F6E7     		b	.L69
 1142              	.LBE10:
 1143              		.cfi_endproc
 1144              	.LFE10:
 1146              		.section	.text.Storage_Dev_Param_Erase,"ax",%progbits
 1147              		.align	1
 1148              		.syntax unified
 1149              		.thumb
 1150              		.thumb_func
ARM GAS  C:\Users\8bit\AppData\Local\Temp\ccMxBSAI.s 			page 30


 1152              	Storage_Dev_Param_Erase:
 1153              	.LVL106:
 1154              	.LFB15:
 285:System/storage/Storage_Dev_Port.c **** 
 286:System/storage/Storage_Dev_Port.c **** static bool Storage_Dev_Firmware_Read(StorageDevObj_TypeDef *p_dev, uint32_t base_addr, uint32_t ad
 287:System/storage/Storage_Dev_Port.c **** {
 288:System/storage/Storage_Dev_Port.c ****     uint32_t read_addr = 0;
 289:System/storage/Storage_Dev_Port.c ****     uint32_t section_addr = 0;
 290:System/storage/Storage_Dev_Port.c ****     uint32_t read_size = 0;
 291:System/storage/Storage_Dev_Port.c **** 
 292:System/storage/Storage_Dev_Port.c ****     if ((p_dev == NULL) || \
 293:System/storage/Storage_Dev_Port.c ****         (p_data == NULL) || \
 294:System/storage/Storage_Dev_Port.c ****         (size == 0) || \
 295:System/storage/Storage_Dev_Port.c ****         (sizeof(read_tmp) < size) || \
 296:System/storage/Storage_Dev_Port.c ****         (Storage_TabSize == 0))
 297:System/storage/Storage_Dev_Port.c ****         return false;
 298:System/storage/Storage_Dev_Port.c ****         
 299:System/storage/Storage_Dev_Port.c ****     read_addr = addr_offset + base_addr;
 300:System/storage/Storage_Dev_Port.c ****     while (true)
 301:System/storage/Storage_Dev_Port.c ****     {
 302:System/storage/Storage_Dev_Port.c ****         switch (p_dev->chip_type)
 303:System/storage/Storage_Dev_Port.c ****         {
 304:System/storage/Storage_Dev_Port.c ****             case Storage_ChipType_W25Qxx:
 305:System/storage/Storage_Dev_Port.c ****                 section_addr = To_DevW25Qxx_API(p_dev->api)->get_section_start_addr(To_DevW25Qxx_OB
 306:System/storage/Storage_Dev_Port.c ****                 if (To_DevW25Qxx_API(p_dev->api)->read(To_DevW25Qxx_OBJ(p_dev->obj), section_addr, 
 307:System/storage/Storage_Dev_Port.c ****                     return false;
 308:System/storage/Storage_Dev_Port.c **** 
 309:System/storage/Storage_Dev_Port.c ****                 if ((read_addr + size) > (section_addr + Storage_TabSize))
 310:System/storage/Storage_Dev_Port.c ****                 {
 311:System/storage/Storage_Dev_Port.c ****                     read_size = Storage_TabSize - (read_addr - section_addr);
 312:System/storage/Storage_Dev_Port.c ****                     size -= read_size;
 313:System/storage/Storage_Dev_Port.c ****                     p_data += read_size;
 314:System/storage/Storage_Dev_Port.c ****                 }
 315:System/storage/Storage_Dev_Port.c ****                 else
 316:System/storage/Storage_Dev_Port.c ****                 {
 317:System/storage/Storage_Dev_Port.c ****                     read_size = size;
 318:System/storage/Storage_Dev_Port.c ****                     size = 0;
 319:System/storage/Storage_Dev_Port.c ****                 }
 320:System/storage/Storage_Dev_Port.c **** 
 321:System/storage/Storage_Dev_Port.c ****                 memcpy(p_data, &read_tmp[read_addr - section_addr], read_size);
 322:System/storage/Storage_Dev_Port.c ****                 read_addr = section_addr + Storage_TabSize;
 323:System/storage/Storage_Dev_Port.c **** 
 324:System/storage/Storage_Dev_Port.c ****                 if (size == 0)
 325:System/storage/Storage_Dev_Port.c ****                     return true;
 326:System/storage/Storage_Dev_Port.c ****             break;
 327:System/storage/Storage_Dev_Port.c ****         
 328:System/storage/Storage_Dev_Port.c ****             default: return false;
 329:System/storage/Storage_Dev_Port.c ****         }
 330:System/storage/Storage_Dev_Port.c ****     }
 331:System/storage/Storage_Dev_Port.c **** }
 332:System/storage/Storage_Dev_Port.c **** 
 333:System/storage/Storage_Dev_Port.c **** static bool Storage_Dev_Firmware_Write(StorageDevObj_TypeDef *p_dev, uint32_t base_addr, uint32_t a
 334:System/storage/Storage_Dev_Port.c **** {
 335:System/storage/Storage_Dev_Port.c ****     uint32_t write_addr = base_addr + addr_offset;
 336:System/storage/Storage_Dev_Port.c ****     uint32_t section_addr = 0;
 337:System/storage/Storage_Dev_Port.c ****     uint32_t write_size = 0;
 338:System/storage/Storage_Dev_Port.c ****     
ARM GAS  C:\Users\8bit\AppData\Local\Temp\ccMxBSAI.s 			page 31


 339:System/storage/Storage_Dev_Port.c ****     if ((p_dev == NULL) || \
 340:System/storage/Storage_Dev_Port.c ****         (Storage_TabSize == 0) || \
 341:System/storage/Storage_Dev_Port.c ****         (sizeof(read_tmp) < size) || \
 342:System/storage/Storage_Dev_Port.c ****         (p_dev->api == NULL) || \
 343:System/storage/Storage_Dev_Port.c ****         (p_dev->obj == NULL))
 344:System/storage/Storage_Dev_Port.c ****         return false;
 345:System/storage/Storage_Dev_Port.c **** 
 346:System/storage/Storage_Dev_Port.c ****     switch ((uint8_t)p_dev->chip_type)
 347:System/storage/Storage_Dev_Port.c ****     {
 348:System/storage/Storage_Dev_Port.c ****         case Storage_ChipType_W25Qxx:
 349:System/storage/Storage_Dev_Port.c ****             section_addr = To_DevW25Qxx_API(p_dev->api)->get_section_start_addr(To_DevW25Qxx_OBJ(p_
 350:System/storage/Storage_Dev_Port.c **** 
 351:System/storage/Storage_Dev_Port.c ****             while (true)
 352:System/storage/Storage_Dev_Port.c ****             {
 353:System/storage/Storage_Dev_Port.c ****                 if (size == 0)
 354:System/storage/Storage_Dev_Port.c ****                     return true;
 355:System/storage/Storage_Dev_Port.c **** 
 356:System/storage/Storage_Dev_Port.c ****                 /* read section first */
 357:System/storage/Storage_Dev_Port.c ****                 memset(read_tmp, 0, Storage_TabSize);
 358:System/storage/Storage_Dev_Port.c ****                 if (To_DevW25Qxx_API(p_dev->api)->read(To_DevW25Qxx_OBJ(p_dev->obj), section_addr, 
 359:System/storage/Storage_Dev_Port.c ****                     return false;
 360:System/storage/Storage_Dev_Port.c **** 
 361:System/storage/Storage_Dev_Port.c ****                 /* erase whole section */
 362:System/storage/Storage_Dev_Port.c ****                 if (To_DevW25Qxx_API(p_dev->api)->erase_sector(To_DevW25Qxx_OBJ(p_dev->obj), sectio
 363:System/storage/Storage_Dev_Port.c ****                     return false;
 364:System/storage/Storage_Dev_Port.c **** 
 365:System/storage/Storage_Dev_Port.c ****                 if ((write_addr + size) >= (section_addr + Storage_TabSize))
 366:System/storage/Storage_Dev_Port.c ****                 {
 367:System/storage/Storage_Dev_Port.c ****                     write_size = Storage_TabSize - (write_addr - section_addr);
 368:System/storage/Storage_Dev_Port.c ****                     size -= write_size;
 369:System/storage/Storage_Dev_Port.c ****                 }
 370:System/storage/Storage_Dev_Port.c ****                 else
 371:System/storage/Storage_Dev_Port.c ****                 {
 372:System/storage/Storage_Dev_Port.c ****                     write_size = size;
 373:System/storage/Storage_Dev_Port.c ****                     size = 0;
 374:System/storage/Storage_Dev_Port.c ****                 }
 375:System/storage/Storage_Dev_Port.c **** 
 376:System/storage/Storage_Dev_Port.c ****                 /* update to flash */
 377:System/storage/Storage_Dev_Port.c ****                 memcpy(&read_tmp[write_addr - section_addr], p_data, write_size);
 378:System/storage/Storage_Dev_Port.c ****                 if (To_DevW25Qxx_API(p_dev->api)->write(To_DevW25Qxx_OBJ(p_dev->obj), section_addr,
 379:System/storage/Storage_Dev_Port.c ****                     return false;
 380:System/storage/Storage_Dev_Port.c **** 
 381:System/storage/Storage_Dev_Port.c ****                 /* update section address */
 382:System/storage/Storage_Dev_Port.c ****                 p_data += write_size;
 383:System/storage/Storage_Dev_Port.c ****                 write_addr += write_size;
 384:System/storage/Storage_Dev_Port.c ****                 section_addr = To_DevW25Qxx_API(p_dev->api)->get_section_start_addr(To_DevW25Qxx_OB
 385:System/storage/Storage_Dev_Port.c ****             }
 386:System/storage/Storage_Dev_Port.c ****             break;
 387:System/storage/Storage_Dev_Port.c **** 
 388:System/storage/Storage_Dev_Port.c ****         default: return false;
 389:System/storage/Storage_Dev_Port.c ****     }
 390:System/storage/Storage_Dev_Port.c **** }
 391:System/storage/Storage_Dev_Port.c **** 
 392:System/storage/Storage_Dev_Port.c **** static bool Storage_Dev_Param_Read(StorageDevObj_TypeDef *p_dev, uint32_t base_addr, uint32_t addr_
 393:System/storage/Storage_Dev_Port.c **** {
 394:System/storage/Storage_Dev_Port.c ****     uint32_t read_start_addr = base_addr + addr_offset;
 395:System/storage/Storage_Dev_Port.c ****     uint32_t flash_end_addr = 0;
ARM GAS  C:\Users\8bit\AppData\Local\Temp\ccMxBSAI.s 			page 32


 396:System/storage/Storage_Dev_Port.c ****     uint32_t section_start_addr = 0;
 397:System/storage/Storage_Dev_Port.c ****     uint32_t next_read_addr = 0;
 398:System/storage/Storage_Dev_Port.c ****     uint32_t section_size = 0;
 399:System/storage/Storage_Dev_Port.c ****     uint32_t read_offset = 0;
 400:System/storage/Storage_Dev_Port.c ****     uint32_t read_len = len;
 401:System/storage/Storage_Dev_Port.c **** 
 402:System/storage/Storage_Dev_Port.c ****     if ((p_dev == NULL) || \
 403:System/storage/Storage_Dev_Port.c ****         (p_dev->api == NULL) || \
 404:System/storage/Storage_Dev_Port.c ****         (p_dev->obj == NULL) || \
 405:System/storage/Storage_Dev_Port.c ****         (sizeof(read_tmp) < len) || \
 406:System/storage/Storage_Dev_Port.c ****         (p_data == 0) || \
 407:System/storage/Storage_Dev_Port.c ****         (len == 0))
 408:System/storage/Storage_Dev_Port.c ****         return false;
 409:System/storage/Storage_Dev_Port.c ****         
 410:System/storage/Storage_Dev_Port.c ****     switch((uint8_t)p_dev->chip_type)
 411:System/storage/Storage_Dev_Port.c ****     {
 412:System/storage/Storage_Dev_Port.c ****         case Storage_ChipType_W25Qxx:
 413:System/storage/Storage_Dev_Port.c ****             section_size = To_DevW25Qxx_API(p_dev->api)->info(To_DevW25Qxx_OBJ(p_dev->obj)).subsect
 414:System/storage/Storage_Dev_Port.c ****             /* get w25qxx device info */
 415:System/storage/Storage_Dev_Port.c ****             /* address check */
 416:System/storage/Storage_Dev_Port.c ****             flash_end_addr = To_DevW25Qxx_API(p_dev->api)->info(To_DevW25Qxx_OBJ(p_dev->obj)).start
 417:System/storage/Storage_Dev_Port.c ****             if (flash_end_addr > read_start_addr)
 418:System/storage/Storage_Dev_Port.c ****                 return false;
 419:System/storage/Storage_Dev_Port.c **** 
 420:System/storage/Storage_Dev_Port.c ****             /* range check */
 421:System/storage/Storage_Dev_Port.c ****             flash_end_addr += To_DevW25Qxx_API(p_dev->api)->info(To_DevW25Qxx_OBJ(p_dev->obj)).flas
 422:System/storage/Storage_Dev_Port.c ****             if ((len + read_start_addr) > flash_end_addr)
 423:System/storage/Storage_Dev_Port.c ****                 return false;
 424:System/storage/Storage_Dev_Port.c **** 
 425:System/storage/Storage_Dev_Port.c ****             if (section_size == 0)
 426:System/storage/Storage_Dev_Port.c ****                 return false;
 427:System/storage/Storage_Dev_Port.c ****                 
 428:System/storage/Storage_Dev_Port.c ****             section_start_addr = To_DevW25Qxx_API(p_dev->api)->get_section_start_addr(To_DevW25Qxx_
 429:System/storage/Storage_Dev_Port.c ****             read_offset = read_start_addr - section_start_addr;
 430:System/storage/Storage_Dev_Port.c ****             if (section_size > sizeof(read_tmp))
 431:System/storage/Storage_Dev_Port.c ****                 return false;
 432:System/storage/Storage_Dev_Port.c **** 
 433:System/storage/Storage_Dev_Port.c ****             while(true)
 434:System/storage/Storage_Dev_Port.c ****             {
 435:System/storage/Storage_Dev_Port.c ****                 /* circumstances 1: store data size less than flash sector size and only none multi
 436:System/storage/Storage_Dev_Port.c ****                 /* circumstances 2: store data size less than flash sector length but need to read 
 437:System/storage/Storage_Dev_Port.c ****                 /* circumstances 3: store data size large than flash sector length */
 438:System/storage/Storage_Dev_Port.c ****                 if (read_offset + read_len > section_size)
 439:System/storage/Storage_Dev_Port.c ****                     read_len = section_size - read_offset;
 440:System/storage/Storage_Dev_Port.c **** 
 441:System/storage/Storage_Dev_Port.c ****                 /* read whole section */
 442:System/storage/Storage_Dev_Port.c ****                 if (To_DevW25Qxx_API(p_dev->api)->read(To_DevW25Qxx_OBJ(p_dev->obj), section_start_
 443:System/storage/Storage_Dev_Port.c ****                     return false;
 444:System/storage/Storage_Dev_Port.c ****             
 445:System/storage/Storage_Dev_Port.c ****                 memcpy(p_data, read_tmp + read_offset, read_len);
 446:System/storage/Storage_Dev_Port.c ****                 memset(read_tmp, 0, section_size);
 447:System/storage/Storage_Dev_Port.c **** 
 448:System/storage/Storage_Dev_Port.c ****                 len -= read_len;
 449:System/storage/Storage_Dev_Port.c ****                 if (len == 0)
 450:System/storage/Storage_Dev_Port.c ****                     return true;
 451:System/storage/Storage_Dev_Port.c ****             
 452:System/storage/Storage_Dev_Port.c ****                 read_offset = 0;
ARM GAS  C:\Users\8bit\AppData\Local\Temp\ccMxBSAI.s 			page 33


 453:System/storage/Storage_Dev_Port.c ****                 next_read_addr = To_DevW25Qxx_API(p_dev->api)->get_section_start_addr(To_DevW25Qxx_
 454:System/storage/Storage_Dev_Port.c ****                 if (next_read_addr == section_start_addr)
 455:System/storage/Storage_Dev_Port.c ****                     read_offset = read_len;
 456:System/storage/Storage_Dev_Port.c ****                 
 457:System/storage/Storage_Dev_Port.c ****                 p_data += read_len;
 458:System/storage/Storage_Dev_Port.c ****                 read_len = len;
 459:System/storage/Storage_Dev_Port.c ****                 section_start_addr = next_read_addr;
 460:System/storage/Storage_Dev_Port.c ****             }
 461:System/storage/Storage_Dev_Port.c ****             break;
 462:System/storage/Storage_Dev_Port.c **** 
 463:System/storage/Storage_Dev_Port.c ****         default: return false;
 464:System/storage/Storage_Dev_Port.c ****     }
 465:System/storage/Storage_Dev_Port.c **** 
 466:System/storage/Storage_Dev_Port.c ****     return false;
 467:System/storage/Storage_Dev_Port.c **** }
 468:System/storage/Storage_Dev_Port.c **** 
 469:System/storage/Storage_Dev_Port.c **** static bool Storage_Dev_Param_Write(StorageDevObj_TypeDef *p_dev, uint32_t base_addr, uint32_t addr
 470:System/storage/Storage_Dev_Port.c **** {
 471:System/storage/Storage_Dev_Port.c ****     uint32_t write_start_addr = base_addr + addr_offset;
 472:System/storage/Storage_Dev_Port.c ****     uint32_t flash_end_addr = 0;
 473:System/storage/Storage_Dev_Port.c ****     uint32_t section_start_addr = 0;
 474:System/storage/Storage_Dev_Port.c ****     uint32_t next_write_addr = 0;
 475:System/storage/Storage_Dev_Port.c ****     uint32_t section_size = 0;
 476:System/storage/Storage_Dev_Port.c ****     uint32_t write_offset = 0;
 477:System/storage/Storage_Dev_Port.c ****     uint32_t write_len = len;
 478:System/storage/Storage_Dev_Port.c **** 
 479:System/storage/Storage_Dev_Port.c ****     if ((p_dev == NULL) || \
 480:System/storage/Storage_Dev_Port.c ****         (p_dev->api == NULL) || \
 481:System/storage/Storage_Dev_Port.c ****         (p_dev->obj == NULL) || \
 482:System/storage/Storage_Dev_Port.c ****         (p_data == NULL) || \
 483:System/storage/Storage_Dev_Port.c ****         (len == 0))
 484:System/storage/Storage_Dev_Port.c ****         return false;
 485:System/storage/Storage_Dev_Port.c **** 
 486:System/storage/Storage_Dev_Port.c ****     switch((uint8_t)p_dev->chip_type)
 487:System/storage/Storage_Dev_Port.c ****     {
 488:System/storage/Storage_Dev_Port.c ****         case Storage_ChipType_W25Qxx:
 489:System/storage/Storage_Dev_Port.c ****             section_size = To_DevW25Qxx_API(p_dev->api)->info(To_DevW25Qxx_OBJ(p_dev->obj)).subsect
 490:System/storage/Storage_Dev_Port.c ****             /* get w25qxx device info */
 491:System/storage/Storage_Dev_Port.c ****             /* address check */
 492:System/storage/Storage_Dev_Port.c ****             flash_end_addr = To_DevW25Qxx_API(p_dev->api)->info(To_DevW25Qxx_OBJ(p_dev->obj)).start
 493:System/storage/Storage_Dev_Port.c ****             if (flash_end_addr > write_start_addr)
 494:System/storage/Storage_Dev_Port.c ****                 return false;
 495:System/storage/Storage_Dev_Port.c **** 
 496:System/storage/Storage_Dev_Port.c ****             /* range check */
 497:System/storage/Storage_Dev_Port.c ****             flash_end_addr += To_DevW25Qxx_API(p_dev->api)->info(To_DevW25Qxx_OBJ(p_dev->obj)).flas
 498:System/storage/Storage_Dev_Port.c ****             if ((len + write_start_addr) > flash_end_addr)
 499:System/storage/Storage_Dev_Port.c ****                 return false;
 500:System/storage/Storage_Dev_Port.c ****             
 501:System/storage/Storage_Dev_Port.c ****             if (section_size == 0)
 502:System/storage/Storage_Dev_Port.c ****                 return false;
 503:System/storage/Storage_Dev_Port.c ****                 
 504:System/storage/Storage_Dev_Port.c ****             section_start_addr = To_DevW25Qxx_API(p_dev->api)->get_section_start_addr(To_DevW25Qxx_
 505:System/storage/Storage_Dev_Port.c ****             write_offset = write_start_addr - section_start_addr;
 506:System/storage/Storage_Dev_Port.c ****             if (section_size > sizeof(write_tmp))
 507:System/storage/Storage_Dev_Port.c ****                 return false;
 508:System/storage/Storage_Dev_Port.c **** 
 509:System/storage/Storage_Dev_Port.c ****             while(true)
ARM GAS  C:\Users\8bit\AppData\Local\Temp\ccMxBSAI.s 			page 34


 510:System/storage/Storage_Dev_Port.c ****             {
 511:System/storage/Storage_Dev_Port.c ****                 /* circumstances 1: store data size less than flash sector size and only none multi
 512:System/storage/Storage_Dev_Port.c ****                 /* circumstances 2: store data size less than flash sector length but need to write
 513:System/storage/Storage_Dev_Port.c ****                 /* circumstances 3: store data size large than flash sector length */
 514:System/storage/Storage_Dev_Port.c ****                 /* read whole section */
 515:System/storage/Storage_Dev_Port.c ****                 if (To_DevW25Qxx_API(p_dev->api)->read(To_DevW25Qxx_OBJ(p_dev->obj), section_start_
 516:System/storage/Storage_Dev_Port.c ****                     return false;
 517:System/storage/Storage_Dev_Port.c **** 
 518:System/storage/Storage_Dev_Port.c ****                 /* erase whole section */
 519:System/storage/Storage_Dev_Port.c ****                 if (To_DevW25Qxx_API(p_dev->api)->erase_sector(To_DevW25Qxx_OBJ(p_dev->obj), sectio
 520:System/storage/Storage_Dev_Port.c ****                     return false;
 521:System/storage/Storage_Dev_Port.c **** 
 522:System/storage/Storage_Dev_Port.c ****                 /* update whole section */
 523:System/storage/Storage_Dev_Port.c ****                 if (write_offset + write_len > section_size)
 524:System/storage/Storage_Dev_Port.c ****                     write_len = section_size - write_offset;
 525:System/storage/Storage_Dev_Port.c ****                 
 526:System/storage/Storage_Dev_Port.c ****                 /* copy data to section data read out */
 527:System/storage/Storage_Dev_Port.c ****                 memcpy(write_tmp + write_offset, p_data, write_len);
 528:System/storage/Storage_Dev_Port.c **** 
 529:System/storage/Storage_Dev_Port.c ****                 DevW25Qxx_Error_List state = To_DevW25Qxx_API(p_dev->api)->write(To_DevW25Qxx_OBJ(p
 530:System/storage/Storage_Dev_Port.c **** 
 531:System/storage/Storage_Dev_Port.c ****                 /* clear cache buff */
 532:System/storage/Storage_Dev_Port.c ****                 memset(write_tmp, 0, section_size);
 533:System/storage/Storage_Dev_Port.c ****                 
 534:System/storage/Storage_Dev_Port.c ****                 len -= write_len;
 535:System/storage/Storage_Dev_Port.c ****                 if (state == DevW25Qxx_Ok)
 536:System/storage/Storage_Dev_Port.c ****                 {
 537:System/storage/Storage_Dev_Port.c ****                     if (len == 0)
 538:System/storage/Storage_Dev_Port.c ****                         return true;
 539:System/storage/Storage_Dev_Port.c ****                 }
 540:System/storage/Storage_Dev_Port.c ****                 else
 541:System/storage/Storage_Dev_Port.c ****                     return false;
 542:System/storage/Storage_Dev_Port.c **** 
 543:System/storage/Storage_Dev_Port.c ****                 write_offset = 0;
 544:System/storage/Storage_Dev_Port.c ****                 next_write_addr = To_DevW25Qxx_API(p_dev->api)->get_section_start_addr(To_DevW25Qxx
 545:System/storage/Storage_Dev_Port.c ****                 if (next_write_addr == section_start_addr)
 546:System/storage/Storage_Dev_Port.c ****                     write_offset = write_len;
 547:System/storage/Storage_Dev_Port.c **** 
 548:System/storage/Storage_Dev_Port.c ****                 p_data += write_len;
 549:System/storage/Storage_Dev_Port.c ****                 write_len = len;
 550:System/storage/Storage_Dev_Port.c ****                 section_start_addr = next_write_addr; 
 551:System/storage/Storage_Dev_Port.c ****             }
 552:System/storage/Storage_Dev_Port.c ****             return false;
 553:System/storage/Storage_Dev_Port.c **** 
 554:System/storage/Storage_Dev_Port.c ****         default: return false;
 555:System/storage/Storage_Dev_Port.c ****     }
 556:System/storage/Storage_Dev_Port.c **** 
 557:System/storage/Storage_Dev_Port.c ****     return false;
 558:System/storage/Storage_Dev_Port.c **** }
 559:System/storage/Storage_Dev_Port.c **** 
 560:System/storage/Storage_Dev_Port.c **** static bool Storage_Dev_Param_Erase(StorageDevObj_TypeDef *p_dev, uint32_t base_addr, uint32_t addr
 561:System/storage/Storage_Dev_Port.c **** {
 1155              		.loc 1 561 1 is_stmt 1 view -0
 1156              		.cfi_startproc
 1157              		@ args = 0, pretend = 0, frame = 32
 1158              		@ frame_needed = 0, uses_anonymous_args = 0
 1159              		.loc 1 561 1 is_stmt 0 view .LVU374
ARM GAS  C:\Users\8bit\AppData\Local\Temp\ccMxBSAI.s 			page 35


 1160 0000 30B5     		push	{r4, r5, lr}
 1161              	.LCFI18:
 1162              		.cfi_def_cfa_offset 12
 1163              		.cfi_offset 4, -12
 1164              		.cfi_offset 5, -8
 1165              		.cfi_offset 14, -4
 1166 0002 89B0     		sub	sp, sp, #36
 1167              	.LCFI19:
 1168              		.cfi_def_cfa_offset 48
 562:System/storage/Storage_Dev_Port.c ****     uint32_t erase_start_addr = base_addr + addr_offset;
 1169              		.loc 1 562 5 is_stmt 1 view .LVU375
 1170              		.loc 1 562 14 is_stmt 0 view .LVU376
 1171 0004 8D18     		adds	r5, r1, r2
 1172              	.LVL107:
 563:System/storage/Storage_Dev_Port.c **** 
 564:System/storage/Storage_Dev_Port.c ****     if ((p_dev == NULL) || \
 1173              		.loc 1 564 5 is_stmt 1 view .LVU377
 1174              		.loc 1 564 8 is_stmt 0 view .LVU378
 1175 0006 C8B1     		cbz	r0, .L86
 1176 0008 0446     		mov	r4, r0
 565:System/storage/Storage_Dev_Port.c ****         (p_dev->api == NULL) || \
 1177              		.loc 1 565 15 discriminator 1 view .LVU379
 1178 000a 026B     		ldr	r2, [r0, #48]
 1179              	.LVL108:
 564:System/storage/Storage_Dev_Port.c ****         (p_dev->api == NULL) || \
 1180              		.loc 1 564 25 discriminator 1 view .LVU380
 1181 000c C2B1     		cbz	r2, .L87
 566:System/storage/Storage_Dev_Port.c ****         (p_dev->obj == NULL) || \
 1182              		.loc 1 566 15 view .LVU381
 1183 000e C16A     		ldr	r1, [r0, #44]
 1184              	.LVL109:
 565:System/storage/Storage_Dev_Port.c ****         (p_dev->api == NULL) || \
 1185              		.loc 1 565 30 view .LVU382
 1186 0010 C1B1     		cbz	r1, .L88
 1187              		.loc 1 566 30 view .LVU383
 1188 0012 CBB1     		cbz	r3, .L89
 567:System/storage/Storage_Dev_Port.c ****         (len == 0))
 568:System/storage/Storage_Dev_Port.c ****         return false;
 569:System/storage/Storage_Dev_Port.c **** 
 570:System/storage/Storage_Dev_Port.c ****     /* erase external flash sector */
 571:System/storage/Storage_Dev_Port.c ****     switch((uint8_t)p_dev->chip_type)
 1189              		.loc 1 571 5 is_stmt 1 view .LVU384
 1190              		.loc 1 571 26 is_stmt 0 view .LVU385
 1191 0014 0378     		ldrb	r3, [r0]	@ zero_extendqisi2
 1192              	.LVL110:
 1193              		.loc 1 571 5 view .LVU386
 1194 0016 012B     		cmp	r3, #1
 1195 0018 02D0     		beq	.L94
 572:System/storage/Storage_Dev_Port.c ****     {
 573:System/storage/Storage_Dev_Port.c ****         case Storage_ChipType_W25Qxx:
 574:System/storage/Storage_Dev_Port.c ****                 /* get w25qxx device info */
 575:System/storage/Storage_Dev_Port.c ****                 /* address check */
 576:System/storage/Storage_Dev_Port.c ****                 if (erase_start_addr < To_DevW25Qxx_API(p_dev->api)->info(To_DevW25Qxx_OBJ(p_dev->o
 577:System/storage/Storage_Dev_Port.c ****                     return false;
 578:System/storage/Storage_Dev_Port.c **** 
 579:System/storage/Storage_Dev_Port.c ****                 /* W25Qxx device read */
 580:System/storage/Storage_Dev_Port.c ****                 if (To_DevW25Qxx_API(p_dev->api)->erase_sector(To_DevW25Qxx_OBJ(p_dev->obj), erase_
ARM GAS  C:\Users\8bit\AppData\Local\Temp\ccMxBSAI.s 			page 36


 581:System/storage/Storage_Dev_Port.c ****                     return true;
 582:System/storage/Storage_Dev_Port.c ****             break;
 583:System/storage/Storage_Dev_Port.c **** 
 584:System/storage/Storage_Dev_Port.c ****         default: return false;
 1196              		.loc 1 584 25 view .LVU387
 1197 001a 0020     		movs	r0, #0
 1198              	.LVL111:
 1199              	.L85:
 585:System/storage/Storage_Dev_Port.c ****     }
 586:System/storage/Storage_Dev_Port.c ****     
 587:System/storage/Storage_Dev_Port.c ****     return false;
 588:System/storage/Storage_Dev_Port.c **** }
 1200              		.loc 1 588 1 view .LVU388
 1201 001c 09B0     		add	sp, sp, #36
 1202              	.LCFI20:
 1203              		.cfi_remember_state
 1204              		.cfi_def_cfa_offset 12
 1205              		@ sp needed
 1206 001e 30BD     		pop	{r4, r5, pc}
 1207              	.LVL112:
 1208              	.L94:
 1209              	.LCFI21:
 1210              		.cfi_restore_state
 576:System/storage/Storage_Dev_Port.c ****                     return false;
 1211              		.loc 1 576 17 is_stmt 1 view .LVU389
 576:System/storage/Storage_Dev_Port.c ****                     return false;
 1212              		.loc 1 576 68 is_stmt 0 view .LVU390
 1213 0020 5369     		ldr	r3, [r2, #20]
 576:System/storage/Storage_Dev_Port.c ****                     return false;
 1214              		.loc 1 576 40 view .LVU391
 1215 0022 01A8     		add	r0, sp, #4
 1216              	.LVL113:
 576:System/storage/Storage_Dev_Port.c ****                     return false;
 1217              		.loc 1 576 40 view .LVU392
 1218 0024 9847     		blx	r3
 1219              	.LVL114:
 576:System/storage/Storage_Dev_Port.c ****                     return false;
 1220              		.loc 1 576 104 view .LVU393
 1221 0026 029B     		ldr	r3, [sp, #8]
 576:System/storage/Storage_Dev_Port.c ****                     return false;
 1222              		.loc 1 576 20 view .LVU394
 1223 0028 AB42     		cmp	r3, r5
 1224 002a 0FD8     		bhi	.L91
 580:System/storage/Storage_Dev_Port.c ****                     return true;
 1225              		.loc 1 580 17 is_stmt 1 view .LVU395
 580:System/storage/Storage_Dev_Port.c ****                     return true;
 1226              		.loc 1 580 21 is_stmt 0 view .LVU396
 1227 002c 236B     		ldr	r3, [r4, #48]
 580:System/storage/Storage_Dev_Port.c ****                     return true;
 1228              		.loc 1 580 49 view .LVU397
 1229 002e DB68     		ldr	r3, [r3, #12]
 580:System/storage/Storage_Dev_Port.c ****                     return true;
 1230              		.loc 1 580 21 view .LVU398
 1231 0030 2946     		mov	r1, r5
 1232 0032 E06A     		ldr	r0, [r4, #44]
 1233 0034 9847     		blx	r3
 1234              	.LVL115:
ARM GAS  C:\Users\8bit\AppData\Local\Temp\ccMxBSAI.s 			page 37


 580:System/storage/Storage_Dev_Port.c ****                     return true;
 1235              		.loc 1 580 20 view .LVU399
 1236 0036 58B1     		cbz	r0, .L92
 587:System/storage/Storage_Dev_Port.c **** }
 1237              		.loc 1 587 12 view .LVU400
 1238 0038 0020     		movs	r0, #0
 1239 003a EFE7     		b	.L85
 1240              	.LVL116:
 1241              	.L86:
 568:System/storage/Storage_Dev_Port.c **** 
 1242              		.loc 1 568 16 view .LVU401
 1243 003c 0020     		movs	r0, #0
 1244              	.LVL117:
 568:System/storage/Storage_Dev_Port.c **** 
 1245              		.loc 1 568 16 view .LVU402
 1246 003e EDE7     		b	.L85
 1247              	.LVL118:
 1248              	.L87:
 568:System/storage/Storage_Dev_Port.c **** 
 1249              		.loc 1 568 16 view .LVU403
 1250 0040 0020     		movs	r0, #0
 1251              	.LVL119:
 568:System/storage/Storage_Dev_Port.c **** 
 1252              		.loc 1 568 16 view .LVU404
 1253 0042 EBE7     		b	.L85
 1254              	.LVL120:
 1255              	.L88:
 568:System/storage/Storage_Dev_Port.c **** 
 1256              		.loc 1 568 16 view .LVU405
 1257 0044 0020     		movs	r0, #0
 1258              	.LVL121:
 568:System/storage/Storage_Dev_Port.c **** 
 1259              		.loc 1 568 16 view .LVU406
 1260 0046 E9E7     		b	.L85
 1261              	.LVL122:
 1262              	.L89:
 568:System/storage/Storage_Dev_Port.c **** 
 1263              		.loc 1 568 16 view .LVU407
 1264 0048 0020     		movs	r0, #0
 1265              	.LVL123:
 568:System/storage/Storage_Dev_Port.c **** 
 1266              		.loc 1 568 16 view .LVU408
 1267 004a E7E7     		b	.L85
 1268              	.LVL124:
 1269              	.L91:
 577:System/storage/Storage_Dev_Port.c **** 
 1270              		.loc 1 577 28 view .LVU409
 1271 004c 0020     		movs	r0, #0
 1272 004e E5E7     		b	.L85
 1273              	.L92:
 581:System/storage/Storage_Dev_Port.c ****             break;
 1274              		.loc 1 581 28 view .LVU410
 1275 0050 0120     		movs	r0, #1
 1276 0052 E3E7     		b	.L85
 1277              		.cfi_endproc
 1278              	.LFE15:
 1280              		.section	.text.Storage_Dev_Firmware_Read,"ax",%progbits
ARM GAS  C:\Users\8bit\AppData\Local\Temp\ccMxBSAI.s 			page 38


 1281              		.align	1
 1282              		.syntax unified
 1283              		.thumb
 1284              		.thumb_func
 1286              	Storage_Dev_Firmware_Read:
 1287              	.LVL125:
 1288              	.LFB11:
 287:System/storage/Storage_Dev_Port.c ****     uint32_t read_addr = 0;
 1289              		.loc 1 287 1 is_stmt 1 view -0
 1290              		.cfi_startproc
 1291              		@ args = 4, pretend = 0, frame = 0
 1292              		@ frame_needed = 0, uses_anonymous_args = 0
 287:System/storage/Storage_Dev_Port.c ****     uint32_t read_addr = 0;
 1293              		.loc 1 287 1 is_stmt 0 view .LVU412
 1294 0000 2DE9F843 		push	{r3, r4, r5, r6, r7, r8, r9, lr}
 1295              	.LCFI22:
 1296              		.cfi_def_cfa_offset 32
 1297              		.cfi_offset 3, -32
 1298              		.cfi_offset 4, -28
 1299              		.cfi_offset 5, -24
 1300              		.cfi_offset 6, -20
 1301              		.cfi_offset 7, -16
 1302              		.cfi_offset 8, -12
 1303              		.cfi_offset 9, -8
 1304              		.cfi_offset 14, -4
 1305 0004 BDF82050 		ldrh	r5, [sp, #32]
 288:System/storage/Storage_Dev_Port.c ****     uint32_t section_addr = 0;
 1306              		.loc 1 288 5 is_stmt 1 view .LVU413
 1307              	.LVL126:
 289:System/storage/Storage_Dev_Port.c ****     uint32_t read_size = 0;
 1308              		.loc 1 289 5 view .LVU414
 290:System/storage/Storage_Dev_Port.c **** 
 1309              		.loc 1 290 5 view .LVU415
 292:System/storage/Storage_Dev_Port.c ****         (p_data == NULL) || \
 1310              		.loc 1 292 5 view .LVU416
 292:System/storage/Storage_Dev_Port.c ****         (p_data == NULL) || \
 1311              		.loc 1 292 8 is_stmt 0 view .LVU417
 1312 0008 98B3     		cbz	r0, .L99
 1313 000a 9846     		mov	r8, r3
 1314 000c 0746     		mov	r7, r0
 292:System/storage/Storage_Dev_Port.c ****         (p_data == NULL) || \
 1315              		.loc 1 292 25 discriminator 1 view .LVU418
 1316 000e 93B3     		cbz	r3, .L100
 293:System/storage/Storage_Dev_Port.c ****         (size == 0) || \
 1317              		.loc 1 293 26 view .LVU419
 1318 0010 9DB3     		cbz	r5, .L101
 295:System/storage/Storage_Dev_Port.c ****         (Storage_TabSize == 0))
 1319              		.loc 1 295 35 view .LVU420
 1320 0012 B5F5005F 		cmp	r5, #8192
 1321 0016 33D8     		bhi	.L102
 299:System/storage/Storage_Dev_Port.c ****     while (true)
 1322              		.loc 1 299 5 is_stmt 1 view .LVU421
 299:System/storage/Storage_Dev_Port.c ****     while (true)
 1323              		.loc 1 299 15 is_stmt 0 view .LVU422
 1324 0018 5618     		adds	r6, r2, r1
 1325              	.LVL127:
 299:System/storage/Storage_Dev_Port.c ****     while (true)
ARM GAS  C:\Users\8bit\AppData\Local\Temp\ccMxBSAI.s 			page 39


 1326              		.loc 1 299 15 view .LVU423
 1327 001a 08E0     		b	.L98
 1328              	.LVL128:
 1329              	.L105:
 318:System/storage/Storage_Dev_Port.c ****                 }
 1330              		.loc 1 318 26 view .LVU424
 1331 001c 0025     		movs	r5, #0
 1332              	.LVL129:
 1333              	.L97:
 321:System/storage/Storage_Dev_Port.c ****                 read_addr = section_addr + Storage_TabSize;
 1334              		.loc 1 321 17 is_stmt 1 view .LVU425
 321:System/storage/Storage_Dev_Port.c ****                 read_addr = section_addr + Storage_TabSize;
 1335              		.loc 1 321 52 is_stmt 0 view .LVU426
 1336 001e 341B     		subs	r4, r6, r4
 1337              	.LVL130:
 321:System/storage/Storage_Dev_Port.c ****                 read_addr = section_addr + Storage_TabSize;
 1338              		.loc 1 321 17 view .LVU427
 1339 0020 1A49     		ldr	r1, .L109
 1340 0022 2144     		add	r1, r1, r4
 1341 0024 4046     		mov	r0, r8
 1342 0026 FFF7FEFF 		bl	memcpy
 1343              	.LVL131:
 322:System/storage/Storage_Dev_Port.c **** 
 1344              		.loc 1 322 17 is_stmt 1 view .LVU428
 324:System/storage/Storage_Dev_Port.c ****                     return true;
 1345              		.loc 1 324 17 view .LVU429
 324:System/storage/Storage_Dev_Port.c ****                     return true;
 1346              		.loc 1 324 20 is_stmt 0 view .LVU430
 1347 002a 05B3     		cbz	r5, .L108
 322:System/storage/Storage_Dev_Port.c **** 
 1348              		.loc 1 322 27 view .LVU431
 1349 002c 4E46     		mov	r6, r9
 1350              	.LVL132:
 1351              	.L98:
 300:System/storage/Storage_Dev_Port.c ****     {
 1352              		.loc 1 300 5 is_stmt 1 view .LVU432
 302:System/storage/Storage_Dev_Port.c ****         {
 1353              		.loc 1 302 9 view .LVU433
 302:System/storage/Storage_Dev_Port.c ****         {
 1354              		.loc 1 302 22 is_stmt 0 view .LVU434
 1355 002e 3B78     		ldrb	r3, [r7]	@ zero_extendqisi2
 302:System/storage/Storage_Dev_Port.c ****         {
 1356              		.loc 1 302 9 view .LVU435
 1357 0030 012B     		cmp	r3, #1
 1358 0032 27D1     		bne	.L103
 305:System/storage/Storage_Dev_Port.c ****                 if (To_DevW25Qxx_API(p_dev->api)->read(To_DevW25Qxx_OBJ(p_dev->obj), section_addr, 
 1359              		.loc 1 305 17 is_stmt 1 view .LVU436
 305:System/storage/Storage_Dev_Port.c ****                 if (To_DevW25Qxx_API(p_dev->api)->read(To_DevW25Qxx_OBJ(p_dev->obj), section_addr, 
 1360              		.loc 1 305 32 is_stmt 0 view .LVU437
 1361 0034 3B6B     		ldr	r3, [r7, #48]
 305:System/storage/Storage_Dev_Port.c ****                 if (To_DevW25Qxx_API(p_dev->api)->read(To_DevW25Qxx_OBJ(p_dev->obj), section_addr, 
 1362              		.loc 1 305 60 view .LVU438
 1363 0036 9B69     		ldr	r3, [r3, #24]
 305:System/storage/Storage_Dev_Port.c ****                 if (To_DevW25Qxx_API(p_dev->api)->read(To_DevW25Qxx_OBJ(p_dev->obj), section_addr, 
 1364              		.loc 1 305 32 view .LVU439
 1365 0038 3146     		mov	r1, r6
 1366 003a F86A     		ldr	r0, [r7, #44]
ARM GAS  C:\Users\8bit\AppData\Local\Temp\ccMxBSAI.s 			page 40


 1367 003c 9847     		blx	r3
 1368              	.LVL133:
 1369 003e 0446     		mov	r4, r0
 1370              	.LVL134:
 306:System/storage/Storage_Dev_Port.c ****                     return false;
 1371              		.loc 1 306 17 is_stmt 1 view .LVU440
 306:System/storage/Storage_Dev_Port.c ****                     return false;
 1372              		.loc 1 306 21 is_stmt 0 view .LVU441
 1373 0040 3B6B     		ldr	r3, [r7, #48]
 306:System/storage/Storage_Dev_Port.c ****                     return false;
 1374              		.loc 1 306 49 view .LVU442
 1375 0042 D3F80890 		ldr	r9, [r3, #8]
 306:System/storage/Storage_Dev_Port.c ****                     return false;
 1376              		.loc 1 306 21 view .LVU443
 1377 0046 4FF48053 		mov	r3, #4096
 1378 004a 104A     		ldr	r2, .L109
 1379 004c 0146     		mov	r1, r0
 1380 004e F86A     		ldr	r0, [r7, #44]
 1381              	.LVL135:
 306:System/storage/Storage_Dev_Port.c ****                     return false;
 1382              		.loc 1 306 21 view .LVU444
 1383 0050 C847     		blx	r9
 1384              	.LVL136:
 306:System/storage/Storage_Dev_Port.c ****                     return false;
 1385              		.loc 1 306 20 view .LVU445
 1386 0052 C8B9     		cbnz	r0, .L104
 309:System/storage/Storage_Dev_Port.c ****                 {
 1387              		.loc 1 309 17 is_stmt 1 view .LVU446
 309:System/storage/Storage_Dev_Port.c ****                 {
 1388              		.loc 1 309 32 is_stmt 0 view .LVU447
 1389 0054 2A46     		mov	r2, r5
 1390 0056 AB19     		adds	r3, r5, r6
 309:System/storage/Storage_Dev_Port.c ****                 {
 1391              		.loc 1 309 56 view .LVU448
 1392 0058 04F58059 		add	r9, r4, #4096
 309:System/storage/Storage_Dev_Port.c ****                 {
 1393              		.loc 1 309 20 view .LVU449
 1394 005c 4B45     		cmp	r3, r9
 1395 005e DDD9     		bls	.L105
 311:System/storage/Storage_Dev_Port.c ****                     size -= read_size;
 1396              		.loc 1 311 21 is_stmt 1 view .LVU450
 311:System/storage/Storage_Dev_Port.c ****                     size -= read_size;
 1397              		.loc 1 311 62 is_stmt 0 view .LVU451
 1398 0060 A21B     		subs	r2, r4, r6
 311:System/storage/Storage_Dev_Port.c ****                     size -= read_size;
 1399              		.loc 1 311 31 view .LVU452
 1400 0062 02F58052 		add	r2, r2, #4096
 1401              	.LVL137:
 312:System/storage/Storage_Dev_Port.c ****                     p_data += read_size;
 1402              		.loc 1 312 21 is_stmt 1 view .LVU453
 312:System/storage/Storage_Dev_Port.c ****                     p_data += read_size;
 1403              		.loc 1 312 26 is_stmt 0 view .LVU454
 1404 0066 AD1A     		subs	r5, r5, r2
 1405              	.LVL138:
 312:System/storage/Storage_Dev_Port.c ****                     p_data += read_size;
 1406              		.loc 1 312 26 view .LVU455
 1407 0068 ADB2     		uxth	r5, r5
ARM GAS  C:\Users\8bit\AppData\Local\Temp\ccMxBSAI.s 			page 41


 1408              	.LVL139:
 313:System/storage/Storage_Dev_Port.c ****                 }
 1409              		.loc 1 313 21 is_stmt 1 view .LVU456
 313:System/storage/Storage_Dev_Port.c ****                 }
 1410              		.loc 1 313 28 is_stmt 0 view .LVU457
 1411 006a 9044     		add	r8, r8, r2
 1412              	.LVL140:
 313:System/storage/Storage_Dev_Port.c ****                 }
 1413              		.loc 1 313 28 view .LVU458
 1414 006c D7E7     		b	.L97
 1415              	.LVL141:
 1416              	.L108:
 325:System/storage/Storage_Dev_Port.c ****             break;
 1417              		.loc 1 325 28 view .LVU459
 1418 006e 0120     		movs	r0, #1
 1419 0070 04E0     		b	.L96
 1420              	.LVL142:
 1421              	.L99:
 297:System/storage/Storage_Dev_Port.c ****         
 1422              		.loc 1 297 16 view .LVU460
 1423 0072 0020     		movs	r0, #0
 1424              	.LVL143:
 297:System/storage/Storage_Dev_Port.c ****         
 1425              		.loc 1 297 16 view .LVU461
 1426 0074 02E0     		b	.L96
 1427              	.LVL144:
 1428              	.L100:
 297:System/storage/Storage_Dev_Port.c ****         
 1429              		.loc 1 297 16 view .LVU462
 1430 0076 0020     		movs	r0, #0
 1431              	.LVL145:
 297:System/storage/Storage_Dev_Port.c ****         
 1432              		.loc 1 297 16 view .LVU463
 1433 0078 00E0     		b	.L96
 1434              	.LVL146:
 1435              	.L101:
 297:System/storage/Storage_Dev_Port.c ****         
 1436              		.loc 1 297 16 view .LVU464
 1437 007a 0020     		movs	r0, #0
 1438              	.LVL147:
 1439              	.L96:
 331:System/storage/Storage_Dev_Port.c **** 
 1440              		.loc 1 331 1 view .LVU465
 1441 007c BDE8F883 		pop	{r3, r4, r5, r6, r7, r8, r9, pc}
 1442              	.LVL148:
 1443              	.L102:
 297:System/storage/Storage_Dev_Port.c ****         
 1444              		.loc 1 297 16 view .LVU466
 1445 0080 0020     		movs	r0, #0
 1446              	.LVL149:
 297:System/storage/Storage_Dev_Port.c ****         
 1447              		.loc 1 297 16 view .LVU467
 1448 0082 FBE7     		b	.L96
 1449              	.LVL150:
 1450              	.L103:
 328:System/storage/Storage_Dev_Port.c ****         }
 1451              		.loc 1 328 29 view .LVU468
ARM GAS  C:\Users\8bit\AppData\Local\Temp\ccMxBSAI.s 			page 42


 1452 0084 0020     		movs	r0, #0
 1453 0086 F9E7     		b	.L96
 1454              	.LVL151:
 1455              	.L104:
 307:System/storage/Storage_Dev_Port.c **** 
 1456              		.loc 1 307 28 view .LVU469
 1457 0088 0020     		movs	r0, #0
 1458 008a F7E7     		b	.L96
 1459              	.L110:
 1460              		.align	2
 1461              	.L109:
 1462 008c 00200000 		.word	read_tmp
 1463              		.cfi_endproc
 1464              	.LFE11:
 1466              		.section	.text.Storage_Dev_Param_Read,"ax",%progbits
 1467              		.align	1
 1468              		.syntax unified
 1469              		.thumb
 1470              		.thumb_func
 1472              	Storage_Dev_Param_Read:
 1473              	.LVL152:
 1474              	.LFB13:
 393:System/storage/Storage_Dev_Port.c ****     uint32_t read_start_addr = base_addr + addr_offset;
 1475              		.loc 1 393 1 is_stmt 1 view -0
 1476              		.cfi_startproc
 1477              		@ args = 4, pretend = 0, frame = 88
 1478              		@ frame_needed = 0, uses_anonymous_args = 0
 393:System/storage/Storage_Dev_Port.c ****     uint32_t read_start_addr = base_addr + addr_offset;
 1479              		.loc 1 393 1 is_stmt 0 view .LVU471
 1480 0000 2DE9F04F 		push	{r4, r5, r6, r7, r8, r9, r10, fp, lr}
 1481              	.LCFI23:
 1482              		.cfi_def_cfa_offset 36
 1483              		.cfi_offset 4, -36
 1484              		.cfi_offset 5, -32
 1485              		.cfi_offset 6, -28
 1486              		.cfi_offset 7, -24
 1487              		.cfi_offset 8, -20
 1488              		.cfi_offset 9, -16
 1489              		.cfi_offset 10, -12
 1490              		.cfi_offset 11, -8
 1491              		.cfi_offset 14, -4
 1492 0004 97B0     		sub	sp, sp, #92
 1493              	.LCFI24:
 1494              		.cfi_def_cfa_offset 128
 1495 0006 209C     		ldr	r4, [sp, #128]
 394:System/storage/Storage_Dev_Port.c ****     uint32_t flash_end_addr = 0;
 1496              		.loc 1 394 5 is_stmt 1 view .LVU472
 394:System/storage/Storage_Dev_Port.c ****     uint32_t flash_end_addr = 0;
 1497              		.loc 1 394 14 is_stmt 0 view .LVU473
 1498 0008 01EB020A 		add	r10, r1, r2
 1499              	.LVL153:
 395:System/storage/Storage_Dev_Port.c ****     uint32_t section_start_addr = 0;
 1500              		.loc 1 395 5 is_stmt 1 view .LVU474
 396:System/storage/Storage_Dev_Port.c ****     uint32_t next_read_addr = 0;
 1501              		.loc 1 396 5 view .LVU475
 397:System/storage/Storage_Dev_Port.c ****     uint32_t section_size = 0;
 1502              		.loc 1 397 5 view .LVU476
ARM GAS  C:\Users\8bit\AppData\Local\Temp\ccMxBSAI.s 			page 43


 398:System/storage/Storage_Dev_Port.c ****     uint32_t read_offset = 0;
 1503              		.loc 1 398 5 view .LVU477
 399:System/storage/Storage_Dev_Port.c ****     uint32_t read_len = len;
 1504              		.loc 1 399 5 view .LVU478
 400:System/storage/Storage_Dev_Port.c **** 
 1505              		.loc 1 400 5 view .LVU479
 402:System/storage/Storage_Dev_Port.c ****         (p_dev->api == NULL) || \
 1506              		.loc 1 402 5 view .LVU480
 402:System/storage/Storage_Dev_Port.c ****         (p_dev->api == NULL) || \
 1507              		.loc 1 402 8 is_stmt 0 view .LVU481
 1508 000c 0028     		cmp	r0, #0
 1509 000e 6AD0     		beq	.L116
 1510 0010 1F46     		mov	r7, r3
 1511 0012 0646     		mov	r6, r0
 403:System/storage/Storage_Dev_Port.c ****         (p_dev->obj == NULL) || \
 1512              		.loc 1 403 15 discriminator 1 view .LVU482
 1513 0014 036B     		ldr	r3, [r0, #48]
 1514              	.LVL154:
 402:System/storage/Storage_Dev_Port.c ****         (p_dev->api == NULL) || \
 1515              		.loc 1 402 25 discriminator 1 view .LVU483
 1516 0016 002B     		cmp	r3, #0
 1517 0018 67D0     		beq	.L117
 404:System/storage/Storage_Dev_Port.c ****         (sizeof(read_tmp) < len) || \
 1518              		.loc 1 404 15 view .LVU484
 1519 001a C16A     		ldr	r1, [r0, #44]
 1520              	.LVL155:
 403:System/storage/Storage_Dev_Port.c ****         (p_dev->obj == NULL) || \
 1521              		.loc 1 403 30 view .LVU485
 1522 001c 0029     		cmp	r1, #0
 1523 001e 66D0     		beq	.L118
 404:System/storage/Storage_Dev_Port.c ****         (sizeof(read_tmp) < len) || \
 1524              		.loc 1 404 30 view .LVU486
 1525 0020 B4F5005F 		cmp	r4, #8192
 1526 0024 65D8     		bhi	.L119
 405:System/storage/Storage_Dev_Port.c ****         (p_data == 0) || \
 1527              		.loc 1 405 34 view .LVU487
 1528 0026 002F     		cmp	r7, #0
 1529 0028 67D0     		beq	.L120
 406:System/storage/Storage_Dev_Port.c ****         (len == 0))
 1530              		.loc 1 406 23 view .LVU488
 1531 002a 002C     		cmp	r4, #0
 1532 002c 67D0     		beq	.L121
 410:System/storage/Storage_Dev_Port.c ****     {
 1533              		.loc 1 410 5 is_stmt 1 view .LVU489
 410:System/storage/Storage_Dev_Port.c ****     {
 1534              		.loc 1 410 26 is_stmt 0 view .LVU490
 1535 002e 0278     		ldrb	r2, [r0]	@ zero_extendqisi2
 1536              	.LVL156:
 410:System/storage/Storage_Dev_Port.c ****     {
 1537              		.loc 1 410 5 view .LVU491
 1538 0030 012A     		cmp	r2, #1
 1539 0032 01D0     		beq	.L132
 463:System/storage/Storage_Dev_Port.c ****     }
 1540              		.loc 1 463 25 view .LVU492
 1541 0034 0020     		movs	r0, #0
 1542              	.LVL157:
 463:System/storage/Storage_Dev_Port.c ****     }
ARM GAS  C:\Users\8bit\AppData\Local\Temp\ccMxBSAI.s 			page 44


 1543              		.loc 1 463 25 view .LVU493
 1544 0036 5DE0     		b	.L112
 1545              	.LVL158:
 1546              	.L132:
 413:System/storage/Storage_Dev_Port.c ****             /* get w25qxx device info */
 1547              		.loc 1 413 13 is_stmt 1 view .LVU494
 413:System/storage/Storage_Dev_Port.c ****             /* get w25qxx device info */
 1548              		.loc 1 413 56 is_stmt 0 view .LVU495
 1549 0038 5B69     		ldr	r3, [r3, #20]
 413:System/storage/Storage_Dev_Port.c ****             /* get w25qxx device info */
 1550              		.loc 1 413 28 view .LVU496
 1551 003a 01A8     		add	r0, sp, #4
 1552              	.LVL159:
 413:System/storage/Storage_Dev_Port.c ****             /* get w25qxx device info */
 1553              		.loc 1 413 28 view .LVU497
 1554 003c 9847     		blx	r3
 1555              	.LVL160:
 413:System/storage/Storage_Dev_Port.c ****             /* get w25qxx device info */
 1556              		.loc 1 413 26 view .LVU498
 1557 003e DDF81480 		ldr	r8, [sp, #20]
 1558              	.LVL161:
 416:System/storage/Storage_Dev_Port.c ****             if (flash_end_addr > read_start_addr)
 1559              		.loc 1 416 13 is_stmt 1 view .LVU499
 416:System/storage/Storage_Dev_Port.c ****             if (flash_end_addr > read_start_addr)
 1560              		.loc 1 416 30 is_stmt 0 view .LVU500
 1561 0042 336B     		ldr	r3, [r6, #48]
 416:System/storage/Storage_Dev_Port.c ****             if (flash_end_addr > read_start_addr)
 1562              		.loc 1 416 58 view .LVU501
 1563 0044 5B69     		ldr	r3, [r3, #20]
 416:System/storage/Storage_Dev_Port.c ****             if (flash_end_addr > read_start_addr)
 1564              		.loc 1 416 30 view .LVU502
 1565 0046 F16A     		ldr	r1, [r6, #44]
 1566 0048 08A8     		add	r0, sp, #32
 1567 004a 9847     		blx	r3
 1568              	.LVL162:
 416:System/storage/Storage_Dev_Port.c ****             if (flash_end_addr > read_start_addr)
 1569              		.loc 1 416 28 view .LVU503
 1570 004c 099D     		ldr	r5, [sp, #36]
 1571              	.LVL163:
 417:System/storage/Storage_Dev_Port.c ****                 return false;
 1572              		.loc 1 417 13 is_stmt 1 view .LVU504
 417:System/storage/Storage_Dev_Port.c ****                 return false;
 1573              		.loc 1 417 16 is_stmt 0 view .LVU505
 1574 004e AA45     		cmp	r10, r5
 1575 0050 57D3     		bcc	.L123
 421:System/storage/Storage_Dev_Port.c ****             if ((len + read_start_addr) > flash_end_addr)
 1576              		.loc 1 421 13 is_stmt 1 view .LVU506
 421:System/storage/Storage_Dev_Port.c ****             if ((len + read_start_addr) > flash_end_addr)
 1577              		.loc 1 421 31 is_stmt 0 view .LVU507
 1578 0052 336B     		ldr	r3, [r6, #48]
 421:System/storage/Storage_Dev_Port.c ****             if ((len + read_start_addr) > flash_end_addr)
 1579              		.loc 1 421 59 view .LVU508
 1580 0054 5B69     		ldr	r3, [r3, #20]
 421:System/storage/Storage_Dev_Port.c ****             if ((len + read_start_addr) > flash_end_addr)
 1581              		.loc 1 421 31 view .LVU509
 1582 0056 F16A     		ldr	r1, [r6, #44]
 1583 0058 0FA8     		add	r0, sp, #60
ARM GAS  C:\Users\8bit\AppData\Local\Temp\ccMxBSAI.s 			page 45


 1584 005a 9847     		blx	r3
 1585              	.LVL164:
 421:System/storage/Storage_Dev_Port.c ****             if ((len + read_start_addr) > flash_end_addr)
 1586              		.loc 1 421 95 view .LVU510
 1587 005c 119B     		ldr	r3, [sp, #68]
 421:System/storage/Storage_Dev_Port.c ****             if ((len + read_start_addr) > flash_end_addr)
 1588              		.loc 1 421 28 view .LVU511
 1589 005e 05EB0309 		add	r9, r5, r3
 1590              	.LVL165:
 422:System/storage/Storage_Dev_Port.c ****                 return false;
 1591              		.loc 1 422 13 is_stmt 1 view .LVU512
 422:System/storage/Storage_Dev_Port.c ****                 return false;
 1592              		.loc 1 422 22 is_stmt 0 view .LVU513
 1593 0062 0AEB0403 		add	r3, r10, r4
 422:System/storage/Storage_Dev_Port.c ****                 return false;
 1594              		.loc 1 422 16 view .LVU514
 1595 0066 4B45     		cmp	r3, r9
 1596 0068 4DD8     		bhi	.L124
 425:System/storage/Storage_Dev_Port.c ****                 return false;
 1597              		.loc 1 425 13 is_stmt 1 view .LVU515
 425:System/storage/Storage_Dev_Port.c ****                 return false;
 1598              		.loc 1 425 16 is_stmt 0 view .LVU516
 1599 006a B8F1000F 		cmp	r8, #0
 1600 006e 4CD0     		beq	.L125
 428:System/storage/Storage_Dev_Port.c ****             read_offset = read_start_addr - section_start_addr;
 1601              		.loc 1 428 13 is_stmt 1 view .LVU517
 428:System/storage/Storage_Dev_Port.c ****             read_offset = read_start_addr - section_start_addr;
 1602              		.loc 1 428 34 is_stmt 0 view .LVU518
 1603 0070 336B     		ldr	r3, [r6, #48]
 428:System/storage/Storage_Dev_Port.c ****             read_offset = read_start_addr - section_start_addr;
 1604              		.loc 1 428 62 view .LVU519
 1605 0072 9B69     		ldr	r3, [r3, #24]
 428:System/storage/Storage_Dev_Port.c ****             read_offset = read_start_addr - section_start_addr;
 1606              		.loc 1 428 34 view .LVU520
 1607 0074 5146     		mov	r1, r10
 1608 0076 F06A     		ldr	r0, [r6, #44]
 1609 0078 9847     		blx	r3
 1610              	.LVL166:
 1611 007a 8146     		mov	r9, r0
 1612              	.LVL167:
 429:System/storage/Storage_Dev_Port.c ****             if (section_size > sizeof(read_tmp))
 1613              		.loc 1 429 13 is_stmt 1 view .LVU521
 429:System/storage/Storage_Dev_Port.c ****             if (section_size > sizeof(read_tmp))
 1614              		.loc 1 429 25 is_stmt 0 view .LVU522
 1615 007c AAEB000A 		sub	r10, r10, r0
 1616              	.LVL168:
 430:System/storage/Storage_Dev_Port.c ****                 return false;
 1617              		.loc 1 430 13 is_stmt 1 view .LVU523
 430:System/storage/Storage_Dev_Port.c ****                 return false;
 1618              		.loc 1 430 16 is_stmt 0 view .LVU524
 1619 0080 B8F5005F 		cmp	r8, #8192
 1620 0084 26D9     		bls	.L115
 431:System/storage/Storage_Dev_Port.c **** 
 1621              		.loc 1 431 24 view .LVU525
 1622 0086 0020     		movs	r0, #0
 1623              	.LVL169:
 431:System/storage/Storage_Dev_Port.c **** 
ARM GAS  C:\Users\8bit\AppData\Local\Temp\ccMxBSAI.s 			page 46


 1624              		.loc 1 431 24 view .LVU526
 1625 0088 34E0     		b	.L112
 1626              	.LVL170:
 1627              	.L127:
 431:System/storage/Storage_Dev_Port.c **** 
 1628              		.loc 1 431 24 view .LVU527
 1629 008a 2546     		mov	r5, r4
 1630              	.LVL171:
 1631              	.L113:
 442:System/storage/Storage_Dev_Port.c ****                     return false;
 1632              		.loc 1 442 17 is_stmt 1 view .LVU528
 442:System/storage/Storage_Dev_Port.c ****                     return false;
 1633              		.loc 1 442 21 is_stmt 0 view .LVU529
 1634 008c 336B     		ldr	r3, [r6, #48]
 442:System/storage/Storage_Dev_Port.c ****                     return false;
 1635              		.loc 1 442 49 view .LVU530
 1636 008e D3F808B0 		ldr	fp, [r3, #8]
 442:System/storage/Storage_Dev_Port.c ****                     return false;
 1637              		.loc 1 442 21 view .LVU531
 1638 0092 4346     		mov	r3, r8
 1639 0094 204A     		ldr	r2, .L133
 1640 0096 4946     		mov	r1, r9
 1641 0098 F06A     		ldr	r0, [r6, #44]
 1642              	.LVL172:
 442:System/storage/Storage_Dev_Port.c ****                     return false;
 1643              		.loc 1 442 21 view .LVU532
 1644 009a D847     		blx	fp
 1645              	.LVL173:
 442:System/storage/Storage_Dev_Port.c ****                     return false;
 1646              		.loc 1 442 20 view .LVU533
 1647 009c B8BB     		cbnz	r0, .L128
 445:System/storage/Storage_Dev_Port.c ****                 memset(read_tmp, 0, section_size);
 1648              		.loc 1 445 17 is_stmt 1 view .LVU534
 1649 009e DFF878B0 		ldr	fp, .L133
 1650 00a2 2A46     		mov	r2, r5
 1651 00a4 0BEB0A01 		add	r1, fp, r10
 1652 00a8 3846     		mov	r0, r7
 1653 00aa FFF7FEFF 		bl	memcpy
 1654              	.LVL174:
 446:System/storage/Storage_Dev_Port.c **** 
 1655              		.loc 1 446 17 view .LVU535
 1656 00ae 4246     		mov	r2, r8
 1657 00b0 0021     		movs	r1, #0
 1658 00b2 5846     		mov	r0, fp
 1659 00b4 FFF7FEFF 		bl	memset
 1660              	.LVL175:
 448:System/storage/Storage_Dev_Port.c ****                 if (len == 0)
 1661              		.loc 1 448 17 view .LVU536
 449:System/storage/Storage_Dev_Port.c ****                     return true;
 1662              		.loc 1 449 17 view .LVU537
 449:System/storage/Storage_Dev_Port.c ****                     return true;
 1663              		.loc 1 449 20 is_stmt 0 view .LVU538
 1664 00b8 641B     		subs	r4, r4, r5
 1665              	.LVL176:
 449:System/storage/Storage_Dev_Port.c ****                     return true;
 1666              		.loc 1 449 20 view .LVU539
 1667 00ba 2AD0     		beq	.L129
ARM GAS  C:\Users\8bit\AppData\Local\Temp\ccMxBSAI.s 			page 47


 452:System/storage/Storage_Dev_Port.c ****                 next_read_addr = To_DevW25Qxx_API(p_dev->api)->get_section_start_addr(To_DevW25Qxx_
 1668              		.loc 1 452 17 is_stmt 1 view .LVU540
 1669              	.LVL177:
 453:System/storage/Storage_Dev_Port.c ****                 if (next_read_addr == section_start_addr)
 1670              		.loc 1 453 17 view .LVU541
 453:System/storage/Storage_Dev_Port.c ****                 if (next_read_addr == section_start_addr)
 1671              		.loc 1 453 34 is_stmt 0 view .LVU542
 1672 00bc 336B     		ldr	r3, [r6, #48]
 453:System/storage/Storage_Dev_Port.c ****                 if (next_read_addr == section_start_addr)
 1673              		.loc 1 453 62 view .LVU543
 1674 00be 9B69     		ldr	r3, [r3, #24]
 453:System/storage/Storage_Dev_Port.c ****                 if (next_read_addr == section_start_addr)
 1675              		.loc 1 453 34 view .LVU544
 1676 00c0 09EB0501 		add	r1, r9, r5
 1677 00c4 F06A     		ldr	r0, [r6, #44]
 1678 00c6 9847     		blx	r3
 1679              	.LVL178:
 454:System/storage/Storage_Dev_Port.c ****                     read_offset = read_len;
 1680              		.loc 1 454 17 is_stmt 1 view .LVU545
 454:System/storage/Storage_Dev_Port.c ****                     read_offset = read_len;
 1681              		.loc 1 454 20 is_stmt 0 view .LVU546
 1682 00c8 8145     		cmp	r9, r0
 1683 00ca 0AD0     		beq	.L130
 452:System/storage/Storage_Dev_Port.c ****                 next_read_addr = To_DevW25Qxx_API(p_dev->api)->get_section_start_addr(To_DevW25Qxx_
 1684              		.loc 1 452 29 view .LVU547
 1685 00cc 4FF0000A 		mov	r10, #0
 1686              	.L114:
 1687              	.LVL179:
 457:System/storage/Storage_Dev_Port.c ****                 read_len = len;
 1688              		.loc 1 457 17 is_stmt 1 view .LVU548
 457:System/storage/Storage_Dev_Port.c ****                 read_len = len;
 1689              		.loc 1 457 24 is_stmt 0 view .LVU549
 1690 00d0 2F44     		add	r7, r7, r5
 1691              	.LVL180:
 458:System/storage/Storage_Dev_Port.c ****                 section_start_addr = next_read_addr;
 1692              		.loc 1 458 17 is_stmt 1 view .LVU550
 459:System/storage/Storage_Dev_Port.c ****             }
 1693              		.loc 1 459 17 view .LVU551
 433:System/storage/Storage_Dev_Port.c ****             {
 1694              		.loc 1 433 18 view .LVU552
 459:System/storage/Storage_Dev_Port.c ****             }
 1695              		.loc 1 459 36 is_stmt 0 view .LVU553
 1696 00d2 8146     		mov	r9, r0
 1697              	.LVL181:
 1698              	.L115:
 433:System/storage/Storage_Dev_Port.c ****             {
 1699              		.loc 1 433 13 is_stmt 1 view .LVU554
 438:System/storage/Storage_Dev_Port.c ****                     read_len = section_size - read_offset;
 1700              		.loc 1 438 17 view .LVU555
 438:System/storage/Storage_Dev_Port.c ****                     read_len = section_size - read_offset;
 1701              		.loc 1 438 33 is_stmt 0 view .LVU556
 1702 00d4 04EB0A03 		add	r3, r4, r10
 438:System/storage/Storage_Dev_Port.c ****                     read_len = section_size - read_offset;
 1703              		.loc 1 438 20 view .LVU557
 1704 00d8 4345     		cmp	r3, r8
 1705 00da D6D9     		bls	.L127
 439:System/storage/Storage_Dev_Port.c **** 
ARM GAS  C:\Users\8bit\AppData\Local\Temp\ccMxBSAI.s 			page 48


 1706              		.loc 1 439 21 is_stmt 1 view .LVU558
 439:System/storage/Storage_Dev_Port.c **** 
 1707              		.loc 1 439 30 is_stmt 0 view .LVU559
 1708 00dc A8EB0A05 		sub	r5, r8, r10
 1709              	.LVL182:
 439:System/storage/Storage_Dev_Port.c **** 
 1710              		.loc 1 439 30 view .LVU560
 1711 00e0 D4E7     		b	.L113
 1712              	.LVL183:
 1713              	.L130:
 455:System/storage/Storage_Dev_Port.c ****                 
 1714              		.loc 1 455 33 view .LVU561
 1715 00e2 AA46     		mov	r10, r5
 1716 00e4 F4E7     		b	.L114
 1717              	.LVL184:
 1718              	.L116:
 408:System/storage/Storage_Dev_Port.c ****         
 1719              		.loc 1 408 16 view .LVU562
 1720 00e6 0020     		movs	r0, #0
 1721              	.LVL185:
 408:System/storage/Storage_Dev_Port.c ****         
 1722              		.loc 1 408 16 view .LVU563
 1723 00e8 04E0     		b	.L112
 1724              	.LVL186:
 1725              	.L117:
 408:System/storage/Storage_Dev_Port.c ****         
 1726              		.loc 1 408 16 view .LVU564
 1727 00ea 0020     		movs	r0, #0
 1728              	.LVL187:
 408:System/storage/Storage_Dev_Port.c ****         
 1729              		.loc 1 408 16 view .LVU565
 1730 00ec 02E0     		b	.L112
 1731              	.LVL188:
 1732              	.L118:
 408:System/storage/Storage_Dev_Port.c ****         
 1733              		.loc 1 408 16 view .LVU566
 1734 00ee 0020     		movs	r0, #0
 1735              	.LVL189:
 408:System/storage/Storage_Dev_Port.c ****         
 1736              		.loc 1 408 16 view .LVU567
 1737 00f0 00E0     		b	.L112
 1738              	.LVL190:
 1739              	.L119:
 408:System/storage/Storage_Dev_Port.c ****         
 1740              		.loc 1 408 16 view .LVU568
 1741 00f2 0020     		movs	r0, #0
 1742              	.LVL191:
 1743              	.L112:
 467:System/storage/Storage_Dev_Port.c **** 
 1744              		.loc 1 467 1 view .LVU569
 1745 00f4 17B0     		add	sp, sp, #92
 1746              	.LCFI25:
 1747              		.cfi_remember_state
 1748              		.cfi_def_cfa_offset 36
 1749              		@ sp needed
 1750 00f6 BDE8F08F 		pop	{r4, r5, r6, r7, r8, r9, r10, fp, pc}
 1751              	.LVL192:
ARM GAS  C:\Users\8bit\AppData\Local\Temp\ccMxBSAI.s 			page 49


 1752              	.L120:
 1753              	.LCFI26:
 1754              		.cfi_restore_state
 408:System/storage/Storage_Dev_Port.c ****         
 1755              		.loc 1 408 16 view .LVU570
 1756 00fa 0020     		movs	r0, #0
 1757              	.LVL193:
 408:System/storage/Storage_Dev_Port.c ****         
 1758              		.loc 1 408 16 view .LVU571
 1759 00fc FAE7     		b	.L112
 1760              	.LVL194:
 1761              	.L121:
 408:System/storage/Storage_Dev_Port.c ****         
 1762              		.loc 1 408 16 view .LVU572
 1763 00fe 0020     		movs	r0, #0
 1764              	.LVL195:
 408:System/storage/Storage_Dev_Port.c ****         
 1765              		.loc 1 408 16 view .LVU573
 1766 0100 F8E7     		b	.L112
 1767              	.LVL196:
 1768              	.L123:
 418:System/storage/Storage_Dev_Port.c **** 
 1769              		.loc 1 418 24 view .LVU574
 1770 0102 0020     		movs	r0, #0
 1771 0104 F6E7     		b	.L112
 1772              	.LVL197:
 1773              	.L124:
 423:System/storage/Storage_Dev_Port.c **** 
 1774              		.loc 1 423 24 view .LVU575
 1775 0106 0020     		movs	r0, #0
 1776 0108 F4E7     		b	.L112
 1777              	.L125:
 426:System/storage/Storage_Dev_Port.c ****                 
 1778              		.loc 1 426 24 view .LVU576
 1779 010a 0020     		movs	r0, #0
 1780 010c F2E7     		b	.L112
 1781              	.LVL198:
 1782              	.L128:
 443:System/storage/Storage_Dev_Port.c ****             
 1783              		.loc 1 443 28 view .LVU577
 1784 010e 0020     		movs	r0, #0
 1785 0110 F0E7     		b	.L112
 1786              	.L129:
 450:System/storage/Storage_Dev_Port.c ****             
 1787              		.loc 1 450 28 view .LVU578
 1788 0112 0120     		movs	r0, #1
 1789 0114 EEE7     		b	.L112
 1790              	.L134:
 1791 0116 00BF     		.align	2
 1792              	.L133:
 1793 0118 00200000 		.word	read_tmp
 1794              		.cfi_endproc
 1795              	.LFE13:
 1797              		.section	.text.Storage_Dev_Param_Write,"ax",%progbits
 1798              		.align	1
 1799              		.syntax unified
 1800              		.thumb
ARM GAS  C:\Users\8bit\AppData\Local\Temp\ccMxBSAI.s 			page 50


 1801              		.thumb_func
 1803              	Storage_Dev_Param_Write:
 1804              	.LVL199:
 1805              	.LFB14:
 470:System/storage/Storage_Dev_Port.c ****     uint32_t write_start_addr = base_addr + addr_offset;
 1806              		.loc 1 470 1 is_stmt 1 view -0
 1807              		.cfi_startproc
 1808              		@ args = 4, pretend = 0, frame = 88
 1809              		@ frame_needed = 0, uses_anonymous_args = 0
 470:System/storage/Storage_Dev_Port.c ****     uint32_t write_start_addr = base_addr + addr_offset;
 1810              		.loc 1 470 1 is_stmt 0 view .LVU580
 1811 0000 2DE9F04F 		push	{r4, r5, r6, r7, r8, r9, r10, fp, lr}
 1812              	.LCFI27:
 1813              		.cfi_def_cfa_offset 36
 1814              		.cfi_offset 4, -36
 1815              		.cfi_offset 5, -32
 1816              		.cfi_offset 6, -28
 1817              		.cfi_offset 7, -24
 1818              		.cfi_offset 8, -20
 1819              		.cfi_offset 9, -16
 1820              		.cfi_offset 10, -12
 1821              		.cfi_offset 11, -8
 1822              		.cfi_offset 14, -4
 1823 0004 97B0     		sub	sp, sp, #92
 1824              	.LCFI28:
 1825              		.cfi_def_cfa_offset 128
 1826 0006 209E     		ldr	r6, [sp, #128]
 471:System/storage/Storage_Dev_Port.c ****     uint32_t flash_end_addr = 0;
 1827              		.loc 1 471 5 is_stmt 1 view .LVU581
 471:System/storage/Storage_Dev_Port.c ****     uint32_t flash_end_addr = 0;
 1828              		.loc 1 471 14 is_stmt 0 view .LVU582
 1829 0008 01EB020A 		add	r10, r1, r2
 1830              	.LVL200:
 472:System/storage/Storage_Dev_Port.c ****     uint32_t section_start_addr = 0;
 1831              		.loc 1 472 5 is_stmt 1 view .LVU583
 473:System/storage/Storage_Dev_Port.c ****     uint32_t next_write_addr = 0;
 1832              		.loc 1 473 5 view .LVU584
 474:System/storage/Storage_Dev_Port.c ****     uint32_t section_size = 0;
 1833              		.loc 1 474 5 view .LVU585
 475:System/storage/Storage_Dev_Port.c ****     uint32_t write_offset = 0;
 1834              		.loc 1 475 5 view .LVU586
 476:System/storage/Storage_Dev_Port.c ****     uint32_t write_len = len;
 1835              		.loc 1 476 5 view .LVU587
 477:System/storage/Storage_Dev_Port.c **** 
 1836              		.loc 1 477 5 view .LVU588
 479:System/storage/Storage_Dev_Port.c ****         (p_dev->api == NULL) || \
 1837              		.loc 1 479 5 view .LVU589
 479:System/storage/Storage_Dev_Port.c ****         (p_dev->api == NULL) || \
 1838              		.loc 1 479 8 is_stmt 0 view .LVU590
 1839 000c 0028     		cmp	r0, #0
 1840 000e 79D0     		beq	.L140
 1841 0010 1D46     		mov	r5, r3
 1842 0012 0446     		mov	r4, r0
 480:System/storage/Storage_Dev_Port.c ****         (p_dev->obj == NULL) || \
 1843              		.loc 1 480 15 discriminator 1 view .LVU591
 1844 0014 036B     		ldr	r3, [r0, #48]
 1845              	.LVL201:
ARM GAS  C:\Users\8bit\AppData\Local\Temp\ccMxBSAI.s 			page 51


 479:System/storage/Storage_Dev_Port.c ****         (p_dev->api == NULL) || \
 1846              		.loc 1 479 25 discriminator 1 view .LVU592
 1847 0016 002B     		cmp	r3, #0
 1848 0018 76D0     		beq	.L141
 481:System/storage/Storage_Dev_Port.c ****         (p_data == NULL) || \
 1849              		.loc 1 481 15 view .LVU593
 1850 001a C16A     		ldr	r1, [r0, #44]
 1851              	.LVL202:
 480:System/storage/Storage_Dev_Port.c ****         (p_dev->obj == NULL) || \
 1852              		.loc 1 480 30 view .LVU594
 1853 001c 0029     		cmp	r1, #0
 1854 001e 75D0     		beq	.L142
 481:System/storage/Storage_Dev_Port.c ****         (p_data == NULL) || \
 1855              		.loc 1 481 30 view .LVU595
 1856 0020 002D     		cmp	r5, #0
 1857 0022 75D0     		beq	.L143
 482:System/storage/Storage_Dev_Port.c ****         (len == 0))
 1858              		.loc 1 482 26 view .LVU596
 1859 0024 002E     		cmp	r6, #0
 1860 0026 75D0     		beq	.L144
 486:System/storage/Storage_Dev_Port.c ****     {
 1861              		.loc 1 486 5 is_stmt 1 view .LVU597
 486:System/storage/Storage_Dev_Port.c ****     {
 1862              		.loc 1 486 26 is_stmt 0 view .LVU598
 1863 0028 0278     		ldrb	r2, [r0]	@ zero_extendqisi2
 1864              	.LVL203:
 486:System/storage/Storage_Dev_Port.c ****     {
 1865              		.loc 1 486 5 view .LVU599
 1866 002a 012A     		cmp	r2, #1
 1867 002c 03D0     		beq	.L157
 554:System/storage/Storage_Dev_Port.c ****     }
 1868              		.loc 1 554 25 view .LVU600
 1869 002e 0020     		movs	r0, #0
 1870              	.LVL204:
 1871              	.L136:
 558:System/storage/Storage_Dev_Port.c **** 
 1872              		.loc 1 558 1 view .LVU601
 1873 0030 17B0     		add	sp, sp, #92
 1874              	.LCFI29:
 1875              		.cfi_remember_state
 1876              		.cfi_def_cfa_offset 36
 1877              		@ sp needed
 1878 0032 BDE8F08F 		pop	{r4, r5, r6, r7, r8, r9, r10, fp, pc}
 1879              	.LVL205:
 1880              	.L157:
 1881              	.LCFI30:
 1882              		.cfi_restore_state
 489:System/storage/Storage_Dev_Port.c ****             /* get w25qxx device info */
 1883              		.loc 1 489 13 is_stmt 1 view .LVU602
 489:System/storage/Storage_Dev_Port.c ****             /* get w25qxx device info */
 1884              		.loc 1 489 56 is_stmt 0 view .LVU603
 1885 0036 5B69     		ldr	r3, [r3, #20]
 489:System/storage/Storage_Dev_Port.c ****             /* get w25qxx device info */
 1886              		.loc 1 489 28 view .LVU604
 1887 0038 01A8     		add	r0, sp, #4
 1888              	.LVL206:
 489:System/storage/Storage_Dev_Port.c ****             /* get w25qxx device info */
ARM GAS  C:\Users\8bit\AppData\Local\Temp\ccMxBSAI.s 			page 52


 1889              		.loc 1 489 28 view .LVU605
 1890 003a 9847     		blx	r3
 1891              	.LVL207:
 489:System/storage/Storage_Dev_Port.c ****             /* get w25qxx device info */
 1892              		.loc 1 489 26 view .LVU606
 1893 003c DDF81490 		ldr	r9, [sp, #20]
 1894              	.LVL208:
 492:System/storage/Storage_Dev_Port.c ****             if (flash_end_addr > write_start_addr)
 1895              		.loc 1 492 13 is_stmt 1 view .LVU607
 492:System/storage/Storage_Dev_Port.c ****             if (flash_end_addr > write_start_addr)
 1896              		.loc 1 492 30 is_stmt 0 view .LVU608
 1897 0040 236B     		ldr	r3, [r4, #48]
 492:System/storage/Storage_Dev_Port.c ****             if (flash_end_addr > write_start_addr)
 1898              		.loc 1 492 58 view .LVU609
 1899 0042 5B69     		ldr	r3, [r3, #20]
 492:System/storage/Storage_Dev_Port.c ****             if (flash_end_addr > write_start_addr)
 1900              		.loc 1 492 30 view .LVU610
 1901 0044 E16A     		ldr	r1, [r4, #44]
 1902 0046 08A8     		add	r0, sp, #32
 1903 0048 9847     		blx	r3
 1904              	.LVL209:
 492:System/storage/Storage_Dev_Port.c ****             if (flash_end_addr > write_start_addr)
 1905              		.loc 1 492 28 view .LVU611
 1906 004a 099F     		ldr	r7, [sp, #36]
 1907              	.LVL210:
 493:System/storage/Storage_Dev_Port.c ****                 return false;
 1908              		.loc 1 493 13 is_stmt 1 view .LVU612
 493:System/storage/Storage_Dev_Port.c ****                 return false;
 1909              		.loc 1 493 16 is_stmt 0 view .LVU613
 1910 004c BA45     		cmp	r10, r7
 1911 004e 63D3     		bcc	.L146
 497:System/storage/Storage_Dev_Port.c ****             if ((len + write_start_addr) > flash_end_addr)
 1912              		.loc 1 497 13 is_stmt 1 view .LVU614
 497:System/storage/Storage_Dev_Port.c ****             if ((len + write_start_addr) > flash_end_addr)
 1913              		.loc 1 497 31 is_stmt 0 view .LVU615
 1914 0050 236B     		ldr	r3, [r4, #48]
 497:System/storage/Storage_Dev_Port.c ****             if ((len + write_start_addr) > flash_end_addr)
 1915              		.loc 1 497 59 view .LVU616
 1916 0052 5B69     		ldr	r3, [r3, #20]
 497:System/storage/Storage_Dev_Port.c ****             if ((len + write_start_addr) > flash_end_addr)
 1917              		.loc 1 497 31 view .LVU617
 1918 0054 E16A     		ldr	r1, [r4, #44]
 1919 0056 0FA8     		add	r0, sp, #60
 1920 0058 9847     		blx	r3
 1921              	.LVL211:
 497:System/storage/Storage_Dev_Port.c ****             if ((len + write_start_addr) > flash_end_addr)
 1922              		.loc 1 497 95 view .LVU618
 1923 005a 119B     		ldr	r3, [sp, #68]
 497:System/storage/Storage_Dev_Port.c ****             if ((len + write_start_addr) > flash_end_addr)
 1924              		.loc 1 497 28 view .LVU619
 1925 005c 07EB0308 		add	r8, r7, r3
 1926              	.LVL212:
 498:System/storage/Storage_Dev_Port.c ****                 return false;
 1927              		.loc 1 498 13 is_stmt 1 view .LVU620
 498:System/storage/Storage_Dev_Port.c ****                 return false;
 1928              		.loc 1 498 22 is_stmt 0 view .LVU621
 1929 0060 0AEB0603 		add	r3, r10, r6
ARM GAS  C:\Users\8bit\AppData\Local\Temp\ccMxBSAI.s 			page 53


 498:System/storage/Storage_Dev_Port.c ****                 return false;
 1930              		.loc 1 498 16 view .LVU622
 1931 0064 4345     		cmp	r3, r8
 1932 0066 59D8     		bhi	.L147
 501:System/storage/Storage_Dev_Port.c ****                 return false;
 1933              		.loc 1 501 13 is_stmt 1 view .LVU623
 501:System/storage/Storage_Dev_Port.c ****                 return false;
 1934              		.loc 1 501 16 is_stmt 0 view .LVU624
 1935 0068 B9F1000F 		cmp	r9, #0
 1936 006c 58D0     		beq	.L148
 504:System/storage/Storage_Dev_Port.c ****             write_offset = write_start_addr - section_start_addr;
 1937              		.loc 1 504 13 is_stmt 1 view .LVU625
 504:System/storage/Storage_Dev_Port.c ****             write_offset = write_start_addr - section_start_addr;
 1938              		.loc 1 504 34 is_stmt 0 view .LVU626
 1939 006e 236B     		ldr	r3, [r4, #48]
 504:System/storage/Storage_Dev_Port.c ****             write_offset = write_start_addr - section_start_addr;
 1940              		.loc 1 504 62 view .LVU627
 1941 0070 9B69     		ldr	r3, [r3, #24]
 504:System/storage/Storage_Dev_Port.c ****             write_offset = write_start_addr - section_start_addr;
 1942              		.loc 1 504 34 view .LVU628
 1943 0072 5146     		mov	r1, r10
 1944 0074 E06A     		ldr	r0, [r4, #44]
 1945 0076 9847     		blx	r3
 1946              	.LVL213:
 1947 0078 8046     		mov	r8, r0
 1948              	.LVL214:
 505:System/storage/Storage_Dev_Port.c ****             if (section_size > sizeof(write_tmp))
 1949              		.loc 1 505 13 is_stmt 1 view .LVU629
 505:System/storage/Storage_Dev_Port.c ****             if (section_size > sizeof(write_tmp))
 1950              		.loc 1 505 26 is_stmt 0 view .LVU630
 1951 007a AAEB000A 		sub	r10, r10, r0
 1952              	.LVL215:
 506:System/storage/Storage_Dev_Port.c ****                 return false;
 1953              		.loc 1 506 13 is_stmt 1 view .LVU631
 506:System/storage/Storage_Dev_Port.c ****                 return false;
 1954              		.loc 1 506 16 is_stmt 0 view .LVU632
 1955 007e B9F5005F 		cmp	r9, #8192
 1956 0082 28D9     		bls	.L139
 507:System/storage/Storage_Dev_Port.c **** 
 1957              		.loc 1 507 24 view .LVU633
 1958 0084 0020     		movs	r0, #0
 1959              	.LVL216:
 507:System/storage/Storage_Dev_Port.c **** 
 1960              		.loc 1 507 24 view .LVU634
 1961 0086 D3E7     		b	.L136
 1962              	.LVL217:
 1963              	.L152:
 1964              	.LBB11:
 507:System/storage/Storage_Dev_Port.c **** 
 1965              		.loc 1 507 24 view .LVU635
 1966 0088 3746     		mov	r7, r6
 1967              	.LVL218:
 1968              	.L137:
 527:System/storage/Storage_Dev_Port.c **** 
 1969              		.loc 1 527 17 is_stmt 1 view .LVU636
 1970 008a DFF8A8B0 		ldr	fp, .L159
 1971 008e 3A46     		mov	r2, r7
ARM GAS  C:\Users\8bit\AppData\Local\Temp\ccMxBSAI.s 			page 54


 1972 0090 2946     		mov	r1, r5
 1973 0092 0BEB0A00 		add	r0, fp, r10
 1974 0096 FFF7FEFF 		bl	memcpy
 1975              	.LVL219:
 529:System/storage/Storage_Dev_Port.c **** 
 1976              		.loc 1 529 17 view .LVU637
 529:System/storage/Storage_Dev_Port.c **** 
 1977              		.loc 1 529 46 is_stmt 0 view .LVU638
 1978 009a 236B     		ldr	r3, [r4, #48]
 529:System/storage/Storage_Dev_Port.c **** 
 1979              		.loc 1 529 74 view .LVU639
 1980 009c D3F804A0 		ldr	r10, [r3, #4]
 1981              	.LVL220:
 529:System/storage/Storage_Dev_Port.c **** 
 1982              		.loc 1 529 46 view .LVU640
 1983 00a0 4B46     		mov	r3, r9
 1984 00a2 5A46     		mov	r2, fp
 1985 00a4 4146     		mov	r1, r8
 1986 00a6 E06A     		ldr	r0, [r4, #44]
 1987 00a8 D047     		blx	r10
 1988              	.LVL221:
 1989 00aa 8246     		mov	r10, r0
 1990              	.LVL222:
 532:System/storage/Storage_Dev_Port.c ****                 
 1991              		.loc 1 532 17 is_stmt 1 view .LVU641
 1992 00ac 4A46     		mov	r2, r9
 1993 00ae 0021     		movs	r1, #0
 1994 00b0 5846     		mov	r0, fp
 1995 00b2 FFF7FEFF 		bl	memset
 1996              	.LVL223:
 534:System/storage/Storage_Dev_Port.c ****                 if (state == DevW25Qxx_Ok)
 1997              		.loc 1 534 17 view .LVU642
 534:System/storage/Storage_Dev_Port.c ****                 if (state == DevW25Qxx_Ok)
 1998              		.loc 1 534 21 is_stmt 0 view .LVU643
 1999 00b6 F61B     		subs	r6, r6, r7
 2000              	.LVL224:
 535:System/storage/Storage_Dev_Port.c ****                 {
 2001              		.loc 1 535 17 is_stmt 1 view .LVU644
 535:System/storage/Storage_Dev_Port.c ****                 {
 2002              		.loc 1 535 20 is_stmt 0 view .LVU645
 2003 00b8 BAF1000F 		cmp	r10, #0
 2004 00bc 36D1     		bne	.L153
 537:System/storage/Storage_Dev_Port.c ****                         return true;
 2005              		.loc 1 537 21 is_stmt 1 view .LVU646
 537:System/storage/Storage_Dev_Port.c ****                         return true;
 2006              		.loc 1 537 24 is_stmt 0 view .LVU647
 2007 00be 002E     		cmp	r6, #0
 2008 00c0 36D0     		beq	.L154
 543:System/storage/Storage_Dev_Port.c ****                 next_write_addr = To_DevW25Qxx_API(p_dev->api)->get_section_start_addr(To_DevW25Qxx
 2009              		.loc 1 543 17 is_stmt 1 view .LVU648
 2010              	.LVL225:
 544:System/storage/Storage_Dev_Port.c ****                 if (next_write_addr == section_start_addr)
 2011              		.loc 1 544 17 view .LVU649
 544:System/storage/Storage_Dev_Port.c ****                 if (next_write_addr == section_start_addr)
 2012              		.loc 1 544 35 is_stmt 0 view .LVU650
 2013 00c2 236B     		ldr	r3, [r4, #48]
 544:System/storage/Storage_Dev_Port.c ****                 if (next_write_addr == section_start_addr)
ARM GAS  C:\Users\8bit\AppData\Local\Temp\ccMxBSAI.s 			page 55


 2014              		.loc 1 544 63 view .LVU651
 2015 00c4 9B69     		ldr	r3, [r3, #24]
 544:System/storage/Storage_Dev_Port.c ****                 if (next_write_addr == section_start_addr)
 2016              		.loc 1 544 35 view .LVU652
 2017 00c6 08EB0701 		add	r1, r8, r7
 2018 00ca E06A     		ldr	r0, [r4, #44]
 2019 00cc 9847     		blx	r3
 2020              	.LVL226:
 545:System/storage/Storage_Dev_Port.c ****                     write_offset = write_len;
 2021              		.loc 1 545 17 is_stmt 1 view .LVU653
 545:System/storage/Storage_Dev_Port.c ****                     write_offset = write_len;
 2022              		.loc 1 545 20 is_stmt 0 view .LVU654
 2023 00ce 8045     		cmp	r8, r0
 2024 00d0 16D0     		beq	.L158
 2025              	.LVL227:
 2026              	.L138:
 548:System/storage/Storage_Dev_Port.c ****                 write_len = len;
 2027              		.loc 1 548 17 is_stmt 1 view .LVU655
 548:System/storage/Storage_Dev_Port.c ****                 write_len = len;
 2028              		.loc 1 548 24 is_stmt 0 view .LVU656
 2029 00d2 3D44     		add	r5, r5, r7
 2030              	.LVL228:
 549:System/storage/Storage_Dev_Port.c ****                 section_start_addr = next_write_addr; 
 2031              		.loc 1 549 17 is_stmt 1 view .LVU657
 550:System/storage/Storage_Dev_Port.c ****             }
 2032              		.loc 1 550 17 view .LVU658
 550:System/storage/Storage_Dev_Port.c ****             }
 2033              		.loc 1 550 17 is_stmt 0 view .LVU659
 2034              	.LBE11:
 509:System/storage/Storage_Dev_Port.c ****             {
 2035              		.loc 1 509 18 is_stmt 1 view .LVU660
 2036              	.LBB12:
 550:System/storage/Storage_Dev_Port.c ****             }
 2037              		.loc 1 550 36 is_stmt 0 view .LVU661
 2038 00d4 8046     		mov	r8, r0
 2039              	.LVL229:
 2040              	.L139:
 550:System/storage/Storage_Dev_Port.c ****             }
 2041              		.loc 1 550 36 view .LVU662
 2042              	.LBE12:
 509:System/storage/Storage_Dev_Port.c ****             {
 2043              		.loc 1 509 13 is_stmt 1 view .LVU663
 2044              	.LBB13:
 515:System/storage/Storage_Dev_Port.c ****                     return false;
 2045              		.loc 1 515 17 view .LVU664
 515:System/storage/Storage_Dev_Port.c ****                     return false;
 2046              		.loc 1 515 21 is_stmt 0 view .LVU665
 2047 00d6 236B     		ldr	r3, [r4, #48]
 515:System/storage/Storage_Dev_Port.c ****                     return false;
 2048              		.loc 1 515 49 view .LVU666
 2049 00d8 9F68     		ldr	r7, [r3, #8]
 515:System/storage/Storage_Dev_Port.c ****                     return false;
 2050              		.loc 1 515 21 view .LVU667
 2051 00da 4B46     		mov	r3, r9
 2052 00dc 154A     		ldr	r2, .L159
 2053 00de 4146     		mov	r1, r8
 2054 00e0 E06A     		ldr	r0, [r4, #44]
ARM GAS  C:\Users\8bit\AppData\Local\Temp\ccMxBSAI.s 			page 56


 2055              	.LVL230:
 515:System/storage/Storage_Dev_Port.c ****                     return false;
 2056              		.loc 1 515 21 view .LVU668
 2057 00e2 B847     		blx	r7
 2058              	.LVL231:
 515:System/storage/Storage_Dev_Port.c ****                     return false;
 2059              		.loc 1 515 20 view .LVU669
 2060 00e4 F0B9     		cbnz	r0, .L150
 519:System/storage/Storage_Dev_Port.c ****                     return false;
 2061              		.loc 1 519 17 is_stmt 1 view .LVU670
 519:System/storage/Storage_Dev_Port.c ****                     return false;
 2062              		.loc 1 519 21 is_stmt 0 view .LVU671
 2063 00e6 236B     		ldr	r3, [r4, #48]
 519:System/storage/Storage_Dev_Port.c ****                     return false;
 2064              		.loc 1 519 49 view .LVU672
 2065 00e8 DB68     		ldr	r3, [r3, #12]
 519:System/storage/Storage_Dev_Port.c ****                     return false;
 2066              		.loc 1 519 21 view .LVU673
 2067 00ea 4146     		mov	r1, r8
 2068 00ec E06A     		ldr	r0, [r4, #44]
 2069 00ee 9847     		blx	r3
 2070              	.LVL232:
 519:System/storage/Storage_Dev_Port.c ****                     return false;
 2071              		.loc 1 519 20 view .LVU674
 2072 00f0 D0B9     		cbnz	r0, .L151
 523:System/storage/Storage_Dev_Port.c ****                     write_len = section_size - write_offset;
 2073              		.loc 1 523 17 is_stmt 1 view .LVU675
 523:System/storage/Storage_Dev_Port.c ****                     write_len = section_size - write_offset;
 2074              		.loc 1 523 34 is_stmt 0 view .LVU676
 2075 00f2 06EB0A03 		add	r3, r6, r10
 523:System/storage/Storage_Dev_Port.c ****                     write_len = section_size - write_offset;
 2076              		.loc 1 523 20 view .LVU677
 2077 00f6 4B45     		cmp	r3, r9
 2078 00f8 C6D9     		bls	.L152
 524:System/storage/Storage_Dev_Port.c ****                 
 2079              		.loc 1 524 21 is_stmt 1 view .LVU678
 524:System/storage/Storage_Dev_Port.c ****                 
 2080              		.loc 1 524 31 is_stmt 0 view .LVU679
 2081 00fa A9EB0A07 		sub	r7, r9, r10
 2082              	.LVL233:
 524:System/storage/Storage_Dev_Port.c ****                 
 2083              		.loc 1 524 31 view .LVU680
 2084 00fe C4E7     		b	.L137
 2085              	.LVL234:
 2086              	.L158:
 546:System/storage/Storage_Dev_Port.c **** 
 2087              		.loc 1 546 34 view .LVU681
 2088 0100 BA46     		mov	r10, r7
 2089              	.LVL235:
 546:System/storage/Storage_Dev_Port.c **** 
 2090              		.loc 1 546 34 view .LVU682
 2091 0102 E6E7     		b	.L138
 2092              	.LVL236:
 2093              	.L140:
 546:System/storage/Storage_Dev_Port.c **** 
 2094              		.loc 1 546 34 view .LVU683
 2095              	.LBE13:
ARM GAS  C:\Users\8bit\AppData\Local\Temp\ccMxBSAI.s 			page 57


 484:System/storage/Storage_Dev_Port.c **** 
 2096              		.loc 1 484 16 view .LVU684
 2097 0104 0020     		movs	r0, #0
 2098              	.LVL237:
 484:System/storage/Storage_Dev_Port.c **** 
 2099              		.loc 1 484 16 view .LVU685
 2100 0106 93E7     		b	.L136
 2101              	.LVL238:
 2102              	.L141:
 484:System/storage/Storage_Dev_Port.c **** 
 2103              		.loc 1 484 16 view .LVU686
 2104 0108 0020     		movs	r0, #0
 2105              	.LVL239:
 484:System/storage/Storage_Dev_Port.c **** 
 2106              		.loc 1 484 16 view .LVU687
 2107 010a 91E7     		b	.L136
 2108              	.LVL240:
 2109              	.L142:
 484:System/storage/Storage_Dev_Port.c **** 
 2110              		.loc 1 484 16 view .LVU688
 2111 010c 0020     		movs	r0, #0
 2112              	.LVL241:
 484:System/storage/Storage_Dev_Port.c **** 
 2113              		.loc 1 484 16 view .LVU689
 2114 010e 8FE7     		b	.L136
 2115              	.LVL242:
 2116              	.L143:
 484:System/storage/Storage_Dev_Port.c **** 
 2117              		.loc 1 484 16 view .LVU690
 2118 0110 0020     		movs	r0, #0
 2119              	.LVL243:
 484:System/storage/Storage_Dev_Port.c **** 
 2120              		.loc 1 484 16 view .LVU691
 2121 0112 8DE7     		b	.L136
 2122              	.LVL244:
 2123              	.L144:
 484:System/storage/Storage_Dev_Port.c **** 
 2124              		.loc 1 484 16 view .LVU692
 2125 0114 0020     		movs	r0, #0
 2126              	.LVL245:
 484:System/storage/Storage_Dev_Port.c **** 
 2127              		.loc 1 484 16 view .LVU693
 2128 0116 8BE7     		b	.L136
 2129              	.LVL246:
 2130              	.L146:
 494:System/storage/Storage_Dev_Port.c **** 
 2131              		.loc 1 494 24 view .LVU694
 2132 0118 0020     		movs	r0, #0
 2133 011a 89E7     		b	.L136
 2134              	.LVL247:
 2135              	.L147:
 499:System/storage/Storage_Dev_Port.c ****             
 2136              		.loc 1 499 24 view .LVU695
 2137 011c 0020     		movs	r0, #0
 2138 011e 87E7     		b	.L136
 2139              	.L148:
 502:System/storage/Storage_Dev_Port.c ****                 
ARM GAS  C:\Users\8bit\AppData\Local\Temp\ccMxBSAI.s 			page 58


 2140              		.loc 1 502 24 view .LVU696
 2141 0120 0020     		movs	r0, #0
 2142 0122 85E7     		b	.L136
 2143              	.LVL248:
 2144              	.L150:
 2145              	.LBB14:
 516:System/storage/Storage_Dev_Port.c **** 
 2146              		.loc 1 516 28 view .LVU697
 2147 0124 0020     		movs	r0, #0
 2148 0126 83E7     		b	.L136
 2149              	.L151:
 520:System/storage/Storage_Dev_Port.c **** 
 2150              		.loc 1 520 28 view .LVU698
 2151 0128 0020     		movs	r0, #0
 2152 012a 81E7     		b	.L136
 2153              	.LVL249:
 2154              	.L153:
 541:System/storage/Storage_Dev_Port.c **** 
 2155              		.loc 1 541 28 view .LVU699
 2156 012c 0020     		movs	r0, #0
 2157 012e 7FE7     		b	.L136
 2158              	.L154:
 538:System/storage/Storage_Dev_Port.c ****                 }
 2159              		.loc 1 538 32 view .LVU700
 2160 0130 0120     		movs	r0, #1
 2161 0132 7DE7     		b	.L136
 2162              	.L160:
 2163              		.align	2
 2164              	.L159:
 2165 0134 00000000 		.word	write_tmp
 2166              	.LBE14:
 2167              		.cfi_endproc
 2168              	.LFE14:
 2170              		.section	.text.Storage_Dev_Firmware_Write,"ax",%progbits
 2171              		.align	1
 2172              		.syntax unified
 2173              		.thumb
 2174              		.thumb_func
 2176              	Storage_Dev_Firmware_Write:
 2177              	.LVL250:
 2178              	.LFB12:
 334:System/storage/Storage_Dev_Port.c ****     uint32_t write_addr = base_addr + addr_offset;
 2179              		.loc 1 334 1 is_stmt 1 view -0
 2180              		.cfi_startproc
 2181              		@ args = 4, pretend = 0, frame = 0
 2182              		@ frame_needed = 0, uses_anonymous_args = 0
 334:System/storage/Storage_Dev_Port.c ****     uint32_t write_addr = base_addr + addr_offset;
 2183              		.loc 1 334 1 is_stmt 0 view .LVU702
 2184 0000 2DE9F84F 		push	{r3, r4, r5, r6, r7, r8, r9, r10, fp, lr}
 2185              	.LCFI31:
 2186              		.cfi_def_cfa_offset 40
 2187              		.cfi_offset 3, -40
 2188              		.cfi_offset 4, -36
 2189              		.cfi_offset 5, -32
 2190              		.cfi_offset 6, -28
 2191              		.cfi_offset 7, -24
 2192              		.cfi_offset 8, -20
ARM GAS  C:\Users\8bit\AppData\Local\Temp\ccMxBSAI.s 			page 59


 2193              		.cfi_offset 9, -16
 2194              		.cfi_offset 10, -12
 2195              		.cfi_offset 11, -8
 2196              		.cfi_offset 14, -4
 2197 0004 BDF82870 		ldrh	r7, [sp, #40]
 335:System/storage/Storage_Dev_Port.c ****     uint32_t section_addr = 0;
 2198              		.loc 1 335 5 is_stmt 1 view .LVU703
 335:System/storage/Storage_Dev_Port.c ****     uint32_t section_addr = 0;
 2199              		.loc 1 335 14 is_stmt 0 view .LVU704
 2200 0008 8E18     		adds	r6, r1, r2
 2201              	.LVL251:
 336:System/storage/Storage_Dev_Port.c ****     uint32_t write_size = 0;
 2202              		.loc 1 336 5 is_stmt 1 view .LVU705
 337:System/storage/Storage_Dev_Port.c ****     
 2203              		.loc 1 337 5 view .LVU706
 339:System/storage/Storage_Dev_Port.c ****         (Storage_TabSize == 0) || \
 2204              		.loc 1 339 5 view .LVU707
 339:System/storage/Storage_Dev_Port.c ****         (Storage_TabSize == 0) || \
 2205              		.loc 1 339 8 is_stmt 0 view .LVU708
 2206 000a 0028     		cmp	r0, #0
 2207 000c 56D0     		beq	.L165
 2208 000e 9946     		mov	r9, r3
 2209 0010 0446     		mov	r4, r0
 340:System/storage/Storage_Dev_Port.c ****         (sizeof(read_tmp) < size) || \
 2210              		.loc 1 340 32 view .LVU709
 2211 0012 B7F5005F 		cmp	r7, #8192
 2212 0016 53D8     		bhi	.L166
 342:System/storage/Storage_Dev_Port.c ****         (p_dev->obj == NULL))
 2213              		.loc 1 342 15 view .LVU710
 2214 0018 036B     		ldr	r3, [r0, #48]
 2215              	.LVL252:
 341:System/storage/Storage_Dev_Port.c ****         (p_dev->api == NULL) || \
 2216              		.loc 1 341 35 view .LVU711
 2217 001a 002B     		cmp	r3, #0
 2218 001c 53D0     		beq	.L167
 343:System/storage/Storage_Dev_Port.c ****         return false;
 2219              		.loc 1 343 15 view .LVU712
 2220 001e C06A     		ldr	r0, [r0, #44]
 2221              	.LVL253:
 342:System/storage/Storage_Dev_Port.c ****         (p_dev->obj == NULL))
 2222              		.loc 1 342 30 view .LVU713
 2223 0020 0028     		cmp	r0, #0
 2224 0022 52D0     		beq	.L168
 346:System/storage/Storage_Dev_Port.c ****     {
 2225              		.loc 1 346 5 is_stmt 1 view .LVU714
 346:System/storage/Storage_Dev_Port.c ****     {
 2226              		.loc 1 346 27 is_stmt 0 view .LVU715
 2227 0024 2278     		ldrb	r2, [r4]	@ zero_extendqisi2
 2228              	.LVL254:
 346:System/storage/Storage_Dev_Port.c ****     {
 2229              		.loc 1 346 5 view .LVU716
 2230 0026 012A     		cmp	r2, #1
 2231 0028 01D0     		beq	.L176
 388:System/storage/Storage_Dev_Port.c ****     }
 2232              		.loc 1 388 25 view .LVU717
 2233 002a 0020     		movs	r0, #0
 2234 002c 49E0     		b	.L162
ARM GAS  C:\Users\8bit\AppData\Local\Temp\ccMxBSAI.s 			page 60


 2235              	.L176:
 349:System/storage/Storage_Dev_Port.c **** 
 2236              		.loc 1 349 13 is_stmt 1 view .LVU718
 349:System/storage/Storage_Dev_Port.c **** 
 2237              		.loc 1 349 56 is_stmt 0 view .LVU719
 2238 002e 9B69     		ldr	r3, [r3, #24]
 349:System/storage/Storage_Dev_Port.c **** 
 2239              		.loc 1 349 28 view .LVU720
 2240 0030 3146     		mov	r1, r6
 2241              	.LVL255:
 349:System/storage/Storage_Dev_Port.c **** 
 2242              		.loc 1 349 28 view .LVU721
 2243 0032 9847     		blx	r3
 2244              	.LVL256:
 2245 0034 0546     		mov	r5, r0
 2246              	.LVL257:
 349:System/storage/Storage_Dev_Port.c **** 
 2247              		.loc 1 349 28 view .LVU722
 2248 0036 1BE0     		b	.L164
 2249              	.LVL258:
 2250              	.L173:
 373:System/storage/Storage_Dev_Port.c ****                 }
 2251              		.loc 1 373 26 view .LVU723
 2252 0038 0027     		movs	r7, #0
 2253              	.LVL259:
 2254              	.L163:
 377:System/storage/Storage_Dev_Port.c ****                 if (To_DevW25Qxx_API(p_dev->api)->write(To_DevW25Qxx_OBJ(p_dev->obj), section_addr,
 2255              		.loc 1 377 17 is_stmt 1 view .LVU724
 377:System/storage/Storage_Dev_Port.c ****                 if (To_DevW25Qxx_API(p_dev->api)->write(To_DevW25Qxx_OBJ(p_dev->obj), section_addr,
 2256              		.loc 1 377 45 is_stmt 0 view .LVU725
 2257 003a 701B     		subs	r0, r6, r5
 377:System/storage/Storage_Dev_Port.c ****                 if (To_DevW25Qxx_API(p_dev->api)->write(To_DevW25Qxx_OBJ(p_dev->obj), section_addr,
 2258              		.loc 1 377 24 view .LVU726
 2259 003c DFF8A0A0 		ldr	r10, .L177
 377:System/storage/Storage_Dev_Port.c ****                 if (To_DevW25Qxx_API(p_dev->api)->write(To_DevW25Qxx_OBJ(p_dev->obj), section_addr,
 2260              		.loc 1 377 17 view .LVU727
 2261 0040 4246     		mov	r2, r8
 2262 0042 4946     		mov	r1, r9
 2263 0044 5044     		add	r0, r0, r10
 2264 0046 FFF7FEFF 		bl	memcpy
 2265              	.LVL260:
 378:System/storage/Storage_Dev_Port.c ****                     return false;
 2266              		.loc 1 378 17 is_stmt 1 view .LVU728
 378:System/storage/Storage_Dev_Port.c ****                     return false;
 2267              		.loc 1 378 21 is_stmt 0 view .LVU729
 2268 004a 236B     		ldr	r3, [r4, #48]
 378:System/storage/Storage_Dev_Port.c ****                     return false;
 2269              		.loc 1 378 49 view .LVU730
 2270 004c D3F804B0 		ldr	fp, [r3, #4]
 378:System/storage/Storage_Dev_Port.c ****                     return false;
 2271              		.loc 1 378 21 view .LVU731
 2272 0050 4FF48053 		mov	r3, #4096
 2273 0054 5246     		mov	r2, r10
 2274 0056 2946     		mov	r1, r5
 2275 0058 E06A     		ldr	r0, [r4, #44]
 2276 005a D847     		blx	fp
 2277              	.LVL261:
ARM GAS  C:\Users\8bit\AppData\Local\Temp\ccMxBSAI.s 			page 61


 378:System/storage/Storage_Dev_Port.c ****                     return false;
 2278              		.loc 1 378 20 view .LVU732
 2279 005c 0028     		cmp	r0, #0
 2280 005e 3CD1     		bne	.L174
 382:System/storage/Storage_Dev_Port.c ****                 write_addr += write_size;
 2281              		.loc 1 382 17 is_stmt 1 view .LVU733
 382:System/storage/Storage_Dev_Port.c ****                 write_addr += write_size;
 2282              		.loc 1 382 24 is_stmt 0 view .LVU734
 2283 0060 C144     		add	r9, r9, r8
 2284              	.LVL262:
 383:System/storage/Storage_Dev_Port.c ****                 section_addr = To_DevW25Qxx_API(p_dev->api)->get_section_start_addr(To_DevW25Qxx_OB
 2285              		.loc 1 383 17 is_stmt 1 view .LVU735
 383:System/storage/Storage_Dev_Port.c ****                 section_addr = To_DevW25Qxx_API(p_dev->api)->get_section_start_addr(To_DevW25Qxx_OB
 2286              		.loc 1 383 28 is_stmt 0 view .LVU736
 2287 0062 4644     		add	r6, r6, r8
 2288              	.LVL263:
 384:System/storage/Storage_Dev_Port.c ****             }
 2289              		.loc 1 384 17 is_stmt 1 view .LVU737
 384:System/storage/Storage_Dev_Port.c ****             }
 2290              		.loc 1 384 32 is_stmt 0 view .LVU738
 2291 0064 236B     		ldr	r3, [r4, #48]
 384:System/storage/Storage_Dev_Port.c ****             }
 2292              		.loc 1 384 60 view .LVU739
 2293 0066 9B69     		ldr	r3, [r3, #24]
 384:System/storage/Storage_Dev_Port.c ****             }
 2294              		.loc 1 384 32 view .LVU740
 2295 0068 3146     		mov	r1, r6
 2296 006a E06A     		ldr	r0, [r4, #44]
 2297 006c 9847     		blx	r3
 2298              	.LVL264:
 2299 006e 0546     		mov	r5, r0
 2300              	.LVL265:
 351:System/storage/Storage_Dev_Port.c ****             {
 2301              		.loc 1 351 19 is_stmt 1 view .LVU741
 2302              	.L164:
 351:System/storage/Storage_Dev_Port.c ****             {
 2303              		.loc 1 351 13 view .LVU742
 353:System/storage/Storage_Dev_Port.c ****                     return true;
 2304              		.loc 1 353 17 view .LVU743
 353:System/storage/Storage_Dev_Port.c ****                     return true;
 2305              		.loc 1 353 20 is_stmt 0 view .LVU744
 2306 0070 6FB3     		cbz	r7, .L170
 357:System/storage/Storage_Dev_Port.c ****                 if (To_DevW25Qxx_API(p_dev->api)->read(To_DevW25Qxx_OBJ(p_dev->obj), section_addr, 
 2307              		.loc 1 357 17 is_stmt 1 view .LVU745
 2308 0072 DFF86C80 		ldr	r8, .L177
 2309 0076 4FF4805A 		mov	r10, #4096
 2310 007a 5246     		mov	r2, r10
 2311 007c 0021     		movs	r1, #0
 2312 007e 4046     		mov	r0, r8
 2313              	.LVL266:
 357:System/storage/Storage_Dev_Port.c ****                 if (To_DevW25Qxx_API(p_dev->api)->read(To_DevW25Qxx_OBJ(p_dev->obj), section_addr, 
 2314              		.loc 1 357 17 is_stmt 0 view .LVU746
 2315 0080 FFF7FEFF 		bl	memset
 2316              	.LVL267:
 358:System/storage/Storage_Dev_Port.c ****                     return false;
 2317              		.loc 1 358 17 is_stmt 1 view .LVU747
 358:System/storage/Storage_Dev_Port.c ****                     return false;
ARM GAS  C:\Users\8bit\AppData\Local\Temp\ccMxBSAI.s 			page 62


 2318              		.loc 1 358 21 is_stmt 0 view .LVU748
 2319 0084 236B     		ldr	r3, [r4, #48]
 358:System/storage/Storage_Dev_Port.c ****                     return false;
 2320              		.loc 1 358 49 view .LVU749
 2321 0086 D3F808B0 		ldr	fp, [r3, #8]
 358:System/storage/Storage_Dev_Port.c ****                     return false;
 2322              		.loc 1 358 21 view .LVU750
 2323 008a 5346     		mov	r3, r10
 2324 008c 4246     		mov	r2, r8
 2325 008e 2946     		mov	r1, r5
 2326 0090 E06A     		ldr	r0, [r4, #44]
 2327 0092 D847     		blx	fp
 2328              	.LVL268:
 358:System/storage/Storage_Dev_Port.c ****                     return false;
 2329              		.loc 1 358 20 view .LVU751
 2330 0094 E8B9     		cbnz	r0, .L171
 362:System/storage/Storage_Dev_Port.c ****                     return false;
 2331              		.loc 1 362 17 is_stmt 1 view .LVU752
 362:System/storage/Storage_Dev_Port.c ****                     return false;
 2332              		.loc 1 362 21 is_stmt 0 view .LVU753
 2333 0096 236B     		ldr	r3, [r4, #48]
 362:System/storage/Storage_Dev_Port.c ****                     return false;
 2334              		.loc 1 362 49 view .LVU754
 2335 0098 DB68     		ldr	r3, [r3, #12]
 362:System/storage/Storage_Dev_Port.c ****                     return false;
 2336              		.loc 1 362 21 view .LVU755
 2337 009a 2946     		mov	r1, r5
 2338 009c E06A     		ldr	r0, [r4, #44]
 2339 009e 9847     		blx	r3
 2340              	.LVL269:
 362:System/storage/Storage_Dev_Port.c ****                     return false;
 2341              		.loc 1 362 20 view .LVU756
 2342 00a0 C8B9     		cbnz	r0, .L172
 365:System/storage/Storage_Dev_Port.c ****                 {
 2343              		.loc 1 365 17 is_stmt 1 view .LVU757
 365:System/storage/Storage_Dev_Port.c ****                 {
 2344              		.loc 1 365 33 is_stmt 0 view .LVU758
 2345 00a2 B846     		mov	r8, r7
 2346 00a4 BB19     		adds	r3, r7, r6
 365:System/storage/Storage_Dev_Port.c ****                 {
 2347              		.loc 1 365 58 view .LVU759
 2348 00a6 05EB0A02 		add	r2, r5, r10
 365:System/storage/Storage_Dev_Port.c ****                 {
 2349              		.loc 1 365 20 view .LVU760
 2350 00aa 9342     		cmp	r3, r2
 2351 00ac C4D3     		bcc	.L173
 367:System/storage/Storage_Dev_Port.c ****                     size -= write_size;
 2352              		.loc 1 367 21 is_stmt 1 view .LVU761
 367:System/storage/Storage_Dev_Port.c ****                     size -= write_size;
 2353              		.loc 1 367 64 is_stmt 0 view .LVU762
 2354 00ae A5EB0608 		sub	r8, r5, r6
 367:System/storage/Storage_Dev_Port.c ****                     size -= write_size;
 2355              		.loc 1 367 32 view .LVU763
 2356 00b2 D044     		add	r8, r8, r10
 2357              	.LVL270:
 368:System/storage/Storage_Dev_Port.c ****                 }
 2358              		.loc 1 368 21 is_stmt 1 view .LVU764
ARM GAS  C:\Users\8bit\AppData\Local\Temp\ccMxBSAI.s 			page 63


 368:System/storage/Storage_Dev_Port.c ****                 }
 2359              		.loc 1 368 26 is_stmt 0 view .LVU765
 2360 00b4 A7EB0807 		sub	r7, r7, r8
 2361              	.LVL271:
 368:System/storage/Storage_Dev_Port.c ****                 }
 2362              		.loc 1 368 26 view .LVU766
 2363 00b8 BFB2     		uxth	r7, r7
 2364              	.LVL272:
 368:System/storage/Storage_Dev_Port.c ****                 }
 2365              		.loc 1 368 26 view .LVU767
 2366 00ba BEE7     		b	.L163
 2367              	.LVL273:
 2368              	.L165:
 344:System/storage/Storage_Dev_Port.c **** 
 2369              		.loc 1 344 16 view .LVU768
 2370 00bc 0020     		movs	r0, #0
 2371              	.LVL274:
 344:System/storage/Storage_Dev_Port.c **** 
 2372              		.loc 1 344 16 view .LVU769
 2373 00be 00E0     		b	.L162
 2374              	.LVL275:
 2375              	.L166:
 344:System/storage/Storage_Dev_Port.c **** 
 2376              		.loc 1 344 16 view .LVU770
 2377 00c0 0020     		movs	r0, #0
 2378              	.LVL276:
 2379              	.L162:
 390:System/storage/Storage_Dev_Port.c **** 
 2380              		.loc 1 390 1 view .LVU771
 2381 00c2 BDE8F88F 		pop	{r3, r4, r5, r6, r7, r8, r9, r10, fp, pc}
 2382              	.LVL277:
 2383              	.L167:
 344:System/storage/Storage_Dev_Port.c **** 
 2384              		.loc 1 344 16 view .LVU772
 2385 00c6 0020     		movs	r0, #0
 2386              	.LVL278:
 344:System/storage/Storage_Dev_Port.c **** 
 2387              		.loc 1 344 16 view .LVU773
 2388 00c8 FBE7     		b	.L162
 2389              	.L168:
 2390 00ca 0020     		movs	r0, #0
 2391 00cc F9E7     		b	.L162
 2392              	.LVL279:
 2393              	.L170:
 354:System/storage/Storage_Dev_Port.c **** 
 2394              		.loc 1 354 28 view .LVU774
 2395 00ce 0120     		movs	r0, #1
 2396              	.LVL280:
 354:System/storage/Storage_Dev_Port.c **** 
 2397              		.loc 1 354 28 view .LVU775
 2398 00d0 F7E7     		b	.L162
 2399              	.L171:
 359:System/storage/Storage_Dev_Port.c **** 
 2400              		.loc 1 359 28 view .LVU776
 2401 00d2 0020     		movs	r0, #0
 2402 00d4 F5E7     		b	.L162
 2403              	.L172:
ARM GAS  C:\Users\8bit\AppData\Local\Temp\ccMxBSAI.s 			page 64


 363:System/storage/Storage_Dev_Port.c **** 
 2404              		.loc 1 363 28 view .LVU777
 2405 00d6 0020     		movs	r0, #0
 2406 00d8 F3E7     		b	.L162
 2407              	.LVL281:
 2408              	.L174:
 379:System/storage/Storage_Dev_Port.c **** 
 2409              		.loc 1 379 28 view .LVU778
 2410 00da 0020     		movs	r0, #0
 2411 00dc F1E7     		b	.L162
 2412              	.L178:
 2413 00de 00BF     		.align	2
 2414              	.L177:
 2415 00e0 00200000 		.word	read_tmp
 2416              		.cfi_endproc
 2417              	.LFE12:
 2419              		.section	.text.Storage_Dev_Read_Section,"ax",%progbits
 2420              		.align	1
 2421              		.syntax unified
 2422              		.thumb
 2423              		.thumb_func
 2425              	Storage_Dev_Read_Section:
 2426              	.LVL282:
 2427              	.LFB8:
 180:System/storage/Storage_Dev_Port.c ****     uint32_t read_cnt = 0;
 2428              		.loc 1 180 1 is_stmt 1 view -0
 2429              		.cfi_startproc
 2430              		@ args = 0, pretend = 0, frame = 0
 2431              		@ frame_needed = 0, uses_anonymous_args = 0
 181:System/storage/Storage_Dev_Port.c ****     uint32_t addr_tmp = 0;
 2432              		.loc 1 181 5 view .LVU780
 182:System/storage/Storage_Dev_Port.c ****     
 2433              		.loc 1 182 5 view .LVU781
 184:System/storage/Storage_Dev_Port.c ****         (p_dev->api == NULL) || \
 2434              		.loc 1 184 5 view .LVU782
 184:System/storage/Storage_Dev_Port.c ****         (p_dev->api == NULL) || \
 2435              		.loc 1 184 8 is_stmt 0 view .LVU783
 2436 0000 A8B3     		cbz	r0, .L184
 180:System/storage/Storage_Dev_Port.c ****     uint32_t read_cnt = 0;
 2437              		.loc 1 180 1 discriminator 1 view .LVU784
 2438 0002 2DE9F047 		push	{r4, r5, r6, r7, r8, r9, r10, lr}
 2439              	.LCFI32:
 2440              		.cfi_def_cfa_offset 32
 2441              		.cfi_offset 4, -32
 2442              		.cfi_offset 5, -28
 2443              		.cfi_offset 6, -24
 2444              		.cfi_offset 7, -20
 2445              		.cfi_offset 8, -16
 2446              		.cfi_offset 9, -12
 2447              		.cfi_offset 10, -8
 2448              		.cfi_offset 14, -4
 2449 0006 0D46     		mov	r5, r1
 2450 0008 9046     		mov	r8, r2
 2451 000a 1F46     		mov	r7, r3
 2452 000c 0446     		mov	r4, r0
 185:System/storage/Storage_Dev_Port.c ****         (p_dev->obj == NULL) || \
 2453              		.loc 1 185 15 discriminator 1 view .LVU785
ARM GAS  C:\Users\8bit\AppData\Local\Temp\ccMxBSAI.s 			page 65


 2454 000e 036B     		ldr	r3, [r0, #48]
 2455              	.LVL283:
 184:System/storage/Storage_Dev_Port.c ****         (p_dev->api == NULL) || \
 2456              		.loc 1 184 25 discriminator 1 view .LVU786
 2457 0010 7BB3     		cbz	r3, .L185
 186:System/storage/Storage_Dev_Port.c ****         (p_data == NULL) || \
 2458              		.loc 1 186 15 view .LVU787
 2459 0012 C36A     		ldr	r3, [r0, #44]
 185:System/storage/Storage_Dev_Port.c ****         (p_dev->obj == NULL) || \
 2460              		.loc 1 185 30 view .LVU788
 2461 0014 7BB3     		cbz	r3, .L186
 186:System/storage/Storage_Dev_Port.c ****         (p_data == NULL) || \
 2462              		.loc 1 186 30 view .LVU789
 2463 0016 82B3     		cbz	r2, .L187
 187:System/storage/Storage_Dev_Port.c ****         (len == 0) || \
 2464              		.loc 1 187 26 view .LVU790
 2465 0018 8FB3     		cbz	r7, .L188
 189:System/storage/Storage_Dev_Port.c ****         (len % p_dev->sector_size)))
 2466              		.loc 1 189 23 view .LVU791
 2467 001a 836A     		ldr	r3, [r0, #40]
 189:System/storage/Storage_Dev_Port.c ****         (len % p_dev->sector_size)))
 2468              		.loc 1 189 16 view .LVU792
 2469 001c B1FBF3F2 		udiv	r2, r1, r3
 2470              	.LVL284:
 189:System/storage/Storage_Dev_Port.c ****         (len % p_dev->sector_size)))
 2471              		.loc 1 189 16 view .LVU793
 2472 0020 03FB1212 		mls	r2, r3, r2, r1
 188:System/storage/Storage_Dev_Port.c ****         ((addr % p_dev->sector_size) || \
 2473              		.loc 1 188 20 view .LVU794
 2474 0024 72BB     		cbnz	r2, .L189
 190:System/storage/Storage_Dev_Port.c ****         return false;
 2475              		.loc 1 190 14 view .LVU795
 2476 0026 B7FBF3F2 		udiv	r2, r7, r3
 2477 002a 03FB1272 		mls	r2, r3, r2, r7
 189:System/storage/Storage_Dev_Port.c ****         (len % p_dev->sector_size)))
 2478              		.loc 1 189 38 view .LVU796
 2479 002e 5ABB     		cbnz	r2, .L190
 193:System/storage/Storage_Dev_Port.c ****     addr_tmp = addr;
 2480              		.loc 1 193 5 is_stmt 1 view .LVU797
 193:System/storage/Storage_Dev_Port.c ****     addr_tmp = addr;
 2481              		.loc 1 193 14 is_stmt 0 view .LVU798
 2482 0030 B7FBF3F9 		udiv	r9, r7, r3
 2483              	.LVL285:
 194:System/storage/Storage_Dev_Port.c **** 
 2484              		.loc 1 194 5 is_stmt 1 view .LVU799
 196:System/storage/Storage_Dev_Port.c ****     {
 2485              		.loc 1 196 5 view .LVU800
 2486              	.LBB15:
 196:System/storage/Storage_Dev_Port.c ****     {
 2487              		.loc 1 196 10 view .LVU801
 196:System/storage/Storage_Dev_Port.c ****     {
 2488              		.loc 1 196 18 is_stmt 0 view .LVU802
 2489 0034 0026     		movs	r6, #0
 2490              	.LVL286:
 2491              	.L181:
 196:System/storage/Storage_Dev_Port.c ****     {
 2492              		.loc 1 196 25 is_stmt 1 discriminator 1 view .LVU803
ARM GAS  C:\Users\8bit\AppData\Local\Temp\ccMxBSAI.s 			page 66


 196:System/storage/Storage_Dev_Port.c ****     {
 2493              		.loc 1 196 5 is_stmt 0 discriminator 1 view .LVU804
 2494 0036 4E45     		cmp	r6, r9
 2495 0038 17D2     		bcs	.L196
 198:System/storage/Storage_Dev_Port.c ****         {
 2496              		.loc 1 198 9 is_stmt 1 view .LVU805
 198:System/storage/Storage_Dev_Port.c ****         {
 2497              		.loc 1 198 30 is_stmt 0 view .LVU806
 2498 003a 2378     		ldrb	r3, [r4]	@ zero_extendqisi2
 198:System/storage/Storage_Dev_Port.c ****         {
 2499              		.loc 1 198 9 view .LVU807
 2500 003c 012B     		cmp	r3, #1
 2501 003e 25D1     		bne	.L191
 202:System/storage/Storage_Dev_Port.c ****                 {
 2502              		.loc 1 202 17 is_stmt 1 view .LVU808
 202:System/storage/Storage_Dev_Port.c ****                 {
 2503              		.loc 1 202 21 is_stmt 0 view .LVU809
 2504 0040 236B     		ldr	r3, [r4, #48]
 202:System/storage/Storage_Dev_Port.c ****                 {
 2505              		.loc 1 202 49 view .LVU810
 2506 0042 D3F808A0 		ldr	r10, [r3, #8]
 202:System/storage/Storage_Dev_Port.c ****                 {
 2507              		.loc 1 202 21 view .LVU811
 2508 0046 3B46     		mov	r3, r7
 2509 0048 4246     		mov	r2, r8
 2510 004a 2946     		mov	r1, r5
 2511 004c E06A     		ldr	r0, [r4, #44]
 2512 004e D047     		blx	r10
 2513              	.LVL287:
 202:System/storage/Storage_Dev_Port.c ****                 {
 2514              		.loc 1 202 20 view .LVU812
 2515 0050 20B9     		cbnz	r0, .L197
 207:System/storage/Storage_Dev_Port.c **** 
 2516              		.loc 1 207 17 is_stmt 1 discriminator 2 view .LVU813
 212:System/storage/Storage_Dev_Port.c ****     }
 2517              		.loc 1 212 9 discriminator 2 view .LVU814
 212:System/storage/Storage_Dev_Port.c ****     }
 2518              		.loc 1 212 26 is_stmt 0 discriminator 2 view .LVU815
 2519 0052 A36A     		ldr	r3, [r4, #40]
 212:System/storage/Storage_Dev_Port.c ****     }
 2520              		.loc 1 212 18 discriminator 2 view .LVU816
 2521 0054 1D44     		add	r5, r5, r3
 2522              	.LVL288:
 196:System/storage/Storage_Dev_Port.c ****     {
 2523              		.loc 1 196 39 is_stmt 1 discriminator 2 view .LVU817
 196:System/storage/Storage_Dev_Port.c ****     {
 2524              		.loc 1 196 40 is_stmt 0 discriminator 2 view .LVU818
 2525 0056 0136     		adds	r6, r6, #1
 2526              	.LVL289:
 196:System/storage/Storage_Dev_Port.c ****     {
 2527              		.loc 1 196 40 discriminator 2 view .LVU819
 2528 0058 F6B2     		uxtb	r6, r6
 2529              	.LVL290:
 196:System/storage/Storage_Dev_Port.c ****     {
 2530              		.loc 1 196 40 discriminator 2 view .LVU820
 2531 005a ECE7     		b	.L181
 2532              	.L197:
ARM GAS  C:\Users\8bit\AppData\Local\Temp\ccMxBSAI.s 			page 67


 204:System/storage/Storage_Dev_Port.c ****                     return false;
 2533              		.loc 1 204 21 is_stmt 1 view .LVU821
 2534 005c 3A46     		mov	r2, r7
 2535 005e 0021     		movs	r1, #0
 2536 0060 4046     		mov	r0, r8
 2537 0062 FFF7FEFF 		bl	memset
 2538              	.LVL291:
 205:System/storage/Storage_Dev_Port.c ****                 }
 2539              		.loc 1 205 21 view .LVU822
 205:System/storage/Storage_Dev_Port.c ****                 }
 2540              		.loc 1 205 28 is_stmt 0 view .LVU823
 2541 0066 0020     		movs	r0, #0
 2542 0068 0AE0     		b	.L180
 2543              	.L196:
 205:System/storage/Storage_Dev_Port.c ****                 }
 2544              		.loc 1 205 28 view .LVU824
 2545              	.LBE15:
 215:System/storage/Storage_Dev_Port.c **** }
 2546              		.loc 1 215 12 view .LVU825
 2547 006a 0120     		movs	r0, #1
 2548              	.LBB16:
 2549 006c 08E0     		b	.L180
 2550              	.LVL292:
 2551              	.L184:
 2552              	.LCFI33:
 2553              		.cfi_def_cfa_offset 0
 2554              		.cfi_restore 4
 2555              		.cfi_restore 5
 2556              		.cfi_restore 6
 2557              		.cfi_restore 7
 2558              		.cfi_restore 8
 2559              		.cfi_restore 9
 2560              		.cfi_restore 10
 2561              		.cfi_restore 14
 215:System/storage/Storage_Dev_Port.c **** }
 2562              		.loc 1 215 12 view .LVU826
 2563              	.LBE16:
 191:System/storage/Storage_Dev_Port.c **** 
 2564              		.loc 1 191 16 view .LVU827
 2565 006e 0020     		movs	r0, #0
 2566              	.LVL293:
 216:System/storage/Storage_Dev_Port.c **** 
 2567              		.loc 1 216 1 view .LVU828
 2568 0070 7047     		bx	lr
 2569              	.LVL294:
 2570              	.L185:
 2571              	.LCFI34:
 2572              		.cfi_def_cfa_offset 32
 2573              		.cfi_offset 4, -32
 2574              		.cfi_offset 5, -28
 2575              		.cfi_offset 6, -24
 2576              		.cfi_offset 7, -20
 2577              		.cfi_offset 8, -16
 2578              		.cfi_offset 9, -12
 2579              		.cfi_offset 10, -8
 2580              		.cfi_offset 14, -4
 191:System/storage/Storage_Dev_Port.c **** 
ARM GAS  C:\Users\8bit\AppData\Local\Temp\ccMxBSAI.s 			page 68


 2581              		.loc 1 191 16 view .LVU829
 2582 0072 0020     		movs	r0, #0
 2583              	.LVL295:
 191:System/storage/Storage_Dev_Port.c **** 
 2584              		.loc 1 191 16 view .LVU830
 2585 0074 04E0     		b	.L180
 2586              	.LVL296:
 2587              	.L186:
 191:System/storage/Storage_Dev_Port.c **** 
 2588              		.loc 1 191 16 view .LVU831
 2589 0076 0020     		movs	r0, #0
 2590              	.LVL297:
 191:System/storage/Storage_Dev_Port.c **** 
 2591              		.loc 1 191 16 view .LVU832
 2592 0078 02E0     		b	.L180
 2593              	.LVL298:
 2594              	.L187:
 191:System/storage/Storage_Dev_Port.c **** 
 2595              		.loc 1 191 16 view .LVU833
 2596 007a 0020     		movs	r0, #0
 2597              	.LVL299:
 191:System/storage/Storage_Dev_Port.c **** 
 2598              		.loc 1 191 16 view .LVU834
 2599 007c 00E0     		b	.L180
 2600              	.LVL300:
 2601              	.L188:
 191:System/storage/Storage_Dev_Port.c **** 
 2602              		.loc 1 191 16 view .LVU835
 2603 007e 0020     		movs	r0, #0
 2604              	.LVL301:
 2605              	.L180:
 216:System/storage/Storage_Dev_Port.c **** 
 2606              		.loc 1 216 1 view .LVU836
 2607 0080 BDE8F087 		pop	{r4, r5, r6, r7, r8, r9, r10, pc}
 2608              	.LVL302:
 2609              	.L189:
 191:System/storage/Storage_Dev_Port.c **** 
 2610              		.loc 1 191 16 view .LVU837
 2611 0084 0020     		movs	r0, #0
 2612              	.LVL303:
 191:System/storage/Storage_Dev_Port.c **** 
 2613              		.loc 1 191 16 view .LVU838
 2614 0086 FBE7     		b	.L180
 2615              	.LVL304:
 2616              	.L190:
 191:System/storage/Storage_Dev_Port.c **** 
 2617              		.loc 1 191 16 view .LVU839
 2618 0088 0020     		movs	r0, #0
 2619              	.LVL305:
 191:System/storage/Storage_Dev_Port.c **** 
 2620              		.loc 1 191 16 view .LVU840
 2621 008a F9E7     		b	.L180
 2622              	.LVL306:
 2623              	.L191:
 2624              	.LBB17:
 209:System/storage/Storage_Dev_Port.c ****         }
 2625              		.loc 1 209 29 view .LVU841
ARM GAS  C:\Users\8bit\AppData\Local\Temp\ccMxBSAI.s 			page 69


 2626 008c 0020     		movs	r0, #0
 2627 008e F7E7     		b	.L180
 2628              	.LBE17:
 2629              		.cfi_endproc
 2630              	.LFE8:
 2632              		.global	StorageDev
 2633              		.section	.Perph_Section,"aw"
 2634              		.align	2
 2637              	write_tmp:
 2638 0000 00000000 		.space	8192
 2638      00000000 
 2638      00000000 
 2638      00000000 
 2638      00000000 
 2641              	read_tmp:
 2642 2000 00000000 		.space	8192
 2642      00000000 
 2642      00000000 
 2642      00000000 
 2642      00000000 
 2643              		.section	.data.StorageDev,"aw"
 2644              		.align	2
 2647              	StorageDev:
 2648 0000 00000000 		.word	Storage_Dev_Set
 2649 0004 00000000 		.word	Storage_Dev_Init
 2650 0008 00000000 		.word	Storage_Dev_Write_Section
 2651 000c 00000000 		.word	Storage_Dev_Read_Section
 2652 0010 00000000 		.word	Storage_Dev_Erase_Section
 2653 0014 00000000 		.word	Storage_Dev_Firmware_Format
 2654 0018 00000000 		.word	Storage_Dev_Firmware_Read
 2655 001c 00000000 		.word	Storage_Dev_Firmware_Write
 2656 0020 00000000 		.word	Storage_Dev_Param_Write
 2657 0024 00000000 		.word	Storage_Dev_Param_Read
 2658 0028 00000000 		.word	Storage_Dev_Param_Erase
 2659              		.text
 2660              	.Letext0:
 2661              		.file 2 "c:\\program files (x86)\\gnu arm embedded toolchain\\10 2021.10\\arm-none-eabi\\include\\
 2662              		.file 3 "c:\\program files (x86)\\gnu arm embedded toolchain\\10 2021.10\\arm-none-eabi\\include\\
 2663              		.file 4 "c:\\program files (x86)\\gnu arm embedded toolchain\\10 2021.10\\lib\\gcc\\arm-none-eabi\
 2664              		.file 5 "System/storage/Storage_Bus_Port.h"
 2665              		.file 6 "System/storage/Storage_Dev_Port.h"
 2666              		.file 7 "System/FreeRTOS/include/portable.h"
 2667              		.file 8 "Service/Srv_OsCommon.h"
 2668              		.file 9 "Device/Dev_W25Qxx.h"
 2669              		.file 10 "Device/Dev_W25Nxx.h"
 2670              		.file 11 "<built-in>"
ARM GAS  C:\Users\8bit\AppData\Local\Temp\ccMxBSAI.s 			page 70

