ARM GAS  /var/folders/lx/hc4sn_b53233_zkc9xbbl97r0000gp/T//ccPrqdP0.s 			page 1


   1              		.cpu cortex-m7
   2              		.eabi_attribute 28, 1
   3              		.eabi_attribute 20, 1
   4              		.eabi_attribute 21, 1
   5              		.eabi_attribute 23, 3
   6              		.eabi_attribute 24, 1
   7              		.eabi_attribute 25, 1
   8              		.eabi_attribute 26, 1
   9              		.eabi_attribute 30, 1
  10              		.eabi_attribute 34, 1
  11              		.eabi_attribute 18, 4
  12              		.file	"Task_Log.c"
  13              		.text
  14              	.Ltext0:
  15              		.cfi_sections	.debug_frame
  16              		.section	.text.LogData_ToFile,"ax",%progbits
  17              		.align	1
  18              		.arch armv7e-m
  19              		.syntax unified
  20              		.thumb
  21              		.thumb_func
  22              		.fpu fpv5-d16
  24              	LogData_ToFile:
  25              	.LVL0:
  26              	.LFB150:
  27              		.file 1 "Task/Task_Log.c"
   1:Task/Task_Log.c **** /*
   2:Task/Task_Log.c ****  *  coder: 8_B!T0
   3:Task/Task_Log.c ****  *  bref: use this task Log Gyro and Acc Data
   4:Task/Task_Log.c ****  *
   5:Task/Task_Log.c ****  *  this task and module can be improved and optimized in a big but way we use it in short time tem
   6:Task/Task_Log.c ****  *  after when the main fundamental ability was accomplished we go back in this file and do improve
   7:Task/Task_Log.c ****  */
   8:Task/Task_Log.c **** #include "Task_Log.h"
   9:Task/Task_Log.c **** #include "scheduler.h"
  10:Task/Task_Log.c **** #include "shell.h"
  11:Task/Task_Log.c **** #include "debug_util.h"
  12:Task/Task_Log.c **** #include <stdio.h>
  13:Task/Task_Log.c **** #include "queue.h"
  14:Task/Task_Log.c **** #include "error_log.h"
  15:Task/Task_Log.c **** #include "mmu.h"
  16:Task/Task_Log.c **** #include "DiskIO.h"
  17:Task/Task_Log.c **** #include "DataPipe/DataPipe.h"
  18:Task/Task_Log.c **** #include "Task_Protocol.h"
  19:Task/Task_Log.c **** #include "Task_SensorInertial.h"
  20:Task/Task_Log.c **** #include "Dev_Led.h"
  21:Task/Task_Log.c **** #include "IO_Definition.h"
  22:Task/Task_Log.c **** #include <stdio.h>
  23:Task/Task_Log.c **** 
  24:Task/Task_Log.c **** #define LOG_FOLDER "log/"
  25:Task/Task_Log.c **** #define IMU_LOG_FILE "imu.log"
  26:Task/Task_Log.c **** 
  27:Task/Task_Log.c **** #define K_BYTE 1024
  28:Task/Task_Log.c **** #define M_BYTE K_BYTE *K_BYTE
  29:Task/Task_Log.c **** #define MAX_FILE_SIZE_M(x) x *M_BYTE
  30:Task/Task_Log.c **** #define MAX_FILE_SIZE_K(x) x *K_BYTE
  31:Task/Task_Log.c **** #define MIN_CACHE_NUM 2
ARM GAS  /var/folders/lx/hc4sn_b53233_zkc9xbbl97r0000gp/T//ccPrqdP0.s 			page 2


  32:Task/Task_Log.c **** 
  33:Task/Task_Log.c **** /* internal variable */
  34:Task/Task_Log.c **** static const LogData_Header_TypeDef LogIMU_Header = {
  35:Task/Task_Log.c ****     .header = LOG_HEADER,
  36:Task/Task_Log.c ****     .type = LOG_DATATYPE_IMU,
  37:Task/Task_Log.c ****     .size = sizeof(SrvIMU_UnionData_TypeDef),
  38:Task/Task_Log.c **** };
  39:Task/Task_Log.c **** static FATCluster_Addr LogFolder_Cluster = ROOT_CLUSTER_ADDR;
  40:Task/Task_Log.c **** static volatile Disk_FileObj_TypeDef LogFile_Obj;
  41:Task/Task_Log.c **** static Disk_FATFileSys_TypeDef FATFS_Obj;
  42:Task/Task_Log.c **** static bool LogFile_Ready = false;
  43:Task/Task_Log.c **** static SrvIMU_UnionData_TypeDef LogPriIMU_Data __attribute__((section(".Perph_Section")));
  44:Task/Task_Log.c **** static SrvIMU_UnionData_TypeDef LogSecIMU_Data __attribute__((section(".Perph_Section")));
  45:Task/Task_Log.c **** static uint8_t LogCache_L2_Buf[MAX_FILE_SIZE_K(10)] __attribute__((section(".Fast_Mem_section")));
  46:Task/Task_Log.c **** static QueueObj_TypeDef IMULog_Queue;
  47:Task/Task_Log.c **** static QueueObj_TypeDef IMUData_Queue;
  48:Task/Task_Log.c **** static LogData_Reg_TypeDef LogObj_Set_Reg;
  49:Task/Task_Log.c **** static LogData_Reg_TypeDef LogObj_Enable_Reg;
  50:Task/Task_Log.c **** static LogData_Reg_TypeDef LogObj_Logging_Reg;
  51:Task/Task_Log.c **** DataPipeObj_TypeDef IMU_Log_DataPipe;
  52:Task/Task_Log.c **** static Os_IdleObj_TypeDef LogIdleObj;
  53:Task/Task_Log.c **** static uint8_t LogQueueBuff_Trail[MAX_FILE_SIZE_K(1) / 2] = {0};
  54:Task/Task_Log.c **** 
  55:Task/Task_Log.c **** /* internal function */
  56:Task/Task_Log.c **** static void TaskLog_PipeTransFinish_Callback(DataPipeObj_TypeDef *obj);
  57:Task/Task_Log.c **** static void LogData_ToFile(QueueObj_TypeDef *queue, DataPipeObj_TypeDef pipe_obj, LogData_Reg_TypeD
  58:Task/Task_Log.c **** static void OsIdle_Callback_LogModule(uint8_t *ptr, uint16_t len);
  59:Task/Task_Log.c **** 
  60:Task/Task_Log.c **** void TaskLog_Init(void)
  61:Task/Task_Log.c **** {
  62:Task/Task_Log.c ****     Os_Idle_DataStream_TypeDef LogData_Stream;
  63:Task/Task_Log.c **** 
  64:Task/Task_Log.c ****     memset(&IMU_Log_DataPipe, NULL, sizeof(IMU_Log_DataPipe));
  65:Task/Task_Log.c ****     memset(&LogFile_Obj, NULL, sizeof(LogFile_Obj));
  66:Task/Task_Log.c ****     memset(&FATFS_Obj, NULL, sizeof(FATFS_Obj));
  67:Task/Task_Log.c **** 
  68:Task/Task_Log.c ****     IMU_Log_DataPipe.data_addr = (uint32_t)&LogPriIMU_Data;
  69:Task/Task_Log.c ****     IMU_Log_DataPipe.data_size = sizeof(LogPriIMU_Data);
  70:Task/Task_Log.c ****     IMU_Log_DataPipe.trans_finish_cb = TaskLog_PipeTransFinish_Callback;
  71:Task/Task_Log.c ****     IMU_Log_DataPipe.ptr_tmp = MMU_Malloc(IMU_Log_DataPipe.data_addr);
  72:Task/Task_Log.c **** 
  73:Task/Task_Log.c ****     LogObj_Set_Reg.reg_val = 0;
  74:Task/Task_Log.c ****     LogObj_Logging_Reg.reg_val = 0;
  75:Task/Task_Log.c **** 
  76:Task/Task_Log.c ****     /* init module first then init task */
  77:Task/Task_Log.c ****     if (Disk.init(&FATFS_Obj, TaskProto_PushProtocolQueue))
  78:Task/Task_Log.c ****     {
  79:Task/Task_Log.c ****         LogFolder_Cluster = Disk.create_folder(&FATFS_Obj, LOG_FOLDER, ROOT_CLUSTER_ADDR);
  80:Task/Task_Log.c ****         LogFile_Obj = Disk.create_file(&FATFS_Obj, IMU_LOG_FILE, LogFolder_Cluster);
  81:Task/Task_Log.c ****         Disk.open(&FATFS_Obj, LOG_FOLDER, IMU_LOG_FILE, &LogFile_Obj);
  82:Task/Task_Log.c **** 
  83:Task/Task_Log.c ****         /* create cache queue for IMU Data */
  84:Task/Task_Log.c ****         if (Queue.create_auto(&IMUData_Queue, "queue imu data", MAX_FILE_SIZE_K(10)) && 
  85:Task/Task_Log.c ****             Queue.create_with_buf(&IMULog_Queue, "queue imu log", LogCache_L2_Buf, sizeof(LogCache_
  86:Task/Task_Log.c ****         {
  87:Task/Task_Log.c ****             LogFile_Ready = true;
  88:Task/Task_Log.c ****             LogObj_Enable_Reg._sec.IMU_Sec = true;
ARM GAS  /var/folders/lx/hc4sn_b53233_zkc9xbbl97r0000gp/T//ccPrqdP0.s 			page 3


  89:Task/Task_Log.c ****             LogObj_Set_Reg._sec.IMU_Sec = true;
  90:Task/Task_Log.c ****         }
  91:Task/Task_Log.c ****     }
  92:Task/Task_Log.c **** 
  93:Task/Task_Log.c ****     LogData_Stream.ptr = NULL;
  94:Task/Task_Log.c ****     LogData_Stream.size = 0;
  95:Task/Task_Log.c **** 
  96:Task/Task_Log.c ****     Os_Regist_IdleObj(&LogIdleObj, LogData_Stream, OsIdle_Callback_LogModule);
  97:Task/Task_Log.c **** }
  98:Task/Task_Log.c **** 
  99:Task/Task_Log.c **** static void OsIdle_Callback_LogModule(uint8_t *ptr, uint16_t len)
 100:Task/Task_Log.c **** {
 101:Task/Task_Log.c ****     if(LogFile_Ready)
 102:Task/Task_Log.c ****     {
 103:Task/Task_Log.c ****         if(LogObj_Set_Reg._sec.IMU_Sec)
 104:Task/Task_Log.c ****         {
 105:Task/Task_Log.c ****             if (LogFile_Obj.info.size < MAX_FILE_SIZE_M(4))
 106:Task/Task_Log.c ****             {
 107:Task/Task_Log.c ****                 LogData_ToFile(&IMULog_Queue, IMU_Log_DataPipe, &LogObj_Logging_Reg);
 108:Task/Task_Log.c ****             }
 109:Task/Task_Log.c ****             else
 110:Task/Task_Log.c ****                 LogObj_Enable_Reg._sec.IMU_Sec = false;
 111:Task/Task_Log.c ****         }
 112:Task/Task_Log.c ****     }
 113:Task/Task_Log.c **** }
 114:Task/Task_Log.c **** 
 115:Task/Task_Log.c **** void TaskLog_Core(Task_Handle hdl)
 116:Task/Task_Log.c **** {
 117:Task/Task_Log.c ****     static uint8_t i = 0;
 118:Task/Task_Log.c ****     static bool led_state = false;
 119:Task/Task_Log.c ****     static uint32_t t;
 120:Task/Task_Log.c **** 
 121:Task/Task_Log.c ****     t = Get_CurrentRunningMs();
 122:Task/Task_Log.c **** 
 123:Task/Task_Log.c ****     if (LogFile_Ready)
 124:Task/Task_Log.c ****     {
 125:Task/Task_Log.c ****         // DebugPin.ctl(Debug_PB4, true);
 126:Task/Task_Log.c ****         if (i < 10)
 127:Task/Task_Log.c ****         {
 128:Task/Task_Log.c ****             i++;
 129:Task/Task_Log.c ****         }
 130:Task/Task_Log.c ****         else
 131:Task/Task_Log.c ****         {
 132:Task/Task_Log.c ****             i = 0;
 133:Task/Task_Log.c ****             led_state = !led_state;
 134:Task/Task_Log.c ****             DevLED.ctl(Led2, led_state);
 135:Task/Task_Log.c ****         }
 136:Task/Task_Log.c **** 
 137:Task/Task_Log.c ****         if(!LogObj_Enable_Reg._sec.IMU_Sec)
 138:Task/Task_Log.c ****         {
 139:Task/Task_Log.c ****             i = 0;
 140:Task/Task_Log.c ****             DevLED.ctl(Led2, false);
 141:Task/Task_Log.c ****         }
 142:Task/Task_Log.c **** 
 143:Task/Task_Log.c ****         // DebugPin.ctl(Debug_PB4, false);
 144:Task/Task_Log.c ****     }
 145:Task/Task_Log.c **** }
ARM GAS  /var/folders/lx/hc4sn_b53233_zkc9xbbl97r0000gp/T//ccPrqdP0.s 			page 4


 146:Task/Task_Log.c **** 
 147:Task/Task_Log.c **** static void LogData_ToFile(QueueObj_TypeDef *queue, DataPipeObj_TypeDef pipe_obj, LogData_Reg_TypeD
 148:Task/Task_Log.c **** {
  28              		.loc 1 148 1 view -0
  29              		.cfi_startproc
  30              		@ args = 40, pretend = 16, frame = 0
  31              		@ frame_needed = 0, uses_anonymous_args = 0
  32              		.loc 1 148 1 is_stmt 0 view .LVU1
  33 0000 84B0     		sub	sp, sp, #16
  34              	.LCFI0:
  35              		.cfi_def_cfa_offset 16
  36 0002 70B5     		push	{r4, r5, r6, lr}
  37              	.LCFI1:
  38              		.cfi_def_cfa_offset 32
  39              		.cfi_offset 4, -32
  40              		.cfi_offset 5, -28
  41              		.cfi_offset 6, -24
  42              		.cfi_offset 14, -20
  43 0004 82B0     		sub	sp, sp, #8
  44              	.LCFI2:
  45              		.cfi_def_cfa_offset 40
  46 0006 07AC     		add	r4, sp, #28
  47 0008 84E80E00 		stm	r4, {r1, r2, r3}
  48 000c 0F9E     		ldr	r6, [sp, #60]
 149:Task/Task_Log.c ****     uint16_t log_size = 0;
  49              		.loc 1 149 5 is_stmt 1 view .LVU2
  50              	.LVL1:
 150:Task/Task_Log.c ****     uint16_t queue_size = 0;
  51              		.loc 1 150 5 view .LVU3
 151:Task/Task_Log.c **** 
 152:Task/Task_Log.c ****     if ((queue == NULL) || (Queue.size(*queue) == 0) || (pipe_obj.ptr_tmp == NULL))
  52              		.loc 1 152 5 view .LVU4
  53              		.loc 1 152 8 is_stmt 0 view .LVU5
  54 000e 0028     		cmp	r0, #0
  55 0010 36D0     		beq	.L1
  56 0012 0446     		mov	r4, r0
  57              		.loc 1 152 34 discriminator 1 view .LVU6
  58 0014 1D4B     		ldr	r3, .L9
  59 0016 1D68     		ldr	r5, [r3]
  60              		.loc 1 152 29 discriminator 1 view .LVU7
  61 0018 037C     		ldrb	r3, [r0, #16]	@ zero_extendqisi2
  62 001a 8DF80030 		strb	r3, [sp]
  63 001e 0068     		ldr	r0, [r0]	@ unaligned
  64              	.LVL2:
  65              		.loc 1 152 29 discriminator 1 view .LVU8
  66 0020 6168     		ldr	r1, [r4, #4]	@ unaligned
  67 0022 A268     		ldr	r2, [r4, #8]	@ unaligned
  68 0024 E368     		ldr	r3, [r4, #12]	@ unaligned
  69 0026 A847     		blx	r5
  70              	.LVL3:
  71              		.loc 1 152 25 discriminator 1 view .LVU9
  72 0028 50B3     		cbz	r0, .L1
  73              		.loc 1 152 66 discriminator 2 view .LVU10
  74 002a DDF83630 		ldr	r3, [sp, #54]	@ unaligned
  75              		.loc 1 152 54 discriminator 2 view .LVU11
  76 002e 3BB3     		cbz	r3, .L1
 153:Task/Task_Log.c ****         return;
ARM GAS  /var/folders/lx/hc4sn_b53233_zkc9xbbl97r0000gp/T//ccPrqdP0.s 			page 5


 154:Task/Task_Log.c **** 
 155:Task/Task_Log.c ****     log_reg->_sec.IMU_Sec = true;
  77              		.loc 1 155 5 is_stmt 1 view .LVU12
  78              		.loc 1 155 27 is_stmt 0 view .LVU13
  79 0030 3378     		ldrb	r3, [r6]	@ zero_extendqisi2
  80 0032 43F00103 		orr	r3, r3, #1
  81 0036 3370     		strb	r3, [r6]
 156:Task/Task_Log.c ****     queue_size = Queue.size(*queue);
  82              		.loc 1 156 5 is_stmt 1 view .LVU14
  83              		.loc 1 156 23 is_stmt 0 view .LVU15
  84 0038 144B     		ldr	r3, .L9
  85 003a 1D68     		ldr	r5, [r3]
  86              		.loc 1 156 18 view .LVU16
  87 003c 237C     		ldrb	r3, [r4, #16]	@ zero_extendqisi2
  88 003e 8DF80030 		strb	r3, [sp]
  89 0042 2068     		ldr	r0, [r4]	@ unaligned
  90 0044 6168     		ldr	r1, [r4, #4]	@ unaligned
  91 0046 A268     		ldr	r2, [r4, #8]	@ unaligned
  92 0048 E368     		ldr	r3, [r4, #12]	@ unaligned
  93 004a A847     		blx	r5
  94              	.LVL4:
  95 004c 0546     		mov	r5, r0
  96              	.LVL5:
 157:Task/Task_Log.c **** 
 158:Task/Task_Log.c ****     if (queue_size > sizeof(LogQueueBuff_Trail))
  97              		.loc 1 158 5 is_stmt 1 view .LVU17
  98              		.loc 1 158 8 is_stmt 0 view .LVU18
  99 004e B0F5007F 		cmp	r0, #512
 100 0052 01D8     		bhi	.L7
 159:Task/Task_Log.c ****     {
 160:Task/Task_Log.c ****         log_size = sizeof(LogQueueBuff_Trail);
 161:Task/Task_Log.c ****     }
 162:Task/Task_Log.c ****     else
 163:Task/Task_Log.c ****         log_size = queue_size;
 101              		.loc 1 163 9 is_stmt 1 view .LVU19
 102              	.LVL6:
 164:Task/Task_Log.c **** 
 165:Task/Task_Log.c ****     if(log_size)
 103              		.loc 1 165 5 view .LVU20
 104              		.loc 1 165 7 is_stmt 0 view .LVU21
 105 0054 40B1     		cbz	r0, .L6
 106 0056 01E0     		b	.L5
 107              	.LVL7:
 108              	.L7:
 160:Task/Task_Log.c ****     }
 109              		.loc 1 160 18 view .LVU22
 110 0058 4FF40075 		mov	r5, #512
 111              	.LVL8:
 112              	.L5:
 166:Task/Task_Log.c ****         Queue.pop(queue, LogQueueBuff_Trail, log_size);
 113              		.loc 1 166 9 is_stmt 1 view .LVU23
 114              		.loc 1 166 14 is_stmt 0 view .LVU24
 115 005c 0B4B     		ldr	r3, .L9
 116 005e DB69     		ldr	r3, [r3, #28]
 117              		.loc 1 166 9 view .LVU25
 118 0060 2A46     		mov	r2, r5
 119 0062 0B49     		ldr	r1, .L9+4
ARM GAS  /var/folders/lx/hc4sn_b53233_zkc9xbbl97r0000gp/T//ccPrqdP0.s 			page 6


 120 0064 2046     		mov	r0, r4
 121              	.LVL9:
 122              		.loc 1 166 9 view .LVU26
 123 0066 9847     		blx	r3
 124              	.LVL10:
 125              	.L6:
 167:Task/Task_Log.c ****     
 168:Task/Task_Log.c ****     log_reg->_sec.IMU_Sec = false;
 126              		.loc 1 168 5 is_stmt 1 view .LVU27
 127              		.loc 1 168 27 is_stmt 0 view .LVU28
 128 0068 3378     		ldrb	r3, [r6]	@ zero_extendqisi2
 129 006a 6FF30003 		bfc	r3, #0, #1
 130 006e 3370     		strb	r3, [r6]
 169:Task/Task_Log.c **** 
 170:Task/Task_Log.c ****     if(log_size)
 131              		.loc 1 170 5 is_stmt 1 view .LVU29
 132              		.loc 1 170 7 is_stmt 0 view .LVU30
 133 0070 35B1     		cbz	r5, .L1
 171:Task/Task_Log.c ****         Disk.write(&FATFS_Obj, &LogFile_Obj, LogQueueBuff_Trail, log_size);
 134              		.loc 1 171 9 is_stmt 1 view .LVU31
 135              		.loc 1 171 13 is_stmt 0 view .LVU32
 136 0072 084B     		ldr	r3, .L9+8
 137 0074 1C69     		ldr	r4, [r3, #16]
 138              	.LVL11:
 139              		.loc 1 171 9 view .LVU33
 140 0076 2B46     		mov	r3, r5
 141 0078 054A     		ldr	r2, .L9+4
 142 007a 0749     		ldr	r1, .L9+12
 143 007c 0748     		ldr	r0, .L9+16
 144 007e A047     		blx	r4
 145              	.LVL12:
 146              	.L1:
 172:Task/Task_Log.c **** }
 147              		.loc 1 172 1 view .LVU34
 148 0080 02B0     		add	sp, sp, #8
 149              	.LCFI3:
 150              		.cfi_def_cfa_offset 32
 151              		@ sp needed
 152 0082 BDE87040 		pop	{r4, r5, r6, lr}
 153              	.LCFI4:
 154              		.cfi_restore 14
 155              		.cfi_restore 6
 156              		.cfi_restore 5
 157              		.cfi_restore 4
 158              		.cfi_def_cfa_offset 16
 159 0086 04B0     		add	sp, sp, #16
 160              	.LCFI5:
 161              		.cfi_def_cfa_offset 0
 162 0088 7047     		bx	lr
 163              	.L10:
 164 008a 00BF     		.align	2
 165              	.L9:
 166 008c 00000000 		.word	Queue
 167 0090 00000000 		.word	.LANCHOR0
 168 0094 00000000 		.word	Disk
 169 0098 00000000 		.word	.LANCHOR1
 170 009c 00000000 		.word	.LANCHOR2
ARM GAS  /var/folders/lx/hc4sn_b53233_zkc9xbbl97r0000gp/T//ccPrqdP0.s 			page 7


 171              		.cfi_endproc
 172              	.LFE150:
 174              		.section	.text.OsIdle_Callback_LogModule,"ax",%progbits
 175              		.align	1
 176              		.syntax unified
 177              		.thumb
 178              		.thumb_func
 179              		.fpu fpv5-d16
 181              	OsIdle_Callback_LogModule:
 182              	.LVL13:
 183              	.LFB148:
 100:Task/Task_Log.c ****     if(LogFile_Ready)
 184              		.loc 1 100 1 is_stmt 1 view -0
 185              		.cfi_startproc
 186              		@ args = 0, pretend = 0, frame = 0
 187              		@ frame_needed = 0, uses_anonymous_args = 0
 101:Task/Task_Log.c ****     {
 188              		.loc 1 101 5 view .LVU36
 101:Task/Task_Log.c ****     {
 189              		.loc 1 101 8 is_stmt 0 view .LVU37
 190 0000 154B     		ldr	r3, .L19
 191 0002 1B78     		ldrb	r3, [r3]	@ zero_extendqisi2
 101:Task/Task_Log.c ****     {
 192              		.loc 1 101 7 view .LVU38
 193 0004 3BB3     		cbz	r3, .L15
 103:Task/Task_Log.c ****         {
 194              		.loc 1 103 9 is_stmt 1 view .LVU39
 103:Task/Task_Log.c ****         {
 195              		.loc 1 103 12 is_stmt 0 view .LVU40
 196 0006 154B     		ldr	r3, .L19+4
 197 0008 1B78     		ldrb	r3, [r3]	@ zero_extendqisi2
 103:Task/Task_Log.c ****         {
 198              		.loc 1 103 11 view .LVU41
 199 000a 13F0010F 		tst	r3, #1
 200 000e 22D0     		beq	.L15
 105:Task/Task_Log.c ****             {
 201              		.loc 1 105 13 is_stmt 1 view .LVU42
 105:Task/Task_Log.c ****             {
 202              		.loc 1 105 33 is_stmt 0 view .LVU43
 203 0010 134B     		ldr	r3, .L19+8
 204 0012 D3F82230 		ldr	r3, [r3, #34]	@ unaligned
 105:Task/Task_Log.c ****             {
 205              		.loc 1 105 16 view .LVU44
 206 0016 B3F5800F 		cmp	r3, #4194304
 207 001a 05D3     		bcc	.L18
 110:Task/Task_Log.c ****         }
 208              		.loc 1 110 17 is_stmt 1 view .LVU45
 110:Task/Task_Log.c ****         }
 209              		.loc 1 110 48 is_stmt 0 view .LVU46
 210 001c 114B     		ldr	r3, .L19+12
 211 001e 1A78     		ldrb	r2, [r3]	@ zero_extendqisi2
 212 0020 6FF30002 		bfc	r2, #0, #1
 213 0024 1A70     		strb	r2, [r3]
 113:Task/Task_Log.c **** 
 214              		.loc 1 113 1 view .LVU47
 215 0026 7047     		bx	lr
 216              	.L18:
ARM GAS  /var/folders/lx/hc4sn_b53233_zkc9xbbl97r0000gp/T//ccPrqdP0.s 			page 8


 100:Task/Task_Log.c ****     if(LogFile_Ready)
 217              		.loc 1 100 1 view .LVU48
 218 0028 10B5     		push	{r4, lr}
 219              	.LCFI6:
 220              		.cfi_def_cfa_offset 8
 221              		.cfi_offset 4, -8
 222              		.cfi_offset 14, -4
 223 002a 86B0     		sub	sp, sp, #24
 224              	.LCFI7:
 225              		.cfi_def_cfa_offset 32
 107:Task/Task_Log.c ****             }
 226              		.loc 1 107 17 is_stmt 1 view .LVU49
 227 002c 0E4C     		ldr	r4, .L19+16
 228 002e 0F4B     		ldr	r3, .L19+20
 229 0030 0593     		str	r3, [sp, #20]
 230 0032 EC46     		mov	ip, sp
 231 0034 04F10C0E 		add	lr, r4, #12
 232 0038 BEE80F00 		ldmia	lr!, {r0, r1, r2, r3}
 233              	.LVL14:
 107:Task/Task_Log.c ****             }
 234              		.loc 1 107 17 is_stmt 0 view .LVU50
 235 003c ACE80F00 		stmia	ip!, {r0, r1, r2, r3}
 236 0040 DEF80030 		ldr	r3, [lr]
 237 0044 ACF80030 		strh	r3, [ip]	@ movhi
 238 0048 94E80E00 		ldm	r4, {r1, r2, r3}
 239 004c 0848     		ldr	r0, .L19+24
 240 004e FFF7FEFF 		bl	LogData_ToFile
 241              	.LVL15:
 113:Task/Task_Log.c **** 
 242              		.loc 1 113 1 view .LVU51
 243 0052 06B0     		add	sp, sp, #24
 244              	.LCFI8:
 245              		.cfi_def_cfa_offset 8
 246              		@ sp needed
 247 0054 10BD     		pop	{r4, pc}
 248              	.LVL16:
 249              	.L15:
 250              	.LCFI9:
 251              		.cfi_def_cfa_offset 0
 252              		.cfi_restore 4
 253              		.cfi_restore 14
 113:Task/Task_Log.c **** 
 254              		.loc 1 113 1 view .LVU52
 255 0056 7047     		bx	lr
 256              	.L20:
 257              		.align	2
 258              	.L19:
 259 0058 00000000 		.word	.LANCHOR3
 260 005c 00000000 		.word	.LANCHOR4
 261 0060 00000000 		.word	.LANCHOR1
 262 0064 00000000 		.word	.LANCHOR8
 263 0068 00000000 		.word	.LANCHOR5
 264 006c 00000000 		.word	.LANCHOR7
 265 0070 00000000 		.word	.LANCHOR6
 266              		.cfi_endproc
 267              	.LFE148:
 269              		.section	.text.TaskLog_PipeTransFinish_Callback,"ax",%progbits
ARM GAS  /var/folders/lx/hc4sn_b53233_zkc9xbbl97r0000gp/T//ccPrqdP0.s 			page 9


 270              		.align	1
 271              		.syntax unified
 272              		.thumb
 273              		.thumb_func
 274              		.fpu fpv5-d16
 276              	TaskLog_PipeTransFinish_Callback:
 277              	.LVL17:
 278              	.LFB151:
 173:Task/Task_Log.c **** 
 174:Task/Task_Log.c **** static void TaskLog_PipeTransFinish_Callback(DataPipeObj_TypeDef *obj)
 175:Task/Task_Log.c **** {
 279              		.loc 1 175 1 is_stmt 1 view -0
 280              		.cfi_startproc
 281              		@ args = 0, pretend = 0, frame = 0
 282              		@ frame_needed = 0, uses_anonymous_args = 0
 176:Task/Task_Log.c ****     if ((obj == NULL) || !LogFile_Ready)
 283              		.loc 1 176 5 view .LVU54
 284              		.loc 1 176 8 is_stmt 0 view .LVU55
 285 0000 50B1     		cbz	r0, .L26
 286              		.loc 1 176 26 discriminator 1 view .LVU56
 287 0002 1F4B     		ldr	r3, .L30
 288 0004 1B78     		ldrb	r3, [r3]	@ zero_extendqisi2
 289              		.loc 1 176 23 discriminator 1 view .LVU57
 290 0006 3BB1     		cbz	r3, .L26
 177:Task/Task_Log.c ****         return;
 178:Task/Task_Log.c **** 
 179:Task/Task_Log.c ****     if (LogObj_Set_Reg._sec.IMU_Sec && (obj == &IMU_Log_DataPipe) && LogObj_Enable_Reg._sec.IMU_Sec
 291              		.loc 1 179 5 is_stmt 1 view .LVU58
 292              		.loc 1 179 9 is_stmt 0 view .LVU59
 293 0008 1E4B     		ldr	r3, .L30+4
 294 000a 1B78     		ldrb	r3, [r3]	@ zero_extendqisi2
 295              		.loc 1 179 8 view .LVU60
 296 000c 13F0010F 		tst	r3, #1
 297 0010 02D0     		beq	.L26
 298              		.loc 1 179 37 discriminator 1 view .LVU61
 299 0012 1D4B     		ldr	r3, .L30+8
 300 0014 9842     		cmp	r0, r3
 301 0016 00D0     		beq	.L29
 302              	.L26:
 303 0018 7047     		bx	lr
 304              	.L29:
 305              		.loc 1 179 67 discriminator 2 view .LVU62
 306 001a 1C4B     		ldr	r3, .L30+12
 307 001c 1B78     		ldrb	r3, [r3]	@ zero_extendqisi2
 308 001e 13F0010F 		tst	r3, #1
 309 0022 F9D0     		beq	.L26
 175:Task/Task_Log.c ****     if ((obj == NULL) || !LogFile_Ready)
 310              		.loc 1 175 1 view .LVU63
 311 0024 30B5     		push	{r4, r5, lr}
 312              	.LCFI10:
 313              		.cfi_def_cfa_offset 12
 314              		.cfi_offset 4, -12
 315              		.cfi_offset 5, -8
 316              		.cfi_offset 14, -4
 317 0026 83B0     		sub	sp, sp, #12
 318              	.LCFI11:
 319              		.cfi_def_cfa_offset 24
ARM GAS  /var/folders/lx/hc4sn_b53233_zkc9xbbl97r0000gp/T//ccPrqdP0.s 			page 10


 180:Task/Task_Log.c ****     {
 181:Task/Task_Log.c ****         if ((Queue.state(IMUData_Queue) == Queue_ok) || 
 320              		.loc 1 181 9 is_stmt 1 view .LVU64
 321              		.loc 1 181 19 is_stmt 0 view .LVU65
 322 0028 194B     		ldr	r3, .L30+16
 323 002a 1C6A     		ldr	r4, [r3, #32]
 324              		.loc 1 181 14 view .LVU66
 325 002c 194B     		ldr	r3, .L30+20
 326 002e 1A7C     		ldrb	r2, [r3, #16]	@ zero_extendqisi2
 327 0030 8DF80020 		strb	r2, [sp]
 328 0034 0FCB     		ldm	r3, {r0, r1, r2, r3}
 329              	.LVL18:
 330              		.loc 1 181 14 view .LVU67
 331 0036 A047     		blx	r4
 332              	.LVL19:
 333              		.loc 1 181 12 view .LVU68
 334 0038 48B1     		cbz	r0, .L23
 182:Task/Task_Log.c ****             (Queue.state(IMUData_Queue) == Queue_empty))
 335              		.loc 1 182 19 discriminator 1 view .LVU69
 336 003a 154B     		ldr	r3, .L30+16
 337 003c 1C6A     		ldr	r4, [r3, #32]
 338              		.loc 1 182 14 discriminator 1 view .LVU70
 339 003e 154B     		ldr	r3, .L30+20
 340 0040 1A7C     		ldrb	r2, [r3, #16]	@ zero_extendqisi2
 341 0042 8DF80020 		strb	r2, [sp]
 342 0046 0FCB     		ldm	r3, {r0, r1, r2, r3}
 343 0048 A047     		blx	r4
 344              	.LVL20:
 181:Task/Task_Log.c ****             (Queue.state(IMUData_Queue) == Queue_empty))
 345              		.loc 1 181 54 discriminator 1 view .LVU71
 346 004a 0328     		cmp	r0, #3
 347 004c 0CD1     		bne	.L24
 348              	.L23:
 183:Task/Task_Log.c ****         {
 184:Task/Task_Log.c ****             Queue.push(&IMUData_Queue, &LogIMU_Header, LOG_HEADER_SIZE);
 349              		.loc 1 184 13 is_stmt 1 view .LVU72
 350              		.loc 1 184 18 is_stmt 0 view .LVU73
 351 004e 104D     		ldr	r5, .L30+16
 352 0050 AB69     		ldr	r3, [r5, #24]
 353              		.loc 1 184 13 view .LVU74
 354 0052 104C     		ldr	r4, .L30+20
 355 0054 0322     		movs	r2, #3
 356 0056 1049     		ldr	r1, .L30+24
 357 0058 2046     		mov	r0, r4
 358 005a 9847     		blx	r3
 359              	.LVL21:
 185:Task/Task_Log.c ****             Queue.push(&IMUData_Queue, (uint8_t *)(IMU_Log_DataPipe.data_addr), IMU_Log_DataPipe.da
 360              		.loc 1 185 13 is_stmt 1 view .LVU75
 361              		.loc 1 185 18 is_stmt 0 view .LVU76
 362 005c AD69     		ldr	r5, [r5, #24]
 363              		.loc 1 185 68 view .LVU77
 364 005e 0A4B     		ldr	r3, .L30+8
 365              		.loc 1 185 13 view .LVU78
 366 0060 9A88     		ldrh	r2, [r3, #4]
 367 0062 1968     		ldr	r1, [r3]
 368 0064 2046     		mov	r0, r4
 369 0066 A847     		blx	r5
ARM GAS  /var/folders/lx/hc4sn_b53233_zkc9xbbl97r0000gp/T//ccPrqdP0.s 			page 11


 370              	.LVL22:
 371              	.L24:
 186:Task/Task_Log.c ****         }
 187:Task/Task_Log.c **** 
 188:Task/Task_Log.c ****         if(!LogObj_Logging_Reg._sec.IMU_Sec)
 372              		.loc 1 188 9 is_stmt 1 view .LVU79
 373              		.loc 1 188 12 is_stmt 0 view .LVU80
 374 0068 0C4B     		ldr	r3, .L30+28
 375 006a 1B78     		ldrb	r3, [r3]	@ zero_extendqisi2
 376              		.loc 1 188 11 view .LVU81
 377 006c 13F0010F 		tst	r3, #1
 378 0070 04D1     		bne	.L21
 189:Task/Task_Log.c ****         {
 190:Task/Task_Log.c ****             Queue.pop_to_queue(&IMUData_Queue, &IMULog_Queue);
 379              		.loc 1 190 13 is_stmt 1 view .LVU82
 380              		.loc 1 190 18 is_stmt 0 view .LVU83
 381 0072 074B     		ldr	r3, .L30+16
 382 0074 5B6A     		ldr	r3, [r3, #36]
 383              		.loc 1 190 13 view .LVU84
 384 0076 0A49     		ldr	r1, .L30+32
 385 0078 0648     		ldr	r0, .L30+20
 386 007a 9847     		blx	r3
 387              	.LVL23:
 388              	.L21:
 191:Task/Task_Log.c ****         }
 192:Task/Task_Log.c ****     }
 193:Task/Task_Log.c **** }
 389              		.loc 1 193 1 view .LVU85
 390 007c 03B0     		add	sp, sp, #12
 391              	.LCFI12:
 392              		.cfi_def_cfa_offset 12
 393              		@ sp needed
 394 007e 30BD     		pop	{r4, r5, pc}
 395              	.L31:
 396              		.align	2
 397              	.L30:
 398 0080 00000000 		.word	.LANCHOR3
 399 0084 00000000 		.word	.LANCHOR4
 400 0088 00000000 		.word	.LANCHOR5
 401 008c 00000000 		.word	.LANCHOR8
 402 0090 00000000 		.word	Queue
 403 0094 00000000 		.word	.LANCHOR9
 404 0098 00000000 		.word	.LANCHOR10
 405 009c 00000000 		.word	.LANCHOR7
 406 00a0 00000000 		.word	.LANCHOR6
 407              		.cfi_endproc
 408              	.LFE151:
 410              		.section	.rodata.TaskLog_Init.str1.4,"aMS",%progbits,1
 411              		.align	2
 412              	.LC0:
 413 0000 6C6F672F 		.ascii	"log/\000"
 413      00
 414 0005 000000   		.align	2
 415              	.LC1:
 416 0008 696D752E 		.ascii	"imu.log\000"
 416      6C6F6700 
 417              		.align	2
ARM GAS  /var/folders/lx/hc4sn_b53233_zkc9xbbl97r0000gp/T//ccPrqdP0.s 			page 12


 418              	.LC2:
 419 0010 71756575 		.ascii	"queue imu data\000"
 419      6520696D 
 419      75206461 
 419      746100
 420 001f 00       		.align	2
 421              	.LC3:
 422 0020 71756575 		.ascii	"queue imu log\000"
 422      6520696D 
 422      75206C6F 
 422      6700
 423              		.section	.text.TaskLog_Init,"ax",%progbits
 424              		.align	1
 425              		.global	TaskLog_Init
 426              		.syntax unified
 427              		.thumb
 428              		.thumb_func
 429              		.fpu fpv5-d16
 431              	TaskLog_Init:
 432              	.LFB147:
  61:Task/Task_Log.c ****     Os_Idle_DataStream_TypeDef LogData_Stream;
 433              		.loc 1 61 1 is_stmt 1 view -0
 434              		.cfi_startproc
 435              		@ args = 0, pretend = 0, frame = 72
 436              		@ frame_needed = 0, uses_anonymous_args = 0
 437 0000 30B5     		push	{r4, r5, lr}
 438              	.LCFI13:
 439              		.cfi_def_cfa_offset 12
 440              		.cfi_offset 4, -12
 441              		.cfi_offset 5, -8
 442              		.cfi_offset 14, -4
 443 0002 93B0     		sub	sp, sp, #76
 444              	.LCFI14:
 445              		.cfi_def_cfa_offset 88
  62:Task/Task_Log.c **** 
 446              		.loc 1 62 5 view .LVU87
  64:Task/Task_Log.c ****     memset(&LogFile_Obj, NULL, sizeof(LogFile_Obj));
 447              		.loc 1 64 5 view .LVU88
 448 0004 424C     		ldr	r4, .L36
 449 0006 1E22     		movs	r2, #30
 450 0008 0021     		movs	r1, #0
 451 000a 2046     		mov	r0, r4
 452 000c FFF7FEFF 		bl	memset
 453              	.LVL24:
  65:Task/Task_Log.c ****     memset(&FATFS_Obj, NULL, sizeof(FATFS_Obj));
 454              		.loc 1 65 5 view .LVU89
 455 0010 3922     		movs	r2, #57
 456 0012 0021     		movs	r1, #0
 457 0014 3F48     		ldr	r0, .L36+4
 458 0016 FFF7FEFF 		bl	memset
 459              	.LVL25:
  66:Task/Task_Log.c **** 
 460              		.loc 1 66 5 view .LVU90
 461 001a 3F4D     		ldr	r5, .L36+8
 462 001c C822     		movs	r2, #200
 463 001e 0021     		movs	r1, #0
 464 0020 2846     		mov	r0, r5
ARM GAS  /var/folders/lx/hc4sn_b53233_zkc9xbbl97r0000gp/T//ccPrqdP0.s 			page 13


 465 0022 FFF7FEFF 		bl	memset
 466              	.LVL26:
  68:Task/Task_Log.c ****     IMU_Log_DataPipe.data_size = sizeof(LogPriIMU_Data);
 467              		.loc 1 68 5 view .LVU91
  68:Task/Task_Log.c ****     IMU_Log_DataPipe.data_size = sizeof(LogPriIMU_Data);
 468              		.loc 1 68 34 is_stmt 0 view .LVU92
 469 0026 3D48     		ldr	r0, .L36+12
  68:Task/Task_Log.c ****     IMU_Log_DataPipe.data_size = sizeof(LogPriIMU_Data);
 470              		.loc 1 68 32 view .LVU93
 471 0028 2060     		str	r0, [r4]
  69:Task/Task_Log.c ****     IMU_Log_DataPipe.trans_finish_cb = TaskLog_PipeTransFinish_Callback;
 472              		.loc 1 69 5 is_stmt 1 view .LVU94
  69:Task/Task_Log.c ****     IMU_Log_DataPipe.trans_finish_cb = TaskLog_PipeTransFinish_Callback;
 473              		.loc 1 69 32 is_stmt 0 view .LVU95
 474 002a 2F23     		movs	r3, #47
 475 002c A380     		strh	r3, [r4, #4]	@ movhi
  70:Task/Task_Log.c ****     IMU_Log_DataPipe.ptr_tmp = MMU_Malloc(IMU_Log_DataPipe.data_addr);
 476              		.loc 1 70 5 is_stmt 1 view .LVU96
  70:Task/Task_Log.c ****     IMU_Log_DataPipe.ptr_tmp = MMU_Malloc(IMU_Log_DataPipe.data_addr);
 477              		.loc 1 70 38 is_stmt 0 view .LVU97
 478 002e 3C4B     		ldr	r3, .L36+16
 479 0030 C4F80630 		str	r3, [r4, #6]	@ unaligned
  71:Task/Task_Log.c **** 
 480              		.loc 1 71 5 is_stmt 1 view .LVU98
  71:Task/Task_Log.c **** 
 481              		.loc 1 71 32 is_stmt 0 view .LVU99
 482 0034 80B2     		uxth	r0, r0
 483 0036 FFF7FEFF 		bl	MMU_Malloc
 484              	.LVL27:
  71:Task/Task_Log.c **** 
 485              		.loc 1 71 30 view .LVU100
 486 003a C4F81A00 		str	r0, [r4, #26]	@ unaligned
  73:Task/Task_Log.c ****     LogObj_Logging_Reg.reg_val = 0;
 487              		.loc 1 73 5 is_stmt 1 view .LVU101
  73:Task/Task_Log.c ****     LogObj_Logging_Reg.reg_val = 0;
 488              		.loc 1 73 28 is_stmt 0 view .LVU102
 489 003e 0023     		movs	r3, #0
 490 0040 384A     		ldr	r2, .L36+20
 491 0042 1380     		strh	r3, [r2]	@ movhi
  74:Task/Task_Log.c **** 
 492              		.loc 1 74 5 is_stmt 1 view .LVU103
  74:Task/Task_Log.c **** 
 493              		.loc 1 74 32 is_stmt 0 view .LVU104
 494 0044 384A     		ldr	r2, .L36+24
 495 0046 1380     		strh	r3, [r2]	@ movhi
  77:Task/Task_Log.c ****     {
 496              		.loc 1 77 5 is_stmt 1 view .LVU105
  77:Task/Task_Log.c ****     {
 497              		.loc 1 77 13 is_stmt 0 view .LVU106
 498 0048 384B     		ldr	r3, .L36+28
 499 004a 1B68     		ldr	r3, [r3]
  77:Task/Task_Log.c ****     {
 500              		.loc 1 77 9 view .LVU107
 501 004c 3849     		ldr	r1, .L36+32
 502 004e 2846     		mov	r0, r5
 503 0050 9847     		blx	r3
 504              	.LVL28:
ARM GAS  /var/folders/lx/hc4sn_b53233_zkc9xbbl97r0000gp/T//ccPrqdP0.s 			page 14


  77:Task/Task_Log.c ****     {
 505              		.loc 1 77 8 view .LVU108
 506 0052 0028     		cmp	r0, #0
 507 0054 4ED0     		beq	.L33
  79:Task/Task_Log.c ****         LogFile_Obj = Disk.create_file(&FATFS_Obj, IMU_LOG_FILE, LogFolder_Cluster);
 508              		.loc 1 79 9 is_stmt 1 view .LVU109
  79:Task/Task_Log.c ****         LogFile_Obj = Disk.create_file(&FATFS_Obj, IMU_LOG_FILE, LogFolder_Cluster);
 509              		.loc 1 79 33 is_stmt 0 view .LVU110
 510 0056 354D     		ldr	r5, .L36+28
 511 0058 6B68     		ldr	r3, [r5, #4]
  79:Task/Task_Log.c ****         LogFile_Obj = Disk.create_file(&FATFS_Obj, IMU_LOG_FILE, LogFolder_Cluster);
 512              		.loc 1 79 29 view .LVU111
 513 005a 2F4C     		ldr	r4, .L36+8
 514 005c 0222     		movs	r2, #2
 515 005e 3549     		ldr	r1, .L36+36
 516 0060 2046     		mov	r0, r4
 517 0062 9847     		blx	r3
 518              	.LVL29:
 519 0064 0346     		mov	r3, r0
  79:Task/Task_Log.c ****         LogFile_Obj = Disk.create_file(&FATFS_Obj, IMU_LOG_FILE, LogFolder_Cluster);
 520              		.loc 1 79 27 view .LVU112
 521 0066 344A     		ldr	r2, .L36+40
 522 0068 1060     		str	r0, [r2]
  80:Task/Task_Log.c ****         Disk.open(&FATFS_Obj, LOG_FOLDER, IMU_LOG_FILE, &LogFile_Obj);
 523              		.loc 1 80 9 is_stmt 1 view .LVU113
  80:Task/Task_Log.c ****         Disk.open(&FATFS_Obj, LOG_FOLDER, IMU_LOG_FILE, &LogFile_Obj);
 524              		.loc 1 80 27 is_stmt 0 view .LVU114
 525 006a AD68     		ldr	r5, [r5, #8]
  80:Task/Task_Log.c ****         Disk.open(&FATFS_Obj, LOG_FOLDER, IMU_LOG_FILE, &LogFile_Obj);
 526              		.loc 1 80 23 view .LVU115
 527 006c 334A     		ldr	r2, .L36+44
 528 006e 2146     		mov	r1, r4
 529 0070 6846     		mov	r0, sp
 530 0072 A847     		blx	r5
 531              	.LVL30:
 532 0074 EC46     		mov	ip, sp
 533 0076 274C     		ldr	r4, .L36+4
 534 0078 0CAD     		add	r5, sp, #48
 535              	.L34:
 536 007a A646     		mov	lr, r4
 537 007c DCF80000 		ldr	r0, [ip]	@ unaligned
 538 0080 DCF80410 		ldr	r1, [ip, #4]	@ unaligned
 539 0084 DCF80820 		ldr	r2, [ip, #8]	@ unaligned
 540 0088 DCF80C30 		ldr	r3, [ip, #12]	@ unaligned
 541 008c AEE80F00 		stmia	lr!, {r0, r1, r2, r3}
 542 0090 0CF1100C 		add	ip, ip, #16
 543 0094 7446     		mov	r4, lr
 544 0096 AC45     		cmp	ip, r5
 545 0098 EFD1     		bne	.L34
 546 009a DCF80000 		ldr	r0, [ip]	@ unaligned
 547 009e DCF80410 		ldr	r1, [ip, #4]	@ unaligned
 548 00a2 03C4     		stmia	r4!, {r0, r1}
 549 00a4 9CF80830 		ldrb	r3, [ip, #8]	@ zero_extendqisi2
 550 00a8 2370     		strb	r3, [r4]
  81:Task/Task_Log.c **** 
 551              		.loc 1 81 9 is_stmt 1 view .LVU116
  81:Task/Task_Log.c **** 
ARM GAS  /var/folders/lx/hc4sn_b53233_zkc9xbbl97r0000gp/T//ccPrqdP0.s 			page 15


 552              		.loc 1 81 13 is_stmt 0 view .LVU117
 553 00aa 204B     		ldr	r3, .L36+28
 554 00ac DC68     		ldr	r4, [r3, #12]
  81:Task/Task_Log.c **** 
 555              		.loc 1 81 9 view .LVU118
 556 00ae 194B     		ldr	r3, .L36+4
 557 00b0 224A     		ldr	r2, .L36+44
 558 00b2 2049     		ldr	r1, .L36+36
 559 00b4 1848     		ldr	r0, .L36+8
 560 00b6 A047     		blx	r4
 561              	.LVL31:
  84:Task/Task_Log.c ****             Queue.create_with_buf(&IMULog_Queue, "queue imu log", LogCache_L2_Buf, sizeof(LogCache_
 562              		.loc 1 84 9 is_stmt 1 view .LVU119
  84:Task/Task_Log.c ****             Queue.create_with_buf(&IMULog_Queue, "queue imu log", LogCache_L2_Buf, sizeof(LogCache_
 563              		.loc 1 84 18 is_stmt 0 view .LVU120
 564 00b8 214B     		ldr	r3, .L36+48
 565 00ba 9B68     		ldr	r3, [r3, #8]
  84:Task/Task_Log.c ****             Queue.create_with_buf(&IMULog_Queue, "queue imu log", LogCache_L2_Buf, sizeof(LogCache_
 566              		.loc 1 84 13 view .LVU121
 567 00bc 4FF42052 		mov	r2, #10240
 568 00c0 2049     		ldr	r1, .L36+52
 569 00c2 2148     		ldr	r0, .L36+56
 570 00c4 9847     		blx	r3
 571              	.LVL32:
  84:Task/Task_Log.c ****             Queue.create_with_buf(&IMULog_Queue, "queue imu log", LogCache_L2_Buf, sizeof(LogCache_
 572              		.loc 1 84 12 view .LVU122
 573 00c6 A8B1     		cbz	r0, .L33
  85:Task/Task_Log.c ****         {
 574              		.loc 1 85 18 discriminator 1 view .LVU123
 575 00c8 1D4B     		ldr	r3, .L36+48
 576 00ca DC68     		ldr	r4, [r3, #12]
  85:Task/Task_Log.c ****         {
 577              		.loc 1 85 13 discriminator 1 view .LVU124
 578 00cc 4FF42053 		mov	r3, #10240
 579 00d0 1E4A     		ldr	r2, .L36+60
 580 00d2 1F49     		ldr	r1, .L36+64
 581 00d4 1F48     		ldr	r0, .L36+68
 582 00d6 A047     		blx	r4
 583              	.LVL33:
  84:Task/Task_Log.c ****             Queue.create_with_buf(&IMULog_Queue, "queue imu log", LogCache_L2_Buf, sizeof(LogCache_
 584              		.loc 1 84 86 discriminator 1 view .LVU125
 585 00d8 60B1     		cbz	r0, .L33
  87:Task/Task_Log.c ****             LogObj_Enable_Reg._sec.IMU_Sec = true;
 586              		.loc 1 87 13 is_stmt 1 view .LVU126
  87:Task/Task_Log.c ****             LogObj_Enable_Reg._sec.IMU_Sec = true;
 587              		.loc 1 87 27 is_stmt 0 view .LVU127
 588 00da 1F4B     		ldr	r3, .L36+72
 589 00dc 0122     		movs	r2, #1
 590 00de 1A70     		strb	r2, [r3]
  88:Task/Task_Log.c ****             LogObj_Set_Reg._sec.IMU_Sec = true;
 591              		.loc 1 88 13 is_stmt 1 view .LVU128
  88:Task/Task_Log.c ****             LogObj_Set_Reg._sec.IMU_Sec = true;
 592              		.loc 1 88 44 is_stmt 0 view .LVU129
 593 00e0 1E4A     		ldr	r2, .L36+76
 594 00e2 1378     		ldrb	r3, [r2]	@ zero_extendqisi2
 595 00e4 43F00103 		orr	r3, r3, #1
 596 00e8 1370     		strb	r3, [r2]
ARM GAS  /var/folders/lx/hc4sn_b53233_zkc9xbbl97r0000gp/T//ccPrqdP0.s 			page 16


  89:Task/Task_Log.c ****         }
 597              		.loc 1 89 13 is_stmt 1 view .LVU130
  89:Task/Task_Log.c ****         }
 598              		.loc 1 89 41 is_stmt 0 view .LVU131
 599 00ea 0E4A     		ldr	r2, .L36+20
 600 00ec 1378     		ldrb	r3, [r2]	@ zero_extendqisi2
 601 00ee 43F00103 		orr	r3, r3, #1
 602 00f2 1370     		strb	r3, [r2]
 603              	.L33:
  93:Task/Task_Log.c ****     LogData_Stream.size = 0;
 604              		.loc 1 93 5 is_stmt 1 view .LVU132
  93:Task/Task_Log.c ****     LogData_Stream.size = 0;
 605              		.loc 1 93 24 is_stmt 0 view .LVU133
 606 00f4 0023     		movs	r3, #0
 607 00f6 1093     		str	r3, [sp, #64]
  94:Task/Task_Log.c **** 
 608              		.loc 1 94 5 is_stmt 1 view .LVU134
  94:Task/Task_Log.c **** 
 609              		.loc 1 94 25 is_stmt 0 view .LVU135
 610 00f8 ADF84430 		strh	r3, [sp, #68]	@ movhi
  96:Task/Task_Log.c **** }
 611              		.loc 1 96 5 is_stmt 1 view .LVU136
 612 00fc 184B     		ldr	r3, .L36+80
 613 00fe 12AA     		add	r2, sp, #72
 614 0100 12E90600 		ldmdb	r2, {r1, r2}
 615 0104 1748     		ldr	r0, .L36+84
 616 0106 FFF7FEFF 		bl	Os_Regist_IdleObj
 617              	.LVL34:
  97:Task/Task_Log.c **** 
 618              		.loc 1 97 1 is_stmt 0 view .LVU137
 619 010a 13B0     		add	sp, sp, #76
 620              	.LCFI15:
 621              		.cfi_def_cfa_offset 12
 622              		@ sp needed
 623 010c 30BD     		pop	{r4, r5, pc}
 624              	.L37:
 625 010e 00BF     		.align	2
 626              	.L36:
 627 0110 00000000 		.word	.LANCHOR5
 628 0114 00000000 		.word	.LANCHOR1
 629 0118 00000000 		.word	.LANCHOR2
 630 011c 00000000 		.word	.LANCHOR11
 631 0120 00000000 		.word	TaskLog_PipeTransFinish_Callback
 632 0124 00000000 		.word	.LANCHOR4
 633 0128 00000000 		.word	.LANCHOR7
 634 012c 00000000 		.word	Disk
 635 0130 00000000 		.word	TaskProto_PushProtocolQueue
 636 0134 00000000 		.word	.LC0
 637 0138 00000000 		.word	.LANCHOR12
 638 013c 08000000 		.word	.LC1
 639 0140 00000000 		.word	Queue
 640 0144 10000000 		.word	.LC2
 641 0148 00000000 		.word	.LANCHOR9
 642 014c 00000000 		.word	LogCache_L2_Buf
 643 0150 20000000 		.word	.LC3
 644 0154 00000000 		.word	.LANCHOR6
 645 0158 00000000 		.word	.LANCHOR3
ARM GAS  /var/folders/lx/hc4sn_b53233_zkc9xbbl97r0000gp/T//ccPrqdP0.s 			page 17


 646 015c 00000000 		.word	.LANCHOR8
 647 0160 00000000 		.word	OsIdle_Callback_LogModule
 648 0164 00000000 		.word	.LANCHOR13
 649              		.cfi_endproc
 650              	.LFE147:
 652              		.section	.text.TaskLog_Core,"ax",%progbits
 653              		.align	1
 654              		.global	TaskLog_Core
 655              		.syntax unified
 656              		.thumb
 657              		.thumb_func
 658              		.fpu fpv5-d16
 660              	TaskLog_Core:
 661              	.LVL35:
 662              	.LFB149:
 116:Task/Task_Log.c ****     static uint8_t i = 0;
 663              		.loc 1 116 1 is_stmt 1 view -0
 664              		.cfi_startproc
 665              		@ args = 0, pretend = 0, frame = 0
 666              		@ frame_needed = 0, uses_anonymous_args = 0
 116:Task/Task_Log.c ****     static uint8_t i = 0;
 667              		.loc 1 116 1 is_stmt 0 view .LVU139
 668 0000 10B5     		push	{r4, lr}
 669              	.LCFI16:
 670              		.cfi_def_cfa_offset 8
 671              		.cfi_offset 4, -8
 672              		.cfi_offset 14, -4
 117:Task/Task_Log.c ****     static bool led_state = false;
 673              		.loc 1 117 5 is_stmt 1 view .LVU140
 118:Task/Task_Log.c ****     static uint32_t t;
 674              		.loc 1 118 5 view .LVU141
 119:Task/Task_Log.c **** 
 675              		.loc 1 119 5 view .LVU142
 121:Task/Task_Log.c **** 
 676              		.loc 1 121 5 view .LVU143
 121:Task/Task_Log.c **** 
 677              		.loc 1 121 9 is_stmt 0 view .LVU144
 678 0002 FFF7FEFF 		bl	Get_CurrentRunningMs
 679              	.LVL36:
 121:Task/Task_Log.c **** 
 680              		.loc 1 121 7 view .LVU145
 681 0006 154B     		ldr	r3, .L43
 682 0008 1860     		str	r0, [r3]
 123:Task/Task_Log.c ****     {
 683              		.loc 1 123 5 is_stmt 1 view .LVU146
 123:Task/Task_Log.c ****     {
 684              		.loc 1 123 9 is_stmt 0 view .LVU147
 685 000a 154B     		ldr	r3, .L43+4
 686 000c 1B78     		ldrb	r3, [r3]	@ zero_extendqisi2
 123:Task/Task_Log.c ****     {
 687              		.loc 1 123 8 view .LVU148
 688 000e A3B1     		cbz	r3, .L38
 126:Task/Task_Log.c ****         {
 689              		.loc 1 126 9 is_stmt 1 view .LVU149
 126:Task/Task_Log.c ****         {
 690              		.loc 1 126 15 is_stmt 0 view .LVU150
 691 0010 144B     		ldr	r3, .L43+8
ARM GAS  /var/folders/lx/hc4sn_b53233_zkc9xbbl97r0000gp/T//ccPrqdP0.s 			page 18


 692 0012 1B78     		ldrb	r3, [r3]	@ zero_extendqisi2
 126:Task/Task_Log.c ****         {
 693              		.loc 1 126 12 view .LVU151
 694 0014 092B     		cmp	r3, #9
 695 0016 11D8     		bhi	.L40
 128:Task/Task_Log.c ****         }
 696              		.loc 1 128 13 is_stmt 1 view .LVU152
 128:Task/Task_Log.c ****         }
 697              		.loc 1 128 14 is_stmt 0 view .LVU153
 698 0018 0133     		adds	r3, r3, #1
 699 001a 124A     		ldr	r2, .L43+8
 700 001c 1370     		strb	r3, [r2]
 701              	.L41:
 137:Task/Task_Log.c ****         {
 702              		.loc 1 137 9 is_stmt 1 view .LVU154
 137:Task/Task_Log.c ****         {
 703              		.loc 1 137 12 is_stmt 0 view .LVU155
 704 001e 124B     		ldr	r3, .L43+12
 705 0020 1B78     		ldrb	r3, [r3]	@ zero_extendqisi2
 137:Task/Task_Log.c ****         {
 706              		.loc 1 137 11 view .LVU156
 707 0022 13F0010F 		tst	r3, #1
 708 0026 08D1     		bne	.L38
 139:Task/Task_Log.c ****             DevLED.ctl(Led2, false);
 709              		.loc 1 139 13 is_stmt 1 view .LVU157
 139:Task/Task_Log.c ****             DevLED.ctl(Led2, false);
 710              		.loc 1 139 15 is_stmt 0 view .LVU158
 711 0028 0022     		movs	r2, #0
 712 002a 0E4B     		ldr	r3, .L43+8
 713 002c 1A70     		strb	r2, [r3]
 140:Task/Task_Log.c ****         }
 714              		.loc 1 140 13 is_stmt 1 view .LVU159
 140:Task/Task_Log.c ****         }
 715              		.loc 1 140 19 is_stmt 0 view .LVU160
 716 002e 0F4B     		ldr	r3, .L43+16
 717 0030 5C68     		ldr	r4, [r3, #4]
 140:Task/Task_Log.c ****         }
 718              		.loc 1 140 13 view .LVU161
 719 0032 0F4B     		ldr	r3, .L43+20
 720 0034 93E80300 		ldm	r3, {r0, r1}
 721 0038 A047     		blx	r4
 722              	.LVL37:
 723              	.L38:
 145:Task/Task_Log.c **** 
 724              		.loc 1 145 1 view .LVU162
 725 003a 10BD     		pop	{r4, pc}
 726              	.L40:
 132:Task/Task_Log.c ****             led_state = !led_state;
 727              		.loc 1 132 13 is_stmt 1 view .LVU163
 132:Task/Task_Log.c ****             led_state = !led_state;
 728              		.loc 1 132 15 is_stmt 0 view .LVU164
 729 003c 094B     		ldr	r3, .L43+8
 730 003e 0022     		movs	r2, #0
 731 0040 1A70     		strb	r2, [r3]
 133:Task/Task_Log.c ****             DevLED.ctl(Led2, led_state);
 732              		.loc 1 133 13 is_stmt 1 view .LVU165
 733 0042 0C4B     		ldr	r3, .L43+24
ARM GAS  /var/folders/lx/hc4sn_b53233_zkc9xbbl97r0000gp/T//ccPrqdP0.s 			page 19


 734 0044 1A78     		ldrb	r2, [r3]	@ zero_extendqisi2
 735 0046 82F00102 		eor	r2, r2, #1
 133:Task/Task_Log.c ****             DevLED.ctl(Led2, led_state);
 736              		.loc 1 133 23 is_stmt 0 view .LVU166
 737 004a 1A70     		strb	r2, [r3]
 134:Task/Task_Log.c ****         }
 738              		.loc 1 134 13 is_stmt 1 view .LVU167
 134:Task/Task_Log.c ****         }
 739              		.loc 1 134 19 is_stmt 0 view .LVU168
 740 004c 074B     		ldr	r3, .L43+16
 741 004e 5C68     		ldr	r4, [r3, #4]
 134:Task/Task_Log.c ****         }
 742              		.loc 1 134 13 view .LVU169
 743 0050 074B     		ldr	r3, .L43+20
 744 0052 93E80300 		ldm	r3, {r0, r1}
 745 0056 A047     		blx	r4
 746              	.LVL38:
 747 0058 E1E7     		b	.L41
 748              	.L44:
 749 005a 00BF     		.align	2
 750              	.L43:
 751 005c 00000000 		.word	.LANCHOR14
 752 0060 00000000 		.word	.LANCHOR3
 753 0064 00000000 		.word	.LANCHOR15
 754 0068 00000000 		.word	.LANCHOR8
 755 006c 00000000 		.word	DevLED
 756 0070 00000000 		.word	Led2
 757 0074 00000000 		.word	.LANCHOR16
 758              		.cfi_endproc
 759              	.LFE149:
 761              		.global	IMU_Log_DataPipe
 762              		.section	.Fast_Mem_section,"aw"
 763              		.align	2
 766              	LogCache_L2_Buf:
 767 0000 00000000 		.space	10240
 767      00000000 
 767      00000000 
 767      00000000 
 767      00000000 
 768              		.section	.Perph_Section,"aw"
 769              		.align	2
 770              		.set	.LANCHOR11,. + 0
 773              	LogPriIMU_Data:
 774 0000 00000000 		.space	47
 774      00000000 
 774      00000000 
 774      00000000 
 774      00000000 
 775              		.section	.bss.FATFS_Obj,"aw",%nobits
 776              		.align	2
 777              		.set	.LANCHOR2,. + 0
 780              	FATFS_Obj:
 781 0000 00000000 		.space	200
 781      00000000 
 781      00000000 
 781      00000000 
 781      00000000 
ARM GAS  /var/folders/lx/hc4sn_b53233_zkc9xbbl97r0000gp/T//ccPrqdP0.s 			page 20


 782              		.section	.bss.IMUData_Queue,"aw",%nobits
 783              		.align	2
 784              		.set	.LANCHOR9,. + 0
 787              	IMUData_Queue:
 788 0000 00000000 		.space	17
 788      00000000 
 788      00000000 
 788      00000000 
 788      00
 789              		.section	.bss.IMULog_Queue,"aw",%nobits
 790              		.align	2
 791              		.set	.LANCHOR6,. + 0
 794              	IMULog_Queue:
 795 0000 00000000 		.space	17
 795      00000000 
 795      00000000 
 795      00000000 
 795      00
 796              		.section	.bss.IMU_Log_DataPipe,"aw",%nobits
 797              		.align	2
 798              		.set	.LANCHOR5,. + 0
 801              	IMU_Log_DataPipe:
 802 0000 00000000 		.space	30
 802      00000000 
 802      00000000 
 802      00000000 
 802      00000000 
 803              		.section	.bss.LogFile_Obj,"aw",%nobits
 804              		.align	2
 805              		.set	.LANCHOR1,. + 0
 808              	LogFile_Obj:
 809 0000 00000000 		.space	57
 809      00000000 
 809      00000000 
 809      00000000 
 809      00000000 
 810              		.section	.bss.LogFile_Ready,"aw",%nobits
 811              		.set	.LANCHOR3,. + 0
 814              	LogFile_Ready:
 815 0000 00       		.space	1
 816              		.section	.bss.LogFolder_Cluster,"aw",%nobits
 817              		.align	2
 818              		.set	.LANCHOR12,. + 0
 821              	LogFolder_Cluster:
 822 0000 00000000 		.space	4
 823              		.section	.bss.LogIdleObj,"aw",%nobits
 824              		.align	2
 825              		.set	.LANCHOR13,. + 0
 828              	LogIdleObj:
 829 0000 00000000 		.space	40
 829      00000000 
 829      00000000 
 829      00000000 
 829      00000000 
 830              		.section	.bss.LogObj_Enable_Reg,"aw",%nobits
 831              		.align	2
 832              		.set	.LANCHOR8,. + 0
ARM GAS  /var/folders/lx/hc4sn_b53233_zkc9xbbl97r0000gp/T//ccPrqdP0.s 			page 21


 835              	LogObj_Enable_Reg:
 836 0000 0000     		.space	2
 837              		.section	.bss.LogObj_Logging_Reg,"aw",%nobits
 838              		.align	2
 839              		.set	.LANCHOR7,. + 0
 842              	LogObj_Logging_Reg:
 843 0000 0000     		.space	2
 844              		.section	.bss.LogObj_Set_Reg,"aw",%nobits
 845              		.align	2
 846              		.set	.LANCHOR4,. + 0
 849              	LogObj_Set_Reg:
 850 0000 0000     		.space	2
 851              		.section	.bss.LogQueueBuff_Trail,"aw",%nobits
 852              		.align	2
 853              		.set	.LANCHOR0,. + 0
 856              	LogQueueBuff_Trail:
 857 0000 00000000 		.space	512
 857      00000000 
 857      00000000 
 857      00000000 
 857      00000000 
 858              		.section	.bss.i.1,"aw",%nobits
 859              		.set	.LANCHOR15,. + 0
 862              	i.1:
 863 0000 00       		.space	1
 864              		.section	.bss.led_state.0,"aw",%nobits
 865              		.set	.LANCHOR16,. + 0
 868              	led_state.0:
 869 0000 00       		.space	1
 870              		.section	.bss.t.2,"aw",%nobits
 871              		.align	2
 872              		.set	.LANCHOR14,. + 0
 875              	t.2:
 876 0000 00000000 		.space	4
 877              		.section	.rodata.LogIMU_Header,"a"
 878              		.align	2
 879              		.set	.LANCHOR10,. + 0
 882              	LogIMU_Header:
 883 0000 BA       		.byte	-70
 884 0001 00       		.byte	0
 885 0002 2F       		.byte	47
 886              		.text
 887              	.Letext0:
 888              		.file 2 "/usr/local/arm-none-eabi-gcc/gcc-arm-none-eabi-10-2020-q4-major/arm-none-eabi/include/mac
 889              		.file 3 "/usr/local/arm-none-eabi-gcc/gcc-arm-none-eabi-10-2020-q4-major/arm-none-eabi/include/sys
 890              		.file 4 "System/runtime/runtime.h"
 891              		.file 5 "DataStructure/linked_list.h"
 892              		.file 6 "HAL_Lib/CMSIS/Device/ST/STM32H7xx/Include/stm32h743xx.h"
 893              		.file 7 "HAL_Lib/STM32H7xx_HAL_Driver/Inc/stm32h7xx_hal_gpio.h"
 894              		.file 8 "System/scheduler/scheduler.h"
 895              		.file 9 "Task/Task_Log.h"
 896              		.file 10 "Bsp/Bsp_GPIO.h"
 897              		.file 11 "DataStructure/queue.h"
 898              		.file 12 "System/diskio/DiskIO.h"
 899              		.file 13 "System/DataPipe/DataPipe.h"
 900              		.file 14 "Service/imu_data.h"
 901              		.file 15 "Service/SrvMPU_Sample.h"
ARM GAS  /var/folders/lx/hc4sn_b53233_zkc9xbbl97r0000gp/T//ccPrqdP0.s 			page 22


 902              		.file 16 "Device/Dev_Led.h"
 903              		.file 17 "IO_Def/IO_Definition.h"
 904              		.file 18 "System/mmu/mmu.h"
 905              		.file 19 "<built-in>"
ARM GAS  /var/folders/lx/hc4sn_b53233_zkc9xbbl97r0000gp/T//ccPrqdP0.s 			page 23


DEFINED SYMBOLS
                            *ABS*:0000000000000000 Task_Log.c
/var/folders/lx/hc4sn_b53233_zkc9xbbl97r0000gp/T//ccPrqdP0.s:17     .text.LogData_ToFile:0000000000000000 $t
/var/folders/lx/hc4sn_b53233_zkc9xbbl97r0000gp/T//ccPrqdP0.s:24     .text.LogData_ToFile:0000000000000000 LogData_ToFile
/var/folders/lx/hc4sn_b53233_zkc9xbbl97r0000gp/T//ccPrqdP0.s:166    .text.LogData_ToFile:000000000000008c $d
/var/folders/lx/hc4sn_b53233_zkc9xbbl97r0000gp/T//ccPrqdP0.s:175    .text.OsIdle_Callback_LogModule:0000000000000000 $t
/var/folders/lx/hc4sn_b53233_zkc9xbbl97r0000gp/T//ccPrqdP0.s:181    .text.OsIdle_Callback_LogModule:0000000000000000 OsIdle_Callback_LogModule
/var/folders/lx/hc4sn_b53233_zkc9xbbl97r0000gp/T//ccPrqdP0.s:259    .text.OsIdle_Callback_LogModule:0000000000000058 $d
/var/folders/lx/hc4sn_b53233_zkc9xbbl97r0000gp/T//ccPrqdP0.s:270    .text.TaskLog_PipeTransFinish_Callback:0000000000000000 $t
/var/folders/lx/hc4sn_b53233_zkc9xbbl97r0000gp/T//ccPrqdP0.s:276    .text.TaskLog_PipeTransFinish_Callback:0000000000000000 TaskLog_PipeTransFinish_Callback
/var/folders/lx/hc4sn_b53233_zkc9xbbl97r0000gp/T//ccPrqdP0.s:398    .text.TaskLog_PipeTransFinish_Callback:0000000000000080 $d
/var/folders/lx/hc4sn_b53233_zkc9xbbl97r0000gp/T//ccPrqdP0.s:411    .rodata.TaskLog_Init.str1.4:0000000000000000 $d
/var/folders/lx/hc4sn_b53233_zkc9xbbl97r0000gp/T//ccPrqdP0.s:424    .text.TaskLog_Init:0000000000000000 $t
/var/folders/lx/hc4sn_b53233_zkc9xbbl97r0000gp/T//ccPrqdP0.s:431    .text.TaskLog_Init:0000000000000000 TaskLog_Init
/var/folders/lx/hc4sn_b53233_zkc9xbbl97r0000gp/T//ccPrqdP0.s:627    .text.TaskLog_Init:0000000000000110 $d
/var/folders/lx/hc4sn_b53233_zkc9xbbl97r0000gp/T//ccPrqdP0.s:766    .Fast_Mem_section:0000000000000000 LogCache_L2_Buf
/var/folders/lx/hc4sn_b53233_zkc9xbbl97r0000gp/T//ccPrqdP0.s:653    .text.TaskLog_Core:0000000000000000 $t
/var/folders/lx/hc4sn_b53233_zkc9xbbl97r0000gp/T//ccPrqdP0.s:660    .text.TaskLog_Core:0000000000000000 TaskLog_Core
/var/folders/lx/hc4sn_b53233_zkc9xbbl97r0000gp/T//ccPrqdP0.s:751    .text.TaskLog_Core:000000000000005c $d
/var/folders/lx/hc4sn_b53233_zkc9xbbl97r0000gp/T//ccPrqdP0.s:801    .bss.IMU_Log_DataPipe:0000000000000000 IMU_Log_DataPipe
/var/folders/lx/hc4sn_b53233_zkc9xbbl97r0000gp/T//ccPrqdP0.s:763    .Fast_Mem_section:0000000000000000 $d
/var/folders/lx/hc4sn_b53233_zkc9xbbl97r0000gp/T//ccPrqdP0.s:769    .Perph_Section:0000000000000000 $d
/var/folders/lx/hc4sn_b53233_zkc9xbbl97r0000gp/T//ccPrqdP0.s:773    .Perph_Section:0000000000000000 LogPriIMU_Data
/var/folders/lx/hc4sn_b53233_zkc9xbbl97r0000gp/T//ccPrqdP0.s:776    .bss.FATFS_Obj:0000000000000000 $d
/var/folders/lx/hc4sn_b53233_zkc9xbbl97r0000gp/T//ccPrqdP0.s:780    .bss.FATFS_Obj:0000000000000000 FATFS_Obj
/var/folders/lx/hc4sn_b53233_zkc9xbbl97r0000gp/T//ccPrqdP0.s:783    .bss.IMUData_Queue:0000000000000000 $d
/var/folders/lx/hc4sn_b53233_zkc9xbbl97r0000gp/T//ccPrqdP0.s:787    .bss.IMUData_Queue:0000000000000000 IMUData_Queue
/var/folders/lx/hc4sn_b53233_zkc9xbbl97r0000gp/T//ccPrqdP0.s:790    .bss.IMULog_Queue:0000000000000000 $d
/var/folders/lx/hc4sn_b53233_zkc9xbbl97r0000gp/T//ccPrqdP0.s:794    .bss.IMULog_Queue:0000000000000000 IMULog_Queue
/var/folders/lx/hc4sn_b53233_zkc9xbbl97r0000gp/T//ccPrqdP0.s:797    .bss.IMU_Log_DataPipe:0000000000000000 $d
/var/folders/lx/hc4sn_b53233_zkc9xbbl97r0000gp/T//ccPrqdP0.s:804    .bss.LogFile_Obj:0000000000000000 $d
/var/folders/lx/hc4sn_b53233_zkc9xbbl97r0000gp/T//ccPrqdP0.s:808    .bss.LogFile_Obj:0000000000000000 LogFile_Obj
/var/folders/lx/hc4sn_b53233_zkc9xbbl97r0000gp/T//ccPrqdP0.s:814    .bss.LogFile_Ready:0000000000000000 LogFile_Ready
/var/folders/lx/hc4sn_b53233_zkc9xbbl97r0000gp/T//ccPrqdP0.s:815    .bss.LogFile_Ready:0000000000000000 $d
/var/folders/lx/hc4sn_b53233_zkc9xbbl97r0000gp/T//ccPrqdP0.s:817    .bss.LogFolder_Cluster:0000000000000000 $d
/var/folders/lx/hc4sn_b53233_zkc9xbbl97r0000gp/T//ccPrqdP0.s:821    .bss.LogFolder_Cluster:0000000000000000 LogFolder_Cluster
/var/folders/lx/hc4sn_b53233_zkc9xbbl97r0000gp/T//ccPrqdP0.s:824    .bss.LogIdleObj:0000000000000000 $d
/var/folders/lx/hc4sn_b53233_zkc9xbbl97r0000gp/T//ccPrqdP0.s:828    .bss.LogIdleObj:0000000000000000 LogIdleObj
/var/folders/lx/hc4sn_b53233_zkc9xbbl97r0000gp/T//ccPrqdP0.s:831    .bss.LogObj_Enable_Reg:0000000000000000 $d
/var/folders/lx/hc4sn_b53233_zkc9xbbl97r0000gp/T//ccPrqdP0.s:835    .bss.LogObj_Enable_Reg:0000000000000000 LogObj_Enable_Reg
/var/folders/lx/hc4sn_b53233_zkc9xbbl97r0000gp/T//ccPrqdP0.s:838    .bss.LogObj_Logging_Reg:0000000000000000 $d
/var/folders/lx/hc4sn_b53233_zkc9xbbl97r0000gp/T//ccPrqdP0.s:842    .bss.LogObj_Logging_Reg:0000000000000000 LogObj_Logging_Reg
/var/folders/lx/hc4sn_b53233_zkc9xbbl97r0000gp/T//ccPrqdP0.s:845    .bss.LogObj_Set_Reg:0000000000000000 $d
/var/folders/lx/hc4sn_b53233_zkc9xbbl97r0000gp/T//ccPrqdP0.s:849    .bss.LogObj_Set_Reg:0000000000000000 LogObj_Set_Reg
/var/folders/lx/hc4sn_b53233_zkc9xbbl97r0000gp/T//ccPrqdP0.s:852    .bss.LogQueueBuff_Trail:0000000000000000 $d
/var/folders/lx/hc4sn_b53233_zkc9xbbl97r0000gp/T//ccPrqdP0.s:856    .bss.LogQueueBuff_Trail:0000000000000000 LogQueueBuff_Trail
/var/folders/lx/hc4sn_b53233_zkc9xbbl97r0000gp/T//ccPrqdP0.s:862    .bss.i.1:0000000000000000 i.1
/var/folders/lx/hc4sn_b53233_zkc9xbbl97r0000gp/T//ccPrqdP0.s:863    .bss.i.1:0000000000000000 $d
/var/folders/lx/hc4sn_b53233_zkc9xbbl97r0000gp/T//ccPrqdP0.s:868    .bss.led_state.0:0000000000000000 led_state.0
/var/folders/lx/hc4sn_b53233_zkc9xbbl97r0000gp/T//ccPrqdP0.s:869    .bss.led_state.0:0000000000000000 $d
/var/folders/lx/hc4sn_b53233_zkc9xbbl97r0000gp/T//ccPrqdP0.s:871    .bss.t.2:0000000000000000 $d
/var/folders/lx/hc4sn_b53233_zkc9xbbl97r0000gp/T//ccPrqdP0.s:875    .bss.t.2:0000000000000000 t.2
/var/folders/lx/hc4sn_b53233_zkc9xbbl97r0000gp/T//ccPrqdP0.s:878    .rodata.LogIMU_Header:0000000000000000 $d
/var/folders/lx/hc4sn_b53233_zkc9xbbl97r0000gp/T//ccPrqdP0.s:882    .rodata.LogIMU_Header:0000000000000000 LogIMU_Header

UNDEFINED SYMBOLS
Queue
ARM GAS  /var/folders/lx/hc4sn_b53233_zkc9xbbl97r0000gp/T//ccPrqdP0.s 			page 24


Disk
memset
MMU_Malloc
Os_Regist_IdleObj
TaskProto_PushProtocolQueue
Get_CurrentRunningMs
DevLED
Led2
