ARM GAS  C:\Users\8bit\AppData\Local\Temp\cclQGHkl.s 			page 1


   1              		.cpu cortex-m4
   2              		.arch armv7e-m
   3              		.fpu fpv4-sp-d16
   4              		.eabi_attribute 27, 1
   5              		.eabi_attribute 28, 1
   6              		.eabi_attribute 20, 1
   7              		.eabi_attribute 21, 1
   8              		.eabi_attribute 23, 3
   9              		.eabi_attribute 24, 1
  10              		.eabi_attribute 25, 1
  11              		.eabi_attribute 26, 1
  12              		.eabi_attribute 30, 1
  13              		.eabi_attribute 34, 1
  14              		.eabi_attribute 18, 4
  15              		.file	"Task_BlackBox.c"
  16              		.text
  17              	.Ltext0:
  18              		.cfi_sections	.debug_frame
  19              		.section	.text.TaskBlackBox_Get_CheckSum,"ax",%progbits
  20              		.align	1
  21              		.syntax unified
  22              		.thumb
  23              		.thumb_func
  25              	TaskBlackBox_Get_CheckSum:
  26              	.LVL0:
  27              	.LFB150:
  28              		.file 1 "Task/Task_BlackBox.c"
   1:Task/Task_BlackBox.c **** /*
   2:Task/Task_BlackBox.c ****  * Auther: 8_B!T0
   3:Task/Task_BlackBox.c ****  * this file will replace task_log
   4:Task/Task_BlackBox.c ****  * drone black box task
   5:Task/Task_BlackBox.c ****  */
   6:Task/Task_BlackBox.c **** #include "FreeRTOS.h"
   7:Task/Task_BlackBox.c **** #include "task.h"
   8:Task/Task_BlackBox.c **** #include "Task_BlackBox.h"
   9:Task/Task_BlackBox.c **** #include "shell_port.h"
  10:Task/Task_BlackBox.c **** #include "debug_util.h"
  11:Task/Task_BlackBox.c **** #include "../DataStructure/CusQueue.h"
  12:Task/Task_BlackBox.c **** #include "error_log.h"
  13:Task/Task_BlackBox.c **** #include "../DataPipe/DataPipe.h"
  14:Task/Task_BlackBox.c **** #include "../System/storage/Storage.h"
  15:Task/Task_BlackBox.c **** #include "Task_Sample.h"
  16:Task/Task_BlackBox.c **** #include "HW_Def.h"
  17:Task/Task_BlackBox.c **** #include "minilzo.h"
  18:Task/Task_BlackBox.c **** #include "Srv_OsCommon.h"
  19:Task/Task_BlackBox.c **** #include "Srv_BlackBox_Def.h"
  20:Task/Task_BlackBox.c **** 
  21:Task/Task_BlackBox.c **** #define PeriphSec __attribute__((section(".Perph_Section")))
  22:Task/Task_BlackBox.c **** #define BlackBox_Buff_Size (8 Kb)
  23:Task/Task_BlackBox.c **** #define BlackBox_Storage_Name "BlackBox"
  24:Task/Task_BlackBox.c **** 
  25:Task/Task_BlackBox.c **** typedef enum
  26:Task/Task_BlackBox.c **** {
  27:Task/Task_BlackBox.c ****     BlackBox_Log_Idle = 0,
  28:Task/Task_BlackBox.c ****     BlackBox_Log_Enable,
  29:Task/Task_BlackBox.c ****     BlackBox_Log_Disable,
  30:Task/Task_BlackBox.c **** } BlackBox_LogState_List;
ARM GAS  C:\Users\8bit\AppData\Local\Temp\cclQGHkl.s 			page 2


  31:Task/Task_BlackBox.c **** 
  32:Task/Task_BlackBox.c **** typedef enum
  33:Task/Task_BlackBox.c **** {
  34:Task/Task_BlackBox.c ****     BlackBox_Cnv_None_Error = 0,
  35:Task/Task_BlackBox.c ****     BlackBox_Cnv_Para_Error,
  36:Task/Task_BlackBox.c ****     BlackBox_Cnv_Size_Error,
  37:Task/Task_BlackBox.c ****     BlackBox_Cnv_Type_Error,
  38:Task/Task_BlackBox.c ****     BlackBox_Cnv_Header_Error,
  39:Task/Task_BlackBox.c ****     BlackBox_Cnv_Ender_Error,
  40:Task/Task_BlackBox.c **** } BlackBox_ConvertError_List;
  41:Task/Task_BlackBox.c **** 
  42:Task/Task_BlackBox.c **** typedef struct
  43:Task/Task_BlackBox.c **** {
  44:Task/Task_BlackBox.c ****     uint32_t cnt;
  45:Task/Task_BlackBox.c ****     uint32_t byte_size;
  46:Task/Task_BlackBox.c **** } BlackBox_LogStatistic_TypeDef;
  47:Task/Task_BlackBox.c **** 
  48:Task/Task_BlackBox.c **** #pragma pack(1)
  49:Task/Task_BlackBox.c **** typedef struct
  50:Task/Task_BlackBox.c **** {
  51:Task/Task_BlackBox.c ****     BlackBox_MediumType_List medium;
  52:Task/Task_BlackBox.c ****     BlackBox_LogType_List log_type;
  53:Task/Task_BlackBox.c ****     uint32_t log_size;
  54:Task/Task_BlackBox.c **** } BlackBox_LogInfo_TypeDef;
  55:Task/Task_BlackBox.c **** #pragma pack()
  56:Task/Task_BlackBox.c **** 
  57:Task/Task_BlackBox.c **** typedef struct
  58:Task/Task_BlackBox.c **** {
  59:Task/Task_BlackBox.c ****     BlackBox_LogState_List state;
  60:Task/Task_BlackBox.c ****     bool write_thread_state;
  61:Task/Task_BlackBox.c ****     
  62:Task/Task_BlackBox.c ****     Storage_ItemSearchOut_TypeDef storage_search;
  63:Task/Task_BlackBox.c ****     BlackBox_MediumType_List medium;
  64:Task/Task_BlackBox.c ****     BlackBox_LogType_List log_type;
  65:Task/Task_BlackBox.c ****     uint32_t expection_log_size;
  66:Task/Task_BlackBox.c **** 
  67:Task/Task_BlackBox.c ****     uint32_t log_unit;
  68:Task/Task_BlackBox.c ****     uint8_t *p_log_buf;
  69:Task/Task_BlackBox.c ****     uint32_t log_byte_size;
  70:Task/Task_BlackBox.c ****     uint32_t log_cnt;
  71:Task/Task_BlackBox.c ****     BlackBox_LogStatistic_TypeDef imu_log;
  72:Task/Task_BlackBox.c ****     BlackBox_LogStatistic_TypeDef alt_att_log; 
  73:Task/Task_BlackBox.c ****     BlackBox_LogStatistic_TypeDef ctl_ang_log;
  74:Task/Task_BlackBox.c ****     BlackBox_LogStatistic_TypeDef ctl_att_log;
  75:Task/Task_BlackBox.c **** } BlackBox_Monitor_TypeDef;
  76:Task/Task_BlackBox.c **** 
  77:Task/Task_BlackBox.c **** /* internal vriable */
  78:Task/Task_BlackBox.c **** static uint8_t BlackBox_Buff[BlackBox_Buff_Size] PeriphSec;
  79:Task/Task_BlackBox.c **** static QueueObj_TypeDef BlackBox_Queue;
  80:Task/Task_BlackBox.c **** static BlackBox_Monitor_TypeDef Monitor;
  81:Task/Task_BlackBox.c **** static osSemaphoreId BlackBox_Sem = 0;
  82:Task/Task_BlackBox.c **** static SrvBlackBox_TypeDef *p_blackbox = NULL;
  83:Task/Task_BlackBox.c **** DataPipe_CreateDataObj(SrvIMU_UnionData_TypeDef,  LogImu_Data);
  84:Task/Task_BlackBox.c **** DataPipe_CreateDataObj(SrvBaro_UnionData_TypeDef, LogBaro_Data);
  85:Task/Task_BlackBox.c **** DataPipe_CreateDataObj(IMUAtt_TypeDef,            LogAtt_Data);
  86:Task/Task_BlackBox.c **** DataPipe_CreateDataObj(AltData_TypeDef,           LogAlt_Data);
  87:Task/Task_BlackBox.c **** DataPipe_CreateDataObj(ExpControlData_TypeDef,    LogCtl_Data);
ARM GAS  C:\Users\8bit\AppData\Local\Temp\cclQGHkl.s 			page 3


  88:Task/Task_BlackBox.c **** 
  89:Task/Task_BlackBox.c **** /* internal function */
  90:Task/Task_BlackBox.c **** static void TaskBlackBox_PipeTransFinish_Callback(DataPipeObj_TypeDef *obj);
  91:Task/Task_BlackBox.c **** static void TaskBlackBox_PushFinish_Callback(void);
  92:Task/Task_BlackBox.c **** 
  93:Task/Task_BlackBox.c **** void TaskBlackBox_Init(void)
  94:Task/Task_BlackBox.c **** {
  95:Task/Task_BlackBox.c ****     uint32_t unit = 0;
  96:Task/Task_BlackBox.c ****     StorageDevObj_TypeDef StorageDevInfo; 
  97:Task/Task_BlackBox.c ****     SrvBlackBox_DevInfo_TypeDef BlackBoxDevInfo;
  98:Task/Task_BlackBox.c ****     BlackBox_LogInfo_TypeDef BlackBoxInfo;
  99:Task/Task_BlackBox.c ****     /* medium init */
 100:Task/Task_BlackBox.c ****     /* medium auto detect */
 101:Task/Task_BlackBox.c ****     /*
 102:Task/Task_BlackBox.c ****         --- TF Card
 103:Task/Task_BlackBox.c ****         --- W25Qxx Storage Chip
 104:Task/Task_BlackBox.c ****         --- Com Output
 105:Task/Task_BlackBox.c ****      */
 106:Task/Task_BlackBox.c ****     memset(&StorageDevInfo, 0, sizeof(StorageDevObj_TypeDef));
 107:Task/Task_BlackBox.c ****     memset(&BlackBoxDevInfo, 0, sizeof(SrvBlackBox_DevInfo_TypeDef));
 108:Task/Task_BlackBox.c ****     memset(&BlackBoxInfo, 0, sizeof(BlackBox_LogInfo_TypeDef));
 109:Task/Task_BlackBox.c ****     memset(&Monitor, 0, sizeof(BlackBox_Monitor_TypeDef));
 110:Task/Task_BlackBox.c ****     Monitor.state = BlackBox_Log_Idle;
 111:Task/Task_BlackBox.c **** 
 112:Task/Task_BlackBox.c ****     /* read blackbox info from storage */
 113:Task/Task_BlackBox.c ****     Monitor.storage_search = Storage.search(Para_User, BlackBox_Storage_Name);
 114:Task/Task_BlackBox.c ****     if (Monitor.storage_search.item_addr == 0)
 115:Task/Task_BlackBox.c ****     {
 116:Task/Task_BlackBox.c ****         BlackBoxInfo.log_size = 0;
 117:Task/Task_BlackBox.c ****         BlackBoxInfo.medium = BlackBox_Medium_None;
 118:Task/Task_BlackBox.c ****         BlackBoxInfo.log_type = BlackBox_Log_None;
 119:Task/Task_BlackBox.c ****         if (Storage.create(Para_User, BlackBox_Storage_Name, (uint8_t *)&BlackBoxInfo, sizeof(Black
 120:Task/Task_BlackBox.c ****             return;
 121:Task/Task_BlackBox.c ****     }
 122:Task/Task_BlackBox.c ****     else
 123:Task/Task_BlackBox.c ****     {
 124:Task/Task_BlackBox.c ****         if (Storage.get(Para_User, Monitor.storage_search.item, (uint8_t *)&BlackBoxInfo, sizeof(Bl
 125:Task/Task_BlackBox.c ****             return;
 126:Task/Task_BlackBox.c **** 
 127:Task/Task_BlackBox.c ****         Monitor.medium = BlackBoxInfo.medium;
 128:Task/Task_BlackBox.c ****         Monitor.log_type = BlackBoxInfo.log_type;
 129:Task/Task_BlackBox.c ****         Monitor.expection_log_size = BlackBoxInfo.log_size;
 130:Task/Task_BlackBox.c ****     }
 131:Task/Task_BlackBox.c **** 
 132:Task/Task_BlackBox.c ****     Monitor.write_thread_state = false;
 133:Task/Task_BlackBox.c ****     Storage.get_dev_info(&StorageDevInfo);
 134:Task/Task_BlackBox.c ****     BlackBoxDevInfo.phy_start_addr = BlackBox_Storage_Start_Addr;
 135:Task/Task_BlackBox.c ****     BlackBoxDevInfo.str_start_addr = StorageDevInfo.start_addr;
 136:Task/Task_BlackBox.c ****     BlackBoxDevInfo.total_str_size = StorageDevInfo.total_size;
 137:Task/Task_BlackBox.c ****     BlackBoxDevInfo.sector_size = StorageDevInfo.sector_size;
 138:Task/Task_BlackBox.c ****     switch ((uint8_t)Monitor.medium)
 139:Task/Task_BlackBox.c ****     {
 140:Task/Task_BlackBox.c ****         case BlackBox_Medium_Com:
 141:Task/Task_BlackBox.c ****             unit = SrvPort_BlackBox.init(TaskBlackBox_PushFinish_Callback, BlackBoxDevInfo);
 142:Task/Task_BlackBox.c ****             p_blackbox = &SrvPort_BlackBox;
 143:Task/Task_BlackBox.c ****             break;
 144:Task/Task_BlackBox.c **** 
ARM GAS  C:\Users\8bit\AppData\Local\Temp\cclQGHkl.s 			page 4


 145:Task/Task_BlackBox.c ****         case BlackBox_Medium_Chip:
 146:Task/Task_BlackBox.c ****             unit = SrvChip_BlackBox.init(TaskBlackBox_PushFinish_Callback, BlackBoxDevInfo);
 147:Task/Task_BlackBox.c ****             p_blackbox = &SrvChip_BlackBox;
 148:Task/Task_BlackBox.c ****             break;
 149:Task/Task_BlackBox.c **** 
 150:Task/Task_BlackBox.c ****         case BlackBox_Medium_Card:
 151:Task/Task_BlackBox.c ****             unit = SrvCard_BlackBox.init(TaskBlackBox_PushFinish_Callback, BlackBoxDevInfo);
 152:Task/Task_BlackBox.c ****             p_blackbox = &SrvCard_BlackBox;
 153:Task/Task_BlackBox.c ****             break;
 154:Task/Task_BlackBox.c **** 
 155:Task/Task_BlackBox.c ****         default: return;
 156:Task/Task_BlackBox.c ****     }
 157:Task/Task_BlackBox.c ****     
 158:Task/Task_BlackBox.c ****     if (unit == 0)
 159:Task/Task_BlackBox.c ****     {
 160:Task/Task_BlackBox.c ****         p_blackbox = NULL;
 161:Task/Task_BlackBox.c ****         return;
 162:Task/Task_BlackBox.c ****     }
 163:Task/Task_BlackBox.c **** 
 164:Task/Task_BlackBox.c ****     switch ((uint8_t) Monitor.log_type)
 165:Task/Task_BlackBox.c ****     {
 166:Task/Task_BlackBox.c ****         case BlackBox_Imu_Filted:
 167:Task/Task_BlackBox.c ****         case BlackBox_Log_Alt_Att:
 168:Task/Task_BlackBox.c ****         case BlackBox_AngularPID_Tune:
 169:Task/Task_BlackBox.c ****         case BlackBox_AttitudePID_Tune:
 170:Task/Task_BlackBox.c ****             break;
 171:Task/Task_BlackBox.c **** 
 172:Task/Task_BlackBox.c ****         case BlackBox_Log_None:
 173:Task/Task_BlackBox.c ****         default: return;
 174:Task/Task_BlackBox.c ****     }
 175:Task/Task_BlackBox.c **** 
 176:Task/Task_BlackBox.c ****     Monitor.p_log_buf = SrvOsCommon.malloc(unit);
 177:Task/Task_BlackBox.c ****     if (Monitor.p_log_buf == NULL)
 178:Task/Task_BlackBox.c ****     {
 179:Task/Task_BlackBox.c ****         SrvOsCommon.free(Monitor.p_log_buf);
 180:Task/Task_BlackBox.c ****         return;
 181:Task/Task_BlackBox.c ****     }
 182:Task/Task_BlackBox.c **** 
 183:Task/Task_BlackBox.c ****     Monitor.log_unit = unit;
 184:Task/Task_BlackBox.c ****     memset(&IMU_Log_DataPipe,      0, sizeof(DataPipeObj_TypeDef));
 185:Task/Task_BlackBox.c ****     memset(&Baro_Log_DataPipe,     0, sizeof(DataPipeObj_TypeDef));
 186:Task/Task_BlackBox.c ****     memset(&Attitude_Log_DataPipe, 0, sizeof(DataPipeObj_TypeDef));
 187:Task/Task_BlackBox.c ****     memset(&Altitude_Log_DataPipe, 0, sizeof(DataPipeObj_TypeDef));
 188:Task/Task_BlackBox.c ****     memset(&CtlData_Log_DataPipe,  0, sizeof(DataPipeObj_TypeDef));
 189:Task/Task_BlackBox.c **** 
 190:Task/Task_BlackBox.c ****     memset(DataPipe_DataObjAddr(LogImu_Data),  0, DataPipe_DataSize(LogImu_Data));
 191:Task/Task_BlackBox.c ****     memset(DataPipe_DataObjAddr(LogBaro_Data), 0, DataPipe_DataSize(LogBaro_Data));
 192:Task/Task_BlackBox.c ****     memset(DataPipe_DataObjAddr(LogAtt_Data),  0, DataPipe_DataSize(LogAtt_Data));
 193:Task/Task_BlackBox.c ****     memset(DataPipe_DataObjAddr(LogAlt_Data),  0, DataPipe_DataSize(LogAlt_Data));
 194:Task/Task_BlackBox.c ****     memset(DataPipe_DataObjAddr(LogCtl_Data),  0, DataPipe_DataSize(LogCtl_Data));
 195:Task/Task_BlackBox.c **** 
 196:Task/Task_BlackBox.c ****     if (!Queue.create_with_buf(&BlackBox_Queue, "BlackBox_Queue", BlackBox_Buff, BlackBox_Buff_Size
 197:Task/Task_BlackBox.c ****         return;
 198:Task/Task_BlackBox.c **** 
 199:Task/Task_BlackBox.c ****     osSemaphoreDef(Log);
 200:Task/Task_BlackBox.c ****     BlackBox_Sem = osSemaphoreCreate(osSemaphore(Log), 32);
 201:Task/Task_BlackBox.c **** 
ARM GAS  C:\Users\8bit\AppData\Local\Temp\cclQGHkl.s 			page 5


 202:Task/Task_BlackBox.c ****     if (BlackBox_Sem == 0)
 203:Task/Task_BlackBox.c ****         return;
 204:Task/Task_BlackBox.c **** 
 205:Task/Task_BlackBox.c ****     /* pipe object init */
 206:Task/Task_BlackBox.c ****     IMU_Log_DataPipe.data_addr = (uint32_t)DataPipe_DataObjAddr(LogImu_Data);
 207:Task/Task_BlackBox.c ****     IMU_Log_DataPipe.data_size = DataPipe_DataSize(LogImu_Data);
 208:Task/Task_BlackBox.c ****     IMU_Log_DataPipe.trans_finish_cb = (Pipe_TransFinish_Callback)TaskBlackBox_PipeTransFinish_Call
 209:Task/Task_BlackBox.c ****     
 210:Task/Task_BlackBox.c ****     Baro_Log_DataPipe.data_addr = (uint32_t)DataPipe_DataObjAddr(LogBaro_Data);
 211:Task/Task_BlackBox.c ****     Baro_Log_DataPipe.data_size = DataPipe_DataSize(LogBaro_Data);
 212:Task/Task_BlackBox.c ****     Baro_Log_DataPipe.trans_finish_cb = (Pipe_TransFinish_Callback)TaskBlackBox_PipeTransFinish_Cal
 213:Task/Task_BlackBox.c **** 
 214:Task/Task_BlackBox.c ****     CtlData_Log_DataPipe.data_addr = (uint32_t)DataPipe_DataObjAddr(LogCtl_Data);
 215:Task/Task_BlackBox.c ****     CtlData_Log_DataPipe.data_size = DataPipe_DataSize(LogCtl_Data);
 216:Task/Task_BlackBox.c ****     CtlData_Log_DataPipe.trans_finish_cb = (Pipe_TransFinish_Callback)TaskBlackBox_PipeTransFinish_
 217:Task/Task_BlackBox.c **** 
 218:Task/Task_BlackBox.c ****     Attitude_Log_DataPipe.data_addr = (uint32_t)DataPipe_DataObjAddr(LogAtt_Data);
 219:Task/Task_BlackBox.c ****     Attitude_Log_DataPipe.data_size = DataPipe_DataSize(LogAtt_Data);
 220:Task/Task_BlackBox.c ****     Attitude_Log_DataPipe.trans_finish_cb = (Pipe_TransFinish_Callback)TaskBlackBox_PipeTransFinish
 221:Task/Task_BlackBox.c **** 
 222:Task/Task_BlackBox.c ****     Altitude_Log_DataPipe.data_addr = (uint32_t)DataPipe_DataObjAddr(LogAlt_Data);
 223:Task/Task_BlackBox.c ****     Altitude_Log_DataPipe.data_size = DataPipe_DataSize(LogAlt_Data);
 224:Task/Task_BlackBox.c ****     Altitude_Log_DataPipe.trans_finish_cb = (Pipe_TransFinish_Callback)TaskBlackBox_PipeTransFinish
 225:Task/Task_BlackBox.c **** 
 226:Task/Task_BlackBox.c ****     DataPipe_Enable(&IMU_Log_DataPipe);
 227:Task/Task_BlackBox.c ****     DataPipe_Enable(&Baro_Log_DataPipe);
 228:Task/Task_BlackBox.c ****     DataPipe_Enable(&CtlData_Log_DataPipe);
 229:Task/Task_BlackBox.c ****     DataPipe_Enable(&Attitude_Log_DataPipe);
 230:Task/Task_BlackBox.c ****     DataPipe_Enable(&Altitude_Log_DataPipe);
 231:Task/Task_BlackBox.c **** 
 232:Task/Task_BlackBox.c ****     /* disable log first */
 233:Task/Task_BlackBox.c ****     Monitor.state = BlackBox_Log_Idle;
 234:Task/Task_BlackBox.c **** }
 235:Task/Task_BlackBox.c **** 
 236:Task/Task_BlackBox.c **** void TaskBlackBox_Core(void const *arg)
 237:Task/Task_BlackBox.c **** {
 238:Task/Task_BlackBox.c ****     Monitor.write_thread_state = true;
 239:Task/Task_BlackBox.c **** 
 240:Task/Task_BlackBox.c ****     while (true)
 241:Task/Task_BlackBox.c ****     {
 242:Task/Task_BlackBox.c ****         /* task create failed */
 243:Task/Task_BlackBox.c ****         if ((BlackBox_Sem == NULL) || (p_blackbox == NULL))
 244:Task/Task_BlackBox.c ****             vTaskDelete(NULL);
 245:Task/Task_BlackBox.c **** 
 246:Task/Task_BlackBox.c ****         osSemaphoreWait(BlackBox_Sem, osWaitForever);
 247:Task/Task_BlackBox.c ****         if ((Monitor.state == BlackBox_Log_Disable) && p_blackbox->disable && p_blackbox->disable(S
 248:Task/Task_BlackBox.c ****         {
 249:Task/Task_BlackBox.c ****             Monitor.state = BlackBox_Log_Idle;
 250:Task/Task_BlackBox.c ****             Queue.reset(&BlackBox_Queue);
 251:Task/Task_BlackBox.c ****         }
 252:Task/Task_BlackBox.c ****         else if (p_blackbox->push && Monitor.log_unit)
 253:Task/Task_BlackBox.c ****         {
 254:Task/Task_BlackBox.c ****             if(p_blackbox->push(Storage.write_section, Monitor.p_log_buf, Monitor.log_unit))
 255:Task/Task_BlackBox.c ****             {
 256:Task/Task_BlackBox.c ****                 Monitor.log_cnt ++;
 257:Task/Task_BlackBox.c ****                 Monitor.log_byte_size += Monitor.log_unit;
 258:Task/Task_BlackBox.c ****             }
ARM GAS  C:\Users\8bit\AppData\Local\Temp\cclQGHkl.s 			page 6


 259:Task/Task_BlackBox.c ****         }
 260:Task/Task_BlackBox.c ****     }
 261:Task/Task_BlackBox.c **** }
 262:Task/Task_BlackBox.c **** 
 263:Task/Task_BlackBox.c **** static uint8_t TaskBlackBox_Get_CheckSum(uint8_t *p_data, uint16_t len)
 264:Task/Task_BlackBox.c **** {
  29              		.loc 1 264 1 view -0
  30              		.cfi_startproc
  31              		@ args = 0, pretend = 0, frame = 0
  32              		@ frame_needed = 0, uses_anonymous_args = 0
  33              		@ link register save eliminated.
 265:Task/Task_BlackBox.c ****     uint8_t check_sum = 0;
  34              		.loc 1 265 5 view .LVU1
 266:Task/Task_BlackBox.c **** 
 267:Task/Task_BlackBox.c ****     if (p_data && len)
  35              		.loc 1 267 5 view .LVU2
  36              		.loc 1 267 8 is_stmt 0 view .LVU3
  37 0000 8446     		mov	ip, r0
  38 0002 70B1     		cbz	r0, .L5
  39              		.loc 1 267 16 discriminator 1 view .LVU4
  40 0004 51B9     		cbnz	r1, .L6
 265:Task/Task_BlackBox.c ****     uint8_t check_sum = 0;
  41              		.loc 1 265 13 view .LVU5
  42 0006 0020     		movs	r0, #0
  43              	.LVL1:
 265:Task/Task_BlackBox.c ****     uint8_t check_sum = 0;
  44              		.loc 1 265 13 view .LVU6
  45 0008 7047     		bx	lr
  46              	.LVL2:
  47              	.L4:
  48              	.LBB12:
 268:Task/Task_BlackBox.c ****         for (uint16_t i = 0; i < len; i++)
 269:Task/Task_BlackBox.c ****             check_sum += p_data[i];
  49              		.loc 1 269 13 is_stmt 1 discriminator 3 view .LVU7
  50              		.loc 1 269 32 is_stmt 0 discriminator 3 view .LVU8
  51 000a 1CF80320 		ldrb	r2, [ip, r3]	@ zero_extendqisi2
  52              		.loc 1 269 23 discriminator 3 view .LVU9
  53 000e 1044     		add	r0, r0, r2
  54              	.LVL3:
  55              		.loc 1 269 23 discriminator 3 view .LVU10
  56 0010 C0B2     		uxtb	r0, r0
  57              	.LVL4:
 268:Task/Task_BlackBox.c ****         for (uint16_t i = 0; i < len; i++)
  58              		.loc 1 268 39 is_stmt 1 discriminator 3 view .LVU11
 268:Task/Task_BlackBox.c ****         for (uint16_t i = 0; i < len; i++)
  59              		.loc 1 268 40 is_stmt 0 discriminator 3 view .LVU12
  60 0012 0133     		adds	r3, r3, #1
  61              	.LVL5:
 268:Task/Task_BlackBox.c ****         for (uint16_t i = 0; i < len; i++)
  62              		.loc 1 268 40 discriminator 3 view .LVU13
  63 0014 9BB2     		uxth	r3, r3
  64              	.LVL6:
  65              	.L3:
 268:Task/Task_BlackBox.c ****         for (uint16_t i = 0; i < len; i++)
  66              		.loc 1 268 30 is_stmt 1 discriminator 1 view .LVU14
 268:Task/Task_BlackBox.c ****         for (uint16_t i = 0; i < len; i++)
  67              		.loc 1 268 9 is_stmt 0 discriminator 1 view .LVU15
ARM GAS  C:\Users\8bit\AppData\Local\Temp\cclQGHkl.s 			page 7


  68 0016 8B42     		cmp	r3, r1
  69 0018 F7D3     		bcc	.L4
  70 001a 7047     		bx	lr
  71              	.LVL7:
  72              	.L6:
 268:Task/Task_BlackBox.c ****         for (uint16_t i = 0; i < len; i++)
  73              		.loc 1 268 23 view .LVU16
  74 001c 0023     		movs	r3, #0
  75              	.LBE12:
 265:Task/Task_BlackBox.c **** 
  76              		.loc 1 265 13 view .LVU17
  77 001e 1846     		mov	r0, r3
  78              	.LVL8:
 265:Task/Task_BlackBox.c **** 
  79              		.loc 1 265 13 view .LVU18
  80 0020 F9E7     		b	.L3
  81              	.LVL9:
  82              	.L5:
 265:Task/Task_BlackBox.c **** 
  83              		.loc 1 265 13 view .LVU19
  84 0022 0020     		movs	r0, #0
  85              	.LVL10:
 270:Task/Task_BlackBox.c **** 
 271:Task/Task_BlackBox.c ****     return check_sum;
  86              		.loc 1 271 5 is_stmt 1 view .LVU20
 272:Task/Task_BlackBox.c **** }
  87              		.loc 1 272 1 is_stmt 0 view .LVU21
  88 0024 7047     		bx	lr
  89              		.cfi_endproc
  90              	.LFE150:
  92              		.section	.text.TaskBlackBox_PushFinish_Callback,"ax",%progbits
  93              		.align	1
  94              		.syntax unified
  95              		.thumb
  96              		.thumb_func
  98              	TaskBlackBox_PushFinish_Callback:
  99              	.LFB151:
 273:Task/Task_BlackBox.c **** 
 274:Task/Task_BlackBox.c **** /* BlackBox Tansmit Finished Callback */
 275:Task/Task_BlackBox.c **** static void TaskBlackBox_PushFinish_Callback(void)
 276:Task/Task_BlackBox.c **** {
 100              		.loc 1 276 1 is_stmt 1 view -0
 101              		.cfi_startproc
 102              		@ args = 0, pretend = 0, frame = 0
 103              		@ frame_needed = 0, uses_anonymous_args = 0
 104              		@ link register save eliminated.
 277:Task/Task_BlackBox.c **** 
 278:Task/Task_BlackBox.c **** }
 105              		.loc 1 278 1 view .LVU23
 106 0000 7047     		bx	lr
 107              		.cfi_endproc
 108              	.LFE151:
 110              		.section	.text.TaskBlackBox_UpdateQueue,"ax",%progbits
 111              		.align	1
 112              		.syntax unified
 113              		.thumb
 114              		.thumb_func
ARM GAS  C:\Users\8bit\AppData\Local\Temp\cclQGHkl.s 			page 8


 116              	TaskBlackBox_UpdateQueue:
 117              	.LVL11:
 118              	.LFB152:
 279:Task/Task_BlackBox.c **** 
 280:Task/Task_BlackBox.c **** /* PIPE Callback */
 281:Task/Task_BlackBox.c **** static void TaskBlackBox_UpdateQueue(uint8_t *p_data, uint16_t size)
 282:Task/Task_BlackBox.c **** {
 119              		.loc 1 282 1 view -0
 120              		.cfi_startproc
 121              		@ args = 0, pretend = 0, frame = 0
 122              		@ frame_needed = 0, uses_anonymous_args = 0
 123              		.loc 1 282 1 is_stmt 0 view .LVU25
 124 0000 F0B5     		push	{r4, r5, r6, r7, lr}
 125              	.LCFI0:
 126              		.cfi_def_cfa_offset 20
 127              		.cfi_offset 4, -20
 128              		.cfi_offset 5, -16
 129              		.cfi_offset 6, -12
 130              		.cfi_offset 7, -8
 131              		.cfi_offset 14, -4
 132 0002 83B0     		sub	sp, sp, #12
 133              	.LCFI1:
 134              		.cfi_def_cfa_offset 32
 135 0004 0546     		mov	r5, r0
 136 0006 0C46     		mov	r4, r1
 283:Task/Task_BlackBox.c ****     uint32_t offset = 0;
 137              		.loc 1 283 5 is_stmt 1 view .LVU26
 138              	.LVL12:
 284:Task/Task_BlackBox.c ****     uint32_t Queue_remain = Queue.remain(BlackBox_Queue);
 139              		.loc 1 284 5 view .LVU27
 140              		.loc 1 284 34 is_stmt 0 view .LVU28
 141 0008 1C4B     		ldr	r3, .L14
 142 000a 5E68     		ldr	r6, [r3, #4]
 143              		.loc 1 284 29 view .LVU29
 144 000c 1C4B     		ldr	r3, .L14+4
 145 000e 1A7C     		ldrb	r2, [r3, #16]	@ zero_extendqisi2
 146 0010 8DF80020 		strb	r2, [sp]
 147 0014 0FCB     		ldm	r3, {r0, r1, r2, r3}
 148              	.LVL13:
 149              		.loc 1 284 29 view .LVU30
 150 0016 B047     		blx	r6
 151              	.LVL14:
 285:Task/Task_BlackBox.c ****     
 286:Task/Task_BlackBox.c ****     if (size > Queue_remain)
 152              		.loc 1 286 5 is_stmt 1 view .LVU31
 153              		.loc 1 286 8 is_stmt 0 view .LVU32
 154 0018 A042     		cmp	r0, r4
 155 001a 27D2     		bcs	.L9
 156 001c 0246     		mov	r2, r0
 157 001e 0646     		mov	r6, r0
 287:Task/Task_BlackBox.c ****     {
 288:Task/Task_BlackBox.c ****         offset = Queue_remain;
 158              		.loc 1 288 9 is_stmt 1 view .LVU33
 159              	.LVL15:
 289:Task/Task_BlackBox.c ****         Queue.push(&BlackBox_Queue, p_data, Queue_remain);
 160              		.loc 1 289 9 view .LVU34
 161              		.loc 1 289 14 is_stmt 0 view .LVU35
ARM GAS  C:\Users\8bit\AppData\Local\Temp\cclQGHkl.s 			page 9


 162 0020 164B     		ldr	r3, .L14
 163 0022 9B69     		ldr	r3, [r3, #24]
 164              		.loc 1 289 9 view .LVU36
 165 0024 2946     		mov	r1, r5
 166 0026 1648     		ldr	r0, .L14+4
 167              	.LVL16:
 168              		.loc 1 289 9 view .LVU37
 169 0028 9847     		blx	r3
 170              	.LVL17:
 171              	.L10:
 290:Task/Task_BlackBox.c ****     }
 291:Task/Task_BlackBox.c ****     else
 292:Task/Task_BlackBox.c ****         Queue.push(&BlackBox_Queue, p_data, size);
 293:Task/Task_BlackBox.c **** 
 294:Task/Task_BlackBox.c ****     if (Queue.size(BlackBox_Queue) >= Monitor.log_unit)
 172              		.loc 1 294 5 is_stmt 1 view .LVU38
 173              		.loc 1 294 14 is_stmt 0 view .LVU39
 174 002a 144B     		ldr	r3, .L14
 175 002c 1F68     		ldr	r7, [r3]
 176              		.loc 1 294 9 view .LVU40
 177 002e 144B     		ldr	r3, .L14+4
 178 0030 1A7C     		ldrb	r2, [r3, #16]	@ zero_extendqisi2
 179 0032 8DF80020 		strb	r2, [sp]
 180 0036 0FCB     		ldm	r3, {r0, r1, r2, r3}
 181 0038 B847     		blx	r7
 182              	.LVL18:
 183              		.loc 1 294 46 view .LVU41
 184 003a 124B     		ldr	r3, .L14+8
 185 003c 1A6D     		ldr	r2, [r3, #80]
 186              		.loc 1 294 8 view .LVU42
 187 003e 9042     		cmp	r0, r2
 188 0040 0AD3     		bcc	.L11
 295:Task/Task_BlackBox.c ****     {
 296:Task/Task_BlackBox.c ****         Queue.pop(&BlackBox_Queue, Monitor.p_log_buf, Monitor.log_unit);
 189              		.loc 1 296 9 is_stmt 1 view .LVU43
 190              		.loc 1 296 14 is_stmt 0 view .LVU44
 191 0042 0E4B     		ldr	r3, .L14
 192 0044 DB69     		ldr	r3, [r3, #28]
 193              		.loc 1 296 9 view .LVU45
 194 0046 92B2     		uxth	r2, r2
 195 0048 0E49     		ldr	r1, .L14+8
 196 004a 496D     		ldr	r1, [r1, #84]
 197 004c 0C48     		ldr	r0, .L14+4
 198 004e 9847     		blx	r3
 199              	.LVL19:
 297:Task/Task_BlackBox.c ****         osSemaphoreRelease(BlackBox_Sem);
 200              		.loc 1 297 9 is_stmt 1 view .LVU46
 201 0050 0D4B     		ldr	r3, .L14+12
 202 0052 1868     		ldr	r0, [r3]
 203 0054 FFF7FEFF 		bl	osSemaphoreRelease
 204              	.LVL20:
 205              	.L11:
 298:Task/Task_BlackBox.c ****     }
 299:Task/Task_BlackBox.c **** 
 300:Task/Task_BlackBox.c ****     if (offset)
 206              		.loc 1 300 5 view .LVU47
 207              		.loc 1 300 8 is_stmt 0 view .LVU48
ARM GAS  C:\Users\8bit\AppData\Local\Temp\cclQGHkl.s 			page 10


 208 0058 36B1     		cbz	r6, .L8
 301:Task/Task_BlackBox.c ****         Queue.push(&BlackBox_Queue, p_data + offset, size - offset);
 209              		.loc 1 301 9 is_stmt 1 view .LVU49
 210              		.loc 1 301 14 is_stmt 0 view .LVU50
 211 005a 084B     		ldr	r3, .L14
 212 005c 9B69     		ldr	r3, [r3, #24]
 213              		.loc 1 301 9 view .LVU51
 214 005e A21B     		subs	r2, r4, r6
 215 0060 92B2     		uxth	r2, r2
 216 0062 A919     		adds	r1, r5, r6
 217 0064 0648     		ldr	r0, .L14+4
 218 0066 9847     		blx	r3
 219              	.LVL21:
 220              	.L8:
 302:Task/Task_BlackBox.c **** }
 221              		.loc 1 302 1 view .LVU52
 222 0068 03B0     		add	sp, sp, #12
 223              	.LCFI2:
 224              		.cfi_remember_state
 225              		.cfi_def_cfa_offset 20
 226              		@ sp needed
 227 006a F0BD     		pop	{r4, r5, r6, r7, pc}
 228              	.LVL22:
 229              	.L9:
 230              	.LCFI3:
 231              		.cfi_restore_state
 292:Task/Task_BlackBox.c **** 
 232              		.loc 1 292 9 is_stmt 1 view .LVU53
 292:Task/Task_BlackBox.c **** 
 233              		.loc 1 292 14 is_stmt 0 view .LVU54
 234 006c 034B     		ldr	r3, .L14
 235 006e 9B69     		ldr	r3, [r3, #24]
 292:Task/Task_BlackBox.c **** 
 236              		.loc 1 292 9 view .LVU55
 237 0070 2246     		mov	r2, r4
 238 0072 2946     		mov	r1, r5
 239 0074 0248     		ldr	r0, .L14+4
 240              	.LVL23:
 292:Task/Task_BlackBox.c **** 
 241              		.loc 1 292 9 view .LVU56
 242 0076 9847     		blx	r3
 243              	.LVL24:
 283:Task/Task_BlackBox.c ****     uint32_t Queue_remain = Queue.remain(BlackBox_Queue);
 244              		.loc 1 283 14 view .LVU57
 245 0078 0026     		movs	r6, #0
 246 007a D6E7     		b	.L10
 247              	.L15:
 248              		.align	2
 249              	.L14:
 250 007c 00000000 		.word	Queue
 251 0080 00000000 		.word	.LANCHOR0
 252 0084 00000000 		.word	.LANCHOR1
 253 0088 00000000 		.word	.LANCHOR2
 254              		.cfi_endproc
 255              	.LFE152:
 257              		.section	.text.TaskBlackBox_PipeTransFinish_Callback,"ax",%progbits
 258              		.align	1
ARM GAS  C:\Users\8bit\AppData\Local\Temp\cclQGHkl.s 			page 11


 259              		.syntax unified
 260              		.thumb
 261              		.thumb_func
 263              	TaskBlackBox_PipeTransFinish_Callback:
 264              	.LVL25:
 265              	.LFB153:
 303:Task/Task_BlackBox.c **** 
 304:Task/Task_BlackBox.c **** static void TaskBlackBox_PipeTransFinish_Callback(DataPipeObj_TypeDef *obj)
 305:Task/Task_BlackBox.c **** {
 266              		.loc 1 305 1 is_stmt 1 view -0
 267              		.cfi_startproc
 268              		@ args = 0, pretend = 0, frame = 8
 269              		@ frame_needed = 0, uses_anonymous_args = 0
 270              		.loc 1 305 1 is_stmt 0 view .LVU59
 271 0000 2DE9F041 		push	{r4, r5, r6, r7, r8, lr}
 272              	.LCFI4:
 273              		.cfi_def_cfa_offset 24
 274              		.cfi_offset 4, -24
 275              		.cfi_offset 5, -20
 276              		.cfi_offset 6, -16
 277              		.cfi_offset 7, -12
 278              		.cfi_offset 8, -8
 279              		.cfi_offset 14, -4
 280 0004 82B0     		sub	sp, sp, #8
 281              	.LCFI5:
 282              		.cfi_def_cfa_offset 32
 306:Task/Task_BlackBox.c ****     static BlackBox_IMUData_TypeDef  imu_data;
 283              		.loc 1 306 5 is_stmt 1 view .LVU60
 307:Task/Task_BlackBox.c ****     static BlackBox_BaroData_TypeDef baro_data;
 284              		.loc 1 307 5 view .LVU61
 308:Task/Task_BlackBox.c ****     static BlackBox_AttAltData_TypeDef att_alt_data;
 285              		.loc 1 308 5 view .LVU62
 309:Task/Task_BlackBox.c ****     static BlackBox_AngCtlData_TypeDef ang_ctl_data;
 286              		.loc 1 309 5 view .LVU63
 310:Task/Task_BlackBox.c ****     static BlackBox_AttCtlData_TypeDef att_ctl_data;
 287              		.loc 1 310 5 view .LVU64
 311:Task/Task_BlackBox.c ****     static BlackBox_LogState_List lst_state;
 288              		.loc 1 311 5 view .LVU65
 312:Task/Task_BlackBox.c ****     static bool alt_update = false;
 289              		.loc 1 312 5 view .LVU66
 313:Task/Task_BlackBox.c ****     static bool att_update = false;
 290              		.loc 1 313 5 view .LVU67
 314:Task/Task_BlackBox.c ****     BlackBox_DataHeader_TypeDef blackbox_header;
 291              		.loc 1 314 5 view .LVU68
 315:Task/Task_BlackBox.c ****     BlackBox_DataEnder_TypeDef blackbox_ender;
 292              		.loc 1 315 5 view .LVU69
 316:Task/Task_BlackBox.c ****     uint8_t check_sum = 0;
 293              		.loc 1 316 5 view .LVU70
 294              	.LVL26:
 317:Task/Task_BlackBox.c ****     uint8_t i = 0;
 295              		.loc 1 317 5 view .LVU71
 318:Task/Task_BlackBox.c ****     bool imu_update = false;
 296              		.loc 1 318 5 view .LVU72
 319:Task/Task_BlackBox.c ****     bool ctl_update = false;
 297              		.loc 1 319 5 view .LVU73
 320:Task/Task_BlackBox.c **** 
 321:Task/Task_BlackBox.c ****     memset(&blackbox_header, 0, BLACKBOX_HEADER_SIZE);
ARM GAS  C:\Users\8bit\AppData\Local\Temp\cclQGHkl.s 			page 12


 298              		.loc 1 321 5 view .LVU74
 299 0006 0023     		movs	r3, #0
 300 0008 0193     		str	r3, [sp, #4]
 322:Task/Task_BlackBox.c ****     memset(&blackbox_ender,  0, BLACKBOX_ENDER_SIZE);
 301              		.loc 1 322 5 view .LVU75
 302 000a ADF80030 		strh	r3, [sp]	@ movhi
 303 000e 8DF80230 		strb	r3, [sp, #2]
 323:Task/Task_BlackBox.c **** 
 324:Task/Task_BlackBox.c ****     blackbox_header.header = BLACKBOX_LOG_HEADER;
 304              		.loc 1 324 5 view .LVU76
 305              		.loc 1 324 28 is_stmt 0 view .LVU77
 306 0012 4EF21E13 		movw	r3, #57630
 307 0016 ADF80430 		strh	r3, [sp, #4]	@ movhi
 325:Task/Task_BlackBox.c ****     blackbox_ender.ender   = BLACKBOX_LOG_ENDER;
 308              		.loc 1 325 5 is_stmt 1 view .LVU78
 309              		.loc 1 325 28 is_stmt 0 view .LVU79
 310 001a 2F23     		movs	r3, #47
 311 001c 8DF80130 		strb	r3, [sp, #1]
 312 0020 6FF00D03 		mvn	r3, #13
 313 0024 8DF80230 		strb	r3, [sp, #2]
 326:Task/Task_BlackBox.c **** 
 327:Task/Task_BlackBox.c ****     if ((Monitor.log_type == BlackBox_Log_None) || !Monitor.write_thread_state)
 314              		.loc 1 327 5 is_stmt 1 view .LVU80
 315              		.loc 1 327 17 is_stmt 0 view .LVU81
 316 0028 BA4B     		ldr	r3, .L47
 317 002a 93F84830 		ldrb	r3, [r3, #72]	@ zero_extendqisi2
 318              		.loc 1 327 8 view .LVU82
 319 002e 83B1     		cbz	r3, .L16
 320 0030 0246     		mov	r2, r0
 321              		.loc 1 327 60 discriminator 1 view .LVU83
 322 0032 B849     		ldr	r1, .L47
 323 0034 4978     		ldrb	r1, [r1, #1]	@ zero_extendqisi2
 324              		.loc 1 327 49 discriminator 1 view .LVU84
 325 0036 61B1     		cbz	r1, .L16
 328:Task/Task_BlackBox.c ****         return;
 329:Task/Task_BlackBox.c **** 
 330:Task/Task_BlackBox.c ****     if (lst_state == BlackBox_Log_Enable)
 326              		.loc 1 330 5 is_stmt 1 view .LVU85
 327              		.loc 1 330 19 is_stmt 0 view .LVU86
 328 0038 B748     		ldr	r0, .L47+4
 329              	.LVL27:
 330              		.loc 1 330 19 view .LVU87
 331 003a 0078     		ldrb	r0, [r0]	@ zero_extendqisi2
 332              		.loc 1 330 8 view .LVU88
 333 003c 0128     		cmp	r0, #1
 334 003e 0BD0     		beq	.L37
 331:Task/Task_BlackBox.c ****     {
 332:Task/Task_BlackBox.c ****         /* pipe data update */
 333:Task/Task_BlackBox.c ****         if (obj == &IMU_Log_DataPipe)
 334:Task/Task_BlackBox.c ****         {
 335:Task/Task_BlackBox.c ****             imu_data.acc_scale = DataPipe_DataObj(LogImu_Data).data.acc_scale;
 336:Task/Task_BlackBox.c ****             imu_data.gyr_scale = DataPipe_DataObj(LogImu_Data).data.gyr_scale;
 337:Task/Task_BlackBox.c ****             for (i = Axis_X; i < Axis_Sum; i++)
 338:Task/Task_BlackBox.c ****             {
 339:Task/Task_BlackBox.c ****                 imu_data.flt_gyr[i] = (int16_t)(DataPipe_DataObj(LogImu_Data).data.flt_gyr[i] * imu
 340:Task/Task_BlackBox.c ****                 imu_data.org_gyr[i] = (int16_t)(DataPipe_DataObj(LogImu_Data).data.org_gyr[i] * imu
 341:Task/Task_BlackBox.c ****             
ARM GAS  C:\Users\8bit\AppData\Local\Temp\cclQGHkl.s 			page 13


 342:Task/Task_BlackBox.c ****                 imu_data.flt_acc[i] = (int16_t)(DataPipe_DataObj(LogImu_Data).data.flt_acc[i] * imu
 343:Task/Task_BlackBox.c ****                 imu_data.org_acc[i] = (int16_t)(DataPipe_DataObj(LogImu_Data).data.org_acc[i] * imu
 344:Task/Task_BlackBox.c ****             }
 345:Task/Task_BlackBox.c ****             imu_data.time = DataPipe_DataObj(LogImu_Data).data.time_stamp;
 346:Task/Task_BlackBox.c ****             imu_data.cyc  = DataPipe_DataObj(LogImu_Data).data.cycle_cnt;
 347:Task/Task_BlackBox.c ****             imu_update = true;
 348:Task/Task_BlackBox.c ****         }
 349:Task/Task_BlackBox.c ****         else if (obj == &Baro_Log_DataPipe)
 350:Task/Task_BlackBox.c ****         {
 351:Task/Task_BlackBox.c ****             baro_data.time = DataPipe_DataObj(LogBaro_Data).data.time_stamp;
 352:Task/Task_BlackBox.c ****             baro_data.cyc = DataPipe_DataObj(LogBaro_Data).data.cyc;
 353:Task/Task_BlackBox.c ****             baro_data.press = DataPipe_DataObj(LogBaro_Data).data.pressure;
 354:Task/Task_BlackBox.c ****         }
 355:Task/Task_BlackBox.c ****         else if ((obj == &Attitude_Log_DataPipe) || (obj == &Altitude_Log_DataPipe))
 356:Task/Task_BlackBox.c ****         {
 357:Task/Task_BlackBox.c ****             /* set imu data */
 358:Task/Task_BlackBox.c ****             att_alt_data.gyr_scale = imu_data.gyr_scale;
 359:Task/Task_BlackBox.c ****             att_alt_data.acc_scale = imu_data.acc_scale;
 360:Task/Task_BlackBox.c ****             memcpy(att_alt_data.acc, imu_data.flt_acc, sizeof(imu_data.flt_acc));
 361:Task/Task_BlackBox.c ****             memcpy(att_alt_data.gyr, imu_data.flt_gyr, sizeof(imu_data.flt_gyr));
 362:Task/Task_BlackBox.c **** 
 363:Task/Task_BlackBox.c ****             /* set baro data */
 364:Task/Task_BlackBox.c ****             att_alt_data.baro = baro_data.press;
 365:Task/Task_BlackBox.c **** 
 366:Task/Task_BlackBox.c ****             /* log data when attitude update */
 367:Task/Task_BlackBox.c ****             if (obj == &Attitude_Log_DataPipe)
 368:Task/Task_BlackBox.c ****             {
 369:Task/Task_BlackBox.c ****                 /* set attitude */
 370:Task/Task_BlackBox.c ****                 att_alt_data.time = DataPipe_DataObj(LogAtt_Data).time_stamp;
 371:Task/Task_BlackBox.c ****                 att_alt_data.pitch = DataPipe_DataObj(LogAtt_Data).pitch;
 372:Task/Task_BlackBox.c ****                 att_alt_data.roll = DataPipe_DataObj(LogAtt_Data).roll;
 373:Task/Task_BlackBox.c ****                 att_alt_data.yaw = DataPipe_DataObj(LogAtt_Data).yaw;
 374:Task/Task_BlackBox.c ****                 att_update = true;
 375:Task/Task_BlackBox.c ****             }
 376:Task/Task_BlackBox.c ****             else if (obj == &Altitude_Log_DataPipe)
 377:Task/Task_BlackBox.c ****             {
 378:Task/Task_BlackBox.c ****                 /* set altitude */
 379:Task/Task_BlackBox.c ****                 att_alt_data.alt = DataPipe_DataObj(LogAlt_Data).alt;
 380:Task/Task_BlackBox.c ****                 alt_update = true;
 381:Task/Task_BlackBox.c ****             }
 382:Task/Task_BlackBox.c ****         }
 383:Task/Task_BlackBox.c ****         else if (obj == &CtlData_Log_DataPipe)
 384:Task/Task_BlackBox.c ****         {
 385:Task/Task_BlackBox.c ****             imu_data.throttle_percent = DataPipe_DataObj(LogCtl_Data).throttle_percent;
 386:Task/Task_BlackBox.c ****             baro_data.throttle_percent = DataPipe_DataObj(LogCtl_Data).throttle_percent;
 387:Task/Task_BlackBox.c **** 
 388:Task/Task_BlackBox.c ****             if (DataPipe_DataObj(LogCtl_Data).control_mode == Attitude_Control)
 389:Task/Task_BlackBox.c ****             {
 390:Task/Task_BlackBox.c ****                 att_ctl_data.time = DataPipe_DataObj(LogCtl_Data).time_stamp;
 391:Task/Task_BlackBox.c ****                 att_ctl_data.throttle_percent = DataPipe_DataObj(LogCtl_Data).throttle_percent;
 392:Task/Task_BlackBox.c ****                 att_ctl_data.exp_pitch = DataPipe_DataObj(LogCtl_Data).pitch;
 393:Task/Task_BlackBox.c ****                 att_ctl_data.exp_roll = DataPipe_DataObj(LogCtl_Data).roll;
 394:Task/Task_BlackBox.c ****                 att_ctl_data.exp_gyr_z = DataPipe_DataObj(LogCtl_Data).gyr_z;
 395:Task/Task_BlackBox.c ****                 att_ctl_data.pitch = att_alt_data.pitch;
 396:Task/Task_BlackBox.c ****                 att_ctl_data.roll = att_alt_data.roll;
 397:Task/Task_BlackBox.c ****                 att_ctl_data.gyr_z = imu_data.flt_gyr[Axis_Z];
 398:Task/Task_BlackBox.c ****             }
ARM GAS  C:\Users\8bit\AppData\Local\Temp\cclQGHkl.s 			page 14


 399:Task/Task_BlackBox.c ****             else
 400:Task/Task_BlackBox.c ****             {
 401:Task/Task_BlackBox.c ****                 ang_ctl_data.time = DataPipe_DataObj(LogCtl_Data).time_stamp;
 402:Task/Task_BlackBox.c ****                 ang_ctl_data.throttle_percent = DataPipe_DataObj(LogCtl_Data).throttle_percent;
 403:Task/Task_BlackBox.c ****                 ang_ctl_data.exp_gyr[Axis_X] = DataPipe_DataObj(LogCtl_Data).gyr_x;
 404:Task/Task_BlackBox.c ****                 ang_ctl_data.exp_gyr[Axis_Y] = DataPipe_DataObj(LogCtl_Data).gyr_y;
 405:Task/Task_BlackBox.c ****                 ang_ctl_data.exp_gyr[Axis_Z] = DataPipe_DataObj(LogCtl_Data).gyr_z;
 406:Task/Task_BlackBox.c ****                 ang_ctl_data.gyr[Axis_X] = imu_data.flt_gyr[Axis_X];
 407:Task/Task_BlackBox.c ****                 ang_ctl_data.gyr[Axis_Y] = imu_data.flt_gyr[Axis_Y];
 408:Task/Task_BlackBox.c ****                 ang_ctl_data.gyr[Axis_Z] = imu_data.flt_gyr[Axis_Z];
 409:Task/Task_BlackBox.c ****             }
 410:Task/Task_BlackBox.c **** 
 411:Task/Task_BlackBox.c ****             ctl_update = true;
 412:Task/Task_BlackBox.c ****         }
 413:Task/Task_BlackBox.c **** 
 414:Task/Task_BlackBox.c ****         /* blackbox log control */
 415:Task/Task_BlackBox.c ****         if ((Monitor.log_type == BlackBox_Imu_Filted) && imu_update)
 416:Task/Task_BlackBox.c ****         {
 417:Task/Task_BlackBox.c ****             /* log data when imu update */
 418:Task/Task_BlackBox.c ****             Monitor.imu_log.cnt ++;
 419:Task/Task_BlackBox.c ****             Monitor.imu_log.byte_size += BLACKBOX_HEADER_SIZE;
 420:Task/Task_BlackBox.c ****             blackbox_header.type = BlackBox_Imu_Filted;
 421:Task/Task_BlackBox.c ****             blackbox_header.size = sizeof(BlackBox_IMUData_TypeDef);
 422:Task/Task_BlackBox.c ****             TaskBlackBox_UpdateQueue((uint8_t *)&blackbox_header, BLACKBOX_HEADER_SIZE);
 423:Task/Task_BlackBox.c ****             
 424:Task/Task_BlackBox.c ****             TaskBlackBox_UpdateQueue((uint8_t *)&imu_data, sizeof(BlackBox_IMUData_TypeDef));
 425:Task/Task_BlackBox.c ****             Monitor.imu_log.byte_size += sizeof(BlackBox_IMUData_TypeDef);
 426:Task/Task_BlackBox.c **** 
 427:Task/Task_BlackBox.c ****             check_sum = TaskBlackBox_Get_CheckSum((uint8_t *)&imu_data, sizeof(BlackBox_IMUData_Typ
 428:Task/Task_BlackBox.c ****             blackbox_ender.check_sum = check_sum;
 429:Task/Task_BlackBox.c ****             Monitor.imu_log.byte_size += BLACKBOX_ENDER_SIZE;
 430:Task/Task_BlackBox.c ****             TaskBlackBox_UpdateQueue((uint8_t *)&blackbox_ender, BLACKBOX_ENDER_SIZE);
 431:Task/Task_BlackBox.c ****             imu_update = false;
 432:Task/Task_BlackBox.c ****         }
 433:Task/Task_BlackBox.c ****         else if ((Monitor.log_type == BlackBox_Log_Alt_Att) && (alt_update & att_update & imu_updat
 434:Task/Task_BlackBox.c ****         {
 435:Task/Task_BlackBox.c ****             Monitor.alt_att_log.cnt ++;
 436:Task/Task_BlackBox.c ****             Monitor.alt_att_log.byte_size += BLACKBOX_HEADER_SIZE;
 437:Task/Task_BlackBox.c ****             blackbox_header.type = BlackBox_Log_Alt_Att;
 438:Task/Task_BlackBox.c ****             blackbox_header.size = sizeof(BlackBox_AttAltData_TypeDef);
 439:Task/Task_BlackBox.c ****             TaskBlackBox_UpdateQueue((uint8_t *)&blackbox_header, BLACKBOX_HEADER_SIZE);
 440:Task/Task_BlackBox.c ****             
 441:Task/Task_BlackBox.c ****             TaskBlackBox_UpdateQueue((uint8_t *)&att_alt_data, sizeof(BlackBox_AttAltData_TypeDef))
 442:Task/Task_BlackBox.c ****             Monitor.alt_att_log.byte_size += sizeof(BlackBox_AttAltData_TypeDef);
 443:Task/Task_BlackBox.c **** 
 444:Task/Task_BlackBox.c ****             check_sum = TaskBlackBox_Get_CheckSum((uint8_t *)&att_alt_data, sizeof(BlackBox_AttAltD
 445:Task/Task_BlackBox.c ****             blackbox_ender.check_sum = check_sum;
 446:Task/Task_BlackBox.c ****             Monitor.imu_log.byte_size += BLACKBOX_ENDER_SIZE;
 447:Task/Task_BlackBox.c ****             TaskBlackBox_UpdateQueue((uint8_t *)&blackbox_ender, BLACKBOX_ENDER_SIZE);
 448:Task/Task_BlackBox.c ****             alt_update = false;
 449:Task/Task_BlackBox.c ****             att_update = false;
 450:Task/Task_BlackBox.c ****             imu_update = false;
 451:Task/Task_BlackBox.c ****         }
 452:Task/Task_BlackBox.c ****         else if ((Monitor.log_type == BlackBox_AngularPID_Tune) && (imu_update & ctl_update))
 453:Task/Task_BlackBox.c ****         {
 454:Task/Task_BlackBox.c ****             Monitor.ctl_ang_log.cnt ++;
 455:Task/Task_BlackBox.c ****             Monitor.ctl_ang_log.byte_size += BLACKBOX_HEADER_SIZE;
ARM GAS  C:\Users\8bit\AppData\Local\Temp\cclQGHkl.s 			page 15


 456:Task/Task_BlackBox.c ****             blackbox_header.type = BlackBox_AngularPID_Tune;
 457:Task/Task_BlackBox.c ****             blackbox_header.size = sizeof(BlackBox_AngCtlData_TypeDef);
 458:Task/Task_BlackBox.c ****             TaskBlackBox_UpdateQueue((uint8_t *)&blackbox_header, BLACKBOX_HEADER_SIZE);
 459:Task/Task_BlackBox.c **** 
 460:Task/Task_BlackBox.c ****             TaskBlackBox_UpdateQueue((uint8_t *)&ang_ctl_data, sizeof(BlackBox_AngCtlData_TypeDef))
 461:Task/Task_BlackBox.c ****             Monitor.ctl_ang_log.byte_size += sizeof(BlackBox_AngCtlData_TypeDef);
 462:Task/Task_BlackBox.c ****         
 463:Task/Task_BlackBox.c ****             check_sum = TaskBlackBox_Get_CheckSum((uint8_t *)&ang_ctl_data, sizeof(BlackBox_AngCtlD
 464:Task/Task_BlackBox.c ****             blackbox_ender.check_sum = check_sum;
 465:Task/Task_BlackBox.c ****             Monitor.ctl_ang_log.byte_size += BLACKBOX_ENDER_SIZE;
 466:Task/Task_BlackBox.c ****             TaskBlackBox_UpdateQueue((uint8_t *)&blackbox_ender, BLACKBOX_ENDER_SIZE);
 467:Task/Task_BlackBox.c ****             imu_update = false;
 468:Task/Task_BlackBox.c ****             ctl_update = false;
 469:Task/Task_BlackBox.c ****         }
 470:Task/Task_BlackBox.c ****         else if ((Monitor.log_type == BlackBox_AttitudePID_Tune) && (imu_update & ctl_update & att_
 471:Task/Task_BlackBox.c ****         {
 472:Task/Task_BlackBox.c ****             Monitor.ctl_att_log.cnt ++;
 473:Task/Task_BlackBox.c ****             Monitor.ctl_att_log.byte_size += BLACKBOX_HEADER_SIZE;
 474:Task/Task_BlackBox.c ****             blackbox_header.type = BlackBox_AttitudePID_Tune;
 475:Task/Task_BlackBox.c ****             blackbox_header.size = sizeof(BlackBox_AttCtlData_TypeDef);
 476:Task/Task_BlackBox.c ****             TaskBlackBox_UpdateQueue((uint8_t *)&blackbox_header, BLACKBOX_HEADER_SIZE);
 477:Task/Task_BlackBox.c **** 
 478:Task/Task_BlackBox.c ****             TaskBlackBox_UpdateQueue((uint8_t *)&att_ctl_data, sizeof(BlackBox_AttCtlData_TypeDef))
 479:Task/Task_BlackBox.c ****             Monitor.ctl_att_log.byte_size += sizeof(BlackBox_AttCtlData_TypeDef);
 480:Task/Task_BlackBox.c **** 
 481:Task/Task_BlackBox.c ****             check_sum = TaskBlackBox_Get_CheckSum((uint8_t *)&att_ctl_data, sizeof(BlackBox_AttCtlD
 482:Task/Task_BlackBox.c ****             blackbox_ender.check_sum = check_sum;
 483:Task/Task_BlackBox.c ****             Monitor.ctl_att_log.byte_size += BLACKBOX_ENDER_SIZE;
 484:Task/Task_BlackBox.c ****             TaskBlackBox_UpdateQueue((uint8_t *)&blackbox_ender, BLACKBOX_ENDER_SIZE);
 485:Task/Task_BlackBox.c ****             imu_update = false;
 486:Task/Task_BlackBox.c ****             ctl_update = false;
 487:Task/Task_BlackBox.c ****             att_update = false;
 488:Task/Task_BlackBox.c ****         }
 489:Task/Task_BlackBox.c ****         /* use minilzo compress data if have to */
 490:Task/Task_BlackBox.c ****     }
 491:Task/Task_BlackBox.c ****     else
 492:Task/Task_BlackBox.c ****     {
 493:Task/Task_BlackBox.c ****         /* log disable */
 494:Task/Task_BlackBox.c ****         if (Monitor.state == BlackBox_Log_Disable)
 335              		.loc 1 494 9 is_stmt 1 view .LVU89
 336              		.loc 1 494 20 is_stmt 0 view .LVU90
 337 0040 B44B     		ldr	r3, .L47
 338 0042 1B78     		ldrb	r3, [r3]	@ zero_extendqisi2
 339              		.loc 1 494 12 view .LVU91
 340 0044 022B     		cmp	r3, #2
 341 0046 00F01282 		beq	.L38
 342              	.LVL28:
 343              	.L31:
 495:Task/Task_BlackBox.c ****             osSemaphoreRelease(BlackBox_Sem);
 496:Task/Task_BlackBox.c ****     }
 497:Task/Task_BlackBox.c **** 
 498:Task/Task_BlackBox.c ****     lst_state = Monitor.state;
 344              		.loc 1 498 5 is_stmt 1 discriminator 1 view .LVU92
 345              		.loc 1 498 24 is_stmt 0 discriminator 1 view .LVU93
 346 004a B24B     		ldr	r3, .L47
 347 004c 1A78     		ldrb	r2, [r3]	@ zero_extendqisi2
 348              		.loc 1 498 15 discriminator 1 view .LVU94
ARM GAS  C:\Users\8bit\AppData\Local\Temp\cclQGHkl.s 			page 16


 349 004e B24B     		ldr	r3, .L47+4
 350 0050 1A70     		strb	r2, [r3]
 351              	.L16:
 499:Task/Task_BlackBox.c **** }
 352              		.loc 1 499 1 view .LVU95
 353 0052 02B0     		add	sp, sp, #8
 354              	.LCFI6:
 355              		.cfi_remember_state
 356              		.cfi_def_cfa_offset 24
 357              		@ sp needed
 358 0054 BDE8F081 		pop	{r4, r5, r6, r7, r8, pc}
 359              	.LVL29:
 360              	.L37:
 361              	.LCFI7:
 362              		.cfi_restore_state
 333:Task/Task_BlackBox.c ****         {
 363              		.loc 1 333 9 is_stmt 1 view .LVU96
 333:Task/Task_BlackBox.c ****         {
 364              		.loc 1 333 12 is_stmt 0 view .LVU97
 365 0058 B048     		ldr	r0, .L47+8
 366 005a 8242     		cmp	r2, r0
 367 005c 12D0     		beq	.L39
 349:Task/Task_BlackBox.c ****         {
 368              		.loc 1 349 14 is_stmt 1 view .LVU98
 349:Task/Task_BlackBox.c ****         {
 369              		.loc 1 349 17 is_stmt 0 view .LVU99
 370 005e B048     		ldr	r0, .L47+12
 371 0060 8242     		cmp	r2, r0
 372 0062 00F0A980 		beq	.L40
 355:Task/Task_BlackBox.c ****         {
 373              		.loc 1 355 14 is_stmt 1 view .LVU100
 355:Task/Task_BlackBox.c ****         {
 374              		.loc 1 355 17 is_stmt 0 view .LVU101
 375 0066 AF48     		ldr	r0, .L47+16
 376 0068 8242     		cmp	r2, r0
 377 006a 00F0B180 		beq	.L26
 355:Task/Task_BlackBox.c ****         {
 378              		.loc 1 355 50 discriminator 1 view .LVU102
 379 006e AE48     		ldr	r0, .L47+20
 380 0070 8242     		cmp	r2, r0
 381 0072 00F0AD80 		beq	.L26
 383:Task/Task_BlackBox.c ****         {
 382              		.loc 1 383 14 is_stmt 1 view .LVU103
 383:Task/Task_BlackBox.c ****         {
 383              		.loc 1 383 17 is_stmt 0 view .LVU104
 384 0076 AD48     		ldr	r0, .L47+24
 385 0078 8242     		cmp	r2, r0
 386 007a 00F0E580 		beq	.L41
 319:Task/Task_BlackBox.c **** 
 387              		.loc 1 319 10 view .LVU105
 388 007e 0022     		movs	r2, #0
 389              	.LVL30:
 318:Task/Task_BlackBox.c ****     bool ctl_update = false;
 390              		.loc 1 318 10 view .LVU106
 391 0080 1146     		mov	r1, r2
 392 0082 5CE0     		b	.L24
 393              	.LVL31:
ARM GAS  C:\Users\8bit\AppData\Local\Temp\cclQGHkl.s 			page 17


 394              	.L39:
 335:Task/Task_BlackBox.c ****             imu_data.gyr_scale = DataPipe_DataObj(LogImu_Data).data.gyr_scale;
 395              		.loc 1 335 13 is_stmt 1 view .LVU107
 335:Task/Task_BlackBox.c ****             imu_data.gyr_scale = DataPipe_DataObj(LogImu_Data).data.gyr_scale;
 396              		.loc 1 335 68 is_stmt 0 view .LVU108
 397 0084 AA48     		ldr	r0, .L47+28
 398 0086 D0ED126A 		vldr.32	s13, [r0, #72]
 335:Task/Task_BlackBox.c ****             imu_data.gyr_scale = DataPipe_DataObj(LogImu_Data).data.gyr_scale;
 399              		.loc 1 335 32 view .LVU109
 400 008a AA4A     		ldr	r2, .L47+32
 401              	.LVL32:
 335:Task/Task_BlackBox.c ****             imu_data.gyr_scale = DataPipe_DataObj(LogImu_Data).data.gyr_scale;
 402              		.loc 1 335 32 view .LVU110
 403 008c 16EE904A 		vmov	r4, s13
 404 0090 C2F80540 		str	r4, [r2, #5]	@ unaligned
 336:Task/Task_BlackBox.c ****             for (i = Axis_X; i < Axis_Sum; i++)
 405              		.loc 1 336 13 is_stmt 1 view .LVU111
 336:Task/Task_BlackBox.c ****             for (i = Axis_X; i < Axis_Sum; i++)
 406              		.loc 1 336 68 is_stmt 0 view .LVU112
 407 0094 90ED137A 		vldr.32	s14, [r0, #76]
 336:Task/Task_BlackBox.c ****             for (i = Axis_X; i < Axis_Sum; i++)
 408              		.loc 1 336 32 view .LVU113
 409 0098 17EE100A 		vmov	r0, s14
 410 009c C2F80900 		str	r0, [r2, #9]	@ unaligned
 337:Task/Task_BlackBox.c ****             {
 411              		.loc 1 337 13 is_stmt 1 view .LVU114
 337:Task/Task_BlackBox.c ****             {
 412              		.loc 1 337 20 is_stmt 0 view .LVU115
 413 00a0 0022     		movs	r2, #0
 337:Task/Task_BlackBox.c ****             {
 414              		.loc 1 337 13 view .LVU116
 415 00a2 43E0     		b	.L22
 416              	.LVL33:
 417              	.L23:
 339:Task/Task_BlackBox.c ****                 imu_data.org_gyr[i] = (int16_t)(DataPipe_DataObj(LogImu_Data).data.org_gyr[i] * imu
 418              		.loc 1 339 17 is_stmt 1 discriminator 3 view .LVU117
 339:Task/Task_BlackBox.c ****                 imu_data.org_gyr[i] = (int16_t)(DataPipe_DataObj(LogImu_Data).data.org_gyr[i] * imu
 419              		.loc 1 339 91 is_stmt 0 discriminator 3 view .LVU118
 420 00a4 A248     		ldr	r0, .L47+28
 421 00a6 02F1040E 		add	lr, r2, #4
 422 00aa 00EB8E04 		add	r4, r0, lr, lsl #2
 423 00ae D4ED007A 		vldr.32	s15, [r4]
 339:Task/Task_BlackBox.c ****                 imu_data.org_gyr[i] = (int16_t)(DataPipe_DataObj(LogImu_Data).data.org_gyr[i] * imu
 424              		.loc 1 339 95 discriminator 3 view .LVU119
 425 00b2 67EE277A 		vmul.f32	s15, s14, s15
 339:Task/Task_BlackBox.c ****                 imu_data.org_gyr[i] = (int16_t)(DataPipe_DataObj(LogImu_Data).data.org_gyr[i] * imu
 426              		.loc 1 339 39 discriminator 3 view .LVU120
 427 00b6 FDEEE77A 		vcvt.s32.f32	s15, s15
 339:Task/Task_BlackBox.c ****                 imu_data.org_gyr[i] = (int16_t)(DataPipe_DataObj(LogImu_Data).data.org_gyr[i] * imu
 428              		.loc 1 339 37 discriminator 3 view .LVU121
 429 00ba 9E4C     		ldr	r4, .L47+32
 430 00bc 02F10C05 		add	r5, r2, #12
 431 00c0 04EB4506 		add	r6, r4, r5, lsl #1
 432 00c4 17EE907A 		vmov	r7, s15	@ int
 433 00c8 A6F80770 		strh	r7, [r6, #7]	@ unaligned
 340:Task/Task_BlackBox.c ****             
 434              		.loc 1 340 17 is_stmt 1 discriminator 3 view .LVU122
ARM GAS  C:\Users\8bit\AppData\Local\Temp\cclQGHkl.s 			page 18


 340:Task/Task_BlackBox.c ****             
 435              		.loc 1 340 91 is_stmt 0 discriminator 3 view .LVU123
 436 00cc 02F10A0C 		add	ip, r2, #10
 437 00d0 00EB8C0C 		add	ip, r0, ip, lsl #2
 438 00d4 DCED007A 		vldr.32	s15, [ip]
 340:Task/Task_BlackBox.c ****             
 439              		.loc 1 340 95 discriminator 3 view .LVU124
 440 00d8 67EE277A 		vmul.f32	s15, s14, s15
 340:Task/Task_BlackBox.c ****             
 441              		.loc 1 340 39 discriminator 3 view .LVU125
 442 00dc FDEEE77A 		vcvt.s32.f32	s15, s15
 340:Task/Task_BlackBox.c ****             
 443              		.loc 1 340 37 discriminator 3 view .LVU126
 444 00e0 02F1080C 		add	ip, r2, #8
 445 00e4 04EB4C0C 		add	ip, r4, ip, lsl #1
 446 00e8 17EE907A 		vmov	r7, s15	@ int
 447 00ec ACF80370 		strh	r7, [ip, #3]	@ unaligned
 342:Task/Task_BlackBox.c ****                 imu_data.org_acc[i] = (int16_t)(DataPipe_DataObj(LogImu_Data).data.org_acc[i] * imu
 448              		.loc 1 342 17 is_stmt 1 discriminator 3 view .LVU127
 342:Task/Task_BlackBox.c ****                 imu_data.org_acc[i] = (int16_t)(DataPipe_DataObj(LogImu_Data).data.org_acc[i] * imu
 449              		.loc 1 342 91 is_stmt 0 discriminator 3 view .LVU128
 450 00f0 02F1060C 		add	ip, r2, #6
 451 00f4 00EB8C0C 		add	ip, r0, ip, lsl #2
 452 00f8 DCED017A 		vldr.32	s15, [ip, #4]
 342:Task/Task_BlackBox.c ****                 imu_data.org_acc[i] = (int16_t)(DataPipe_DataObj(LogImu_Data).data.org_acc[i] * imu
 453              		.loc 1 342 95 discriminator 3 view .LVU129
 454 00fc 66EEA77A 		vmul.f32	s15, s13, s15
 342:Task/Task_BlackBox.c ****                 imu_data.org_acc[i] = (int16_t)(DataPipe_DataObj(LogImu_Data).data.org_acc[i] * imu
 455              		.loc 1 342 39 discriminator 3 view .LVU130
 456 0100 FDEEE77A 		vcvt.s32.f32	s15, s15
 342:Task/Task_BlackBox.c ****                 imu_data.org_acc[i] = (int16_t)(DataPipe_DataObj(LogImu_Data).data.org_acc[i] * imu
 457              		.loc 1 342 37 discriminator 3 view .LVU131
 458 0104 17EE907A 		vmov	r7, s15	@ int
 459 0108 A6F80170 		strh	r7, [r6, #1]	@ unaligned
 343:Task/Task_BlackBox.c ****             }
 460              		.loc 1 343 17 is_stmt 1 discriminator 3 view .LVU132
 343:Task/Task_BlackBox.c ****             }
 461              		.loc 1 343 91 is_stmt 0 discriminator 3 view .LVU133
 462 010c 00EB8500 		add	r0, r0, r5, lsl #2
 463 0110 D0ED017A 		vldr.32	s15, [r0, #4]
 343:Task/Task_BlackBox.c ****             }
 464              		.loc 1 343 95 discriminator 3 view .LVU134
 465 0114 66EEA77A 		vmul.f32	s15, s13, s15
 343:Task/Task_BlackBox.c ****             }
 466              		.loc 1 343 39 discriminator 3 view .LVU135
 467 0118 FDEEE77A 		vcvt.s32.f32	s15, s15
 343:Task/Task_BlackBox.c ****             }
 468              		.loc 1 343 37 discriminator 3 view .LVU136
 469 011c 04EB4E04 		add	r4, r4, lr, lsl #1
 470 0120 17EE900A 		vmov	r0, s15	@ int
 471 0124 A4F80500 		strh	r0, [r4, #5]	@ unaligned
 337:Task/Task_BlackBox.c ****             {
 472              		.loc 1 337 44 is_stmt 1 discriminator 3 view .LVU137
 337:Task/Task_BlackBox.c ****             {
 473              		.loc 1 337 45 is_stmt 0 discriminator 3 view .LVU138
 474 0128 0132     		adds	r2, r2, #1
 475              	.LVL34:
ARM GAS  C:\Users\8bit\AppData\Local\Temp\cclQGHkl.s 			page 19


 337:Task/Task_BlackBox.c ****             {
 476              		.loc 1 337 45 discriminator 3 view .LVU139
 477 012a D2B2     		uxtb	r2, r2
 478              	.LVL35:
 479              	.L22:
 337:Task/Task_BlackBox.c ****             {
 480              		.loc 1 337 30 is_stmt 1 discriminator 1 view .LVU140
 337:Task/Task_BlackBox.c ****             {
 481              		.loc 1 337 13 is_stmt 0 discriminator 1 view .LVU141
 482 012c 022A     		cmp	r2, #2
 483 012e B9D9     		bls	.L23
 345:Task/Task_BlackBox.c ****             imu_data.cyc  = DataPipe_DataObj(LogImu_Data).data.cycle_cnt;
 484              		.loc 1 345 13 is_stmt 1 view .LVU142
 345:Task/Task_BlackBox.c ****             imu_data.cyc  = DataPipe_DataObj(LogImu_Data).data.cycle_cnt;
 485              		.loc 1 345 63 is_stmt 0 view .LVU143
 486 0130 7F48     		ldr	r0, .L47+28
 487 0132 0468     		ldr	r4, [r0]
 345:Task/Task_BlackBox.c ****             imu_data.cyc  = DataPipe_DataObj(LogImu_Data).data.cycle_cnt;
 488              		.loc 1 345 27 view .LVU144
 489 0134 7F4A     		ldr	r2, .L47+32
 490              	.LVL36:
 345:Task/Task_BlackBox.c ****             imu_data.cyc  = DataPipe_DataObj(LogImu_Data).data.cycle_cnt;
 491              		.loc 1 345 27 view .LVU145
 492 0136 1460     		str	r4, [r2]
 346:Task/Task_BlackBox.c ****             imu_update = true;
 493              		.loc 1 346 13 is_stmt 1 view .LVU146
 346:Task/Task_BlackBox.c ****             imu_update = true;
 494              		.loc 1 346 63 is_stmt 0 view .LVU147
 495 0138 4068     		ldr	r0, [r0, #4]
 346:Task/Task_BlackBox.c ****             imu_update = true;
 496              		.loc 1 346 27 view .LVU148
 497 013a 1071     		strb	r0, [r2, #4]
 347:Task/Task_BlackBox.c ****         }
 498              		.loc 1 347 13 is_stmt 1 view .LVU149
 499              	.LVL37:
 319:Task/Task_BlackBox.c **** 
 500              		.loc 1 319 10 is_stmt 0 view .LVU150
 501 013c 0022     		movs	r2, #0
 502              	.LVL38:
 503              	.L24:
 415:Task/Task_BlackBox.c ****         {
 504              		.loc 1 415 9 is_stmt 1 view .LVU151
 415:Task/Task_BlackBox.c ****         {
 505              		.loc 1 415 12 is_stmt 0 view .LVU152
 506 013e 012B     		cmp	r3, #1
 507 0140 00F00681 		beq	.L42
 508              	.L30:
 433:Task/Task_BlackBox.c ****         {
 509              		.loc 1 433 14 is_stmt 1 view .LVU153
 433:Task/Task_BlackBox.c ****         {
 510              		.loc 1 433 17 is_stmt 0 view .LVU154
 511 0144 022B     		cmp	r3, #2
 512 0146 00F02D81 		beq	.L43
 513              	.L32:
 452:Task/Task_BlackBox.c ****         {
 514              		.loc 1 452 14 is_stmt 1 view .LVU155
 452:Task/Task_BlackBox.c ****         {
ARM GAS  C:\Users\8bit\AppData\Local\Temp\cclQGHkl.s 			page 20


 515              		.loc 1 452 17 is_stmt 0 view .LVU156
 516 014a 032B     		cmp	r3, #3
 517 014c 00F06181 		beq	.L44
 518              	.L33:
 470:Task/Task_BlackBox.c ****         {
 519              		.loc 1 470 14 is_stmt 1 view .LVU157
 470:Task/Task_BlackBox.c ****         {
 520              		.loc 1 470 17 is_stmt 0 view .LVU158
 521 0150 042B     		cmp	r3, #4
 522 0152 7FF47AAF 		bne	.L31
 470:Task/Task_BlackBox.c ****         {
 523              		.loc 1 470 94 discriminator 1 view .LVU159
 524 0156 784B     		ldr	r3, .L47+36
 525 0158 1B78     		ldrb	r3, [r3]	@ zero_extendqisi2
 470:Task/Task_BlackBox.c ****         {
 526              		.loc 1 470 66 discriminator 1 view .LVU160
 527 015a 1142     		tst	r1, r2
 528 015c 3FF475AF 		beq	.L31
 529 0160 002B     		cmp	r3, #0
 530 0162 3FF472AF 		beq	.L31
 472:Task/Task_BlackBox.c ****             Monitor.ctl_att_log.byte_size += BLACKBOX_HEADER_SIZE;
 531              		.loc 1 472 13 is_stmt 1 view .LVU161
 472:Task/Task_BlackBox.c ****             Monitor.ctl_att_log.byte_size += BLACKBOX_HEADER_SIZE;
 532              		.loc 1 472 32 is_stmt 0 view .LVU162
 533 0166 6B4C     		ldr	r4, .L47
 534 0168 A36F     		ldr	r3, [r4, #120]
 472:Task/Task_BlackBox.c ****             Monitor.ctl_att_log.byte_size += BLACKBOX_HEADER_SIZE;
 535              		.loc 1 472 37 view .LVU163
 536 016a 0133     		adds	r3, r3, #1
 537 016c A367     		str	r3, [r4, #120]
 473:Task/Task_BlackBox.c ****             blackbox_header.type = BlackBox_AttitudePID_Tune;
 538              		.loc 1 473 13 is_stmt 1 view .LVU164
 473:Task/Task_BlackBox.c ****             blackbox_header.type = BlackBox_AttitudePID_Tune;
 539              		.loc 1 473 43 is_stmt 0 view .LVU165
 540 016e E36F     		ldr	r3, [r4, #124]
 541 0170 0433     		adds	r3, r3, #4
 542 0172 E367     		str	r3, [r4, #124]
 474:Task/Task_BlackBox.c ****             blackbox_header.size = sizeof(BlackBox_AttCtlData_TypeDef);
 543              		.loc 1 474 13 is_stmt 1 view .LVU166
 474:Task/Task_BlackBox.c ****             blackbox_header.size = sizeof(BlackBox_AttCtlData_TypeDef);
 544              		.loc 1 474 34 is_stmt 0 view .LVU167
 545 0174 0421     		movs	r1, #4
 546              	.LVL39:
 474:Task/Task_BlackBox.c ****             blackbox_header.size = sizeof(BlackBox_AttCtlData_TypeDef);
 547              		.loc 1 474 34 view .LVU168
 548 0176 8DF80610 		strb	r1, [sp, #6]
 475:Task/Task_BlackBox.c ****             TaskBlackBox_UpdateQueue((uint8_t *)&blackbox_header, BLACKBOX_HEADER_SIZE);
 549              		.loc 1 475 13 is_stmt 1 view .LVU169
 475:Task/Task_BlackBox.c ****             TaskBlackBox_UpdateQueue((uint8_t *)&blackbox_header, BLACKBOX_HEADER_SIZE);
 550              		.loc 1 475 34 is_stmt 0 view .LVU170
 551 017a 1D26     		movs	r6, #29
 552 017c 8DF80760 		strb	r6, [sp, #7]
 476:Task/Task_BlackBox.c **** 
 553              		.loc 1 476 13 is_stmt 1 view .LVU171
 554 0180 0DEB0100 		add	r0, sp, r1
 555 0184 FFF7FEFF 		bl	TaskBlackBox_UpdateQueue
 556              	.LVL40:
ARM GAS  C:\Users\8bit\AppData\Local\Temp\cclQGHkl.s 			page 21


 478:Task/Task_BlackBox.c ****             Monitor.ctl_att_log.byte_size += sizeof(BlackBox_AttCtlData_TypeDef);
 557              		.loc 1 478 13 view .LVU172
 558 0188 6C4F     		ldr	r7, .L47+40
 559 018a 3146     		mov	r1, r6
 560 018c 3846     		mov	r0, r7
 561 018e FFF7FEFF 		bl	TaskBlackBox_UpdateQueue
 562              	.LVL41:
 479:Task/Task_BlackBox.c **** 
 563              		.loc 1 479 13 view .LVU173
 479:Task/Task_BlackBox.c **** 
 564              		.loc 1 479 43 is_stmt 0 view .LVU174
 565 0192 E56F     		ldr	r5, [r4, #124]
 566 0194 AB19     		adds	r3, r5, r6
 567 0196 E367     		str	r3, [r4, #124]
 481:Task/Task_BlackBox.c ****             blackbox_ender.check_sum = check_sum;
 568              		.loc 1 481 13 is_stmt 1 view .LVU175
 481:Task/Task_BlackBox.c ****             blackbox_ender.check_sum = check_sum;
 569              		.loc 1 481 25 is_stmt 0 view .LVU176
 570 0198 3146     		mov	r1, r6
 571 019a 3846     		mov	r0, r7
 572 019c FFF7FEFF 		bl	TaskBlackBox_Get_CheckSum
 573              	.LVL42:
 482:Task/Task_BlackBox.c ****             Monitor.ctl_att_log.byte_size += BLACKBOX_ENDER_SIZE;
 574              		.loc 1 482 13 is_stmt 1 view .LVU177
 482:Task/Task_BlackBox.c ****             Monitor.ctl_att_log.byte_size += BLACKBOX_ENDER_SIZE;
 575              		.loc 1 482 38 is_stmt 0 view .LVU178
 576 01a0 8DF80000 		strb	r0, [sp]
 483:Task/Task_BlackBox.c ****             TaskBlackBox_UpdateQueue((uint8_t *)&blackbox_ender, BLACKBOX_ENDER_SIZE);
 577              		.loc 1 483 13 is_stmt 1 view .LVU179
 483:Task/Task_BlackBox.c ****             TaskBlackBox_UpdateQueue((uint8_t *)&blackbox_ender, BLACKBOX_ENDER_SIZE);
 578              		.loc 1 483 43 is_stmt 0 view .LVU180
 579 01a4 2035     		adds	r5, r5, #32
 580 01a6 E567     		str	r5, [r4, #124]
 484:Task/Task_BlackBox.c ****             imu_update = false;
 581              		.loc 1 484 13 is_stmt 1 view .LVU181
 582 01a8 0321     		movs	r1, #3
 583 01aa 6846     		mov	r0, sp
 584              	.LVL43:
 484:Task/Task_BlackBox.c ****             imu_update = false;
 585              		.loc 1 484 13 is_stmt 0 view .LVU182
 586 01ac FFF7FEFF 		bl	TaskBlackBox_UpdateQueue
 587              	.LVL44:
 485:Task/Task_BlackBox.c ****             ctl_update = false;
 588              		.loc 1 485 13 is_stmt 1 view .LVU183
 486:Task/Task_BlackBox.c ****             att_update = false;
 589              		.loc 1 486 13 view .LVU184
 487:Task/Task_BlackBox.c ****         }
 590              		.loc 1 487 13 view .LVU185
 487:Task/Task_BlackBox.c ****         }
 591              		.loc 1 487 24 is_stmt 0 view .LVU186
 592 01b0 614B     		ldr	r3, .L47+36
 593 01b2 0022     		movs	r2, #0
 594 01b4 1A70     		strb	r2, [r3]
 595 01b6 48E7     		b	.L31
 596              	.LVL45:
 597              	.L40:
 351:Task/Task_BlackBox.c ****             baro_data.cyc = DataPipe_DataObj(LogBaro_Data).data.cyc;
ARM GAS  C:\Users\8bit\AppData\Local\Temp\cclQGHkl.s 			page 22


 598              		.loc 1 351 13 is_stmt 1 view .LVU187
 351:Task/Task_BlackBox.c ****             baro_data.cyc = DataPipe_DataObj(LogBaro_Data).data.cyc;
 599              		.loc 1 351 65 is_stmt 0 view .LVU188
 600 01b8 5D49     		ldr	r1, .L47+28
 601 01ba 486D     		ldr	r0, [r1, #84]
 351:Task/Task_BlackBox.c ****             baro_data.cyc = DataPipe_DataObj(LogBaro_Data).data.cyc;
 602              		.loc 1 351 28 view .LVU189
 603 01bc 604A     		ldr	r2, .L47+44
 604              	.LVL46:
 351:Task/Task_BlackBox.c ****             baro_data.cyc = DataPipe_DataObj(LogBaro_Data).data.cyc;
 605              		.loc 1 351 28 view .LVU190
 606 01be 1060     		str	r0, [r2]
 352:Task/Task_BlackBox.c ****             baro_data.press = DataPipe_DataObj(LogBaro_Data).data.pressure;
 607              		.loc 1 352 13 is_stmt 1 view .LVU191
 352:Task/Task_BlackBox.c ****             baro_data.press = DataPipe_DataObj(LogBaro_Data).data.pressure;
 608              		.loc 1 352 64 is_stmt 0 view .LVU192
 609 01c0 91F85800 		ldrb	r0, [r1, #88]	@ zero_extendqisi2
 352:Task/Task_BlackBox.c ****             baro_data.press = DataPipe_DataObj(LogBaro_Data).data.pressure;
 610              		.loc 1 352 27 view .LVU193
 611 01c4 1071     		strb	r0, [r2, #4]
 353:Task/Task_BlackBox.c ****         }
 612              		.loc 1 353 13 is_stmt 1 view .LVU194
 353:Task/Task_BlackBox.c ****         }
 613              		.loc 1 353 66 is_stmt 0 view .LVU195
 614 01c6 096E     		ldr	r1, [r1, #96]	@ float
 353:Task/Task_BlackBox.c ****         }
 615              		.loc 1 353 29 view .LVU196
 616 01c8 9160     		str	r1, [r2, #8]	@ float
 319:Task/Task_BlackBox.c **** 
 617              		.loc 1 319 10 view .LVU197
 618 01ca 0022     		movs	r2, #0
 318:Task/Task_BlackBox.c ****     bool ctl_update = false;
 619              		.loc 1 318 10 view .LVU198
 620 01cc 1146     		mov	r1, r2
 621 01ce B6E7     		b	.L24
 622              	.LVL47:
 623              	.L26:
 358:Task/Task_BlackBox.c ****             att_alt_data.acc_scale = imu_data.acc_scale;
 624              		.loc 1 358 13 is_stmt 1 view .LVU199
 358:Task/Task_BlackBox.c ****             att_alt_data.acc_scale = imu_data.acc_scale;
 625              		.loc 1 358 46 is_stmt 0 view .LVU200
 626 01d0 584C     		ldr	r4, .L47+32
 627 01d2 D4F80900 		ldr	r0, [r4, #9]	@ unaligned
 358:Task/Task_BlackBox.c ****             att_alt_data.acc_scale = imu_data.acc_scale;
 628              		.loc 1 358 36 view .LVU201
 629 01d6 5B49     		ldr	r1, .L47+48
 630 01d8 C860     		str	r0, [r1, #12]	@ float
 359:Task/Task_BlackBox.c ****             memcpy(att_alt_data.acc, imu_data.flt_acc, sizeof(imu_data.flt_acc));
 631              		.loc 1 359 13 is_stmt 1 view .LVU202
 359:Task/Task_BlackBox.c ****             memcpy(att_alt_data.acc, imu_data.flt_acc, sizeof(imu_data.flt_acc));
 632              		.loc 1 359 46 is_stmt 0 view .LVU203
 633 01da D4F80500 		ldr	r0, [r4, #5]	@ unaligned
 359:Task/Task_BlackBox.c ****             memcpy(att_alt_data.acc, imu_data.flt_acc, sizeof(imu_data.flt_acc));
 634              		.loc 1 359 36 view .LVU204
 635 01de 8860     		str	r0, [r1, #8]	@ float
 360:Task/Task_BlackBox.c ****             memcpy(att_alt_data.gyr, imu_data.flt_gyr, sizeof(imu_data.flt_gyr));
 636              		.loc 1 360 13 is_stmt 1 view .LVU205
ARM GAS  C:\Users\8bit\AppData\Local\Temp\cclQGHkl.s 			page 23


 637 01e0 D4F81900 		ldr	r0, [r4, #25]	@ unaligned
 638 01e4 0861     		str	r0, [r1, #16]
 639 01e6 B4F81D00 		ldrh	r0, [r4, #29]	@ unaligned
 640 01ea 8882     		strh	r0, [r1, #20]	@ unaligned
 361:Task/Task_BlackBox.c **** 
 641              		.loc 1 361 13 view .LVU206
 642 01ec D4F81F00 		ldr	r0, [r4, #31]	@ unaligned
 643 01f0 C1F81600 		str	r0, [r1, #22]	@ unaligned
 644 01f4 B4F82300 		ldrh	r0, [r4, #35]	@ unaligned
 645 01f8 4883     		strh	r0, [r1, #26]	@ unaligned
 364:Task/Task_BlackBox.c **** 
 646              		.loc 1 364 13 view .LVU207
 364:Task/Task_BlackBox.c **** 
 647              		.loc 1 364 42 is_stmt 0 view .LVU208
 648 01fa 5148     		ldr	r0, .L47+44
 649 01fc 8068     		ldr	r0, [r0, #8]	@ float
 364:Task/Task_BlackBox.c **** 
 650              		.loc 1 364 31 view .LVU209
 651 01fe 4860     		str	r0, [r1, #4]	@ float
 367:Task/Task_BlackBox.c ****             {
 652              		.loc 1 367 13 is_stmt 1 view .LVU210
 367:Task/Task_BlackBox.c ****             {
 653              		.loc 1 367 16 is_stmt 0 view .LVU211
 654 0200 4849     		ldr	r1, .L47+16
 655 0202 8A42     		cmp	r2, r1
 656 0204 05D0     		beq	.L45
 376:Task/Task_BlackBox.c ****             {
 657              		.loc 1 376 18 is_stmt 1 view .LVU212
 376:Task/Task_BlackBox.c ****             {
 658              		.loc 1 376 21 is_stmt 0 view .LVU213
 659 0206 4849     		ldr	r1, .L47+20
 660 0208 8A42     		cmp	r2, r1
 661 020a 12D0     		beq	.L46
 319:Task/Task_BlackBox.c **** 
 662              		.loc 1 319 10 view .LVU214
 663 020c 0022     		movs	r2, #0
 664              	.LVL48:
 318:Task/Task_BlackBox.c ****     bool ctl_update = false;
 665              		.loc 1 318 10 view .LVU215
 666 020e 1146     		mov	r1, r2
 667 0210 95E7     		b	.L24
 668              	.LVL49:
 669              	.L45:
 370:Task/Task_BlackBox.c ****                 att_alt_data.pitch = DataPipe_DataObj(LogAtt_Data).pitch;
 670              		.loc 1 370 17 is_stmt 1 view .LVU216
 370:Task/Task_BlackBox.c ****                 att_alt_data.pitch = DataPipe_DataObj(LogAtt_Data).pitch;
 671              		.loc 1 370 66 is_stmt 0 view .LVU217
 672 0212 4749     		ldr	r1, .L47+28
 673 0214 086F     		ldr	r0, [r1, #112]
 370:Task/Task_BlackBox.c ****                 att_alt_data.pitch = DataPipe_DataObj(LogAtt_Data).pitch;
 674              		.loc 1 370 35 view .LVU218
 675 0216 4B4A     		ldr	r2, .L47+48
 676              	.LVL50:
 370:Task/Task_BlackBox.c ****                 att_alt_data.pitch = DataPipe_DataObj(LogAtt_Data).pitch;
 677              		.loc 1 370 35 view .LVU219
 678 0218 1060     		str	r0, [r2]
 371:Task/Task_BlackBox.c ****                 att_alt_data.roll = DataPipe_DataObj(LogAtt_Data).roll;
ARM GAS  C:\Users\8bit\AppData\Local\Temp\cclQGHkl.s 			page 24


 679              		.loc 1 371 17 is_stmt 1 view .LVU220
 371:Task/Task_BlackBox.c ****                 att_alt_data.roll = DataPipe_DataObj(LogAtt_Data).roll;
 680              		.loc 1 371 67 is_stmt 0 view .LVU221
 681 021a 486F     		ldr	r0, [r1, #116]	@ float
 371:Task/Task_BlackBox.c ****                 att_alt_data.roll = DataPipe_DataObj(LogAtt_Data).roll;
 682              		.loc 1 371 36 view .LVU222
 683 021c D061     		str	r0, [r2, #28]	@ float
 372:Task/Task_BlackBox.c ****                 att_alt_data.yaw = DataPipe_DataObj(LogAtt_Data).yaw;
 684              		.loc 1 372 17 is_stmt 1 view .LVU223
 372:Task/Task_BlackBox.c ****                 att_alt_data.yaw = DataPipe_DataObj(LogAtt_Data).yaw;
 685              		.loc 1 372 66 is_stmt 0 view .LVU224
 686 021e 886F     		ldr	r0, [r1, #120]	@ float
 372:Task/Task_BlackBox.c ****                 att_alt_data.yaw = DataPipe_DataObj(LogAtt_Data).yaw;
 687              		.loc 1 372 35 view .LVU225
 688 0220 1062     		str	r0, [r2, #32]	@ float
 373:Task/Task_BlackBox.c ****                 att_update = true;
 689              		.loc 1 373 17 is_stmt 1 view .LVU226
 373:Task/Task_BlackBox.c ****                 att_update = true;
 690              		.loc 1 373 65 is_stmt 0 view .LVU227
 691 0222 C96F     		ldr	r1, [r1, #124]	@ float
 373:Task/Task_BlackBox.c ****                 att_update = true;
 692              		.loc 1 373 34 view .LVU228
 693 0224 5162     		str	r1, [r2, #36]	@ float
 374:Task/Task_BlackBox.c ****             }
 694              		.loc 1 374 17 is_stmt 1 view .LVU229
 374:Task/Task_BlackBox.c ****             }
 695              		.loc 1 374 28 is_stmt 0 view .LVU230
 696 0226 444A     		ldr	r2, .L47+36
 697 0228 0121     		movs	r1, #1
 698 022a 1170     		strb	r1, [r2]
 319:Task/Task_BlackBox.c **** 
 699              		.loc 1 319 10 view .LVU231
 700 022c 0022     		movs	r2, #0
 318:Task/Task_BlackBox.c ****     bool ctl_update = false;
 701              		.loc 1 318 10 view .LVU232
 702 022e 1146     		mov	r1, r2
 703 0230 85E7     		b	.L24
 704              	.LVL51:
 705              	.L46:
 379:Task/Task_BlackBox.c ****                 alt_update = true;
 706              		.loc 1 379 17 is_stmt 1 view .LVU233
 379:Task/Task_BlackBox.c ****                 alt_update = true;
 707              		.loc 1 379 65 is_stmt 0 view .LVU234
 708 0232 3F4A     		ldr	r2, .L47+28
 709              	.LVL52:
 379:Task/Task_BlackBox.c ****                 alt_update = true;
 710              		.loc 1 379 65 view .LVU235
 711 0234 D2F89810 		ldr	r1, [r2, #152]	@ float
 379:Task/Task_BlackBox.c ****                 alt_update = true;
 712              		.loc 1 379 34 view .LVU236
 713 0238 424A     		ldr	r2, .L47+48
 714 023a 9162     		str	r1, [r2, #40]	@ float
 380:Task/Task_BlackBox.c ****             }
 715              		.loc 1 380 17 is_stmt 1 view .LVU237
 380:Task/Task_BlackBox.c ****             }
 716              		.loc 1 380 28 is_stmt 0 view .LVU238
 717 023c 424A     		ldr	r2, .L47+52
ARM GAS  C:\Users\8bit\AppData\Local\Temp\cclQGHkl.s 			page 25


 718 023e 0121     		movs	r1, #1
 719 0240 1170     		strb	r1, [r2]
 319:Task/Task_BlackBox.c **** 
 720              		.loc 1 319 10 view .LVU239
 721 0242 0022     		movs	r2, #0
 318:Task/Task_BlackBox.c ****     bool ctl_update = false;
 722              		.loc 1 318 10 view .LVU240
 723 0244 1146     		mov	r1, r2
 724 0246 7AE7     		b	.L24
 725              	.LVL53:
 726              	.L41:
 385:Task/Task_BlackBox.c ****             baro_data.throttle_percent = DataPipe_DataObj(LogCtl_Data).throttle_percent;
 727              		.loc 1 385 13 is_stmt 1 view .LVU241
 385:Task/Task_BlackBox.c ****             baro_data.throttle_percent = DataPipe_DataObj(LogCtl_Data).throttle_percent;
 728              		.loc 1 385 70 is_stmt 0 view .LVU242
 729 0248 394A     		ldr	r2, .L47+28
 730              	.LVL54:
 385:Task/Task_BlackBox.c ****             baro_data.throttle_percent = DataPipe_DataObj(LogCtl_Data).throttle_percent;
 731              		.loc 1 385 70 view .LVU243
 732 024a 92F8A300 		ldrb	r0, [r2, #163]	@ zero_extendqisi2
 385:Task/Task_BlackBox.c ****             baro_data.throttle_percent = DataPipe_DataObj(LogCtl_Data).throttle_percent;
 733              		.loc 1 385 39 view .LVU244
 734 024e 394C     		ldr	r4, .L47+32
 735 0250 84F82500 		strb	r0, [r4, #37]
 386:Task/Task_BlackBox.c **** 
 736              		.loc 1 386 13 is_stmt 1 view .LVU245
 386:Task/Task_BlackBox.c **** 
 737              		.loc 1 386 40 is_stmt 0 view .LVU246
 738 0254 3A4C     		ldr	r4, .L47+44
 739 0256 2073     		strb	r0, [r4, #12]
 388:Task/Task_BlackBox.c ****             {
 740              		.loc 1 388 13 is_stmt 1 view .LVU247
 388:Task/Task_BlackBox.c ****             {
 741              		.loc 1 388 46 is_stmt 0 view .LVU248
 742 0258 92F8A220 		ldrb	r2, [r2, #162]	@ zero_extendqisi2
 388:Task/Task_BlackBox.c ****             {
 743              		.loc 1 388 16 view .LVU249
 744 025c 32BB     		cbnz	r2, .L29
 390:Task/Task_BlackBox.c ****                 att_ctl_data.throttle_percent = DataPipe_DataObj(LogCtl_Data).throttle_percent;
 745              		.loc 1 390 17 is_stmt 1 view .LVU250
 390:Task/Task_BlackBox.c ****                 att_ctl_data.throttle_percent = DataPipe_DataObj(LogCtl_Data).throttle_percent;
 746              		.loc 1 390 66 is_stmt 0 view .LVU251
 747 025e 344C     		ldr	r4, .L47+28
 748 0260 D4F89C50 		ldr	r5, [r4, #156]
 390:Task/Task_BlackBox.c ****                 att_ctl_data.throttle_percent = DataPipe_DataObj(LogCtl_Data).throttle_percent;
 749              		.loc 1 390 35 view .LVU252
 750 0264 354A     		ldr	r2, .L47+40
 751 0266 1560     		str	r5, [r2]
 391:Task/Task_BlackBox.c ****                 att_ctl_data.exp_pitch = DataPipe_DataObj(LogCtl_Data).pitch;
 752              		.loc 1 391 17 is_stmt 1 view .LVU253
 391:Task/Task_BlackBox.c ****                 att_ctl_data.exp_pitch = DataPipe_DataObj(LogCtl_Data).pitch;
 753              		.loc 1 391 47 is_stmt 0 view .LVU254
 754 0268 1071     		strb	r0, [r2, #4]
 392:Task/Task_BlackBox.c ****                 att_ctl_data.exp_roll = DataPipe_DataObj(LogCtl_Data).roll;
 755              		.loc 1 392 17 is_stmt 1 view .LVU255
 392:Task/Task_BlackBox.c ****                 att_ctl_data.exp_roll = DataPipe_DataObj(LogCtl_Data).roll;
 756              		.loc 1 392 40 is_stmt 0 view .LVU256
ARM GAS  C:\Users\8bit\AppData\Local\Temp\cclQGHkl.s 			page 26


 757 026a D4F8A400 		ldr	r0, [r4, #164]	@ float
 758 026e C2F81100 		str	r0, [r2, #17]	@ unaligned
 393:Task/Task_BlackBox.c ****                 att_ctl_data.exp_gyr_z = DataPipe_DataObj(LogCtl_Data).gyr_z;
 759              		.loc 1 393 17 is_stmt 1 view .LVU257
 393:Task/Task_BlackBox.c ****                 att_ctl_data.exp_gyr_z = DataPipe_DataObj(LogCtl_Data).gyr_z;
 760              		.loc 1 393 39 is_stmt 0 view .LVU258
 761 0272 D4F8A800 		ldr	r0, [r4, #168]	@ float
 762 0276 C2F81500 		str	r0, [r2, #21]	@ unaligned
 394:Task/Task_BlackBox.c ****                 att_ctl_data.pitch = att_alt_data.pitch;
 763              		.loc 1 394 17 is_stmt 1 view .LVU259
 394:Task/Task_BlackBox.c ****                 att_ctl_data.pitch = att_alt_data.pitch;
 764              		.loc 1 394 40 is_stmt 0 view .LVU260
 765 027a D4F8B400 		ldr	r0, [r4, #180]	@ float
 766 027e C2F81900 		str	r0, [r2, #25]	@ unaligned
 395:Task/Task_BlackBox.c ****                 att_ctl_data.roll = att_alt_data.roll;
 767              		.loc 1 395 17 is_stmt 1 view .LVU261
 395:Task/Task_BlackBox.c ****                 att_ctl_data.roll = att_alt_data.roll;
 768              		.loc 1 395 50 is_stmt 0 view .LVU262
 769 0282 3048     		ldr	r0, .L47+48
 395:Task/Task_BlackBox.c ****                 att_ctl_data.roll = att_alt_data.roll;
 770              		.loc 1 395 36 view .LVU263
 771 0284 C469     		ldr	r4, [r0, #28]	@ float
 772 0286 C2F80540 		str	r4, [r2, #5]	@ unaligned
 396:Task/Task_BlackBox.c ****                 att_ctl_data.gyr_z = imu_data.flt_gyr[Axis_Z];
 773              		.loc 1 396 17 is_stmt 1 view .LVU264
 396:Task/Task_BlackBox.c ****                 att_ctl_data.gyr_z = imu_data.flt_gyr[Axis_Z];
 774              		.loc 1 396 35 is_stmt 0 view .LVU265
 775 028a 006A     		ldr	r0, [r0, #32]	@ float
 776 028c C2F80900 		str	r0, [r2, #9]	@ unaligned
 397:Task/Task_BlackBox.c ****             }
 777              		.loc 1 397 17 is_stmt 1 view .LVU266
 397:Task/Task_BlackBox.c ****             }
 778              		.loc 1 397 54 is_stmt 0 view .LVU267
 779 0290 2848     		ldr	r0, .L47+32
 780 0292 B0F92300 		ldrsh	r0, [r0, #35]	@ unaligned
 397:Task/Task_BlackBox.c ****             }
 781              		.loc 1 397 36 view .LVU268
 782 0296 07EE900A 		vmov	s15, r0	@ int
 783 029a F8EEE77A 		vcvt.f32.s32	s15, s15
 784 029e 17EE900A 		vmov	r0, s15
 785 02a2 C2F80D00 		str	r0, [r2, #13]	@ unaligned
 411:Task/Task_BlackBox.c ****         }
 786              		.loc 1 411 24 view .LVU269
 787 02a6 0A46     		mov	r2, r1
 318:Task/Task_BlackBox.c ****     bool ctl_update = false;
 788              		.loc 1 318 10 view .LVU270
 789 02a8 0021     		movs	r1, #0
 790 02aa 48E7     		b	.L24
 791              	.L29:
 401:Task/Task_BlackBox.c ****                 ang_ctl_data.throttle_percent = DataPipe_DataObj(LogCtl_Data).throttle_percent;
 792              		.loc 1 401 17 is_stmt 1 view .LVU271
 401:Task/Task_BlackBox.c ****                 ang_ctl_data.throttle_percent = DataPipe_DataObj(LogCtl_Data).throttle_percent;
 793              		.loc 1 401 66 is_stmt 0 view .LVU272
 794 02ac 204C     		ldr	r4, .L47+28
 795 02ae D4F89C50 		ldr	r5, [r4, #156]
 401:Task/Task_BlackBox.c ****                 ang_ctl_data.throttle_percent = DataPipe_DataObj(LogCtl_Data).throttle_percent;
 796              		.loc 1 401 35 view .LVU273
ARM GAS  C:\Users\8bit\AppData\Local\Temp\cclQGHkl.s 			page 27


 797 02b2 264A     		ldr	r2, .L47+56
 798 02b4 1560     		str	r5, [r2]
 402:Task/Task_BlackBox.c ****                 ang_ctl_data.exp_gyr[Axis_X] = DataPipe_DataObj(LogCtl_Data).gyr_x;
 799              		.loc 1 402 17 is_stmt 1 view .LVU274
 402:Task/Task_BlackBox.c ****                 ang_ctl_data.exp_gyr[Axis_X] = DataPipe_DataObj(LogCtl_Data).gyr_x;
 800              		.loc 1 402 47 is_stmt 0 view .LVU275
 801 02b6 1071     		strb	r0, [r2, #4]
 403:Task/Task_BlackBox.c ****                 ang_ctl_data.exp_gyr[Axis_Y] = DataPipe_DataObj(LogCtl_Data).gyr_y;
 802              		.loc 1 403 17 is_stmt 1 view .LVU276
 403:Task/Task_BlackBox.c ****                 ang_ctl_data.exp_gyr[Axis_Y] = DataPipe_DataObj(LogCtl_Data).gyr_y;
 803              		.loc 1 403 46 is_stmt 0 view .LVU277
 804 02b8 D4F8AC00 		ldr	r0, [r4, #172]	@ float
 805 02bc C2F81100 		str	r0, [r2, #17]	@ unaligned
 404:Task/Task_BlackBox.c ****                 ang_ctl_data.exp_gyr[Axis_Z] = DataPipe_DataObj(LogCtl_Data).gyr_z;
 806              		.loc 1 404 17 is_stmt 1 view .LVU278
 404:Task/Task_BlackBox.c ****                 ang_ctl_data.exp_gyr[Axis_Z] = DataPipe_DataObj(LogCtl_Data).gyr_z;
 807              		.loc 1 404 46 is_stmt 0 view .LVU279
 808 02c0 D4F8B000 		ldr	r0, [r4, #176]	@ float
 809 02c4 C2F81500 		str	r0, [r2, #21]	@ unaligned
 405:Task/Task_BlackBox.c ****                 ang_ctl_data.gyr[Axis_X] = imu_data.flt_gyr[Axis_X];
 810              		.loc 1 405 17 is_stmt 1 view .LVU280
 405:Task/Task_BlackBox.c ****                 ang_ctl_data.gyr[Axis_X] = imu_data.flt_gyr[Axis_X];
 811              		.loc 1 405 46 is_stmt 0 view .LVU281
 812 02c8 D4F8B400 		ldr	r0, [r4, #180]	@ float
 813 02cc C2F81900 		str	r0, [r2, #25]	@ unaligned
 406:Task/Task_BlackBox.c ****                 ang_ctl_data.gyr[Axis_Y] = imu_data.flt_gyr[Axis_Y];
 814              		.loc 1 406 17 is_stmt 1 view .LVU282
 406:Task/Task_BlackBox.c ****                 ang_ctl_data.gyr[Axis_Y] = imu_data.flt_gyr[Axis_Y];
 815              		.loc 1 406 60 is_stmt 0 view .LVU283
 816 02d0 1848     		ldr	r0, .L47+32
 817 02d2 B0F91F40 		ldrsh	r4, [r0, #31]	@ unaligned
 406:Task/Task_BlackBox.c ****                 ang_ctl_data.gyr[Axis_Y] = imu_data.flt_gyr[Axis_Y];
 818              		.loc 1 406 42 view .LVU284
 819 02d6 07EE904A 		vmov	s15, r4	@ int
 820 02da F8EEE77A 		vcvt.f32.s32	s15, s15
 821 02de 17EE904A 		vmov	r4, s15
 822 02e2 C2F80540 		str	r4, [r2, #5]	@ unaligned
 407:Task/Task_BlackBox.c ****                 ang_ctl_data.gyr[Axis_Z] = imu_data.flt_gyr[Axis_Z];
 823              		.loc 1 407 17 is_stmt 1 view .LVU285
 407:Task/Task_BlackBox.c ****                 ang_ctl_data.gyr[Axis_Z] = imu_data.flt_gyr[Axis_Z];
 824              		.loc 1 407 60 is_stmt 0 view .LVU286
 825 02e6 B0F92140 		ldrsh	r4, [r0, #33]	@ unaligned
 407:Task/Task_BlackBox.c ****                 ang_ctl_data.gyr[Axis_Z] = imu_data.flt_gyr[Axis_Z];
 826              		.loc 1 407 42 view .LVU287
 827 02ea 07EE904A 		vmov	s15, r4	@ int
 828 02ee F8EEE77A 		vcvt.f32.s32	s15, s15
 829 02f2 17EE904A 		vmov	r4, s15
 830 02f6 C2F80940 		str	r4, [r2, #9]	@ unaligned
 408:Task/Task_BlackBox.c ****             }
 831              		.loc 1 408 17 is_stmt 1 view .LVU288
 408:Task/Task_BlackBox.c ****             }
 832              		.loc 1 408 60 is_stmt 0 view .LVU289
 833 02fa B0F92300 		ldrsh	r0, [r0, #35]	@ unaligned
 408:Task/Task_BlackBox.c ****             }
 834              		.loc 1 408 42 view .LVU290
 835 02fe 07EE900A 		vmov	s15, r0	@ int
 836 0302 F8EEE77A 		vcvt.f32.s32	s15, s15
ARM GAS  C:\Users\8bit\AppData\Local\Temp\cclQGHkl.s 			page 28


 837 0306 17EE900A 		vmov	r0, s15
 838 030a C2F80D00 		str	r0, [r2, #13]	@ unaligned
 411:Task/Task_BlackBox.c ****         }
 839              		.loc 1 411 24 view .LVU291
 840 030e 0A46     		mov	r2, r1
 318:Task/Task_BlackBox.c ****     bool ctl_update = false;
 841              		.loc 1 318 10 view .LVU292
 842 0310 0021     		movs	r1, #0
 843 0312 14E7     		b	.L24
 844              	.L48:
 845              		.align	2
 846              	.L47:
 847 0314 00000000 		.word	.LANCHOR1
 848 0318 00000000 		.word	.LANCHOR3
 849 031c 00000000 		.word	IMU_Log_DataPipe
 850 0320 00000000 		.word	Baro_Log_DataPipe
 851 0324 00000000 		.word	Attitude_Log_DataPipe
 852 0328 00000000 		.word	Altitude_Log_DataPipe
 853 032c 00000000 		.word	CtlData_Log_DataPipe
 854 0330 00000000 		.word	.LANCHOR4
 855 0334 00000000 		.word	.LANCHOR5
 856 0338 00000000 		.word	.LANCHOR8
 857 033c 00000000 		.word	.LANCHOR10
 858 0340 00000000 		.word	.LANCHOR6
 859 0344 00000000 		.word	.LANCHOR7
 860 0348 00000000 		.word	.LANCHOR9
 861 034c 00000000 		.word	.LANCHOR11
 862              	.LVL55:
 863              	.L42:
 415:Task/Task_BlackBox.c ****         {
 864              		.loc 1 415 55 discriminator 1 view .LVU293
 865 0350 0029     		cmp	r1, #0
 866 0352 3FF4F7AE 		beq	.L30
 418:Task/Task_BlackBox.c ****             Monitor.imu_log.byte_size += BLACKBOX_HEADER_SIZE;
 867              		.loc 1 418 13 is_stmt 1 view .LVU294
 418:Task/Task_BlackBox.c ****             Monitor.imu_log.byte_size += BLACKBOX_HEADER_SIZE;
 868              		.loc 1 418 28 is_stmt 0 view .LVU295
 869 0356 484C     		ldr	r4, .L49
 870 0358 236E     		ldr	r3, [r4, #96]
 418:Task/Task_BlackBox.c ****             Monitor.imu_log.byte_size += BLACKBOX_HEADER_SIZE;
 871              		.loc 1 418 33 view .LVU296
 872 035a 0133     		adds	r3, r3, #1
 873 035c 2366     		str	r3, [r4, #96]
 419:Task/Task_BlackBox.c ****             blackbox_header.type = BlackBox_Imu_Filted;
 874              		.loc 1 419 13 is_stmt 1 view .LVU297
 419:Task/Task_BlackBox.c ****             blackbox_header.type = BlackBox_Imu_Filted;
 875              		.loc 1 419 39 is_stmt 0 view .LVU298
 876 035e 636E     		ldr	r3, [r4, #100]
 877 0360 0433     		adds	r3, r3, #4
 878 0362 6366     		str	r3, [r4, #100]
 420:Task/Task_BlackBox.c ****             blackbox_header.size = sizeof(BlackBox_IMUData_TypeDef);
 879              		.loc 1 420 13 is_stmt 1 view .LVU299
 420:Task/Task_BlackBox.c ****             blackbox_header.size = sizeof(BlackBox_IMUData_TypeDef);
 880              		.loc 1 420 34 is_stmt 0 view .LVU300
 881 0364 0123     		movs	r3, #1
 882 0366 8DF80630 		strb	r3, [sp, #6]
 421:Task/Task_BlackBox.c ****             TaskBlackBox_UpdateQueue((uint8_t *)&blackbox_header, BLACKBOX_HEADER_SIZE);
ARM GAS  C:\Users\8bit\AppData\Local\Temp\cclQGHkl.s 			page 29


 883              		.loc 1 421 13 is_stmt 1 view .LVU301
 421:Task/Task_BlackBox.c ****             TaskBlackBox_UpdateQueue((uint8_t *)&blackbox_header, BLACKBOX_HEADER_SIZE);
 884              		.loc 1 421 34 is_stmt 0 view .LVU302
 885 036a 2626     		movs	r6, #38
 886 036c 8DF80760 		strb	r6, [sp, #7]
 422:Task/Task_BlackBox.c ****             
 887              		.loc 1 422 13 is_stmt 1 view .LVU303
 888 0370 0421     		movs	r1, #4
 889              	.LVL56:
 422:Task/Task_BlackBox.c ****             
 890              		.loc 1 422 13 is_stmt 0 view .LVU304
 891 0372 0DEB0100 		add	r0, sp, r1
 892 0376 FFF7FEFF 		bl	TaskBlackBox_UpdateQueue
 893              	.LVL57:
 424:Task/Task_BlackBox.c ****             Monitor.imu_log.byte_size += sizeof(BlackBox_IMUData_TypeDef);
 894              		.loc 1 424 13 is_stmt 1 view .LVU305
 895 037a 404F     		ldr	r7, .L49+4
 896 037c 3146     		mov	r1, r6
 897 037e 3846     		mov	r0, r7
 898 0380 FFF7FEFF 		bl	TaskBlackBox_UpdateQueue
 899              	.LVL58:
 425:Task/Task_BlackBox.c **** 
 900              		.loc 1 425 13 view .LVU306
 425:Task/Task_BlackBox.c **** 
 901              		.loc 1 425 39 is_stmt 0 view .LVU307
 902 0384 656E     		ldr	r5, [r4, #100]
 903 0386 AB19     		adds	r3, r5, r6
 904 0388 6366     		str	r3, [r4, #100]
 427:Task/Task_BlackBox.c ****             blackbox_ender.check_sum = check_sum;
 905              		.loc 1 427 13 is_stmt 1 view .LVU308
 427:Task/Task_BlackBox.c ****             blackbox_ender.check_sum = check_sum;
 906              		.loc 1 427 25 is_stmt 0 view .LVU309
 907 038a 3146     		mov	r1, r6
 908 038c 3846     		mov	r0, r7
 909 038e FFF7FEFF 		bl	TaskBlackBox_Get_CheckSum
 910              	.LVL59:
 428:Task/Task_BlackBox.c ****             Monitor.imu_log.byte_size += BLACKBOX_ENDER_SIZE;
 911              		.loc 1 428 13 is_stmt 1 view .LVU310
 428:Task/Task_BlackBox.c ****             Monitor.imu_log.byte_size += BLACKBOX_ENDER_SIZE;
 912              		.loc 1 428 38 is_stmt 0 view .LVU311
 913 0392 8DF80000 		strb	r0, [sp]
 429:Task/Task_BlackBox.c ****             TaskBlackBox_UpdateQueue((uint8_t *)&blackbox_ender, BLACKBOX_ENDER_SIZE);
 914              		.loc 1 429 13 is_stmt 1 view .LVU312
 429:Task/Task_BlackBox.c ****             TaskBlackBox_UpdateQueue((uint8_t *)&blackbox_ender, BLACKBOX_ENDER_SIZE);
 915              		.loc 1 429 39 is_stmt 0 view .LVU313
 916 0396 2935     		adds	r5, r5, #41
 917 0398 6566     		str	r5, [r4, #100]
 430:Task/Task_BlackBox.c ****             imu_update = false;
 918              		.loc 1 430 13 is_stmt 1 view .LVU314
 919 039a 0321     		movs	r1, #3
 920 039c 6846     		mov	r0, sp
 921              	.LVL60:
 430:Task/Task_BlackBox.c ****             imu_update = false;
 922              		.loc 1 430 13 is_stmt 0 view .LVU315
 923 039e FFF7FEFF 		bl	TaskBlackBox_UpdateQueue
 924              	.LVL61:
 431:Task/Task_BlackBox.c ****         }
ARM GAS  C:\Users\8bit\AppData\Local\Temp\cclQGHkl.s 			page 30


 925              		.loc 1 431 13 is_stmt 1 view .LVU316
 431:Task/Task_BlackBox.c ****         }
 926              		.loc 1 431 24 is_stmt 0 view .LVU317
 927 03a2 52E6     		b	.L31
 928              	.LVL62:
 929              	.L43:
 433:Task/Task_BlackBox.c ****         {
 930              		.loc 1 433 76 discriminator 1 view .LVU318
 931 03a4 3648     		ldr	r0, .L49+8
 932 03a6 0478     		ldrb	r4, [r0]	@ zero_extendqisi2
 933 03a8 3648     		ldr	r0, .L49+12
 934 03aa 0078     		ldrb	r0, [r0]	@ zero_extendqisi2
 433:Task/Task_BlackBox.c ****         {
 935              		.loc 1 433 61 discriminator 1 view .LVU319
 936 03ac 0442     		tst	r4, r0
 937 03ae 3FF4CCAE 		beq	.L32
 938 03b2 0029     		cmp	r1, #0
 939 03b4 3FF4C9AE 		beq	.L32
 435:Task/Task_BlackBox.c ****             Monitor.alt_att_log.byte_size += BLACKBOX_HEADER_SIZE;
 940              		.loc 1 435 13 is_stmt 1 view .LVU320
 435:Task/Task_BlackBox.c ****             Monitor.alt_att_log.byte_size += BLACKBOX_HEADER_SIZE;
 941              		.loc 1 435 32 is_stmt 0 view .LVU321
 942 03b8 2F4C     		ldr	r4, .L49
 943 03ba A36E     		ldr	r3, [r4, #104]
 435:Task/Task_BlackBox.c ****             Monitor.alt_att_log.byte_size += BLACKBOX_HEADER_SIZE;
 944              		.loc 1 435 37 view .LVU322
 945 03bc 0133     		adds	r3, r3, #1
 946 03be A366     		str	r3, [r4, #104]
 436:Task/Task_BlackBox.c ****             blackbox_header.type = BlackBox_Log_Alt_Att;
 947              		.loc 1 436 13 is_stmt 1 view .LVU323
 436:Task/Task_BlackBox.c ****             blackbox_header.type = BlackBox_Log_Alt_Att;
 948              		.loc 1 436 43 is_stmt 0 view .LVU324
 949 03c0 E36E     		ldr	r3, [r4, #108]
 950 03c2 0433     		adds	r3, r3, #4
 951 03c4 E366     		str	r3, [r4, #108]
 437:Task/Task_BlackBox.c ****             blackbox_header.size = sizeof(BlackBox_AttAltData_TypeDef);
 952              		.loc 1 437 13 is_stmt 1 view .LVU325
 437:Task/Task_BlackBox.c ****             blackbox_header.size = sizeof(BlackBox_AttAltData_TypeDef);
 953              		.loc 1 437 34 is_stmt 0 view .LVU326
 954 03c6 0223     		movs	r3, #2
 955 03c8 8DF80630 		strb	r3, [sp, #6]
 438:Task/Task_BlackBox.c ****             TaskBlackBox_UpdateQueue((uint8_t *)&blackbox_header, BLACKBOX_HEADER_SIZE);
 956              		.loc 1 438 13 is_stmt 1 view .LVU327
 438:Task/Task_BlackBox.c ****             TaskBlackBox_UpdateQueue((uint8_t *)&blackbox_header, BLACKBOX_HEADER_SIZE);
 957              		.loc 1 438 34 is_stmt 0 view .LVU328
 958 03cc 2C25     		movs	r5, #44
 959 03ce 8DF80750 		strb	r5, [sp, #7]
 439:Task/Task_BlackBox.c ****             
 960              		.loc 1 439 13 is_stmt 1 view .LVU329
 961 03d2 0421     		movs	r1, #4
 962              	.LVL63:
 439:Task/Task_BlackBox.c ****             
 963              		.loc 1 439 13 is_stmt 0 view .LVU330
 964 03d4 0DEB0100 		add	r0, sp, r1
 965 03d8 FFF7FEFF 		bl	TaskBlackBox_UpdateQueue
 966              	.LVL64:
 441:Task/Task_BlackBox.c ****             Monitor.alt_att_log.byte_size += sizeof(BlackBox_AttAltData_TypeDef);
ARM GAS  C:\Users\8bit\AppData\Local\Temp\cclQGHkl.s 			page 31


 967              		.loc 1 441 13 is_stmt 1 view .LVU331
 968 03dc 2A4E     		ldr	r6, .L49+16
 969 03de 2946     		mov	r1, r5
 970 03e0 3046     		mov	r0, r6
 971 03e2 FFF7FEFF 		bl	TaskBlackBox_UpdateQueue
 972              	.LVL65:
 442:Task/Task_BlackBox.c **** 
 973              		.loc 1 442 13 view .LVU332
 442:Task/Task_BlackBox.c **** 
 974              		.loc 1 442 43 is_stmt 0 view .LVU333
 975 03e6 E36E     		ldr	r3, [r4, #108]
 976 03e8 2B44     		add	r3, r3, r5
 977 03ea E366     		str	r3, [r4, #108]
 444:Task/Task_BlackBox.c ****             blackbox_ender.check_sum = check_sum;
 978              		.loc 1 444 13 is_stmt 1 view .LVU334
 444:Task/Task_BlackBox.c ****             blackbox_ender.check_sum = check_sum;
 979              		.loc 1 444 25 is_stmt 0 view .LVU335
 980 03ec 2946     		mov	r1, r5
 981 03ee 3046     		mov	r0, r6
 982 03f0 FFF7FEFF 		bl	TaskBlackBox_Get_CheckSum
 983              	.LVL66:
 445:Task/Task_BlackBox.c ****             Monitor.imu_log.byte_size += BLACKBOX_ENDER_SIZE;
 984              		.loc 1 445 13 is_stmt 1 view .LVU336
 445:Task/Task_BlackBox.c ****             Monitor.imu_log.byte_size += BLACKBOX_ENDER_SIZE;
 985              		.loc 1 445 38 is_stmt 0 view .LVU337
 986 03f4 8DF80000 		strb	r0, [sp]
 446:Task/Task_BlackBox.c ****             TaskBlackBox_UpdateQueue((uint8_t *)&blackbox_ender, BLACKBOX_ENDER_SIZE);
 987              		.loc 1 446 13 is_stmt 1 view .LVU338
 446:Task/Task_BlackBox.c ****             TaskBlackBox_UpdateQueue((uint8_t *)&blackbox_ender, BLACKBOX_ENDER_SIZE);
 988              		.loc 1 446 39 is_stmt 0 view .LVU339
 989 03f8 636E     		ldr	r3, [r4, #100]
 990 03fa 0333     		adds	r3, r3, #3
 991 03fc 6366     		str	r3, [r4, #100]
 447:Task/Task_BlackBox.c ****             alt_update = false;
 992              		.loc 1 447 13 is_stmt 1 view .LVU340
 993 03fe 0321     		movs	r1, #3
 994 0400 6846     		mov	r0, sp
 995              	.LVL67:
 447:Task/Task_BlackBox.c ****             alt_update = false;
 996              		.loc 1 447 13 is_stmt 0 view .LVU341
 997 0402 FFF7FEFF 		bl	TaskBlackBox_UpdateQueue
 998              	.LVL68:
 448:Task/Task_BlackBox.c ****             att_update = false;
 999              		.loc 1 448 13 is_stmt 1 view .LVU342
 448:Task/Task_BlackBox.c ****             att_update = false;
 1000              		.loc 1 448 24 is_stmt 0 view .LVU343
 1001 0406 0023     		movs	r3, #0
 1002 0408 1D4A     		ldr	r2, .L49+8
 1003 040a 1370     		strb	r3, [r2]
 449:Task/Task_BlackBox.c ****             imu_update = false;
 1004              		.loc 1 449 13 is_stmt 1 view .LVU344
 449:Task/Task_BlackBox.c ****             imu_update = false;
 1005              		.loc 1 449 24 is_stmt 0 view .LVU345
 1006 040c 1D4A     		ldr	r2, .L49+12
 1007 040e 1370     		strb	r3, [r2]
 450:Task/Task_BlackBox.c ****         }
 1008              		.loc 1 450 13 is_stmt 1 view .LVU346
ARM GAS  C:\Users\8bit\AppData\Local\Temp\cclQGHkl.s 			page 32


 1009              	.LVL69:
 450:Task/Task_BlackBox.c ****         }
 1010              		.loc 1 450 24 is_stmt 0 view .LVU347
 1011 0410 1BE6     		b	.L31
 1012              	.LVL70:
 1013              	.L44:
 452:Task/Task_BlackBox.c ****         {
 1014              		.loc 1 452 65 discriminator 1 view .LVU348
 1015 0412 0029     		cmp	r1, #0
 1016 0414 3FF49CAE 		beq	.L33
 1017 0418 002A     		cmp	r2, #0
 1018 041a 3FF499AE 		beq	.L33
 454:Task/Task_BlackBox.c ****             Monitor.ctl_ang_log.byte_size += BLACKBOX_HEADER_SIZE;
 1019              		.loc 1 454 13 is_stmt 1 view .LVU349
 454:Task/Task_BlackBox.c ****             Monitor.ctl_ang_log.byte_size += BLACKBOX_HEADER_SIZE;
 1020              		.loc 1 454 32 is_stmt 0 view .LVU350
 1021 041e 164C     		ldr	r4, .L49
 1022 0420 236F     		ldr	r3, [r4, #112]
 454:Task/Task_BlackBox.c ****             Monitor.ctl_ang_log.byte_size += BLACKBOX_HEADER_SIZE;
 1023              		.loc 1 454 37 view .LVU351
 1024 0422 0133     		adds	r3, r3, #1
 1025 0424 2367     		str	r3, [r4, #112]
 455:Task/Task_BlackBox.c ****             blackbox_header.type = BlackBox_AngularPID_Tune;
 1026              		.loc 1 455 13 is_stmt 1 view .LVU352
 455:Task/Task_BlackBox.c ****             blackbox_header.type = BlackBox_AngularPID_Tune;
 1027              		.loc 1 455 43 is_stmt 0 view .LVU353
 1028 0426 636F     		ldr	r3, [r4, #116]
 1029 0428 0433     		adds	r3, r3, #4
 1030 042a 6367     		str	r3, [r4, #116]
 456:Task/Task_BlackBox.c ****             blackbox_header.size = sizeof(BlackBox_AngCtlData_TypeDef);
 1031              		.loc 1 456 13 is_stmt 1 view .LVU354
 456:Task/Task_BlackBox.c ****             blackbox_header.size = sizeof(BlackBox_AngCtlData_TypeDef);
 1032              		.loc 1 456 34 is_stmt 0 view .LVU355
 1033 042c 0327     		movs	r7, #3
 1034 042e 8DF80670 		strb	r7, [sp, #6]
 457:Task/Task_BlackBox.c ****             TaskBlackBox_UpdateQueue((uint8_t *)&blackbox_header, BLACKBOX_HEADER_SIZE);
 1035              		.loc 1 457 13 is_stmt 1 view .LVU356
 457:Task/Task_BlackBox.c ****             TaskBlackBox_UpdateQueue((uint8_t *)&blackbox_header, BLACKBOX_HEADER_SIZE);
 1036              		.loc 1 457 34 is_stmt 0 view .LVU357
 1037 0432 1D26     		movs	r6, #29
 1038 0434 8DF80760 		strb	r6, [sp, #7]
 458:Task/Task_BlackBox.c **** 
 1039              		.loc 1 458 13 is_stmt 1 view .LVU358
 1040 0438 0421     		movs	r1, #4
 1041              	.LVL71:
 458:Task/Task_BlackBox.c **** 
 1042              		.loc 1 458 13 is_stmt 0 view .LVU359
 1043 043a 0DEB0100 		add	r0, sp, r1
 1044 043e FFF7FEFF 		bl	TaskBlackBox_UpdateQueue
 1045              	.LVL72:
 460:Task/Task_BlackBox.c ****             Monitor.ctl_ang_log.byte_size += sizeof(BlackBox_AngCtlData_TypeDef);
 1046              		.loc 1 460 13 is_stmt 1 view .LVU360
 1047 0442 DFF84C80 		ldr	r8, .L49+24
 1048 0446 3146     		mov	r1, r6
 1049 0448 4046     		mov	r0, r8
 1050 044a FFF7FEFF 		bl	TaskBlackBox_UpdateQueue
 1051              	.LVL73:
ARM GAS  C:\Users\8bit\AppData\Local\Temp\cclQGHkl.s 			page 33


 461:Task/Task_BlackBox.c ****         
 1052              		.loc 1 461 13 view .LVU361
 461:Task/Task_BlackBox.c ****         
 1053              		.loc 1 461 43 is_stmt 0 view .LVU362
 1054 044e 656F     		ldr	r5, [r4, #116]
 1055 0450 AB19     		adds	r3, r5, r6
 1056 0452 6367     		str	r3, [r4, #116]
 463:Task/Task_BlackBox.c ****             blackbox_ender.check_sum = check_sum;
 1057              		.loc 1 463 13 is_stmt 1 view .LVU363
 463:Task/Task_BlackBox.c ****             blackbox_ender.check_sum = check_sum;
 1058              		.loc 1 463 25 is_stmt 0 view .LVU364
 1059 0454 3146     		mov	r1, r6
 1060 0456 4046     		mov	r0, r8
 1061 0458 FFF7FEFF 		bl	TaskBlackBox_Get_CheckSum
 1062              	.LVL74:
 464:Task/Task_BlackBox.c ****             Monitor.ctl_ang_log.byte_size += BLACKBOX_ENDER_SIZE;
 1063              		.loc 1 464 13 is_stmt 1 view .LVU365
 464:Task/Task_BlackBox.c ****             Monitor.ctl_ang_log.byte_size += BLACKBOX_ENDER_SIZE;
 1064              		.loc 1 464 38 is_stmt 0 view .LVU366
 1065 045c 8DF80000 		strb	r0, [sp]
 465:Task/Task_BlackBox.c ****             TaskBlackBox_UpdateQueue((uint8_t *)&blackbox_ender, BLACKBOX_ENDER_SIZE);
 1066              		.loc 1 465 13 is_stmt 1 view .LVU367
 465:Task/Task_BlackBox.c ****             TaskBlackBox_UpdateQueue((uint8_t *)&blackbox_ender, BLACKBOX_ENDER_SIZE);
 1067              		.loc 1 465 43 is_stmt 0 view .LVU368
 1068 0460 2035     		adds	r5, r5, #32
 1069 0462 6567     		str	r5, [r4, #116]
 466:Task/Task_BlackBox.c ****             imu_update = false;
 1070              		.loc 1 466 13 is_stmt 1 view .LVU369
 1071 0464 3946     		mov	r1, r7
 1072 0466 6846     		mov	r0, sp
 1073              	.LVL75:
 466:Task/Task_BlackBox.c ****             imu_update = false;
 1074              		.loc 1 466 13 is_stmt 0 view .LVU370
 1075 0468 FFF7FEFF 		bl	TaskBlackBox_UpdateQueue
 1076              	.LVL76:
 467:Task/Task_BlackBox.c ****             ctl_update = false;
 1077              		.loc 1 467 13 is_stmt 1 view .LVU371
 468:Task/Task_BlackBox.c ****         }
 1078              		.loc 1 468 13 view .LVU372
 468:Task/Task_BlackBox.c ****         }
 1079              		.loc 1 468 24 is_stmt 0 view .LVU373
 1080 046c EDE5     		b	.L31
 1081              	.LVL77:
 1082              	.L38:
 495:Task/Task_BlackBox.c ****     }
 1083              		.loc 1 495 13 is_stmt 1 view .LVU374
 1084 046e 074B     		ldr	r3, .L49+20
 1085 0470 1868     		ldr	r0, [r3]
 1086 0472 FFF7FEFF 		bl	osSemaphoreRelease
 1087              	.LVL78:
 495:Task/Task_BlackBox.c ****     }
 1088              		.loc 1 495 13 is_stmt 0 view .LVU375
 1089 0476 E8E5     		b	.L31
 1090              	.L50:
 1091              		.align	2
 1092              	.L49:
 1093 0478 00000000 		.word	.LANCHOR1
ARM GAS  C:\Users\8bit\AppData\Local\Temp\cclQGHkl.s 			page 34


 1094 047c 00000000 		.word	.LANCHOR5
 1095 0480 00000000 		.word	.LANCHOR9
 1096 0484 00000000 		.word	.LANCHOR8
 1097 0488 00000000 		.word	.LANCHOR7
 1098 048c 00000000 		.word	.LANCHOR2
 1099 0490 00000000 		.word	.LANCHOR11
 1100              		.cfi_endproc
 1101              	.LFE153:
 1103              		.section	.rodata.TaskBlackBox_Set_Log.str1.4,"aMS",%progbits,1
 1104              		.align	2
 1105              	.LC0:
 1106 0000 5B20426C 		.ascii	"[ BlackBox ] ----- Medium List\015\012\000"
 1106      61636B42 
 1106      6F78205D 
 1106      202D2D2D 
 1106      2D2D204D 
 1107 0021 000000   		.align	2
 1108              	.LC1:
 1109 0024 094E6F6E 		.ascii	"\011None ------------- 0\015\012\000"
 1109      65202D2D 
 1109      2D2D2D2D 
 1109      2D2D2D2D 
 1109      2D2D2D20 
 1110              		.align	2
 1111              	.LC2:
 1112 003c 09436172 		.ascii	"\011Card ------------- 1\015\012\000"
 1112      64202D2D 
 1112      2D2D2D2D 
 1112      2D2D2D2D 
 1112      2D2D2D20 
 1113              		.align	2
 1114              	.LC3:
 1115 0054 09436869 		.ascii	"\011Chip ------------- 2\015\012\000"
 1115      70202D2D 
 1115      2D2D2D2D 
 1115      2D2D2D2D 
 1115      2D2D2D20 
 1116              		.align	2
 1117              	.LC4:
 1118 006c 09436F6D 		.ascii	"\011Com -------------- 3\015\012\000"
 1118      202D2D2D 
 1118      2D2D2D2D 
 1118      2D2D2D2D 
 1118      2D2D2D20 
 1119              		.align	2
 1120              	.LC5:
 1121 0084 0D0A00   		.ascii	"\015\012\000"
 1122 0087 00       		.align	2
 1123              	.LC6:
 1124 0088 5B20426C 		.ascii	"[ BlackBox ] ----- Log Type List\015\012\000"
 1124      61636B42 
 1124      6F78205D 
 1124      202D2D2D 
 1124      2D2D204C 
 1125 00ab 00       		.align	2
 1126              	.LC7:
 1127 00ac 094C6F67 		.ascii	"\011Log None --------- 0\015\012\000"
ARM GAS  C:\Users\8bit\AppData\Local\Temp\cclQGHkl.s 			page 35


 1127      204E6F6E 
 1127      65202D2D 
 1127      2D2D2D2D 
 1127      2D2D2D20 
 1128              		.align	2
 1129              	.LC8:
 1130 00c4 094C6F67 		.ascii	"\011Log Imu Only ----- 1\015\012\000"
 1130      20496D75 
 1130      204F6E6C 
 1130      79202D2D 
 1130      2D2D2D20 
 1131              		.align	2
 1132              	.LC9:
 1133 00dc 094C6F67 		.ascii	"\011Log Att & Alt ---- 2\015\012\000"
 1133      20417474 
 1133      20262041 
 1133      6C74202D 
 1133      2D2D2D20 
 1134              		.align	2
 1135              	.LC10:
 1136 00f4 094C6F67 		.ascii	"\011Log PID Angular -- 3\015\012\000"
 1136      20504944 
 1136      20416E67 
 1136      756C6172 
 1136      202D2D20 
 1137              		.align	2
 1138              	.LC11:
 1139 010c 094C6F67 		.ascii	"\011Log PID Attitude - 4\015\012\000"
 1139      20504944 
 1139      20417474 
 1139      69747564 
 1139      65202D20 
 1140              		.align	2
 1141              	.LC12:
 1142 0124 09424144 		.ascii	"\011BAD MEDIUM TYPE INPUT\015\012\000"
 1142      204D4544 
 1142      49554D20 
 1142      54595045 
 1142      20494E50 
 1143 013d 000000   		.align	2
 1144              	.LC13:
 1145 0140 09424144 		.ascii	"\011BAD LOG DATA TYPE INPUT\015\012\000"
 1145      204C4F47 
 1145      20444154 
 1145      41205459 
 1145      50452049 
 1146 015b 00       		.align	2
 1147              	.LC14:
 1148 015c 094F6E6C 		.ascii	"\011Only support storage chip modlue currently\015\012"
 1148      79207375 
 1148      70706F72 
 1148      74207374 
 1148      6F726167 
 1149 0189 00       		.ascii	"\000"
 1150 018a 0000     		.align	2
 1151              	.LC15:
 1152 018c 094E6F74 		.ascii	"\011Not support currently\015\012\000"
ARM GAS  C:\Users\8bit\AppData\Local\Temp\cclQGHkl.s 			page 36


 1152      20737570 
 1152      706F7274 
 1152      20637572 
 1152      72656E74 
 1153 01a5 000000   		.align	2
 1154              	.LC16:
 1155 01a8 426C6163 		.ascii	"BlackBox\000"
 1155      6B426F78 
 1155      00
 1156 01b1 000000   		.align	2
 1157              	.LC17:
 1158 01b4 094C6F67 		.ascii	"\011Log info storage failed\015\012\000"
 1158      20696E66 
 1158      6F207374 
 1158      6F726167 
 1158      65206661 
 1159 01cf 00       		.align	2
 1160              	.LC18:
 1161 01d0 094C6F67 		.ascii	"\011Log info storage saved\015\012\000"
 1161      20696E66 
 1161      6F207374 
 1161      6F726167 
 1161      65207361 
 1162 01ea 0000     		.align	2
 1163              	.LC19:
 1164 01ec 09726562 		.ascii	"\011reboot is required\015\012\000"
 1164      6F6F7420 
 1164      69732072 
 1164      65717569 
 1164      7265640D 
 1165              		.section	.text.TaskBlackBox_Set_Log,"ax",%progbits
 1166              		.align	1
 1167              		.syntax unified
 1168              		.thumb
 1169              		.thumb_func
 1171              	TaskBlackBox_Set_Log:
 1172              	.LVL79:
 1173              	.LFB156:
 500:Task/Task_BlackBox.c **** 
 501:Task/Task_BlackBox.c **** void TaskBlackBox_LogControl(void)
 502:Task/Task_BlackBox.c **** {
 503:Task/Task_BlackBox.c ****     if (Monitor.state != BlackBox_Log_Enable)
 504:Task/Task_BlackBox.c ****     {
 505:Task/Task_BlackBox.c ****         Monitor.log_cnt = 0;
 506:Task/Task_BlackBox.c ****         Monitor.log_byte_size = 0;
 507:Task/Task_BlackBox.c ****         Queue.reset(&BlackBox_Queue);
 508:Task/Task_BlackBox.c **** 
 509:Task/Task_BlackBox.c ****         if (p_blackbox->enable && p_blackbox->enable())
 510:Task/Task_BlackBox.c ****             Monitor.state = BlackBox_Log_Enable;
 511:Task/Task_BlackBox.c ****     }
 512:Task/Task_BlackBox.c ****     else
 513:Task/Task_BlackBox.c ****         Monitor.state = BlackBox_Log_Disable;
 514:Task/Task_BlackBox.c **** }
 515:Task/Task_BlackBox.c **** 
 516:Task/Task_BlackBox.c **** bool TaskBlackBox_Set_LogInfo(BlackBox_MediumType_List medium, BlackBox_LogType_List type, uint32_t
 517:Task/Task_BlackBox.c **** {
 518:Task/Task_BlackBox.c ****     BlackBox_LogInfo_TypeDef info;
ARM GAS  C:\Users\8bit\AppData\Local\Temp\cclQGHkl.s 			page 37


 519:Task/Task_BlackBox.c ****     Storage_ItemSearchOut_TypeDef search_out;
 520:Task/Task_BlackBox.c **** 
 521:Task/Task_BlackBox.c ****     memset(&search_out, 0, sizeof(Storage_ItemSearchOut_TypeDef));
 522:Task/Task_BlackBox.c ****     memset(&info, 0, sizeof(BlackBox_LogInfo_TypeDef));
 523:Task/Task_BlackBox.c **** 
 524:Task/Task_BlackBox.c ****     switch ((uint8_t) medium)
 525:Task/Task_BlackBox.c ****     {
 526:Task/Task_BlackBox.c ****         case BlackBox_Medium_Card:
 527:Task/Task_BlackBox.c ****         case BlackBox_Medium_Chip:
 528:Task/Task_BlackBox.c ****         case BlackBox_Medium_Com:
 529:Task/Task_BlackBox.c ****             break;
 530:Task/Task_BlackBox.c ****         default: return false;
 531:Task/Task_BlackBox.c ****     }
 532:Task/Task_BlackBox.c **** 
 533:Task/Task_BlackBox.c ****     switch ((uint8_t) type)
 534:Task/Task_BlackBox.c ****     {
 535:Task/Task_BlackBox.c ****         case BlackBox_Log_None:
 536:Task/Task_BlackBox.c ****         case BlackBox_Imu_Filted:
 537:Task/Task_BlackBox.c ****         case BlackBox_Log_Alt_Att:
 538:Task/Task_BlackBox.c ****         case BlackBox_AngularPID_Tune:
 539:Task/Task_BlackBox.c ****         case BlackBox_AttitudePID_Tune:
 540:Task/Task_BlackBox.c ****             break;
 541:Task/Task_BlackBox.c ****         default: return false;
 542:Task/Task_BlackBox.c ****     }
 543:Task/Task_BlackBox.c **** 
 544:Task/Task_BlackBox.c ****     info.medium = medium;
 545:Task/Task_BlackBox.c ****     info.log_type = type;
 546:Task/Task_BlackBox.c ****     info.log_size = size;
 547:Task/Task_BlackBox.c **** 
 548:Task/Task_BlackBox.c ****     search_out = Storage.search(Para_User, BlackBox_Storage_Name);
 549:Task/Task_BlackBox.c ****     if (search_out.item_addr == 0)
 550:Task/Task_BlackBox.c ****     {
 551:Task/Task_BlackBox.c ****         /* create storage section */
 552:Task/Task_BlackBox.c ****         if (Storage.create(Para_User, BlackBox_Storage_Name, (uint8_t *)&info, sizeof(BlackBox_LogI
 553:Task/Task_BlackBox.c ****             return false;
 554:Task/Task_BlackBox.c ****     }
 555:Task/Task_BlackBox.c **** 
 556:Task/Task_BlackBox.c ****     if (Storage.update(Para_User, search_out.item.data_addr, (uint8_t *)&info, sizeof(BlackBox_LogI
 557:Task/Task_BlackBox.c ****         return false;
 558:Task/Task_BlackBox.c **** 
 559:Task/Task_BlackBox.c ****     return true;
 560:Task/Task_BlackBox.c **** }
 561:Task/Task_BlackBox.c **** 
 562:Task/Task_BlackBox.c **** /****************************************************************** shell api implement ***********
 563:Task/Task_BlackBox.c **** static void TaskBlackBox_Set_Log(uint8_t medium, uint8_t type, uint32_t size)
 564:Task/Task_BlackBox.c **** {
 1174              		.loc 1 564 1 is_stmt 1 view -0
 1175              		.cfi_startproc
 1176              		@ args = 0, pretend = 0, frame = 80
 1177              		@ frame_needed = 0, uses_anonymous_args = 0
 1178              		.loc 1 564 1 is_stmt 0 view .LVU377
 1179 0000 2DE9F041 		push	{r4, r5, r6, r7, r8, lr}
 1180              	.LCFI8:
 1181              		.cfi_def_cfa_offset 24
 1182              		.cfi_offset 4, -24
 1183              		.cfi_offset 5, -20
 1184              		.cfi_offset 6, -16
ARM GAS  C:\Users\8bit\AppData\Local\Temp\cclQGHkl.s 			page 38


 1185              		.cfi_offset 7, -12
 1186              		.cfi_offset 8, -8
 1187              		.cfi_offset 14, -4
 1188 0004 94B0     		sub	sp, sp, #80
 1189              	.LCFI9:
 1190              		.cfi_def_cfa_offset 104
 1191 0006 0546     		mov	r5, r0
 1192 0008 0E46     		mov	r6, r1
 1193 000a 1746     		mov	r7, r2
 565:Task/Task_BlackBox.c ****     Shell *shell_obj = Shell_GetInstence();
 1194              		.loc 1 565 5 is_stmt 1 view .LVU378
 1195              		.loc 1 565 24 is_stmt 0 view .LVU379
 1196 000c FFF7FEFF 		bl	Shell_GetInstence
 1197              	.LVL80:
 566:Task/Task_BlackBox.c ****     Storage_ItemSearchOut_TypeDef search_out;
 1198              		.loc 1 566 5 is_stmt 1 view .LVU380
 567:Task/Task_BlackBox.c ****     BlackBox_LogInfo_TypeDef info;
 1199              		.loc 1 567 5 view .LVU381
 568:Task/Task_BlackBox.c **** 
 569:Task/Task_BlackBox.c ****     if (shell_obj == NULL)
 1200              		.loc 1 569 5 view .LVU382
 1201              		.loc 1 569 8 is_stmt 0 view .LVU383
 1202 0010 0028     		cmp	r0, #0
 1203 0012 5CD0     		beq	.L51
 1204 0014 0446     		mov	r4, r0
 570:Task/Task_BlackBox.c ****         return;
 571:Task/Task_BlackBox.c ****     
 572:Task/Task_BlackBox.c ****     shellPrint(shell_obj, "[ BlackBox ] ----- Medium List\r\n");
 1205              		.loc 1 572 5 is_stmt 1 view .LVU384
 1206 0016 4049     		ldr	r1, .L68
 1207 0018 FFF7FEFF 		bl	shellPrint
 1208              	.LVL81:
 573:Task/Task_BlackBox.c ****     shellPrint(shell_obj, "\tNone ------------- 0\r\n");
 1209              		.loc 1 573 5 view .LVU385
 1210 001c 3F49     		ldr	r1, .L68+4
 1211 001e 2046     		mov	r0, r4
 1212 0020 FFF7FEFF 		bl	shellPrint
 1213              	.LVL82:
 574:Task/Task_BlackBox.c ****     shellPrint(shell_obj, "\tCard ------------- 1\r\n");
 1214              		.loc 1 574 5 view .LVU386
 1215 0024 3E49     		ldr	r1, .L68+8
 1216 0026 2046     		mov	r0, r4
 1217 0028 FFF7FEFF 		bl	shellPrint
 1218              	.LVL83:
 575:Task/Task_BlackBox.c ****     shellPrint(shell_obj, "\tChip ------------- 2\r\n");
 1219              		.loc 1 575 5 view .LVU387
 1220 002c 3D49     		ldr	r1, .L68+12
 1221 002e 2046     		mov	r0, r4
 1222 0030 FFF7FEFF 		bl	shellPrint
 1223              	.LVL84:
 576:Task/Task_BlackBox.c ****     shellPrint(shell_obj, "\tCom -------------- 3\r\n");
 1224              		.loc 1 576 5 view .LVU388
 1225 0034 3C49     		ldr	r1, .L68+16
 1226 0036 2046     		mov	r0, r4
 1227 0038 FFF7FEFF 		bl	shellPrint
 1228              	.LVL85:
 577:Task/Task_BlackBox.c ****     shellPrint(shell_obj, "\r\n");
ARM GAS  C:\Users\8bit\AppData\Local\Temp\cclQGHkl.s 			page 39


 1229              		.loc 1 577 5 view .LVU389
 1230 003c DFF82881 		ldr	r8, .L68+80
 1231 0040 4146     		mov	r1, r8
 1232 0042 2046     		mov	r0, r4
 1233 0044 FFF7FEFF 		bl	shellPrint
 1234              	.LVL86:
 578:Task/Task_BlackBox.c ****     shellPrint(shell_obj, "[ BlackBox ] ----- Log Type List\r\n");
 1235              		.loc 1 578 5 view .LVU390
 1236 0048 3849     		ldr	r1, .L68+20
 1237 004a 2046     		mov	r0, r4
 1238 004c FFF7FEFF 		bl	shellPrint
 1239              	.LVL87:
 579:Task/Task_BlackBox.c ****     shellPrint(shell_obj, "\tLog None --------- 0\r\n");
 1240              		.loc 1 579 5 view .LVU391
 1241 0050 3749     		ldr	r1, .L68+24
 1242 0052 2046     		mov	r0, r4
 1243 0054 FFF7FEFF 		bl	shellPrint
 1244              	.LVL88:
 580:Task/Task_BlackBox.c ****     shellPrint(shell_obj, "\tLog Imu Only ----- 1\r\n");
 1245              		.loc 1 580 5 view .LVU392
 1246 0058 3649     		ldr	r1, .L68+28
 1247 005a 2046     		mov	r0, r4
 1248 005c FFF7FEFF 		bl	shellPrint
 1249              	.LVL89:
 581:Task/Task_BlackBox.c ****     shellPrint(shell_obj, "\tLog Att & Alt ---- 2\r\n");
 1250              		.loc 1 581 5 view .LVU393
 1251 0060 3549     		ldr	r1, .L68+32
 1252 0062 2046     		mov	r0, r4
 1253 0064 FFF7FEFF 		bl	shellPrint
 1254              	.LVL90:
 582:Task/Task_BlackBox.c ****     shellPrint(shell_obj, "\tLog PID Angular -- 3\r\n");
 1255              		.loc 1 582 5 view .LVU394
 1256 0068 3449     		ldr	r1, .L68+36
 1257 006a 2046     		mov	r0, r4
 1258 006c FFF7FEFF 		bl	shellPrint
 1259              	.LVL91:
 583:Task/Task_BlackBox.c ****     shellPrint(shell_obj, "\tLog PID Attitude - 4\r\n");
 1260              		.loc 1 583 5 view .LVU395
 1261 0070 3349     		ldr	r1, .L68+40
 1262 0072 2046     		mov	r0, r4
 1263 0074 FFF7FEFF 		bl	shellPrint
 1264              	.LVL92:
 584:Task/Task_BlackBox.c ****     shellPrint(shell_obj, "\r\n");
 1265              		.loc 1 584 5 view .LVU396
 1266 0078 4146     		mov	r1, r8
 1267 007a 2046     		mov	r0, r4
 1268 007c FFF7FEFF 		bl	shellPrint
 1269              	.LVL93:
 585:Task/Task_BlackBox.c **** 
 586:Task/Task_BlackBox.c ****     if ((medium > (uint8_t)BlackBox_Medium_Com) || (type > (uint8_t)BlackBox_AttitudePID_Tune))
 1270              		.loc 1 586 5 view .LVU397
 1271              		.loc 1 586 8 is_stmt 0 view .LVU398
 1272 0080 032D     		cmp	r5, #3
 1273 0082 20D8     		bhi	.L53
 1274              		.loc 1 586 49 discriminator 1 view .LVU399
 1275 0084 042E     		cmp	r6, #4
 1276 0086 1ED8     		bhi	.L53
ARM GAS  C:\Users\8bit\AppData\Local\Temp\cclQGHkl.s 			page 40


 587:Task/Task_BlackBox.c ****     {
 588:Task/Task_BlackBox.c ****         if (medium > (uint8_t)BlackBox_Medium_Com)
 589:Task/Task_BlackBox.c ****             shellPrint(shell_obj, "\tBAD MEDIUM TYPE INPUT\r\n");
 590:Task/Task_BlackBox.c **** 
 591:Task/Task_BlackBox.c ****         if (type > (uint8_t)BlackBox_AttitudePID_Tune)
 592:Task/Task_BlackBox.c ****             shellPrint(shell_obj, "\tBAD LOG DATA TYPE INPUT\r\n");
 593:Task/Task_BlackBox.c **** 
 594:Task/Task_BlackBox.c ****         return;
 595:Task/Task_BlackBox.c ****     }
 596:Task/Task_BlackBox.c **** 
 597:Task/Task_BlackBox.c ****     /* for currently */
 598:Task/Task_BlackBox.c ****     if ((medium != (uint8_t)BlackBox_Medium_Chip) || \
 1277              		.loc 1 598 5 is_stmt 1 view .LVU400
 1278              		.loc 1 598 8 is_stmt 0 view .LVU401
 1279 0088 022D     		cmp	r5, #2
 1280 008a 2DD1     		bne	.L57
 1281              		.loc 1 598 51 discriminator 1 view .LVU402
 1282 008c 042E     		cmp	r6, #4
 1283 008e 2BD0     		beq	.L57
 599:Task/Task_BlackBox.c ****         (type == (uint8_t)BlackBox_AttitudePID_Tune))
 600:Task/Task_BlackBox.c ****     {
 601:Task/Task_BlackBox.c ****         if (medium != (uint8_t)BlackBox_Medium_Chip)
 602:Task/Task_BlackBox.c ****             shellPrint(shell_obj, "\tOnly support storage chip modlue currently\r\n");
 603:Task/Task_BlackBox.c ****         
 604:Task/Task_BlackBox.c ****         if (type == (uint8_t)BlackBox_AttitudePID_Tune)
 605:Task/Task_BlackBox.c ****             shellPrint(shell_obj, "\tNot support currently\r\n");
 606:Task/Task_BlackBox.c **** 
 607:Task/Task_BlackBox.c ****         return;
 608:Task/Task_BlackBox.c ****     }
 609:Task/Task_BlackBox.c **** 
 610:Task/Task_BlackBox.c ****     info.medium = medium;
 1284              		.loc 1 610 5 is_stmt 1 view .LVU403
 1285              		.loc 1 610 17 is_stmt 0 view .LVU404
 1286 0090 8DF80050 		strb	r5, [sp]
 611:Task/Task_BlackBox.c ****     info.log_type = type;
 1287              		.loc 1 611 5 is_stmt 1 view .LVU405
 1288              		.loc 1 611 19 is_stmt 0 view .LVU406
 1289 0094 8DF80160 		strb	r6, [sp, #1]
 612:Task/Task_BlackBox.c ****     info.log_size = size;   /* only when tf blackbox avaliable */
 1290              		.loc 1 612 5 is_stmt 1 view .LVU407
 1291              		.loc 1 612 19 is_stmt 0 view .LVU408
 1292 0098 CDF80270 		str	r7, [sp, #2]	@ unaligned
 613:Task/Task_BlackBox.c **** 
 614:Task/Task_BlackBox.c ****     search_out = Storage.search(Para_User, BlackBox_Storage_Name);
 1293              		.loc 1 614 5 is_stmt 1 view .LVU409
 1294              		.loc 1 614 25 is_stmt 0 view .LVU410
 1295 009c 294B     		ldr	r3, .L68+44
 1296 009e 5B68     		ldr	r3, [r3, #4]
 1297              		.loc 1 614 18 view .LVU411
 1298 00a0 294A     		ldr	r2, .L68+48
 1299 00a2 0221     		movs	r1, #2
 1300 00a4 02A8     		add	r0, sp, #8
 1301 00a6 9847     		blx	r3
 1302              	.LVL94:
 615:Task/Task_BlackBox.c ****     if ((search_out.item_addr == 0) || \
 1303              		.loc 1 615 5 is_stmt 1 view .LVU412
 1304              		.loc 1 615 20 is_stmt 0 view .LVU413
ARM GAS  C:\Users\8bit\AppData\Local\Temp\cclQGHkl.s 			page 41


 1305 00a8 029B     		ldr	r3, [sp, #8]
 1306              		.loc 1 615 8 view .LVU414
 1307 00aa 3BB1     		cbz	r3, .L61
 616:Task/Task_BlackBox.c ****         (Storage.update(Para_User, search_out.item.data_addr, (uint8_t *)&info, sizeof(BlackBox_Log
 1308              		.loc 1 616 17 discriminator 1 view .LVU415
 1309 00ac 254B     		ldr	r3, .L68+44
 1310 00ae DD68     		ldr	r5, [r3, #12]
 1311              		.loc 1 616 10 discriminator 1 view .LVU416
 1312 00b0 0623     		movs	r3, #6
 1313 00b2 6A46     		mov	r2, sp
 1314 00b4 0E99     		ldr	r1, [sp, #56]
 1315 00b6 0220     		movs	r0, #2
 1316 00b8 A847     		blx	r5
 1317              	.LVL95:
 615:Task/Task_BlackBox.c ****     if ((search_out.item_addr == 0) || \
 1318              		.loc 1 615 37 discriminator 1 view .LVU417
 1319 00ba 18B3     		cbz	r0, .L62
 1320              	.L61:
 617:Task/Task_BlackBox.c ****     {
 618:Task/Task_BlackBox.c ****         shellPrint(shell_obj, "\tLog info storage failed\r\n");
 1321              		.loc 1 618 9 is_stmt 1 view .LVU418
 1322 00bc 2349     		ldr	r1, .L68+52
 1323 00be 2046     		mov	r0, r4
 1324 00c0 FFF7FEFF 		bl	shellPrint
 1325              	.LVL96:
 619:Task/Task_BlackBox.c ****         return;
 1326              		.loc 1 619 9 view .LVU419
 1327 00c4 03E0     		b	.L51
 1328              	.L53:
 588:Task/Task_BlackBox.c ****             shellPrint(shell_obj, "\tBAD MEDIUM TYPE INPUT\r\n");
 1329              		.loc 1 588 9 view .LVU420
 588:Task/Task_BlackBox.c ****             shellPrint(shell_obj, "\tBAD MEDIUM TYPE INPUT\r\n");
 1330              		.loc 1 588 12 is_stmt 0 view .LVU421
 1331 00c6 032D     		cmp	r5, #3
 1332 00c8 04D8     		bhi	.L65
 1333              	.L55:
 591:Task/Task_BlackBox.c ****             shellPrint(shell_obj, "\tBAD LOG DATA TYPE INPUT\r\n");
 1334              		.loc 1 591 9 is_stmt 1 view .LVU422
 591:Task/Task_BlackBox.c ****             shellPrint(shell_obj, "\tBAD LOG DATA TYPE INPUT\r\n");
 1335              		.loc 1 591 12 is_stmt 0 view .LVU423
 1336 00ca 042E     		cmp	r6, #4
 1337 00cc 07D8     		bhi	.L66
 1338              	.LVL97:
 1339              	.L51:
 620:Task/Task_BlackBox.c ****     }
 621:Task/Task_BlackBox.c **** 
 622:Task/Task_BlackBox.c ****     shellPrint(shell_obj, "\tLog info storage saved\r\n");
 623:Task/Task_BlackBox.c ****     shellPrint(shell_obj, "\treboot is required\r\n");
 624:Task/Task_BlackBox.c **** }
 1340              		.loc 1 624 1 view .LVU424
 1341 00ce 14B0     		add	sp, sp, #80
 1342              	.LCFI10:
 1343              		.cfi_remember_state
 1344              		.cfi_def_cfa_offset 24
 1345              		@ sp needed
 1346 00d0 BDE8F081 		pop	{r4, r5, r6, r7, r8, pc}
 1347              	.LVL98:
ARM GAS  C:\Users\8bit\AppData\Local\Temp\cclQGHkl.s 			page 42


 1348              	.L65:
 1349              	.LCFI11:
 1350              		.cfi_restore_state
 589:Task/Task_BlackBox.c **** 
 1351              		.loc 1 589 13 is_stmt 1 view .LVU425
 1352 00d4 1E49     		ldr	r1, .L68+56
 1353 00d6 2046     		mov	r0, r4
 1354 00d8 FFF7FEFF 		bl	shellPrint
 1355              	.LVL99:
 1356 00dc F5E7     		b	.L55
 1357              	.L66:
 592:Task/Task_BlackBox.c **** 
 1358              		.loc 1 592 13 view .LVU426
 1359 00de 1D49     		ldr	r1, .L68+60
 1360 00e0 2046     		mov	r0, r4
 1361 00e2 FFF7FEFF 		bl	shellPrint
 1362              	.LVL100:
 594:Task/Task_BlackBox.c ****     }
 1363              		.loc 1 594 9 view .LVU427
 1364 00e6 F2E7     		b	.L51
 1365              	.L57:
 601:Task/Task_BlackBox.c ****             shellPrint(shell_obj, "\tOnly support storage chip modlue currently\r\n");
 1366              		.loc 1 601 9 view .LVU428
 601:Task/Task_BlackBox.c ****             shellPrint(shell_obj, "\tOnly support storage chip modlue currently\r\n");
 1367              		.loc 1 601 12 is_stmt 0 view .LVU429
 1368 00e8 022D     		cmp	r5, #2
 1369 00ea 06D1     		bne	.L67
 1370              	.L59:
 604:Task/Task_BlackBox.c ****             shellPrint(shell_obj, "\tNot support currently\r\n");
 1371              		.loc 1 604 9 is_stmt 1 view .LVU430
 604:Task/Task_BlackBox.c ****             shellPrint(shell_obj, "\tNot support currently\r\n");
 1372              		.loc 1 604 12 is_stmt 0 view .LVU431
 1373 00ec 042E     		cmp	r6, #4
 1374 00ee EED1     		bne	.L51
 605:Task/Task_BlackBox.c **** 
 1375              		.loc 1 605 13 is_stmt 1 view .LVU432
 1376 00f0 1949     		ldr	r1, .L68+64
 1377 00f2 2046     		mov	r0, r4
 1378 00f4 FFF7FEFF 		bl	shellPrint
 1379              	.LVL101:
 607:Task/Task_BlackBox.c ****     }
 1380              		.loc 1 607 9 view .LVU433
 1381 00f8 E9E7     		b	.L51
 1382              	.L67:
 602:Task/Task_BlackBox.c ****         
 1383              		.loc 1 602 13 view .LVU434
 1384 00fa 1849     		ldr	r1, .L68+68
 1385 00fc 2046     		mov	r0, r4
 1386 00fe FFF7FEFF 		bl	shellPrint
 1387              	.LVL102:
 1388 0102 F3E7     		b	.L59
 1389              	.L62:
 622:Task/Task_BlackBox.c ****     shellPrint(shell_obj, "\treboot is required\r\n");
 1390              		.loc 1 622 5 view .LVU435
 1391 0104 1649     		ldr	r1, .L68+72
 1392 0106 2046     		mov	r0, r4
 1393 0108 FFF7FEFF 		bl	shellPrint
ARM GAS  C:\Users\8bit\AppData\Local\Temp\cclQGHkl.s 			page 43


 1394              	.LVL103:
 623:Task/Task_BlackBox.c **** }
 1395              		.loc 1 623 5 view .LVU436
 1396 010c 1549     		ldr	r1, .L68+76
 1397 010e 2046     		mov	r0, r4
 1398 0110 FFF7FEFF 		bl	shellPrint
 1399              	.LVL104:
 1400 0114 DBE7     		b	.L51
 1401              	.L69:
 1402 0116 00BF     		.align	2
 1403              	.L68:
 1404 0118 00000000 		.word	.LC0
 1405 011c 24000000 		.word	.LC1
 1406 0120 3C000000 		.word	.LC2
 1407 0124 54000000 		.word	.LC3
 1408 0128 6C000000 		.word	.LC4
 1409 012c 88000000 		.word	.LC6
 1410 0130 AC000000 		.word	.LC7
 1411 0134 C4000000 		.word	.LC8
 1412 0138 DC000000 		.word	.LC9
 1413 013c F4000000 		.word	.LC10
 1414 0140 0C010000 		.word	.LC11
 1415 0144 00000000 		.word	Storage
 1416 0148 A8010000 		.word	.LC16
 1417 014c B4010000 		.word	.LC17
 1418 0150 24010000 		.word	.LC12
 1419 0154 40010000 		.word	.LC13
 1420 0158 8C010000 		.word	.LC15
 1421 015c 5C010000 		.word	.LC14
 1422 0160 D0010000 		.word	.LC18
 1423 0164 EC010000 		.word	.LC19
 1424 0168 84000000 		.word	.LC5
 1425              		.cfi_endproc
 1426              	.LFE156:
 1428              		.section	.rodata.TaskBlackBox_EnableLog.str1.4,"aMS",%progbits,1
 1429              		.align	2
 1430              	.LC20:
 1431 0000 5B204261 		.ascii	"[ BalckBox ] Enable\015\015\000"
 1431      6C636B42 
 1431      6F78205D 
 1431      20456E61 
 1431      626C650D 
 1432 0016 0000     		.align	2
 1433              	.LC21:
 1434 0018 5B20426C 		.ascii	"[ BlackBox ] Enable Failed\015\012\000"
 1434      61636B42 
 1434      6F78205D 
 1434      20456E61 
 1434      626C6520 
 1435              		.section	.text.TaskBlackBox_EnableLog,"ax",%progbits
 1436              		.align	1
 1437              		.syntax unified
 1438              		.thumb
 1439              		.thumb_func
 1441              	TaskBlackBox_EnableLog:
 1442              	.LFB157:
 625:Task/Task_BlackBox.c **** SHELL_EXPORT_CMD(SHELL_CMD_PERMISSION(0) | SHELL_CMD_TYPE(SHELL_TYPE_CMD_FUNC) | SHELL_CMD_DISABLE_
ARM GAS  C:\Users\8bit\AppData\Local\Temp\cclQGHkl.s 			page 44


 626:Task/Task_BlackBox.c **** 
 627:Task/Task_BlackBox.c **** static void TaskBlackBox_EnableLog(void)
 628:Task/Task_BlackBox.c **** {
 1443              		.loc 1 628 1 view -0
 1444              		.cfi_startproc
 1445              		@ args = 0, pretend = 0, frame = 0
 1446              		@ frame_needed = 0, uses_anonymous_args = 0
 1447 0000 10B5     		push	{r4, lr}
 1448              	.LCFI12:
 1449              		.cfi_def_cfa_offset 8
 1450              		.cfi_offset 4, -8
 1451              		.cfi_offset 14, -4
 629:Task/Task_BlackBox.c ****     Shell *shell_obj = Shell_GetInstence();
 1452              		.loc 1 629 5 view .LVU438
 1453              		.loc 1 629 24 is_stmt 0 view .LVU439
 1454 0002 FFF7FEFF 		bl	Shell_GetInstence
 1455              	.LVL105:
 630:Task/Task_BlackBox.c **** 
 631:Task/Task_BlackBox.c ****     if ((shell_obj == NULL) || (p_blackbox == NULL))
 1456              		.loc 1 631 5 is_stmt 1 view .LVU440
 1457              		.loc 1 631 8 is_stmt 0 view .LVU441
 1458 0006 58B1     		cbz	r0, .L70
 1459 0008 0446     		mov	r4, r0
 1460              		.loc 1 631 44 discriminator 1 view .LVU442
 1461 000a 0D4B     		ldr	r3, .L75
 1462 000c 1B68     		ldr	r3, [r3]
 1463              		.loc 1 631 29 discriminator 1 view .LVU443
 1464 000e 3BB1     		cbz	r3, .L70
 632:Task/Task_BlackBox.c ****         return;
 633:Task/Task_BlackBox.c **** 
 634:Task/Task_BlackBox.c ****     if (p_blackbox->enable && p_blackbox->enable())
 1465              		.loc 1 634 5 is_stmt 1 view .LVU444
 1466              		.loc 1 634 19 is_stmt 0 view .LVU445
 1467 0010 5B68     		ldr	r3, [r3, #4]
 1468              		.loc 1 634 8 view .LVU446
 1469 0012 0BB1     		cbz	r3, .L72
 1470              		.loc 1 634 31 discriminator 1 view .LVU447
 1471 0014 9847     		blx	r3
 1472              	.LVL106:
 1473              		.loc 1 634 28 discriminator 1 view .LVU448
 1474 0016 20B9     		cbnz	r0, .L74
 1475              	.L72:
 635:Task/Task_BlackBox.c ****     {
 636:Task/Task_BlackBox.c ****         shellPrint(shell_obj, "[ BalckBox ] Enable\r\r");
 637:Task/Task_BlackBox.c ****         Monitor.state = BlackBox_Log_Enable;
 638:Task/Task_BlackBox.c ****         Monitor.log_cnt = 0;
 639:Task/Task_BlackBox.c ****         Monitor.log_byte_size = 0;
 640:Task/Task_BlackBox.c ****         Queue.reset(&BlackBox_Queue);
 641:Task/Task_BlackBox.c ****     }
 642:Task/Task_BlackBox.c ****     else
 643:Task/Task_BlackBox.c ****         shellPrint(shell_obj, "[ BlackBox ] Enable Failed\r\n");
 1476              		.loc 1 643 9 is_stmt 1 view .LVU449
 1477 0018 0A49     		ldr	r1, .L75+4
 1478 001a 2046     		mov	r0, r4
 1479 001c FFF7FEFF 		bl	shellPrint
 1480              	.LVL107:
 1481              	.L70:
ARM GAS  C:\Users\8bit\AppData\Local\Temp\cclQGHkl.s 			page 45


 644:Task/Task_BlackBox.c **** }
 1482              		.loc 1 644 1 is_stmt 0 view .LVU450
 1483 0020 10BD     		pop	{r4, pc}
 1484              	.LVL108:
 1485              	.L74:
 636:Task/Task_BlackBox.c ****         Monitor.state = BlackBox_Log_Enable;
 1486              		.loc 1 636 9 is_stmt 1 view .LVU451
 1487 0022 0949     		ldr	r1, .L75+8
 1488 0024 2046     		mov	r0, r4
 1489 0026 FFF7FEFF 		bl	shellPrint
 1490              	.LVL109:
 637:Task/Task_BlackBox.c ****         Monitor.log_cnt = 0;
 1491              		.loc 1 637 9 view .LVU452
 637:Task/Task_BlackBox.c ****         Monitor.log_cnt = 0;
 1492              		.loc 1 637 23 is_stmt 0 view .LVU453
 1493 002a 084B     		ldr	r3, .L75+12
 1494 002c 0122     		movs	r2, #1
 1495 002e 1A70     		strb	r2, [r3]
 638:Task/Task_BlackBox.c ****         Monitor.log_byte_size = 0;
 1496              		.loc 1 638 9 is_stmt 1 view .LVU454
 638:Task/Task_BlackBox.c ****         Monitor.log_byte_size = 0;
 1497              		.loc 1 638 25 is_stmt 0 view .LVU455
 1498 0030 0022     		movs	r2, #0
 1499 0032 DA65     		str	r2, [r3, #92]
 639:Task/Task_BlackBox.c ****         Queue.reset(&BlackBox_Queue);
 1500              		.loc 1 639 9 is_stmt 1 view .LVU456
 639:Task/Task_BlackBox.c ****         Queue.reset(&BlackBox_Queue);
 1501              		.loc 1 639 31 is_stmt 0 view .LVU457
 1502 0034 9A65     		str	r2, [r3, #88]
 640:Task/Task_BlackBox.c ****     }
 1503              		.loc 1 640 9 is_stmt 1 view .LVU458
 640:Task/Task_BlackBox.c ****     }
 1504              		.loc 1 640 14 is_stmt 0 view .LVU459
 1505 0036 064B     		ldr	r3, .L75+16
 1506 0038 1B69     		ldr	r3, [r3, #16]
 640:Task/Task_BlackBox.c ****     }
 1507              		.loc 1 640 9 view .LVU460
 1508 003a 0648     		ldr	r0, .L75+20
 1509 003c 9847     		blx	r3
 1510              	.LVL110:
 1511 003e EFE7     		b	.L70
 1512              	.L76:
 1513              		.align	2
 1514              	.L75:
 1515 0040 00000000 		.word	.LANCHOR12
 1516 0044 18000000 		.word	.LC21
 1517 0048 00000000 		.word	.LC20
 1518 004c 00000000 		.word	.LANCHOR1
 1519 0050 00000000 		.word	Queue
 1520 0054 00000000 		.word	.LANCHOR0
 1521              		.cfi_endproc
 1522              	.LFE157:
 1524              		.section	.rodata.TaskBlackBox_DisableLog.str1.4,"aMS",%progbits,1
 1525              		.align	2
 1526              	.LC22:
 1527 0000 5B204261 		.ascii	"[ BalckBox ] Disable\015\015\000"
 1527      6C636B42 
ARM GAS  C:\Users\8bit\AppData\Local\Temp\cclQGHkl.s 			page 46


 1527      6F78205D 
 1527      20446973 
 1527      61626C65 
 1528              		.section	.text.TaskBlackBox_DisableLog,"ax",%progbits
 1529              		.align	1
 1530              		.syntax unified
 1531              		.thumb
 1532              		.thumb_func
 1534              	TaskBlackBox_DisableLog:
 1535              	.LFB158:
 645:Task/Task_BlackBox.c **** SHELL_EXPORT_CMD(SHELL_CMD_PERMISSION(0) | SHELL_CMD_TYPE(SHELL_TYPE_CMD_FUNC) | SHELL_CMD_DISABLE_
 646:Task/Task_BlackBox.c **** 
 647:Task/Task_BlackBox.c **** static void TaskBlackBox_DisableLog(void)
 648:Task/Task_BlackBox.c **** {
 1536              		.loc 1 648 1 is_stmt 1 view -0
 1537              		.cfi_startproc
 1538              		@ args = 0, pretend = 0, frame = 0
 1539              		@ frame_needed = 0, uses_anonymous_args = 0
 1540 0000 08B5     		push	{r3, lr}
 1541              	.LCFI13:
 1542              		.cfi_def_cfa_offset 8
 1543              		.cfi_offset 3, -8
 1544              		.cfi_offset 14, -4
 649:Task/Task_BlackBox.c ****     Shell *shell_obj = Shell_GetInstence();
 1545              		.loc 1 649 5 view .LVU462
 1546              		.loc 1 649 24 is_stmt 0 view .LVU463
 1547 0002 FFF7FEFF 		bl	Shell_GetInstence
 1548              	.LVL111:
 650:Task/Task_BlackBox.c **** 
 651:Task/Task_BlackBox.c ****     if ((shell_obj == NULL) || (p_blackbox == NULL))
 1549              		.loc 1 651 5 is_stmt 1 view .LVU464
 1550              		.loc 1 651 8 is_stmt 0 view .LVU465
 1551 0006 40B1     		cbz	r0, .L77
 1552              		.loc 1 651 44 discriminator 1 view .LVU466
 1553 0008 044B     		ldr	r3, .L80
 1554 000a 1B68     		ldr	r3, [r3]
 1555              		.loc 1 651 29 discriminator 1 view .LVU467
 1556 000c 2BB1     		cbz	r3, .L77
 652:Task/Task_BlackBox.c ****         return;
 653:Task/Task_BlackBox.c **** 
 654:Task/Task_BlackBox.c ****     Monitor.state = BlackBox_Log_Disable;
 1557              		.loc 1 654 5 is_stmt 1 view .LVU468
 1558              		.loc 1 654 19 is_stmt 0 view .LVU469
 1559 000e 044B     		ldr	r3, .L80+4
 1560 0010 0221     		movs	r1, #2
 1561 0012 1970     		strb	r1, [r3]
 655:Task/Task_BlackBox.c ****     shellPrint(shell_obj, "[ BalckBox ] Disable\r\r");
 1562              		.loc 1 655 5 is_stmt 1 view .LVU470
 1563 0014 0349     		ldr	r1, .L80+8
 1564 0016 FFF7FEFF 		bl	shellPrint
 1565              	.LVL112:
 1566              	.L77:
 656:Task/Task_BlackBox.c **** }
 1567              		.loc 1 656 1 is_stmt 0 view .LVU471
 1568 001a 08BD     		pop	{r3, pc}
 1569              	.L81:
 1570              		.align	2
ARM GAS  C:\Users\8bit\AppData\Local\Temp\cclQGHkl.s 			page 47


 1571              	.L80:
 1572 001c 00000000 		.word	.LANCHOR12
 1573 0020 00000000 		.word	.LANCHOR1
 1574 0024 00000000 		.word	.LC22
 1575              		.cfi_endproc
 1576              	.LFE158:
 1578              		.section	.rodata.TaskBlackBox_ConvertLogData_To_Header.str1.4,"aMS",%progbits,1
 1579              		.align	2
 1580              	.LC23:
 1581 0000 5B20426C 		.ascii	"[ BlackBox ] header tag error\015\012\000"
 1581      61636B42 
 1581      6F78205D 
 1581      20686561 
 1581      64657220 
 1582              		.align	2
 1583              	.LC24:
 1584 0020 5B20426C 		.ascii	"[ BlackBox ] type error\015\012\000"
 1584      61636B42 
 1584      6F78205D 
 1584      20747970 
 1584      65206572 
 1585              		.section	.text.TaskBlackBox_ConvertLogData_To_Header,"ax",%progbits
 1586              		.align	1
 1587              		.syntax unified
 1588              		.thumb
 1589              		.thumb_func
 1591              	TaskBlackBox_ConvertLogData_To_Header:
 1592              	.LVL113:
 1593              	.LFB159:
 657:Task/Task_BlackBox.c **** SHELL_EXPORT_CMD(SHELL_CMD_PERMISSION(0) | SHELL_CMD_TYPE(SHELL_TYPE_CMD_FUNC) | SHELL_CMD_DISABLE_
 658:Task/Task_BlackBox.c **** 
 659:Task/Task_BlackBox.c **** static BlackBox_ConvertError_List TaskBlackBox_ConvertLogData_To_Header(Shell *p_shell, BlackBox_Da
 660:Task/Task_BlackBox.c **** {
 1594              		.loc 1 660 1 is_stmt 1 view -0
 1595              		.cfi_startproc
 1596              		@ args = 0, pretend = 0, frame = 0
 1597              		@ frame_needed = 0, uses_anonymous_args = 0
 661:Task/Task_BlackBox.c ****     if ((p_header == NULL) || \
 1598              		.loc 1 661 5 view .LVU473
 1599              		.loc 1 661 8 is_stmt 0 view .LVU474
 1600 0000 A9B3     		cbz	r1, .L89
 660:Task/Task_BlackBox.c ****     if ((p_header == NULL) || \
 1601              		.loc 1 660 1 discriminator 1 view .LVU475
 1602 0002 38B5     		push	{r3, r4, r5, lr}
 1603              	.LCFI14:
 1604              		.cfi_def_cfa_offset 16
 1605              		.cfi_offset 3, -16
 1606              		.cfi_offset 4, -12
 1607              		.cfi_offset 5, -8
 1608              		.cfi_offset 14, -4
 1609 0004 0446     		mov	r4, r0
 1610 0006 0846     		mov	r0, r1
 1611              	.LVL114:
 1612              		.loc 1 661 28 discriminator 1 view .LVU476
 1613 0008 9AB3     		cbz	r2, .L90
 662:Task/Task_BlackBox.c ****         (p_data == NULL) || \
 1614              		.loc 1 662 26 view .LVU477
ARM GAS  C:\Users\8bit\AppData\Local\Temp\cclQGHkl.s 			page 48


 1615 000a A3B3     		cbz	r3, .L91
 663:Task/Task_BlackBox.c ****         (len == NULL) || \
 664:Task/Task_BlackBox.c ****         (*p_data == NULL))
 1616              		.loc 1 664 10 view .LVU478
 1617 000c 1168     		ldr	r1, [r2]
 1618              	.LVL115:
 663:Task/Task_BlackBox.c ****         (len == NULL) || \
 1619              		.loc 1 663 23 view .LVU479
 1620 000e A1B3     		cbz	r1, .L92
 665:Task/Task_BlackBox.c ****         return BlackBox_Cnv_Para_Error;
 666:Task/Task_BlackBox.c ****     
 667:Task/Task_BlackBox.c ****     if (*len <= BLACKBOX_HEADER_SIZE)
 1621              		.loc 1 667 5 is_stmt 1 view .LVU480
 1622              		.loc 1 667 8 is_stmt 0 view .LVU481
 1623 0010 1D68     		ldr	r5, [r3]
 1624 0012 042D     		cmp	r5, #4
 1625 0014 33D9     		bls	.L93
 668:Task/Task_BlackBox.c ****         return BlackBox_Cnv_Size_Error;
 669:Task/Task_BlackBox.c **** 
 670:Task/Task_BlackBox.c ****     memcpy(p_header, *p_data, BLACKBOX_HEADER_SIZE);
 1626              		.loc 1 670 5 is_stmt 1 view .LVU482
 1627 0016 0968     		ldr	r1, [r1]	@ unaligned
 1628 0018 0160     		str	r1, [r0]	@ unaligned
 671:Task/Task_BlackBox.c ****     if (p_header->header != BLACKBOX_LOG_HEADER)
 1629              		.loc 1 671 5 view .LVU483
 1630              		.loc 1 671 8 is_stmt 0 view .LVU484
 1631 001a 1FFA81FE 		uxth	lr, r1
 1632 001e 4EF21E1C 		movw	ip, #57630
 1633 0022 E645     		cmp	lr, ip
 1634 0024 0CD1     		bne	.L101
 672:Task/Task_BlackBox.c ****     {
 673:Task/Task_BlackBox.c ****         memset(p_header, 0, BLACKBOX_HEADER_SIZE);
 674:Task/Task_BlackBox.c ****         shellPrint(p_shell, "[ BlackBox ] header tag error\r\n");
 675:Task/Task_BlackBox.c ****         return BlackBox_Cnv_Header_Error;
 676:Task/Task_BlackBox.c ****     }
 677:Task/Task_BlackBox.c **** 
 678:Task/Task_BlackBox.c ****     switch ((uint8_t) p_header->type)
 1635              		.loc 1 678 5 is_stmt 1 view .LVU485
 1636 0026 C1F30740 		ubfx	r0, r1, #16, #8
 1637              	.LVL116:
 1638              		.loc 1 678 5 is_stmt 0 view .LVU486
 1639 002a 0128     		cmp	r0, #1
 1640 002c 10D0     		beq	.L85
 1641 002e 0228     		cmp	r0, #2
 1642 0030 19D0     		beq	.L86
 679:Task/Task_BlackBox.c ****     {
 680:Task/Task_BlackBox.c ****         case BlackBox_Imu_Filted:
 681:Task/Task_BlackBox.c ****             if (*len < (BLACKBOX_HEADER_SIZE + BLACKBOX_ENDER_SIZE + sizeof(BlackBox_IMUData_TypeDe
 682:Task/Task_BlackBox.c ****                 return BlackBox_Cnv_Size_Error;
 683:Task/Task_BlackBox.c ****             break;
 684:Task/Task_BlackBox.c **** 
 685:Task/Task_BlackBox.c ****         case BlackBox_Log_Alt_Att:
 686:Task/Task_BlackBox.c ****             if (*len < (BLACKBOX_HEADER_SIZE + BLACKBOX_ENDER_SIZE + sizeof(BlackBox_AttAltData_Typ
 687:Task/Task_BlackBox.c ****                 return BlackBox_Cnv_Size_Error;
 688:Task/Task_BlackBox.c ****             break;
 689:Task/Task_BlackBox.c **** 
 690:Task/Task_BlackBox.c ****         default:
ARM GAS  C:\Users\8bit\AppData\Local\Temp\cclQGHkl.s 			page 49


 691:Task/Task_BlackBox.c ****             if (p_shell)
 1643              		.loc 1 691 13 is_stmt 1 view .LVU487
 1644              		.loc 1 691 16 is_stmt 0 view .LVU488
 1645 0032 44B3     		cbz	r4, .L95
 692:Task/Task_BlackBox.c ****                 shellPrint(p_shell, "[ BlackBox ] type error\r\n");
 1646              		.loc 1 692 17 is_stmt 1 view .LVU489
 1647 0034 1549     		ldr	r1, .L103
 1648 0036 2046     		mov	r0, r4
 1649 0038 FFF7FEFF 		bl	shellPrint
 1650              	.LVL117:
 693:Task/Task_BlackBox.c ****             return BlackBox_Cnv_Type_Error;
 1651              		.loc 1 693 20 is_stmt 0 view .LVU490
 1652 003c 0320     		movs	r0, #3
 1653 003e 19E0     		b	.L83
 1654              	.LVL118:
 1655              	.L101:
 673:Task/Task_BlackBox.c ****         shellPrint(p_shell, "[ BlackBox ] header tag error\r\n");
 1656              		.loc 1 673 9 is_stmt 1 view .LVU491
 1657 0040 0023     		movs	r3, #0
 1658              	.LVL119:
 673:Task/Task_BlackBox.c ****         shellPrint(p_shell, "[ BlackBox ] header tag error\r\n");
 1659              		.loc 1 673 9 is_stmt 0 view .LVU492
 1660 0042 0360     		str	r3, [r0]	@ unaligned
 674:Task/Task_BlackBox.c ****         return BlackBox_Cnv_Header_Error;
 1661              		.loc 1 674 9 is_stmt 1 view .LVU493
 1662 0044 1249     		ldr	r1, .L103+4
 1663 0046 2046     		mov	r0, r4
 1664              	.LVL120:
 674:Task/Task_BlackBox.c ****         return BlackBox_Cnv_Header_Error;
 1665              		.loc 1 674 9 is_stmt 0 view .LVU494
 1666 0048 FFF7FEFF 		bl	shellPrint
 1667              	.LVL121:
 675:Task/Task_BlackBox.c ****     }
 1668              		.loc 1 675 9 is_stmt 1 view .LVU495
 675:Task/Task_BlackBox.c ****     }
 1669              		.loc 1 675 16 is_stmt 0 view .LVU496
 1670 004c 0420     		movs	r0, #4
 1671 004e 11E0     		b	.L83
 1672              	.LVL122:
 1673              	.L85:
 681:Task/Task_BlackBox.c ****                 return BlackBox_Cnv_Size_Error;
 1674              		.loc 1 681 13 is_stmt 1 view .LVU497
 681:Task/Task_BlackBox.c ****                 return BlackBox_Cnv_Size_Error;
 1675              		.loc 1 681 17 is_stmt 0 view .LVU498
 1676 0050 1968     		ldr	r1, [r3]
 681:Task/Task_BlackBox.c ****                 return BlackBox_Cnv_Size_Error;
 1677              		.loc 1 681 16 view .LVU499
 1678 0052 2C29     		cmp	r1, #44
 1679 0054 15D9     		bls	.L102
 1680              	.L88:
 694:Task/Task_BlackBox.c ****     }
 695:Task/Task_BlackBox.c **** 
 696:Task/Task_BlackBox.c ****     *len -= BLACKBOX_HEADER_SIZE;
 1681              		.loc 1 696 5 is_stmt 1 view .LVU500
 1682              		.loc 1 696 10 is_stmt 0 view .LVU501
 1683 0056 1968     		ldr	r1, [r3]
 1684 0058 0439     		subs	r1, r1, #4
ARM GAS  C:\Users\8bit\AppData\Local\Temp\cclQGHkl.s 			page 50


 1685 005a 1960     		str	r1, [r3]
 697:Task/Task_BlackBox.c ****     *p_data += BLACKBOX_HEADER_SIZE;
 1686              		.loc 1 697 5 is_stmt 1 view .LVU502
 1687              		.loc 1 697 13 is_stmt 0 view .LVU503
 1688 005c 1368     		ldr	r3, [r2]
 1689              	.LVL123:
 1690              		.loc 1 697 13 view .LVU504
 1691 005e 0433     		adds	r3, r3, #4
 1692 0060 1360     		str	r3, [r2]
 698:Task/Task_BlackBox.c **** 
 699:Task/Task_BlackBox.c ****     return BlackBox_Cnv_None_Error;
 1693              		.loc 1 699 5 is_stmt 1 view .LVU505
 1694              		.loc 1 699 12 is_stmt 0 view .LVU506
 1695 0062 0020     		movs	r0, #0
 1696 0064 06E0     		b	.L83
 1697              	.LVL124:
 1698              	.L86:
 686:Task/Task_BlackBox.c ****                 return BlackBox_Cnv_Size_Error;
 1699              		.loc 1 686 13 is_stmt 1 view .LVU507
 686:Task/Task_BlackBox.c ****                 return BlackBox_Cnv_Size_Error;
 1700              		.loc 1 686 17 is_stmt 0 view .LVU508
 1701 0066 1968     		ldr	r1, [r3]
 686:Task/Task_BlackBox.c ****                 return BlackBox_Cnv_Size_Error;
 1702              		.loc 1 686 16 view .LVU509
 1703 0068 3229     		cmp	r1, #50
 1704 006a F4D8     		bhi	.L88
 1705 006c 02E0     		b	.L83
 1706              	.LVL125:
 1707              	.L89:
 1708              	.LCFI15:
 1709              		.cfi_def_cfa_offset 0
 1710              		.cfi_restore 3
 1711              		.cfi_restore 4
 1712              		.cfi_restore 5
 1713              		.cfi_restore 14
 665:Task/Task_BlackBox.c ****     
 1714              		.loc 1 665 16 view .LVU510
 1715 006e 0120     		movs	r0, #1
 1716              	.LVL126:
 700:Task/Task_BlackBox.c **** }
 1717              		.loc 1 700 1 view .LVU511
 1718 0070 7047     		bx	lr
 1719              	.LVL127:
 1720              	.L90:
 1721              	.LCFI16:
 1722              		.cfi_def_cfa_offset 16
 1723              		.cfi_offset 3, -16
 1724              		.cfi_offset 4, -12
 1725              		.cfi_offset 5, -8
 1726              		.cfi_offset 14, -4
 665:Task/Task_BlackBox.c ****     
 1727              		.loc 1 665 16 view .LVU512
 1728 0072 0120     		movs	r0, #1
 1729              	.LVL128:
 1730              	.L83:
 1731              		.loc 1 700 1 view .LVU513
 1732 0074 38BD     		pop	{r3, r4, r5, pc}
ARM GAS  C:\Users\8bit\AppData\Local\Temp\cclQGHkl.s 			page 51


 1733              	.LVL129:
 1734              	.L91:
 665:Task/Task_BlackBox.c ****     
 1735              		.loc 1 665 16 view .LVU514
 1736 0076 0120     		movs	r0, #1
 1737              	.LVL130:
 665:Task/Task_BlackBox.c ****     
 1738              		.loc 1 665 16 view .LVU515
 1739 0078 FCE7     		b	.L83
 1740              	.LVL131:
 1741              	.L92:
 665:Task/Task_BlackBox.c ****     
 1742              		.loc 1 665 16 view .LVU516
 1743 007a 0120     		movs	r0, #1
 1744              	.LVL132:
 665:Task/Task_BlackBox.c ****     
 1745              		.loc 1 665 16 view .LVU517
 1746 007c FAE7     		b	.L83
 1747              	.LVL133:
 1748              	.L93:
 668:Task/Task_BlackBox.c **** 
 1749              		.loc 1 668 16 view .LVU518
 1750 007e 0220     		movs	r0, #2
 1751              	.LVL134:
 668:Task/Task_BlackBox.c **** 
 1752              		.loc 1 668 16 view .LVU519
 1753 0080 F8E7     		b	.L83
 1754              	.L102:
 682:Task/Task_BlackBox.c ****             break;
 1755              		.loc 1 682 24 view .LVU520
 1756 0082 0220     		movs	r0, #2
 1757 0084 F6E7     		b	.L83
 1758              	.L95:
 693:Task/Task_BlackBox.c ****     }
 1759              		.loc 1 693 20 view .LVU521
 1760 0086 0320     		movs	r0, #3
 1761 0088 F4E7     		b	.L83
 1762              	.L104:
 1763 008a 00BF     		.align	2
 1764              	.L103:
 1765 008c 20000000 		.word	.LC24
 1766 0090 00000000 		.word	.LC23
 1767              		.cfi_endproc
 1768              	.LFE159:
 1770              		.section	.rodata.TaskBlackBox_ConvertLogData_To_IMU.str1.4,"aMS",%progbits,1
 1771              		.align	2
 1772              	.LC25:
 1773 0000 25642000 		.ascii	"%d \000"
 1774              		.global	__aeabi_f2d
 1775              		.align	2
 1776              	.LC26:
 1777 0004 25662000 		.ascii	"%f \000"
 1778              		.align	2
 1779              	.LC27:
 1780 0008 25660D0A 		.ascii	"%f\015\012\000"
 1780      00
 1781              		.section	.text.TaskBlackBox_ConvertLogData_To_IMU,"ax",%progbits
ARM GAS  C:\Users\8bit\AppData\Local\Temp\cclQGHkl.s 			page 52


 1782              		.align	1
 1783              		.syntax unified
 1784              		.thumb
 1785              		.thumb_func
 1787              	TaskBlackBox_ConvertLogData_To_IMU:
 1788              	.LVL135:
 1789              	.LFB161:
 701:Task/Task_BlackBox.c **** 
 702:Task/Task_BlackBox.c **** static BlackBox_ConvertError_List TaskBlackBox_ConvertLogData_To_Ender(Shell *p_shell, BlackBox_Dat
 703:Task/Task_BlackBox.c **** {
 704:Task/Task_BlackBox.c ****     if ((p_ender == NULL) || \
 705:Task/Task_BlackBox.c ****         (p_data == NULL) || \
 706:Task/Task_BlackBox.c ****         (*p_data == NULL) || \
 707:Task/Task_BlackBox.c ****         (len == NULL) || \
 708:Task/Task_BlackBox.c ****         (*len < BLACKBOX_ENDER_SIZE))
 709:Task/Task_BlackBox.c ****         return BlackBox_Cnv_Para_Error;
 710:Task/Task_BlackBox.c **** 
 711:Task/Task_BlackBox.c ****     memcpy(p_ender, *p_data, BLACKBOX_ENDER_SIZE);
 712:Task/Task_BlackBox.c ****     if (p_ender->ender != BLACKBOX_LOG_ENDER)
 713:Task/Task_BlackBox.c ****     {
 714:Task/Task_BlackBox.c ****         memset(p_ender, 0, BLACKBOX_ENDER_SIZE);
 715:Task/Task_BlackBox.c ****         if (p_shell)
 716:Task/Task_BlackBox.c ****             shellPrint(p_shell, "[ BlackBox ] ender error\r\n");
 717:Task/Task_BlackBox.c ****         return BlackBox_Cnv_Ender_Error;
 718:Task/Task_BlackBox.c ****     }
 719:Task/Task_BlackBox.c **** 
 720:Task/Task_BlackBox.c ****     *p_data += BLACKBOX_ENDER_SIZE;
 721:Task/Task_BlackBox.c ****     *len -= BLACKBOX_ENDER_SIZE;
 722:Task/Task_BlackBox.c **** 
 723:Task/Task_BlackBox.c ****     return BlackBox_Cnv_None_Error;
 724:Task/Task_BlackBox.c **** }
 725:Task/Task_BlackBox.c **** 
 726:Task/Task_BlackBox.c **** /* filted imu data log */
 727:Task/Task_BlackBox.c **** static BlackBox_ConvertError_List TaskBlackBox_ConvertLogData_To_IMU(Shell *p_shell, BlackBox_IMUDa
 728:Task/Task_BlackBox.c **** {
 1790              		.loc 1 728 1 is_stmt 1 view -0
 1791              		.cfi_startproc
 1792              		@ args = 0, pretend = 0, frame = 0
 1793              		@ frame_needed = 0, uses_anonymous_args = 0
 729:Task/Task_BlackBox.c ****     if ((p_imu == NULL) || \
 1794              		.loc 1 729 5 view .LVU523
 1795              		.loc 1 729 8 is_stmt 0 view .LVU524
 1796 0000 0029     		cmp	r1, #0
 1797 0002 00F05881 		beq	.L109
 728:Task/Task_BlackBox.c ****     if ((p_imu == NULL) || \
 1798              		.loc 1 728 1 discriminator 1 view .LVU525
 1799 0006 2DE9F041 		push	{r4, r5, r6, r7, r8, lr}
 1800              	.LCFI17:
 1801              		.cfi_def_cfa_offset 24
 1802              		.cfi_offset 4, -24
 1803              		.cfi_offset 5, -20
 1804              		.cfi_offset 6, -16
 1805              		.cfi_offset 7, -12
 1806              		.cfi_offset 8, -8
 1807              		.cfi_offset 14, -4
 1808 000a 0546     		mov	r5, r0
 1809 000c 1646     		mov	r6, r2
ARM GAS  C:\Users\8bit\AppData\Local\Temp\cclQGHkl.s 			page 53


 1810 000e 1F46     		mov	r7, r3
 1811 0010 0C46     		mov	r4, r1
 1812              		.loc 1 729 25 discriminator 1 view .LVU526
 1813 0012 002A     		cmp	r2, #0
 1814 0014 00F05181 		beq	.L110
 730:Task/Task_BlackBox.c ****         (p_data == NULL) || \
 731:Task/Task_BlackBox.c ****         (*p_data == NULL) || \
 1815              		.loc 1 731 10 view .LVU527
 1816 0018 1368     		ldr	r3, [r2]
 1817              	.LVL136:
 730:Task/Task_BlackBox.c ****         (p_data == NULL) || \
 1818              		.loc 1 730 26 view .LVU528
 1819 001a 002B     		cmp	r3, #0
 1820 001c 00F04F81 		beq	.L111
 1821              		.loc 1 731 27 view .LVU529
 1822 0020 002F     		cmp	r7, #0
 1823 0022 00F04E81 		beq	.L112
 732:Task/Task_BlackBox.c ****         (len == NULL) || \
 733:Task/Task_BlackBox.c ****         (*len < sizeof(BlackBox_IMUData_TypeDef)))
 1824              		.loc 1 733 10 view .LVU530
 1825 0026 3A68     		ldr	r2, [r7]
 1826              	.LVL137:
 732:Task/Task_BlackBox.c ****         (len == NULL) || \
 1827              		.loc 1 732 23 view .LVU531
 1828 0028 252A     		cmp	r2, #37
 1829 002a 40F24C81 		bls	.L113
 734:Task/Task_BlackBox.c ****         return BlackBox_Cnv_Size_Error;
 735:Task/Task_BlackBox.c **** 
 736:Task/Task_BlackBox.c ****     memcpy(p_imu, *p_data, sizeof(BlackBox_IMUData_TypeDef));
 1830              		.loc 1 736 5 is_stmt 1 view .LVU532
 1831 002e 1946     		mov	r1, r3
 1832              	.LVL138:
 1833              		.loc 1 736 5 is_stmt 0 view .LVU533
 1834 0030 A446     		mov	ip, r4
 1835 0032 2033     		adds	r3, r3, #32
 1836              	.LVL139:
 1837              	.L107:
 1838              		.loc 1 736 5 view .LVU534
 1839 0034 D1F80080 		ldr	r8, [r1]	@ unaligned
 1840 0038 D1F804E0 		ldr	lr, [r1, #4]	@ unaligned
 1841 003c 8868     		ldr	r0, [r1, #8]	@ unaligned
 1842 003e CA68     		ldr	r2, [r1, #12]	@ unaligned
 1843 0040 CCF80080 		str	r8, [ip]	@ unaligned
 1844 0044 CCF804E0 		str	lr, [ip, #4]	@ unaligned
 1845 0048 CCF80800 		str	r0, [ip, #8]	@ unaligned
 1846 004c CCF80C20 		str	r2, [ip, #12]	@ unaligned
 1847 0050 1031     		adds	r1, r1, #16
 1848 0052 0CF1100C 		add	ip, ip, #16
 1849 0056 9942     		cmp	r1, r3
 1850 0058 ECD1     		bne	.L107
 1851 005a 0B68     		ldr	r3, [r1]	@ unaligned
 1852 005c CCF80030 		str	r3, [ip]	@ unaligned
 1853 0060 8B88     		ldrh	r3, [r1, #4]	@ unaligned
 1854 0062 ACF80430 		strh	r3, [ip, #4]	@ unaligned
 737:Task/Task_BlackBox.c ****     if (p_shell)
 1855              		.loc 1 737 5 is_stmt 1 view .LVU535
 1856              		.loc 1 737 8 is_stmt 0 view .LVU536
ARM GAS  C:\Users\8bit\AppData\Local\Temp\cclQGHkl.s 			page 54


 1857 0066 002D     		cmp	r5, #0
 1858 0068 00F01C81 		beq	.L108
 738:Task/Task_BlackBox.c ****     {
 739:Task/Task_BlackBox.c ****         shellPrint(p_shell, "%d ", p_imu->time);
 1859              		.loc 1 739 9 is_stmt 1 view .LVU537
 1860 006c DFF86082 		ldr	r8, .L118+4
 1861 0070 2268     		ldr	r2, [r4]	@ unaligned
 1862 0072 4146     		mov	r1, r8
 1863 0074 2846     		mov	r0, r5
 1864 0076 FFF7FEFF 		bl	shellPrint
 1865              	.LVL140:
 740:Task/Task_BlackBox.c ****         shellPrint(p_shell, "%d ", p_imu->cyc);
 1866              		.loc 1 740 9 view .LVU538
 1867 007a 2279     		ldrb	r2, [r4, #4]	@ zero_extendqisi2
 1868 007c 4146     		mov	r1, r8
 1869 007e 2846     		mov	r0, r5
 1870 0080 FFF7FEFF 		bl	shellPrint
 1871              	.LVL141:
 741:Task/Task_BlackBox.c ****         shellPrint(p_shell, "%d ", p_imu->throttle_percent);
 1872              		.loc 1 741 9 view .LVU539
 1873 0084 94F82520 		ldrb	r2, [r4, #37]	@ zero_extendqisi2
 1874 0088 4146     		mov	r1, r8
 1875 008a 2846     		mov	r0, r5
 1876 008c FFF7FEFF 		bl	shellPrint
 1877              	.LVL142:
 742:Task/Task_BlackBox.c ****         shellPrint(p_shell, "%f ", p_imu->org_acc[Axis_X] / p_imu->acc_scale);
 1878              		.loc 1 742 9 view .LVU540
 1879              		.loc 1 742 50 is_stmt 0 view .LVU541
 1880 0090 B4F90D30 		ldrsh	r3, [r4, #13]	@ unaligned
 1881 0094 07EE903A 		vmov	s15, r3	@ int
 1882              		.loc 1 742 66 view .LVU542
 1883 0098 D4F80500 		ldr	r0, [r4, #5]	@ unaligned
 1884              		.loc 1 742 59 view .LVU543
 1885 009c F8EEE77A 		vcvt.f32.s32	s15, s15
 1886              		.loc 1 742 9 view .LVU544
 1887 00a0 07EE100A 		vmov	s14, r0
 1888 00a4 C7EE877A 		vdiv.f32	s15, s15, s14
 1889 00a8 17EE900A 		vmov	r0, s15
 1890 00ac FFF7FEFF 		bl	__aeabi_f2d
 1891              	.LVL143:
 1892 00b0 0246     		mov	r2, r0
 1893 00b2 0B46     		mov	r3, r1
 1894 00b4 DFF81C82 		ldr	r8, .L118+8
 1895 00b8 4146     		mov	r1, r8
 1896 00ba 2846     		mov	r0, r5
 1897 00bc FFF7FEFF 		bl	shellPrint
 1898              	.LVL144:
 743:Task/Task_BlackBox.c ****         shellPrint(p_shell, "%f ", p_imu->org_acc[Axis_Y] / p_imu->acc_scale);
 1899              		.loc 1 743 9 is_stmt 1 view .LVU545
 1900              		.loc 1 743 50 is_stmt 0 view .LVU546
 1901 00c0 B4F90F30 		ldrsh	r3, [r4, #15]	@ unaligned
 1902 00c4 07EE903A 		vmov	s15, r3	@ int
 1903              		.loc 1 743 66 view .LVU547
 1904 00c8 D4F80500 		ldr	r0, [r4, #5]	@ unaligned
 1905              		.loc 1 743 59 view .LVU548
 1906 00cc F8EEE77A 		vcvt.f32.s32	s15, s15
 1907              		.loc 1 743 9 view .LVU549
ARM GAS  C:\Users\8bit\AppData\Local\Temp\cclQGHkl.s 			page 55


 1908 00d0 07EE100A 		vmov	s14, r0
 1909 00d4 C7EE877A 		vdiv.f32	s15, s15, s14
 1910 00d8 17EE900A 		vmov	r0, s15
 1911 00dc FFF7FEFF 		bl	__aeabi_f2d
 1912              	.LVL145:
 1913 00e0 0246     		mov	r2, r0
 1914 00e2 0B46     		mov	r3, r1
 1915 00e4 4146     		mov	r1, r8
 1916 00e6 2846     		mov	r0, r5
 1917 00e8 FFF7FEFF 		bl	shellPrint
 1918              	.LVL146:
 744:Task/Task_BlackBox.c ****         shellPrint(p_shell, "%f ", p_imu->org_acc[Axis_Z] / p_imu->acc_scale);
 1919              		.loc 1 744 9 is_stmt 1 view .LVU550
 1920              		.loc 1 744 50 is_stmt 0 view .LVU551
 1921 00ec B4F91130 		ldrsh	r3, [r4, #17]	@ unaligned
 1922 00f0 07EE903A 		vmov	s15, r3	@ int
 1923              		.loc 1 744 66 view .LVU552
 1924 00f4 D4F80500 		ldr	r0, [r4, #5]	@ unaligned
 1925              		.loc 1 744 59 view .LVU553
 1926 00f8 F8EEE77A 		vcvt.f32.s32	s15, s15
 1927              		.loc 1 744 9 view .LVU554
 1928 00fc 07EE100A 		vmov	s14, r0
 1929 0100 C7EE877A 		vdiv.f32	s15, s15, s14
 1930 0104 17EE900A 		vmov	r0, s15
 1931 0108 FFF7FEFF 		bl	__aeabi_f2d
 1932              	.LVL147:
 1933 010c 0246     		mov	r2, r0
 1934 010e 0B46     		mov	r3, r1
 1935 0110 4146     		mov	r1, r8
 1936 0112 2846     		mov	r0, r5
 1937 0114 FFF7FEFF 		bl	shellPrint
 1938              	.LVL148:
 745:Task/Task_BlackBox.c ****         shellPrint(p_shell, "%f ", p_imu->flt_acc[Axis_X] / p_imu->acc_scale);
 1939              		.loc 1 745 9 is_stmt 1 view .LVU555
 1940              		.loc 1 745 50 is_stmt 0 view .LVU556
 1941 0118 B4F91930 		ldrsh	r3, [r4, #25]	@ unaligned
 1942 011c 07EE903A 		vmov	s15, r3	@ int
 1943              		.loc 1 745 66 view .LVU557
 1944 0120 D4F80500 		ldr	r0, [r4, #5]	@ unaligned
 1945              		.loc 1 745 59 view .LVU558
 1946 0124 F8EEE77A 		vcvt.f32.s32	s15, s15
 1947              		.loc 1 745 9 view .LVU559
 1948 0128 07EE100A 		vmov	s14, r0
 1949 012c C7EE877A 		vdiv.f32	s15, s15, s14
 1950 0130 17EE900A 		vmov	r0, s15
 1951 0134 FFF7FEFF 		bl	__aeabi_f2d
 1952              	.LVL149:
 1953 0138 0246     		mov	r2, r0
 1954 013a 0B46     		mov	r3, r1
 1955 013c 4146     		mov	r1, r8
 1956 013e 2846     		mov	r0, r5
 1957 0140 FFF7FEFF 		bl	shellPrint
 1958              	.LVL150:
 746:Task/Task_BlackBox.c ****         shellPrint(p_shell, "%f ", p_imu->flt_acc[Axis_Y] / p_imu->acc_scale);
 1959              		.loc 1 746 9 is_stmt 1 view .LVU560
 1960              		.loc 1 746 50 is_stmt 0 view .LVU561
 1961 0144 B4F91B30 		ldrsh	r3, [r4, #27]	@ unaligned
ARM GAS  C:\Users\8bit\AppData\Local\Temp\cclQGHkl.s 			page 56


 1962 0148 07EE903A 		vmov	s15, r3	@ int
 1963              		.loc 1 746 66 view .LVU562
 1964 014c D4F80500 		ldr	r0, [r4, #5]	@ unaligned
 1965              		.loc 1 746 59 view .LVU563
 1966 0150 F8EEE77A 		vcvt.f32.s32	s15, s15
 1967              		.loc 1 746 9 view .LVU564
 1968 0154 07EE100A 		vmov	s14, r0
 1969 0158 C7EE877A 		vdiv.f32	s15, s15, s14
 1970 015c 17EE900A 		vmov	r0, s15
 1971 0160 FFF7FEFF 		bl	__aeabi_f2d
 1972              	.LVL151:
 1973 0164 0246     		mov	r2, r0
 1974 0166 0B46     		mov	r3, r1
 1975 0168 4146     		mov	r1, r8
 1976 016a 2846     		mov	r0, r5
 1977 016c FFF7FEFF 		bl	shellPrint
 1978              	.LVL152:
 747:Task/Task_BlackBox.c ****         shellPrint(p_shell, "%f ", p_imu->flt_acc[Axis_Z] / p_imu->acc_scale);
 1979              		.loc 1 747 9 is_stmt 1 view .LVU565
 1980              		.loc 1 747 50 is_stmt 0 view .LVU566
 1981 0170 B4F91D30 		ldrsh	r3, [r4, #29]	@ unaligned
 1982 0174 07EE903A 		vmov	s15, r3	@ int
 1983              		.loc 1 747 66 view .LVU567
 1984 0178 D4F80500 		ldr	r0, [r4, #5]	@ unaligned
 1985              		.loc 1 747 59 view .LVU568
 1986 017c F8EEE77A 		vcvt.f32.s32	s15, s15
 1987              		.loc 1 747 9 view .LVU569
 1988 0180 07EE100A 		vmov	s14, r0
 1989 0184 C7EE877A 		vdiv.f32	s15, s15, s14
 1990 0188 17EE900A 		vmov	r0, s15
 1991 018c FFF7FEFF 		bl	__aeabi_f2d
 1992              	.LVL153:
 1993 0190 0246     		mov	r2, r0
 1994 0192 0B46     		mov	r3, r1
 1995 0194 4146     		mov	r1, r8
 1996 0196 2846     		mov	r0, r5
 1997 0198 FFF7FEFF 		bl	shellPrint
 1998              	.LVL154:
 748:Task/Task_BlackBox.c ****         shellPrint(p_shell, "%f ", p_imu->org_gyr[Axis_X] / p_imu->gyr_scale);
 1999              		.loc 1 748 9 is_stmt 1 view .LVU570
 2000              		.loc 1 748 50 is_stmt 0 view .LVU571
 2001 019c B4F91330 		ldrsh	r3, [r4, #19]	@ unaligned
 2002 01a0 07EE903A 		vmov	s15, r3	@ int
 2003              		.loc 1 748 66 view .LVU572
 2004 01a4 D4F80900 		ldr	r0, [r4, #9]	@ unaligned
 2005              		.loc 1 748 59 view .LVU573
 2006 01a8 F8EEE77A 		vcvt.f32.s32	s15, s15
 2007              		.loc 1 748 9 view .LVU574
 2008 01ac 07EE100A 		vmov	s14, r0
 2009 01b0 C7EE877A 		vdiv.f32	s15, s15, s14
 2010 01b4 17EE900A 		vmov	r0, s15
 2011 01b8 FFF7FEFF 		bl	__aeabi_f2d
 2012              	.LVL155:
 2013 01bc 0246     		mov	r2, r0
 2014 01be 0B46     		mov	r3, r1
 2015 01c0 4146     		mov	r1, r8
 2016 01c2 2846     		mov	r0, r5
ARM GAS  C:\Users\8bit\AppData\Local\Temp\cclQGHkl.s 			page 57


 2017 01c4 FFF7FEFF 		bl	shellPrint
 2018              	.LVL156:
 749:Task/Task_BlackBox.c ****         shellPrint(p_shell, "%f ", p_imu->org_gyr[Axis_Y] / p_imu->gyr_scale);
 2019              		.loc 1 749 9 is_stmt 1 view .LVU575
 2020              		.loc 1 749 50 is_stmt 0 view .LVU576
 2021 01c8 B4F91530 		ldrsh	r3, [r4, #21]	@ unaligned
 2022 01cc 07EE903A 		vmov	s15, r3	@ int
 2023              		.loc 1 749 66 view .LVU577
 2024 01d0 D4F80900 		ldr	r0, [r4, #9]	@ unaligned
 2025              		.loc 1 749 59 view .LVU578
 2026 01d4 F8EEE77A 		vcvt.f32.s32	s15, s15
 2027              		.loc 1 749 9 view .LVU579
 2028 01d8 07EE100A 		vmov	s14, r0
 2029 01dc C7EE877A 		vdiv.f32	s15, s15, s14
 2030 01e0 17EE900A 		vmov	r0, s15
 2031 01e4 FFF7FEFF 		bl	__aeabi_f2d
 2032              	.LVL157:
 2033 01e8 0246     		mov	r2, r0
 2034 01ea 0B46     		mov	r3, r1
 2035 01ec 4146     		mov	r1, r8
 2036 01ee 2846     		mov	r0, r5
 2037 01f0 FFF7FEFF 		bl	shellPrint
 2038              	.LVL158:
 750:Task/Task_BlackBox.c ****         shellPrint(p_shell, "%f ", p_imu->org_gyr[Axis_Z] / p_imu->gyr_scale);
 2039              		.loc 1 750 9 is_stmt 1 view .LVU580
 2040              		.loc 1 750 50 is_stmt 0 view .LVU581
 2041 01f4 B4F91730 		ldrsh	r3, [r4, #23]	@ unaligned
 2042 01f8 07EE903A 		vmov	s15, r3	@ int
 2043              		.loc 1 750 66 view .LVU582
 2044 01fc D4F80900 		ldr	r0, [r4, #9]	@ unaligned
 2045              		.loc 1 750 59 view .LVU583
 2046 0200 F8EEE77A 		vcvt.f32.s32	s15, s15
 2047              		.loc 1 750 9 view .LVU584
 2048 0204 07EE100A 		vmov	s14, r0
 2049 0208 C7EE877A 		vdiv.f32	s15, s15, s14
 2050 020c 17EE900A 		vmov	r0, s15
 2051 0210 FFF7FEFF 		bl	__aeabi_f2d
 2052              	.LVL159:
 2053 0214 0246     		mov	r2, r0
 2054 0216 0B46     		mov	r3, r1
 2055 0218 4146     		mov	r1, r8
 2056 021a 2846     		mov	r0, r5
 2057 021c FFF7FEFF 		bl	shellPrint
 2058              	.LVL160:
 751:Task/Task_BlackBox.c ****         shellPrint(p_shell, "%f ", p_imu->flt_gyr[Axis_X] / p_imu->gyr_scale);
 2059              		.loc 1 751 9 is_stmt 1 view .LVU585
 2060              		.loc 1 751 50 is_stmt 0 view .LVU586
 2061 0220 B4F91F30 		ldrsh	r3, [r4, #31]	@ unaligned
 2062 0224 07EE903A 		vmov	s15, r3	@ int
 2063              		.loc 1 751 66 view .LVU587
 2064 0228 D4F80900 		ldr	r0, [r4, #9]	@ unaligned
 2065              		.loc 1 751 59 view .LVU588
 2066 022c F8EEE77A 		vcvt.f32.s32	s15, s15
 2067              		.loc 1 751 9 view .LVU589
 2068 0230 07EE100A 		vmov	s14, r0
 2069 0234 C7EE877A 		vdiv.f32	s15, s15, s14
 2070 0238 17EE900A 		vmov	r0, s15
ARM GAS  C:\Users\8bit\AppData\Local\Temp\cclQGHkl.s 			page 58


 2071 023c FFF7FEFF 		bl	__aeabi_f2d
 2072              	.LVL161:
 2073 0240 0246     		mov	r2, r0
 2074 0242 0B46     		mov	r3, r1
 2075 0244 4146     		mov	r1, r8
 2076 0246 2846     		mov	r0, r5
 2077 0248 FFF7FEFF 		bl	shellPrint
 2078              	.LVL162:
 752:Task/Task_BlackBox.c ****         shellPrint(p_shell, "%f ", p_imu->flt_gyr[Axis_Y] / p_imu->gyr_scale);
 2079              		.loc 1 752 9 is_stmt 1 view .LVU590
 2080              		.loc 1 752 50 is_stmt 0 view .LVU591
 2081 024c B4F92130 		ldrsh	r3, [r4, #33]	@ unaligned
 2082 0250 07EE903A 		vmov	s15, r3	@ int
 2083              		.loc 1 752 66 view .LVU592
 2084 0254 D4F80900 		ldr	r0, [r4, #9]	@ unaligned
 2085              		.loc 1 752 59 view .LVU593
 2086 0258 F8EEE77A 		vcvt.f32.s32	s15, s15
 2087              		.loc 1 752 9 view .LVU594
 2088 025c 07EE100A 		vmov	s14, r0
 2089 0260 C7EE877A 		vdiv.f32	s15, s15, s14
 2090 0264 17EE900A 		vmov	r0, s15
 2091 0268 FFF7FEFF 		bl	__aeabi_f2d
 2092              	.LVL163:
 2093 026c 0246     		mov	r2, r0
 2094 026e 0B46     		mov	r3, r1
 2095 0270 4146     		mov	r1, r8
 2096 0272 2846     		mov	r0, r5
 2097 0274 FFF7FEFF 		bl	shellPrint
 2098              	.LVL164:
 753:Task/Task_BlackBox.c ****         shellPrint(p_shell, "%f\r\n", p_imu->flt_gyr[Axis_Z] / p_imu->gyr_scale);
 2099              		.loc 1 753 9 is_stmt 1 view .LVU595
 2100              		.loc 1 753 53 is_stmt 0 view .LVU596
 2101 0278 B4F92330 		ldrsh	r3, [r4, #35]	@ unaligned
 2102 027c 07EE903A 		vmov	s15, r3	@ int
 2103              		.loc 1 753 69 view .LVU597
 2104 0280 D4F80900 		ldr	r0, [r4, #9]	@ unaligned
 2105              		.loc 1 753 62 view .LVU598
 2106 0284 F8EEE77A 		vcvt.f32.s32	s15, s15
 2107              		.loc 1 753 9 view .LVU599
 2108 0288 07EE100A 		vmov	s14, r0
 2109 028c C7EE877A 		vdiv.f32	s15, s15, s14
 2110 0290 17EE900A 		vmov	r0, s15
 2111 0294 FFF7FEFF 		bl	__aeabi_f2d
 2112              	.LVL165:
 2113 0298 0246     		mov	r2, r0
 2114 029a 0B46     		mov	r3, r1
 2115 029c 0B49     		ldr	r1, .L118
 2116 029e 2846     		mov	r0, r5
 2117 02a0 FFF7FEFF 		bl	shellPrint
 2118              	.LVL166:
 2119              	.L108:
 754:Task/Task_BlackBox.c ****     }
 755:Task/Task_BlackBox.c **** 
 756:Task/Task_BlackBox.c ****     *p_data += sizeof(BlackBox_IMUData_TypeDef);
 2120              		.loc 1 756 5 is_stmt 1 view .LVU600
 2121              		.loc 1 756 13 is_stmt 0 view .LVU601
 2122 02a4 3368     		ldr	r3, [r6]
ARM GAS  C:\Users\8bit\AppData\Local\Temp\cclQGHkl.s 			page 59


 2123 02a6 2633     		adds	r3, r3, #38
 2124 02a8 3360     		str	r3, [r6]
 757:Task/Task_BlackBox.c ****     *len -= sizeof(BlackBox_IMUData_TypeDef);
 2125              		.loc 1 757 5 is_stmt 1 view .LVU602
 2126              		.loc 1 757 10 is_stmt 0 view .LVU603
 2127 02aa 3B68     		ldr	r3, [r7]
 2128 02ac 263B     		subs	r3, r3, #38
 2129 02ae 3B60     		str	r3, [r7]
 758:Task/Task_BlackBox.c ****     return BlackBox_Cnv_None_Error;
 2130              		.loc 1 758 5 is_stmt 1 view .LVU604
 2131              		.loc 1 758 12 is_stmt 0 view .LVU605
 2132 02b0 0020     		movs	r0, #0
 2133              	.L106:
 759:Task/Task_BlackBox.c **** }
 2134              		.loc 1 759 1 view .LVU606
 2135 02b2 BDE8F081 		pop	{r4, r5, r6, r7, r8, pc}
 2136              	.LVL167:
 2137              	.L109:
 2138              	.LCFI18:
 2139              		.cfi_def_cfa_offset 0
 2140              		.cfi_restore 4
 2141              		.cfi_restore 5
 2142              		.cfi_restore 6
 2143              		.cfi_restore 7
 2144              		.cfi_restore 8
 2145              		.cfi_restore 14
 734:Task/Task_BlackBox.c **** 
 2146              		.loc 1 734 16 view .LVU607
 2147 02b6 0220     		movs	r0, #2
 2148              	.LVL168:
 2149              		.loc 1 759 1 view .LVU608
 2150 02b8 7047     		bx	lr
 2151              	.LVL169:
 2152              	.L110:
 2153              	.LCFI19:
 2154              		.cfi_def_cfa_offset 24
 2155              		.cfi_offset 4, -24
 2156              		.cfi_offset 5, -20
 2157              		.cfi_offset 6, -16
 2158              		.cfi_offset 7, -12
 2159              		.cfi_offset 8, -8
 2160              		.cfi_offset 14, -4
 734:Task/Task_BlackBox.c **** 
 2161              		.loc 1 734 16 view .LVU609
 2162 02ba 0220     		movs	r0, #2
 2163              	.LVL170:
 734:Task/Task_BlackBox.c **** 
 2164              		.loc 1 734 16 view .LVU610
 2165 02bc F9E7     		b	.L106
 2166              	.LVL171:
 2167              	.L111:
 734:Task/Task_BlackBox.c **** 
 2168              		.loc 1 734 16 view .LVU611
 2169 02be 0220     		movs	r0, #2
 2170              	.LVL172:
 734:Task/Task_BlackBox.c **** 
 2171              		.loc 1 734 16 view .LVU612
ARM GAS  C:\Users\8bit\AppData\Local\Temp\cclQGHkl.s 			page 60


 2172 02c0 F7E7     		b	.L106
 2173              	.LVL173:
 2174              	.L112:
 734:Task/Task_BlackBox.c **** 
 2175              		.loc 1 734 16 view .LVU613
 2176 02c2 0220     		movs	r0, #2
 2177              	.LVL174:
 734:Task/Task_BlackBox.c **** 
 2178              		.loc 1 734 16 view .LVU614
 2179 02c4 F5E7     		b	.L106
 2180              	.LVL175:
 2181              	.L113:
 734:Task/Task_BlackBox.c **** 
 2182              		.loc 1 734 16 view .LVU615
 2183 02c6 0220     		movs	r0, #2
 2184              	.LVL176:
 734:Task/Task_BlackBox.c **** 
 2185              		.loc 1 734 16 view .LVU616
 2186 02c8 F3E7     		b	.L106
 2187              	.L119:
 2188 02ca 00BF     		.align	2
 2189              	.L118:
 2190 02cc 08000000 		.word	.LC27
 2191 02d0 00000000 		.word	.LC25
 2192 02d4 04000000 		.word	.LC26
 2193              		.cfi_endproc
 2194              	.LFE161:
 2196              		.section	.text.TaskBlackBox_ConvertLogData_To_Alt_Att,"ax",%progbits
 2197              		.align	1
 2198              		.syntax unified
 2199              		.thumb
 2200              		.thumb_func
 2202              	TaskBlackBox_ConvertLogData_To_Alt_Att:
 2203              	.LVL177:
 2204              	.LFB162:
 760:Task/Task_BlackBox.c **** 
 761:Task/Task_BlackBox.c **** /* attitude altitude log data */
 762:Task/Task_BlackBox.c **** static BlackBox_ConvertError_List TaskBlackBox_ConvertLogData_To_Alt_Att(Shell *p_shell, BlackBox_A
 763:Task/Task_BlackBox.c **** {
 2205              		.loc 1 763 1 is_stmt 1 view -0
 2206              		.cfi_startproc
 2207              		@ args = 0, pretend = 0, frame = 0
 2208              		@ frame_needed = 0, uses_anonymous_args = 0
 764:Task/Task_BlackBox.c ****     if ((p_att_alt == NULL) || \
 2209              		.loc 1 764 5 view .LVU618
 2210              		.loc 1 764 8 is_stmt 0 view .LVU619
 2211 0000 0029     		cmp	r1, #0
 2212 0002 00F0F180 		beq	.L124
 763:Task/Task_BlackBox.c ****     if ((p_att_alt == NULL) || \
 2213              		.loc 1 763 1 discriminator 1 view .LVU620
 2214 0006 2DE9F041 		push	{r4, r5, r6, r7, r8, lr}
 2215              	.LCFI20:
 2216              		.cfi_def_cfa_offset 24
 2217              		.cfi_offset 4, -24
 2218              		.cfi_offset 5, -20
 2219              		.cfi_offset 6, -16
 2220              		.cfi_offset 7, -12
ARM GAS  C:\Users\8bit\AppData\Local\Temp\cclQGHkl.s 			page 61


 2221              		.cfi_offset 8, -8
 2222              		.cfi_offset 14, -4
 2223 000a 0446     		mov	r4, r0
 2224 000c 1546     		mov	r5, r2
 2225 000e 1F46     		mov	r7, r3
 2226 0010 0E46     		mov	r6, r1
 2227              		.loc 1 764 29 discriminator 1 view .LVU621
 2228 0012 002A     		cmp	r2, #0
 2229 0014 00F0EA80 		beq	.L125
 765:Task/Task_BlackBox.c ****         (p_data == NULL) || \
 766:Task/Task_BlackBox.c ****         (*p_data == NULL) || \
 2230              		.loc 1 766 10 view .LVU622
 2231 0018 1368     		ldr	r3, [r2]
 2232              	.LVL178:
 765:Task/Task_BlackBox.c ****         (p_data == NULL) || \
 2233              		.loc 1 765 26 view .LVU623
 2234 001a 002B     		cmp	r3, #0
 2235 001c 00F0E880 		beq	.L126
 2236              		.loc 1 766 27 view .LVU624
 2237 0020 002F     		cmp	r7, #0
 2238 0022 00F0E780 		beq	.L127
 767:Task/Task_BlackBox.c ****         (len == NULL) || \
 768:Task/Task_BlackBox.c ****         (*len < sizeof(BlackBox_AttAltData_TypeDef)))
 2239              		.loc 1 768 10 view .LVU625
 2240 0026 3A68     		ldr	r2, [r7]
 2241              	.LVL179:
 767:Task/Task_BlackBox.c ****         (len == NULL) || \
 2242              		.loc 1 767 23 view .LVU626
 2243 0028 2B2A     		cmp	r2, #43
 2244 002a 40F2E580 		bls	.L128
 769:Task/Task_BlackBox.c ****         return BlackBox_Cnv_Size_Error;
 770:Task/Task_BlackBox.c **** 
 771:Task/Task_BlackBox.c ****     memcpy(p_att_alt, *p_data, sizeof(BlackBox_AttAltData_TypeDef));
 2245              		.loc 1 771 5 is_stmt 1 view .LVU627
 2246 002e 1946     		mov	r1, r3
 2247              	.LVL180:
 2248              		.loc 1 771 5 is_stmt 0 view .LVU628
 2249 0030 B446     		mov	ip, r6
 2250 0032 2033     		adds	r3, r3, #32
 2251              	.LVL181:
 2252              	.L122:
 2253              		.loc 1 771 5 view .LVU629
 2254 0034 D1F80080 		ldr	r8, [r1]	@ unaligned
 2255 0038 D1F804E0 		ldr	lr, [r1, #4]	@ unaligned
 2256 003c 8868     		ldr	r0, [r1, #8]	@ unaligned
 2257 003e CA68     		ldr	r2, [r1, #12]	@ unaligned
 2258 0040 CCF80080 		str	r8, [ip]	@ unaligned
 2259 0044 CCF804E0 		str	lr, [ip, #4]	@ unaligned
 2260 0048 CCF80800 		str	r0, [ip, #8]	@ unaligned
 2261 004c CCF80C20 		str	r2, [ip, #12]	@ unaligned
 2262 0050 1031     		adds	r1, r1, #16
 2263 0052 0CF1100C 		add	ip, ip, #16
 2264 0056 9942     		cmp	r1, r3
 2265 0058 ECD1     		bne	.L122
 2266 005a 0868     		ldr	r0, [r1]	@ unaligned
 2267 005c 4A68     		ldr	r2, [r1, #4]	@ unaligned
 2268 005e 8B68     		ldr	r3, [r1, #8]	@ unaligned
ARM GAS  C:\Users\8bit\AppData\Local\Temp\cclQGHkl.s 			page 62


 2269 0060 CCF80000 		str	r0, [ip]	@ unaligned
 2270 0064 CCF80420 		str	r2, [ip, #4]	@ unaligned
 2271 0068 CCF80830 		str	r3, [ip, #8]	@ unaligned
 772:Task/Task_BlackBox.c ****     if (p_shell)
 2272              		.loc 1 772 5 is_stmt 1 view .LVU630
 2273              		.loc 1 772 8 is_stmt 0 view .LVU631
 2274 006c 002C     		cmp	r4, #0
 2275 006e 00F0B280 		beq	.L123
 773:Task/Task_BlackBox.c ****     {
 774:Task/Task_BlackBox.c ****         shellPrint(p_shell, "%d ", p_att_alt->time);
 2276              		.loc 1 774 9 is_stmt 1 view .LVU632
 2277 0072 3268     		ldr	r2, [r6]	@ unaligned
 2278 0074 6149     		ldr	r1, .L133
 2279 0076 2046     		mov	r0, r4
 2280 0078 FFF7FEFF 		bl	shellPrint
 2281              	.LVL182:
 775:Task/Task_BlackBox.c ****         shellPrint(p_shell, "%f ", p_att_alt->baro);
 2282              		.loc 1 775 9 view .LVU633
 2283              		.loc 1 775 45 is_stmt 0 view .LVU634
 2284 007c 7068     		ldr	r0, [r6, #4]	@ unaligned
 2285              		.loc 1 775 9 view .LVU635
 2286 007e FFF7FEFF 		bl	__aeabi_f2d
 2287              	.LVL183:
 2288 0082 0246     		mov	r2, r0
 2289 0084 0B46     		mov	r3, r1
 2290 0086 DFF87C81 		ldr	r8, .L133+8
 2291 008a 4146     		mov	r1, r8
 2292 008c 2046     		mov	r0, r4
 2293 008e FFF7FEFF 		bl	shellPrint
 2294              	.LVL184:
 776:Task/Task_BlackBox.c ****         shellPrint(p_shell, "%f ", p_att_alt->acc[Axis_X] / p_att_alt->acc_scale);
 2295              		.loc 1 776 9 is_stmt 1 view .LVU636
 2296              		.loc 1 776 50 is_stmt 0 view .LVU637
 2297 0092 B6F91030 		ldrsh	r3, [r6, #16]	@ unaligned
 2298 0096 07EE903A 		vmov	s15, r3	@ int
 2299              		.loc 1 776 70 view .LVU638
 2300 009a B068     		ldr	r0, [r6, #8]	@ unaligned
 2301              		.loc 1 776 59 view .LVU639
 2302 009c F8EEE77A 		vcvt.f32.s32	s15, s15
 2303              		.loc 1 776 9 view .LVU640
 2304 00a0 07EE100A 		vmov	s14, r0
 2305 00a4 C7EE877A 		vdiv.f32	s15, s15, s14
 2306 00a8 17EE900A 		vmov	r0, s15
 2307 00ac FFF7FEFF 		bl	__aeabi_f2d
 2308              	.LVL185:
 2309 00b0 0246     		mov	r2, r0
 2310 00b2 0B46     		mov	r3, r1
 2311 00b4 4146     		mov	r1, r8
 2312 00b6 2046     		mov	r0, r4
 2313 00b8 FFF7FEFF 		bl	shellPrint
 2314              	.LVL186:
 777:Task/Task_BlackBox.c ****         shellPrint(p_shell, "%f ", p_att_alt->acc[Axis_Y] / p_att_alt->acc_scale);
 2315              		.loc 1 777 9 is_stmt 1 view .LVU641
 2316              		.loc 1 777 50 is_stmt 0 view .LVU642
 2317 00bc B6F91230 		ldrsh	r3, [r6, #18]	@ unaligned
 2318 00c0 07EE903A 		vmov	s15, r3	@ int
 2319              		.loc 1 777 70 view .LVU643
ARM GAS  C:\Users\8bit\AppData\Local\Temp\cclQGHkl.s 			page 63


 2320 00c4 B068     		ldr	r0, [r6, #8]	@ unaligned
 2321              		.loc 1 777 59 view .LVU644
 2322 00c6 F8EEE77A 		vcvt.f32.s32	s15, s15
 2323              		.loc 1 777 9 view .LVU645
 2324 00ca 07EE100A 		vmov	s14, r0
 2325 00ce C7EE877A 		vdiv.f32	s15, s15, s14
 2326 00d2 17EE900A 		vmov	r0, s15
 2327 00d6 FFF7FEFF 		bl	__aeabi_f2d
 2328              	.LVL187:
 2329 00da 0246     		mov	r2, r0
 2330 00dc 0B46     		mov	r3, r1
 2331 00de 4146     		mov	r1, r8
 2332 00e0 2046     		mov	r0, r4
 2333 00e2 FFF7FEFF 		bl	shellPrint
 2334              	.LVL188:
 778:Task/Task_BlackBox.c ****         shellPrint(p_shell, "%f ", p_att_alt->acc[Axis_Z] / p_att_alt->acc_scale);
 2335              		.loc 1 778 9 is_stmt 1 view .LVU646
 2336              		.loc 1 778 50 is_stmt 0 view .LVU647
 2337 00e6 B6F91430 		ldrsh	r3, [r6, #20]	@ unaligned
 2338 00ea 07EE903A 		vmov	s15, r3	@ int
 2339              		.loc 1 778 70 view .LVU648
 2340 00ee B068     		ldr	r0, [r6, #8]	@ unaligned
 2341              		.loc 1 778 59 view .LVU649
 2342 00f0 F8EEE77A 		vcvt.f32.s32	s15, s15
 2343              		.loc 1 778 9 view .LVU650
 2344 00f4 07EE100A 		vmov	s14, r0
 2345 00f8 C7EE877A 		vdiv.f32	s15, s15, s14
 2346 00fc 17EE900A 		vmov	r0, s15
 2347 0100 FFF7FEFF 		bl	__aeabi_f2d
 2348              	.LVL189:
 2349 0104 0246     		mov	r2, r0
 2350 0106 0B46     		mov	r3, r1
 2351 0108 4146     		mov	r1, r8
 2352 010a 2046     		mov	r0, r4
 2353 010c FFF7FEFF 		bl	shellPrint
 2354              	.LVL190:
 779:Task/Task_BlackBox.c ****         shellPrint(p_shell, "%f ", p_att_alt->gyr[Axis_X] / p_att_alt->gyr_scale);
 2355              		.loc 1 779 9 is_stmt 1 view .LVU651
 2356              		.loc 1 779 50 is_stmt 0 view .LVU652
 2357 0110 B6F91630 		ldrsh	r3, [r6, #22]	@ unaligned
 2358 0114 07EE903A 		vmov	s15, r3	@ int
 2359              		.loc 1 779 70 view .LVU653
 2360 0118 F068     		ldr	r0, [r6, #12]	@ unaligned
 2361              		.loc 1 779 59 view .LVU654
 2362 011a F8EEE77A 		vcvt.f32.s32	s15, s15
 2363              		.loc 1 779 9 view .LVU655
 2364 011e 07EE100A 		vmov	s14, r0
 2365 0122 C7EE877A 		vdiv.f32	s15, s15, s14
 2366 0126 17EE900A 		vmov	r0, s15
 2367 012a FFF7FEFF 		bl	__aeabi_f2d
 2368              	.LVL191:
 2369 012e 0246     		mov	r2, r0
 2370 0130 0B46     		mov	r3, r1
 2371 0132 4146     		mov	r1, r8
 2372 0134 2046     		mov	r0, r4
 2373 0136 FFF7FEFF 		bl	shellPrint
 2374              	.LVL192:
ARM GAS  C:\Users\8bit\AppData\Local\Temp\cclQGHkl.s 			page 64


 780:Task/Task_BlackBox.c ****         shellPrint(p_shell, "%f ", p_att_alt->gyr[Axis_Y] / p_att_alt->gyr_scale);
 2375              		.loc 1 780 9 is_stmt 1 view .LVU656
 2376              		.loc 1 780 50 is_stmt 0 view .LVU657
 2377 013a B6F91830 		ldrsh	r3, [r6, #24]	@ unaligned
 2378 013e 07EE903A 		vmov	s15, r3	@ int
 2379              		.loc 1 780 70 view .LVU658
 2380 0142 F068     		ldr	r0, [r6, #12]	@ unaligned
 2381              		.loc 1 780 59 view .LVU659
 2382 0144 F8EEE77A 		vcvt.f32.s32	s15, s15
 2383              		.loc 1 780 9 view .LVU660
 2384 0148 07EE100A 		vmov	s14, r0
 2385 014c C7EE877A 		vdiv.f32	s15, s15, s14
 2386 0150 17EE900A 		vmov	r0, s15
 2387 0154 FFF7FEFF 		bl	__aeabi_f2d
 2388              	.LVL193:
 2389 0158 0246     		mov	r2, r0
 2390 015a 0B46     		mov	r3, r1
 2391 015c 4146     		mov	r1, r8
 2392 015e 2046     		mov	r0, r4
 2393 0160 FFF7FEFF 		bl	shellPrint
 2394              	.LVL194:
 781:Task/Task_BlackBox.c ****         shellPrint(p_shell, "%f ", p_att_alt->gyr[Axis_Z] / p_att_alt->gyr_scale);
 2395              		.loc 1 781 9 is_stmt 1 view .LVU661
 2396              		.loc 1 781 50 is_stmt 0 view .LVU662
 2397 0164 B6F91A30 		ldrsh	r3, [r6, #26]	@ unaligned
 2398 0168 07EE903A 		vmov	s15, r3	@ int
 2399              		.loc 1 781 70 view .LVU663
 2400 016c F068     		ldr	r0, [r6, #12]	@ unaligned
 2401              		.loc 1 781 59 view .LVU664
 2402 016e F8EEE77A 		vcvt.f32.s32	s15, s15
 2403              		.loc 1 781 9 view .LVU665
 2404 0172 07EE100A 		vmov	s14, r0
 2405 0176 C7EE877A 		vdiv.f32	s15, s15, s14
 2406 017a 17EE900A 		vmov	r0, s15
 2407 017e FFF7FEFF 		bl	__aeabi_f2d
 2408              	.LVL195:
 2409 0182 0246     		mov	r2, r0
 2410 0184 0B46     		mov	r3, r1
 2411 0186 4146     		mov	r1, r8
 2412 0188 2046     		mov	r0, r4
 2413 018a FFF7FEFF 		bl	shellPrint
 2414              	.LVL196:
 782:Task/Task_BlackBox.c ****         shellPrint(p_shell, "%f ", p_att_alt->pitch);
 2415              		.loc 1 782 9 is_stmt 1 view .LVU666
 2416              		.loc 1 782 45 is_stmt 0 view .LVU667
 2417 018e F069     		ldr	r0, [r6, #28]	@ unaligned
 2418              		.loc 1 782 9 view .LVU668
 2419 0190 FFF7FEFF 		bl	__aeabi_f2d
 2420              	.LVL197:
 2421 0194 0246     		mov	r2, r0
 2422 0196 0B46     		mov	r3, r1
 2423 0198 4146     		mov	r1, r8
 2424 019a 2046     		mov	r0, r4
 2425 019c FFF7FEFF 		bl	shellPrint
 2426              	.LVL198:
 783:Task/Task_BlackBox.c ****         shellPrint(p_shell, "%f ", p_att_alt->roll);
 2427              		.loc 1 783 9 is_stmt 1 view .LVU669
ARM GAS  C:\Users\8bit\AppData\Local\Temp\cclQGHkl.s 			page 65


 2428              		.loc 1 783 45 is_stmt 0 view .LVU670
 2429 01a0 306A     		ldr	r0, [r6, #32]	@ unaligned
 2430              		.loc 1 783 9 view .LVU671
 2431 01a2 FFF7FEFF 		bl	__aeabi_f2d
 2432              	.LVL199:
 2433 01a6 0246     		mov	r2, r0
 2434 01a8 0B46     		mov	r3, r1
 2435 01aa 4146     		mov	r1, r8
 2436 01ac 2046     		mov	r0, r4
 2437 01ae FFF7FEFF 		bl	shellPrint
 2438              	.LVL200:
 784:Task/Task_BlackBox.c ****         shellPrint(p_shell, "%f ", p_att_alt->yaw);
 2439              		.loc 1 784 9 is_stmt 1 view .LVU672
 2440              		.loc 1 784 45 is_stmt 0 view .LVU673
 2441 01b2 706A     		ldr	r0, [r6, #36]	@ unaligned
 2442              		.loc 1 784 9 view .LVU674
 2443 01b4 FFF7FEFF 		bl	__aeabi_f2d
 2444              	.LVL201:
 2445 01b8 0246     		mov	r2, r0
 2446 01ba 0B46     		mov	r3, r1
 2447 01bc 4146     		mov	r1, r8
 2448 01be 2046     		mov	r0, r4
 2449 01c0 FFF7FEFF 		bl	shellPrint
 2450              	.LVL202:
 785:Task/Task_BlackBox.c ****         shellPrint(p_shell, "%f\r\n", p_att_alt->alt);
 2451              		.loc 1 785 9 is_stmt 1 view .LVU675
 2452              		.loc 1 785 48 is_stmt 0 view .LVU676
 2453 01c4 B06A     		ldr	r0, [r6, #40]	@ unaligned
 2454              		.loc 1 785 9 view .LVU677
 2455 01c6 FFF7FEFF 		bl	__aeabi_f2d
 2456              	.LVL203:
 2457 01ca 0246     		mov	r2, r0
 2458 01cc 0B46     		mov	r3, r1
 2459 01ce 0C49     		ldr	r1, .L133+4
 2460 01d0 2046     		mov	r0, r4
 2461 01d2 FFF7FEFF 		bl	shellPrint
 2462              	.LVL204:
 2463              	.L123:
 786:Task/Task_BlackBox.c ****     }
 787:Task/Task_BlackBox.c **** 
 788:Task/Task_BlackBox.c ****     *p_data += sizeof(BlackBox_AttAltData_TypeDef);
 2464              		.loc 1 788 5 is_stmt 1 view .LVU678
 2465              		.loc 1 788 13 is_stmt 0 view .LVU679
 2466 01d6 2B68     		ldr	r3, [r5]
 2467 01d8 2C33     		adds	r3, r3, #44
 2468 01da 2B60     		str	r3, [r5]
 789:Task/Task_BlackBox.c ****     *len -= sizeof(BlackBox_AttAltData_TypeDef);
 2469              		.loc 1 789 5 is_stmt 1 view .LVU680
 2470              		.loc 1 789 10 is_stmt 0 view .LVU681
 2471 01dc 3B68     		ldr	r3, [r7]
 2472 01de 2C3B     		subs	r3, r3, #44
 2473 01e0 3B60     		str	r3, [r7]
 790:Task/Task_BlackBox.c ****     return BlackBox_Cnv_None_Error;
 2474              		.loc 1 790 5 is_stmt 1 view .LVU682
 2475              		.loc 1 790 12 is_stmt 0 view .LVU683
 2476 01e2 0020     		movs	r0, #0
 2477              	.L121:
ARM GAS  C:\Users\8bit\AppData\Local\Temp\cclQGHkl.s 			page 66


 791:Task/Task_BlackBox.c **** }
 2478              		.loc 1 791 1 view .LVU684
 2479 01e4 BDE8F081 		pop	{r4, r5, r6, r7, r8, pc}
 2480              	.LVL205:
 2481              	.L124:
 2482              	.LCFI21:
 2483              		.cfi_def_cfa_offset 0
 2484              		.cfi_restore 4
 2485              		.cfi_restore 5
 2486              		.cfi_restore 6
 2487              		.cfi_restore 7
 2488              		.cfi_restore 8
 2489              		.cfi_restore 14
 769:Task/Task_BlackBox.c **** 
 2490              		.loc 1 769 16 view .LVU685
 2491 01e8 0220     		movs	r0, #2
 2492              	.LVL206:
 2493              		.loc 1 791 1 view .LVU686
 2494 01ea 7047     		bx	lr
 2495              	.LVL207:
 2496              	.L125:
 2497              	.LCFI22:
 2498              		.cfi_def_cfa_offset 24
 2499              		.cfi_offset 4, -24
 2500              		.cfi_offset 5, -20
 2501              		.cfi_offset 6, -16
 2502              		.cfi_offset 7, -12
 2503              		.cfi_offset 8, -8
 2504              		.cfi_offset 14, -4
 769:Task/Task_BlackBox.c **** 
 2505              		.loc 1 769 16 view .LVU687
 2506 01ec 0220     		movs	r0, #2
 2507              	.LVL208:
 769:Task/Task_BlackBox.c **** 
 2508              		.loc 1 769 16 view .LVU688
 2509 01ee F9E7     		b	.L121
 2510              	.LVL209:
 2511              	.L126:
 769:Task/Task_BlackBox.c **** 
 2512              		.loc 1 769 16 view .LVU689
 2513 01f0 0220     		movs	r0, #2
 2514              	.LVL210:
 769:Task/Task_BlackBox.c **** 
 2515              		.loc 1 769 16 view .LVU690
 2516 01f2 F7E7     		b	.L121
 2517              	.LVL211:
 2518              	.L127:
 769:Task/Task_BlackBox.c **** 
 2519              		.loc 1 769 16 view .LVU691
 2520 01f4 0220     		movs	r0, #2
 2521              	.LVL212:
 769:Task/Task_BlackBox.c **** 
 2522              		.loc 1 769 16 view .LVU692
 2523 01f6 F5E7     		b	.L121
 2524              	.LVL213:
 2525              	.L128:
 769:Task/Task_BlackBox.c **** 
ARM GAS  C:\Users\8bit\AppData\Local\Temp\cclQGHkl.s 			page 67


 2526              		.loc 1 769 16 view .LVU693
 2527 01f8 0220     		movs	r0, #2
 2528              	.LVL214:
 769:Task/Task_BlackBox.c **** 
 2529              		.loc 1 769 16 view .LVU694
 2530 01fa F3E7     		b	.L121
 2531              	.L134:
 2532              		.align	2
 2533              	.L133:
 2534 01fc 00000000 		.word	.LC25
 2535 0200 08000000 		.word	.LC27
 2536 0204 04000000 		.word	.LC26
 2537              		.cfi_endproc
 2538              	.LFE162:
 2540              		.section	.text.TaskBlackBox_ConvertLogData_To_CtlAng,"ax",%progbits
 2541              		.align	1
 2542              		.syntax unified
 2543              		.thumb
 2544              		.thumb_func
 2546              	TaskBlackBox_ConvertLogData_To_CtlAng:
 2547              	.LVL215:
 2548              	.LFB163:
 792:Task/Task_BlackBox.c **** 
 793:Task/Task_BlackBox.c **** /* angular control log data */
 794:Task/Task_BlackBox.c **** static BlackBox_ConvertError_List TaskBlackBox_ConvertLogData_To_CtlAng(Shell *p_shell, BlackBox_An
 795:Task/Task_BlackBox.c **** {
 2549              		.loc 1 795 1 is_stmt 1 view -0
 2550              		.cfi_startproc
 2551              		@ args = 0, pretend = 0, frame = 0
 2552              		@ frame_needed = 0, uses_anonymous_args = 0
 796:Task/Task_BlackBox.c ****     if ((p_ang_ctl == NULL) || \
 2553              		.loc 1 796 5 view .LVU696
 2554              		.loc 1 796 8 is_stmt 0 view .LVU697
 2555 0000 0029     		cmp	r1, #0
 2556 0002 6FD0     		beq	.L138
 795:Task/Task_BlackBox.c ****     if ((p_ang_ctl == NULL) || \
 2557              		.loc 1 795 1 discriminator 1 view .LVU698
 2558 0004 2DE9F041 		push	{r4, r5, r6, r7, r8, lr}
 2559              	.LCFI23:
 2560              		.cfi_def_cfa_offset 24
 2561              		.cfi_offset 4, -24
 2562              		.cfi_offset 5, -20
 2563              		.cfi_offset 6, -16
 2564              		.cfi_offset 7, -12
 2565              		.cfi_offset 8, -8
 2566              		.cfi_offset 14, -4
 2567 0008 0646     		mov	r6, r0
 2568 000a 1546     		mov	r5, r2
 2569 000c 1F46     		mov	r7, r3
 2570 000e 0C46     		mov	r4, r1
 2571              		.loc 1 796 29 discriminator 1 view .LVU699
 2572 0010 002A     		cmp	r2, #0
 2573 0012 69D0     		beq	.L139
 797:Task/Task_BlackBox.c ****         (p_data == NULL) || \
 798:Task/Task_BlackBox.c ****         (*p_data == NULL) || \
 2574              		.loc 1 798 10 view .LVU700
 2575 0014 1268     		ldr	r2, [r2]
ARM GAS  C:\Users\8bit\AppData\Local\Temp\cclQGHkl.s 			page 68


 2576              	.LVL216:
 797:Task/Task_BlackBox.c ****         (p_data == NULL) || \
 2577              		.loc 1 797 26 view .LVU701
 2578 0016 002A     		cmp	r2, #0
 2579 0018 68D0     		beq	.L140
 2580              		.loc 1 798 27 view .LVU702
 2581 001a 002B     		cmp	r3, #0
 2582 001c 68D0     		beq	.L141
 799:Task/Task_BlackBox.c ****         (len == NULL) || \
 800:Task/Task_BlackBox.c ****         (*len < sizeof(BlackBox_AngCtlData_TypeDef)))
 2583              		.loc 1 800 10 view .LVU703
 2584 001e 1B68     		ldr	r3, [r3]
 2585              	.LVL217:
 799:Task/Task_BlackBox.c ****         (len == NULL) || \
 2586              		.loc 1 799 23 view .LVU704
 2587 0020 1C2B     		cmp	r3, #28
 2588 0022 67D9     		bls	.L142
 801:Task/Task_BlackBox.c ****         return BlackBox_Cnv_Size_Error;
 802:Task/Task_BlackBox.c ****     
 803:Task/Task_BlackBox.c ****     memcpy(p_ang_ctl, *p_data, sizeof(BlackBox_AngCtlData_TypeDef));
 2589              		.loc 1 803 5 is_stmt 1 view .LVU705
 2590 0024 1068     		ldr	r0, [r2]	@ unaligned
 2591              	.LVL218:
 2592              		.loc 1 803 5 is_stmt 0 view .LVU706
 2593 0026 5168     		ldr	r1, [r2, #4]	@ unaligned
 2594              	.LVL219:
 2595              		.loc 1 803 5 view .LVU707
 2596 0028 9368     		ldr	r3, [r2, #8]	@ unaligned
 2597 002a D2F80CC0 		ldr	ip, [r2, #12]	@ unaligned
 2598 002e 2060     		str	r0, [r4]	@ unaligned
 2599 0030 6160     		str	r1, [r4, #4]	@ unaligned
 2600 0032 A360     		str	r3, [r4, #8]	@ unaligned
 2601 0034 C4F80CC0 		str	ip, [r4, #12]	@ unaligned
 2602 0038 1069     		ldr	r0, [r2, #16]	@ unaligned
 2603 003a 5169     		ldr	r1, [r2, #20]	@ unaligned
 2604 003c 9369     		ldr	r3, [r2, #24]	@ unaligned
 2605 003e 2061     		str	r0, [r4, #16]	@ unaligned
 2606 0040 6161     		str	r1, [r4, #20]	@ unaligned
 2607 0042 A361     		str	r3, [r4, #24]	@ unaligned
 2608 0044 137F     		ldrb	r3, [r2, #28]	@ zero_extendqisi2
 2609 0046 2377     		strb	r3, [r4, #28]
 804:Task/Task_BlackBox.c ****     if (p_shell)
 2610              		.loc 1 804 5 is_stmt 1 view .LVU708
 2611              		.loc 1 804 8 is_stmt 0 view .LVU709
 2612 0048 002E     		cmp	r6, #0
 2613 004a 42D0     		beq	.L137
 805:Task/Task_BlackBox.c ****     {
 806:Task/Task_BlackBox.c ****         shellPrint(p_shell, "%d ", p_ang_ctl->time);
 2614              		.loc 1 806 9 is_stmt 1 view .LVU710
 2615 004c 2268     		ldr	r2, [r4]	@ unaligned
 2616 004e 2A49     		ldr	r1, .L147
 2617 0050 3046     		mov	r0, r6
 2618 0052 FFF7FEFF 		bl	shellPrint
 2619              	.LVL220:
 807:Task/Task_BlackBox.c ****         shellPrint(p_shell, "%f ", p_ang_ctl->exp_gyr[Axis_X]);
 2620              		.loc 1 807 9 view .LVU711
 2621              		.loc 1 807 54 is_stmt 0 view .LVU712
ARM GAS  C:\Users\8bit\AppData\Local\Temp\cclQGHkl.s 			page 69


 2622 0056 D4F81100 		ldr	r0, [r4, #17]	@ unaligned
 2623              		.loc 1 807 9 view .LVU713
 2624 005a FFF7FEFF 		bl	__aeabi_f2d
 2625              	.LVL221:
 2626 005e 0246     		mov	r2, r0
 2627 0060 0B46     		mov	r3, r1
 2628 0062 DFF89C80 		ldr	r8, .L147+8
 2629 0066 4146     		mov	r1, r8
 2630 0068 3046     		mov	r0, r6
 2631 006a FFF7FEFF 		bl	shellPrint
 2632              	.LVL222:
 808:Task/Task_BlackBox.c ****         shellPrint(p_shell, "%f ", p_ang_ctl->exp_gyr[Axis_Y]);
 2633              		.loc 1 808 9 is_stmt 1 view .LVU714
 2634              		.loc 1 808 54 is_stmt 0 view .LVU715
 2635 006e D4F81500 		ldr	r0, [r4, #21]	@ unaligned
 2636              		.loc 1 808 9 view .LVU716
 2637 0072 FFF7FEFF 		bl	__aeabi_f2d
 2638              	.LVL223:
 2639 0076 0246     		mov	r2, r0
 2640 0078 0B46     		mov	r3, r1
 2641 007a 4146     		mov	r1, r8
 2642 007c 3046     		mov	r0, r6
 2643 007e FFF7FEFF 		bl	shellPrint
 2644              	.LVL224:
 809:Task/Task_BlackBox.c ****         shellPrint(p_shell, "%f ", p_ang_ctl->exp_gyr[Axis_Z]);
 2645              		.loc 1 809 9 is_stmt 1 view .LVU717
 2646              		.loc 1 809 54 is_stmt 0 view .LVU718
 2647 0082 D4F81900 		ldr	r0, [r4, #25]	@ unaligned
 2648              		.loc 1 809 9 view .LVU719
 2649 0086 FFF7FEFF 		bl	__aeabi_f2d
 2650              	.LVL225:
 2651 008a 0246     		mov	r2, r0
 2652 008c 0B46     		mov	r3, r1
 2653 008e 4146     		mov	r1, r8
 2654 0090 3046     		mov	r0, r6
 2655 0092 FFF7FEFF 		bl	shellPrint
 2656              	.LVL226:
 810:Task/Task_BlackBox.c ****         shellPrint(p_shell, "%f ", p_ang_ctl->gyr[Axis_X]);
 2657              		.loc 1 810 9 is_stmt 1 view .LVU720
 2658              		.loc 1 810 50 is_stmt 0 view .LVU721
 2659 0096 D4F80500 		ldr	r0, [r4, #5]	@ unaligned
 2660              		.loc 1 810 9 view .LVU722
 2661 009a FFF7FEFF 		bl	__aeabi_f2d
 2662              	.LVL227:
 2663 009e 0246     		mov	r2, r0
 2664 00a0 0B46     		mov	r3, r1
 2665 00a2 4146     		mov	r1, r8
 2666 00a4 3046     		mov	r0, r6
 2667 00a6 FFF7FEFF 		bl	shellPrint
 2668              	.LVL228:
 811:Task/Task_BlackBox.c ****         shellPrint(p_shell, "%f ", p_ang_ctl->gyr[Axis_Y]);
 2669              		.loc 1 811 9 is_stmt 1 view .LVU723
 2670              		.loc 1 811 50 is_stmt 0 view .LVU724
 2671 00aa D4F80900 		ldr	r0, [r4, #9]	@ unaligned
 2672              		.loc 1 811 9 view .LVU725
 2673 00ae FFF7FEFF 		bl	__aeabi_f2d
 2674              	.LVL229:
ARM GAS  C:\Users\8bit\AppData\Local\Temp\cclQGHkl.s 			page 70


 2675 00b2 0246     		mov	r2, r0
 2676 00b4 0B46     		mov	r3, r1
 2677 00b6 4146     		mov	r1, r8
 2678 00b8 3046     		mov	r0, r6
 2679 00ba FFF7FEFF 		bl	shellPrint
 2680              	.LVL230:
 812:Task/Task_BlackBox.c ****         shellPrint(p_shell, "%f\r\n", p_ang_ctl->gyr[Axis_Z]);
 2681              		.loc 1 812 9 is_stmt 1 view .LVU726
 2682              		.loc 1 812 53 is_stmt 0 view .LVU727
 2683 00be D4F80D00 		ldr	r0, [r4, #13]	@ unaligned
 2684              		.loc 1 812 9 view .LVU728
 2685 00c2 FFF7FEFF 		bl	__aeabi_f2d
 2686              	.LVL231:
 2687 00c6 0246     		mov	r2, r0
 2688 00c8 0B46     		mov	r3, r1
 2689 00ca 0C49     		ldr	r1, .L147+4
 2690 00cc 3046     		mov	r0, r6
 2691 00ce FFF7FEFF 		bl	shellPrint
 2692              	.LVL232:
 2693              	.L137:
 813:Task/Task_BlackBox.c ****     }
 814:Task/Task_BlackBox.c **** 
 815:Task/Task_BlackBox.c ****     *p_data += sizeof(BlackBox_AngCtlData_TypeDef);
 2694              		.loc 1 815 5 is_stmt 1 view .LVU729
 2695              		.loc 1 815 13 is_stmt 0 view .LVU730
 2696 00d2 2B68     		ldr	r3, [r5]
 2697 00d4 1D33     		adds	r3, r3, #29
 2698 00d6 2B60     		str	r3, [r5]
 816:Task/Task_BlackBox.c ****     *len -= sizeof(BlackBox_AngCtlData_TypeDef);
 2699              		.loc 1 816 5 is_stmt 1 view .LVU731
 2700              		.loc 1 816 10 is_stmt 0 view .LVU732
 2701 00d8 3B68     		ldr	r3, [r7]
 2702 00da 1D3B     		subs	r3, r3, #29
 2703 00dc 3B60     		str	r3, [r7]
 817:Task/Task_BlackBox.c ****     return BlackBox_Cnv_None_Error;
 2704              		.loc 1 817 5 is_stmt 1 view .LVU733
 2705              		.loc 1 817 12 is_stmt 0 view .LVU734
 2706 00de 0020     		movs	r0, #0
 2707              	.L136:
 818:Task/Task_BlackBox.c **** }
 2708              		.loc 1 818 1 view .LVU735
 2709 00e0 BDE8F081 		pop	{r4, r5, r6, r7, r8, pc}
 2710              	.LVL233:
 2711              	.L138:
 2712              	.LCFI24:
 2713              		.cfi_def_cfa_offset 0
 2714              		.cfi_restore 4
 2715              		.cfi_restore 5
 2716              		.cfi_restore 6
 2717              		.cfi_restore 7
 2718              		.cfi_restore 8
 2719              		.cfi_restore 14
 801:Task/Task_BlackBox.c ****     
 2720              		.loc 1 801 16 view .LVU736
 2721 00e4 0220     		movs	r0, #2
 2722              	.LVL234:
 2723              		.loc 1 818 1 view .LVU737
ARM GAS  C:\Users\8bit\AppData\Local\Temp\cclQGHkl.s 			page 71


 2724 00e6 7047     		bx	lr
 2725              	.LVL235:
 2726              	.L139:
 2727              	.LCFI25:
 2728              		.cfi_def_cfa_offset 24
 2729              		.cfi_offset 4, -24
 2730              		.cfi_offset 5, -20
 2731              		.cfi_offset 6, -16
 2732              		.cfi_offset 7, -12
 2733              		.cfi_offset 8, -8
 2734              		.cfi_offset 14, -4
 801:Task/Task_BlackBox.c ****     
 2735              		.loc 1 801 16 view .LVU738
 2736 00e8 0220     		movs	r0, #2
 2737              	.LVL236:
 801:Task/Task_BlackBox.c ****     
 2738              		.loc 1 801 16 view .LVU739
 2739 00ea F9E7     		b	.L136
 2740              	.LVL237:
 2741              	.L140:
 801:Task/Task_BlackBox.c ****     
 2742              		.loc 1 801 16 view .LVU740
 2743 00ec 0220     		movs	r0, #2
 2744              	.LVL238:
 801:Task/Task_BlackBox.c ****     
 2745              		.loc 1 801 16 view .LVU741
 2746 00ee F7E7     		b	.L136
 2747              	.LVL239:
 2748              	.L141:
 801:Task/Task_BlackBox.c ****     
 2749              		.loc 1 801 16 view .LVU742
 2750 00f0 0220     		movs	r0, #2
 2751              	.LVL240:
 801:Task/Task_BlackBox.c ****     
 2752              		.loc 1 801 16 view .LVU743
 2753 00f2 F5E7     		b	.L136
 2754              	.LVL241:
 2755              	.L142:
 801:Task/Task_BlackBox.c ****     
 2756              		.loc 1 801 16 view .LVU744
 2757 00f4 0220     		movs	r0, #2
 2758              	.LVL242:
 801:Task/Task_BlackBox.c ****     
 2759              		.loc 1 801 16 view .LVU745
 2760 00f6 F3E7     		b	.L136
 2761              	.L148:
 2762              		.align	2
 2763              	.L147:
 2764 00f8 00000000 		.word	.LC25
 2765 00fc 08000000 		.word	.LC27
 2766 0100 04000000 		.word	.LC26
 2767              		.cfi_endproc
 2768              	.LFE163:
 2770              		.section	.text.TaskBlackBox_ConvertLogData_To_CtlAtt,"ax",%progbits
 2771              		.align	1
 2772              		.syntax unified
 2773              		.thumb
ARM GAS  C:\Users\8bit\AppData\Local\Temp\cclQGHkl.s 			page 72


 2774              		.thumb_func
 2776              	TaskBlackBox_ConvertLogData_To_CtlAtt:
 2777              	.LVL243:
 2778              	.LFB164:
 819:Task/Task_BlackBox.c **** 
 820:Task/Task_BlackBox.c **** /* attitude control log data */
 821:Task/Task_BlackBox.c **** static BlackBox_ConvertError_List TaskBlackBox_ConvertLogData_To_CtlAtt(Shell *p_shell, BlackBox_At
 822:Task/Task_BlackBox.c **** {
 2779              		.loc 1 822 1 is_stmt 1 view -0
 2780              		.cfi_startproc
 2781              		@ args = 0, pretend = 0, frame = 0
 2782              		@ frame_needed = 0, uses_anonymous_args = 0
 823:Task/Task_BlackBox.c ****     if ((p_att_ctl == NULL) || \
 2783              		.loc 1 823 5 view .LVU747
 2784              		.loc 1 823 8 is_stmt 0 view .LVU748
 2785 0000 0029     		cmp	r1, #0
 2786 0002 6FD0     		beq	.L152
 822:Task/Task_BlackBox.c ****     if ((p_att_ctl == NULL) || \
 2787              		.loc 1 822 1 discriminator 1 view .LVU749
 2788 0004 2DE9F041 		push	{r4, r5, r6, r7, r8, lr}
 2789              	.LCFI26:
 2790              		.cfi_def_cfa_offset 24
 2791              		.cfi_offset 4, -24
 2792              		.cfi_offset 5, -20
 2793              		.cfi_offset 6, -16
 2794              		.cfi_offset 7, -12
 2795              		.cfi_offset 8, -8
 2796              		.cfi_offset 14, -4
 2797 0008 0646     		mov	r6, r0
 2798 000a 1546     		mov	r5, r2
 2799 000c 1F46     		mov	r7, r3
 2800 000e 0C46     		mov	r4, r1
 2801              		.loc 1 823 29 discriminator 1 view .LVU750
 2802 0010 002A     		cmp	r2, #0
 2803 0012 69D0     		beq	.L153
 824:Task/Task_BlackBox.c ****         (p_data == NULL) || \
 825:Task/Task_BlackBox.c ****         (*p_data == NULL) || \
 2804              		.loc 1 825 10 view .LVU751
 2805 0014 1268     		ldr	r2, [r2]
 2806              	.LVL244:
 824:Task/Task_BlackBox.c ****         (p_data == NULL) || \
 2807              		.loc 1 824 26 view .LVU752
 2808 0016 002A     		cmp	r2, #0
 2809 0018 68D0     		beq	.L154
 2810              		.loc 1 825 27 view .LVU753
 2811 001a 002B     		cmp	r3, #0
 2812 001c 68D0     		beq	.L155
 826:Task/Task_BlackBox.c ****         (len == NULL) || \
 827:Task/Task_BlackBox.c ****         (*len < sizeof(BlackBox_AttCtlData_TypeDef)))
 2813              		.loc 1 827 10 view .LVU754
 2814 001e 1B68     		ldr	r3, [r3]
 2815              	.LVL245:
 826:Task/Task_BlackBox.c ****         (len == NULL) || \
 2816              		.loc 1 826 23 view .LVU755
 2817 0020 1C2B     		cmp	r3, #28
 2818 0022 67D9     		bls	.L156
 828:Task/Task_BlackBox.c ****         return BlackBox_Cnv_Size_Error;
ARM GAS  C:\Users\8bit\AppData\Local\Temp\cclQGHkl.s 			page 73


 829:Task/Task_BlackBox.c **** 
 830:Task/Task_BlackBox.c ****     memcpy(p_att_ctl, *p_data, sizeof(BlackBox_AttCtlData_TypeDef));
 2819              		.loc 1 830 5 is_stmt 1 view .LVU756
 2820 0024 1068     		ldr	r0, [r2]	@ unaligned
 2821              	.LVL246:
 2822              		.loc 1 830 5 is_stmt 0 view .LVU757
 2823 0026 5168     		ldr	r1, [r2, #4]	@ unaligned
 2824              	.LVL247:
 2825              		.loc 1 830 5 view .LVU758
 2826 0028 9368     		ldr	r3, [r2, #8]	@ unaligned
 2827 002a D2F80CC0 		ldr	ip, [r2, #12]	@ unaligned
 2828 002e 2060     		str	r0, [r4]	@ unaligned
 2829 0030 6160     		str	r1, [r4, #4]	@ unaligned
 2830 0032 A360     		str	r3, [r4, #8]	@ unaligned
 2831 0034 C4F80CC0 		str	ip, [r4, #12]	@ unaligned
 2832 0038 1069     		ldr	r0, [r2, #16]	@ unaligned
 2833 003a 5169     		ldr	r1, [r2, #20]	@ unaligned
 2834 003c 9369     		ldr	r3, [r2, #24]	@ unaligned
 2835 003e 2061     		str	r0, [r4, #16]	@ unaligned
 2836 0040 6161     		str	r1, [r4, #20]	@ unaligned
 2837 0042 A361     		str	r3, [r4, #24]	@ unaligned
 2838 0044 137F     		ldrb	r3, [r2, #28]	@ zero_extendqisi2
 2839 0046 2377     		strb	r3, [r4, #28]
 831:Task/Task_BlackBox.c ****     if (p_shell)
 2840              		.loc 1 831 5 is_stmt 1 view .LVU759
 2841              		.loc 1 831 8 is_stmt 0 view .LVU760
 2842 0048 002E     		cmp	r6, #0
 2843 004a 42D0     		beq	.L151
 832:Task/Task_BlackBox.c ****     {
 833:Task/Task_BlackBox.c ****         shellPrint(p_shell, "%d ", p_att_ctl->time);
 2844              		.loc 1 833 9 is_stmt 1 view .LVU761
 2845 004c 2268     		ldr	r2, [r4]	@ unaligned
 2846 004e 2A49     		ldr	r1, .L161
 2847 0050 3046     		mov	r0, r6
 2848 0052 FFF7FEFF 		bl	shellPrint
 2849              	.LVL248:
 834:Task/Task_BlackBox.c ****         shellPrint(p_shell, "%f ", p_att_ctl->exp_pitch);
 2850              		.loc 1 834 9 view .LVU762
 2851              		.loc 1 834 45 is_stmt 0 view .LVU763
 2852 0056 D4F81100 		ldr	r0, [r4, #17]	@ unaligned
 2853              		.loc 1 834 9 view .LVU764
 2854 005a FFF7FEFF 		bl	__aeabi_f2d
 2855              	.LVL249:
 2856 005e 0246     		mov	r2, r0
 2857 0060 0B46     		mov	r3, r1
 2858 0062 DFF89C80 		ldr	r8, .L161+8
 2859 0066 4146     		mov	r1, r8
 2860 0068 3046     		mov	r0, r6
 2861 006a FFF7FEFF 		bl	shellPrint
 2862              	.LVL250:
 835:Task/Task_BlackBox.c ****         shellPrint(p_shell, "%f ", p_att_ctl->exp_roll);
 2863              		.loc 1 835 9 is_stmt 1 view .LVU765
 2864              		.loc 1 835 45 is_stmt 0 view .LVU766
 2865 006e D4F81500 		ldr	r0, [r4, #21]	@ unaligned
 2866              		.loc 1 835 9 view .LVU767
 2867 0072 FFF7FEFF 		bl	__aeabi_f2d
 2868              	.LVL251:
ARM GAS  C:\Users\8bit\AppData\Local\Temp\cclQGHkl.s 			page 74


 2869 0076 0246     		mov	r2, r0
 2870 0078 0B46     		mov	r3, r1
 2871 007a 4146     		mov	r1, r8
 2872 007c 3046     		mov	r0, r6
 2873 007e FFF7FEFF 		bl	shellPrint
 2874              	.LVL252:
 836:Task/Task_BlackBox.c ****         shellPrint(p_shell, "%f ", p_att_ctl->exp_gyr_z);
 2875              		.loc 1 836 9 is_stmt 1 view .LVU768
 2876              		.loc 1 836 45 is_stmt 0 view .LVU769
 2877 0082 D4F81900 		ldr	r0, [r4, #25]	@ unaligned
 2878              		.loc 1 836 9 view .LVU770
 2879 0086 FFF7FEFF 		bl	__aeabi_f2d
 2880              	.LVL253:
 2881 008a 0246     		mov	r2, r0
 2882 008c 0B46     		mov	r3, r1
 2883 008e 4146     		mov	r1, r8
 2884 0090 3046     		mov	r0, r6
 2885 0092 FFF7FEFF 		bl	shellPrint
 2886              	.LVL254:
 837:Task/Task_BlackBox.c ****         shellPrint(p_shell, "%f ", p_att_ctl->pitch);
 2887              		.loc 1 837 9 is_stmt 1 view .LVU771
 2888              		.loc 1 837 45 is_stmt 0 view .LVU772
 2889 0096 D4F80500 		ldr	r0, [r4, #5]	@ unaligned
 2890              		.loc 1 837 9 view .LVU773
 2891 009a FFF7FEFF 		bl	__aeabi_f2d
 2892              	.LVL255:
 2893 009e 0246     		mov	r2, r0
 2894 00a0 0B46     		mov	r3, r1
 2895 00a2 4146     		mov	r1, r8
 2896 00a4 3046     		mov	r0, r6
 2897 00a6 FFF7FEFF 		bl	shellPrint
 2898              	.LVL256:
 838:Task/Task_BlackBox.c ****         shellPrint(p_shell, "%f ", p_att_ctl->roll);
 2899              		.loc 1 838 9 is_stmt 1 view .LVU774
 2900              		.loc 1 838 45 is_stmt 0 view .LVU775
 2901 00aa D4F80900 		ldr	r0, [r4, #9]	@ unaligned
 2902              		.loc 1 838 9 view .LVU776
 2903 00ae FFF7FEFF 		bl	__aeabi_f2d
 2904              	.LVL257:
 2905 00b2 0246     		mov	r2, r0
 2906 00b4 0B46     		mov	r3, r1
 2907 00b6 4146     		mov	r1, r8
 2908 00b8 3046     		mov	r0, r6
 2909 00ba FFF7FEFF 		bl	shellPrint
 2910              	.LVL258:
 839:Task/Task_BlackBox.c ****         shellPrint(p_shell, "%f\r\n", p_att_ctl->gyr_z);
 2911              		.loc 1 839 9 is_stmt 1 view .LVU777
 2912              		.loc 1 839 48 is_stmt 0 view .LVU778
 2913 00be D4F80D00 		ldr	r0, [r4, #13]	@ unaligned
 2914              		.loc 1 839 9 view .LVU779
 2915 00c2 FFF7FEFF 		bl	__aeabi_f2d
 2916              	.LVL259:
 2917 00c6 0246     		mov	r2, r0
 2918 00c8 0B46     		mov	r3, r1
 2919 00ca 0C49     		ldr	r1, .L161+4
 2920 00cc 3046     		mov	r0, r6
 2921 00ce FFF7FEFF 		bl	shellPrint
ARM GAS  C:\Users\8bit\AppData\Local\Temp\cclQGHkl.s 			page 75


 2922              	.LVL260:
 2923              	.L151:
 840:Task/Task_BlackBox.c ****     }
 841:Task/Task_BlackBox.c **** 
 842:Task/Task_BlackBox.c ****     *p_data += sizeof(BlackBox_AttCtlData_TypeDef);
 2924              		.loc 1 842 5 is_stmt 1 view .LVU780
 2925              		.loc 1 842 13 is_stmt 0 view .LVU781
 2926 00d2 2B68     		ldr	r3, [r5]
 2927 00d4 1D33     		adds	r3, r3, #29
 2928 00d6 2B60     		str	r3, [r5]
 843:Task/Task_BlackBox.c ****     *len -= sizeof(BlackBox_AttCtlData_TypeDef);
 2929              		.loc 1 843 5 is_stmt 1 view .LVU782
 2930              		.loc 1 843 10 is_stmt 0 view .LVU783
 2931 00d8 3B68     		ldr	r3, [r7]
 2932 00da 1D3B     		subs	r3, r3, #29
 2933 00dc 3B60     		str	r3, [r7]
 844:Task/Task_BlackBox.c ****     return BlackBox_Cnv_None_Error;
 2934              		.loc 1 844 5 is_stmt 1 view .LVU784
 2935              		.loc 1 844 12 is_stmt 0 view .LVU785
 2936 00de 0020     		movs	r0, #0
 2937              	.L150:
 845:Task/Task_BlackBox.c **** }
 2938              		.loc 1 845 1 view .LVU786
 2939 00e0 BDE8F081 		pop	{r4, r5, r6, r7, r8, pc}
 2940              	.LVL261:
 2941              	.L152:
 2942              	.LCFI27:
 2943              		.cfi_def_cfa_offset 0
 2944              		.cfi_restore 4
 2945              		.cfi_restore 5
 2946              		.cfi_restore 6
 2947              		.cfi_restore 7
 2948              		.cfi_restore 8
 2949              		.cfi_restore 14
 828:Task/Task_BlackBox.c **** 
 2950              		.loc 1 828 16 view .LVU787
 2951 00e4 0220     		movs	r0, #2
 2952              	.LVL262:
 2953              		.loc 1 845 1 view .LVU788
 2954 00e6 7047     		bx	lr
 2955              	.LVL263:
 2956              	.L153:
 2957              	.LCFI28:
 2958              		.cfi_def_cfa_offset 24
 2959              		.cfi_offset 4, -24
 2960              		.cfi_offset 5, -20
 2961              		.cfi_offset 6, -16
 2962              		.cfi_offset 7, -12
 2963              		.cfi_offset 8, -8
 2964              		.cfi_offset 14, -4
 828:Task/Task_BlackBox.c **** 
 2965              		.loc 1 828 16 view .LVU789
 2966 00e8 0220     		movs	r0, #2
 2967              	.LVL264:
 828:Task/Task_BlackBox.c **** 
 2968              		.loc 1 828 16 view .LVU790
 2969 00ea F9E7     		b	.L150
ARM GAS  C:\Users\8bit\AppData\Local\Temp\cclQGHkl.s 			page 76


 2970              	.LVL265:
 2971              	.L154:
 828:Task/Task_BlackBox.c **** 
 2972              		.loc 1 828 16 view .LVU791
 2973 00ec 0220     		movs	r0, #2
 2974              	.LVL266:
 828:Task/Task_BlackBox.c **** 
 2975              		.loc 1 828 16 view .LVU792
 2976 00ee F7E7     		b	.L150
 2977              	.LVL267:
 2978              	.L155:
 828:Task/Task_BlackBox.c **** 
 2979              		.loc 1 828 16 view .LVU793
 2980 00f0 0220     		movs	r0, #2
 2981              	.LVL268:
 828:Task/Task_BlackBox.c **** 
 2982              		.loc 1 828 16 view .LVU794
 2983 00f2 F5E7     		b	.L150
 2984              	.LVL269:
 2985              	.L156:
 828:Task/Task_BlackBox.c **** 
 2986              		.loc 1 828 16 view .LVU795
 2987 00f4 0220     		movs	r0, #2
 2988              	.LVL270:
 828:Task/Task_BlackBox.c **** 
 2989              		.loc 1 828 16 view .LVU796
 2990 00f6 F3E7     		b	.L150
 2991              	.L162:
 2992              		.align	2
 2993              	.L161:
 2994 00f8 00000000 		.word	.LC25
 2995 00fc 08000000 		.word	.LC27
 2996 0100 04000000 		.word	.LC26
 2997              		.cfi_endproc
 2998              	.LFE164:
 3000              		.section	.rodata.TaskBlackBox_ConvertLogData_To_Ender.str1.4,"aMS",%progbits,1
 3001              		.align	2
 3002              	.LC28:
 3003 0000 5B20426C 		.ascii	"[ BlackBox ] ender error\015\012\000"
 3003      61636B42 
 3003      6F78205D 
 3003      20656E64 
 3003      65722065 
 3004              		.section	.text.TaskBlackBox_ConvertLogData_To_Ender,"ax",%progbits
 3005              		.align	1
 3006              		.syntax unified
 3007              		.thumb
 3008              		.thumb_func
 3010              	TaskBlackBox_ConvertLogData_To_Ender:
 3011              	.LVL271:
 3012              	.LFB160:
 703:Task/Task_BlackBox.c ****     if ((p_ender == NULL) || \
 3013              		.loc 1 703 1 is_stmt 1 view -0
 3014              		.cfi_startproc
 3015              		@ args = 0, pretend = 0, frame = 0
 3016              		@ frame_needed = 0, uses_anonymous_args = 0
 704:Task/Task_BlackBox.c ****         (p_data == NULL) || \
ARM GAS  C:\Users\8bit\AppData\Local\Temp\cclQGHkl.s 			page 77


 3017              		.loc 1 704 5 view .LVU798
 704:Task/Task_BlackBox.c ****         (p_data == NULL) || \
 3018              		.loc 1 704 8 is_stmt 0 view .LVU799
 3019 0000 51B3     		cbz	r1, .L167
 3020 0002 8C46     		mov	ip, r1
 704:Task/Task_BlackBox.c ****         (p_data == NULL) || \
 3021              		.loc 1 704 27 discriminator 1 view .LVU800
 3022 0004 52B3     		cbz	r2, .L168
 706:Task/Task_BlackBox.c ****         (len == NULL) || \
 3023              		.loc 1 706 10 view .LVU801
 3024 0006 1168     		ldr	r1, [r2]
 3025              	.LVL272:
 705:Task/Task_BlackBox.c ****         (*p_data == NULL) || \
 3026              		.loc 1 705 26 view .LVU802
 3027 0008 51B3     		cbz	r1, .L169
 706:Task/Task_BlackBox.c ****         (len == NULL) || \
 3028              		.loc 1 706 27 view .LVU803
 3029 000a 5BB3     		cbz	r3, .L170
 703:Task/Task_BlackBox.c ****     if ((p_ender == NULL) || \
 3030              		.loc 1 703 1 view .LVU804
 3031 000c 10B5     		push	{r4, lr}
 3032              	.LCFI29:
 3033              		.cfi_def_cfa_offset 8
 3034              		.cfi_offset 4, -8
 3035              		.cfi_offset 14, -4
 707:Task/Task_BlackBox.c ****         (*len < BLACKBOX_ENDER_SIZE))
 3036              		.loc 1 707 23 view .LVU805
 3037 000e 1C68     		ldr	r4, [r3]
 3038 0010 022C     		cmp	r4, #2
 3039 0012 01D8     		bhi	.L176
 709:Task/Task_BlackBox.c **** 
 3040              		.loc 1 709 16 view .LVU806
 3041 0014 0120     		movs	r0, #1
 3042              	.LVL273:
 3043              	.L164:
 724:Task/Task_BlackBox.c **** 
 3044              		.loc 1 724 1 view .LVU807
 3045 0016 10BD     		pop	{r4, pc}
 3046              	.LVL274:
 3047              	.L176:
 711:Task/Task_BlackBox.c ****     if (p_ender->ender != BLACKBOX_LOG_ENDER)
 3048              		.loc 1 711 5 is_stmt 1 view .LVU808
 3049 0018 B1F800E0 		ldrh	lr, [r1]	@ unaligned
 3050 001c 8978     		ldrb	r1, [r1, #2]	@ zero_extendqisi2
 3051 001e ACF800E0 		strh	lr, [ip]	@ unaligned
 3052 0022 8CF80210 		strb	r1, [ip, #2]
 712:Task/Task_BlackBox.c ****     {
 3053              		.loc 1 712 5 view .LVU809
 712:Task/Task_BlackBox.c ****     {
 3054              		.loc 1 712 16 is_stmt 0 view .LVU810
 3055 0026 BCF801E0 		ldrh	lr, [ip, #1]	@ unaligned
 712:Task/Task_BlackBox.c ****     {
 3056              		.loc 1 712 8 view .LVU811
 3057 002a 4FF22F21 		movw	r1, #61999
 3058 002e 8E45     		cmp	lr, r1
 3059 0030 07D1     		bne	.L177
 720:Task/Task_BlackBox.c ****     *len -= BLACKBOX_ENDER_SIZE;
ARM GAS  C:\Users\8bit\AppData\Local\Temp\cclQGHkl.s 			page 78


 3060              		.loc 1 720 5 is_stmt 1 view .LVU812
 720:Task/Task_BlackBox.c ****     *len -= BLACKBOX_ENDER_SIZE;
 3061              		.loc 1 720 13 is_stmt 0 view .LVU813
 3062 0032 1168     		ldr	r1, [r2]
 3063 0034 0331     		adds	r1, r1, #3
 3064 0036 1160     		str	r1, [r2]
 721:Task/Task_BlackBox.c **** 
 3065              		.loc 1 721 5 is_stmt 1 view .LVU814
 721:Task/Task_BlackBox.c **** 
 3066              		.loc 1 721 10 is_stmt 0 view .LVU815
 3067 0038 1A68     		ldr	r2, [r3]
 3068              	.LVL275:
 721:Task/Task_BlackBox.c **** 
 3069              		.loc 1 721 10 view .LVU816
 3070 003a 033A     		subs	r2, r2, #3
 3071 003c 1A60     		str	r2, [r3]
 723:Task/Task_BlackBox.c **** }
 3072              		.loc 1 723 5 is_stmt 1 view .LVU817
 723:Task/Task_BlackBox.c **** }
 3073              		.loc 1 723 12 is_stmt 0 view .LVU818
 3074 003e 0020     		movs	r0, #0
 3075              	.LVL276:
 723:Task/Task_BlackBox.c **** }
 3076              		.loc 1 723 12 view .LVU819
 3077 0040 E9E7     		b	.L164
 3078              	.LVL277:
 3079              	.L177:
 714:Task/Task_BlackBox.c ****         if (p_shell)
 3080              		.loc 1 714 9 is_stmt 1 view .LVU820
 3081 0042 0023     		movs	r3, #0
 3082              	.LVL278:
 714:Task/Task_BlackBox.c ****         if (p_shell)
 3083              		.loc 1 714 9 is_stmt 0 view .LVU821
 3084 0044 ACF80030 		strh	r3, [ip]	@ unaligned
 3085 0048 8CF80230 		strb	r3, [ip, #2]
 715:Task/Task_BlackBox.c ****             shellPrint(p_shell, "[ BlackBox ] ender error\r\n");
 3086              		.loc 1 715 9 is_stmt 1 view .LVU822
 715:Task/Task_BlackBox.c ****             shellPrint(p_shell, "[ BlackBox ] ender error\r\n");
 3087              		.loc 1 715 12 is_stmt 0 view .LVU823
 3088 004c 10B1     		cbz	r0, .L166
 716:Task/Task_BlackBox.c ****         return BlackBox_Cnv_Ender_Error;
 3089              		.loc 1 716 13 is_stmt 1 view .LVU824
 3090 004e 0649     		ldr	r1, .L178
 3091 0050 FFF7FEFF 		bl	shellPrint
 3092              	.LVL279:
 3093              	.L166:
 717:Task/Task_BlackBox.c ****     }
 3094              		.loc 1 717 9 view .LVU825
 717:Task/Task_BlackBox.c ****     }
 3095              		.loc 1 717 16 is_stmt 0 view .LVU826
 3096 0054 0520     		movs	r0, #5
 3097 0056 DEE7     		b	.L164
 3098              	.LVL280:
 3099              	.L167:
 3100              	.LCFI30:
 3101              		.cfi_def_cfa_offset 0
 3102              		.cfi_restore 4
ARM GAS  C:\Users\8bit\AppData\Local\Temp\cclQGHkl.s 			page 79


 3103              		.cfi_restore 14
 709:Task/Task_BlackBox.c **** 
 3104              		.loc 1 709 16 view .LVU827
 3105 0058 0120     		movs	r0, #1
 3106              	.LVL281:
 709:Task/Task_BlackBox.c **** 
 3107              		.loc 1 709 16 view .LVU828
 3108 005a 7047     		bx	lr
 3109              	.LVL282:
 3110              	.L168:
 709:Task/Task_BlackBox.c **** 
 3111              		.loc 1 709 16 view .LVU829
 3112 005c 0120     		movs	r0, #1
 3113              	.LVL283:
 709:Task/Task_BlackBox.c **** 
 3114              		.loc 1 709 16 view .LVU830
 3115 005e 7047     		bx	lr
 3116              	.LVL284:
 3117              	.L169:
 709:Task/Task_BlackBox.c **** 
 3118              		.loc 1 709 16 view .LVU831
 3119 0060 0120     		movs	r0, #1
 3120              	.LVL285:
 709:Task/Task_BlackBox.c **** 
 3121              		.loc 1 709 16 view .LVU832
 3122 0062 7047     		bx	lr
 3123              	.LVL286:
 3124              	.L170:
 709:Task/Task_BlackBox.c **** 
 3125              		.loc 1 709 16 view .LVU833
 3126 0064 0120     		movs	r0, #1
 3127              	.LVL287:
 724:Task/Task_BlackBox.c **** 
 3128              		.loc 1 724 1 view .LVU834
 3129 0066 7047     		bx	lr
 3130              	.L179:
 3131              		.align	2
 3132              	.L178:
 3133 0068 00000000 		.word	.LC28
 3134              		.cfi_endproc
 3135              	.LFE160:
 3137              		.section	.rodata.TaskBlackBox_GetLogInfo.str1.4,"aMS",%progbits,1
 3138              		.align	2
 3139              	.LC29:
 3140 0000 5B20426C 		.ascii	"[ BlackBox ] get info api error\015\012\000"
 3140      61636B42 
 3140      6F78205D 
 3140      20676574 
 3140      20696E66 
 3141 0022 0000     		.align	2
 3142              	.LC30:
 3143 0024 5B20426C 		.ascii	"[ BlackBox ] is logging\015\012\000"
 3143      61636B42 
 3143      6F78205D 
 3143      20697320 
 3143      6C6F6767 
 3144 003e 0000     		.align	2
ARM GAS  C:\Users\8bit\AppData\Local\Temp\cclQGHkl.s 			page 80


 3145              	.LC31:
 3146 0040 5B20426C 		.ascii	"[ BlackBox ] task log success count: %d\015\012\000"
 3146      61636B42 
 3146      6F78205D 
 3146      20746173 
 3146      6B206C6F 
 3147 006a 0000     		.align	2
 3148              	.LC32:
 3149 006c 5B20426C 		.ascii	"[ BlackBox ] service log count:      %d\015\012\000"
 3149      61636B42 
 3149      6F78205D 
 3149      20736572 
 3149      76696365 
 3150 0096 0000     		.align	2
 3151              	.LC33:
 3152 0098 5B20426C 		.ascii	"[ BlackBox ] service log size:       %d\015\012\000"
 3152      61636B42 
 3152      6F78205D 
 3152      20736572 
 3152      76696365 
 3153 00c2 0000     		.align	2
 3154              	.LC34:
 3155 00c4 5B20426C 		.ascii	"[ BlackBox ] read api error\015\012\000"
 3155      61636B42 
 3155      6F78205D 
 3155      20726561 
 3155      64206170 
 3156 00e2 0000     		.align	2
 3157              	.LC35:
 3158 00e4 5B20426C 		.ascii	"[ BlackBox ] uncomplete decode error\015\012\000"
 3158      61636B42 
 3158      6F78205D 
 3158      20756E63 
 3158      6F6D706C 
 3159 010b 00       		.align	2
 3160              	.LC36:
 3161 010c 5B20426C 		.ascii	"[ BlackBox ] CheckSum error\015\012\000"
 3161      61636B42 
 3161      6F78205D 
 3161      20436865 
 3161      636B5375 
 3162 012a 0000     		.align	2
 3163              	.LC37:
 3164 012c 5B20426C 		.ascii	"[ BlackBox ] addr: %d remian: %d\015\012\000"
 3164      61636B42 
 3164      6F78205D 
 3164      20616464 
 3164      723A2025 
 3165 014f 00       		.align	2
 3166              	.LC38:
 3167 0150 5B20426C 		.ascii	"[ BlackBox ] Data read failed\015\012\000"
 3167      61636B42 
 3167      6F78205D 
 3167      20446174 
 3167      61207265 
 3168              		.align	2
 3169              	.LC39:
ARM GAS  C:\Users\8bit\AppData\Local\Temp\cclQGHkl.s 			page 81


 3170 0170 5B20426C 		.ascii	"[ BlackBox ] read address %d\015\012\000"
 3170      61636B42 
 3170      6F78205D 
 3170      20726561 
 3170      64206164 
 3171              		.section	.text.TaskBlackBox_GetLogInfo,"ax",%progbits
 3172              		.align	1
 3173              		.syntax unified
 3174              		.thumb
 3175              		.thumb_func
 3177              	TaskBlackBox_GetLogInfo:
 3178              	.LFB165:
 846:Task/Task_BlackBox.c **** 
 847:Task/Task_BlackBox.c **** static void TaskBlackBox_GetLogInfo(void)
 848:Task/Task_BlackBox.c **** {
 3179              		.loc 1 848 1 is_stmt 1 view -0
 3180              		.cfi_startproc
 3181              		@ args = 0, pretend = 0, frame = 312
 3182              		@ frame_needed = 0, uses_anonymous_args = 0
 3183 0000 2DE9F041 		push	{r4, r5, r6, r7, r8, lr}
 3184              	.LCFI31:
 3185              		.cfi_def_cfa_offset 24
 3186              		.cfi_offset 4, -24
 3187              		.cfi_offset 5, -20
 3188              		.cfi_offset 6, -16
 3189              		.cfi_offset 7, -12
 3190              		.cfi_offset 8, -8
 3191              		.cfi_offset 14, -4
 3192 0004 CEB0     		sub	sp, sp, #312
 3193              	.LCFI32:
 3194              		.cfi_def_cfa_offset 336
 849:Task/Task_BlackBox.c ****     Shell *shell_obj = Shell_GetInstence();
 3195              		.loc 1 849 5 view .LVU836
 3196              		.loc 1 849 24 is_stmt 0 view .LVU837
 3197 0006 FFF7FEFF 		bl	Shell_GetInstence
 3198              	.LVL288:
 850:Task/Task_BlackBox.c ****     uint32_t log_cnt = 0;
 3199              		.loc 1 850 5 is_stmt 1 view .LVU838
 3200              		.loc 1 850 14 is_stmt 0 view .LVU839
 3201 000a 0023     		movs	r3, #0
 3202 000c 4D93     		str	r3, [sp, #308]
 851:Task/Task_BlackBox.c ****     uint32_t log_size = 0;
 3203              		.loc 1 851 5 is_stmt 1 view .LVU840
 3204              		.loc 1 851 14 is_stmt 0 view .LVU841
 3205 000e 4C93     		str	r3, [sp, #304]
 852:Task/Task_BlackBox.c ****     bool log_enable = false;
 3206              		.loc 1 852 5 is_stmt 1 view .LVU842
 3207              		.loc 1 852 10 is_stmt 0 view .LVU843
 3208 0010 8DF82F31 		strb	r3, [sp, #303]
 853:Task/Task_BlackBox.c ****     uint32_t addr = 0;
 3209              		.loc 1 853 5 is_stmt 1 view .LVU844
 3210              	.LVL289:
 854:Task/Task_BlackBox.c ****     volatile BlackBox_ConvertError_List err = BlackBox_Cnv_None_Error;
 3211              		.loc 1 854 5 view .LVU845
 3212              		.loc 1 854 41 is_stmt 0 view .LVU846
 3213 0014 8DF82E31 		strb	r3, [sp, #302]
 855:Task/Task_BlackBox.c ****     BlackBox_DataHeader_TypeDef header;
ARM GAS  C:\Users\8bit\AppData\Local\Temp\cclQGHkl.s 			page 82


 3214              		.loc 1 855 5 is_stmt 1 view .LVU847
 856:Task/Task_BlackBox.c ****     BlackBox_DataEnder_TypeDef ender;
 3215              		.loc 1 856 5 view .LVU848
 857:Task/Task_BlackBox.c ****     BlackBox_IMUData_TypeDef log_imu;
 3216              		.loc 1 857 5 view .LVU849
 858:Task/Task_BlackBox.c ****     BlackBox_AttAltData_TypeDef log_att_alt;
 3217              		.loc 1 858 5 view .LVU850
 859:Task/Task_BlackBox.c ****     BlackBox_AngCtlData_TypeDef log_AngCtl;
 3218              		.loc 1 859 5 view .LVU851
 860:Task/Task_BlackBox.c ****     BlackBox_AttCtlData_TypeDef log_AttCtl;
 3219              		.loc 1 860 5 view .LVU852
 861:Task/Task_BlackBox.c ****     uint8_t *p_log_data = NULL;
 3220              		.loc 1 861 5 view .LVU853
 3221              		.loc 1 861 14 is_stmt 0 view .LVU854
 3222 0018 2393     		str	r3, [sp, #140]
 862:Task/Task_BlackBox.c ****     uint32_t uncomplete_size = 0;
 3223              		.loc 1 862 5 is_stmt 1 view .LVU855
 3224              		.loc 1 862 14 is_stmt 0 view .LVU856
 3225 001a 2293     		str	r3, [sp, #136]
 863:Task/Task_BlackBox.c ****     uint8_t remain_buf[128];
 3226              		.loc 1 863 5 is_stmt 1 view .LVU857
 864:Task/Task_BlackBox.c ****     uint8_t *p_remain_buf = NULL;
 3227              		.loc 1 864 5 view .LVU858
 3228              		.loc 1 864 14 is_stmt 0 view .LVU859
 3229 001c 0193     		str	r3, [sp, #4]
 865:Task/Task_BlackBox.c ****     uint8_t check_sum = 0;
 3230              		.loc 1 865 5 is_stmt 1 view .LVU860
 3231              	.LVL290:
 866:Task/Task_BlackBox.c **** 
 867:Task/Task_BlackBox.c ****     if ((shell_obj == NULL) || (p_blackbox == NULL))
 3232              		.loc 1 867 5 view .LVU861
 3233              		.loc 1 867 8 is_stmt 0 view .LVU862
 3234 001e 0028     		cmp	r0, #0
 3235 0020 4DD0     		beq	.L180
 3236 0022 0446     		mov	r4, r0
 3237              		.loc 1 867 44 discriminator 1 view .LVU863
 3238 0024 A64B     		ldr	r3, .L235
 3239 0026 1B68     		ldr	r3, [r3]
 3240              		.loc 1 867 29 discriminator 1 view .LVU864
 3241 0028 002B     		cmp	r3, #0
 3242 002a 48D0     		beq	.L180
 868:Task/Task_BlackBox.c ****         return;
 869:Task/Task_BlackBox.c **** 
 870:Task/Task_BlackBox.c ****     if (p_blackbox->get_info == NULL)
 3243              		.loc 1 870 5 is_stmt 1 view .LVU865
 3244              		.loc 1 870 19 is_stmt 0 view .LVU866
 3245 002c 5D69     		ldr	r5, [r3, #20]
 3246              		.loc 1 870 8 view .LVU867
 3247 002e 002D     		cmp	r5, #0
 3248 0030 3DD0     		beq	.L228
 871:Task/Task_BlackBox.c ****     {
 872:Task/Task_BlackBox.c ****         shellPrint(shell_obj, "[ BlackBox ] get info api error\r\n");
 873:Task/Task_BlackBox.c ****         return;
 874:Task/Task_BlackBox.c ****     }
 875:Task/Task_BlackBox.c **** 
 876:Task/Task_BlackBox.c ****     p_blackbox->get_info(Storage.read_section, &log_cnt, &log_size, &log_enable);
 3249              		.loc 1 876 5 is_stmt 1 view .LVU868
ARM GAS  C:\Users\8bit\AppData\Local\Temp\cclQGHkl.s 			page 83


 3250 0032 0DF22F13 		addw	r3, sp, #303
 3251 0036 4CAA     		add	r2, sp, #304
 3252 0038 4DA9     		add	r1, sp, #308
 3253 003a A248     		ldr	r0, .L235+4
 3254              	.LVL291:
 3255              		.loc 1 876 5 is_stmt 0 view .LVU869
 3256 003c C069     		ldr	r0, [r0, #28]
 3257 003e A847     		blx	r5
 3258              	.LVL292:
 877:Task/Task_BlackBox.c ****     if (log_enable)
 3259              		.loc 1 877 5 is_stmt 1 view .LVU870
 3260              		.loc 1 877 9 is_stmt 0 view .LVU871
 3261 0040 9DF82F31 		ldrb	r3, [sp, #303]	@ zero_extendqisi2
 3262              		.loc 1 877 8 view .LVU872
 3263 0044 002B     		cmp	r3, #0
 3264 0046 36D1     		bne	.L229
 878:Task/Task_BlackBox.c ****     {
 879:Task/Task_BlackBox.c ****         shellPrint(shell_obj, "[ BlackBox ] is logging\r\n");
 880:Task/Task_BlackBox.c ****         return;
 881:Task/Task_BlackBox.c ****     }
 882:Task/Task_BlackBox.c **** 
 883:Task/Task_BlackBox.c ****     shellPrint(shell_obj, "[ BlackBox ] task log success count: %d\r\n", Monitor.log_cnt);
 3265              		.loc 1 883 5 is_stmt 1 view .LVU873
 3266 0048 9F4B     		ldr	r3, .L235+8
 3267 004a DA6D     		ldr	r2, [r3, #92]
 3268 004c 9F49     		ldr	r1, .L235+12
 3269 004e 2046     		mov	r0, r4
 3270 0050 FFF7FEFF 		bl	shellPrint
 3271              	.LVL293:
 884:Task/Task_BlackBox.c ****     shellPrint(shell_obj, "[ BlackBox ] service log count:      %d\r\n", log_cnt);
 3272              		.loc 1 884 5 view .LVU874
 3273 0054 4D9A     		ldr	r2, [sp, #308]
 3274 0056 9E49     		ldr	r1, .L235+16
 3275 0058 2046     		mov	r0, r4
 3276 005a FFF7FEFF 		bl	shellPrint
 3277              	.LVL294:
 885:Task/Task_BlackBox.c ****     shellPrint(shell_obj, "[ BlackBox ] service log size:       %d\r\n", log_size);
 3278              		.loc 1 885 5 view .LVU875
 3279 005e 4C9A     		ldr	r2, [sp, #304]
 3280 0060 9C49     		ldr	r1, .L235+20
 3281 0062 2046     		mov	r0, r4
 3282 0064 FFF7FEFF 		bl	shellPrint
 3283              	.LVL295:
 886:Task/Task_BlackBox.c **** 
 887:Task/Task_BlackBox.c ****     /* dispaly data */
 888:Task/Task_BlackBox.c ****     if ((p_blackbox->read == NULL) || (Monitor.p_log_buf == NULL))
 3284              		.loc 1 888 5 view .LVU876
 3285              		.loc 1 888 20 is_stmt 0 view .LVU877
 3286 0068 954B     		ldr	r3, .L235
 3287 006a 1B68     		ldr	r3, [r3]
 3288 006c 1B69     		ldr	r3, [r3, #16]
 3289              		.loc 1 888 8 view .LVU878
 3290 006e 4BB3     		cbz	r3, .L184
 3291              		.loc 1 888 47 discriminator 1 view .LVU879
 3292 0070 954B     		ldr	r3, .L235+8
 3293 0072 5B6D     		ldr	r3, [r3, #84]
 3294              		.loc 1 888 36 discriminator 1 view .LVU880
ARM GAS  C:\Users\8bit\AppData\Local\Temp\cclQGHkl.s 			page 84


 3295 0074 33B3     		cbz	r3, .L184
 889:Task/Task_BlackBox.c ****     {
 890:Task/Task_BlackBox.c ****         shellPrint(shell_obj, "[ BlackBox ] read api error\r\n");
 891:Task/Task_BlackBox.c ****         return;
 892:Task/Task_BlackBox.c ****     }
 893:Task/Task_BlackBox.c **** 
 894:Task/Task_BlackBox.c ****     memset(&header, 0, BLACKBOX_HEADER_SIZE);
 3296              		.loc 1 894 5 is_stmt 1 view .LVU881
 3297 0076 0026     		movs	r6, #0
 3298 0078 4A96     		str	r6, [sp, #296]
 895:Task/Task_BlackBox.c ****     for (uint16_t i = 0; i < log_cnt; i++)
 3299              		.loc 1 895 5 view .LVU882
 3300              	.LBB13:
 3301              		.loc 1 895 10 view .LVU883
 3302              	.LVL296:
 3303              		.loc 1 895 19 is_stmt 0 view .LVU884
 3304 007a 3746     		mov	r7, r6
 3305              	.LBE13:
 865:Task/Task_BlackBox.c **** 
 3306              		.loc 1 865 13 view .LVU885
 3307 007c 3546     		mov	r5, r6
 3308              	.LVL297:
 3309              	.L186:
 3310              	.LBB16:
 3311              		.loc 1 895 26 is_stmt 1 discriminator 1 view .LVU886
 3312              		.loc 1 895 28 is_stmt 0 discriminator 1 view .LVU887
 3313 007e 4D9B     		ldr	r3, [sp, #308]
 3314              		.loc 1 895 5 discriminator 1 view .LVU888
 3315 0080 9F42     		cmp	r7, r3
 3316 0082 1CD2     		bcs	.L180
 896:Task/Task_BlackBox.c ****     {
 897:Task/Task_BlackBox.c ****         if (p_blackbox->read(Storage.read_section, addr, Monitor.p_log_buf, Monitor.log_unit))
 3317              		.loc 1 897 9 is_stmt 1 view .LVU889
 3318              		.loc 1 897 23 is_stmt 0 view .LVU890
 3319 0084 8E4B     		ldr	r3, .L235
 3320 0086 1B68     		ldr	r3, [r3]
 3321 0088 D3F81080 		ldr	r8, [r3, #16]
 3322              		.loc 1 897 13 view .LVU891
 3323 008c 8E4A     		ldr	r2, .L235+8
 3324 008e 136D     		ldr	r3, [r2, #80]
 3325 0090 526D     		ldr	r2, [r2, #84]
 3326 0092 3146     		mov	r1, r6
 3327 0094 8B48     		ldr	r0, .L235+4
 3328 0096 C069     		ldr	r0, [r0, #28]
 3329 0098 C047     		blx	r8
 3330              	.LVL298:
 3331              		.loc 1 897 12 view .LVU892
 3332 009a 0028     		cmp	r0, #0
 3333 009c 00F0F281 		beq	.L187
 898:Task/Task_BlackBox.c ****         {
 899:Task/Task_BlackBox.c ****             log_size = Monitor.log_unit;
 3334              		.loc 1 899 13 is_stmt 1 view .LVU893
 3335              		.loc 1 899 31 is_stmt 0 view .LVU894
 3336 00a0 894A     		ldr	r2, .L235+8
 3337 00a2 136D     		ldr	r3, [r2, #80]
 3338              		.loc 1 899 22 view .LVU895
 3339 00a4 4C93     		str	r3, [sp, #304]
ARM GAS  C:\Users\8bit\AppData\Local\Temp\cclQGHkl.s 			page 85


 900:Task/Task_BlackBox.c ****             p_log_data = Monitor.p_log_buf;
 3340              		.loc 1 900 13 is_stmt 1 view .LVU896
 3341              		.loc 1 900 33 is_stmt 0 view .LVU897
 3342 00a6 526D     		ldr	r2, [r2, #84]
 3343              		.loc 1 900 24 view .LVU898
 3344 00a8 2392     		str	r2, [sp, #140]
 901:Task/Task_BlackBox.c ****             addr += Monitor.log_unit;
 3345              		.loc 1 901 13 is_stmt 1 view .LVU899
 3346              		.loc 1 901 18 is_stmt 0 view .LVU900
 3347 00aa 1E44     		add	r6, r6, r3
 3348              	.LVL299:
 902:Task/Task_BlackBox.c **** 
 903:Task/Task_BlackBox.c ****             /* convert data */
 904:Task/Task_BlackBox.c ****             while (log_size)
 3349              		.loc 1 904 13 is_stmt 1 view .LVU901
 3350              		.loc 1 904 19 is_stmt 0 view .LVU902
 3351 00ac B6E1     		b	.L188
 3352              	.LVL300:
 3353              	.L228:
 3354              		.loc 1 904 19 view .LVU903
 3355              	.LBE16:
 872:Task/Task_BlackBox.c ****         return;
 3356              		.loc 1 872 9 is_stmt 1 view .LVU904
 3357 00ae 8A49     		ldr	r1, .L235+24
 3358 00b0 FFF7FEFF 		bl	shellPrint
 3359              	.LVL301:
 873:Task/Task_BlackBox.c ****     }
 3360              		.loc 1 873 9 view .LVU905
 3361 00b4 03E0     		b	.L180
 3362              	.L229:
 879:Task/Task_BlackBox.c ****         return;
 3363              		.loc 1 879 9 view .LVU906
 3364 00b6 8949     		ldr	r1, .L235+28
 3365 00b8 2046     		mov	r0, r4
 3366 00ba FFF7FEFF 		bl	shellPrint
 3367              	.LVL302:
 880:Task/Task_BlackBox.c ****     }
 3368              		.loc 1 880 9 view .LVU907
 3369              	.L180:
 905:Task/Task_BlackBox.c ****             {
 906:Task/Task_BlackBox.c ****                 if (uncomplete_size)
 907:Task/Task_BlackBox.c ****                 {
 908:Task/Task_BlackBox.c ****                     p_remain_buf = remain_buf;
 909:Task/Task_BlackBox.c **** 
 910:Task/Task_BlackBox.c ****                     if (uncomplete_size <= BLACKBOX_HEADER_SIZE)
 911:Task/Task_BlackBox.c ****                     {
 912:Task/Task_BlackBox.c ****                         /* get header first */
 913:Task/Task_BlackBox.c ****                         if (uncomplete_size < BLACKBOX_HEADER_SIZE)
 914:Task/Task_BlackBox.c ****                         {
 915:Task/Task_BlackBox.c ****                             memcpy(p_remain_buf + uncomplete_size, p_log_data, BLACKBOX_HEADER_SIZE
 916:Task/Task_BlackBox.c ****                             p_log_data += (BLACKBOX_HEADER_SIZE - uncomplete_size);
 917:Task/Task_BlackBox.c ****                             log_size -= (BLACKBOX_HEADER_SIZE - uncomplete_size);
 918:Task/Task_BlackBox.c ****                             uncomplete_size = BLACKBOX_HEADER_SIZE;
 919:Task/Task_BlackBox.c ****                         }
 920:Task/Task_BlackBox.c **** 
 921:Task/Task_BlackBox.c ****                         err = TaskBlackBox_ConvertLogData_To_Header(shell_obj, &header, &p_remain_b
 922:Task/Task_BlackBox.c ****                         if (err == BlackBox_Cnv_Size_Error)
ARM GAS  C:\Users\8bit\AppData\Local\Temp\cclQGHkl.s 			page 86


 923:Task/Task_BlackBox.c ****                         {
 924:Task/Task_BlackBox.c ****                             err = BlackBox_Cnv_None_Error;
 925:Task/Task_BlackBox.c ****                             uncomplete_size = 0;
 926:Task/Task_BlackBox.c ****                         }
 927:Task/Task_BlackBox.c ****                     }
 928:Task/Task_BlackBox.c ****                     else if (uncomplete_size > BLACKBOX_HEADER_SIZE)
 929:Task/Task_BlackBox.c ****                     {
 930:Task/Task_BlackBox.c ****                         err = TaskBlackBox_ConvertLogData_To_Header(shell_obj, &header, &p_remain_b
 931:Task/Task_BlackBox.c ****                         if ((err != BlackBox_Cnv_None_Error) && (err != BlackBox_Cnv_Size_Error))
 932:Task/Task_BlackBox.c ****                         {
 933:Task/Task_BlackBox.c ****                             /* convert bug */
 934:Task/Task_BlackBox.c ****                             shellPrint(shell_obj, "[ BlackBox ] uncomplete decode error\r\n");
 935:Task/Task_BlackBox.c ****                             return;
 936:Task/Task_BlackBox.c ****                         }
 937:Task/Task_BlackBox.c ****                         else if (err == BlackBox_Cnv_Size_Error)
 938:Task/Task_BlackBox.c ****                             err = BlackBox_Cnv_None_Error;
 939:Task/Task_BlackBox.c **** 
 940:Task/Task_BlackBox.c ****                         uncomplete_size -= BLACKBOX_HEADER_SIZE;
 941:Task/Task_BlackBox.c ****                         p_remain_buf += BLACKBOX_HEADER_SIZE;
 942:Task/Task_BlackBox.c ****                     }
 943:Task/Task_BlackBox.c **** 
 944:Task/Task_BlackBox.c ****                     if (uncomplete_size)
 945:Task/Task_BlackBox.c ****                     {
 946:Task/Task_BlackBox.c ****                         uint32_t decode_size = 0;
 947:Task/Task_BlackBox.c ****                         switch ((uint8_t)header.type)
 948:Task/Task_BlackBox.c ****                         {
 949:Task/Task_BlackBox.c ****                             case BlackBox_Imu_Filted:
 950:Task/Task_BlackBox.c ****                                 if (uncomplete_size <= sizeof(BlackBox_IMUData_TypeDef))
 951:Task/Task_BlackBox.c ****                                 {
 952:Task/Task_BlackBox.c ****                                     memcpy(p_remain_buf + uncomplete_size, p_log_data, sizeof(Black
 953:Task/Task_BlackBox.c ****                                     p_log_data += sizeof(BlackBox_IMUData_TypeDef) - uncomplete_siz
 954:Task/Task_BlackBox.c ****                                     log_size -= sizeof(BlackBox_IMUData_TypeDef) - uncomplete_size;
 955:Task/Task_BlackBox.c ****                                     uncomplete_size = 0;
 956:Task/Task_BlackBox.c ****                                 }
 957:Task/Task_BlackBox.c ****                                 else
 958:Task/Task_BlackBox.c ****                                 {
 959:Task/Task_BlackBox.c ****                                     memmove(p_remain_buf, p_remain_buf + uncomplete_size, uncomplet
 960:Task/Task_BlackBox.c ****                                     uncomplete_size -= sizeof(BlackBox_IMUData_TypeDef);
 961:Task/Task_BlackBox.c ****                                 }
 962:Task/Task_BlackBox.c **** 
 963:Task/Task_BlackBox.c ****                                 decode_size = sizeof(BlackBox_IMUData_TypeDef);
 964:Task/Task_BlackBox.c ****                                 TaskBlackBox_ConvertLogData_To_IMU(shell_obj, &log_imu, &p_remain_b
 965:Task/Task_BlackBox.c ****                                 break;
 966:Task/Task_BlackBox.c **** 
 967:Task/Task_BlackBox.c ****                             case BlackBox_Log_Alt_Att:
 968:Task/Task_BlackBox.c ****                                 if (uncomplete_size <= sizeof(BlackBox_AttAltData_TypeDef))
 969:Task/Task_BlackBox.c ****                                 {
 970:Task/Task_BlackBox.c ****                                     memcpy(p_remain_buf + uncomplete_size, p_log_data, sizeof(Black
 971:Task/Task_BlackBox.c ****                                     p_log_data += sizeof(BlackBox_AttAltData_TypeDef) - uncomplete_
 972:Task/Task_BlackBox.c ****                                     log_size -= sizeof(BlackBox_AttAltData_TypeDef) - uncomplete_si
 973:Task/Task_BlackBox.c ****                                     uncomplete_size = 0;
 974:Task/Task_BlackBox.c ****                                 }
 975:Task/Task_BlackBox.c ****                                 else
 976:Task/Task_BlackBox.c ****                                 {
 977:Task/Task_BlackBox.c ****                                     memmove(p_remain_buf, p_remain_buf + uncomplete_size, uncomplet
 978:Task/Task_BlackBox.c ****                                     uncomplete_size -= sizeof(BlackBox_AttAltData_TypeDef);
 979:Task/Task_BlackBox.c ****                                 }
ARM GAS  C:\Users\8bit\AppData\Local\Temp\cclQGHkl.s 			page 87


 980:Task/Task_BlackBox.c **** 
 981:Task/Task_BlackBox.c ****                                 decode_size = sizeof(BlackBox_AttAltData_TypeDef);
 982:Task/Task_BlackBox.c ****                                 TaskBlackBox_ConvertLogData_To_Alt_Att(shell_obj, &log_att_alt, &p_
 983:Task/Task_BlackBox.c ****                                 break;
 984:Task/Task_BlackBox.c **** 
 985:Task/Task_BlackBox.c ****                             case BlackBox_AngularPID_Tune:
 986:Task/Task_BlackBox.c ****                                 if (uncomplete_size <= sizeof(BlackBox_AngCtlData_TypeDef))
 987:Task/Task_BlackBox.c ****                                 {
 988:Task/Task_BlackBox.c ****                                     memcpy(p_remain_buf + uncomplete_size, p_log_data, sizeof(Black
 989:Task/Task_BlackBox.c ****                                     p_log_data += sizeof(BlackBox_AngCtlData_TypeDef) - uncomplete_
 990:Task/Task_BlackBox.c ****                                     log_size -= sizeof(BlackBox_AngCtlData_TypeDef) - uncomplete_si
 991:Task/Task_BlackBox.c ****                                     uncomplete_size = 0;
 992:Task/Task_BlackBox.c ****                                 }
 993:Task/Task_BlackBox.c ****                                 else
 994:Task/Task_BlackBox.c ****                                 {
 995:Task/Task_BlackBox.c ****                                     memmove(p_remain_buf, p_remain_buf + uncomplete_size, uncomplet
 996:Task/Task_BlackBox.c ****                                     uncomplete_size -= sizeof(BlackBox_AngCtlData_TypeDef);
 997:Task/Task_BlackBox.c ****                                 }
 998:Task/Task_BlackBox.c **** 
 999:Task/Task_BlackBox.c ****                                 decode_size = sizeof(BlackBox_AngCtlData_TypeDef);
1000:Task/Task_BlackBox.c ****                                 TaskBlackBox_ConvertLogData_To_CtlAng(shell_obj, &log_AngCtl, &p_re
1001:Task/Task_BlackBox.c ****                                 break;
1002:Task/Task_BlackBox.c **** 
1003:Task/Task_BlackBox.c ****                             case BlackBox_AttitudePID_Tune:
1004:Task/Task_BlackBox.c ****                                 if (uncomplete_size <= sizeof(BlackBox_AttCtlData_TypeDef))
1005:Task/Task_BlackBox.c ****                                 {
1006:Task/Task_BlackBox.c ****                                     memcpy(p_remain_buf + uncomplete_size, p_log_data, sizeof(Black
1007:Task/Task_BlackBox.c ****                                     p_log_data += sizeof(BlackBox_AttCtlData_TypeDef) - uncomplete_
1008:Task/Task_BlackBox.c ****                                     log_size -= sizeof(BlackBox_AttCtlData_TypeDef) - uncomplete_si
1009:Task/Task_BlackBox.c ****                                     uncomplete_size = 0;
1010:Task/Task_BlackBox.c ****                                 }
1011:Task/Task_BlackBox.c ****                                 else
1012:Task/Task_BlackBox.c ****                                 {
1013:Task/Task_BlackBox.c ****                                     memmove(p_remain_buf, p_remain_buf + uncomplete_size, uncomplet
1014:Task/Task_BlackBox.c ****                                     uncomplete_size -= sizeof(BlackBox_AttCtlData_TypeDef);
1015:Task/Task_BlackBox.c ****                                 }
1016:Task/Task_BlackBox.c **** 
1017:Task/Task_BlackBox.c ****                                 decode_size = sizeof(BlackBox_AttCtlData_TypeDef);
1018:Task/Task_BlackBox.c ****                                 TaskBlackBox_ConvertLogData_To_CtlAtt(shell_obj, &log_AttCtl, &p_re
1019:Task/Task_BlackBox.c ****                                 break;
1020:Task/Task_BlackBox.c **** 
1021:Task/Task_BlackBox.c ****                             default: return;
1022:Task/Task_BlackBox.c ****                         }
1023:Task/Task_BlackBox.c **** 
1024:Task/Task_BlackBox.c ****                         /* get ender */
1025:Task/Task_BlackBox.c ****                         if (uncomplete_size)
1026:Task/Task_BlackBox.c ****                         {
1027:Task/Task_BlackBox.c ****                             memcpy(remain_buf + uncomplete_size, p_log_data, BLACKBOX_ENDER_SIZE - 
1028:Task/Task_BlackBox.c ****                             decode_size = BLACKBOX_ENDER_SIZE;
1029:Task/Task_BlackBox.c ****                             p_log_data += BLACKBOX_ENDER_SIZE - uncomplete_size;
1030:Task/Task_BlackBox.c ****                             log_size -= BLACKBOX_ENDER_SIZE - uncomplete_size;
1031:Task/Task_BlackBox.c ****                             TaskBlackBox_ConvertLogData_To_Ender(shell_obj, &ender, &p_remain_buf, 
1032:Task/Task_BlackBox.c ****                         }
1033:Task/Task_BlackBox.c ****                         else
1034:Task/Task_BlackBox.c ****                             TaskBlackBox_ConvertLogData_To_Ender(shell_obj, &ender, &p_log_data, &l
1035:Task/Task_BlackBox.c **** 
1036:Task/Task_BlackBox.c ****                         /* get next header */
ARM GAS  C:\Users\8bit\AppData\Local\Temp\cclQGHkl.s 			page 88


1037:Task/Task_BlackBox.c ****                         err = TaskBlackBox_ConvertLogData_To_Header(shell_obj, &header, &p_log_data
1038:Task/Task_BlackBox.c ****                     }
1039:Task/Task_BlackBox.c ****                 }
1040:Task/Task_BlackBox.c ****                 else
1041:Task/Task_BlackBox.c ****                     err = TaskBlackBox_ConvertLogData_To_Header(shell_obj, &header, &p_log_data, &l
1042:Task/Task_BlackBox.c **** 
1043:Task/Task_BlackBox.c ****                 if (err == BlackBox_Cnv_None_Error)
1044:Task/Task_BlackBox.c ****                 {
1045:Task/Task_BlackBox.c ****                     uncomplete_size = 0;
1046:Task/Task_BlackBox.c ****                     switch ((uint8_t)header.type)
1047:Task/Task_BlackBox.c ****                     {
1048:Task/Task_BlackBox.c ****                         case BlackBox_Imu_Filted:
1049:Task/Task_BlackBox.c ****                             err = TaskBlackBox_ConvertLogData_To_IMU(shell_obj, &log_imu, &p_log_da
1050:Task/Task_BlackBox.c ****                             check_sum = TaskBlackBox_Get_CheckSum((uint8_t *)&log_imu, sizeof(Black
1051:Task/Task_BlackBox.c ****                             break;
1052:Task/Task_BlackBox.c **** 
1053:Task/Task_BlackBox.c ****                         case BlackBox_Log_Alt_Att:
1054:Task/Task_BlackBox.c ****                             err = TaskBlackBox_ConvertLogData_To_Alt_Att(shell_obj, &log_att_alt, &
1055:Task/Task_BlackBox.c ****                             check_sum = TaskBlackBox_Get_CheckSum((uint8_t *)&log_att_alt, sizeof(B
1056:Task/Task_BlackBox.c ****                             break;
1057:Task/Task_BlackBox.c **** 
1058:Task/Task_BlackBox.c ****                         case BlackBox_AngularPID_Tune:
1059:Task/Task_BlackBox.c ****                             err = TaskBlackBox_ConvertLogData_To_CtlAng(shell_obj, &log_AngCtl, &p_
1060:Task/Task_BlackBox.c ****                             check_sum = TaskBlackBox_Get_CheckSum((uint8_t *)&log_AngCtl, sizeof(Bl
1061:Task/Task_BlackBox.c ****                             break;
1062:Task/Task_BlackBox.c **** 
1063:Task/Task_BlackBox.c ****                         case BlackBox_AttitudePID_Tune:
1064:Task/Task_BlackBox.c ****                             err = TaskBlackBox_ConvertLogData_To_CtlAtt(shell_obj, &log_AttCtl, &p_
1065:Task/Task_BlackBox.c ****                             check_sum = TaskBlackBox_Get_CheckSum((uint8_t *)&log_AttCtl, sizeof(Bl
1066:Task/Task_BlackBox.c ****                             break;
1067:Task/Task_BlackBox.c **** 
1068:Task/Task_BlackBox.c ****                         default: break;
1069:Task/Task_BlackBox.c ****                     }
1070:Task/Task_BlackBox.c **** 
1071:Task/Task_BlackBox.c ****                     if (err == BlackBox_Cnv_Size_Error)
1072:Task/Task_BlackBox.c ****                     {
1073:Task/Task_BlackBox.c ****                         memset(remain_buf, 0, sizeof(remain_buf));
1074:Task/Task_BlackBox.c ****                         uncomplete_size = log_size;
1075:Task/Task_BlackBox.c ****                         memcpy(remain_buf, p_log_data, uncomplete_size);
1076:Task/Task_BlackBox.c ****                         log_size = 0;
1077:Task/Task_BlackBox.c ****                         break;
1078:Task/Task_BlackBox.c ****                     }
1079:Task/Task_BlackBox.c ****                     else
1080:Task/Task_BlackBox.c ****                     {
1081:Task/Task_BlackBox.c ****                         TaskBlackBox_ConvertLogData_To_Ender(shell_obj, &ender, &p_log_data, &log_s
1082:Task/Task_BlackBox.c **** 
1083:Task/Task_BlackBox.c ****                         if (check_sum != ender.check_sum)
1084:Task/Task_BlackBox.c ****                         {
1085:Task/Task_BlackBox.c ****                             shellPrint(shell_obj, "[ BlackBox ] CheckSum error\r\n");
1086:Task/Task_BlackBox.c ****                             shellPrint(shell_obj, "[ BlackBox ] addr: %d remian: %d\r\n", addr, log
1087:Task/Task_BlackBox.c ****                         }
1088:Task/Task_BlackBox.c ****                     }
1089:Task/Task_BlackBox.c ****                 }
1090:Task/Task_BlackBox.c ****                 else if (err == BlackBox_Cnv_Size_Error)
1091:Task/Task_BlackBox.c ****                 {
1092:Task/Task_BlackBox.c ****                     memset(remain_buf, 0, sizeof(remain_buf));
1093:Task/Task_BlackBox.c ****                     uncomplete_size = log_size;
ARM GAS  C:\Users\8bit\AppData\Local\Temp\cclQGHkl.s 			page 89


1094:Task/Task_BlackBox.c ****                     memcpy(remain_buf, p_log_data, uncomplete_size);
1095:Task/Task_BlackBox.c ****                     log_size = 0;
1096:Task/Task_BlackBox.c ****                 }
1097:Task/Task_BlackBox.c ****                 else
1098:Task/Task_BlackBox.c ****                     break;
1099:Task/Task_BlackBox.c ****             }
1100:Task/Task_BlackBox.c ****         }
1101:Task/Task_BlackBox.c ****         else
1102:Task/Task_BlackBox.c ****         {
1103:Task/Task_BlackBox.c ****             shellPrint(shell_obj, "[ BlackBox ] Data read failed\r\n");
1104:Task/Task_BlackBox.c ****             shellPrint(shell_obj, "[ BlackBox ] read address %d\r\n", addr);
1105:Task/Task_BlackBox.c ****             break;
1106:Task/Task_BlackBox.c ****         }
1107:Task/Task_BlackBox.c ****     }
1108:Task/Task_BlackBox.c **** }
 3370              		.loc 1 1108 1 is_stmt 0 view .LVU908
 3371 00be 4EB0     		add	sp, sp, #312
 3372              	.LCFI33:
 3373              		.cfi_remember_state
 3374              		.cfi_def_cfa_offset 24
 3375              		@ sp needed
 3376 00c0 BDE8F081 		pop	{r4, r5, r6, r7, r8, pc}
 3377              	.LVL303:
 3378              	.L184:
 3379              	.LCFI34:
 3380              		.cfi_restore_state
 890:Task/Task_BlackBox.c ****         return;
 3381              		.loc 1 890 9 is_stmt 1 view .LVU909
 3382 00c4 8649     		ldr	r1, .L235+32
 3383 00c6 2046     		mov	r0, r4
 3384 00c8 FFF7FEFF 		bl	shellPrint
 3385              	.LVL304:
 891:Task/Task_BlackBox.c ****     }
 3386              		.loc 1 891 9 view .LVU910
 3387 00cc F7E7     		b	.L180
 3388              	.LVL305:
 3389              	.L233:
 3390              	.LBB17:
 915:Task/Task_BlackBox.c ****                             p_log_data += (BLACKBOX_HEADER_SIZE - uncomplete_size);
 3391              		.loc 1 915 29 view .LVU911
 3392 00ce C0F10402 		rsb	r2, r0, #4
 3393 00d2 2399     		ldr	r1, [sp, #140]
 3394 00d4 02AB     		add	r3, sp, #8
 3395 00d6 1844     		add	r0, r0, r3
 3396 00d8 FFF7FEFF 		bl	memcpy
 3397              	.LVL306:
 916:Task/Task_BlackBox.c ****                             log_size -= (BLACKBOX_HEADER_SIZE - uncomplete_size);
 3398              		.loc 1 916 29 view .LVU912
 916:Task/Task_BlackBox.c ****                             log_size -= (BLACKBOX_HEADER_SIZE - uncomplete_size);
 3399              		.loc 1 916 65 is_stmt 0 view .LVU913
 3400 00dc 229B     		ldr	r3, [sp, #136]
 3401 00de C3F10401 		rsb	r1, r3, #4
 916:Task/Task_BlackBox.c ****                             log_size -= (BLACKBOX_HEADER_SIZE - uncomplete_size);
 3402              		.loc 1 916 40 view .LVU914
 3403 00e2 239A     		ldr	r2, [sp, #140]
 3404 00e4 0A44     		add	r2, r2, r1
 3405 00e6 2392     		str	r2, [sp, #140]
ARM GAS  C:\Users\8bit\AppData\Local\Temp\cclQGHkl.s 			page 90


 917:Task/Task_BlackBox.c ****                             uncomplete_size = BLACKBOX_HEADER_SIZE;
 3406              		.loc 1 917 29 is_stmt 1 view .LVU915
 917:Task/Task_BlackBox.c ****                             uncomplete_size = BLACKBOX_HEADER_SIZE;
 3407              		.loc 1 917 38 is_stmt 0 view .LVU916
 3408 00e8 4C9A     		ldr	r2, [sp, #304]
 3409 00ea 1344     		add	r3, r3, r2
 3410 00ec 043B     		subs	r3, r3, #4
 3411 00ee 4C93     		str	r3, [sp, #304]
 918:Task/Task_BlackBox.c ****                         }
 3412              		.loc 1 918 29 is_stmt 1 view .LVU917
 918:Task/Task_BlackBox.c ****                         }
 3413              		.loc 1 918 45 is_stmt 0 view .LVU918
 3414 00f0 0423     		movs	r3, #4
 3415 00f2 2293     		str	r3, [sp, #136]
 3416 00f4 A1E1     		b	.L191
 3417              	.L234:
 924:Task/Task_BlackBox.c ****                             uncomplete_size = 0;
 3418              		.loc 1 924 29 is_stmt 1 view .LVU919
 924:Task/Task_BlackBox.c ****                             uncomplete_size = 0;
 3419              		.loc 1 924 33 is_stmt 0 view .LVU920
 3420 00f6 0023     		movs	r3, #0
 3421 00f8 8DF82E31 		strb	r3, [sp, #302]
 925:Task/Task_BlackBox.c ****                         }
 3422              		.loc 1 925 29 is_stmt 1 view .LVU921
 925:Task/Task_BlackBox.c ****                         }
 3423              		.loc 1 925 45 is_stmt 0 view .LVU922
 3424 00fc 2293     		str	r3, [sp, #136]
 3425 00fe AAE1     		b	.L192
 3426              	.L190:
 928:Task/Task_BlackBox.c ****                     {
 3427              		.loc 1 928 26 is_stmt 1 view .LVU923
 930:Task/Task_BlackBox.c ****                         if ((err != BlackBox_Cnv_None_Error) && (err != BlackBox_Cnv_Size_Error))
 3428              		.loc 1 930 25 view .LVU924
 930:Task/Task_BlackBox.c ****                         if ((err != BlackBox_Cnv_None_Error) && (err != BlackBox_Cnv_Size_Error))
 3429              		.loc 1 930 31 is_stmt 0 view .LVU925
 3430 0100 22AB     		add	r3, sp, #136
 3431 0102 01AA     		add	r2, sp, #4
 3432 0104 4AA9     		add	r1, sp, #296
 3433 0106 2046     		mov	r0, r4
 3434 0108 FFF7FEFF 		bl	TaskBlackBox_ConvertLogData_To_Header
 3435              	.LVL307:
 930:Task/Task_BlackBox.c ****                         if ((err != BlackBox_Cnv_None_Error) && (err != BlackBox_Cnv_Size_Error))
 3436              		.loc 1 930 29 view .LVU926
 3437 010c 8DF82E01 		strb	r0, [sp, #302]
 931:Task/Task_BlackBox.c ****                         {
 3438              		.loc 1 931 25 is_stmt 1 view .LVU927
 931:Task/Task_BlackBox.c ****                         {
 3439              		.loc 1 931 34 is_stmt 0 view .LVU928
 3440 0110 9DF82E31 		ldrb	r3, [sp, #302]	@ zero_extendqisi2
 931:Task/Task_BlackBox.c ****                         {
 3441              		.loc 1 931 28 view .LVU929
 3442 0114 23B1     		cbz	r3, .L193
 931:Task/Task_BlackBox.c ****                         {
 3443              		.loc 1 931 70 discriminator 1 view .LVU930
 3444 0116 9DF82E31 		ldrb	r3, [sp, #302]	@ zero_extendqisi2
 3445 011a DBB2     		uxtb	r3, r3
 931:Task/Task_BlackBox.c ****                         {
ARM GAS  C:\Users\8bit\AppData\Local\Temp\cclQGHkl.s 			page 91


 3446              		.loc 1 931 62 discriminator 1 view .LVU931
 3447 011c 022B     		cmp	r3, #2
 3448 011e 0BD1     		bne	.L230
 3449              	.L193:
 937:Task/Task_BlackBox.c ****                             err = BlackBox_Cnv_None_Error;
 3450              		.loc 1 937 30 is_stmt 1 view .LVU932
 937:Task/Task_BlackBox.c ****                             err = BlackBox_Cnv_None_Error;
 3451              		.loc 1 937 38 is_stmt 0 view .LVU933
 3452 0120 9DF82E31 		ldrb	r3, [sp, #302]	@ zero_extendqisi2
 3453 0124 DBB2     		uxtb	r3, r3
 937:Task/Task_BlackBox.c ****                             err = BlackBox_Cnv_None_Error;
 3454              		.loc 1 937 33 view .LVU934
 3455 0126 022B     		cmp	r3, #2
 3456 0128 0BD0     		beq	.L231
 3457              	.L194:
 940:Task/Task_BlackBox.c ****                         p_remain_buf += BLACKBOX_HEADER_SIZE;
 3458              		.loc 1 940 25 is_stmt 1 view .LVU935
 940:Task/Task_BlackBox.c ****                         p_remain_buf += BLACKBOX_HEADER_SIZE;
 3459              		.loc 1 940 41 is_stmt 0 view .LVU936
 3460 012a 229B     		ldr	r3, [sp, #136]
 3461 012c 043B     		subs	r3, r3, #4
 3462 012e 2293     		str	r3, [sp, #136]
 941:Task/Task_BlackBox.c ****                     }
 3463              		.loc 1 941 25 is_stmt 1 view .LVU937
 941:Task/Task_BlackBox.c ****                     }
 3464              		.loc 1 941 38 is_stmt 0 view .LVU938
 3465 0130 019B     		ldr	r3, [sp, #4]
 3466 0132 0433     		adds	r3, r3, #4
 3467 0134 0193     		str	r3, [sp, #4]
 3468 0136 8EE1     		b	.L192
 3469              	.L230:
 934:Task/Task_BlackBox.c ****                             return;
 3470              		.loc 1 934 29 is_stmt 1 view .LVU939
 3471 0138 6A49     		ldr	r1, .L235+36
 3472 013a 2046     		mov	r0, r4
 3473 013c FFF7FEFF 		bl	shellPrint
 3474              	.LVL308:
 935:Task/Task_BlackBox.c ****                         }
 3475              		.loc 1 935 29 view .LVU940
 3476 0140 BDE7     		b	.L180
 3477              	.L231:
 938:Task/Task_BlackBox.c **** 
 3478              		.loc 1 938 29 view .LVU941
 938:Task/Task_BlackBox.c **** 
 3479              		.loc 1 938 33 is_stmt 0 view .LVU942
 3480 0142 0023     		movs	r3, #0
 3481 0144 8DF82E31 		strb	r3, [sp, #302]
 3482 0148 EFE7     		b	.L194
 3483              	.L201:
 3484              	.LBB14:
 950:Task/Task_BlackBox.c ****                                 {
 3485              		.loc 1 950 33 is_stmt 1 view .LVU943
 950:Task/Task_BlackBox.c ****                                 {
 3486              		.loc 1 950 36 is_stmt 0 view .LVU944
 3487 014a 262B     		cmp	r3, #38
 3488 014c 40D8     		bhi	.L202
 952:Task/Task_BlackBox.c ****                                     p_log_data += sizeof(BlackBox_IMUData_TypeDef) - uncomplete_siz
ARM GAS  C:\Users\8bit\AppData\Local\Temp\cclQGHkl.s 			page 92


 3489              		.loc 1 952 37 is_stmt 1 view .LVU945
 3490 014e 0198     		ldr	r0, [sp, #4]
 3491 0150 C3F12602 		rsb	r2, r3, #38
 3492 0154 2399     		ldr	r1, [sp, #140]
 3493 0156 1844     		add	r0, r0, r3
 3494 0158 FFF7FEFF 		bl	memcpy
 3495              	.LVL309:
 953:Task/Task_BlackBox.c ****                                     log_size -= sizeof(BlackBox_IMUData_TypeDef) - uncomplete_size;
 3496              		.loc 1 953 37 view .LVU946
 953:Task/Task_BlackBox.c ****                                     log_size -= sizeof(BlackBox_IMUData_TypeDef) - uncomplete_size;
 3497              		.loc 1 953 84 is_stmt 0 view .LVU947
 3498 015c 229B     		ldr	r3, [sp, #136]
 3499 015e C3F12601 		rsb	r1, r3, #38
 953:Task/Task_BlackBox.c ****                                     log_size -= sizeof(BlackBox_IMUData_TypeDef) - uncomplete_size;
 3500              		.loc 1 953 48 view .LVU948
 3501 0162 239A     		ldr	r2, [sp, #140]
 3502 0164 0A44     		add	r2, r2, r1
 3503 0166 2392     		str	r2, [sp, #140]
 954:Task/Task_BlackBox.c ****                                     uncomplete_size = 0;
 3504              		.loc 1 954 37 is_stmt 1 view .LVU949
 954:Task/Task_BlackBox.c ****                                     uncomplete_size = 0;
 3505              		.loc 1 954 46 is_stmt 0 view .LVU950
 3506 0168 4C9A     		ldr	r2, [sp, #304]
 3507 016a 1344     		add	r3, r3, r2
 3508 016c 263B     		subs	r3, r3, #38
 3509 016e 4C93     		str	r3, [sp, #304]
 955:Task/Task_BlackBox.c ****                                 }
 3510              		.loc 1 955 37 is_stmt 1 view .LVU951
 955:Task/Task_BlackBox.c ****                                 }
 3511              		.loc 1 955 53 is_stmt 0 view .LVU952
 3512 0170 0023     		movs	r3, #0
 3513 0172 2293     		str	r3, [sp, #136]
 3514              	.L203:
 963:Task/Task_BlackBox.c ****                                 TaskBlackBox_ConvertLogData_To_IMU(shell_obj, &log_imu, &p_remain_b
 3515              		.loc 1 963 33 is_stmt 1 view .LVU953
 963:Task/Task_BlackBox.c ****                                 TaskBlackBox_ConvertLogData_To_IMU(shell_obj, &log_imu, &p_remain_b
 3516              		.loc 1 963 45 is_stmt 0 view .LVU954
 3517 0174 2623     		movs	r3, #38
 3518 0176 0093     		str	r3, [sp]
 964:Task/Task_BlackBox.c ****                                 break;
 3519              		.loc 1 964 33 is_stmt 1 view .LVU955
 3520 0178 6B46     		mov	r3, sp
 3521 017a 01AA     		add	r2, sp, #4
 3522 017c 3FA9     		add	r1, sp, #252
 3523 017e 2046     		mov	r0, r4
 3524 0180 FFF7FEFF 		bl	TaskBlackBox_ConvertLogData_To_IMU
 3525              	.LVL310:
 965:Task/Task_BlackBox.c **** 
 3526              		.loc 1 965 33 view .LVU956
 3527              	.L204:
1025:Task/Task_BlackBox.c ****                         {
 3528              		.loc 1 1025 25 view .LVU957
1025:Task/Task_BlackBox.c ****                         {
 3529              		.loc 1 1025 29 is_stmt 0 view .LVU958
 3530 0184 2298     		ldr	r0, [sp, #136]
1025:Task/Task_BlackBox.c ****                         {
 3531              		.loc 1 1025 28 view .LVU959
ARM GAS  C:\Users\8bit\AppData\Local\Temp\cclQGHkl.s 			page 93


 3532 0186 0028     		cmp	r0, #0
 3533 0188 00F0B880 		beq	.L211
1027:Task/Task_BlackBox.c ****                             decode_size = BLACKBOX_ENDER_SIZE;
 3534              		.loc 1 1027 29 is_stmt 1 view .LVU960
 3535 018c C0F10302 		rsb	r2, r0, #3
 3536 0190 2399     		ldr	r1, [sp, #140]
 3537 0192 02AB     		add	r3, sp, #8
 3538 0194 1844     		add	r0, r0, r3
 3539 0196 FFF7FEFF 		bl	memcpy
 3540              	.LVL311:
1028:Task/Task_BlackBox.c ****                             p_log_data += BLACKBOX_ENDER_SIZE - uncomplete_size;
 3541              		.loc 1 1028 29 view .LVU961
1028:Task/Task_BlackBox.c ****                             p_log_data += BLACKBOX_ENDER_SIZE - uncomplete_size;
 3542              		.loc 1 1028 41 is_stmt 0 view .LVU962
 3543 019a 0323     		movs	r3, #3
 3544 019c 0093     		str	r3, [sp]
1029:Task/Task_BlackBox.c ****                             log_size -= BLACKBOX_ENDER_SIZE - uncomplete_size;
 3545              		.loc 1 1029 29 is_stmt 1 view .LVU963
1029:Task/Task_BlackBox.c ****                             log_size -= BLACKBOX_ENDER_SIZE - uncomplete_size;
 3546              		.loc 1 1029 63 is_stmt 0 view .LVU964
 3547 019e 229B     		ldr	r3, [sp, #136]
 3548 01a0 C3F10301 		rsb	r1, r3, #3
1029:Task/Task_BlackBox.c ****                             log_size -= BLACKBOX_ENDER_SIZE - uncomplete_size;
 3549              		.loc 1 1029 40 view .LVU965
 3550 01a4 239A     		ldr	r2, [sp, #140]
 3551 01a6 0A44     		add	r2, r2, r1
 3552 01a8 2392     		str	r2, [sp, #140]
1030:Task/Task_BlackBox.c ****                             TaskBlackBox_ConvertLogData_To_Ender(shell_obj, &ender, &p_remain_buf, 
 3553              		.loc 1 1030 29 is_stmt 1 view .LVU966
1030:Task/Task_BlackBox.c ****                             TaskBlackBox_ConvertLogData_To_Ender(shell_obj, &ender, &p_remain_buf, 
 3554              		.loc 1 1030 38 is_stmt 0 view .LVU967
 3555 01aa 4C9A     		ldr	r2, [sp, #304]
 3556 01ac 1344     		add	r3, r3, r2
 3557 01ae 033B     		subs	r3, r3, #3
 3558 01b0 4C93     		str	r3, [sp, #304]
1031:Task/Task_BlackBox.c ****                         }
 3559              		.loc 1 1031 29 is_stmt 1 view .LVU968
 3560 01b2 6B46     		mov	r3, sp
 3561 01b4 01AA     		add	r2, sp, #4
 3562 01b6 49A9     		add	r1, sp, #292
 3563 01b8 2046     		mov	r0, r4
 3564 01ba FFF7FEFF 		bl	TaskBlackBox_ConvertLogData_To_Ender
 3565              	.LVL312:
 3566              	.L212:
1037:Task/Task_BlackBox.c ****                     }
 3567              		.loc 1 1037 25 view .LVU969
1037:Task/Task_BlackBox.c ****                     }
 3568              		.loc 1 1037 31 is_stmt 0 view .LVU970
 3569 01be 4CAB     		add	r3, sp, #304
 3570 01c0 23AA     		add	r2, sp, #140
 3571 01c2 4AA9     		add	r1, sp, #296
 3572 01c4 2046     		mov	r0, r4
 3573 01c6 FFF7FEFF 		bl	TaskBlackBox_ConvertLogData_To_Header
 3574              	.LVL313:
1037:Task/Task_BlackBox.c ****                     }
 3575              		.loc 1 1037 29 view .LVU971
 3576 01ca 8DF82E01 		strb	r0, [sp, #302]
ARM GAS  C:\Users\8bit\AppData\Local\Temp\cclQGHkl.s 			page 94


 3577 01ce A4E0     		b	.L195
 3578              	.L202:
 959:Task/Task_BlackBox.c ****                                     uncomplete_size -= sizeof(BlackBox_IMUData_TypeDef);
 3579              		.loc 1 959 37 is_stmt 1 view .LVU972
 3580 01d0 0198     		ldr	r0, [sp, #4]
 3581 01d2 A3F12602 		sub	r2, r3, #38
 3582 01d6 C118     		adds	r1, r0, r3
 3583 01d8 FFF7FEFF 		bl	memmove
 3584              	.LVL314:
 960:Task/Task_BlackBox.c ****                                 }
 3585              		.loc 1 960 37 view .LVU973
 960:Task/Task_BlackBox.c ****                                 }
 3586              		.loc 1 960 53 is_stmt 0 view .LVU974
 3587 01dc 229B     		ldr	r3, [sp, #136]
 3588 01de 263B     		subs	r3, r3, #38
 3589 01e0 2293     		str	r3, [sp, #136]
 3590 01e2 C7E7     		b	.L203
 3591              	.L200:
 968:Task/Task_BlackBox.c ****                                 {
 3592              		.loc 1 968 33 is_stmt 1 view .LVU975
 968:Task/Task_BlackBox.c ****                                 {
 3593              		.loc 1 968 36 is_stmt 0 view .LVU976
 3594 01e4 2C2B     		cmp	r3, #44
 3595 01e6 1BD8     		bhi	.L205
 970:Task/Task_BlackBox.c ****                                     p_log_data += sizeof(BlackBox_AttAltData_TypeDef) - uncomplete_
 3596              		.loc 1 970 37 is_stmt 1 view .LVU977
 3597 01e8 0198     		ldr	r0, [sp, #4]
 3598 01ea C3F12C02 		rsb	r2, r3, #44
 3599 01ee 2399     		ldr	r1, [sp, #140]
 3600 01f0 1844     		add	r0, r0, r3
 3601 01f2 FFF7FEFF 		bl	memcpy
 3602              	.LVL315:
 971:Task/Task_BlackBox.c ****                                     log_size -= sizeof(BlackBox_AttAltData_TypeDef) - uncomplete_si
 3603              		.loc 1 971 37 view .LVU978
 971:Task/Task_BlackBox.c ****                                     log_size -= sizeof(BlackBox_AttAltData_TypeDef) - uncomplete_si
 3604              		.loc 1 971 87 is_stmt 0 view .LVU979
 3605 01f6 229B     		ldr	r3, [sp, #136]
 3606 01f8 C3F12C01 		rsb	r1, r3, #44
 971:Task/Task_BlackBox.c ****                                     log_size -= sizeof(BlackBox_AttAltData_TypeDef) - uncomplete_si
 3607              		.loc 1 971 48 view .LVU980
 3608 01fc 239A     		ldr	r2, [sp, #140]
 3609 01fe 0A44     		add	r2, r2, r1
 3610 0200 2392     		str	r2, [sp, #140]
 972:Task/Task_BlackBox.c ****                                     uncomplete_size = 0;
 3611              		.loc 1 972 37 is_stmt 1 view .LVU981
 972:Task/Task_BlackBox.c ****                                     uncomplete_size = 0;
 3612              		.loc 1 972 46 is_stmt 0 view .LVU982
 3613 0202 4C9A     		ldr	r2, [sp, #304]
 3614 0204 1344     		add	r3, r3, r2
 3615 0206 2C3B     		subs	r3, r3, #44
 3616 0208 4C93     		str	r3, [sp, #304]
 973:Task/Task_BlackBox.c ****                                 }
 3617              		.loc 1 973 37 is_stmt 1 view .LVU983
 973:Task/Task_BlackBox.c ****                                 }
 3618              		.loc 1 973 53 is_stmt 0 view .LVU984
 3619 020a 0023     		movs	r3, #0
 3620 020c 2293     		str	r3, [sp, #136]
ARM GAS  C:\Users\8bit\AppData\Local\Temp\cclQGHkl.s 			page 95


 3621              	.L206:
 981:Task/Task_BlackBox.c ****                                 TaskBlackBox_ConvertLogData_To_Alt_Att(shell_obj, &log_att_alt, &p_
 3622              		.loc 1 981 33 is_stmt 1 view .LVU985
 981:Task/Task_BlackBox.c ****                                 TaskBlackBox_ConvertLogData_To_Alt_Att(shell_obj, &log_att_alt, &p_
 3623              		.loc 1 981 45 is_stmt 0 view .LVU986
 3624 020e 2C23     		movs	r3, #44
 3625 0210 0093     		str	r3, [sp]
 982:Task/Task_BlackBox.c ****                                 break;
 3626              		.loc 1 982 33 is_stmt 1 view .LVU987
 3627 0212 6B46     		mov	r3, sp
 3628 0214 01AA     		add	r2, sp, #4
 3629 0216 34A9     		add	r1, sp, #208
 3630 0218 2046     		mov	r0, r4
 3631 021a FFF7FEFF 		bl	TaskBlackBox_ConvertLogData_To_Alt_Att
 3632              	.LVL316:
 983:Task/Task_BlackBox.c **** 
 3633              		.loc 1 983 33 view .LVU988
 3634 021e B1E7     		b	.L204
 3635              	.L205:
 977:Task/Task_BlackBox.c ****                                     uncomplete_size -= sizeof(BlackBox_AttAltData_TypeDef);
 3636              		.loc 1 977 37 view .LVU989
 3637 0220 0198     		ldr	r0, [sp, #4]
 3638 0222 A3F12C02 		sub	r2, r3, #44
 3639 0226 C118     		adds	r1, r0, r3
 3640 0228 FFF7FEFF 		bl	memmove
 3641              	.LVL317:
 978:Task/Task_BlackBox.c ****                                 }
 3642              		.loc 1 978 37 view .LVU990
 978:Task/Task_BlackBox.c ****                                 }
 3643              		.loc 1 978 53 is_stmt 0 view .LVU991
 3644 022c 229B     		ldr	r3, [sp, #136]
 3645 022e 2C3B     		subs	r3, r3, #44
 3646 0230 2293     		str	r3, [sp, #136]
 3647 0232 ECE7     		b	.L206
 3648              	.L199:
 986:Task/Task_BlackBox.c ****                                 {
 3649              		.loc 1 986 33 is_stmt 1 view .LVU992
 986:Task/Task_BlackBox.c ****                                 {
 3650              		.loc 1 986 36 is_stmt 0 view .LVU993
 3651 0234 1D2B     		cmp	r3, #29
 3652 0236 1BD8     		bhi	.L207
 988:Task/Task_BlackBox.c ****                                     p_log_data += sizeof(BlackBox_AngCtlData_TypeDef) - uncomplete_
 3653              		.loc 1 988 37 is_stmt 1 view .LVU994
 3654 0238 0198     		ldr	r0, [sp, #4]
 3655 023a C3F11D02 		rsb	r2, r3, #29
 3656 023e 2399     		ldr	r1, [sp, #140]
 3657 0240 1844     		add	r0, r0, r3
 3658 0242 FFF7FEFF 		bl	memcpy
 3659              	.LVL318:
 989:Task/Task_BlackBox.c ****                                     log_size -= sizeof(BlackBox_AngCtlData_TypeDef) - uncomplete_si
 3660              		.loc 1 989 37 view .LVU995
 989:Task/Task_BlackBox.c ****                                     log_size -= sizeof(BlackBox_AngCtlData_TypeDef) - uncomplete_si
 3661              		.loc 1 989 87 is_stmt 0 view .LVU996
 3662 0246 229B     		ldr	r3, [sp, #136]
 3663 0248 C3F11D01 		rsb	r1, r3, #29
 989:Task/Task_BlackBox.c ****                                     log_size -= sizeof(BlackBox_AngCtlData_TypeDef) - uncomplete_si
 3664              		.loc 1 989 48 view .LVU997
ARM GAS  C:\Users\8bit\AppData\Local\Temp\cclQGHkl.s 			page 96


 3665 024c 239A     		ldr	r2, [sp, #140]
 3666 024e 0A44     		add	r2, r2, r1
 3667 0250 2392     		str	r2, [sp, #140]
 990:Task/Task_BlackBox.c ****                                     uncomplete_size = 0;
 3668              		.loc 1 990 37 is_stmt 1 view .LVU998
 990:Task/Task_BlackBox.c ****                                     uncomplete_size = 0;
 3669              		.loc 1 990 46 is_stmt 0 view .LVU999
 3670 0252 4C9A     		ldr	r2, [sp, #304]
 3671 0254 1344     		add	r3, r3, r2
 3672 0256 1D3B     		subs	r3, r3, #29
 3673 0258 4C93     		str	r3, [sp, #304]
 991:Task/Task_BlackBox.c ****                                 }
 3674              		.loc 1 991 37 is_stmt 1 view .LVU1000
 991:Task/Task_BlackBox.c ****                                 }
 3675              		.loc 1 991 53 is_stmt 0 view .LVU1001
 3676 025a 0023     		movs	r3, #0
 3677 025c 2293     		str	r3, [sp, #136]
 3678              	.L208:
 999:Task/Task_BlackBox.c ****                                 TaskBlackBox_ConvertLogData_To_CtlAng(shell_obj, &log_AngCtl, &p_re
 3679              		.loc 1 999 33 is_stmt 1 view .LVU1002
 999:Task/Task_BlackBox.c ****                                 TaskBlackBox_ConvertLogData_To_CtlAng(shell_obj, &log_AngCtl, &p_re
 3680              		.loc 1 999 45 is_stmt 0 view .LVU1003
 3681 025e 1D23     		movs	r3, #29
 3682 0260 0093     		str	r3, [sp]
1000:Task/Task_BlackBox.c ****                                 break;
 3683              		.loc 1 1000 33 is_stmt 1 view .LVU1004
 3684 0262 6B46     		mov	r3, sp
 3685 0264 01AA     		add	r2, sp, #4
 3686 0266 2CA9     		add	r1, sp, #176
 3687 0268 2046     		mov	r0, r4
 3688 026a FFF7FEFF 		bl	TaskBlackBox_ConvertLogData_To_CtlAng
 3689              	.LVL319:
1001:Task/Task_BlackBox.c **** 
 3690              		.loc 1 1001 33 view .LVU1005
 3691 026e 89E7     		b	.L204
 3692              	.L207:
 995:Task/Task_BlackBox.c ****                                     uncomplete_size -= sizeof(BlackBox_AngCtlData_TypeDef);
 3693              		.loc 1 995 37 view .LVU1006
 3694 0270 0198     		ldr	r0, [sp, #4]
 3695 0272 A3F11D02 		sub	r2, r3, #29
 3696 0276 C118     		adds	r1, r0, r3
 3697 0278 FFF7FEFF 		bl	memmove
 3698              	.LVL320:
 996:Task/Task_BlackBox.c ****                                 }
 3699              		.loc 1 996 37 view .LVU1007
 996:Task/Task_BlackBox.c ****                                 }
 3700              		.loc 1 996 53 is_stmt 0 view .LVU1008
 3701 027c 229B     		ldr	r3, [sp, #136]
 3702 027e 1D3B     		subs	r3, r3, #29
 3703 0280 2293     		str	r3, [sp, #136]
 3704 0282 ECE7     		b	.L208
 3705              	.L197:
1004:Task/Task_BlackBox.c ****                                 {
 3706              		.loc 1 1004 33 is_stmt 1 view .LVU1009
1004:Task/Task_BlackBox.c ****                                 {
 3707              		.loc 1 1004 36 is_stmt 0 view .LVU1010
 3708 0284 1D2B     		cmp	r3, #29
ARM GAS  C:\Users\8bit\AppData\Local\Temp\cclQGHkl.s 			page 97


 3709 0286 2FD8     		bhi	.L209
1006:Task/Task_BlackBox.c ****                                     p_log_data += sizeof(BlackBox_AttCtlData_TypeDef) - uncomplete_
 3710              		.loc 1 1006 37 is_stmt 1 view .LVU1011
 3711 0288 0198     		ldr	r0, [sp, #4]
 3712 028a C3F11D02 		rsb	r2, r3, #29
 3713 028e 2399     		ldr	r1, [sp, #140]
 3714 0290 1844     		add	r0, r0, r3
 3715 0292 FFF7FEFF 		bl	memcpy
 3716              	.LVL321:
1007:Task/Task_BlackBox.c ****                                     log_size -= sizeof(BlackBox_AttCtlData_TypeDef) - uncomplete_si
 3717              		.loc 1 1007 37 view .LVU1012
1007:Task/Task_BlackBox.c ****                                     log_size -= sizeof(BlackBox_AttCtlData_TypeDef) - uncomplete_si
 3718              		.loc 1 1007 87 is_stmt 0 view .LVU1013
 3719 0296 229B     		ldr	r3, [sp, #136]
 3720 0298 C3F11D01 		rsb	r1, r3, #29
1007:Task/Task_BlackBox.c ****                                     log_size -= sizeof(BlackBox_AttCtlData_TypeDef) - uncomplete_si
 3721              		.loc 1 1007 48 view .LVU1014
 3722 029c 239A     		ldr	r2, [sp, #140]
 3723 029e 0A44     		add	r2, r2, r1
 3724 02a0 2392     		str	r2, [sp, #140]
1008:Task/Task_BlackBox.c ****                                     uncomplete_size = 0;
 3725              		.loc 1 1008 37 is_stmt 1 view .LVU1015
1008:Task/Task_BlackBox.c ****                                     uncomplete_size = 0;
 3726              		.loc 1 1008 46 is_stmt 0 view .LVU1016
 3727 02a2 4C9A     		ldr	r2, [sp, #304]
 3728 02a4 1344     		add	r3, r3, r2
 3729 02a6 1D3B     		subs	r3, r3, #29
 3730 02a8 4C93     		str	r3, [sp, #304]
1009:Task/Task_BlackBox.c ****                                 }
 3731              		.loc 1 1009 37 is_stmt 1 view .LVU1017
1009:Task/Task_BlackBox.c ****                                 }
 3732              		.loc 1 1009 53 is_stmt 0 view .LVU1018
 3733 02aa 0023     		movs	r3, #0
 3734 02ac 2293     		str	r3, [sp, #136]
 3735              	.L210:
1017:Task/Task_BlackBox.c ****                                 TaskBlackBox_ConvertLogData_To_CtlAtt(shell_obj, &log_AttCtl, &p_re
 3736              		.loc 1 1017 33 is_stmt 1 view .LVU1019
1017:Task/Task_BlackBox.c ****                                 TaskBlackBox_ConvertLogData_To_CtlAtt(shell_obj, &log_AttCtl, &p_re
 3737              		.loc 1 1017 45 is_stmt 0 view .LVU1020
 3738 02ae 1D23     		movs	r3, #29
 3739 02b0 0093     		str	r3, [sp]
1018:Task/Task_BlackBox.c ****                                 break;
 3740              		.loc 1 1018 33 is_stmt 1 view .LVU1021
 3741 02b2 6B46     		mov	r3, sp
 3742 02b4 01AA     		add	r2, sp, #4
 3743 02b6 24A9     		add	r1, sp, #144
 3744 02b8 2046     		mov	r0, r4
 3745 02ba FFF7FEFF 		bl	TaskBlackBox_ConvertLogData_To_CtlAtt
 3746              	.LVL322:
1019:Task/Task_BlackBox.c **** 
 3747              		.loc 1 1019 33 view .LVU1022
 3748 02be 61E7     		b	.L204
 3749              	.L236:
 3750              		.align	2
 3751              	.L235:
 3752 02c0 00000000 		.word	.LANCHOR12
 3753 02c4 00000000 		.word	Storage
ARM GAS  C:\Users\8bit\AppData\Local\Temp\cclQGHkl.s 			page 98


 3754 02c8 00000000 		.word	.LANCHOR1
 3755 02cc 40000000 		.word	.LC31
 3756 02d0 6C000000 		.word	.LC32
 3757 02d4 98000000 		.word	.LC33
 3758 02d8 00000000 		.word	.LC29
 3759 02dc 24000000 		.word	.LC30
 3760 02e0 C4000000 		.word	.LC34
 3761 02e4 E4000000 		.word	.LC35
 3762              	.L209:
1013:Task/Task_BlackBox.c ****                                     uncomplete_size -= sizeof(BlackBox_AttCtlData_TypeDef);
 3763              		.loc 1 1013 37 view .LVU1023
 3764 02e8 0198     		ldr	r0, [sp, #4]
 3765 02ea A3F11D02 		sub	r2, r3, #29
 3766 02ee C118     		adds	r1, r0, r3
 3767 02f0 FFF7FEFF 		bl	memmove
 3768              	.LVL323:
1014:Task/Task_BlackBox.c ****                                 }
 3769              		.loc 1 1014 37 view .LVU1024
1014:Task/Task_BlackBox.c ****                                 }
 3770              		.loc 1 1014 53 is_stmt 0 view .LVU1025
 3771 02f4 229B     		ldr	r3, [sp, #136]
 3772 02f6 1D3B     		subs	r3, r3, #29
 3773 02f8 2293     		str	r3, [sp, #136]
 3774 02fa D8E7     		b	.L210
 3775              	.L211:
1034:Task/Task_BlackBox.c **** 
 3776              		.loc 1 1034 29 is_stmt 1 view .LVU1026
 3777 02fc 4CAB     		add	r3, sp, #304
 3778 02fe 23AA     		add	r2, sp, #140
 3779 0300 49A9     		add	r1, sp, #292
 3780 0302 2046     		mov	r0, r4
 3781 0304 FFF7FEFF 		bl	TaskBlackBox_ConvertLogData_To_Ender
 3782              	.LVL324:
 3783 0308 59E7     		b	.L212
 3784              	.L189:
1034:Task/Task_BlackBox.c **** 
 3785              		.loc 1 1034 29 is_stmt 0 view .LVU1027
 3786              	.LBE14:
1041:Task/Task_BlackBox.c **** 
 3787              		.loc 1 1041 21 is_stmt 1 view .LVU1028
1041:Task/Task_BlackBox.c **** 
 3788              		.loc 1 1041 27 is_stmt 0 view .LVU1029
 3789 030a 4CAB     		add	r3, sp, #304
 3790 030c 23AA     		add	r2, sp, #140
 3791 030e 4AA9     		add	r1, sp, #296
 3792 0310 2046     		mov	r0, r4
 3793 0312 FFF7FEFF 		bl	TaskBlackBox_ConvertLogData_To_Header
 3794              	.LVL325:
1041:Task/Task_BlackBox.c **** 
 3795              		.loc 1 1041 25 view .LVU1030
 3796 0316 8DF82E01 		strb	r0, [sp, #302]
 3797              	.L195:
1043:Task/Task_BlackBox.c ****                 {
 3798              		.loc 1 1043 17 is_stmt 1 view .LVU1031
1043:Task/Task_BlackBox.c ****                 {
 3799              		.loc 1 1043 25 is_stmt 0 view .LVU1032
 3800 031a 9DF82E31 		ldrb	r3, [sp, #302]	@ zero_extendqisi2
ARM GAS  C:\Users\8bit\AppData\Local\Temp\cclQGHkl.s 			page 99


1043:Task/Task_BlackBox.c ****                 {
 3801              		.loc 1 1043 20 view .LVU1033
 3802 031e 002B     		cmp	r3, #0
 3803 0320 6AD1     		bne	.L213
1045:Task/Task_BlackBox.c ****                     switch ((uint8_t)header.type)
 3804              		.loc 1 1045 21 is_stmt 1 view .LVU1034
1045:Task/Task_BlackBox.c ****                     switch ((uint8_t)header.type)
 3805              		.loc 1 1045 37 is_stmt 0 view .LVU1035
 3806 0322 2293     		str	r3, [sp, #136]
1046:Task/Task_BlackBox.c ****                     {
 3807              		.loc 1 1046 21 is_stmt 1 view .LVU1036
1046:Task/Task_BlackBox.c ****                     {
 3808              		.loc 1 1046 44 is_stmt 0 view .LVU1037
 3809 0324 9DF82A31 		ldrb	r3, [sp, #298]	@ zero_extendqisi2
1046:Task/Task_BlackBox.c ****                     {
 3810              		.loc 1 1046 21 view .LVU1038
 3811 0328 013B     		subs	r3, r3, #1
 3812 032a 032B     		cmp	r3, #3
 3813 032c 10D8     		bhi	.L214
 3814 032e DFE803F0 		tbb	[pc, r3]
 3815              	.L216:
 3816 0332 02       		.byte	(.L219-.L216)/2
 3817 0333 29       		.byte	(.L218-.L216)/2
 3818 0334 37       		.byte	(.L217-.L216)/2
 3819 0335 45       		.byte	(.L215-.L216)/2
 3820              		.p2align 1
 3821              	.L219:
1049:Task/Task_BlackBox.c ****                             check_sum = TaskBlackBox_Get_CheckSum((uint8_t *)&log_imu, sizeof(Black
 3822              		.loc 1 1049 29 is_stmt 1 view .LVU1039
1049:Task/Task_BlackBox.c ****                             check_sum = TaskBlackBox_Get_CheckSum((uint8_t *)&log_imu, sizeof(Black
 3823              		.loc 1 1049 35 is_stmt 0 view .LVU1040
 3824 0336 4CAB     		add	r3, sp, #304
 3825 0338 23AA     		add	r2, sp, #140
 3826 033a 3FA9     		add	r1, sp, #252
 3827 033c 2046     		mov	r0, r4
 3828 033e FFF7FEFF 		bl	TaskBlackBox_ConvertLogData_To_IMU
 3829              	.LVL326:
1049:Task/Task_BlackBox.c ****                             check_sum = TaskBlackBox_Get_CheckSum((uint8_t *)&log_imu, sizeof(Black
 3830              		.loc 1 1049 33 view .LVU1041
 3831 0342 8DF82E01 		strb	r0, [sp, #302]
1050:Task/Task_BlackBox.c ****                             break;
 3832              		.loc 1 1050 29 is_stmt 1 view .LVU1042
1050:Task/Task_BlackBox.c ****                             break;
 3833              		.loc 1 1050 41 is_stmt 0 view .LVU1043
 3834 0346 2621     		movs	r1, #38
 3835 0348 3FA8     		add	r0, sp, #252
 3836 034a FFF7FEFF 		bl	TaskBlackBox_Get_CheckSum
 3837              	.LVL327:
 3838 034e 0546     		mov	r5, r0
 3839              	.LVL328:
1051:Task/Task_BlackBox.c **** 
 3840              		.loc 1 1051 29 is_stmt 1 view .LVU1044
 3841              	.L214:
1071:Task/Task_BlackBox.c ****                     {
 3842              		.loc 1 1071 21 view .LVU1045
1071:Task/Task_BlackBox.c ****                     {
 3843              		.loc 1 1071 29 is_stmt 0 view .LVU1046
ARM GAS  C:\Users\8bit\AppData\Local\Temp\cclQGHkl.s 			page 100


 3844 0350 9DF82E31 		ldrb	r3, [sp, #302]	@ zero_extendqisi2
 3845 0354 DBB2     		uxtb	r3, r3
1071:Task/Task_BlackBox.c ****                     {
 3846              		.loc 1 1071 24 view .LVU1047
 3847 0356 022B     		cmp	r3, #2
 3848 0358 3ED0     		beq	.L232
1081:Task/Task_BlackBox.c **** 
 3849              		.loc 1 1081 25 is_stmt 1 view .LVU1048
 3850 035a 4CAB     		add	r3, sp, #304
 3851 035c 23AA     		add	r2, sp, #140
 3852 035e 49A9     		add	r1, sp, #292
 3853 0360 2046     		mov	r0, r4
 3854 0362 FFF7FEFF 		bl	TaskBlackBox_ConvertLogData_To_Ender
 3855              	.LVL329:
1083:Task/Task_BlackBox.c ****                         {
 3856              		.loc 1 1083 25 view .LVU1049
1083:Task/Task_BlackBox.c ****                         {
 3857              		.loc 1 1083 47 is_stmt 0 view .LVU1050
 3858 0366 9DF82431 		ldrb	r3, [sp, #292]	@ zero_extendqisi2
1083:Task/Task_BlackBox.c ****                         {
 3859              		.loc 1 1083 28 view .LVU1051
 3860 036a AB42     		cmp	r3, r5
 3861 036c 56D0     		beq	.L188
1085:Task/Task_BlackBox.c ****                             shellPrint(shell_obj, "[ BlackBox ] addr: %d remian: %d\r\n", addr, log
 3862              		.loc 1 1085 29 is_stmt 1 view .LVU1052
 3863 036e 4A49     		ldr	r1, .L237
 3864 0370 2046     		mov	r0, r4
 3865 0372 FFF7FEFF 		bl	shellPrint
 3866              	.LVL330:
1086:Task/Task_BlackBox.c ****                         }
 3867              		.loc 1 1086 29 view .LVU1053
 3868 0376 4C9B     		ldr	r3, [sp, #304]
 3869 0378 3246     		mov	r2, r6
 3870 037a 4849     		ldr	r1, .L237+4
 3871 037c 2046     		mov	r0, r4
 3872 037e FFF7FEFF 		bl	shellPrint
 3873              	.LVL331:
 3874 0382 4BE0     		b	.L188
 3875              	.L218:
1054:Task/Task_BlackBox.c ****                             check_sum = TaskBlackBox_Get_CheckSum((uint8_t *)&log_att_alt, sizeof(B
 3876              		.loc 1 1054 29 view .LVU1054
1054:Task/Task_BlackBox.c ****                             check_sum = TaskBlackBox_Get_CheckSum((uint8_t *)&log_att_alt, sizeof(B
 3877              		.loc 1 1054 35 is_stmt 0 view .LVU1055
 3878 0384 4CAB     		add	r3, sp, #304
 3879 0386 23AA     		add	r2, sp, #140
 3880 0388 34A9     		add	r1, sp, #208
 3881 038a 2046     		mov	r0, r4
 3882 038c FFF7FEFF 		bl	TaskBlackBox_ConvertLogData_To_Alt_Att
 3883              	.LVL332:
1054:Task/Task_BlackBox.c ****                             check_sum = TaskBlackBox_Get_CheckSum((uint8_t *)&log_att_alt, sizeof(B
 3884              		.loc 1 1054 33 view .LVU1056
 3885 0390 8DF82E01 		strb	r0, [sp, #302]
1055:Task/Task_BlackBox.c ****                             break;
 3886              		.loc 1 1055 29 is_stmt 1 view .LVU1057
1055:Task/Task_BlackBox.c ****                             break;
 3887              		.loc 1 1055 41 is_stmt 0 view .LVU1058
 3888 0394 2C21     		movs	r1, #44
ARM GAS  C:\Users\8bit\AppData\Local\Temp\cclQGHkl.s 			page 101


 3889 0396 34A8     		add	r0, sp, #208
 3890 0398 FFF7FEFF 		bl	TaskBlackBox_Get_CheckSum
 3891              	.LVL333:
 3892 039c 0546     		mov	r5, r0
 3893              	.LVL334:
1056:Task/Task_BlackBox.c **** 
 3894              		.loc 1 1056 29 is_stmt 1 view .LVU1059
 3895 039e D7E7     		b	.L214
 3896              	.L217:
1059:Task/Task_BlackBox.c ****                             check_sum = TaskBlackBox_Get_CheckSum((uint8_t *)&log_AngCtl, sizeof(Bl
 3897              		.loc 1 1059 29 view .LVU1060
1059:Task/Task_BlackBox.c ****                             check_sum = TaskBlackBox_Get_CheckSum((uint8_t *)&log_AngCtl, sizeof(Bl
 3898              		.loc 1 1059 35 is_stmt 0 view .LVU1061
 3899 03a0 4CAB     		add	r3, sp, #304
 3900 03a2 23AA     		add	r2, sp, #140
 3901 03a4 2CA9     		add	r1, sp, #176
 3902 03a6 2046     		mov	r0, r4
 3903 03a8 FFF7FEFF 		bl	TaskBlackBox_ConvertLogData_To_CtlAng
 3904              	.LVL335:
1059:Task/Task_BlackBox.c ****                             check_sum = TaskBlackBox_Get_CheckSum((uint8_t *)&log_AngCtl, sizeof(Bl
 3905              		.loc 1 1059 33 view .LVU1062
 3906 03ac 8DF82E01 		strb	r0, [sp, #302]
1060:Task/Task_BlackBox.c ****                             break;
 3907              		.loc 1 1060 29 is_stmt 1 view .LVU1063
1060:Task/Task_BlackBox.c ****                             break;
 3908              		.loc 1 1060 41 is_stmt 0 view .LVU1064
 3909 03b0 1D21     		movs	r1, #29
 3910 03b2 2CA8     		add	r0, sp, #176
 3911 03b4 FFF7FEFF 		bl	TaskBlackBox_Get_CheckSum
 3912              	.LVL336:
 3913 03b8 0546     		mov	r5, r0
 3914              	.LVL337:
1061:Task/Task_BlackBox.c **** 
 3915              		.loc 1 1061 29 is_stmt 1 view .LVU1065
 3916 03ba C9E7     		b	.L214
 3917              	.L215:
1064:Task/Task_BlackBox.c ****                             check_sum = TaskBlackBox_Get_CheckSum((uint8_t *)&log_AttCtl, sizeof(Bl
 3918              		.loc 1 1064 29 view .LVU1066
1064:Task/Task_BlackBox.c ****                             check_sum = TaskBlackBox_Get_CheckSum((uint8_t *)&log_AttCtl, sizeof(Bl
 3919              		.loc 1 1064 35 is_stmt 0 view .LVU1067
 3920 03bc 4CAB     		add	r3, sp, #304
 3921 03be 23AA     		add	r2, sp, #140
 3922 03c0 24A9     		add	r1, sp, #144
 3923 03c2 2046     		mov	r0, r4
 3924 03c4 FFF7FEFF 		bl	TaskBlackBox_ConvertLogData_To_CtlAtt
 3925              	.LVL338:
1064:Task/Task_BlackBox.c ****                             check_sum = TaskBlackBox_Get_CheckSum((uint8_t *)&log_AttCtl, sizeof(Bl
 3926              		.loc 1 1064 33 view .LVU1068
 3927 03c8 8DF82E01 		strb	r0, [sp, #302]
1065:Task/Task_BlackBox.c ****                             break;
 3928              		.loc 1 1065 29 is_stmt 1 view .LVU1069
1065:Task/Task_BlackBox.c ****                             break;
 3929              		.loc 1 1065 41 is_stmt 0 view .LVU1070
 3930 03cc 1D21     		movs	r1, #29
 3931 03ce 24A8     		add	r0, sp, #144
 3932 03d0 FFF7FEFF 		bl	TaskBlackBox_Get_CheckSum
 3933              	.LVL339:
ARM GAS  C:\Users\8bit\AppData\Local\Temp\cclQGHkl.s 			page 102


 3934 03d4 0546     		mov	r5, r0
 3935              	.LVL340:
1066:Task/Task_BlackBox.c **** 
 3936              		.loc 1 1066 29 is_stmt 1 view .LVU1071
 3937 03d6 BBE7     		b	.L214
 3938              	.L232:
1073:Task/Task_BlackBox.c ****                         uncomplete_size = log_size;
 3939              		.loc 1 1073 25 view .LVU1072
 3940 03d8 8022     		movs	r2, #128
 3941 03da 0021     		movs	r1, #0
 3942 03dc 02A8     		add	r0, sp, #8
 3943 03de FFF7FEFF 		bl	memset
 3944              	.LVL341:
1074:Task/Task_BlackBox.c ****                         memcpy(remain_buf, p_log_data, uncomplete_size);
 3945              		.loc 1 1074 25 view .LVU1073
1074:Task/Task_BlackBox.c ****                         memcpy(remain_buf, p_log_data, uncomplete_size);
 3946              		.loc 1 1074 41 is_stmt 0 view .LVU1074
 3947 03e2 4C9A     		ldr	r2, [sp, #304]
 3948 03e4 2292     		str	r2, [sp, #136]
1075:Task/Task_BlackBox.c ****                         log_size = 0;
 3949              		.loc 1 1075 25 is_stmt 1 view .LVU1075
 3950 03e6 2399     		ldr	r1, [sp, #140]
 3951 03e8 02A8     		add	r0, sp, #8
 3952 03ea FFF7FEFF 		bl	memcpy
 3953              	.LVL342:
1076:Task/Task_BlackBox.c ****                         break;
 3954              		.loc 1 1076 25 view .LVU1076
1076:Task/Task_BlackBox.c ****                         break;
 3955              		.loc 1 1076 34 is_stmt 0 view .LVU1077
 3956 03ee 0023     		movs	r3, #0
 3957 03f0 4C93     		str	r3, [sp, #304]
1077:Task/Task_BlackBox.c ****                     }
 3958              		.loc 1 1077 25 is_stmt 1 view .LVU1078
 3959              	.L221:
 895:Task/Task_BlackBox.c ****     {
 3960              		.loc 1 895 39 discriminator 2 view .LVU1079
 895:Task/Task_BlackBox.c ****     {
 3961              		.loc 1 895 40 is_stmt 0 discriminator 2 view .LVU1080
 3962 03f2 0137     		adds	r7, r7, #1
 3963              	.LVL343:
 895:Task/Task_BlackBox.c ****     {
 3964              		.loc 1 895 40 discriminator 2 view .LVU1081
 3965 03f4 BFB2     		uxth	r7, r7
 3966              	.LVL344:
 895:Task/Task_BlackBox.c ****     {
 3967              		.loc 1 895 40 discriminator 2 view .LVU1082
 3968 03f6 42E6     		b	.L186
 3969              	.L213:
1090:Task/Task_BlackBox.c ****                 {
 3970              		.loc 1 1090 22 is_stmt 1 view .LVU1083
1090:Task/Task_BlackBox.c ****                 {
 3971              		.loc 1 1090 30 is_stmt 0 view .LVU1084
 3972 03f8 9DF82E31 		ldrb	r3, [sp, #302]	@ zero_extendqisi2
 3973 03fc DBB2     		uxtb	r3, r3
1090:Task/Task_BlackBox.c ****                 {
 3974              		.loc 1 1090 25 view .LVU1085
 3975 03fe 022B     		cmp	r3, #2
ARM GAS  C:\Users\8bit\AppData\Local\Temp\cclQGHkl.s 			page 103


 3976 0400 F7D1     		bne	.L221
1092:Task/Task_BlackBox.c ****                     uncomplete_size = log_size;
 3977              		.loc 1 1092 21 is_stmt 1 view .LVU1086
 3978 0402 8022     		movs	r2, #128
 3979 0404 0021     		movs	r1, #0
 3980 0406 02A8     		add	r0, sp, #8
 3981 0408 FFF7FEFF 		bl	memset
 3982              	.LVL345:
1093:Task/Task_BlackBox.c ****                     memcpy(remain_buf, p_log_data, uncomplete_size);
 3983              		.loc 1 1093 21 view .LVU1087
1093:Task/Task_BlackBox.c ****                     memcpy(remain_buf, p_log_data, uncomplete_size);
 3984              		.loc 1 1093 37 is_stmt 0 view .LVU1088
 3985 040c 4C9A     		ldr	r2, [sp, #304]
 3986 040e 2292     		str	r2, [sp, #136]
1094:Task/Task_BlackBox.c ****                     log_size = 0;
 3987              		.loc 1 1094 21 is_stmt 1 view .LVU1089
 3988 0410 2399     		ldr	r1, [sp, #140]
 3989 0412 02A8     		add	r0, sp, #8
 3990 0414 FFF7FEFF 		bl	memcpy
 3991              	.LVL346:
1095:Task/Task_BlackBox.c ****                 }
 3992              		.loc 1 1095 21 view .LVU1090
1095:Task/Task_BlackBox.c ****                 }
 3993              		.loc 1 1095 30 is_stmt 0 view .LVU1091
 3994 0418 0023     		movs	r3, #0
 3995 041a 4C93     		str	r3, [sp, #304]
 3996              	.L188:
 904:Task/Task_BlackBox.c ****             {
 3997              		.loc 1 904 19 is_stmt 1 view .LVU1092
 904:Task/Task_BlackBox.c ****             {
 3998              		.loc 1 904 20 is_stmt 0 view .LVU1093
 3999 041c 4C9B     		ldr	r3, [sp, #304]
 904:Task/Task_BlackBox.c ****             {
 4000              		.loc 1 904 19 view .LVU1094
 4001 041e 002B     		cmp	r3, #0
 4002 0420 E7D0     		beq	.L221
 906:Task/Task_BlackBox.c ****                 {
 4003              		.loc 1 906 17 is_stmt 1 view .LVU1095
 906:Task/Task_BlackBox.c ****                 {
 4004              		.loc 1 906 21 is_stmt 0 view .LVU1096
 4005 0422 2298     		ldr	r0, [sp, #136]
 906:Task/Task_BlackBox.c ****                 {
 4006              		.loc 1 906 20 view .LVU1097
 4007 0424 0028     		cmp	r0, #0
 4008 0426 3FF470AF 		beq	.L189
 908:Task/Task_BlackBox.c **** 
 4009              		.loc 1 908 21 is_stmt 1 view .LVU1098
 908:Task/Task_BlackBox.c **** 
 4010              		.loc 1 908 34 is_stmt 0 view .LVU1099
 4011 042a 02AA     		add	r2, sp, #8
 4012 042c 0192     		str	r2, [sp, #4]
 910:Task/Task_BlackBox.c ****                     {
 4013              		.loc 1 910 21 is_stmt 1 view .LVU1100
 910:Task/Task_BlackBox.c ****                     {
 4014              		.loc 1 910 24 is_stmt 0 view .LVU1101
 4015 042e 0428     		cmp	r0, #4
 4016 0430 3FF666AE 		bhi	.L190
ARM GAS  C:\Users\8bit\AppData\Local\Temp\cclQGHkl.s 			page 104


 913:Task/Task_BlackBox.c ****                         {
 4017              		.loc 1 913 25 is_stmt 1 view .LVU1102
 913:Task/Task_BlackBox.c ****                         {
 4018              		.loc 1 913 28 is_stmt 0 view .LVU1103
 4019 0434 0328     		cmp	r0, #3
 4020 0436 7FF64AAE 		bls	.L233
 4021              	.L191:
 921:Task/Task_BlackBox.c ****                         if (err == BlackBox_Cnv_Size_Error)
 4022              		.loc 1 921 25 is_stmt 1 view .LVU1104
 921:Task/Task_BlackBox.c ****                         if (err == BlackBox_Cnv_Size_Error)
 4023              		.loc 1 921 31 is_stmt 0 view .LVU1105
 4024 043a 22AB     		add	r3, sp, #136
 4025 043c 01AA     		add	r2, sp, #4
 4026 043e 4AA9     		add	r1, sp, #296
 4027 0440 2046     		mov	r0, r4
 4028 0442 FFF7FEFF 		bl	TaskBlackBox_ConvertLogData_To_Header
 4029              	.LVL347:
 921:Task/Task_BlackBox.c ****                         if (err == BlackBox_Cnv_Size_Error)
 4030              		.loc 1 921 29 view .LVU1106
 4031 0446 8DF82E01 		strb	r0, [sp, #302]
 922:Task/Task_BlackBox.c ****                         {
 4032              		.loc 1 922 25 is_stmt 1 view .LVU1107
 922:Task/Task_BlackBox.c ****                         {
 4033              		.loc 1 922 33 is_stmt 0 view .LVU1108
 4034 044a 9DF82E31 		ldrb	r3, [sp, #302]	@ zero_extendqisi2
 4035 044e DBB2     		uxtb	r3, r3
 922:Task/Task_BlackBox.c ****                         {
 4036              		.loc 1 922 28 view .LVU1109
 4037 0450 022B     		cmp	r3, #2
 4038 0452 3FF450AE 		beq	.L234
 4039              	.L192:
 944:Task/Task_BlackBox.c ****                     {
 4040              		.loc 1 944 21 is_stmt 1 view .LVU1110
 944:Task/Task_BlackBox.c ****                     {
 4041              		.loc 1 944 25 is_stmt 0 view .LVU1111
 4042 0456 229B     		ldr	r3, [sp, #136]
 944:Task/Task_BlackBox.c ****                     {
 4043              		.loc 1 944 24 view .LVU1112
 4044 0458 002B     		cmp	r3, #0
 4045 045a 3FF45EAF 		beq	.L195
 4046              	.LBB15:
 946:Task/Task_BlackBox.c ****                         switch ((uint8_t)header.type)
 4047              		.loc 1 946 25 is_stmt 1 view .LVU1113
 946:Task/Task_BlackBox.c ****                         switch ((uint8_t)header.type)
 4048              		.loc 1 946 34 is_stmt 0 view .LVU1114
 4049 045e 0022     		movs	r2, #0
 4050 0460 0092     		str	r2, [sp]
 947:Task/Task_BlackBox.c ****                         {
 4051              		.loc 1 947 25 is_stmt 1 view .LVU1115
 947:Task/Task_BlackBox.c ****                         {
 4052              		.loc 1 947 48 is_stmt 0 view .LVU1116
 4053 0462 9DF82A21 		ldrb	r2, [sp, #298]	@ zero_extendqisi2
 947:Task/Task_BlackBox.c ****                         {
 4054              		.loc 1 947 25 view .LVU1117
 4055 0466 013A     		subs	r2, r2, #1
 4056 0468 032A     		cmp	r2, #3
 4057 046a 3FF628AE 		bhi	.L180
ARM GAS  C:\Users\8bit\AppData\Local\Temp\cclQGHkl.s 			page 105


 4058 046e 01A1     		adr	r1, .L198
 4059 0470 51F822F0 		ldr	pc, [r1, r2, lsl #2]
 4060              		.p2align 2
 4061              	.L198:
 4062 0474 4B010000 		.word	.L201+1
 4063 0478 E5010000 		.word	.L200+1
 4064 047c 35020000 		.word	.L199+1
 4065 0480 85020000 		.word	.L197+1
 4066              		.p2align 1
 4067              	.L187:
 947:Task/Task_BlackBox.c ****                         {
 4068              		.loc 1 947 25 view .LVU1118
 4069              	.LBE15:
1103:Task/Task_BlackBox.c ****             shellPrint(shell_obj, "[ BlackBox ] read address %d\r\n", addr);
 4070              		.loc 1 1103 13 is_stmt 1 view .LVU1119
 4071 0484 0649     		ldr	r1, .L237+8
 4072 0486 2046     		mov	r0, r4
 4073 0488 FFF7FEFF 		bl	shellPrint
 4074              	.LVL348:
1104:Task/Task_BlackBox.c ****             break;
 4075              		.loc 1 1104 13 view .LVU1120
 4076 048c 3246     		mov	r2, r6
 4077 048e 0549     		ldr	r1, .L237+12
 4078 0490 2046     		mov	r0, r4
 4079 0492 FFF7FEFF 		bl	shellPrint
 4080              	.LVL349:
1105:Task/Task_BlackBox.c ****         }
 4081              		.loc 1 1105 13 view .LVU1121
 4082 0496 12E6     		b	.L180
 4083              	.L238:
 4084              		.align	2
 4085              	.L237:
 4086 0498 0C010000 		.word	.LC36
 4087 049c 2C010000 		.word	.LC37
 4088 04a0 50010000 		.word	.LC38
 4089 04a4 70010000 		.word	.LC39
 4090              	.LBE17:
 4091              		.cfi_endproc
 4092              	.LFE165:
 4094              		.section	.rodata.TaskBlackBox_Init.str1.4,"aMS",%progbits,1
 4095              		.align	2
 4096              	.LC40:
 4097 0000 426C6163 		.ascii	"BlackBox_Queue\000"
 4097      6B426F78 
 4097      5F517565 
 4097      756500
 4098              		.section	.text.TaskBlackBox_Init,"ax",%progbits
 4099              		.align	1
 4100              		.global	TaskBlackBox_Init
 4101              		.syntax unified
 4102              		.thumb
 4103              		.thumb_func
 4105              	TaskBlackBox_Init:
 4106              	.LFB148:
  94:Task/Task_BlackBox.c ****     uint32_t unit = 0;
 4107              		.loc 1 94 1 view -0
 4108              		.cfi_startproc
ARM GAS  C:\Users\8bit\AppData\Local\Temp\cclQGHkl.s 			page 106


 4109              		@ args = 0, pretend = 0, frame = 160
 4110              		@ frame_needed = 0, uses_anonymous_args = 0
 4111 0000 2DE9F043 		push	{r4, r5, r6, r7, r8, r9, lr}
 4112              	.LCFI35:
 4113              		.cfi_def_cfa_offset 28
 4114              		.cfi_offset 4, -28
 4115              		.cfi_offset 5, -24
 4116              		.cfi_offset 6, -20
 4117              		.cfi_offset 7, -16
 4118              		.cfi_offset 8, -12
 4119              		.cfi_offset 9, -8
 4120              		.cfi_offset 14, -4
 4121 0004 B9B0     		sub	sp, sp, #228
 4122              	.LCFI36:
 4123              		.cfi_def_cfa_offset 256
  95:Task/Task_BlackBox.c ****     StorageDevObj_TypeDef StorageDevInfo; 
 4124              		.loc 1 95 5 view .LVU1123
 4125              	.LVL350:
  96:Task/Task_BlackBox.c ****     SrvBlackBox_DevInfo_TypeDef BlackBoxDevInfo;
 4126              		.loc 1 96 5 view .LVU1124
  97:Task/Task_BlackBox.c ****     BlackBox_LogInfo_TypeDef BlackBoxInfo;
 4127              		.loc 1 97 5 view .LVU1125
  98:Task/Task_BlackBox.c ****     /* medium init */
 4128              		.loc 1 98 5 view .LVU1126
 106:Task/Task_BlackBox.c ****     memset(&BlackBoxDevInfo, 0, sizeof(SrvBlackBox_DevInfo_TypeDef));
 4129              		.loc 1 106 5 view .LVU1127
 4130 0006 3422     		movs	r2, #52
 4131 0008 0021     		movs	r1, #0
 4132 000a 2BA8     		add	r0, sp, #172
 4133 000c FFF7FEFF 		bl	memset
 4134              	.LVL351:
 107:Task/Task_BlackBox.c ****     memset(&BlackBoxInfo, 0, sizeof(BlackBox_LogInfo_TypeDef));
 4135              		.loc 1 107 5 view .LVU1128
 4136 0010 0021     		movs	r1, #0
 4137 0012 2791     		str	r1, [sp, #156]
 4138 0014 2891     		str	r1, [sp, #160]
 4139 0016 2991     		str	r1, [sp, #164]
 4140 0018 2A91     		str	r1, [sp, #168]
 108:Task/Task_BlackBox.c ****     memset(&Monitor, 0, sizeof(BlackBox_Monitor_TypeDef));
 4141              		.loc 1 108 5 view .LVU1129
 4142 001a 2591     		str	r1, [sp, #148]
 4143 001c ADF89810 		strh	r1, [sp, #152]	@ movhi
 109:Task/Task_BlackBox.c ****     Monitor.state = BlackBox_Log_Idle;
 4144              		.loc 1 109 5 view .LVU1130
 4145 0020 A34C     		ldr	r4, .L255
 4146 0022 8022     		movs	r2, #128
 4147 0024 2046     		mov	r0, r4
 4148 0026 FFF7FEFF 		bl	memset
 4149              	.LVL352:
 110:Task/Task_BlackBox.c **** 
 4150              		.loc 1 110 5 view .LVU1131
 113:Task/Task_BlackBox.c ****     if (Monitor.storage_search.item_addr == 0)
 4151              		.loc 1 113 5 view .LVU1132
 113:Task/Task_BlackBox.c ****     if (Monitor.storage_search.item_addr == 0)
 4152              		.loc 1 113 37 is_stmt 0 view .LVU1133
 4153 002a A24B     		ldr	r3, .L255+4
 4154 002c 5B68     		ldr	r3, [r3, #4]
ARM GAS  C:\Users\8bit\AppData\Local\Temp\cclQGHkl.s 			page 107


 113:Task/Task_BlackBox.c ****     if (Monitor.storage_search.item_addr == 0)
 4155              		.loc 1 113 30 view .LVU1134
 4156 002e A24A     		ldr	r2, .L255+8
 4157 0030 0221     		movs	r1, #2
 4158 0032 10A8     		add	r0, sp, #64
 4159 0034 9847     		blx	r3
 4160              	.LVL353:
 4161 0036 4522     		movs	r2, #69
 4162 0038 10A9     		add	r1, sp, #64
 4163 003a A01C     		adds	r0, r4, #2
 4164 003c FFF7FEFF 		bl	memcpy
 4165              	.LVL354:
 114:Task/Task_BlackBox.c ****     {
 4166              		.loc 1 114 5 is_stmt 1 view .LVU1135
 114:Task/Task_BlackBox.c ****     {
 4167              		.loc 1 114 31 is_stmt 0 view .LVU1136
 4168 0040 D4F80230 		ldr	r3, [r4, #2]	@ unaligned
 114:Task/Task_BlackBox.c ****     {
 4169              		.loc 1 114 8 view .LVU1137
 4170 0044 63BB     		cbnz	r3, .L240
 116:Task/Task_BlackBox.c ****         BlackBoxInfo.medium = BlackBox_Medium_None;
 4171              		.loc 1 116 9 is_stmt 1 view .LVU1138
 116:Task/Task_BlackBox.c ****         BlackBoxInfo.medium = BlackBox_Medium_None;
 4172              		.loc 1 116 31 is_stmt 0 view .LVU1139
 4173 0046 ADF89630 		strh	r3, [sp, #150]	@ movhi
 4174 004a ADF89830 		strh	r3, [sp, #152]	@ movhi
 117:Task/Task_BlackBox.c ****         BlackBoxInfo.log_type = BlackBox_Log_None;
 4175              		.loc 1 117 9 is_stmt 1 view .LVU1140
 117:Task/Task_BlackBox.c ****         BlackBoxInfo.log_type = BlackBox_Log_None;
 4176              		.loc 1 117 29 is_stmt 0 view .LVU1141
 4177 004e 8DF89430 		strb	r3, [sp, #148]
 118:Task/Task_BlackBox.c ****         if (Storage.create(Para_User, BlackBox_Storage_Name, (uint8_t *)&BlackBoxInfo, sizeof(Black
 4178              		.loc 1 118 9 is_stmt 1 view .LVU1142
 118:Task/Task_BlackBox.c ****         if (Storage.create(Para_User, BlackBox_Storage_Name, (uint8_t *)&BlackBoxInfo, sizeof(Black
 4179              		.loc 1 118 31 is_stmt 0 view .LVU1143
 4180 0052 8DF89530 		strb	r3, [sp, #149]
 119:Task/Task_BlackBox.c ****             return;
 4181              		.loc 1 119 9 is_stmt 1 view .LVU1144
 119:Task/Task_BlackBox.c ****             return;
 4182              		.loc 1 119 20 is_stmt 0 view .LVU1145
 4183 0056 974B     		ldr	r3, .L255+4
 4184 0058 9C68     		ldr	r4, [r3, #8]
 119:Task/Task_BlackBox.c ****             return;
 4185              		.loc 1 119 13 view .LVU1146
 4186 005a 0623     		movs	r3, #6
 4187 005c 25AA     		add	r2, sp, #148
 4188 005e 9649     		ldr	r1, .L255+8
 4189 0060 0220     		movs	r0, #2
 4190 0062 A047     		blx	r4
 4191              	.LVL355:
 119:Task/Task_BlackBox.c ****             return;
 4192              		.loc 1 119 12 view .LVU1147
 4193 0064 C8B9     		cbnz	r0, .L239
 4194              	.L242:
 132:Task/Task_BlackBox.c ****     Storage.get_dev_info(&StorageDevInfo);
 4195              		.loc 1 132 5 is_stmt 1 view .LVU1148
 132:Task/Task_BlackBox.c ****     Storage.get_dev_info(&StorageDevInfo);
ARM GAS  C:\Users\8bit\AppData\Local\Temp\cclQGHkl.s 			page 108


 4196              		.loc 1 132 32 is_stmt 0 view .LVU1149
 4197 0066 924C     		ldr	r4, .L255
 4198 0068 0023     		movs	r3, #0
 4199 006a 6370     		strb	r3, [r4, #1]
 133:Task/Task_BlackBox.c ****     BlackBoxDevInfo.phy_start_addr = BlackBox_Storage_Start_Addr;
 4200              		.loc 1 133 5 is_stmt 1 view .LVU1150
 133:Task/Task_BlackBox.c ****     BlackBoxDevInfo.phy_start_addr = BlackBox_Storage_Start_Addr;
 4201              		.loc 1 133 12 is_stmt 0 view .LVU1151
 4202 006c 914B     		ldr	r3, .L255+4
 4203 006e 5B69     		ldr	r3, [r3, #20]
 133:Task/Task_BlackBox.c ****     BlackBoxDevInfo.phy_start_addr = BlackBox_Storage_Start_Addr;
 4204              		.loc 1 133 5 view .LVU1152
 4205 0070 2BA8     		add	r0, sp, #172
 4206 0072 9847     		blx	r3
 4207              	.LVL356:
 134:Task/Task_BlackBox.c ****     BlackBoxDevInfo.str_start_addr = StorageDevInfo.start_addr;
 4208              		.loc 1 134 5 is_stmt 1 view .LVU1153
 134:Task/Task_BlackBox.c ****     BlackBoxDevInfo.str_start_addr = StorageDevInfo.start_addr;
 4209              		.loc 1 134 36 is_stmt 0 view .LVU1154
 4210 0074 4FF45013 		mov	r3, #3407872
 4211 0078 2793     		str	r3, [sp, #156]
 135:Task/Task_BlackBox.c ****     BlackBoxDevInfo.total_str_size = StorageDevInfo.total_size;
 4212              		.loc 1 135 5 is_stmt 1 view .LVU1155
 135:Task/Task_BlackBox.c ****     BlackBoxDevInfo.total_str_size = StorageDevInfo.total_size;
 4213              		.loc 1 135 52 is_stmt 0 view .LVU1156
 4214 007a 2C9B     		ldr	r3, [sp, #176]
 135:Task/Task_BlackBox.c ****     BlackBoxDevInfo.total_str_size = StorageDevInfo.total_size;
 4215              		.loc 1 135 36 view .LVU1157
 4216 007c 2893     		str	r3, [sp, #160]
 136:Task/Task_BlackBox.c ****     BlackBoxDevInfo.sector_size = StorageDevInfo.sector_size;
 4217              		.loc 1 136 5 is_stmt 1 view .LVU1158
 136:Task/Task_BlackBox.c ****     BlackBoxDevInfo.sector_size = StorageDevInfo.sector_size;
 4218              		.loc 1 136 52 is_stmt 0 view .LVU1159
 4219 007e 2D9B     		ldr	r3, [sp, #180]
 136:Task/Task_BlackBox.c ****     BlackBoxDevInfo.sector_size = StorageDevInfo.sector_size;
 4220              		.loc 1 136 36 view .LVU1160
 4221 0080 2993     		str	r3, [sp, #164]
 137:Task/Task_BlackBox.c ****     switch ((uint8_t)Monitor.medium)
 4222              		.loc 1 137 5 is_stmt 1 view .LVU1161
 137:Task/Task_BlackBox.c ****     switch ((uint8_t)Monitor.medium)
 4223              		.loc 1 137 49 is_stmt 0 view .LVU1162
 4224 0082 359B     		ldr	r3, [sp, #212]
 137:Task/Task_BlackBox.c ****     switch ((uint8_t)Monitor.medium)
 4225              		.loc 1 137 33 view .LVU1163
 4226 0084 2A93     		str	r3, [sp, #168]
 138:Task/Task_BlackBox.c ****     {
 4227              		.loc 1 138 5 is_stmt 1 view .LVU1164
 138:Task/Task_BlackBox.c ****     {
 4228              		.loc 1 138 29 is_stmt 0 view .LVU1165
 4229 0086 94F84730 		ldrb	r3, [r4, #71]	@ zero_extendqisi2
 138:Task/Task_BlackBox.c ****     {
 4230              		.loc 1 138 5 view .LVU1166
 4231 008a 022B     		cmp	r3, #2
 4232 008c 00F0F080 		beq	.L244
 4233 0090 032B     		cmp	r3, #3
 4234 0092 3ED0     		beq	.L245
 4235 0094 012B     		cmp	r3, #1
ARM GAS  C:\Users\8bit\AppData\Local\Temp\cclQGHkl.s 			page 109


 4236 0096 00F0F780 		beq	.L252
 4237              	.LVL357:
 4238              	.L239:
 234:Task/Task_BlackBox.c **** 
 4239              		.loc 1 234 1 view .LVU1167
 4240 009a 39B0     		add	sp, sp, #228
 4241              	.LCFI37:
 4242              		.cfi_remember_state
 4243              		.cfi_def_cfa_offset 28
 4244              		@ sp needed
 4245 009c BDE8F083 		pop	{r4, r5, r6, r7, r8, r9, pc}
 4246              	.LVL358:
 4247              	.L240:
 4248              	.LCFI38:
 4249              		.cfi_restore_state
 124:Task/Task_BlackBox.c ****             return;
 4250              		.loc 1 124 9 is_stmt 1 view .LVU1168
 124:Task/Task_BlackBox.c ****             return;
 4251              		.loc 1 124 20 is_stmt 0 view .LVU1169
 4252 00a0 844B     		ldr	r3, .L255+4
 4253 00a2 1E69     		ldr	r6, [r3, #16]
 124:Task/Task_BlackBox.c ****             return;
 4254              		.loc 1 124 13 view .LVU1170
 4255 00a4 824C     		ldr	r4, .L255
 4256 00a6 0622     		movs	r2, #6
 4257 00a8 0E92     		str	r2, [sp, #56]
 4258 00aa 25AA     		add	r2, sp, #148
 4259 00ac 0D92     		str	r2, [sp, #52]
 4260 00ae D4F80790 		ldr	r9, [r4, #7]	@ unaligned
 4261 00b2 D4F80B80 		ldr	r8, [r4, #11]	@ unaligned
 4262 00b6 D4F80F70 		ldr	r7, [r4, #15]	@ unaligned
 4263 00ba 04F1130C 		add	ip, r4, #19
 4264 00be 6D46     		mov	r5, sp
 4265 00c0 4334     		adds	r4, r4, #67
 4266              	.L243:
 4267 00c2 AE46     		mov	lr, r5
 4268 00c4 DCF80000 		ldr	r0, [ip]	@ unaligned
 4269 00c8 DCF80410 		ldr	r1, [ip, #4]	@ unaligned
 4270 00cc DCF80820 		ldr	r2, [ip, #8]	@ unaligned
 4271 00d0 DCF80C30 		ldr	r3, [ip, #12]	@ unaligned
 4272 00d4 AEE80F00 		stmia	lr!, {r0, r1, r2, r3}
 4273 00d8 0CF1100C 		add	ip, ip, #16
 4274 00dc 7546     		mov	r5, lr
 4275 00de A445     		cmp	ip, r4
 4276 00e0 EFD1     		bne	.L243
 4277 00e2 DCF80000 		ldr	r0, [ip]	@ unaligned
 4278 00e6 CEF80000 		str	r0, [lr]
 4279 00ea 4946     		mov	r1, r9
 4280 00ec 4246     		mov	r2, r8
 4281 00ee 3B46     		mov	r3, r7
 4282 00f0 0220     		movs	r0, #2
 4283 00f2 B047     		blx	r6
 4284              	.LVL359:
 124:Task/Task_BlackBox.c ****             return;
 4285              		.loc 1 124 12 view .LVU1171
 4286 00f4 0028     		cmp	r0, #0
 4287 00f6 D0D1     		bne	.L239
ARM GAS  C:\Users\8bit\AppData\Local\Temp\cclQGHkl.s 			page 110


 127:Task/Task_BlackBox.c ****         Monitor.log_type = BlackBoxInfo.log_type;
 4288              		.loc 1 127 9 is_stmt 1 view .LVU1172
 127:Task/Task_BlackBox.c ****         Monitor.log_type = BlackBoxInfo.log_type;
 4289              		.loc 1 127 38 is_stmt 0 view .LVU1173
 4290 00f8 9DF89420 		ldrb	r2, [sp, #148]	@ zero_extendqisi2
 127:Task/Task_BlackBox.c ****         Monitor.log_type = BlackBoxInfo.log_type;
 4291              		.loc 1 127 24 view .LVU1174
 4292 00fc 6C4B     		ldr	r3, .L255
 4293 00fe 83F84720 		strb	r2, [r3, #71]
 128:Task/Task_BlackBox.c ****         Monitor.expection_log_size = BlackBoxInfo.log_size;
 4294              		.loc 1 128 9 is_stmt 1 view .LVU1175
 128:Task/Task_BlackBox.c ****         Monitor.expection_log_size = BlackBoxInfo.log_size;
 4295              		.loc 1 128 40 is_stmt 0 view .LVU1176
 4296 0102 9DF89520 		ldrb	r2, [sp, #149]	@ zero_extendqisi2
 128:Task/Task_BlackBox.c ****         Monitor.expection_log_size = BlackBoxInfo.log_size;
 4297              		.loc 1 128 26 view .LVU1177
 4298 0106 83F84820 		strb	r2, [r3, #72]
 129:Task/Task_BlackBox.c ****     }
 4299              		.loc 1 129 9 is_stmt 1 view .LVU1178
 129:Task/Task_BlackBox.c ****     }
 4300              		.loc 1 129 50 is_stmt 0 view .LVU1179
 4301 010a DDF89620 		ldr	r2, [sp, #150]	@ unaligned
 129:Task/Task_BlackBox.c ****     }
 4302              		.loc 1 129 36 view .LVU1180
 4303 010e DA64     		str	r2, [r3, #76]
 4304 0110 A9E7     		b	.L242
 4305              	.L245:
 141:Task/Task_BlackBox.c ****             p_blackbox = &SrvPort_BlackBox;
 4306              		.loc 1 141 13 is_stmt 1 view .LVU1181
 141:Task/Task_BlackBox.c ****             p_blackbox = &SrvPort_BlackBox;
 4307              		.loc 1 141 36 is_stmt 0 view .LVU1182
 4308 0112 6A4D     		ldr	r5, .L255+12
 4309 0114 2C68     		ldr	r4, [r5]
 141:Task/Task_BlackBox.c ****             p_blackbox = &SrvPort_BlackBox;
 4310              		.loc 1 141 20 view .LVU1183
 4311 0116 2A9B     		ldr	r3, [sp, #168]
 4312 0118 0093     		str	r3, [sp]
 4313 011a 27AB     		add	r3, sp, #156
 4314 011c 0ECB     		ldm	r3, {r1, r2, r3}
 4315 011e 6848     		ldr	r0, .L255+16
 4316 0120 A047     		blx	r4
 4317              	.LVL360:
 4318 0122 0446     		mov	r4, r0
 4319              	.LVL361:
 142:Task/Task_BlackBox.c ****             break;
 4320              		.loc 1 142 13 is_stmt 1 view .LVU1184
 142:Task/Task_BlackBox.c ****             break;
 4321              		.loc 1 142 24 is_stmt 0 view .LVU1185
 4322 0124 674B     		ldr	r3, .L255+20
 4323 0126 1D60     		str	r5, [r3]
 143:Task/Task_BlackBox.c **** 
 4324              		.loc 1 143 13 is_stmt 1 view .LVU1186
 4325              	.L247:
 158:Task/Task_BlackBox.c ****     {
 4326              		.loc 1 158 5 view .LVU1187
 158:Task/Task_BlackBox.c ****     {
 4327              		.loc 1 158 8 is_stmt 0 view .LVU1188
ARM GAS  C:\Users\8bit\AppData\Local\Temp\cclQGHkl.s 			page 111


 4328 0128 002C     		cmp	r4, #0
 4329 012a 00F0B980 		beq	.L253
 164:Task/Task_BlackBox.c ****     {
 4330              		.loc 1 164 5 is_stmt 1 view .LVU1189
 164:Task/Task_BlackBox.c ****     {
 4331              		.loc 1 164 30 is_stmt 0 view .LVU1190
 4332 012e 604B     		ldr	r3, .L255
 4333 0130 93F84830 		ldrb	r3, [r3, #72]	@ zero_extendqisi2
 164:Task/Task_BlackBox.c ****     {
 4334              		.loc 1 164 5 view .LVU1191
 4335 0134 013B     		subs	r3, r3, #1
 4336 0136 032B     		cmp	r3, #3
 4337 0138 AFD8     		bhi	.L239
 170:Task/Task_BlackBox.c **** 
 4338              		.loc 1 170 13 is_stmt 1 view .LVU1192
 176:Task/Task_BlackBox.c ****     if (Monitor.p_log_buf == NULL)
 4339              		.loc 1 176 5 view .LVU1193
 176:Task/Task_BlackBox.c ****     if (Monitor.p_log_buf == NULL)
 4340              		.loc 1 176 36 is_stmt 0 view .LVU1194
 4341 013a 634B     		ldr	r3, .L255+24
 4342 013c DB6A     		ldr	r3, [r3, #44]
 176:Task/Task_BlackBox.c ****     if (Monitor.p_log_buf == NULL)
 4343              		.loc 1 176 25 view .LVU1195
 4344 013e 2046     		mov	r0, r4
 176:Task/Task_BlackBox.c ****     if (Monitor.p_log_buf == NULL)
 4345              		.loc 1 176 25 view .LVU1196
 4346 0140 9847     		blx	r3
 4347              	.LVL362:
 176:Task/Task_BlackBox.c ****     if (Monitor.p_log_buf == NULL)
 4348              		.loc 1 176 23 view .LVU1197
 4349 0142 5B4B     		ldr	r3, .L255
 4350 0144 5865     		str	r0, [r3, #84]
 177:Task/Task_BlackBox.c ****     {
 4351              		.loc 1 177 5 is_stmt 1 view .LVU1198
 177:Task/Task_BlackBox.c ****     {
 4352              		.loc 1 177 8 is_stmt 0 view .LVU1199
 4353 0146 0028     		cmp	r0, #0
 4354 0148 00F0AE80 		beq	.L254
 183:Task/Task_BlackBox.c ****     memset(&IMU_Log_DataPipe,      0, sizeof(DataPipeObj_TypeDef));
 4355              		.loc 1 183 5 is_stmt 1 view .LVU1200
 183:Task/Task_BlackBox.c ****     memset(&IMU_Log_DataPipe,      0, sizeof(DataPipeObj_TypeDef));
 4356              		.loc 1 183 22 is_stmt 0 view .LVU1201
 4357 014c 584B     		ldr	r3, .L255
 4358 014e 1C65     		str	r4, [r3, #80]
 184:Task/Task_BlackBox.c ****     memset(&Baro_Log_DataPipe,     0, sizeof(DataPipeObj_TypeDef));
 4359              		.loc 1 184 5 is_stmt 1 view .LVU1202
 4360 0150 2724     		movs	r4, #39
 4361              	.LVL363:
 184:Task/Task_BlackBox.c ****     memset(&Baro_Log_DataPipe,     0, sizeof(DataPipeObj_TypeDef));
 4362              		.loc 1 184 5 is_stmt 0 view .LVU1203
 4363 0152 2246     		mov	r2, r4
 4364 0154 0021     		movs	r1, #0
 4365 0156 5D48     		ldr	r0, .L255+28
 4366 0158 FFF7FEFF 		bl	memset
 4367              	.LVL364:
 185:Task/Task_BlackBox.c ****     memset(&Attitude_Log_DataPipe, 0, sizeof(DataPipeObj_TypeDef));
 4368              		.loc 1 185 5 is_stmt 1 view .LVU1204
ARM GAS  C:\Users\8bit\AppData\Local\Temp\cclQGHkl.s 			page 112


 4369 015c 2246     		mov	r2, r4
 4370 015e 0021     		movs	r1, #0
 4371 0160 5B48     		ldr	r0, .L255+32
 4372 0162 FFF7FEFF 		bl	memset
 4373              	.LVL365:
 186:Task/Task_BlackBox.c ****     memset(&Altitude_Log_DataPipe, 0, sizeof(DataPipeObj_TypeDef));
 4374              		.loc 1 186 5 view .LVU1205
 4375 0166 2246     		mov	r2, r4
 4376 0168 0021     		movs	r1, #0
 4377 016a 5A48     		ldr	r0, .L255+36
 4378 016c FFF7FEFF 		bl	memset
 4379              	.LVL366:
 187:Task/Task_BlackBox.c ****     memset(&CtlData_Log_DataPipe,  0, sizeof(DataPipeObj_TypeDef));
 4380              		.loc 1 187 5 view .LVU1206
 4381 0170 2246     		mov	r2, r4
 4382 0172 0021     		movs	r1, #0
 4383 0174 5848     		ldr	r0, .L255+40
 4384 0176 FFF7FEFF 		bl	memset
 4385              	.LVL367:
 188:Task/Task_BlackBox.c **** 
 4386              		.loc 1 188 5 view .LVU1207
 4387 017a 2246     		mov	r2, r4
 4388 017c 0021     		movs	r1, #0
 4389 017e 5748     		ldr	r0, .L255+44
 4390 0180 FFF7FEFF 		bl	memset
 4391              	.LVL368:
 190:Task/Task_BlackBox.c ****     memset(DataPipe_DataObjAddr(LogBaro_Data), 0, DataPipe_DataSize(LogBaro_Data));
 4392              		.loc 1 190 5 view .LVU1208
 4393 0184 564D     		ldr	r5, .L255+48
 4394 0186 5422     		movs	r2, #84
 4395 0188 0021     		movs	r1, #0
 4396 018a 2846     		mov	r0, r5
 4397 018c FFF7FEFF 		bl	memset
 4398              	.LVL369:
 191:Task/Task_BlackBox.c ****     memset(DataPipe_DataObjAddr(LogAtt_Data),  0, DataPipe_DataSize(LogAtt_Data));
 4399              		.loc 1 191 5 view .LVU1209
 4400 0190 0024     		movs	r4, #0
 4401 0192 6C65     		str	r4, [r5, #84]
 4402 0194 AC65     		str	r4, [r5, #88]
 4403 0196 EC65     		str	r4, [r5, #92]
 4404 0198 2C66     		str	r4, [r5, #96]
 4405 019a 6C66     		str	r4, [r5, #100]
 4406 019c AC66     		str	r4, [r5, #104]
 4407 019e EC66     		str	r4, [r5, #108]
 192:Task/Task_BlackBox.c ****     memset(DataPipe_DataObjAddr(LogAlt_Data),  0, DataPipe_DataSize(LogAlt_Data));
 4408              		.loc 1 192 5 view .LVU1210
 4409 01a0 2222     		movs	r2, #34
 4410 01a2 2146     		mov	r1, r4
 4411 01a4 05F17000 		add	r0, r5, #112
 4412 01a8 FFF7FEFF 		bl	memset
 4413              	.LVL370:
 193:Task/Task_BlackBox.c ****     memset(DataPipe_DataObjAddr(LogCtl_Data),  0, DataPipe_DataSize(LogCtl_Data));
 4414              		.loc 1 193 5 view .LVU1211
 4415 01ac C5F89440 		str	r4, [r5, #148]
 4416 01b0 C5F89840 		str	r4, [r5, #152]
 194:Task/Task_BlackBox.c **** 
 4417              		.loc 1 194 5 view .LVU1212
ARM GAS  C:\Users\8bit\AppData\Local\Temp\cclQGHkl.s 			page 113


 4418 01b4 C5F89C40 		str	r4, [r5, #156]
 4419 01b8 C5F8A040 		str	r4, [r5, #160]
 4420 01bc C5F8A440 		str	r4, [r5, #164]
 4421 01c0 C5F8A840 		str	r4, [r5, #168]
 4422 01c4 C5F8AC40 		str	r4, [r5, #172]
 4423 01c8 C5F8B040 		str	r4, [r5, #176]
 4424 01cc C5F8B440 		str	r4, [r5, #180]
 196:Task/Task_BlackBox.c ****         return;
 4425              		.loc 1 196 5 view .LVU1213
 196:Task/Task_BlackBox.c ****         return;
 4426              		.loc 1 196 15 is_stmt 0 view .LVU1214
 4427 01d0 444B     		ldr	r3, .L255+52
 4428 01d2 DC68     		ldr	r4, [r3, #12]
 196:Task/Task_BlackBox.c ****         return;
 4429              		.loc 1 196 10 view .LVU1215
 4430 01d4 4FF40053 		mov	r3, #8192
 4431 01d8 434A     		ldr	r2, .L255+56
 4432 01da 4449     		ldr	r1, .L255+60
 4433 01dc 4448     		ldr	r0, .L255+64
 4434 01de A047     		blx	r4
 4435              	.LVL371:
 196:Task/Task_BlackBox.c ****         return;
 4436              		.loc 1 196 8 view .LVU1216
 4437 01e0 0028     		cmp	r0, #0
 4438 01e2 3FF45AAF 		beq	.L239
 199:Task/Task_BlackBox.c ****     BlackBox_Sem = osSemaphoreCreate(osSemaphore(Log), 32);
 4439              		.loc 1 199 5 is_stmt 1 view .LVU1217
 4440 01e6 0023     		movs	r3, #0
 4441 01e8 2393     		str	r3, [sp, #140]
 4442 01ea 2493     		str	r3, [sp, #144]
 200:Task/Task_BlackBox.c **** 
 4443              		.loc 1 200 5 view .LVU1218
 200:Task/Task_BlackBox.c **** 
 4444              		.loc 1 200 20 is_stmt 0 view .LVU1219
 4445 01ec 2021     		movs	r1, #32
 4446 01ee 23A8     		add	r0, sp, #140
 4447 01f0 FFF7FEFF 		bl	osSemaphoreCreate
 4448              	.LVL372:
 200:Task/Task_BlackBox.c **** 
 4449              		.loc 1 200 18 view .LVU1220
 4450 01f4 3F4B     		ldr	r3, .L255+68
 4451 01f6 1860     		str	r0, [r3]
 202:Task/Task_BlackBox.c ****         return;
 4452              		.loc 1 202 5 is_stmt 1 view .LVU1221
 202:Task/Task_BlackBox.c ****         return;
 4453              		.loc 1 202 8 is_stmt 0 view .LVU1222
 4454 01f8 0028     		cmp	r0, #0
 4455 01fa 3FF44EAF 		beq	.L239
 206:Task/Task_BlackBox.c ****     IMU_Log_DataPipe.data_size = DataPipe_DataSize(LogImu_Data);
 4456              		.loc 1 206 5 is_stmt 1 view .LVU1223
 206:Task/Task_BlackBox.c ****     IMU_Log_DataPipe.data_size = DataPipe_DataSize(LogImu_Data);
 4457              		.loc 1 206 34 is_stmt 0 view .LVU1224
 4458 01fe 2B46     		mov	r3, r5
 206:Task/Task_BlackBox.c ****     IMU_Log_DataPipe.data_size = DataPipe_DataSize(LogImu_Data);
 4459              		.loc 1 206 32 view .LVU1225
 4460 0200 324E     		ldr	r6, .L255+28
 4461 0202 C6F80D50 		str	r5, [r6, #13]	@ unaligned
ARM GAS  C:\Users\8bit\AppData\Local\Temp\cclQGHkl.s 			page 114


 207:Task/Task_BlackBox.c ****     IMU_Log_DataPipe.trans_finish_cb = (Pipe_TransFinish_Callback)TaskBlackBox_PipeTransFinish_Call
 4462              		.loc 1 207 5 is_stmt 1 view .LVU1226
 207:Task/Task_BlackBox.c ****     IMU_Log_DataPipe.trans_finish_cb = (Pipe_TransFinish_Callback)TaskBlackBox_PipeTransFinish_Call
 4463              		.loc 1 207 32 is_stmt 0 view .LVU1227
 4464 0206 0022     		movs	r2, #0
 4465 0208 5421     		movs	r1, #84
 4466 020a 7174     		strb	r1, [r6, #17]
 4467 020c B274     		strb	r2, [r6, #18]
 208:Task/Task_BlackBox.c ****     
 4468              		.loc 1 208 5 is_stmt 1 view .LVU1228
 208:Task/Task_BlackBox.c ****     
 4469              		.loc 1 208 38 is_stmt 0 view .LVU1229
 4470 020e 3A4F     		ldr	r7, .L255+72
 4471 0210 C6F81370 		str	r7, [r6, #19]	@ unaligned
 210:Task/Task_BlackBox.c ****     Baro_Log_DataPipe.data_size = DataPipe_DataSize(LogBaro_Data);
 4472              		.loc 1 210 5 is_stmt 1 view .LVU1230
 210:Task/Task_BlackBox.c ****     Baro_Log_DataPipe.data_size = DataPipe_DataSize(LogBaro_Data);
 4473              		.loc 1 210 35 is_stmt 0 view .LVU1231
 4474 0214 6918     		adds	r1, r5, r1
 210:Task/Task_BlackBox.c ****     Baro_Log_DataPipe.data_size = DataPipe_DataSize(LogBaro_Data);
 4475              		.loc 1 210 33 view .LVU1232
 4476 0216 2E4D     		ldr	r5, .L255+32
 4477 0218 C5F80D10 		str	r1, [r5, #13]	@ unaligned
 211:Task/Task_BlackBox.c ****     Baro_Log_DataPipe.trans_finish_cb = (Pipe_TransFinish_Callback)TaskBlackBox_PipeTransFinish_Cal
 4478              		.loc 1 211 5 is_stmt 1 view .LVU1233
 211:Task/Task_BlackBox.c ****     Baro_Log_DataPipe.trans_finish_cb = (Pipe_TransFinish_Callback)TaskBlackBox_PipeTransFinish_Cal
 4479              		.loc 1 211 33 is_stmt 0 view .LVU1234
 4480 021c 1C21     		movs	r1, #28
 4481 021e 6974     		strb	r1, [r5, #17]
 4482 0220 AA74     		strb	r2, [r5, #18]
 212:Task/Task_BlackBox.c **** 
 4483              		.loc 1 212 5 is_stmt 1 view .LVU1235
 212:Task/Task_BlackBox.c **** 
 4484              		.loc 1 212 39 is_stmt 0 view .LVU1236
 4485 0222 C5F81370 		str	r7, [r5, #19]	@ unaligned
 214:Task/Task_BlackBox.c ****     CtlData_Log_DataPipe.data_size = DataPipe_DataSize(LogCtl_Data);
 4486              		.loc 1 214 5 is_stmt 1 view .LVU1237
 214:Task/Task_BlackBox.c ****     CtlData_Log_DataPipe.data_size = DataPipe_DataSize(LogCtl_Data);
 4487              		.loc 1 214 38 is_stmt 0 view .LVU1238
 4488 0226 03F19C00 		add	r0, r3, #156
 214:Task/Task_BlackBox.c ****     CtlData_Log_DataPipe.data_size = DataPipe_DataSize(LogCtl_Data);
 4489              		.loc 1 214 36 view .LVU1239
 4490 022a 2C4C     		ldr	r4, .L255+44
 4491 022c C4F80D00 		str	r0, [r4, #13]	@ unaligned
 215:Task/Task_BlackBox.c ****     CtlData_Log_DataPipe.trans_finish_cb = (Pipe_TransFinish_Callback)TaskBlackBox_PipeTransFinish_
 4492              		.loc 1 215 5 is_stmt 1 view .LVU1240
 215:Task/Task_BlackBox.c ****     CtlData_Log_DataPipe.trans_finish_cb = (Pipe_TransFinish_Callback)TaskBlackBox_PipeTransFinish_
 4493              		.loc 1 215 36 is_stmt 0 view .LVU1241
 4494 0230 6174     		strb	r1, [r4, #17]
 4495 0232 A274     		strb	r2, [r4, #18]
 216:Task/Task_BlackBox.c **** 
 4496              		.loc 1 216 5 is_stmt 1 view .LVU1242
 216:Task/Task_BlackBox.c **** 
 4497              		.loc 1 216 42 is_stmt 0 view .LVU1243
 4498 0234 C4F81370 		str	r7, [r4, #19]	@ unaligned
 218:Task/Task_BlackBox.c ****     Attitude_Log_DataPipe.data_size = DataPipe_DataSize(LogAtt_Data);
 4499              		.loc 1 218 5 is_stmt 1 view .LVU1244
ARM GAS  C:\Users\8bit\AppData\Local\Temp\cclQGHkl.s 			page 115


 218:Task/Task_BlackBox.c ****     Attitude_Log_DataPipe.data_size = DataPipe_DataSize(LogAtt_Data);
 4500              		.loc 1 218 39 is_stmt 0 view .LVU1245
 4501 0238 03F17001 		add	r1, r3, #112
 218:Task/Task_BlackBox.c ****     Attitude_Log_DataPipe.data_size = DataPipe_DataSize(LogAtt_Data);
 4502              		.loc 1 218 37 view .LVU1246
 4503 023c 2548     		ldr	r0, .L255+36
 4504 023e C0F80D10 		str	r1, [r0, #13]	@ unaligned
 219:Task/Task_BlackBox.c ****     Attitude_Log_DataPipe.trans_finish_cb = (Pipe_TransFinish_Callback)TaskBlackBox_PipeTransFinish
 4505              		.loc 1 219 5 is_stmt 1 view .LVU1247
 219:Task/Task_BlackBox.c ****     Attitude_Log_DataPipe.trans_finish_cb = (Pipe_TransFinish_Callback)TaskBlackBox_PipeTransFinish
 4506              		.loc 1 219 37 is_stmt 0 view .LVU1248
 4507 0242 2221     		movs	r1, #34
 4508 0244 4174     		strb	r1, [r0, #17]
 4509 0246 8274     		strb	r2, [r0, #18]
 220:Task/Task_BlackBox.c **** 
 4510              		.loc 1 220 5 is_stmt 1 view .LVU1249
 220:Task/Task_BlackBox.c **** 
 4511              		.loc 1 220 43 is_stmt 0 view .LVU1250
 4512 0248 C0F81370 		str	r7, [r0, #19]	@ unaligned
 222:Task/Task_BlackBox.c ****     Altitude_Log_DataPipe.data_size = DataPipe_DataSize(LogAlt_Data);
 4513              		.loc 1 222 5 is_stmt 1 view .LVU1251
 222:Task/Task_BlackBox.c ****     Altitude_Log_DataPipe.data_size = DataPipe_DataSize(LogAlt_Data);
 4514              		.loc 1 222 39 is_stmt 0 view .LVU1252
 4515 024c 9433     		adds	r3, r3, #148
 222:Task/Task_BlackBox.c ****     Altitude_Log_DataPipe.data_size = DataPipe_DataSize(LogAlt_Data);
 4516              		.loc 1 222 37 view .LVU1253
 4517 024e 2249     		ldr	r1, .L255+40
 4518 0250 C1F80D30 		str	r3, [r1, #13]	@ unaligned
 223:Task/Task_BlackBox.c ****     Altitude_Log_DataPipe.trans_finish_cb = (Pipe_TransFinish_Callback)TaskBlackBox_PipeTransFinish
 4519              		.loc 1 223 5 is_stmt 1 view .LVU1254
 223:Task/Task_BlackBox.c ****     Altitude_Log_DataPipe.trans_finish_cb = (Pipe_TransFinish_Callback)TaskBlackBox_PipeTransFinish
 4520              		.loc 1 223 37 is_stmt 0 view .LVU1255
 4521 0254 0823     		movs	r3, #8
 4522 0256 4B74     		strb	r3, [r1, #17]
 4523 0258 8A74     		strb	r2, [r1, #18]
 224:Task/Task_BlackBox.c **** 
 4524              		.loc 1 224 5 is_stmt 1 view .LVU1256
 224:Task/Task_BlackBox.c **** 
 4525              		.loc 1 224 43 is_stmt 0 view .LVU1257
 4526 025a C1F81370 		str	r7, [r1, #19]	@ unaligned
 226:Task/Task_BlackBox.c ****     DataPipe_Enable(&Baro_Log_DataPipe);
 4527              		.loc 1 226 5 is_stmt 1 view .LVU1258
 4528              	.LVL373:
 4529              	.LBB18:
 4530              	.LBI18:
 4531              		.file 2 "System/FreeRTOS/../DataPipe/DataPipe.h"
   1:System/FreeRTOS/../DataPipe/DataPipe.h **** #ifndef __DATAPIPE_H
   2:System/FreeRTOS/../DataPipe/DataPipe.h **** #define __DATAPIPE_H
   3:System/FreeRTOS/../DataPipe/DataPipe.h **** 
   4:System/FreeRTOS/../DataPipe/DataPipe.h **** #ifdef __cplusplus
   5:System/FreeRTOS/../DataPipe/DataPipe.h **** extern "C" {
   6:System/FreeRTOS/../DataPipe/DataPipe.h **** #endif
   7:System/FreeRTOS/../DataPipe/DataPipe.h **** 
   8:System/FreeRTOS/../DataPipe/DataPipe.h **** #include <stdint.h>
   9:System/FreeRTOS/../DataPipe/DataPipe.h **** #include <string.h>
  10:System/FreeRTOS/../DataPipe/DataPipe.h **** #include <stdbool.h>
  11:System/FreeRTOS/../DataPipe/DataPipe.h **** #include "../../FCHW_Config.h"
ARM GAS  C:\Users\8bit\AppData\Local\Temp\cclQGHkl.s 			page 116


  12:System/FreeRTOS/../DataPipe/DataPipe.h **** 
  13:System/FreeRTOS/../DataPipe/DataPipe.h **** typedef void (*Pipe_TransFinish_Callback)(void *pipe_obj);
  14:System/FreeRTOS/../DataPipe/DataPipe.h **** typedef void (*Pipe_TransError_Callback)(void *pipe_obj);
  15:System/FreeRTOS/../DataPipe/DataPipe.h **** typedef void (*Pipe_TimeOutProc_Callback)(void *pipe_obj);
  16:System/FreeRTOS/../DataPipe/DataPipe.h **** 
  17:System/FreeRTOS/../DataPipe/DataPipe.h **** #define DataPipeHandleToObj(x) ((DataPipeObj_TypeDef *)x)
  18:System/FreeRTOS/../DataPipe/DataPipe.h **** #define DataPipe_CreateDataObj(type, name) static type name##_##PipeDataObj __attribute__((section(
  19:System/FreeRTOS/../DataPipe/DataPipe.h **** #define DataPipe_DataObjAddr(name) (&name##_##PipeDataObj)
  20:System/FreeRTOS/../DataPipe/DataPipe.h **** #define DataPipe_DataObj(name) name##_##PipeDataObj
  21:System/FreeRTOS/../DataPipe/DataPipe.h **** #define DataPipe_DataSize(name) sizeof(name##_##PipeDataObj)
  22:System/FreeRTOS/../DataPipe/DataPipe.h **** 
  23:System/FreeRTOS/../DataPipe/DataPipe.h **** typedef enum
  24:System/FreeRTOS/../DataPipe/DataPipe.h **** {
  25:System/FreeRTOS/../DataPipe/DataPipe.h ****     Pipe_UnReady = 0,
  26:System/FreeRTOS/../DataPipe/DataPipe.h ****     Pipe_Ready,
  27:System/FreeRTOS/../DataPipe/DataPipe.h ****     Pipe_Busy,
  28:System/FreeRTOS/../DataPipe/DataPipe.h ****     Pipe_Error,
  29:System/FreeRTOS/../DataPipe/DataPipe.h **** } DataPipe_State_List;
  30:System/FreeRTOS/../DataPipe/DataPipe.h **** 
  31:System/FreeRTOS/../DataPipe/DataPipe.h **** #pragma pack(1)
  32:System/FreeRTOS/../DataPipe/DataPipe.h **** typedef struct
  33:System/FreeRTOS/../DataPipe/DataPipe.h **** {
  34:System/FreeRTOS/../DataPipe/DataPipe.h ****     uint32_t min_rx_interval;
  35:System/FreeRTOS/../DataPipe/DataPipe.h ****     uint32_t detect_interval;
  36:System/FreeRTOS/../DataPipe/DataPipe.h ****     uint32_t rx_ms_rt;
  37:System/FreeRTOS/../DataPipe/DataPipe.h **** 
  38:System/FreeRTOS/../DataPipe/DataPipe.h ****     bool enable;
  39:System/FreeRTOS/../DataPipe/DataPipe.h **** 
  40:System/FreeRTOS/../DataPipe/DataPipe.h ****     uint32_t data_addr;
  41:System/FreeRTOS/../DataPipe/DataPipe.h ****     uint16_t data_size;
  42:System/FreeRTOS/../DataPipe/DataPipe.h **** 
  43:System/FreeRTOS/../DataPipe/DataPipe.h ****     Pipe_TransFinish_Callback trans_finish_cb;
  44:System/FreeRTOS/../DataPipe/DataPipe.h ****     Pipe_TransError_Callback trans_error_cb;
  45:System/FreeRTOS/../DataPipe/DataPipe.h **** 
  46:System/FreeRTOS/../DataPipe/DataPipe.h ****     uint32_t tx_cnt;
  47:System/FreeRTOS/../DataPipe/DataPipe.h ****     uint32_t rx_cnt;
  48:System/FreeRTOS/../DataPipe/DataPipe.h ****     uint32_t er_cnt;
  49:System/FreeRTOS/../DataPipe/DataPipe.h **** } DataPipeObj_TypeDef;
  50:System/FreeRTOS/../DataPipe/DataPipe.h **** #pragma pack()
  51:System/FreeRTOS/../DataPipe/DataPipe.h **** 
  52:System/FreeRTOS/../DataPipe/DataPipe.h **** typedef struct
  53:System/FreeRTOS/../DataPipe/DataPipe.h **** {
  54:System/FreeRTOS/../DataPipe/DataPipe.h ****     DataPipeObj_TypeDef *org;
  55:System/FreeRTOS/../DataPipe/DataPipe.h ****     DataPipeObj_TypeDef *dst;
  56:System/FreeRTOS/../DataPipe/DataPipe.h **** } Data_PlugedPipeObj_TypeDef;
  57:System/FreeRTOS/../DataPipe/DataPipe.h **** 
  58:System/FreeRTOS/../DataPipe/DataPipe.h **** bool DataPipe_Init(void);
  59:System/FreeRTOS/../DataPipe/DataPipe.h **** bool DataPipe_DeInit(void);
  60:System/FreeRTOS/../DataPipe/DataPipe.h **** bool DataPipe_SendTo(DataPipeObj_TypeDef *p_org, DataPipeObj_TypeDef *p_dst);
  61:System/FreeRTOS/../DataPipe/DataPipe.h **** bool DataPipe_DealError(void);
  62:System/FreeRTOS/../DataPipe/DataPipe.h **** 
  63:System/FreeRTOS/../DataPipe/DataPipe.h **** inline bool DataPipe_Enable(DataPipeObj_TypeDef *obj)
 4532              		.loc 2 63 13 view .LVU1259
 4533              	.LBB19:
  64:System/FreeRTOS/../DataPipe/DataPipe.h **** {
  65:System/FreeRTOS/../DataPipe/DataPipe.h ****     if (obj == NULL)
 4534              		.loc 2 65 5 view .LVU1260
ARM GAS  C:\Users\8bit\AppData\Local\Temp\cclQGHkl.s 			page 117


  66:System/FreeRTOS/../DataPipe/DataPipe.h ****         return false;
  67:System/FreeRTOS/../DataPipe/DataPipe.h **** 
  68:System/FreeRTOS/../DataPipe/DataPipe.h ****     obj->enable = true;
 4535              		.loc 2 68 5 view .LVU1261
 4536              		.loc 2 68 17 is_stmt 0 view .LVU1262
 4537 025e 0123     		movs	r3, #1
 4538 0260 3373     		strb	r3, [r6, #12]
  69:System/FreeRTOS/../DataPipe/DataPipe.h **** 
  70:System/FreeRTOS/../DataPipe/DataPipe.h ****     return true;
 4539              		.loc 2 70 5 is_stmt 1 view .LVU1263
 4540              	.LVL374:
 4541              		.loc 2 70 5 is_stmt 0 view .LVU1264
 4542              	.LBE19:
 4543              	.LBE18:
 227:Task/Task_BlackBox.c ****     DataPipe_Enable(&CtlData_Log_DataPipe);
 4544              		.loc 1 227 5 is_stmt 1 view .LVU1265
 4545              	.LBB20:
 4546              	.LBI20:
  63:System/FreeRTOS/../DataPipe/DataPipe.h **** {
 4547              		.loc 2 63 13 view .LVU1266
 4548              	.LBB21:
  65:System/FreeRTOS/../DataPipe/DataPipe.h ****         return false;
 4549              		.loc 2 65 5 view .LVU1267
  68:System/FreeRTOS/../DataPipe/DataPipe.h **** 
 4550              		.loc 2 68 5 view .LVU1268
  68:System/FreeRTOS/../DataPipe/DataPipe.h **** 
 4551              		.loc 2 68 17 is_stmt 0 view .LVU1269
 4552 0262 2B73     		strb	r3, [r5, #12]
 4553              		.loc 2 70 5 is_stmt 1 view .LVU1270
 4554              	.LVL375:
 4555              		.loc 2 70 5 is_stmt 0 view .LVU1271
 4556              	.LBE21:
 4557              	.LBE20:
 228:Task/Task_BlackBox.c ****     DataPipe_Enable(&Attitude_Log_DataPipe);
 4558              		.loc 1 228 5 is_stmt 1 view .LVU1272
 4559              	.LBB22:
 4560              	.LBI22:
  63:System/FreeRTOS/../DataPipe/DataPipe.h **** {
 4561              		.loc 2 63 13 view .LVU1273
 4562              	.LBB23:
  65:System/FreeRTOS/../DataPipe/DataPipe.h ****         return false;
 4563              		.loc 2 65 5 view .LVU1274
  68:System/FreeRTOS/../DataPipe/DataPipe.h **** 
 4564              		.loc 2 68 5 view .LVU1275
  68:System/FreeRTOS/../DataPipe/DataPipe.h **** 
 4565              		.loc 2 68 17 is_stmt 0 view .LVU1276
 4566 0264 2373     		strb	r3, [r4, #12]
 4567              		.loc 2 70 5 is_stmt 1 view .LVU1277
 4568              	.LVL376:
 4569              		.loc 2 70 5 is_stmt 0 view .LVU1278
 4570              	.LBE23:
 4571              	.LBE22:
 229:Task/Task_BlackBox.c ****     DataPipe_Enable(&Altitude_Log_DataPipe);
 4572              		.loc 1 229 5 is_stmt 1 view .LVU1279
 4573              	.LBB24:
 4574              	.LBI24:
  63:System/FreeRTOS/../DataPipe/DataPipe.h **** {
ARM GAS  C:\Users\8bit\AppData\Local\Temp\cclQGHkl.s 			page 118


 4575              		.loc 2 63 13 view .LVU1280
 4576              	.LBB25:
  65:System/FreeRTOS/../DataPipe/DataPipe.h ****         return false;
 4577              		.loc 2 65 5 view .LVU1281
  68:System/FreeRTOS/../DataPipe/DataPipe.h **** 
 4578              		.loc 2 68 5 view .LVU1282
  68:System/FreeRTOS/../DataPipe/DataPipe.h **** 
 4579              		.loc 2 68 17 is_stmt 0 view .LVU1283
 4580 0266 0373     		strb	r3, [r0, #12]
 4581              		.loc 2 70 5 is_stmt 1 view .LVU1284
 4582              	.LVL377:
 4583              		.loc 2 70 5 is_stmt 0 view .LVU1285
 4584              	.LBE25:
 4585              	.LBE24:
 230:Task/Task_BlackBox.c **** 
 4586              		.loc 1 230 5 is_stmt 1 view .LVU1286
 4587              	.LBB26:
 4588              	.LBI26:
  63:System/FreeRTOS/../DataPipe/DataPipe.h **** {
 4589              		.loc 2 63 13 view .LVU1287
 4590              	.LBB27:
  65:System/FreeRTOS/../DataPipe/DataPipe.h ****         return false;
 4591              		.loc 2 65 5 view .LVU1288
  68:System/FreeRTOS/../DataPipe/DataPipe.h **** 
 4592              		.loc 2 68 5 view .LVU1289
  68:System/FreeRTOS/../DataPipe/DataPipe.h **** 
 4593              		.loc 2 68 17 is_stmt 0 view .LVU1290
 4594 0268 0B73     		strb	r3, [r1, #12]
 4595              		.loc 2 70 5 is_stmt 1 view .LVU1291
 4596              	.LVL378:
 4597              		.loc 2 70 5 is_stmt 0 view .LVU1292
 4598              	.LBE27:
 4599              	.LBE26:
 233:Task/Task_BlackBox.c **** }
 4600              		.loc 1 233 5 is_stmt 1 view .LVU1293
 233:Task/Task_BlackBox.c **** }
 4601              		.loc 1 233 19 is_stmt 0 view .LVU1294
 4602 026a 114B     		ldr	r3, .L255
 4603 026c 1A70     		strb	r2, [r3]
 4604 026e 14E7     		b	.L239
 4605              	.LVL379:
 4606              	.L244:
 146:Task/Task_BlackBox.c ****             p_blackbox = &SrvChip_BlackBox;
 4607              		.loc 1 146 13 is_stmt 1 view .LVU1295
 146:Task/Task_BlackBox.c ****             p_blackbox = &SrvChip_BlackBox;
 4608              		.loc 1 146 36 is_stmt 0 view .LVU1296
 4609 0270 224D     		ldr	r5, .L255+76
 4610 0272 2C68     		ldr	r4, [r5]
 146:Task/Task_BlackBox.c ****             p_blackbox = &SrvChip_BlackBox;
 4611              		.loc 1 146 20 view .LVU1297
 4612 0274 2A9B     		ldr	r3, [sp, #168]
 4613 0276 0093     		str	r3, [sp]
 4614 0278 27AB     		add	r3, sp, #156
 4615 027a 0ECB     		ldm	r3, {r1, r2, r3}
 4616 027c 1048     		ldr	r0, .L255+16
 4617 027e A047     		blx	r4
 4618              	.LVL380:
ARM GAS  C:\Users\8bit\AppData\Local\Temp\cclQGHkl.s 			page 119


 4619 0280 0446     		mov	r4, r0
 4620              	.LVL381:
 147:Task/Task_BlackBox.c ****             break;
 4621              		.loc 1 147 13 is_stmt 1 view .LVU1298
 147:Task/Task_BlackBox.c ****             break;
 4622              		.loc 1 147 24 is_stmt 0 view .LVU1299
 4623 0282 104B     		ldr	r3, .L255+20
 4624 0284 1D60     		str	r5, [r3]
 148:Task/Task_BlackBox.c **** 
 4625              		.loc 1 148 13 is_stmt 1 view .LVU1300
 4626 0286 4FE7     		b	.L247
 4627              	.LVL382:
 4628              	.L252:
 151:Task/Task_BlackBox.c ****             p_blackbox = &SrvCard_BlackBox;
 4629              		.loc 1 151 13 view .LVU1301
 151:Task/Task_BlackBox.c ****             p_blackbox = &SrvCard_BlackBox;
 4630              		.loc 1 151 36 is_stmt 0 view .LVU1302
 4631 0288 1D4D     		ldr	r5, .L255+80
 4632 028a 2C68     		ldr	r4, [r5]
 151:Task/Task_BlackBox.c ****             p_blackbox = &SrvCard_BlackBox;
 4633              		.loc 1 151 20 view .LVU1303
 4634 028c 2A9B     		ldr	r3, [sp, #168]
 4635 028e 0093     		str	r3, [sp]
 4636 0290 27AB     		add	r3, sp, #156
 4637 0292 0ECB     		ldm	r3, {r1, r2, r3}
 4638 0294 0A48     		ldr	r0, .L255+16
 4639 0296 A047     		blx	r4
 4640              	.LVL383:
 4641 0298 0446     		mov	r4, r0
 4642              	.LVL384:
 152:Task/Task_BlackBox.c ****             break;
 4643              		.loc 1 152 13 is_stmt 1 view .LVU1304
 152:Task/Task_BlackBox.c ****             break;
 4644              		.loc 1 152 24 is_stmt 0 view .LVU1305
 4645 029a 0A4B     		ldr	r3, .L255+20
 4646 029c 1D60     		str	r5, [r3]
 153:Task/Task_BlackBox.c **** 
 4647              		.loc 1 153 13 is_stmt 1 view .LVU1306
 4648 029e 43E7     		b	.L247
 4649              	.L253:
 160:Task/Task_BlackBox.c ****         return;
 4650              		.loc 1 160 9 view .LVU1307
 160:Task/Task_BlackBox.c ****         return;
 4651              		.loc 1 160 20 is_stmt 0 view .LVU1308
 4652 02a0 084B     		ldr	r3, .L255+20
 4653 02a2 0022     		movs	r2, #0
 4654 02a4 1A60     		str	r2, [r3]
 161:Task/Task_BlackBox.c ****     }
 4655              		.loc 1 161 9 is_stmt 1 view .LVU1309
 4656 02a6 F8E6     		b	.L239
 4657              	.LVL385:
 4658              	.L254:
 179:Task/Task_BlackBox.c ****         return;
 4659              		.loc 1 179 9 view .LVU1310
 179:Task/Task_BlackBox.c ****         return;
 4660              		.loc 1 179 20 is_stmt 0 view .LVU1311
 4661 02a8 074B     		ldr	r3, .L255+24
ARM GAS  C:\Users\8bit\AppData\Local\Temp\cclQGHkl.s 			page 120


 4662 02aa 1B6B     		ldr	r3, [r3, #48]
 179:Task/Task_BlackBox.c ****         return;
 4663              		.loc 1 179 9 view .LVU1312
 4664 02ac 9847     		blx	r3
 4665              	.LVL386:
 180:Task/Task_BlackBox.c ****     }
 4666              		.loc 1 180 9 is_stmt 1 view .LVU1313
 4667 02ae F4E6     		b	.L239
 4668              	.L256:
 4669              		.align	2
 4670              	.L255:
 4671 02b0 00000000 		.word	.LANCHOR1
 4672 02b4 00000000 		.word	Storage
 4673 02b8 A8010000 		.word	.LC16
 4674 02bc 00000000 		.word	SrvPort_BlackBox
 4675 02c0 00000000 		.word	TaskBlackBox_PushFinish_Callback
 4676 02c4 00000000 		.word	.LANCHOR12
 4677 02c8 00000000 		.word	SrvOsCommon
 4678 02cc 00000000 		.word	IMU_Log_DataPipe
 4679 02d0 00000000 		.word	Baro_Log_DataPipe
 4680 02d4 00000000 		.word	Attitude_Log_DataPipe
 4681 02d8 00000000 		.word	Altitude_Log_DataPipe
 4682 02dc 00000000 		.word	CtlData_Log_DataPipe
 4683 02e0 00000000 		.word	.LANCHOR4
 4684 02e4 00000000 		.word	Queue
 4685 02e8 B8000000 		.word	BlackBox_Buff
 4686 02ec 00000000 		.word	.LC40
 4687 02f0 00000000 		.word	.LANCHOR0
 4688 02f4 00000000 		.word	.LANCHOR2
 4689 02f8 00000000 		.word	TaskBlackBox_PipeTransFinish_Callback
 4690 02fc 00000000 		.word	SrvChip_BlackBox
 4691 0300 00000000 		.word	SrvCard_BlackBox
 4692              		.cfi_endproc
 4693              	.LFE148:
 4695              		.section	.text.TaskBlackBox_Core,"ax",%progbits
 4696              		.align	1
 4697              		.global	TaskBlackBox_Core
 4698              		.syntax unified
 4699              		.thumb
 4700              		.thumb_func
 4702              	TaskBlackBox_Core:
 4703              	.LVL387:
 4704              	.LFB149:
 237:Task/Task_BlackBox.c ****     Monitor.write_thread_state = true;
 4705              		.loc 1 237 1 view -0
 4706              		.cfi_startproc
 4707              		@ Volatile: function does not return.
 4708              		@ args = 0, pretend = 0, frame = 0
 4709              		@ frame_needed = 0, uses_anonymous_args = 0
 237:Task/Task_BlackBox.c ****     Monitor.write_thread_state = true;
 4710              		.loc 1 237 1 is_stmt 0 view .LVU1315
 4711 0000 08B5     		push	{r3, lr}
 4712              	.LCFI39:
 4713              		.cfi_def_cfa_offset 8
 4714              		.cfi_offset 3, -8
 4715              		.cfi_offset 14, -4
 238:Task/Task_BlackBox.c **** 
ARM GAS  C:\Users\8bit\AppData\Local\Temp\cclQGHkl.s 			page 121


 4716              		.loc 1 238 5 is_stmt 1 view .LVU1316
 238:Task/Task_BlackBox.c **** 
 4717              		.loc 1 238 32 is_stmt 0 view .LVU1317
 4718 0002 214B     		ldr	r3, .L265
 4719 0004 0122     		movs	r2, #1
 4720 0006 5A70     		strb	r2, [r3, #1]
 4721 0008 12E0     		b	.L258
 4722              	.LVL388:
 4723              	.L259:
 244:Task/Task_BlackBox.c **** 
 4724              		.loc 1 244 13 is_stmt 1 view .LVU1318
 4725 000a 0020     		movs	r0, #0
 4726 000c FFF7FEFF 		bl	vTaskDelete
 4727              	.LVL389:
 4728 0010 16E0     		b	.L260
 4729              	.L264:
 247:Task/Task_BlackBox.c ****         {
 4730              		.loc 1 247 66 is_stmt 0 discriminator 1 view .LVU1319
 4731 0012 1E4B     		ldr	r3, .L265+4
 4732 0014 1B68     		ldr	r3, [r3]
 4733 0016 9B68     		ldr	r3, [r3, #8]
 247:Task/Task_BlackBox.c ****         {
 4734              		.loc 1 247 53 discriminator 1 view .LVU1320
 4735 0018 E3B1     		cbz	r3, .L261
 247:Task/Task_BlackBox.c ****         {
 4736              		.loc 1 247 79 discriminator 2 view .LVU1321
 4737 001a 1D4A     		ldr	r2, .L265+8
 4738 001c 9069     		ldr	r0, [r2, #24]
 4739 001e 9847     		blx	r3
 4740              	.LVL390:
 247:Task/Task_BlackBox.c ****         {
 4741              		.loc 1 247 76 discriminator 2 view .LVU1322
 4742 0020 C0B1     		cbz	r0, .L261
 249:Task/Task_BlackBox.c ****             Queue.reset(&BlackBox_Queue);
 4743              		.loc 1 249 13 is_stmt 1 view .LVU1323
 249:Task/Task_BlackBox.c ****             Queue.reset(&BlackBox_Queue);
 4744              		.loc 1 249 27 is_stmt 0 view .LVU1324
 4745 0022 194B     		ldr	r3, .L265
 4746 0024 0022     		movs	r2, #0
 4747 0026 1A70     		strb	r2, [r3]
 250:Task/Task_BlackBox.c ****         }
 4748              		.loc 1 250 13 is_stmt 1 view .LVU1325
 250:Task/Task_BlackBox.c ****         }
 4749              		.loc 1 250 18 is_stmt 0 view .LVU1326
 4750 0028 1A4B     		ldr	r3, .L265+12
 4751 002a 1B69     		ldr	r3, [r3, #16]
 250:Task/Task_BlackBox.c ****         }
 4752              		.loc 1 250 13 view .LVU1327
 4753 002c 1A48     		ldr	r0, .L265+16
 4754 002e 9847     		blx	r3
 4755              	.LVL391:
 4756              	.L258:
 240:Task/Task_BlackBox.c ****     {
 4757              		.loc 1 240 5 is_stmt 1 view .LVU1328
 243:Task/Task_BlackBox.c ****             vTaskDelete(NULL);
 4758              		.loc 1 243 9 view .LVU1329
 243:Task/Task_BlackBox.c ****             vTaskDelete(NULL);
ARM GAS  C:\Users\8bit\AppData\Local\Temp\cclQGHkl.s 			page 122


 4759              		.loc 1 243 27 is_stmt 0 view .LVU1330
 4760 0030 1A4B     		ldr	r3, .L265+20
 4761 0032 1B68     		ldr	r3, [r3]
 243:Task/Task_BlackBox.c ****             vTaskDelete(NULL);
 4762              		.loc 1 243 12 view .LVU1331
 4763 0034 002B     		cmp	r3, #0
 4764 0036 E8D0     		beq	.L259
 243:Task/Task_BlackBox.c ****             vTaskDelete(NULL);
 4765              		.loc 1 243 51 discriminator 1 view .LVU1332
 4766 0038 144B     		ldr	r3, .L265+4
 4767 003a 1B68     		ldr	r3, [r3]
 243:Task/Task_BlackBox.c ****             vTaskDelete(NULL);
 4768              		.loc 1 243 36 discriminator 1 view .LVU1333
 4769 003c 002B     		cmp	r3, #0
 4770 003e E4D0     		beq	.L259
 4771              	.L260:
 246:Task/Task_BlackBox.c ****         if ((Monitor.state == BlackBox_Log_Disable) && p_blackbox->disable && p_blackbox->disable(S
 4772              		.loc 1 246 9 is_stmt 1 view .LVU1334
 4773 0040 4FF0FF31 		mov	r1, #-1
 4774 0044 154B     		ldr	r3, .L265+20
 4775 0046 1868     		ldr	r0, [r3]
 4776 0048 FFF7FEFF 		bl	osSemaphoreWait
 4777              	.LVL392:
 247:Task/Task_BlackBox.c ****         {
 4778              		.loc 1 247 9 view .LVU1335
 247:Task/Task_BlackBox.c ****         {
 4779              		.loc 1 247 21 is_stmt 0 view .LVU1336
 4780 004c 0E4B     		ldr	r3, .L265
 4781 004e 1B78     		ldrb	r3, [r3]	@ zero_extendqisi2
 247:Task/Task_BlackBox.c ****         {
 4782              		.loc 1 247 12 view .LVU1337
 4783 0050 022B     		cmp	r3, #2
 4784 0052 DED0     		beq	.L264
 4785              	.L261:
 252:Task/Task_BlackBox.c ****         {
 4786              		.loc 1 252 14 is_stmt 1 view .LVU1338
 252:Task/Task_BlackBox.c ****         {
 4787              		.loc 1 252 28 is_stmt 0 view .LVU1339
 4788 0054 0D4B     		ldr	r3, .L265+4
 4789 0056 1B68     		ldr	r3, [r3]
 4790 0058 DB68     		ldr	r3, [r3, #12]
 252:Task/Task_BlackBox.c ****         {
 4791              		.loc 1 252 17 view .LVU1340
 4792 005a 002B     		cmp	r3, #0
 4793 005c E8D0     		beq	.L258
 252:Task/Task_BlackBox.c ****         {
 4794              		.loc 1 252 45 discriminator 1 view .LVU1341
 4795 005e 0A4A     		ldr	r2, .L265
 4796 0060 126D     		ldr	r2, [r2, #80]
 252:Task/Task_BlackBox.c ****         {
 4797              		.loc 1 252 35 discriminator 1 view .LVU1342
 4798 0062 002A     		cmp	r2, #0
 4799 0064 E4D0     		beq	.L258
 254:Task/Task_BlackBox.c ****             {
 4800              		.loc 1 254 13 is_stmt 1 view .LVU1343
 254:Task/Task_BlackBox.c ****             {
 4801              		.loc 1 254 16 is_stmt 0 view .LVU1344
ARM GAS  C:\Users\8bit\AppData\Local\Temp\cclQGHkl.s 			page 123


 4802 0066 0849     		ldr	r1, .L265
 4803 0068 496D     		ldr	r1, [r1, #84]
 4804 006a 0948     		ldr	r0, .L265+8
 4805 006c 8069     		ldr	r0, [r0, #24]
 4806 006e 9847     		blx	r3
 4807              	.LVL393:
 254:Task/Task_BlackBox.c ****             {
 4808              		.loc 1 254 15 view .LVU1345
 4809 0070 0028     		cmp	r0, #0
 4810 0072 DDD0     		beq	.L258
 256:Task/Task_BlackBox.c ****                 Monitor.log_byte_size += Monitor.log_unit;
 4811              		.loc 1 256 17 is_stmt 1 view .LVU1346
 256:Task/Task_BlackBox.c ****                 Monitor.log_byte_size += Monitor.log_unit;
 4812              		.loc 1 256 24 is_stmt 0 view .LVU1347
 4813 0074 044B     		ldr	r3, .L265
 4814 0076 DA6D     		ldr	r2, [r3, #92]
 256:Task/Task_BlackBox.c ****                 Monitor.log_byte_size += Monitor.log_unit;
 4815              		.loc 1 256 33 view .LVU1348
 4816 0078 0132     		adds	r2, r2, #1
 4817 007a DA65     		str	r2, [r3, #92]
 257:Task/Task_BlackBox.c ****             }
 4818              		.loc 1 257 17 is_stmt 1 view .LVU1349
 257:Task/Task_BlackBox.c ****             }
 4819              		.loc 1 257 49 is_stmt 0 view .LVU1350
 4820 007c 196D     		ldr	r1, [r3, #80]
 257:Task/Task_BlackBox.c ****             }
 4821              		.loc 1 257 39 view .LVU1351
 4822 007e 9A6D     		ldr	r2, [r3, #88]
 4823 0080 0A44     		add	r2, r2, r1
 4824 0082 9A65     		str	r2, [r3, #88]
 4825 0084 D4E7     		b	.L258
 4826              	.L266:
 4827 0086 00BF     		.align	2
 4828              	.L265:
 4829 0088 00000000 		.word	.LANCHOR1
 4830 008c 00000000 		.word	.LANCHOR12
 4831 0090 00000000 		.word	Storage
 4832 0094 00000000 		.word	Queue
 4833 0098 00000000 		.word	.LANCHOR0
 4834 009c 00000000 		.word	.LANCHOR2
 4835              		.cfi_endproc
 4836              	.LFE149:
 4838              		.section	.text.TaskBlackBox_LogControl,"ax",%progbits
 4839              		.align	1
 4840              		.global	TaskBlackBox_LogControl
 4841              		.syntax unified
 4842              		.thumb
 4843              		.thumb_func
 4845              	TaskBlackBox_LogControl:
 4846              	.LFB154:
 502:Task/Task_BlackBox.c ****     if (Monitor.state != BlackBox_Log_Enable)
 4847              		.loc 1 502 1 is_stmt 1 view -0
 4848              		.cfi_startproc
 4849              		@ args = 0, pretend = 0, frame = 0
 4850              		@ frame_needed = 0, uses_anonymous_args = 0
 4851 0000 08B5     		push	{r3, lr}
 4852              	.LCFI40:
ARM GAS  C:\Users\8bit\AppData\Local\Temp\cclQGHkl.s 			page 124


 4853              		.cfi_def_cfa_offset 8
 4854              		.cfi_offset 3, -8
 4855              		.cfi_offset 14, -4
 503:Task/Task_BlackBox.c ****     {
 4856              		.loc 1 503 5 view .LVU1353
 503:Task/Task_BlackBox.c ****     {
 4857              		.loc 1 503 16 is_stmt 0 view .LVU1354
 4858 0002 0D4B     		ldr	r3, .L271
 4859 0004 1B78     		ldrb	r3, [r3]	@ zero_extendqisi2
 503:Task/Task_BlackBox.c ****     {
 4860              		.loc 1 503 8 view .LVU1355
 4861 0006 012B     		cmp	r3, #1
 4862 0008 11D0     		beq	.L268
 505:Task/Task_BlackBox.c ****         Monitor.log_byte_size = 0;
 4863              		.loc 1 505 9 is_stmt 1 view .LVU1356
 505:Task/Task_BlackBox.c ****         Monitor.log_byte_size = 0;
 4864              		.loc 1 505 25 is_stmt 0 view .LVU1357
 4865 000a 0B4B     		ldr	r3, .L271
 4866 000c 0022     		movs	r2, #0
 4867 000e DA65     		str	r2, [r3, #92]
 506:Task/Task_BlackBox.c ****         Queue.reset(&BlackBox_Queue);
 4868              		.loc 1 506 9 is_stmt 1 view .LVU1358
 506:Task/Task_BlackBox.c ****         Queue.reset(&BlackBox_Queue);
 4869              		.loc 1 506 31 is_stmt 0 view .LVU1359
 4870 0010 9A65     		str	r2, [r3, #88]
 507:Task/Task_BlackBox.c **** 
 4871              		.loc 1 507 9 is_stmt 1 view .LVU1360
 507:Task/Task_BlackBox.c **** 
 4872              		.loc 1 507 14 is_stmt 0 view .LVU1361
 4873 0012 0A4B     		ldr	r3, .L271+4
 4874 0014 1B69     		ldr	r3, [r3, #16]
 507:Task/Task_BlackBox.c **** 
 4875              		.loc 1 507 9 view .LVU1362
 4876 0016 0A48     		ldr	r0, .L271+8
 4877 0018 9847     		blx	r3
 4878              	.LVL394:
 509:Task/Task_BlackBox.c ****             Monitor.state = BlackBox_Log_Enable;
 4879              		.loc 1 509 9 is_stmt 1 view .LVU1363
 509:Task/Task_BlackBox.c ****             Monitor.state = BlackBox_Log_Enable;
 4880              		.loc 1 509 23 is_stmt 0 view .LVU1364
 4881 001a 0A4B     		ldr	r3, .L271+12
 4882 001c 1B68     		ldr	r3, [r3]
 4883 001e 5B68     		ldr	r3, [r3, #4]
 509:Task/Task_BlackBox.c ****             Monitor.state = BlackBox_Log_Enable;
 4884              		.loc 1 509 12 view .LVU1365
 4885 0020 43B1     		cbz	r3, .L267
 509:Task/Task_BlackBox.c ****             Monitor.state = BlackBox_Log_Enable;
 4886              		.loc 1 509 35 discriminator 1 view .LVU1366
 4887 0022 9847     		blx	r3
 4888              	.LVL395:
 509:Task/Task_BlackBox.c ****             Monitor.state = BlackBox_Log_Enable;
 4889              		.loc 1 509 32 discriminator 1 view .LVU1367
 4890 0024 30B1     		cbz	r0, .L267
 510:Task/Task_BlackBox.c ****     }
 4891              		.loc 1 510 13 is_stmt 1 view .LVU1368
 510:Task/Task_BlackBox.c ****     }
 4892              		.loc 1 510 27 is_stmt 0 view .LVU1369
ARM GAS  C:\Users\8bit\AppData\Local\Temp\cclQGHkl.s 			page 125


 4893 0026 044B     		ldr	r3, .L271
 4894 0028 0122     		movs	r2, #1
 4895 002a 1A70     		strb	r2, [r3]
 4896 002c 02E0     		b	.L267
 4897              	.L268:
 513:Task/Task_BlackBox.c **** }
 4898              		.loc 1 513 9 is_stmt 1 view .LVU1370
 513:Task/Task_BlackBox.c **** }
 4899              		.loc 1 513 23 is_stmt 0 view .LVU1371
 4900 002e 024B     		ldr	r3, .L271
 4901 0030 0222     		movs	r2, #2
 4902 0032 1A70     		strb	r2, [r3]
 4903              	.L267:
 514:Task/Task_BlackBox.c **** 
 4904              		.loc 1 514 1 view .LVU1372
 4905 0034 08BD     		pop	{r3, pc}
 4906              	.L272:
 4907 0036 00BF     		.align	2
 4908              	.L271:
 4909 0038 00000000 		.word	.LANCHOR1
 4910 003c 00000000 		.word	Queue
 4911 0040 00000000 		.word	.LANCHOR0
 4912 0044 00000000 		.word	.LANCHOR12
 4913              		.cfi_endproc
 4914              	.LFE154:
 4916              		.section	.text.TaskBlackBox_Set_LogInfo,"ax",%progbits
 4917              		.align	1
 4918              		.global	TaskBlackBox_Set_LogInfo
 4919              		.syntax unified
 4920              		.thumb
 4921              		.thumb_func
 4923              	TaskBlackBox_Set_LogInfo:
 4924              	.LVL396:
 4925              	.LFB155:
 517:Task/Task_BlackBox.c ****     BlackBox_LogInfo_TypeDef info;
 4926              		.loc 1 517 1 is_stmt 1 view -0
 4927              		.cfi_startproc
 4928              		@ args = 0, pretend = 0, frame = 152
 4929              		@ frame_needed = 0, uses_anonymous_args = 0
 517:Task/Task_BlackBox.c ****     BlackBox_LogInfo_TypeDef info;
 4930              		.loc 1 517 1 is_stmt 0 view .LVU1374
 4931 0000 70B5     		push	{r4, r5, r6, lr}
 4932              	.LCFI41:
 4933              		.cfi_def_cfa_offset 16
 4934              		.cfi_offset 4, -16
 4935              		.cfi_offset 5, -12
 4936              		.cfi_offset 6, -8
 4937              		.cfi_offset 14, -4
 4938 0002 A6B0     		sub	sp, sp, #152
 4939              	.LCFI42:
 4940              		.cfi_def_cfa_offset 168
 4941 0004 0446     		mov	r4, r0
 4942 0006 0D46     		mov	r5, r1
 4943 0008 1646     		mov	r6, r2
 518:Task/Task_BlackBox.c ****     Storage_ItemSearchOut_TypeDef search_out;
 4944              		.loc 1 518 5 is_stmt 1 view .LVU1375
 519:Task/Task_BlackBox.c **** 
ARM GAS  C:\Users\8bit\AppData\Local\Temp\cclQGHkl.s 			page 126


 4945              		.loc 1 519 5 view .LVU1376
 521:Task/Task_BlackBox.c ****     memset(&info, 0, sizeof(BlackBox_LogInfo_TypeDef));
 4946              		.loc 1 521 5 view .LVU1377
 4947 000a 4522     		movs	r2, #69
 4948              	.LVL397:
 521:Task/Task_BlackBox.c ****     memset(&info, 0, sizeof(BlackBox_LogInfo_TypeDef));
 4949              		.loc 1 521 5 is_stmt 0 view .LVU1378
 4950 000c 0021     		movs	r1, #0
 4951              	.LVL398:
 521:Task/Task_BlackBox.c ****     memset(&info, 0, sizeof(BlackBox_LogInfo_TypeDef));
 4952              		.loc 1 521 5 view .LVU1379
 4953 000e 12A8     		add	r0, sp, #72
 4954              	.LVL399:
 521:Task/Task_BlackBox.c ****     memset(&info, 0, sizeof(BlackBox_LogInfo_TypeDef));
 4955              		.loc 1 521 5 view .LVU1380
 4956 0010 FFF7FEFF 		bl	memset
 4957              	.LVL400:
 522:Task/Task_BlackBox.c **** 
 4958              		.loc 1 522 5 is_stmt 1 view .LVU1381
 4959 0014 0023     		movs	r3, #0
 4960 0016 2493     		str	r3, [sp, #144]
 4961 0018 ADF89430 		strh	r3, [sp, #148]	@ movhi
 524:Task/Task_BlackBox.c ****     {
 4962              		.loc 1 524 5 view .LVU1382
 4963 001c 631E     		subs	r3, r4, #1
 4964 001e 022B     		cmp	r3, #2
 4965 0020 27D8     		bhi	.L276
 529:Task/Task_BlackBox.c ****         default: return false;
 4966              		.loc 1 529 13 view .LVU1383
 533:Task/Task_BlackBox.c ****     {
 4967              		.loc 1 533 5 view .LVU1384
 4968 0022 042D     		cmp	r5, #4
 4969 0024 28D8     		bhi	.L277
 540:Task/Task_BlackBox.c ****         default: return false;
 4970              		.loc 1 540 13 view .LVU1385
 544:Task/Task_BlackBox.c ****     info.log_type = type;
 4971              		.loc 1 544 5 view .LVU1386
 544:Task/Task_BlackBox.c ****     info.log_type = type;
 4972              		.loc 1 544 17 is_stmt 0 view .LVU1387
 4973 0026 8DF89040 		strb	r4, [sp, #144]
 545:Task/Task_BlackBox.c ****     info.log_size = size;
 4974              		.loc 1 545 5 is_stmt 1 view .LVU1388
 545:Task/Task_BlackBox.c ****     info.log_size = size;
 4975              		.loc 1 545 19 is_stmt 0 view .LVU1389
 4976 002a 8DF89150 		strb	r5, [sp, #145]
 546:Task/Task_BlackBox.c **** 
 4977              		.loc 1 546 5 is_stmt 1 view .LVU1390
 546:Task/Task_BlackBox.c **** 
 4978              		.loc 1 546 19 is_stmt 0 view .LVU1391
 4979 002e CDF89260 		str	r6, [sp, #146]	@ unaligned
 548:Task/Task_BlackBox.c ****     if (search_out.item_addr == 0)
 4980              		.loc 1 548 5 is_stmt 1 view .LVU1392
 548:Task/Task_BlackBox.c ****     if (search_out.item_addr == 0)
 4981              		.loc 1 548 25 is_stmt 0 view .LVU1393
 4982 0032 144B     		ldr	r3, .L281
 4983 0034 5B68     		ldr	r3, [r3, #4]
 548:Task/Task_BlackBox.c ****     if (search_out.item_addr == 0)
ARM GAS  C:\Users\8bit\AppData\Local\Temp\cclQGHkl.s 			page 127


 4984              		.loc 1 548 18 view .LVU1394
 4985 0036 144A     		ldr	r2, .L281+4
 4986 0038 0221     		movs	r1, #2
 4987 003a 6846     		mov	r0, sp
 4988 003c 9847     		blx	r3
 4989              	.LVL401:
 4990 003e 4522     		movs	r2, #69
 4991 0040 6946     		mov	r1, sp
 4992 0042 12A8     		add	r0, sp, #72
 4993 0044 FFF7FEFF 		bl	memcpy
 4994              	.LVL402:
 549:Task/Task_BlackBox.c ****     {
 4995              		.loc 1 549 5 is_stmt 1 view .LVU1395
 549:Task/Task_BlackBox.c ****     {
 4996              		.loc 1 549 19 is_stmt 0 view .LVU1396
 4997 0048 129B     		ldr	r3, [sp, #72]
 549:Task/Task_BlackBox.c ****     {
 4998              		.loc 1 549 8 view .LVU1397
 4999 004a 3BB9     		cbnz	r3, .L275
 552:Task/Task_BlackBox.c ****             return false;
 5000              		.loc 1 552 9 is_stmt 1 view .LVU1398
 552:Task/Task_BlackBox.c ****             return false;
 5001              		.loc 1 552 20 is_stmt 0 view .LVU1399
 5002 004c 0D4B     		ldr	r3, .L281
 5003 004e 9C68     		ldr	r4, [r3, #8]
 552:Task/Task_BlackBox.c ****             return false;
 5004              		.loc 1 552 13 view .LVU1400
 5005 0050 0623     		movs	r3, #6
 5006 0052 24AA     		add	r2, sp, #144
 5007 0054 0C49     		ldr	r1, .L281+4
 5008 0056 0220     		movs	r0, #2
 5009 0058 A047     		blx	r4
 5010              	.LVL403:
 552:Task/Task_BlackBox.c ****             return false;
 5011              		.loc 1 552 12 view .LVU1401
 5012 005a 78B9     		cbnz	r0, .L278
 5013              	.L275:
 556:Task/Task_BlackBox.c ****         return false;
 5014              		.loc 1 556 5 is_stmt 1 view .LVU1402
 556:Task/Task_BlackBox.c ****         return false;
 5015              		.loc 1 556 16 is_stmt 0 view .LVU1403
 5016 005c 094B     		ldr	r3, .L281
 5017 005e DC68     		ldr	r4, [r3, #12]
 556:Task/Task_BlackBox.c ****         return false;
 5018              		.loc 1 556 9 view .LVU1404
 5019 0060 0623     		movs	r3, #6
 5020 0062 24AA     		add	r2, sp, #144
 5021 0064 1E99     		ldr	r1, [sp, #120]
 5022 0066 0220     		movs	r0, #2
 5023 0068 A047     		blx	r4
 5024              	.LVL404:
 556:Task/Task_BlackBox.c ****         return false;
 5025              		.loc 1 556 8 view .LVU1405
 5026 006a 0A28     		cmp	r0, #10
 5027 006c 08D1     		bne	.L279
 559:Task/Task_BlackBox.c **** }
 5028              		.loc 1 559 12 view .LVU1406
ARM GAS  C:\Users\8bit\AppData\Local\Temp\cclQGHkl.s 			page 128


 5029 006e 0120     		movs	r0, #1
 5030 0070 00E0     		b	.L274
 5031              	.L276:
 530:Task/Task_BlackBox.c ****     }
 5032              		.loc 1 530 25 view .LVU1407
 5033 0072 0020     		movs	r0, #0
 5034              	.L274:
 560:Task/Task_BlackBox.c **** 
 5035              		.loc 1 560 1 view .LVU1408
 5036 0074 26B0     		add	sp, sp, #152
 5037              	.LCFI43:
 5038              		.cfi_remember_state
 5039              		.cfi_def_cfa_offset 16
 5040              		@ sp needed
 5041 0076 70BD     		pop	{r4, r5, r6, pc}
 5042              	.LVL405:
 5043              	.L277:
 5044              	.LCFI44:
 5045              		.cfi_restore_state
 541:Task/Task_BlackBox.c ****     }
 5046              		.loc 1 541 25 view .LVU1409
 5047 0078 0020     		movs	r0, #0
 5048 007a FBE7     		b	.L274
 5049              	.L278:
 553:Task/Task_BlackBox.c ****     }
 5050              		.loc 1 553 20 view .LVU1410
 5051 007c 0020     		movs	r0, #0
 5052 007e F9E7     		b	.L274
 5053              	.L279:
 557:Task/Task_BlackBox.c **** 
 5054              		.loc 1 557 16 view .LVU1411
 5055 0080 0020     		movs	r0, #0
 5056 0082 F7E7     		b	.L274
 5057              	.L282:
 5058              		.align	2
 5059              	.L281:
 5060 0084 00000000 		.word	Storage
 5061 0088 A8010000 		.word	.LC16
 5062              		.cfi_endproc
 5063              	.LFE155:
 5065              		.global	shellCommandblackbox_info
 5066              		.global	shellDescblackbox_info
 5067              		.global	shellCmdblackbox_info
 5068              		.global	shellCommandblackbox_disable
 5069              		.global	shellDescblackbox_disable
 5070              		.global	shellCmdblackbox_disable
 5071              		.global	shellCommandblackbox_enable
 5072              		.global	shellDescblackbox_enable
 5073              		.global	shellCmdblackbox_enable
 5074              		.global	shellCommandblackbox_set
 5075              		.global	shellDescblackbox_set
 5076              		.global	shellCmdblackbox_set
 5077              		.section	.Perph_Section,"aw"
 5078              		.align	2
 5079              		.set	.LANCHOR4,. + 0
 5082              	LogImu_Data_PipeDataObj:
 5083 0000 00000000 		.space	84
ARM GAS  C:\Users\8bit\AppData\Local\Temp\cclQGHkl.s 			page 129


 5083      00000000 
 5083      00000000 
 5083      00000000 
 5083      00000000 
 5086              	LogBaro_Data_PipeDataObj:
 5087 0054 00000000 		.space	28
 5087      00000000 
 5087      00000000 
 5087      00000000 
 5087      00000000 
 5090              	LogAtt_Data_PipeDataObj:
 5091 0070 00000000 		.space	34
 5091      00000000 
 5091      00000000 
 5091      00000000 
 5091      00000000 
 5092 0092 0000     		.space	2
 5095              	LogAlt_Data_PipeDataObj:
 5096 0094 00000000 		.space	8
 5096      00000000 
 5099              	LogCtl_Data_PipeDataObj:
 5100 009c 00000000 		.space	28
 5100      00000000 
 5100      00000000 
 5100      00000000 
 5100      00000000 
 5103              	BlackBox_Buff:
 5104 00b8 00000000 		.space	8192
 5104      00000000 
 5104      00000000 
 5104      00000000 
 5104      00000000 
 5105              		.section	.bss.BlackBox_Queue,"aw",%nobits
 5106              		.align	2
 5107              		.set	.LANCHOR0,. + 0
 5110              	BlackBox_Queue:
 5111 0000 00000000 		.space	17
 5111      00000000 
 5111      00000000 
 5111      00000000 
 5111      00
 5112              		.section	.bss.BlackBox_Sem,"aw",%nobits
 5113              		.align	2
 5114              		.set	.LANCHOR2,. + 0
 5117              	BlackBox_Sem:
 5118 0000 00000000 		.space	4
 5119              		.section	.bss.Monitor,"aw",%nobits
 5120              		.align	2
 5121              		.set	.LANCHOR1,. + 0
 5124              	Monitor:
 5125 0000 00000000 		.space	128
 5125      00000000 
 5125      00000000 
 5125      00000000 
 5125      00000000 
 5126              		.section	.bss.alt_update.2,"aw",%nobits
 5127              		.set	.LANCHOR9,. + 0
ARM GAS  C:\Users\8bit\AppData\Local\Temp\cclQGHkl.s 			page 130


 5130              	alt_update.2:
 5131 0000 00       		.space	1
 5132              		.section	.bss.ang_ctl_data.0,"aw",%nobits
 5133              		.align	2
 5134              		.set	.LANCHOR11,. + 0
 5137              	ang_ctl_data.0:
 5138 0000 00000000 		.space	29
 5138      00000000 
 5138      00000000 
 5138      00000000 
 5138      00000000 
 5139              		.section	.bss.att_alt_data.4,"aw",%nobits
 5140              		.align	2
 5141              		.set	.LANCHOR7,. + 0
 5144              	att_alt_data.4:
 5145 0000 00000000 		.space	44
 5145      00000000 
 5145      00000000 
 5145      00000000 
 5145      00000000 
 5146              		.section	.bss.att_ctl_data.1,"aw",%nobits
 5147              		.align	2
 5148              		.set	.LANCHOR10,. + 0
 5151              	att_ctl_data.1:
 5152 0000 00000000 		.space	29
 5152      00000000 
 5152      00000000 
 5152      00000000 
 5152      00000000 
 5153              		.section	.bss.att_update.3,"aw",%nobits
 5154              		.set	.LANCHOR8,. + 0
 5157              	att_update.3:
 5158 0000 00       		.space	1
 5159              		.section	.bss.baro_data.5,"aw",%nobits
 5160              		.align	2
 5161              		.set	.LANCHOR6,. + 0
 5164              	baro_data.5:
 5165 0000 00000000 		.space	16
 5165      00000000 
 5165      00000000 
 5165      00000000 
 5166              		.section	.bss.imu_data.6,"aw",%nobits
 5167              		.align	2
 5168              		.set	.LANCHOR5,. + 0
 5171              	imu_data.6:
 5172 0000 00000000 		.space	38
 5172      00000000 
 5172      00000000 
 5172      00000000 
 5172      00000000 
 5173              		.section	.bss.lst_state.7,"aw",%nobits
 5174              		.set	.LANCHOR3,. + 0
 5177              	lst_state.7:
 5178 0000 00       		.space	1
 5179              		.section	.bss.p_blackbox,"aw",%nobits
 5180              		.align	2
 5181              		.set	.LANCHOR12,. + 0
ARM GAS  C:\Users\8bit\AppData\Local\Temp\cclQGHkl.s 			page 131


 5184              	p_blackbox:
 5185 0000 00000000 		.space	4
 5186              		.section	.rodata.shellCmdblackbox_disable,"a"
 5187              		.align	2
 5190              	shellCmdblackbox_disable:
 5191 0000 626C6163 		.ascii	"blackbox_disable\000"
 5191      6B626F78 
 5191      5F646973 
 5191      61626C65 
 5191      00
 5192              		.section	.rodata.shellCmdblackbox_enable,"a"
 5193              		.align	2
 5196              	shellCmdblackbox_enable:
 5197 0000 626C6163 		.ascii	"blackbox_enable\000"
 5197      6B626F78 
 5197      5F656E61 
 5197      626C6500 
 5198              		.section	.rodata.shellCmdblackbox_info,"a"
 5199              		.align	2
 5202              	shellCmdblackbox_info:
 5203 0000 626C6163 		.ascii	"blackbox_info\000"
 5203      6B626F78 
 5203      5F696E66 
 5203      6F00
 5204              		.section	.rodata.shellCmdblackbox_set,"a"
 5205              		.align	2
 5208              	shellCmdblackbox_set:
 5209 0000 626C6163 		.ascii	"blackbox_set\000"
 5209      6B626F78 
 5209      5F736574 
 5209      00
 5210              		.section	.rodata.shellDescblackbox_disable,"a"
 5211              		.align	2
 5214              	shellDescblackbox_disable:
 5215 0000 626C6163 		.ascii	"blackbox end log\000"
 5215      6B626F78 
 5215      20656E64 
 5215      206C6F67 
 5215      00
 5216              		.section	.rodata.shellDescblackbox_enable,"a"
 5217              		.align	2
 5220              	shellDescblackbox_enable:
 5221 0000 626C6163 		.ascii	"blackbox start log\000"
 5221      6B626F78 
 5221      20737461 
 5221      7274206C 
 5221      6F6700
 5222              		.section	.rodata.shellDescblackbox_info,"a"
 5223              		.align	2
 5226              	shellDescblackbox_info:
 5227 0000 626C6163 		.ascii	"blackbox log info\000"
 5227      6B626F78 
 5227      206C6F67 
 5227      20696E66 
 5227      6F00
 5228              		.section	.rodata.shellDescblackbox_set,"a"
 5229              		.align	2
ARM GAS  C:\Users\8bit\AppData\Local\Temp\cclQGHkl.s 			page 132


 5232              	shellDescblackbox_set:
 5233 0000 73657420 		.ascii	"set blackbox log\000"
 5233      626C6163 
 5233      6B626F78 
 5233      206C6F67 
 5233      00
 5234              		.section	shellCommand,"a"
 5235              		.align	2
 5238              	shellCommandblackbox_info:
 5239 0000 00210000 		.word	8448
 5240 0004 00000000 		.word	shellCmdblackbox_info
 5241 0008 00000000 		.word	TaskBlackBox_GetLogInfo
 5242 000c 00000000 		.word	shellDescblackbox_info
 5245              	shellCommandblackbox_disable:
 5246 0010 00210000 		.word	8448
 5247 0014 00000000 		.word	shellCmdblackbox_disable
 5248 0018 00000000 		.word	TaskBlackBox_DisableLog
 5249 001c 00000000 		.word	shellDescblackbox_disable
 5252              	shellCommandblackbox_enable:
 5253 0020 00210000 		.word	8448
 5254 0024 00000000 		.word	shellCmdblackbox_enable
 5255 0028 00000000 		.word	TaskBlackBox_EnableLog
 5256 002c 00000000 		.word	shellDescblackbox_enable
 5259              	shellCommandblackbox_set:
 5260 0030 00210000 		.word	8448
 5261 0034 00000000 		.word	shellCmdblackbox_set
 5262 0038 00000000 		.word	TaskBlackBox_Set_Log
 5263 003c 00000000 		.word	shellDescblackbox_set
 5264              		.text
 5265              	.Letext0:
 5266              		.file 3 "c:\\program files (x86)\\gnu arm embedded toolchain\\10 2021.10\\lib\\gcc\\arm-none-eabi\
 5267              		.file 4 "c:\\program files (x86)\\gnu arm embedded toolchain\\10 2021.10\\arm-none-eabi\\include\\
 5268              		.file 5 "c:\\program files (x86)\\gnu arm embedded toolchain\\10 2021.10\\arm-none-eabi\\include\\
 5269              		.file 6 "System/FreeRTOS/portable/GCC/ARM_CM4F/portmacro.h"
 5270              		.file 7 "System/FreeRTOS/include/portable.h"
 5271              		.file 8 "System/FreeRTOS/include/FreeRTOS.h"
 5272              		.file 9 "common/gen_physic_def/imu_data.h"
 5273              		.file 10 "Task/Task_BlackBox.h"
 5274              		.file 11 "System/shell/shell.h"
 5275              		.file 12 "HW_Lib/AT32F435/drivers/inc/at32f435_437_tmr.h"
 5276              		.file 13 "Task/../DataStructure/CusQueue.h"
 5277              		.file 14 "System/FreeRTOS/include/queue.h"
 5278              		.file 15 "System/FreeRTOS/include/semphr.h"
 5279              		.file 16 "System/FreeRTOS/CMSIS_RTOS/cmsis_os.h"
 5280              		.file 17 "Service/Srv_OsCommon.h"
 5281              		.file 18 "common/gen_physic_def/pos_data.h"
 5282              		.file 19 "Device/Dev_Dshot.h"
 5283              		.file 20 "Service/Srv_IMUSample.h"
 5284              		.file 21 "Service/control_data.h"
 5285              		.file 22 "Service/Srv_Baro.h"
 5286              		.file 23 "Task/../System/storage/Storage_Dev_Port.h"
 5287              		.file 24 "Task/../System/storage/Storage.h"
 5288              		.file 25 "Service/Srv_BlackBox_Def.h"
 5289              		.file 26 "c:\\program files (x86)\\gnu arm embedded toolchain\\10 2021.10\\arm-none-eabi\\include\
 5290              		.file 27 "<built-in>"
 5291              		.file 28 "System/shell/shell_port.h"
 5292              		.file 29 "System/FreeRTOS/include/task.h"
ARM GAS  C:\Users\8bit\AppData\Local\Temp\cclQGHkl.s 			page 133


ARM GAS  C:\Users\8bit\AppData\Local\Temp\cclQGHkl.s 			page 134


DEFINED SYMBOLS
                            *ABS*:00000000 Task_BlackBox.c
C:\Users\8bit\AppData\Local\Temp\cclQGHkl.s:20     .text.TaskBlackBox_Get_CheckSum:00000000 $t
C:\Users\8bit\AppData\Local\Temp\cclQGHkl.s:25     .text.TaskBlackBox_Get_CheckSum:00000000 TaskBlackBox_Get_CheckSum
C:\Users\8bit\AppData\Local\Temp\cclQGHkl.s:93     .text.TaskBlackBox_PushFinish_Callback:00000000 $t
C:\Users\8bit\AppData\Local\Temp\cclQGHkl.s:98     .text.TaskBlackBox_PushFinish_Callback:00000000 TaskBlackBox_PushFinish_Callback
C:\Users\8bit\AppData\Local\Temp\cclQGHkl.s:111    .text.TaskBlackBox_UpdateQueue:00000000 $t
C:\Users\8bit\AppData\Local\Temp\cclQGHkl.s:116    .text.TaskBlackBox_UpdateQueue:00000000 TaskBlackBox_UpdateQueue
C:\Users\8bit\AppData\Local\Temp\cclQGHkl.s:250    .text.TaskBlackBox_UpdateQueue:0000007c $d
C:\Users\8bit\AppData\Local\Temp\cclQGHkl.s:258    .text.TaskBlackBox_PipeTransFinish_Callback:00000000 $t
C:\Users\8bit\AppData\Local\Temp\cclQGHkl.s:263    .text.TaskBlackBox_PipeTransFinish_Callback:00000000 TaskBlackBox_PipeTransFinish_Callback
C:\Users\8bit\AppData\Local\Temp\cclQGHkl.s:847    .text.TaskBlackBox_PipeTransFinish_Callback:00000314 $d
C:\Users\8bit\AppData\Local\Temp\cclQGHkl.s:865    .text.TaskBlackBox_PipeTransFinish_Callback:00000350 $t
C:\Users\8bit\AppData\Local\Temp\cclQGHkl.s:1093   .text.TaskBlackBox_PipeTransFinish_Callback:00000478 $d
C:\Users\8bit\AppData\Local\Temp\cclQGHkl.s:1104   .rodata.TaskBlackBox_Set_Log.str1.4:00000000 $d
C:\Users\8bit\AppData\Local\Temp\cclQGHkl.s:1166   .text.TaskBlackBox_Set_Log:00000000 $t
C:\Users\8bit\AppData\Local\Temp\cclQGHkl.s:1171   .text.TaskBlackBox_Set_Log:00000000 TaskBlackBox_Set_Log
C:\Users\8bit\AppData\Local\Temp\cclQGHkl.s:1404   .text.TaskBlackBox_Set_Log:00000118 $d
C:\Users\8bit\AppData\Local\Temp\cclQGHkl.s:1429   .rodata.TaskBlackBox_EnableLog.str1.4:00000000 $d
C:\Users\8bit\AppData\Local\Temp\cclQGHkl.s:1436   .text.TaskBlackBox_EnableLog:00000000 $t
C:\Users\8bit\AppData\Local\Temp\cclQGHkl.s:1441   .text.TaskBlackBox_EnableLog:00000000 TaskBlackBox_EnableLog
C:\Users\8bit\AppData\Local\Temp\cclQGHkl.s:1515   .text.TaskBlackBox_EnableLog:00000040 $d
C:\Users\8bit\AppData\Local\Temp\cclQGHkl.s:1525   .rodata.TaskBlackBox_DisableLog.str1.4:00000000 $d
C:\Users\8bit\AppData\Local\Temp\cclQGHkl.s:1529   .text.TaskBlackBox_DisableLog:00000000 $t
C:\Users\8bit\AppData\Local\Temp\cclQGHkl.s:1534   .text.TaskBlackBox_DisableLog:00000000 TaskBlackBox_DisableLog
C:\Users\8bit\AppData\Local\Temp\cclQGHkl.s:1572   .text.TaskBlackBox_DisableLog:0000001c $d
C:\Users\8bit\AppData\Local\Temp\cclQGHkl.s:1579   .rodata.TaskBlackBox_ConvertLogData_To_Header.str1.4:00000000 $d
C:\Users\8bit\AppData\Local\Temp\cclQGHkl.s:1586   .text.TaskBlackBox_ConvertLogData_To_Header:00000000 $t
C:\Users\8bit\AppData\Local\Temp\cclQGHkl.s:1591   .text.TaskBlackBox_ConvertLogData_To_Header:00000000 TaskBlackBox_ConvertLogData_To_Header
C:\Users\8bit\AppData\Local\Temp\cclQGHkl.s:1765   .text.TaskBlackBox_ConvertLogData_To_Header:0000008c $d
C:\Users\8bit\AppData\Local\Temp\cclQGHkl.s:1771   .rodata.TaskBlackBox_ConvertLogData_To_IMU.str1.4:00000000 $d
C:\Users\8bit\AppData\Local\Temp\cclQGHkl.s:1782   .text.TaskBlackBox_ConvertLogData_To_IMU:00000000 $t
C:\Users\8bit\AppData\Local\Temp\cclQGHkl.s:1787   .text.TaskBlackBox_ConvertLogData_To_IMU:00000000 TaskBlackBox_ConvertLogData_To_IMU
C:\Users\8bit\AppData\Local\Temp\cclQGHkl.s:2190   .text.TaskBlackBox_ConvertLogData_To_IMU:000002cc $d
C:\Users\8bit\AppData\Local\Temp\cclQGHkl.s:2197   .text.TaskBlackBox_ConvertLogData_To_Alt_Att:00000000 $t
C:\Users\8bit\AppData\Local\Temp\cclQGHkl.s:2202   .text.TaskBlackBox_ConvertLogData_To_Alt_Att:00000000 TaskBlackBox_ConvertLogData_To_Alt_Att
C:\Users\8bit\AppData\Local\Temp\cclQGHkl.s:2534   .text.TaskBlackBox_ConvertLogData_To_Alt_Att:000001fc $d
C:\Users\8bit\AppData\Local\Temp\cclQGHkl.s:2541   .text.TaskBlackBox_ConvertLogData_To_CtlAng:00000000 $t
C:\Users\8bit\AppData\Local\Temp\cclQGHkl.s:2546   .text.TaskBlackBox_ConvertLogData_To_CtlAng:00000000 TaskBlackBox_ConvertLogData_To_CtlAng
C:\Users\8bit\AppData\Local\Temp\cclQGHkl.s:2764   .text.TaskBlackBox_ConvertLogData_To_CtlAng:000000f8 $d
C:\Users\8bit\AppData\Local\Temp\cclQGHkl.s:2771   .text.TaskBlackBox_ConvertLogData_To_CtlAtt:00000000 $t
C:\Users\8bit\AppData\Local\Temp\cclQGHkl.s:2776   .text.TaskBlackBox_ConvertLogData_To_CtlAtt:00000000 TaskBlackBox_ConvertLogData_To_CtlAtt
C:\Users\8bit\AppData\Local\Temp\cclQGHkl.s:2994   .text.TaskBlackBox_ConvertLogData_To_CtlAtt:000000f8 $d
C:\Users\8bit\AppData\Local\Temp\cclQGHkl.s:3001   .rodata.TaskBlackBox_ConvertLogData_To_Ender.str1.4:00000000 $d
C:\Users\8bit\AppData\Local\Temp\cclQGHkl.s:3005   .text.TaskBlackBox_ConvertLogData_To_Ender:00000000 $t
C:\Users\8bit\AppData\Local\Temp\cclQGHkl.s:3010   .text.TaskBlackBox_ConvertLogData_To_Ender:00000000 TaskBlackBox_ConvertLogData_To_Ender
C:\Users\8bit\AppData\Local\Temp\cclQGHkl.s:3133   .text.TaskBlackBox_ConvertLogData_To_Ender:00000068 $d
C:\Users\8bit\AppData\Local\Temp\cclQGHkl.s:3138   .rodata.TaskBlackBox_GetLogInfo.str1.4:00000000 $d
C:\Users\8bit\AppData\Local\Temp\cclQGHkl.s:3172   .text.TaskBlackBox_GetLogInfo:00000000 $t
C:\Users\8bit\AppData\Local\Temp\cclQGHkl.s:3177   .text.TaskBlackBox_GetLogInfo:00000000 TaskBlackBox_GetLogInfo
C:\Users\8bit\AppData\Local\Temp\cclQGHkl.s:3752   .text.TaskBlackBox_GetLogInfo:000002c0 $d
C:\Users\8bit\AppData\Local\Temp\cclQGHkl.s:3764   .text.TaskBlackBox_GetLogInfo:000002e8 $t
C:\Users\8bit\AppData\Local\Temp\cclQGHkl.s:3816   .text.TaskBlackBox_GetLogInfo:00000332 $d
C:\Users\8bit\AppData\Local\Temp\cclQGHkl.s:3820   .text.TaskBlackBox_GetLogInfo:00000336 $t
C:\Users\8bit\AppData\Local\Temp\cclQGHkl.s:4062   .text.TaskBlackBox_GetLogInfo:00000474 $d
C:\Users\8bit\AppData\Local\Temp\cclQGHkl.s:4066   .text.TaskBlackBox_GetLogInfo:00000484 $t
C:\Users\8bit\AppData\Local\Temp\cclQGHkl.s:4086   .text.TaskBlackBox_GetLogInfo:00000498 $d
ARM GAS  C:\Users\8bit\AppData\Local\Temp\cclQGHkl.s 			page 135


C:\Users\8bit\AppData\Local\Temp\cclQGHkl.s:4095   .rodata.TaskBlackBox_Init.str1.4:00000000 $d
C:\Users\8bit\AppData\Local\Temp\cclQGHkl.s:4099   .text.TaskBlackBox_Init:00000000 $t
C:\Users\8bit\AppData\Local\Temp\cclQGHkl.s:4105   .text.TaskBlackBox_Init:00000000 TaskBlackBox_Init
C:\Users\8bit\AppData\Local\Temp\cclQGHkl.s:4671   .text.TaskBlackBox_Init:000002b0 $d
C:\Users\8bit\AppData\Local\Temp\cclQGHkl.s:5103   .Perph_Section:000000b8 BlackBox_Buff
C:\Users\8bit\AppData\Local\Temp\cclQGHkl.s:4696   .text.TaskBlackBox_Core:00000000 $t
C:\Users\8bit\AppData\Local\Temp\cclQGHkl.s:4702   .text.TaskBlackBox_Core:00000000 TaskBlackBox_Core
C:\Users\8bit\AppData\Local\Temp\cclQGHkl.s:4829   .text.TaskBlackBox_Core:00000088 $d
C:\Users\8bit\AppData\Local\Temp\cclQGHkl.s:4839   .text.TaskBlackBox_LogControl:00000000 $t
C:\Users\8bit\AppData\Local\Temp\cclQGHkl.s:4845   .text.TaskBlackBox_LogControl:00000000 TaskBlackBox_LogControl
C:\Users\8bit\AppData\Local\Temp\cclQGHkl.s:4909   .text.TaskBlackBox_LogControl:00000038 $d
C:\Users\8bit\AppData\Local\Temp\cclQGHkl.s:4917   .text.TaskBlackBox_Set_LogInfo:00000000 $t
C:\Users\8bit\AppData\Local\Temp\cclQGHkl.s:4923   .text.TaskBlackBox_Set_LogInfo:00000000 TaskBlackBox_Set_LogInfo
C:\Users\8bit\AppData\Local\Temp\cclQGHkl.s:5060   .text.TaskBlackBox_Set_LogInfo:00000084 $d
C:\Users\8bit\AppData\Local\Temp\cclQGHkl.s:5238   shellCommand:00000000 shellCommandblackbox_info
C:\Users\8bit\AppData\Local\Temp\cclQGHkl.s:5226   .rodata.shellDescblackbox_info:00000000 shellDescblackbox_info
C:\Users\8bit\AppData\Local\Temp\cclQGHkl.s:5202   .rodata.shellCmdblackbox_info:00000000 shellCmdblackbox_info
C:\Users\8bit\AppData\Local\Temp\cclQGHkl.s:5245   shellCommand:00000010 shellCommandblackbox_disable
C:\Users\8bit\AppData\Local\Temp\cclQGHkl.s:5214   .rodata.shellDescblackbox_disable:00000000 shellDescblackbox_disable
C:\Users\8bit\AppData\Local\Temp\cclQGHkl.s:5190   .rodata.shellCmdblackbox_disable:00000000 shellCmdblackbox_disable
C:\Users\8bit\AppData\Local\Temp\cclQGHkl.s:5252   shellCommand:00000020 shellCommandblackbox_enable
C:\Users\8bit\AppData\Local\Temp\cclQGHkl.s:5220   .rodata.shellDescblackbox_enable:00000000 shellDescblackbox_enable
C:\Users\8bit\AppData\Local\Temp\cclQGHkl.s:5196   .rodata.shellCmdblackbox_enable:00000000 shellCmdblackbox_enable
C:\Users\8bit\AppData\Local\Temp\cclQGHkl.s:5259   shellCommand:00000030 shellCommandblackbox_set
C:\Users\8bit\AppData\Local\Temp\cclQGHkl.s:5232   .rodata.shellDescblackbox_set:00000000 shellDescblackbox_set
C:\Users\8bit\AppData\Local\Temp\cclQGHkl.s:5208   .rodata.shellCmdblackbox_set:00000000 shellCmdblackbox_set
C:\Users\8bit\AppData\Local\Temp\cclQGHkl.s:5078   .Perph_Section:00000000 $d
C:\Users\8bit\AppData\Local\Temp\cclQGHkl.s:5082   .Perph_Section:00000000 LogImu_Data_PipeDataObj
C:\Users\8bit\AppData\Local\Temp\cclQGHkl.s:5086   .Perph_Section:00000054 LogBaro_Data_PipeDataObj
C:\Users\8bit\AppData\Local\Temp\cclQGHkl.s:5090   .Perph_Section:00000070 LogAtt_Data_PipeDataObj
C:\Users\8bit\AppData\Local\Temp\cclQGHkl.s:5095   .Perph_Section:00000094 LogAlt_Data_PipeDataObj
C:\Users\8bit\AppData\Local\Temp\cclQGHkl.s:5099   .Perph_Section:0000009c LogCtl_Data_PipeDataObj
C:\Users\8bit\AppData\Local\Temp\cclQGHkl.s:5106   .bss.BlackBox_Queue:00000000 $d
C:\Users\8bit\AppData\Local\Temp\cclQGHkl.s:5110   .bss.BlackBox_Queue:00000000 BlackBox_Queue
C:\Users\8bit\AppData\Local\Temp\cclQGHkl.s:5113   .bss.BlackBox_Sem:00000000 $d
C:\Users\8bit\AppData\Local\Temp\cclQGHkl.s:5117   .bss.BlackBox_Sem:00000000 BlackBox_Sem
C:\Users\8bit\AppData\Local\Temp\cclQGHkl.s:5120   .bss.Monitor:00000000 $d
C:\Users\8bit\AppData\Local\Temp\cclQGHkl.s:5124   .bss.Monitor:00000000 Monitor
C:\Users\8bit\AppData\Local\Temp\cclQGHkl.s:5130   .bss.alt_update.2:00000000 alt_update.2
C:\Users\8bit\AppData\Local\Temp\cclQGHkl.s:5131   .bss.alt_update.2:00000000 $d
C:\Users\8bit\AppData\Local\Temp\cclQGHkl.s:5133   .bss.ang_ctl_data.0:00000000 $d
C:\Users\8bit\AppData\Local\Temp\cclQGHkl.s:5137   .bss.ang_ctl_data.0:00000000 ang_ctl_data.0
C:\Users\8bit\AppData\Local\Temp\cclQGHkl.s:5140   .bss.att_alt_data.4:00000000 $d
C:\Users\8bit\AppData\Local\Temp\cclQGHkl.s:5144   .bss.att_alt_data.4:00000000 att_alt_data.4
C:\Users\8bit\AppData\Local\Temp\cclQGHkl.s:5147   .bss.att_ctl_data.1:00000000 $d
C:\Users\8bit\AppData\Local\Temp\cclQGHkl.s:5151   .bss.att_ctl_data.1:00000000 att_ctl_data.1
C:\Users\8bit\AppData\Local\Temp\cclQGHkl.s:5157   .bss.att_update.3:00000000 att_update.3
C:\Users\8bit\AppData\Local\Temp\cclQGHkl.s:5158   .bss.att_update.3:00000000 $d
C:\Users\8bit\AppData\Local\Temp\cclQGHkl.s:5160   .bss.baro_data.5:00000000 $d
C:\Users\8bit\AppData\Local\Temp\cclQGHkl.s:5164   .bss.baro_data.5:00000000 baro_data.5
C:\Users\8bit\AppData\Local\Temp\cclQGHkl.s:5167   .bss.imu_data.6:00000000 $d
C:\Users\8bit\AppData\Local\Temp\cclQGHkl.s:5171   .bss.imu_data.6:00000000 imu_data.6
C:\Users\8bit\AppData\Local\Temp\cclQGHkl.s:5177   .bss.lst_state.7:00000000 lst_state.7
C:\Users\8bit\AppData\Local\Temp\cclQGHkl.s:5178   .bss.lst_state.7:00000000 $d
C:\Users\8bit\AppData\Local\Temp\cclQGHkl.s:5180   .bss.p_blackbox:00000000 $d
C:\Users\8bit\AppData\Local\Temp\cclQGHkl.s:5184   .bss.p_blackbox:00000000 p_blackbox
C:\Users\8bit\AppData\Local\Temp\cclQGHkl.s:5187   .rodata.shellCmdblackbox_disable:00000000 $d
ARM GAS  C:\Users\8bit\AppData\Local\Temp\cclQGHkl.s 			page 136


C:\Users\8bit\AppData\Local\Temp\cclQGHkl.s:5193   .rodata.shellCmdblackbox_enable:00000000 $d
C:\Users\8bit\AppData\Local\Temp\cclQGHkl.s:5199   .rodata.shellCmdblackbox_info:00000000 $d
C:\Users\8bit\AppData\Local\Temp\cclQGHkl.s:5205   .rodata.shellCmdblackbox_set:00000000 $d
C:\Users\8bit\AppData\Local\Temp\cclQGHkl.s:5211   .rodata.shellDescblackbox_disable:00000000 $d
C:\Users\8bit\AppData\Local\Temp\cclQGHkl.s:5217   .rodata.shellDescblackbox_enable:00000000 $d
C:\Users\8bit\AppData\Local\Temp\cclQGHkl.s:5223   .rodata.shellDescblackbox_info:00000000 $d
C:\Users\8bit\AppData\Local\Temp\cclQGHkl.s:5229   .rodata.shellDescblackbox_set:00000000 $d
C:\Users\8bit\AppData\Local\Temp\cclQGHkl.s:5235   shellCommand:00000000 $d

UNDEFINED SYMBOLS
osSemaphoreRelease
Queue
IMU_Log_DataPipe
Baro_Log_DataPipe
Attitude_Log_DataPipe
Altitude_Log_DataPipe
CtlData_Log_DataPipe
Shell_GetInstence
shellPrint
Storage
__aeabi_f2d
memcpy
memmove
memset
osSemaphoreCreate
SrvPort_BlackBox
SrvOsCommon
SrvChip_BlackBox
SrvCard_BlackBox
vTaskDelete
osSemaphoreWait
