ARM GAS  C:\Users\HUAV\AppData\Local\Temp\cco93vGw.s 			page 1


   1              		.cpu cortex-m7
   2              		.eabi_attribute 28, 1
   3              		.eabi_attribute 20, 1
   4              		.eabi_attribute 21, 1
   5              		.eabi_attribute 23, 3
   6              		.eabi_attribute 24, 1
   7              		.eabi_attribute 25, 1
   8              		.eabi_attribute 26, 1
   9              		.eabi_attribute 30, 1
  10              		.eabi_attribute 34, 1
  11              		.eabi_attribute 18, 4
  12              		.file	"Task_Manager.c"
  13              		.text
  14              	.Ltext0:
  15              		.cfi_sections	.debug_frame
  16              		.section	.text.test_PC0_ctl,"ax",%progbits
  17              		.align	1
  18              		.global	test_PC0_ctl
  19              		.arch armv7e-m
  20              		.syntax unified
  21              		.thumb
  22              		.thumb_func
  23              		.fpu fpv5-d16
  25              	test_PC0_ctl:
  26              	.LFB150:
  27              		.file 1 "Task/Task_Manager.c"
   1:Task/Task_Manager.c **** #include "Task_Manager.h"
   2:Task/Task_Manager.c **** #include "Task_Log.h"
   3:Task/Task_Manager.c **** #include "Task_Protocol.h"
   4:Task/Task_Manager.c **** #include "Task_Control.h"
   5:Task/Task_Manager.c **** #include "Task_SensorInertial.h"
   6:Task/Task_Manager.c **** #include "Task_Telemetry.h"
   7:Task/Task_Manager.c **** #include "scheduler.h"
   8:Task/Task_Manager.c **** #include "debug_util.h"
   9:Task/Task_Manager.c **** #include "IO_Definition.h"
  10:Task/Task_Manager.c **** #include "runtime.h"
  11:Task/Task_Manager.c **** #include "Dev_Led.h"
  12:Task/Task_Manager.c **** #include "DiskIO.h"
  13:Task/Task_Manager.c **** #include "DataPipe/DataPipe.h"
  14:Task/Task_Manager.c **** 
  15:Task/Task_Manager.c **** Task_Handle TaskProtocol_Handle = NULL;
  16:Task/Task_Manager.c **** Task_Handle TaskInertial_Handle = NULL;
  17:Task/Task_Manager.c **** Task_Handle TaskControl_Handle = NULL;
  18:Task/Task_Manager.c **** Task_Handle TaskLog_Handle = NULL;
  19:Task/Task_Manager.c **** Task_Handle TestTelemetry_Handle = NULL;
  20:Task/Task_Manager.c **** 
  21:Task/Task_Manager.c **** void Test2(Task_Handle handle);
  22:Task/Task_Manager.c **** 
  23:Task/Task_Manager.c **** void test_PC0_ctl(void)
  24:Task/Task_Manager.c **** {
  28              		.loc 1 24 1 view -0
  29              		.cfi_startproc
  30              		@ args = 0, pretend = 0, frame = 0
  31              		@ frame_needed = 0, uses_anonymous_args = 0
  32 0000 70B5     		push	{r4, r5, r6, lr}
  33              	.LCFI0:
  34              		.cfi_def_cfa_offset 16
ARM GAS  C:\Users\HUAV\AppData\Local\Temp\cco93vGw.s 			page 2


  35              		.cfi_offset 4, -16
  36              		.cfi_offset 5, -12
  37              		.cfi_offset 6, -8
  38              		.cfi_offset 14, -4
  25:Task/Task_Manager.c ****     DebugPin.ctl(Debug_PC0, true);
  39              		.loc 1 25 5 view .LVU1
  40              		.loc 1 25 13 is_stmt 0 view .LVU2
  41 0002 064D     		ldr	r5, .L3
  42 0004 6E68     		ldr	r6, [r5, #4]
  43              		.loc 1 25 5 view .LVU3
  44 0006 064C     		ldr	r4, .L3+4
  45 0008 0123     		movs	r3, #1
  46 000a 94E80700 		ldm	r4, {r0, r1, r2}
  47 000e B047     		blx	r6
  48              	.LVL0:
  26:Task/Task_Manager.c ****     DebugPin.ctl(Debug_PC0, false);
  49              		.loc 1 26 5 is_stmt 1 view .LVU4
  50              		.loc 1 26 13 is_stmt 0 view .LVU5
  51 0010 6D68     		ldr	r5, [r5, #4]
  52              		.loc 1 26 5 view .LVU6
  53 0012 0023     		movs	r3, #0
  54 0014 94E80700 		ldm	r4, {r0, r1, r2}
  55 0018 A847     		blx	r5
  56              	.LVL1:
  27:Task/Task_Manager.c **** }
  57              		.loc 1 27 1 view .LVU7
  58 001a 70BD     		pop	{r4, r5, r6, pc}
  59              	.L4:
  60              		.align	2
  61              	.L3:
  62 001c 00000000 		.word	DebugPin
  63 0020 00000000 		.word	Debug_PC0
  64              		.cfi_endproc
  65              	.LFE150:
  67              		.section	.text.test_PC1_ctl,"ax",%progbits
  68              		.align	1
  69              		.global	test_PC1_ctl
  70              		.syntax unified
  71              		.thumb
  72              		.thumb_func
  73              		.fpu fpv5-d16
  75              	test_PC1_ctl:
  76              	.LFB151:
  28:Task/Task_Manager.c **** 
  29:Task/Task_Manager.c **** void test_PC1_ctl(void)
  30:Task/Task_Manager.c **** {
  77              		.loc 1 30 1 is_stmt 1 view -0
  78              		.cfi_startproc
  79              		@ args = 0, pretend = 0, frame = 0
  80              		@ frame_needed = 0, uses_anonymous_args = 0
  81 0000 70B5     		push	{r4, r5, r6, lr}
  82              	.LCFI1:
  83              		.cfi_def_cfa_offset 16
  84              		.cfi_offset 4, -16
  85              		.cfi_offset 5, -12
  86              		.cfi_offset 6, -8
  87              		.cfi_offset 14, -4
ARM GAS  C:\Users\HUAV\AppData\Local\Temp\cco93vGw.s 			page 3


  31:Task/Task_Manager.c ****     DebugPin.ctl(Debug_PC1, true);
  88              		.loc 1 31 5 view .LVU9
  89              		.loc 1 31 13 is_stmt 0 view .LVU10
  90 0002 064D     		ldr	r5, .L7
  91 0004 6E68     		ldr	r6, [r5, #4]
  92              		.loc 1 31 5 view .LVU11
  93 0006 064C     		ldr	r4, .L7+4
  94 0008 0123     		movs	r3, #1
  95 000a 94E80700 		ldm	r4, {r0, r1, r2}
  96 000e B047     		blx	r6
  97              	.LVL2:
  32:Task/Task_Manager.c ****     DebugPin.ctl(Debug_PC1, false);
  98              		.loc 1 32 5 is_stmt 1 view .LVU12
  99              		.loc 1 32 13 is_stmt 0 view .LVU13
 100 0010 6D68     		ldr	r5, [r5, #4]
 101              		.loc 1 32 5 view .LVU14
 102 0012 0023     		movs	r3, #0
 103 0014 94E80700 		ldm	r4, {r0, r1, r2}
 104 0018 A847     		blx	r5
 105              	.LVL3:
  33:Task/Task_Manager.c **** }
 106              		.loc 1 33 1 view .LVU15
 107 001a 70BD     		pop	{r4, r5, r6, pc}
 108              	.L8:
 109              		.align	2
 110              	.L7:
 111 001c 00000000 		.word	DebugPin
 112 0020 00000000 		.word	Debug_PC1
 113              		.cfi_endproc
 114              	.LFE151:
 116              		.section	.text.test_PC2_ctl,"ax",%progbits
 117              		.align	1
 118              		.global	test_PC2_ctl
 119              		.syntax unified
 120              		.thumb
 121              		.thumb_func
 122              		.fpu fpv5-d16
 124              	test_PC2_ctl:
 125              	.LFB152:
  34:Task/Task_Manager.c **** 
  35:Task/Task_Manager.c **** void test_PC2_ctl(void)
  36:Task/Task_Manager.c **** {
 126              		.loc 1 36 1 is_stmt 1 view -0
 127              		.cfi_startproc
 128              		@ args = 0, pretend = 0, frame = 0
 129              		@ frame_needed = 0, uses_anonymous_args = 0
 130 0000 70B5     		push	{r4, r5, r6, lr}
 131              	.LCFI2:
 132              		.cfi_def_cfa_offset 16
 133              		.cfi_offset 4, -16
 134              		.cfi_offset 5, -12
 135              		.cfi_offset 6, -8
 136              		.cfi_offset 14, -4
  37:Task/Task_Manager.c ****     DebugPin.ctl(Debug_PC2, true);
 137              		.loc 1 37 5 view .LVU17
 138              		.loc 1 37 13 is_stmt 0 view .LVU18
 139 0002 064D     		ldr	r5, .L11
ARM GAS  C:\Users\HUAV\AppData\Local\Temp\cco93vGw.s 			page 4


 140 0004 6E68     		ldr	r6, [r5, #4]
 141              		.loc 1 37 5 view .LVU19
 142 0006 064C     		ldr	r4, .L11+4
 143 0008 0123     		movs	r3, #1
 144 000a 94E80700 		ldm	r4, {r0, r1, r2}
 145 000e B047     		blx	r6
 146              	.LVL4:
  38:Task/Task_Manager.c ****     DebugPin.ctl(Debug_PC2, false);
 147              		.loc 1 38 5 is_stmt 1 view .LVU20
 148              		.loc 1 38 13 is_stmt 0 view .LVU21
 149 0010 6D68     		ldr	r5, [r5, #4]
 150              		.loc 1 38 5 view .LVU22
 151 0012 0023     		movs	r3, #0
 152 0014 94E80700 		ldm	r4, {r0, r1, r2}
 153 0018 A847     		blx	r5
 154              	.LVL5:
  39:Task/Task_Manager.c **** }
 155              		.loc 1 39 1 view .LVU23
 156 001a 70BD     		pop	{r4, r5, r6, pc}
 157              	.L12:
 158              		.align	2
 159              	.L11:
 160 001c 00000000 		.word	DebugPin
 161 0020 00000000 		.word	Debug_PC2
 162              		.cfi_endproc
 163              	.LFE152:
 165              		.section	.text.Task_Manager_Init,"ax",%progbits
 166              		.align	1
 167              		.global	Task_Manager_Init
 168              		.syntax unified
 169              		.thumb
 170              		.thumb_func
 171              		.fpu fpv5-d16
 173              	Task_Manager_Init:
 174              	.LFB153:
  40:Task/Task_Manager.c **** 
  41:Task/Task_Manager.c **** void Task_Manager_Init(void)
  42:Task/Task_Manager.c **** {
 175              		.loc 1 42 1 is_stmt 1 view -0
 176              		.cfi_startproc
 177              		@ args = 0, pretend = 0, frame = 0
 178              		@ frame_needed = 0, uses_anonymous_args = 0
 179 0000 38B5     		push	{r3, r4, r5, lr}
 180              	.LCFI3:
 181              		.cfi_def_cfa_offset 16
 182              		.cfi_offset 3, -16
 183              		.cfi_offset 4, -12
 184              		.cfi_offset 5, -8
 185              		.cfi_offset 14, -4
  43:Task/Task_Manager.c ****     DevLED.init(Led1);
 186              		.loc 1 43 5 view .LVU25
 187              		.loc 1 43 11 is_stmt 0 view .LVU26
 188 0002 254C     		ldr	r4, .L15
 189 0004 2568     		ldr	r5, [r4]
 190              		.loc 1 43 5 view .LVU27
 191 0006 254B     		ldr	r3, .L15+4
 192 0008 93E80700 		ldm	r3, {r0, r1, r2}
ARM GAS  C:\Users\HUAV\AppData\Local\Temp\cco93vGw.s 			page 5


 193 000c A847     		blx	r5
 194              	.LVL6:
  44:Task/Task_Manager.c ****     DevLED.init(Led2);
 195              		.loc 1 44 5 is_stmt 1 view .LVU28
 196              		.loc 1 44 11 is_stmt 0 view .LVU29
 197 000e 2568     		ldr	r5, [r4]
 198              		.loc 1 44 5 view .LVU30
 199 0010 234B     		ldr	r3, .L15+8
 200 0012 93E80700 		ldm	r3, {r0, r1, r2}
 201 0016 A847     		blx	r5
 202              	.LVL7:
  45:Task/Task_Manager.c ****     DevLED.init(Led3);
 203              		.loc 1 45 5 is_stmt 1 view .LVU31
 204              		.loc 1 45 11 is_stmt 0 view .LVU32
 205 0018 2468     		ldr	r4, [r4]
 206              		.loc 1 45 5 view .LVU33
 207 001a 224B     		ldr	r3, .L15+12
 208 001c 93E80700 		ldm	r3, {r0, r1, r2}
 209 0020 A047     		blx	r4
 210              	.LVL8:
  46:Task/Task_Manager.c **** 
  47:Task/Task_Manager.c ****     DebugPin.init(Debug_PC0);
 211              		.loc 1 47 5 is_stmt 1 view .LVU34
 212              		.loc 1 47 13 is_stmt 0 view .LVU35
 213 0022 214C     		ldr	r4, .L15+16
 214 0024 2568     		ldr	r5, [r4]
 215              		.loc 1 47 5 view .LVU36
 216 0026 214B     		ldr	r3, .L15+20
 217 0028 93E80700 		ldm	r3, {r0, r1, r2}
 218 002c A847     		blx	r5
 219              	.LVL9:
  48:Task/Task_Manager.c ****     DebugPin.init(Debug_PC1);
 220              		.loc 1 48 5 is_stmt 1 view .LVU37
 221              		.loc 1 48 13 is_stmt 0 view .LVU38
 222 002e 2568     		ldr	r5, [r4]
 223              		.loc 1 48 5 view .LVU39
 224 0030 1F4B     		ldr	r3, .L15+24
 225 0032 93E80700 		ldm	r3, {r0, r1, r2}
 226 0036 A847     		blx	r5
 227              	.LVL10:
  49:Task/Task_Manager.c ****     DebugPin.init(Debug_PC2);
 228              		.loc 1 49 5 is_stmt 1 view .LVU40
 229              		.loc 1 49 13 is_stmt 0 view .LVU41
 230 0038 2568     		ldr	r5, [r4]
 231              		.loc 1 49 5 view .LVU42
 232 003a 1E4B     		ldr	r3, .L15+28
 233 003c 93E80700 		ldm	r3, {r0, r1, r2}
 234 0040 A847     		blx	r5
 235              	.LVL11:
  50:Task/Task_Manager.c ****     DebugPin.init(Debug_PC3);
 236              		.loc 1 50 5 is_stmt 1 view .LVU43
 237              		.loc 1 50 13 is_stmt 0 view .LVU44
 238 0042 2568     		ldr	r5, [r4]
 239              		.loc 1 50 5 view .LVU45
 240 0044 1C4B     		ldr	r3, .L15+32
 241 0046 93E80700 		ldm	r3, {r0, r1, r2}
 242 004a A847     		blx	r5
ARM GAS  C:\Users\HUAV\AppData\Local\Temp\cco93vGw.s 			page 6


 243              	.LVL12:
  51:Task/Task_Manager.c ****     DebugPin.init(Debug_PB3);
 244              		.loc 1 51 5 is_stmt 1 view .LVU46
 245              		.loc 1 51 13 is_stmt 0 view .LVU47
 246 004c 2568     		ldr	r5, [r4]
 247              		.loc 1 51 5 view .LVU48
 248 004e 1B4B     		ldr	r3, .L15+36
 249 0050 93E80700 		ldm	r3, {r0, r1, r2}
 250 0054 A847     		blx	r5
 251              	.LVL13:
  52:Task/Task_Manager.c ****     DebugPin.init(Debug_PB4);
 252              		.loc 1 52 5 is_stmt 1 view .LVU49
 253              		.loc 1 52 13 is_stmt 0 view .LVU50
 254 0056 2568     		ldr	r5, [r4]
 255              		.loc 1 52 5 view .LVU51
 256 0058 194B     		ldr	r3, .L15+40
 257 005a 93E80700 		ldm	r3, {r0, r1, r2}
 258 005e A847     		blx	r5
 259              	.LVL14:
  53:Task/Task_Manager.c ****     DebugPin.init(Debug_PB5);
 260              		.loc 1 53 5 is_stmt 1 view .LVU52
 261              		.loc 1 53 13 is_stmt 0 view .LVU53
 262 0060 2568     		ldr	r5, [r4]
 263              		.loc 1 53 5 view .LVU54
 264 0062 184B     		ldr	r3, .L15+44
 265 0064 93E80700 		ldm	r3, {r0, r1, r2}
 266 0068 A847     		blx	r5
 267              	.LVL15:
  54:Task/Task_Manager.c ****     DebugPin.init(Debug_PB6);
 268              		.loc 1 54 5 is_stmt 1 view .LVU55
 269              		.loc 1 54 13 is_stmt 0 view .LVU56
 270 006a 2568     		ldr	r5, [r4]
 271              		.loc 1 54 5 view .LVU57
 272 006c 164B     		ldr	r3, .L15+48
 273 006e 93E80700 		ldm	r3, {r0, r1, r2}
 274 0072 A847     		blx	r5
 275              	.LVL16:
  55:Task/Task_Manager.c ****     DebugPin.init(Debug_PB10);
 276              		.loc 1 55 5 is_stmt 1 view .LVU58
 277              		.loc 1 55 13 is_stmt 0 view .LVU59
 278 0074 2468     		ldr	r4, [r4]
 279              		.loc 1 55 5 view .LVU60
 280 0076 154B     		ldr	r3, .L15+52
 281 0078 93E80700 		ldm	r3, {r0, r1, r2}
 282 007c A047     		blx	r4
 283              	.LVL17:
  56:Task/Task_Manager.c **** 
  57:Task/Task_Manager.c ****     /* ESC port init */
  58:Task/Task_Manager.c **** 
  59:Task/Task_Manager.c ****     /* vol ADC init */
  60:Task/Task_Manager.c **** 
  61:Task/Task_Manager.c ****     /* cur ADC init */
  62:Task/Task_Manager.c **** 
  63:Task/Task_Manager.c ****     DataPipe_Init();
 284              		.loc 1 63 5 is_stmt 1 view .LVU61
 285 007e FFF7FEFF 		bl	DataPipe_Init
 286              	.LVL18:
ARM GAS  C:\Users\HUAV\AppData\Local\Temp\cco93vGw.s 			page 7


  64:Task/Task_Manager.c **** 
  65:Task/Task_Manager.c ****     TaskProtocol_Init();
 287              		.loc 1 65 5 view .LVU62
 288 0082 FFF7FEFF 		bl	TaskProtocol_Init
 289              	.LVL19:
  66:Task/Task_Manager.c ****     TaskInertial_Init();
 290              		.loc 1 66 5 view .LVU63
 291 0086 FFF7FEFF 		bl	TaskInertial_Init
 292              	.LVL20:
  67:Task/Task_Manager.c ****     TaskTelemetry_Init();
 293              		.loc 1 67 5 view .LVU64
 294 008a FFF7FEFF 		bl	TaskTelemetry_Init
 295              	.LVL21:
  68:Task/Task_Manager.c ****     TaskControl_Init();
 296              		.loc 1 68 5 view .LVU65
 297 008e FFF7FEFF 		bl	TaskControl_Init
 298              	.LVL22:
  69:Task/Task_Manager.c ****     TaskLog_Init();
 299              		.loc 1 69 5 view .LVU66
 300 0092 FFF7FEFF 		bl	TaskLog_Init
 301              	.LVL23:
  70:Task/Task_Manager.c **** }
 302              		.loc 1 70 1 is_stmt 0 view .LVU67
 303 0096 38BD     		pop	{r3, r4, r5, pc}
 304              	.L16:
 305              		.align	2
 306              	.L15:
 307 0098 00000000 		.word	DevLED
 308 009c 00000000 		.word	Led1
 309 00a0 00000000 		.word	Led2
 310 00a4 00000000 		.word	Led3
 311 00a8 00000000 		.word	DebugPin
 312 00ac 00000000 		.word	Debug_PC0
 313 00b0 00000000 		.word	Debug_PC1
 314 00b4 00000000 		.word	Debug_PC2
 315 00b8 00000000 		.word	Debug_PC3
 316 00bc 00000000 		.word	Debug_PB3
 317 00c0 00000000 		.word	Debug_PB4
 318 00c4 00000000 		.word	Debug_PB5
 319 00c8 00000000 		.word	Debug_PB6
 320 00cc 00000000 		.word	Debug_PB10
 321              		.cfi_endproc
 322              	.LFE153:
 324              		.section	.rodata.Task_Manager_CreateTask.str1.4,"aMS",%progbits,1
 325              		.align	2
 326              	.LC0:
 327 0000 496E6572 		.ascii	"Inertial Sample\000"
 327      7469616C 
 327      2053616D 
 327      706C6500 
 328              		.align	2
 329              	.LC1:
 330 0010 436F6E74 		.ascii	"Control\000"
 330      726F6C00 
 331              		.align	2
 332              	.LC2:
 333 0018 50726F74 		.ascii	"Protocl\000"
ARM GAS  C:\Users\HUAV\AppData\Local\Temp\cco93vGw.s 			page 8


 333      6F636C00 
 334              		.align	2
 335              	.LC3:
 336 0020 44617461 		.ascii	"Data Log\000"
 336      204C6F67 
 336      00
 337 0029 000000   		.align	2
 338              	.LC4:
 339 002c 54656C65 		.ascii	"Telemetry\000"
 339      6D657472 
 339      7900
 340              		.section	.text.Task_Manager_CreateTask,"ax",%progbits
 341              		.align	1
 342              		.global	Task_Manager_CreateTask
 343              		.syntax unified
 344              		.thumb
 345              		.thumb_func
 346              		.fpu fpv5-d16
 348              	Task_Manager_CreateTask:
 349              	.LFB154:
  71:Task/Task_Manager.c **** 
  72:Task/Task_Manager.c **** void Task_Manager_CreateTask(void)
  73:Task/Task_Manager.c **** {
 350              		.loc 1 73 1 is_stmt 1 view -0
 351              		.cfi_startproc
 352              		@ args = 0, pretend = 0, frame = 0
 353              		@ frame_needed = 0, uses_anonymous_args = 0
 354 0000 10B5     		push	{r4, lr}
 355              	.LCFI4:
 356              		.cfi_def_cfa_offset 8
 357              		.cfi_offset 4, -8
 358              		.cfi_offset 14, -4
 359 0002 82B0     		sub	sp, sp, #8
 360              	.LCFI5:
 361              		.cfi_def_cfa_offset 16
  74:Task/Task_Manager.c ****     TaskInertial_Handle = Os_CreateTask("Inertial Sample", TASK_EXEC_2KHZ, Task_Group_0, Task_Prior
 362              		.loc 1 74 5 view .LVU69
 363              		.loc 1 74 27 is_stmt 0 view .LVU70
 364 0004 4FF48064 		mov	r4, #1024
 365 0008 0194     		str	r4, [sp, #4]
 366 000a 1E4B     		ldr	r3, .L19
 367 000c 0093     		str	r3, [sp]
 368 000e 0023     		movs	r3, #0
 369 0010 1A46     		mov	r2, r3
 370 0012 4FF4FA61 		mov	r1, #2000
 371 0016 1C48     		ldr	r0, .L19+4
 372 0018 FFF7FEFF 		bl	Os_CreateTask
 373              	.LVL24:
 374              		.loc 1 74 25 view .LVU71
 375 001c 1B4B     		ldr	r3, .L19+8
 376 001e 1860     		str	r0, [r3]
  75:Task/Task_Manager.c ****     TaskControl_Handle = Os_CreateTask("Control", TASK_EXEC_1KHZ, Task_Group_0, Task_Priority_1, Ta
 377              		.loc 1 75 5 is_stmt 1 view .LVU72
 378              		.loc 1 75 26 is_stmt 0 view .LVU73
 379 0020 0194     		str	r4, [sp, #4]
 380 0022 1B4B     		ldr	r3, .L19+12
 381 0024 0093     		str	r3, [sp]
ARM GAS  C:\Users\HUAV\AppData\Local\Temp\cco93vGw.s 			page 9


 382 0026 0123     		movs	r3, #1
 383 0028 0022     		movs	r2, #0
 384 002a 4FF47A71 		mov	r1, #1000
 385 002e 1948     		ldr	r0, .L19+16
 386 0030 FFF7FEFF 		bl	Os_CreateTask
 387              	.LVL25:
 388              		.loc 1 75 24 view .LVU74
 389 0034 184B     		ldr	r3, .L19+20
 390 0036 1860     		str	r0, [r3]
  76:Task/Task_Manager.c ****     TaskProtocol_Handle = Os_CreateTask("Protocl", TASK_EXEC_100HZ, Task_Group_1, Task_Priority_0, 
 391              		.loc 1 76 5 is_stmt 1 view .LVU75
 392              		.loc 1 76 27 is_stmt 0 view .LVU76
 393 0038 0194     		str	r4, [sp, #4]
 394 003a 184B     		ldr	r3, .L19+24
 395 003c 0093     		str	r3, [sp]
 396 003e 0023     		movs	r3, #0
 397 0040 0122     		movs	r2, #1
 398 0042 6421     		movs	r1, #100
 399 0044 1648     		ldr	r0, .L19+28
 400 0046 FFF7FEFF 		bl	Os_CreateTask
 401              	.LVL26:
 402              		.loc 1 76 25 view .LVU77
 403 004a 164B     		ldr	r3, .L19+32
 404 004c 1860     		str	r0, [r3]
  77:Task/Task_Manager.c ****     TaskLog_Handle = Os_CreateTask("Data Log", TASK_EXEC_200HZ, Task_Group_2, Task_Priority_0, Task
 405              		.loc 1 77 5 is_stmt 1 view .LVU78
 406              		.loc 1 77 22 is_stmt 0 view .LVU79
 407 004e 0194     		str	r4, [sp, #4]
 408 0050 154B     		ldr	r3, .L19+36
 409 0052 0093     		str	r3, [sp]
 410 0054 0023     		movs	r3, #0
 411 0056 0222     		movs	r2, #2
 412 0058 C821     		movs	r1, #200
 413 005a 1448     		ldr	r0, .L19+40
 414 005c FFF7FEFF 		bl	Os_CreateTask
 415              	.LVL27:
 416              		.loc 1 77 20 view .LVU80
 417 0060 134B     		ldr	r3, .L19+44
 418 0062 1860     		str	r0, [r3]
  78:Task/Task_Manager.c ****     TestTelemetry_Handle = Os_CreateTask("Telemetry", TASK_EXEC_100HZ, Task_Group_0, Task_Priority_
 419              		.loc 1 78 5 is_stmt 1 view .LVU81
 420              		.loc 1 78 28 is_stmt 0 view .LVU82
 421 0064 4FF40073 		mov	r3, #512
 422 0068 0193     		str	r3, [sp, #4]
 423 006a 124B     		ldr	r3, .L19+48
 424 006c 0093     		str	r3, [sp]
 425 006e 0223     		movs	r3, #2
 426 0070 0022     		movs	r2, #0
 427 0072 6421     		movs	r1, #100
 428 0074 1048     		ldr	r0, .L19+52
 429 0076 FFF7FEFF 		bl	Os_CreateTask
 430              	.LVL28:
 431              		.loc 1 78 26 view .LVU83
 432 007a 104B     		ldr	r3, .L19+56
 433 007c 1860     		str	r0, [r3]
  79:Task/Task_Manager.c **** }
 434              		.loc 1 79 1 view .LVU84
ARM GAS  C:\Users\HUAV\AppData\Local\Temp\cco93vGw.s 			page 10


 435 007e 02B0     		add	sp, sp, #8
 436              	.LCFI6:
 437              		.cfi_def_cfa_offset 8
 438              		@ sp needed
 439 0080 10BD     		pop	{r4, pc}
 440              	.L20:
 441 0082 00BF     		.align	2
 442              	.L19:
 443 0084 00000000 		.word	TaskInertical_Core
 444 0088 00000000 		.word	.LC0
 445 008c 00000000 		.word	.LANCHOR0
 446 0090 00000000 		.word	TaskControl_Core
 447 0094 10000000 		.word	.LC1
 448 0098 00000000 		.word	.LANCHOR1
 449 009c 00000000 		.word	TaskProtocol_Core
 450 00a0 18000000 		.word	.LC2
 451 00a4 00000000 		.word	.LANCHOR2
 452 00a8 00000000 		.word	TaskLog_Core
 453 00ac 20000000 		.word	.LC3
 454 00b0 00000000 		.word	.LANCHOR3
 455 00b4 00000000 		.word	TaskTelemetry_Core
 456 00b8 2C000000 		.word	.LC4
 457 00bc 00000000 		.word	.LANCHOR4
 458              		.cfi_endproc
 459              	.LFE154:
 461              		.global	TestTelemetry_Handle
 462              		.global	TaskLog_Handle
 463              		.global	TaskControl_Handle
 464              		.global	TaskInertial_Handle
 465              		.global	TaskProtocol_Handle
 466              		.section	.bss.TaskControl_Handle,"aw",%nobits
 467              		.align	2
 468              		.set	.LANCHOR1,. + 0
 471              	TaskControl_Handle:
 472 0000 00000000 		.space	4
 473              		.section	.bss.TaskInertial_Handle,"aw",%nobits
 474              		.align	2
 475              		.set	.LANCHOR0,. + 0
 478              	TaskInertial_Handle:
 479 0000 00000000 		.space	4
 480              		.section	.bss.TaskLog_Handle,"aw",%nobits
 481              		.align	2
 482              		.set	.LANCHOR3,. + 0
 485              	TaskLog_Handle:
 486 0000 00000000 		.space	4
 487              		.section	.bss.TaskProtocol_Handle,"aw",%nobits
 488              		.align	2
 489              		.set	.LANCHOR2,. + 0
 492              	TaskProtocol_Handle:
 493 0000 00000000 		.space	4
 494              		.section	.bss.TestTelemetry_Handle,"aw",%nobits
 495              		.align	2
 496              		.set	.LANCHOR4,. + 0
 499              	TestTelemetry_Handle:
 500 0000 00000000 		.space	4
 501              		.text
 502              	.Letext0:
ARM GAS  C:\Users\HUAV\AppData\Local\Temp\cco93vGw.s 			page 11


 503              		.file 2 "d:\\software\\zephyr_env_gcc\\gcc-arm-none-eabi-9-2019-q4-major-win32\\arm-none-eabi\\inc
 504              		.file 3 "d:\\software\\zephyr_env_gcc\\gcc-arm-none-eabi-9-2019-q4-major-win32\\arm-none-eabi\\inc
 505              		.file 4 "d:\\software\\zephyr_env_gcc\\gcc-arm-none-eabi-9-2019-q4-major-win32\\arm-none-eabi\\inc
 506              		.file 5 "d:\\software\\zephyr_env_gcc\\gcc-arm-none-eabi-9-2019-q4-major-win32\\arm-none-eabi\\inc
 507              		.file 6 "d:\\software\\zephyr_env_gcc\\gcc-arm-none-eabi-9-2019-q4-major-win32\\lib\\gcc\\arm-none
 508              		.file 7 "d:\\software\\zephyr_env_gcc\\gcc-arm-none-eabi-9-2019-q4-major-win32\\arm-none-eabi\\inc
 509              		.file 8 "d:\\software\\zephyr_env_gcc\\gcc-arm-none-eabi-9-2019-q4-major-win32\\arm-none-eabi\\inc
 510              		.file 9 "System/runtime/runtime.h"
 511              		.file 10 "DataStructure/linked_list.h"
 512              		.file 11 "HAL_Lib/CMSIS/Core/Include/core_cm7.h"
 513              		.file 12 "HAL_Lib/CMSIS/Device/ST/STM32H7xx/Include/system_stm32h7xx.h"
 514              		.file 13 "HAL_Lib/CMSIS/Device/ST/STM32H7xx/Include/stm32h743xx.h"
 515              		.file 14 "d:\\software\\zephyr_env_gcc\\gcc-arm-none-eabi-9-2019-q4-major-win32\\arm-none-eabi\\in
 516              		.file 15 "HAL_Lib/STM32H7xx_HAL_Driver/Inc/stm32h7xx_hal_def.h"
 517              		.file 16 "HAL_Lib/STM32H7xx_HAL_Driver/Inc/stm32h7xx_hal_gpio.h"
 518              		.file 17 "HAL_Lib/STM32H7xx_HAL_Driver/Inc/stm32h7xx_hal_dma.h"
 519              		.file 18 "HAL_Lib/STM32H7xx_HAL_Driver/Inc/stm32h7xx_hal_mdma.h"
 520              		.file 19 "HAL_Lib/STM32H7xx_HAL_Driver/Inc/stm32h7xx_hal_flash.h"
 521              		.file 20 "HAL_Lib/STM32H7xx_HAL_Driver/Inc/stm32h7xx_ll_sdmmc.h"
 522              		.file 21 "HAL_Lib/STM32H7xx_HAL_Driver/Inc/stm32h7xx_hal_sd.h"
 523              		.file 22 "HAL_Lib/STM32H7xx_HAL_Driver/Inc/stm32h7xx_hal_spi.h"
 524              		.file 23 "HAL_Lib/STM32H7xx_HAL_Driver/Inc/stm32h7xx_hal_uart.h"
 525              		.file 24 "HAL_Lib/STM32H7xx_HAL_Driver/Inc/stm32h7xx_hal.h"
 526              		.file 25 "System/scheduler/scheduler.h"
 527              		.file 26 "Task/Task_Manager.h"
 528              		.file 27 "Service/imu_data.h"
 529              		.file 28 "Service/Srv_IMUSample.h"
 530              		.file 29 "Device/Dev_Sbus.h"
 531              		.file 30 "Device/Dev_CRSF.h"
 532              		.file 31 "Bsp/Bsp_GPIO.h"
 533              		.file 32 "Bsp/Bsp_DMA.h"
 534              		.file 33 "Bsp/Bsp_Uart.h"
 535              		.file 34 "Service/Srv_Receiver.h"
 536              		.file 35 "Task/Task_Telemetry.h"
 537              		.file 36 "debug/debug_util.h"
 538              		.file 37 "Bsp/Bsp_SPI.h"
 539              		.file 38 "Device/Dev_Led.h"
 540              		.file 39 "IO_Def/IO_Definition.h"
 541              		.file 40 "Bsp/Bsp_SDMMC.h"
 542              		.file 41 "Device/Dev_Card.h"
 543              		.file 42 "System/diskio/DiskIO.h"
 544              		.file 43 "System/DataPipe/DataPipe.h"
 545              		.file 44 "Task/Task_Protocol.h"
 546              		.file 45 "Task/Task_SensorInertial.h"
 547              		.file 46 "Task/Task_Control.h"
 548              		.file 47 "Task/Task_Log.h"
ARM GAS  C:\Users\HUAV\AppData\Local\Temp\cco93vGw.s 			page 12


DEFINED SYMBOLS
                            *ABS*:00000000 Task_Manager.c
C:\Users\HUAV\AppData\Local\Temp\cco93vGw.s:17     .text.test_PC0_ctl:00000000 $t
C:\Users\HUAV\AppData\Local\Temp\cco93vGw.s:25     .text.test_PC0_ctl:00000000 test_PC0_ctl
C:\Users\HUAV\AppData\Local\Temp\cco93vGw.s:62     .text.test_PC0_ctl:0000001c $d
C:\Users\HUAV\AppData\Local\Temp\cco93vGw.s:68     .text.test_PC1_ctl:00000000 $t
C:\Users\HUAV\AppData\Local\Temp\cco93vGw.s:75     .text.test_PC1_ctl:00000000 test_PC1_ctl
C:\Users\HUAV\AppData\Local\Temp\cco93vGw.s:111    .text.test_PC1_ctl:0000001c $d
C:\Users\HUAV\AppData\Local\Temp\cco93vGw.s:117    .text.test_PC2_ctl:00000000 $t
C:\Users\HUAV\AppData\Local\Temp\cco93vGw.s:124    .text.test_PC2_ctl:00000000 test_PC2_ctl
C:\Users\HUAV\AppData\Local\Temp\cco93vGw.s:160    .text.test_PC2_ctl:0000001c $d
C:\Users\HUAV\AppData\Local\Temp\cco93vGw.s:166    .text.Task_Manager_Init:00000000 $t
C:\Users\HUAV\AppData\Local\Temp\cco93vGw.s:173    .text.Task_Manager_Init:00000000 Task_Manager_Init
C:\Users\HUAV\AppData\Local\Temp\cco93vGw.s:307    .text.Task_Manager_Init:00000098 $d
C:\Users\HUAV\AppData\Local\Temp\cco93vGw.s:325    .rodata.Task_Manager_CreateTask.str1.4:00000000 $d
C:\Users\HUAV\AppData\Local\Temp\cco93vGw.s:341    .text.Task_Manager_CreateTask:00000000 $t
C:\Users\HUAV\AppData\Local\Temp\cco93vGw.s:348    .text.Task_Manager_CreateTask:00000000 Task_Manager_CreateTask
C:\Users\HUAV\AppData\Local\Temp\cco93vGw.s:443    .text.Task_Manager_CreateTask:00000084 $d
C:\Users\HUAV\AppData\Local\Temp\cco93vGw.s:499    .bss.TestTelemetry_Handle:00000000 TestTelemetry_Handle
C:\Users\HUAV\AppData\Local\Temp\cco93vGw.s:485    .bss.TaskLog_Handle:00000000 TaskLog_Handle
C:\Users\HUAV\AppData\Local\Temp\cco93vGw.s:471    .bss.TaskControl_Handle:00000000 TaskControl_Handle
C:\Users\HUAV\AppData\Local\Temp\cco93vGw.s:478    .bss.TaskInertial_Handle:00000000 TaskInertial_Handle
C:\Users\HUAV\AppData\Local\Temp\cco93vGw.s:492    .bss.TaskProtocol_Handle:00000000 TaskProtocol_Handle
C:\Users\HUAV\AppData\Local\Temp\cco93vGw.s:467    .bss.TaskControl_Handle:00000000 $d
C:\Users\HUAV\AppData\Local\Temp\cco93vGw.s:474    .bss.TaskInertial_Handle:00000000 $d
C:\Users\HUAV\AppData\Local\Temp\cco93vGw.s:481    .bss.TaskLog_Handle:00000000 $d
C:\Users\HUAV\AppData\Local\Temp\cco93vGw.s:488    .bss.TaskProtocol_Handle:00000000 $d
C:\Users\HUAV\AppData\Local\Temp\cco93vGw.s:495    .bss.TestTelemetry_Handle:00000000 $d

UNDEFINED SYMBOLS
DebugPin
Debug_PC0
Debug_PC1
Debug_PC2
DataPipe_Init
TaskProtocol_Init
TaskInertial_Init
TaskTelemetry_Init
TaskControl_Init
TaskLog_Init
DevLED
Led1
Led2
Led3
Debug_PC3
Debug_PB3
Debug_PB4
Debug_PB5
Debug_PB6
Debug_PB10
Os_CreateTask
TaskInertical_Core
TaskControl_Core
TaskProtocol_Core
TaskLog_Core
TaskTelemetry_Core
