ARM GAS  C:\Users\8bit\AppData\Local\Temp\cc7otBDv.s 			page 1


   1              		.cpu cortex-m4
   2              		.arch armv7e-m
   3              		.fpu fpv4-sp-d16
   4              		.eabi_attribute 27, 1
   5              		.eabi_attribute 28, 1
   6              		.eabi_attribute 20, 1
   7              		.eabi_attribute 21, 1
   8              		.eabi_attribute 23, 3
   9              		.eabi_attribute 24, 1
  10              		.eabi_attribute 25, 1
  11              		.eabi_attribute 26, 1
  12              		.eabi_attribute 30, 1
  13              		.eabi_attribute 34, 1
  14              		.eabi_attribute 18, 4
  15              		.file	"Task_Telemetry.c"
  16              		.text
  17              	.Ltext0:
  18              		.cfi_sections	.debug_frame
  19              		.section	.text.Telemetry_Led_Control,"ax",%progbits
  20              		.align	1
  21              		.syntax unified
  22              		.thumb
  23              		.thumb_func
  25              	Telemetry_Led_Control:
  26              	.LVL0:
  27              	.LFB2074:
  28              		.file 1 "Task/Task_Telemetry.c"
   1:Task/Task_Telemetry.c **** /* code: 8_B!T0
   2:Task/Task_Telemetry.c ****  * Telemetry Task we use this task to get and process data from RC receiver and radio
   3:Task/Task_Telemetry.c ****  *
   4:Task/Task_Telemetry.c ****  * deflaut receiver list
   5:Task/Task_Telemetry.c ****  * channel 1  roll
   6:Task/Task_Telemetry.c ****  * channel 2  pitch
   7:Task/Task_Telemetry.c ****  * channel 3  throttle
   8:Task/Task_Telemetry.c ****  * channel 4  yaw
   9:Task/Task_Telemetry.c ****  * channel 5  arm toggle            two   pos : on/off
  10:Task/Task_Telemetry.c ****  * channel 6  buzzer toggle         two   pos : on/off
  11:Task/Task_Telemetry.c ****  * channel 7  control mode switch   three pos : pos 1/2/3
  12:Task/Task_Telemetry.c ****  * channel 8  blackbox              auto reset toggle
  13:Task/Task_Telemetry.c ****  * channel 9  flip over             two   pos : on/off
  14:Task/Task_Telemetry.c ****  * channel 10 aux6
  15:Task/Task_Telemetry.c ****  * channel 11 aux7
  16:Task/Task_Telemetry.c ****  * channel 12 aux8
  17:Task/Task_Telemetry.c ****  * channel 13 aux9
  18:Task/Task_Telemetry.c ****  * channel 14 aux10
  19:Task/Task_Telemetry.c ****  * channel 15 aux11
  20:Task/Task_Telemetry.c ****  * channel 16 aux12
  21:Task/Task_Telemetry.c ****  *
  22:Task/Task_Telemetry.c ****  */
  23:Task/Task_Telemetry.c **** #include "Task_Telemetry.h"
  24:Task/Task_Telemetry.c **** #include "Task_BlackBox.h"
  25:Task/Task_Telemetry.c **** #include "DataPipe.h"
  26:Task/Task_Telemetry.c **** #include "HW_Def.h"
  27:Task/Task_Telemetry.c **** #include "Srv_Receiver.h"
  28:Task/Task_Telemetry.c **** #include "Srv_OsCommon.h"
  29:Task/Task_Telemetry.c **** #include "util.h"
  30:Task/Task_Telemetry.c **** #include "Srv_ComProto.h"
ARM GAS  C:\Users\8bit\AppData\Local\Temp\cc7otBDv.s 			page 2


  31:Task/Task_Telemetry.c **** #include "Storage.h"
  32:Task/Task_Telemetry.c **** 
  33:Task/Task_Telemetry.c **** static SrvReceiverObj_TypeDef Receiver_Obj;
  34:Task/Task_Telemetry.c **** static Telemetry_Monitor_TypeDef Telemetry_Monitor;
  35:Task/Task_Telemetry.c **** static bool RCData_To_Configuretor = false;
  36:Task/Task_Telemetry.c **** static uint32_t TaskTelemetry_Period = 0;
  37:Task/Task_Telemetry.c **** DataPipe_CreateDataObj(ControlData_TypeDef, Rc);
  38:Task/Task_Telemetry.c **** 
  39:Task/Task_Telemetry.c **** /* internal funciotn */
  40:Task/Task_Telemetry.c **** static Telemetry_RCSig_TypeDef Telemetry_RC_Sig_Update(Telemetry_RCInput_TypeDef *RC_Input_obj, Srv
  41:Task/Task_Telemetry.c **** static bool Telemetry_RC_Sig_Init(Telemetry_RCInput_TypeDef *RC_Input_obj, SrvReceiverObj_TypeDef *
  42:Task/Task_Telemetry.c **** static bool Telemetry_BindGimbalToChannel(Telemetry_RCInput_TypeDef *RC_Input_obj, uint16_t *data_o
  43:Task/Task_Telemetry.c **** static bool Telemetry_BindToggleToChannel(Telemetry_RCInput_TypeDef *RC_Input_obj, uint16_t *data_o
  44:Task/Task_Telemetry.c **** static bool Telemetry_AddToggleCombo(Telemetry_RCInput_TypeDef *RC_Input_obj, uint16_t *data_obj, T
  45:Task/Task_Telemetry.c **** static void Telemetry_Enable_GimbalDeadZone(Telemetry_RCFuncMap_TypeDef *gimbal, uint16_t scope);
  46:Task/Task_Telemetry.c **** static uint16_t Telemetry_SplitScopeValue_Into(uint8_t pcs);
  47:Task/Task_Telemetry.c **** static bool Telemetry_BlackBox_OnChange(Telemetry_RCSig_TypeDef RCSig);
  48:Task/Task_Telemetry.c **** static bool Telemetry_Bind_Gimbal(uint8_t throttle_ch, uint8_t pitch_ch, uint8_t roll_ch, uint8_t y
  49:Task/Task_Telemetry.c **** static bool Telemetry_Bind_Toggle(uint8_t arm_toggle_ch, uint8_t mode_toggle_ch, uint8_t buzzer_tog
  50:Task/Task_Telemetry.c **** static void Telemetry_ConvertRCData_To_ControlData(Telemetry_RCSig_TypeDef RCSig, ControlData_TypeD
  51:Task/Task_Telemetry.c **** static bool Telemetry_Bind_CalibCombo(void);
  52:Task/Task_Telemetry.c **** 
  53:Task/Task_Telemetry.c **** void TaskTelemetry_Set_DataIO_Enable(bool state)
  54:Task/Task_Telemetry.c **** {
  55:Task/Task_Telemetry.c ****     RCData_To_Configuretor = state;
  56:Task/Task_Telemetry.c **** }
  57:Task/Task_Telemetry.c **** 
  58:Task/Task_Telemetry.c **** void TaskTelemetry_Init(uint32_t period)
  59:Task/Task_Telemetry.c **** {
  60:Task/Task_Telemetry.c ****     memset(&Telemetry_Monitor, 0, sizeof(Telemetry_Monitor));
  61:Task/Task_Telemetry.c **** 
  62:Task/Task_Telemetry.c ****     Telemetry_Monitor.Init_Rt = SrvOsCommon.get_os_ms();
  63:Task/Task_Telemetry.c **** 
  64:Task/Task_Telemetry.c ****     /* gimbal channel definition */
  65:Task/Task_Telemetry.c ****     Telemetry_Monitor.throttle_ch = Channel_2;
  66:Task/Task_Telemetry.c ****     Telemetry_Monitor.pitch_ch = Channel_3;
  67:Task/Task_Telemetry.c ****     Telemetry_Monitor.roll_ch = Channel_4;
  68:Task/Task_Telemetry.c ****     Telemetry_Monitor.yaw_ch = Channel_1;
  69:Task/Task_Telemetry.c **** 
  70:Task/Task_Telemetry.c ****     /* toggle channel definition */
  71:Task/Task_Telemetry.c ****     Telemetry_Monitor.arm_toggle_ch = Channel_5;
  72:Task/Task_Telemetry.c ****     Telemetry_Monitor.buzzer_toggle_ch = Channel_6;
  73:Task/Task_Telemetry.c ****     Telemetry_Monitor.mode_switcher_ch = Channel_7;
  74:Task/Task_Telemetry.c ****     Telemetry_Monitor.blackbox_ch = Channel_8;
  75:Task/Task_Telemetry.c ****     Telemetry_Monitor.flip_over_ch = Channel_9;
  76:Task/Task_Telemetry.c **** 
  77:Task/Task_Telemetry.c ****     /* init receiver */
  78:Task/Task_Telemetry.c ****     if (Telemetry_RC_Sig_Init(&Telemetry_Monitor.RC_Setting, &Receiver_Obj))
  79:Task/Task_Telemetry.c ****     {
  80:Task/Task_Telemetry.c ****         /* for crsf frame channel 1 is throttle */
  81:Task/Task_Telemetry.c ****         /* for sbus frame channel 3 is throttle */
  82:Task/Task_Telemetry.c ****         if (Receiver_Obj.Frame_type == Receiver_Type_CRSF)
  83:Task/Task_Telemetry.c ****         {
  84:Task/Task_Telemetry.c ****             /* set crsf receiver map */
  85:Task/Task_Telemetry.c ****             /* bind to channel */
  86:Task/Task_Telemetry.c ****             if (Telemetry_Bind_Gimbal(Telemetry_Monitor.throttle_ch, \
  87:Task/Task_Telemetry.c ****                                       Telemetry_Monitor.pitch_ch, \
ARM GAS  C:\Users\8bit\AppData\Local\Temp\cc7otBDv.s 			page 3


  88:Task/Task_Telemetry.c ****                                       Telemetry_Monitor.roll_ch, \
  89:Task/Task_Telemetry.c ****                                       Telemetry_Monitor.yaw_ch) && \
  90:Task/Task_Telemetry.c ****                 Telemetry_Bind_Toggle(Telemetry_Monitor.arm_toggle_ch, \
  91:Task/Task_Telemetry.c ****                                       Telemetry_Monitor.mode_switcher_ch, \
  92:Task/Task_Telemetry.c ****                                       Telemetry_Monitor.buzzer_toggle_ch, \
  93:Task/Task_Telemetry.c ****                                       Telemetry_Monitor.flip_over_ch, \
  94:Task/Task_Telemetry.c ****                                       Telemetry_Monitor.blackbox_ch) && \
  95:Task/Task_Telemetry.c ****                 Telemetry_Bind_CalibCombo())
  96:Task/Task_Telemetry.c ****             {
  97:Task/Task_Telemetry.c ****                 Telemetry_Monitor.RC_Setting.sig.arm_state = TELEMETRY_SET_ARM;
  98:Task/Task_Telemetry.c **** 
  99:Task/Task_Telemetry.c ****                 /* set gimbal center dead zone */
 100:Task/Task_Telemetry.c ****                 Telemetry_Enable_GimbalDeadZone(&Telemetry_Monitor.RC_Setting.Gimbal[Gimbal_Pitch],
 101:Task/Task_Telemetry.c ****                 Telemetry_Enable_GimbalDeadZone(&Telemetry_Monitor.RC_Setting.Gimbal[Gimbal_Roll], 
 102:Task/Task_Telemetry.c ****                 Telemetry_Enable_GimbalDeadZone(&Telemetry_Monitor.RC_Setting.Gimbal[Gimbal_Yaw], 1
 103:Task/Task_Telemetry.c **** 
 104:Task/Task_Telemetry.c ****                 /* set datapipe */
 105:Task/Task_Telemetry.c ****                 memset(&Receiver_Smp_DataPipe, 0, sizeof(Receiver_Smp_DataPipe));
 106:Task/Task_Telemetry.c ****                 memset(DataPipe_DataObjAddr(Rc), 0, DataPipe_DataSize(Rc));
 107:Task/Task_Telemetry.c **** 
 108:Task/Task_Telemetry.c ****                 Receiver_Smp_DataPipe.data_addr = (uint32_t)DataPipe_DataObjAddr(Rc);
 109:Task/Task_Telemetry.c ****                 Receiver_Smp_DataPipe.data_size = DataPipe_DataSize(Rc);
 110:Task/Task_Telemetry.c **** 
 111:Task/Task_Telemetry.c ****                 DataPipe_Enable(&Receiver_Smp_DataPipe);
 112:Task/Task_Telemetry.c ****             }
 113:Task/Task_Telemetry.c ****         }
 114:Task/Task_Telemetry.c ****         else if (Receiver_Obj.Frame_type == Receiver_Type_Sbus)
 115:Task/Task_Telemetry.c ****         {
 116:Task/Task_Telemetry.c ****             /* reserved */
 117:Task/Task_Telemetry.c ****         }
 118:Task/Task_Telemetry.c **** 
 119:Task/Task_Telemetry.c ****         Telemetry_Monitor.lst_arm_state = TELEMETRY_SET_ARM;
 120:Task/Task_Telemetry.c ****     }
 121:Task/Task_Telemetry.c ****     
 122:Task/Task_Telemetry.c ****     Telemetry_Monitor.poweron_arm_check = true;
 123:Task/Task_Telemetry.c **** 
 124:Task/Task_Telemetry.c ****     TaskTelemetry_Period = period;
 125:Task/Task_Telemetry.c **** }
 126:Task/Task_Telemetry.c **** 
 127:Task/Task_Telemetry.c **** void Telemetry_blink(void)
 128:Task/Task_Telemetry.c **** {
 129:Task/Task_Telemetry.c ****     uint32_t Rt = 0;
 130:Task/Task_Telemetry.c ****     static uint32_t Lst_Rt = 0;
 131:Task/Task_Telemetry.c ****     static bool led_state = false;
 132:Task/Task_Telemetry.c **** 
 133:Task/Task_Telemetry.c ****     // DebugPin.ctl(Debug_PB4, true);
 134:Task/Task_Telemetry.c ****     // DebugPin.ctl(Debug_PB4, false);
 135:Task/Task_Telemetry.c **** 
 136:Task/Task_Telemetry.c ****     Rt = SrvOsCommon.get_os_ms();
 137:Task/Task_Telemetry.c **** 
 138:Task/Task_Telemetry.c ****     if ((Rt % 100 == 0) && (Lst_Rt != Rt))
 139:Task/Task_Telemetry.c ****     {
 140:Task/Task_Telemetry.c ****         led_state = !led_state;
 141:Task/Task_Telemetry.c ****         Lst_Rt = Rt;
 142:Task/Task_Telemetry.c ****     }
 143:Task/Task_Telemetry.c **** 
 144:Task/Task_Telemetry.c ****     DevLED.ctl(Led1, led_state);
ARM GAS  C:\Users\8bit\AppData\Local\Temp\cc7otBDv.s 			page 4


 145:Task/Task_Telemetry.c ****     // DevLED.ctl(Led3, led_state);
 146:Task/Task_Telemetry.c **** }
 147:Task/Task_Telemetry.c **** 
 148:Task/Task_Telemetry.c **** static void Telemetry_Led_Control(bool state)
 149:Task/Task_Telemetry.c **** {
  29              		.loc 1 149 1 view -0
  30              		.cfi_startproc
  31              		@ args = 0, pretend = 0, frame = 0
  32              		@ frame_needed = 0, uses_anonymous_args = 0
  33              		.loc 1 149 1 is_stmt 0 view .LVU1
  34 0000 10B5     		push	{r4, lr}
  35              	.LCFI0:
  36              		.cfi_def_cfa_offset 8
  37              		.cfi_offset 4, -8
  38              		.cfi_offset 14, -4
  39 0002 0346     		mov	r3, r0
 150:Task/Task_Telemetry.c ****     DevLED.ctl(Led1, state);
  40              		.loc 1 150 5 is_stmt 1 view .LVU2
  41              		.loc 1 150 11 is_stmt 0 view .LVU3
  42 0004 024A     		ldr	r2, .L3
  43 0006 5468     		ldr	r4, [r2, #4]
  44              		.loc 1 150 5 view .LVU4
  45 0008 024A     		ldr	r2, .L3+4
  46 000a 07CA     		ldm	r2, {r0, r1, r2}
  47              	.LVL1:
  48              		.loc 1 150 5 view .LVU5
  49 000c A047     		blx	r4
  50              	.LVL2:
 151:Task/Task_Telemetry.c **** }
  51              		.loc 1 151 1 view .LVU6
  52 000e 10BD     		pop	{r4, pc}
  53              	.L4:
  54              		.align	2
  55              	.L3:
  56 0010 00000000 		.word	DevLED
  57 0014 00000000 		.word	Led1
  58              		.cfi_endproc
  59              	.LFE2074:
  61              		.section	.text.Telemetry_Enable_GimbalDeadZone,"ax",%progbits
  62              		.align	1
  63              		.syntax unified
  64              		.thumb
  65              		.thumb_func
  67              	Telemetry_Enable_GimbalDeadZone:
  68              	.LVL3:
  69              	.LFB2081:
 152:Task/Task_Telemetry.c **** 
 153:Task/Task_Telemetry.c **** void TaskTelemetry_Core(void const *arg)
 154:Task/Task_Telemetry.c **** {
 155:Task/Task_Telemetry.c ****     uint32_t sys_time = SrvOsCommon.get_os_ms();
 156:Task/Task_Telemetry.c ****     bool upgrade_state = false;
 157:Task/Task_Telemetry.c ****     Telemetry_RCSig_TypeDef RCSig;
 158:Task/Task_Telemetry.c ****     memset(&RCSig, 0, sizeof(Telemetry_RCSig_TypeDef));
 159:Task/Task_Telemetry.c **** 
 160:Task/Task_Telemetry.c ****     while(1)
 161:Task/Task_Telemetry.c ****     {
 162:Task/Task_Telemetry.c ****         // Telemetry_blink();
ARM GAS  C:\Users\8bit\AppData\Local\Temp\cc7otBDv.s 			page 5


 163:Task/Task_Telemetry.c ****         
 164:Task/Task_Telemetry.c ****         if (SrvDataHub.get_upgrade_state(&upgrade_state) && !upgrade_state)
 165:Task/Task_Telemetry.c ****         {
 166:Task/Task_Telemetry.c ****             /* RC receiver process */
 167:Task/Task_Telemetry.c ****             RCSig = Telemetry_RC_Sig_Update(&Telemetry_Monitor.RC_Setting, &Receiver_Obj);
 168:Task/Task_Telemetry.c ****             Telemetry_ConvertRCData_To_ControlData(RCSig, DataPipe_DataObjAddr(Rc));
 169:Task/Task_Telemetry.c **** 
 170:Task/Task_Telemetry.c ****             if (Telemetry_BlackBox_OnChange(RCSig))
 171:Task/Task_Telemetry.c ****                 /* trigger blackbox */
 172:Task/Task_Telemetry.c ****                 TaskBlackBox_LogControl();
 173:Task/Task_Telemetry.c **** 
 174:Task/Task_Telemetry.c ****             /* pipe data out */
 175:Task/Task_Telemetry.c ****             DataPipe_SendTo(&Receiver_Smp_DataPipe, &Receiver_hub_DataPipe);
 176:Task/Task_Telemetry.c ****         }
 177:Task/Task_Telemetry.c ****         
 178:Task/Task_Telemetry.c ****         SrvOsCommon.precise_delay(&sys_time, TaskTelemetry_Period);
 179:Task/Task_Telemetry.c ****     }
 180:Task/Task_Telemetry.c **** }
 181:Task/Task_Telemetry.c **** 
 182:Task/Task_Telemetry.c **** /************************************** telemetry receiver section ********************************
 183:Task/Task_Telemetry.c **** static bool Telemetry_RC_Sig_Init(Telemetry_RCInput_TypeDef *RC_Input_obj, SrvReceiverObj_TypeDef *
 184:Task/Task_Telemetry.c **** {
 185:Task/Task_Telemetry.c ****     uint8_t *port_ptr = NULL;
 186:Task/Task_Telemetry.c **** 
 187:Task/Task_Telemetry.c ****     memset(receiver_obj, 0, sizeof(receiver_obj));
 188:Task/Task_Telemetry.c **** 
 189:Task/Task_Telemetry.c ****     receiver_obj->port_type = Receiver_Port_Serial;
 190:Task/Task_Telemetry.c ****     receiver_obj->Frame_type = Receiver_Type_CRSF;
 191:Task/Task_Telemetry.c **** 
 192:Task/Task_Telemetry.c ****     /* create receiver port */
 193:Task/Task_Telemetry.c ****     switch (receiver_obj->port_type)
 194:Task/Task_Telemetry.c ****     {
 195:Task/Task_Telemetry.c ****     case Receiver_Port_Serial:
 196:Task/Task_Telemetry.c ****         if (receiver_obj->Frame_type == Receiver_Type_CRSF)
 197:Task/Task_Telemetry.c ****         {
 198:Task/Task_Telemetry.c ****             port_ptr = SrvReceiver.create_serial_obj(RECEIVER_PORT,
 199:Task/Task_Telemetry.c ****                                                      RECEIVER_CRSF_RX_DMA,
 200:Task/Task_Telemetry.c ****                                                      RECEIVER_CRSF_RX_DMA_STREAM,
 201:Task/Task_Telemetry.c ****                                                      RECEIVER_CRSF_TX_DMA,
 202:Task/Task_Telemetry.c ****                                                      RECEIVER_CRSF_TX_DMA_STREAM,
 203:Task/Task_Telemetry.c ****                                                      CRSF_PIN_SWAP,
 204:Task/Task_Telemetry.c ****                                                      CRSF_TX_PIN,
 205:Task/Task_Telemetry.c ****                                                      CRSF_RX_PIN);
 206:Task/Task_Telemetry.c ****         }
 207:Task/Task_Telemetry.c ****         else if (receiver_obj->Frame_type == Receiver_Type_Sbus)
 208:Task/Task_Telemetry.c ****         {
 209:Task/Task_Telemetry.c ****             /* still in developing */
 210:Task/Task_Telemetry.c ****             port_ptr = SrvReceiver.create_serial_obj(RECEIVER_PORT,
 211:Task/Task_Telemetry.c ****                                                      RECEIVER_SBUS_RX_DMA,
 212:Task/Task_Telemetry.c ****                                                      RECEIVER_SBUS_RX_DMA_STREAM,
 213:Task/Task_Telemetry.c ****                                                      RECEIVER_SBUS_TX_DMA,
 214:Task/Task_Telemetry.c ****                                                      RECEIVER_SBUS_TX_DMA_STREAM,
 215:Task/Task_Telemetry.c ****                                                      false,
 216:Task/Task_Telemetry.c ****                                                      SBUS_TX_PIN,
 217:Task/Task_Telemetry.c ****                                                      SBUS_RX_PIN);
 218:Task/Task_Telemetry.c **** 
 219:Task/Task_Telemetry.c ****             /* set inverter pin */
ARM GAS  C:\Users\8bit\AppData\Local\Temp\cc7otBDv.s 			page 6


 220:Task/Task_Telemetry.c ****         }
 221:Task/Task_Telemetry.c ****         break;
 222:Task/Task_Telemetry.c **** 
 223:Task/Task_Telemetry.c ****     case Receiver_Port_Spi:
 224:Task/Task_Telemetry.c ****         /* still in developing */
 225:Task/Task_Telemetry.c ****         port_ptr = SrvReceiver.create_spi_obj();
 226:Task/Task_Telemetry.c ****         break;
 227:Task/Task_Telemetry.c **** 
 228:Task/Task_Telemetry.c ****     default:
 229:Task/Task_Telemetry.c ****         return false;
 230:Task/Task_Telemetry.c ****     }
 231:Task/Task_Telemetry.c **** 
 232:Task/Task_Telemetry.c ****     /* init receiver object */
 233:Task/Task_Telemetry.c ****     RC_Input_obj->init_state = SrvReceiver.init(receiver_obj, port_ptr);
 234:Task/Task_Telemetry.c **** 
 235:Task/Task_Telemetry.c ****     RC_Input_obj->sig.arm_state = TELEMETRY_SET_ARM;
 236:Task/Task_Telemetry.c ****     RC_Input_obj->sig.buzz_state = false;
 237:Task/Task_Telemetry.c ****     RC_Input_obj->sig.control_mode = Telemetry_Control_Mode_Default;
 238:Task/Task_Telemetry.c ****     RC_Input_obj->sig.module_enable = TELEMETRY_DISABLE_ALL_MODULE;
 239:Task/Task_Telemetry.c **** 
 240:Task/Task_Telemetry.c ****     RC_Input_obj->init_state = SrvReceiver.get_scope(receiver_obj, \
 241:Task/Task_Telemetry.c ****                                                      &Telemetry_Monitor.receiver_value_max, \
 242:Task/Task_Telemetry.c ****                                                      &Telemetry_Monitor.receiver_value_mid, \
 243:Task/Task_Telemetry.c ****                                                      &Telemetry_Monitor.receiver_value_min);
 244:Task/Task_Telemetry.c **** 
 245:Task/Task_Telemetry.c ****     return RC_Input_obj->init_state;
 246:Task/Task_Telemetry.c **** }
 247:Task/Task_Telemetry.c **** 
 248:Task/Task_Telemetry.c **** static bool Telemetry_BindGimbalToChannel(Telemetry_RCInput_TypeDef *RC_Input_obj, uint16_t *data_o
 249:Task/Task_Telemetry.c **** {
 250:Task/Task_Telemetry.c ****     Telemetry_ChannelSet_TypeDef *channel_set = NULL;
 251:Task/Task_Telemetry.c **** 
 252:Task/Task_Telemetry.c ****     if ((!RC_Input_obj) ||
 253:Task/Task_Telemetry.c ****         (!data_obj) ||
 254:Task/Task_Telemetry.c ****         (min_range < Telemetry_Monitor.receiver_value_min) ||
 255:Task/Task_Telemetry.c ****         (max_range > Telemetry_Monitor.receiver_value_max))
 256:Task/Task_Telemetry.c ****         return false;
 257:Task/Task_Telemetry.c **** 
 258:Task/Task_Telemetry.c ****     channel_set = (Telemetry_ChannelSet_TypeDef *)SrvOsCommon.malloc(sizeof(Telemetry_ChannelSet_Ty
 259:Task/Task_Telemetry.c **** 
 260:Task/Task_Telemetry.c ****     if (!channel_set)
 261:Task/Task_Telemetry.c ****     {
 262:Task/Task_Telemetry.c ****         SrvOsCommon.free(channel_set);
 263:Task/Task_Telemetry.c ****         return false;
 264:Task/Task_Telemetry.c ****     }
 265:Task/Task_Telemetry.c **** 
 266:Task/Task_Telemetry.c ****     channel_set->channel_ptr = data_obj;
 267:Task/Task_Telemetry.c ****     channel_set->max = max_range;
 268:Task/Task_Telemetry.c ****     channel_set->mid = mid_val;
 269:Task/Task_Telemetry.c ****     channel_set->min = min_range;
 270:Task/Task_Telemetry.c ****     channel_set->center_deadzone_scope = 0;
 271:Task/Task_Telemetry.c ****     channel_set->enable_deadzone = false;
 272:Task/Task_Telemetry.c **** 
 273:Task/Task_Telemetry.c ****     switch (tag)
 274:Task/Task_Telemetry.c ****     {
 275:Task/Task_Telemetry.c ****         case Gimbal_Throttle:
 276:Task/Task_Telemetry.c ****         case Gimbal_Pitch:
ARM GAS  C:\Users\8bit\AppData\Local\Temp\cc7otBDv.s 			page 7


 277:Task/Task_Telemetry.c ****         case Gimbal_Roll:
 278:Task/Task_Telemetry.c ****         case Gimbal_Yaw:
 279:Task/Task_Telemetry.c ****             RC_Input_obj->Gimbal[tag].combo_cnt = 1;
 280:Task/Task_Telemetry.c ****             List_ItemInit(&(RC_Input_obj->Gimbal[tag].combo_list), channel_set);
 281:Task/Task_Telemetry.c ****             return true;
 282:Task/Task_Telemetry.c **** 
 283:Task/Task_Telemetry.c ****         default:
 284:Task/Task_Telemetry.c ****             return false;
 285:Task/Task_Telemetry.c ****     }
 286:Task/Task_Telemetry.c **** }
 287:Task/Task_Telemetry.c **** 
 288:Task/Task_Telemetry.c **** static bool Telemetry_BindToggleToChannel(Telemetry_RCInput_TypeDef *RC_Input_obj, uint16_t *data_o
 289:Task/Task_Telemetry.c **** {
 290:Task/Task_Telemetry.c ****     Telemetry_ChannelSet_TypeDef *channel_set = NULL;
 291:Task/Task_Telemetry.c **** 
 292:Task/Task_Telemetry.c ****     if ((!RC_Input_obj) ||
 293:Task/Task_Telemetry.c ****         (!data_obj) ||
 294:Task/Task_Telemetry.c ****         (trigger_min_range < Telemetry_Monitor.receiver_value_min) ||
 295:Task/Task_Telemetry.c ****         (trigger_max_range > Telemetry_Monitor.receiver_value_max))
 296:Task/Task_Telemetry.c ****         return false;
 297:Task/Task_Telemetry.c **** 
 298:Task/Task_Telemetry.c ****     channel_set = (Telemetry_ChannelSet_TypeDef *)SrvOsCommon.malloc(sizeof(Telemetry_ChannelSet_Ty
 299:Task/Task_Telemetry.c **** 
 300:Task/Task_Telemetry.c ****     if (!channel_set)
 301:Task/Task_Telemetry.c ****     {
 302:Task/Task_Telemetry.c ****         SrvOsCommon.free(channel_set);
 303:Task/Task_Telemetry.c ****         return false;
 304:Task/Task_Telemetry.c ****     }
 305:Task/Task_Telemetry.c **** 
 306:Task/Task_Telemetry.c ****     channel_set->channel_ptr = data_obj;
 307:Task/Task_Telemetry.c ****     channel_set->max = trigger_max_range;
 308:Task/Task_Telemetry.c ****     channel_set->min = trigger_min_range;
 309:Task/Task_Telemetry.c **** 
 310:Task/Task_Telemetry.c ****     toggle->combo_cnt = 1;
 311:Task/Task_Telemetry.c ****     toggle->combo_list.mode = by_order;
 312:Task/Task_Telemetry.c ****     toggle->combo_list.compare_callback = NULL;
 313:Task/Task_Telemetry.c ****     List_ItemInit(&(toggle->combo_list), channel_set);
 314:Task/Task_Telemetry.c **** 
 315:Task/Task_Telemetry.c ****     return true;
 316:Task/Task_Telemetry.c **** }
 317:Task/Task_Telemetry.c **** 
 318:Task/Task_Telemetry.c **** static bool Telemetry_AddToggleCombo(Telemetry_RCInput_TypeDef *RC_Input_obj, uint16_t *data_obj, T
 319:Task/Task_Telemetry.c **** {
 320:Task/Task_Telemetry.c ****     Telemetry_ChannelSet_TypeDef *channel_set = NULL;
 321:Task/Task_Telemetry.c ****     item_obj *item = NULL;
 322:Task/Task_Telemetry.c **** 
 323:Task/Task_Telemetry.c ****     if ((!RC_Input_obj) ||
 324:Task/Task_Telemetry.c ****         (!data_obj) ||
 325:Task/Task_Telemetry.c ****         (trigger_min_range < Telemetry_Monitor.receiver_value_min) ||
 326:Task/Task_Telemetry.c ****         (trigger_max_range > Telemetry_Monitor.receiver_value_max))
 327:Task/Task_Telemetry.c ****         return false;
 328:Task/Task_Telemetry.c **** 
 329:Task/Task_Telemetry.c ****     channel_set = (Telemetry_ChannelSet_TypeDef *)SrvOsCommon.malloc(sizeof(Telemetry_ChannelSet_Ty
 330:Task/Task_Telemetry.c **** 
 331:Task/Task_Telemetry.c ****     if (!channel_set)
 332:Task/Task_Telemetry.c ****     {
 333:Task/Task_Telemetry.c ****         SrvOsCommon.free(channel_set);
ARM GAS  C:\Users\8bit\AppData\Local\Temp\cc7otBDv.s 			page 8


 334:Task/Task_Telemetry.c ****         return false;
 335:Task/Task_Telemetry.c ****     }
 336:Task/Task_Telemetry.c **** 
 337:Task/Task_Telemetry.c ****     item = (item_obj *)SrvOsCommon.malloc(sizeof(item_obj));
 338:Task/Task_Telemetry.c **** 
 339:Task/Task_Telemetry.c ****     if (!item)
 340:Task/Task_Telemetry.c ****     {
 341:Task/Task_Telemetry.c ****         SrvOsCommon.free(item);
 342:Task/Task_Telemetry.c ****         return false;
 343:Task/Task_Telemetry.c ****     }
 344:Task/Task_Telemetry.c **** 
 345:Task/Task_Telemetry.c ****     channel_set->channel_ptr = data_obj;
 346:Task/Task_Telemetry.c ****     channel_set->max = trigger_max_range;
 347:Task/Task_Telemetry.c ****     channel_set->min = trigger_min_range;
 348:Task/Task_Telemetry.c **** 
 349:Task/Task_Telemetry.c ****     toggle->combo_cnt++;
 350:Task/Task_Telemetry.c ****     List_ItemInit(item, channel_set);
 351:Task/Task_Telemetry.c ****     List_Insert_Item(&toggle->combo_list, item);
 352:Task/Task_Telemetry.c **** 
 353:Task/Task_Telemetry.c ****     return true;
 354:Task/Task_Telemetry.c **** }
 355:Task/Task_Telemetry.c **** 
 356:Task/Task_Telemetry.c **** static Telemetry_ToggleData_TypeDef Telemetry_Toggle_Check(Telemetry_RCFuncMap_TypeDef *toggle)
 357:Task/Task_Telemetry.c **** {
 358:Task/Task_Telemetry.c ****     Telemetry_ToggleData_TypeDef toggle_val;
 359:Task/Task_Telemetry.c ****     uint8_t pos_reg = 0;
 360:Task/Task_Telemetry.c **** 
 361:Task/Task_Telemetry.c ****     toggle_val.pos = 0;
 362:Task/Task_Telemetry.c ****     toggle_val.cnt = 0;
 363:Task/Task_Telemetry.c ****     toggle_val.state = false;
 364:Task/Task_Telemetry.c ****     item_obj *nxt = &toggle->combo_list;
 365:Task/Task_Telemetry.c ****     Telemetry_ChannelSet_TypeDef *channel_data = NULL;
 366:Task/Task_Telemetry.c **** 
 367:Task/Task_Telemetry.c ****     if (!toggle)
 368:Task/Task_Telemetry.c ****         return toggle_val;
 369:Task/Task_Telemetry.c **** 
 370:Task/Task_Telemetry.c ****     /* do not use list traverse here */
 371:Task/Task_Telemetry.c ****     while (nxt)
 372:Task/Task_Telemetry.c ****     {
 373:Task/Task_Telemetry.c ****         channel_data = (Telemetry_ChannelSet_TypeDef *)nxt->data;
 374:Task/Task_Telemetry.c **** 
 375:Task/Task_Telemetry.c ****         if (!channel_data ||
 376:Task/Task_Telemetry.c ****             (((*(uint16_t *)channel_data->channel_ptr) <= channel_data->max) &&
 377:Task/Task_Telemetry.c ****              ((*(uint16_t *)channel_data->channel_ptr) >= channel_data->min)))
 378:Task/Task_Telemetry.c ****         {
 379:Task/Task_Telemetry.c ****             pos_reg |= 1 << toggle_val.pos;
 380:Task/Task_Telemetry.c ****             toggle_val.cnt++;
 381:Task/Task_Telemetry.c ****         }
 382:Task/Task_Telemetry.c **** 
 383:Task/Task_Telemetry.c ****         toggle_val.pos++;
 384:Task/Task_Telemetry.c ****         nxt = nxt->nxt;
 385:Task/Task_Telemetry.c ****     }
 386:Task/Task_Telemetry.c **** 
 387:Task/Task_Telemetry.c ****     /* get the number of the bit on set */
 388:Task/Task_Telemetry.c ****     if (Get_OnSet_Bit_Num(pos_reg) == 1)
 389:Task/Task_Telemetry.c ****     {
 390:Task/Task_Telemetry.c ****         /* only on bit been set */
ARM GAS  C:\Users\8bit\AppData\Local\Temp\cc7otBDv.s 			page 9


 391:Task/Task_Telemetry.c ****         toggle_val.pos = Get_Bit_Index(pos_reg);
 392:Task/Task_Telemetry.c ****     }
 393:Task/Task_Telemetry.c ****     else
 394:Task/Task_Telemetry.c ****     {
 395:Task/Task_Telemetry.c ****         /* many bits been set on pos_reg */
 396:Task/Task_Telemetry.c ****         toggle_val.pos = 0;
 397:Task/Task_Telemetry.c ****     }
 398:Task/Task_Telemetry.c **** 
 399:Task/Task_Telemetry.c ****     if (toggle_val.cnt == toggle->combo_cnt)
 400:Task/Task_Telemetry.c ****         toggle_val.state = true;
 401:Task/Task_Telemetry.c **** 
 402:Task/Task_Telemetry.c ****     return toggle_val;
 403:Task/Task_Telemetry.c **** }
 404:Task/Task_Telemetry.c **** 
 405:Task/Task_Telemetry.c **** static void Telemetry_Enable_GimbalDeadZone(Telemetry_RCFuncMap_TypeDef *gimbal, uint16_t scope)
 406:Task/Task_Telemetry.c **** {
  70              		.loc 1 406 1 is_stmt 1 view -0
  71              		.cfi_startproc
  72              		@ args = 0, pretend = 0, frame = 0
  73              		@ frame_needed = 0, uses_anonymous_args = 0
  74              		@ link register save eliminated.
 407:Task/Task_Telemetry.c ****     Telemetry_ChannelSet_TypeDef *gimbal_channel = NULL;
  75              		.loc 1 407 5 view .LVU8
 408:Task/Task_Telemetry.c **** 
 409:Task/Task_Telemetry.c ****     if (gimbal)
  76              		.loc 1 409 5 view .LVU9
  77              		.loc 1 409 8 is_stmt 0 view .LVU10
  78 0000 08B1     		cbz	r0, .L5
 410:Task/Task_Telemetry.c ****     {
 411:Task/Task_Telemetry.c ****         gimbal_channel = gimbal->combo_list.data;
  79              		.loc 1 411 9 is_stmt 1 view .LVU11
  80              		.loc 1 411 24 is_stmt 0 view .LVU12
  81 0002 0369     		ldr	r3, [r0, #16]
  82              	.LVL4:
 412:Task/Task_Telemetry.c **** 
 413:Task/Task_Telemetry.c ****         if (gimbal_channel)
  83              		.loc 1 413 9 is_stmt 1 view .LVU13
  84              		.loc 1 413 12 is_stmt 0 view .LVU14
  85 0004 03B1     		cbz	r3, .L7
  86              	.LVL5:
  87              	.L5:
 414:Task/Task_Telemetry.c ****             return;
 415:Task/Task_Telemetry.c **** 
 416:Task/Task_Telemetry.c ****         gimbal_channel->center_deadzone_scope = scope;
 417:Task/Task_Telemetry.c ****         gimbal_channel->enable_deadzone = true;
 418:Task/Task_Telemetry.c ****     }
 419:Task/Task_Telemetry.c **** }
  88              		.loc 1 419 1 view .LVU15
  89 0006 7047     		bx	lr
  90              	.LVL6:
  91              	.L7:
 416:Task/Task_Telemetry.c ****         gimbal_channel->enable_deadzone = true;
  92              		.loc 1 416 9 is_stmt 1 view .LVU16
 416:Task/Task_Telemetry.c ****         gimbal_channel->enable_deadzone = true;
  93              		.loc 1 416 47 is_stmt 0 view .LVU17
  94 0008 5980     		strh	r1, [r3, #2]	@ movhi
 417:Task/Task_Telemetry.c ****     }
ARM GAS  C:\Users\8bit\AppData\Local\Temp\cc7otBDv.s 			page 10


  95              		.loc 1 417 9 is_stmt 1 view .LVU18
 417:Task/Task_Telemetry.c ****     }
  96              		.loc 1 417 41 is_stmt 0 view .LVU19
  97 000a 0122     		movs	r2, #1
  98 000c 1A70     		strb	r2, [r3]
  99 000e FAE7     		b	.L5
 100              		.cfi_endproc
 101              	.LFE2081:
 103              		.section	.text.Telemetry_GimbalToPercent,"ax",%progbits
 104              		.align	1
 105              		.syntax unified
 106              		.thumb
 107              		.thumb_func
 109              	Telemetry_GimbalToPercent:
 110              	.LVL7:
 111              	.LFB2083:
 420:Task/Task_Telemetry.c **** 
 421:Task/Task_Telemetry.c **** static uint16_t Telemetry_Check_Gimbal(Telemetry_RCFuncMap_TypeDef *gimbal)
 422:Task/Task_Telemetry.c **** {
 423:Task/Task_Telemetry.c ****     Telemetry_ChannelSet_TypeDef *gimbal_channel = NULL;
 424:Task/Task_Telemetry.c **** 
 425:Task/Task_Telemetry.c ****     if (gimbal == NULL)
 426:Task/Task_Telemetry.c ****         return TELEMETRY_RC_CHANNEL_RANGE_MIN;
 427:Task/Task_Telemetry.c **** 
 428:Task/Task_Telemetry.c ****     gimbal_channel = gimbal->combo_list.data;
 429:Task/Task_Telemetry.c **** 
 430:Task/Task_Telemetry.c ****     if ((gimbal_channel == NULL) || (gimbal_channel->min >= gimbal_channel->max))
 431:Task/Task_Telemetry.c ****         return TELEMETRY_RC_CHANNEL_RANGE_MIN;
 432:Task/Task_Telemetry.c **** 
 433:Task/Task_Telemetry.c ****     if (*gimbal_channel->channel_ptr < gimbal_channel->min)
 434:Task/Task_Telemetry.c ****         return gimbal_channel->min;
 435:Task/Task_Telemetry.c **** 
 436:Task/Task_Telemetry.c ****     if (*gimbal_channel->channel_ptr > gimbal_channel->max)
 437:Task/Task_Telemetry.c ****         return gimbal_channel->max;
 438:Task/Task_Telemetry.c **** 
 439:Task/Task_Telemetry.c ****     return *gimbal_channel->channel_ptr;
 440:Task/Task_Telemetry.c **** }
 441:Task/Task_Telemetry.c **** 
 442:Task/Task_Telemetry.c **** static uint16_t Telemetry_GimbalToPercent(Telemetry_RCFuncMap_TypeDef *gimbal)
 443:Task/Task_Telemetry.c **** {
 112              		.loc 1 443 1 is_stmt 1 view -0
 113              		.cfi_startproc
 114              		@ args = 0, pretend = 0, frame = 0
 115              		@ frame_needed = 0, uses_anonymous_args = 0
 444:Task/Task_Telemetry.c ****     Telemetry_ChannelSet_TypeDef *gimbal_channel = NULL;
 116              		.loc 1 444 5 view .LVU21
 445:Task/Task_Telemetry.c ****     int16_t pos_range = 0;
 117              		.loc 1 445 5 view .LVU22
 446:Task/Task_Telemetry.c ****     int16_t neg_range = 0;
 118              		.loc 1 446 5 view .LVU23
 447:Task/Task_Telemetry.c ****     float percent = 50.0f;
 119              		.loc 1 447 5 view .LVU24
 448:Task/Task_Telemetry.c **** 
 449:Task/Task_Telemetry.c ****     if (gimbal == NULL)
 120              		.loc 1 449 5 view .LVU25
 121              		.loc 1 449 8 is_stmt 0 view .LVU26
 122 0000 0028     		cmp	r0, #0
ARM GAS  C:\Users\8bit\AppData\Local\Temp\cc7otBDv.s 			page 11


 123 0002 66D0     		beq	.L13
 450:Task/Task_Telemetry.c ****         return 0;
 451:Task/Task_Telemetry.c **** 
 452:Task/Task_Telemetry.c ****     gimbal_channel = gimbal->combo_list.data;
 124              		.loc 1 452 5 is_stmt 1 view .LVU27
 125              		.loc 1 452 20 is_stmt 0 view .LVU28
 126 0004 0269     		ldr	r2, [r0, #16]
 127              	.LVL8:
 453:Task/Task_Telemetry.c **** 
 454:Task/Task_Telemetry.c ****     if ((gimbal_channel == NULL) || (gimbal_channel->min >= gimbal_channel->max))
 128              		.loc 1 454 5 is_stmt 1 view .LVU29
 129              		.loc 1 454 8 is_stmt 0 view .LVU30
 130 0006 002A     		cmp	r2, #0
 131 0008 65D0     		beq	.L14
 132              		.loc 1 454 52 discriminator 1 view .LVU31
 133 000a B2F804C0 		ldrh	ip, [r2, #4]
 134              		.loc 1 454 75 discriminator 1 view .LVU32
 135 000e 1389     		ldrh	r3, [r2, #8]
 136              		.loc 1 454 34 discriminator 1 view .LVU33
 137 0010 9C45     		cmp	ip, r3
 138 0012 62D2     		bcs	.L15
 443:Task/Task_Telemetry.c ****     Telemetry_ChannelSet_TypeDef *gimbal_channel = NULL;
 139              		.loc 1 443 1 view .LVU34
 140 0014 10B5     		push	{r4, lr}
 141              	.LCFI1:
 142              		.cfi_def_cfa_offset 8
 143              		.cfi_offset 4, -8
 144              		.cfi_offset 14, -4
 455:Task/Task_Telemetry.c ****         return 0;
 456:Task/Task_Telemetry.c **** 
 457:Task/Task_Telemetry.c ****     if (gimbal_channel->enable_deadzone)
 145              		.loc 1 457 5 is_stmt 1 view .LVU35
 146              		.loc 1 457 23 is_stmt 0 view .LVU36
 147 0016 1178     		ldrb	r1, [r2]	@ zero_extendqisi2
 148              		.loc 1 457 8 view .LVU37
 149 0018 51B1     		cbz	r1, .L10
 458:Task/Task_Telemetry.c ****     {
 459:Task/Task_Telemetry.c ****         if (*gimbal_channel->channel_ptr <= (gimbal_channel->mid + gimbal_channel->center_deadzone_
 150              		.loc 1 459 9 is_stmt 1 view .LVU38
 151              		.loc 1 459 28 is_stmt 0 view .LVU39
 152 001a D168     		ldr	r1, [r2, #12]
 153              		.loc 1 459 13 view .LVU40
 154 001c 0888     		ldrh	r0, [r1]
 155              	.LVL9:
 156              		.loc 1 459 60 view .LVU41
 157 001e D188     		ldrh	r1, [r2, #6]
 158              		.loc 1 459 82 view .LVU42
 159 0020 5488     		ldrh	r4, [r2, #2]
 160              		.loc 1 459 66 view .LVU43
 161 0022 01EB040E 		add	lr, r1, r4
 162              		.loc 1 459 12 view .LVU44
 163 0026 7045     		cmp	r0, lr
 164 0028 02DC     		bgt	.L10
 460:Task/Task_Telemetry.c ****             (*gimbal_channel->channel_ptr >= (gimbal_channel->mid - gimbal_channel->center_deadzone
 165              		.loc 1 460 67 discriminator 1 view .LVU45
 166 002a 091B     		subs	r1, r1, r4
 459:Task/Task_Telemetry.c ****             (*gimbal_channel->channel_ptr >= (gimbal_channel->mid - gimbal_channel->center_deadzone
ARM GAS  C:\Users\8bit\AppData\Local\Temp\cc7otBDv.s 			page 12


 167              		.loc 1 459 107 discriminator 1 view .LVU46
 168 002c 8842     		cmp	r0, r1
 169 002e 56DA     		bge	.L16
 170              	.L10:
 461:Task/Task_Telemetry.c ****             return 50;
 462:Task/Task_Telemetry.c ****     }
 463:Task/Task_Telemetry.c **** 
 464:Task/Task_Telemetry.c ****     pos_range = (gimbal_channel->max - gimbal_channel->mid - gimbal_channel->center_deadzone_scope)
 171              		.loc 1 464 5 is_stmt 1 view .LVU47
 172              		.loc 1 464 54 is_stmt 0 view .LVU48
 173 0030 D088     		ldrh	r0, [r2, #6]
 174              		.loc 1 464 38 view .LVU49
 175 0032 1B1A     		subs	r3, r3, r0
 176 0034 9BB2     		uxth	r3, r3
 177              		.loc 1 464 76 view .LVU50
 178 0036 B2F802E0 		ldrh	lr, [r2, #2]
 179              		.loc 1 464 60 view .LVU51
 180 003a A3EB0E03 		sub	r3, r3, lr
 181              		.loc 1 464 15 view .LVU52
 182 003e 1BB2     		sxth	r3, r3
 183              	.LVL10:
 465:Task/Task_Telemetry.c ****     neg_range = (gimbal_channel->mid - gimbal_channel->min - gimbal_channel->center_deadzone_scope)
 184              		.loc 1 465 5 is_stmt 1 view .LVU53
 185              		.loc 1 465 38 is_stmt 0 view .LVU54
 186 0040 A0EB0C01 		sub	r1, r0, ip
 187 0044 89B2     		uxth	r1, r1
 188              		.loc 1 465 60 view .LVU55
 189 0046 A1EB0E01 		sub	r1, r1, lr
 190              		.loc 1 465 15 view .LVU56
 191 004a 09B2     		sxth	r1, r1
 192              	.LVL11:
 466:Task/Task_Telemetry.c **** 
 467:Task/Task_Telemetry.c ****     if((*gimbal_channel->channel_ptr - (gimbal_channel->mid + gimbal_channel->center_deadzone_scope
 193              		.loc 1 467 5 is_stmt 1 view .LVU57
 194              		.loc 1 467 24 is_stmt 0 view .LVU58
 195 004c D268     		ldr	r2, [r2, #12]
 196              	.LVL12:
 197              		.loc 1 467 9 view .LVU59
 198 004e 1288     		ldrh	r2, [r2]
 199              		.loc 1 467 61 view .LVU60
 200 0050 00EB0E04 		add	r4, r0, lr
 201              		.loc 1 467 38 view .LVU61
 202 0054 141B     		subs	r4, r2, r4
 203              		.loc 1 467 7 view .LVU62
 204 0056 002C     		cmp	r4, #0
 205 0058 1EDD     		ble	.L11
 468:Task/Task_Telemetry.c ****     {
 469:Task/Task_Telemetry.c ****         percent = (float)(*gimbal_channel->channel_ptr - gimbal_channel->center_deadzone_scope - gi
 206              		.loc 1 469 9 is_stmt 1 view .LVU63
 207              		.loc 1 469 56 is_stmt 0 view .LVU64
 208 005a A2EB0E02 		sub	r2, r2, lr
 209              		.loc 1 469 96 view .LVU65
 210 005e 121A     		subs	r2, r2, r0
 211              		.loc 1 469 19 view .LVU66
 212 0060 07EE902A 		vmov	s15, r2	@ int
 213 0064 F8EEE76A 		vcvt.f32.s32	s13, s15
 214              		.loc 1 469 119 view .LVU67
ARM GAS  C:\Users\8bit\AppData\Local\Temp\cc7otBDv.s 			page 13


 215 0068 07EE903A 		vmov	s15, r3	@ int
 216 006c B8EEE77A 		vcvt.f32.s32	s14, s15
 217              		.loc 1 469 17 view .LVU68
 218 0070 C6EE877A 		vdiv.f32	s15, s13, s14
 219              	.LVL13:
 470:Task/Task_Telemetry.c ****         percent = (percent / 2) * 100 + 50;
 220              		.loc 1 470 9 is_stmt 1 view .LVU69
 221              		.loc 1 470 28 is_stmt 0 view .LVU70
 222 0074 B6EE007A 		vmov.f32	s14, #5.0e-1
 223 0078 67EE877A 		vmul.f32	s15, s15, s14
 224              	.LVL14:
 225              		.loc 1 470 33 view .LVU71
 226 007c 9FED197A 		vldr.32	s14, .L22
 227 0080 67EE877A 		vmul.f32	s15, s15, s14
 228              		.loc 1 470 17 view .LVU72
 229 0084 9FED187A 		vldr.32	s14, .L22+4
 230 0088 77EE877A 		vadd.f32	s15, s15, s14
 231              	.LVL15:
 232              	.L12:
 471:Task/Task_Telemetry.c ****     }
 472:Task/Task_Telemetry.c ****     else if((gimbal_channel->mid - gimbal_channel->center_deadzone_scope) - *gimbal_channel->channe
 473:Task/Task_Telemetry.c ****     {
 474:Task/Task_Telemetry.c ****         percent = (float)(*gimbal_channel->channel_ptr - gimbal_channel->min) / neg_range;
 475:Task/Task_Telemetry.c ****         percent = (percent / 2) * 100;
 476:Task/Task_Telemetry.c ****     }
 477:Task/Task_Telemetry.c ****     
 478:Task/Task_Telemetry.c ****     return (uint16_t)percent;
 233              		.loc 1 478 5 is_stmt 1 view .LVU73
 234              		.loc 1 478 12 is_stmt 0 view .LVU74
 235 008c FCEEE77A 		vcvt.u32.f32	s15, s15
 236              	.LVL16:
 237              		.loc 1 478 12 view .LVU75
 238 0090 17EE903A 		vmov	r3, s15	@ int
 239              	.LVL17:
 240              		.loc 1 478 12 view .LVU76
 241 0094 98B2     		uxth	r0, r3
 242              	.LVL18:
 243              	.L9:
 479:Task/Task_Telemetry.c **** }
 244              		.loc 1 479 1 view .LVU77
 245 0096 10BD     		pop	{r4, pc}
 246              	.LVL19:
 247              	.L11:
 472:Task/Task_Telemetry.c ****     {
 248              		.loc 1 472 10 is_stmt 1 view .LVU78
 472:Task/Task_Telemetry.c ****     {
 249              		.loc 1 472 34 is_stmt 0 view .LVU79
 250 0098 A0EB0E00 		sub	r0, r0, lr
 472:Task/Task_Telemetry.c ****     {
 251              		.loc 1 472 75 view .LVU80
 252 009c 801A     		subs	r0, r0, r2
 472:Task/Task_Telemetry.c ****     {
 253              		.loc 1 472 12 view .LVU81
 254 009e 0028     		cmp	r0, #0
 255 00a0 14DD     		ble	.L17
 474:Task/Task_Telemetry.c ****         percent = (percent / 2) * 100;
 256              		.loc 1 474 9 is_stmt 1 view .LVU82
ARM GAS  C:\Users\8bit\AppData\Local\Temp\cc7otBDv.s 			page 14


 474:Task/Task_Telemetry.c ****         percent = (percent / 2) * 100;
 257              		.loc 1 474 56 is_stmt 0 view .LVU83
 258 00a2 A2EB0C02 		sub	r2, r2, ip
 474:Task/Task_Telemetry.c ****         percent = (percent / 2) * 100;
 259              		.loc 1 474 19 view .LVU84
 260 00a6 07EE902A 		vmov	s15, r2	@ int
 261 00aa B8EEE77A 		vcvt.f32.s32	s14, s15
 474:Task/Task_Telemetry.c ****         percent = (percent / 2) * 100;
 262              		.loc 1 474 79 view .LVU85
 263 00ae 07EE901A 		vmov	s15, r1	@ int
 264 00b2 F8EEE76A 		vcvt.f32.s32	s13, s15
 474:Task/Task_Telemetry.c ****         percent = (percent / 2) * 100;
 265              		.loc 1 474 17 view .LVU86
 266 00b6 C7EE267A 		vdiv.f32	s15, s14, s13
 267              	.LVL20:
 475:Task/Task_Telemetry.c ****     }
 268              		.loc 1 475 9 is_stmt 1 view .LVU87
 475:Task/Task_Telemetry.c ****     }
 269              		.loc 1 475 28 is_stmt 0 view .LVU88
 270 00ba B6EE007A 		vmov.f32	s14, #5.0e-1
 271 00be 67EE877A 		vmul.f32	s15, s15, s14
 272              	.LVL21:
 475:Task/Task_Telemetry.c ****     }
 273              		.loc 1 475 17 view .LVU89
 274 00c2 9FED087A 		vldr.32	s14, .L22
 275 00c6 67EE877A 		vmul.f32	s15, s15, s14
 276              	.LVL22:
 475:Task/Task_Telemetry.c ****     }
 277              		.loc 1 475 17 view .LVU90
 278 00ca DFE7     		b	.L12
 279              	.LVL23:
 280              	.L17:
 447:Task/Task_Telemetry.c **** 
 281              		.loc 1 447 11 view .LVU91
 282 00cc DFED067A 		vldr.32	s15, .L22+4
 283 00d0 DCE7     		b	.L12
 284              	.LVL24:
 285              	.L13:
 286              	.LCFI2:
 287              		.cfi_def_cfa_offset 0
 288              		.cfi_restore 4
 289              		.cfi_restore 14
 450:Task/Task_Telemetry.c **** 
 290              		.loc 1 450 16 view .LVU92
 291 00d2 0020     		movs	r0, #0
 292              	.LVL25:
 450:Task/Task_Telemetry.c **** 
 293              		.loc 1 450 16 view .LVU93
 294 00d4 7047     		bx	lr
 295              	.LVL26:
 296              	.L14:
 455:Task/Task_Telemetry.c **** 
 297              		.loc 1 455 16 view .LVU94
 298 00d6 0020     		movs	r0, #0
 299              	.LVL27:
 455:Task/Task_Telemetry.c **** 
 300              		.loc 1 455 16 view .LVU95
ARM GAS  C:\Users\8bit\AppData\Local\Temp\cc7otBDv.s 			page 15


 301 00d8 7047     		bx	lr
 302              	.LVL28:
 303              	.L15:
 455:Task/Task_Telemetry.c **** 
 304              		.loc 1 455 16 view .LVU96
 305 00da 0020     		movs	r0, #0
 306              	.LVL29:
 307              		.loc 1 479 1 view .LVU97
 308 00dc 7047     		bx	lr
 309              	.L16:
 310              	.LCFI3:
 311              		.cfi_def_cfa_offset 8
 312              		.cfi_offset 4, -8
 313              		.cfi_offset 14, -4
 461:Task/Task_Telemetry.c ****     }
 314              		.loc 1 461 20 view .LVU98
 315 00de 3220     		movs	r0, #50
 316 00e0 D9E7     		b	.L9
 317              	.L23:
 318 00e2 00BF     		.align	2
 319              	.L22:
 320 00e4 0000C842 		.word	1120403456
 321 00e8 00004842 		.word	1112014848
 322              		.cfi_endproc
 323              	.LFE2083:
 325              		.section	.text.Telemetry_SplitScopeValue_Into,"ax",%progbits
 326              		.align	1
 327              		.syntax unified
 328              		.thumb
 329              		.thumb_func
 331              	Telemetry_SplitScopeValue_Into:
 332              	.LVL30:
 333              	.LFB2085:
 480:Task/Task_Telemetry.c **** 
 481:Task/Task_Telemetry.c **** static Telemetry_RCSig_TypeDef Telemetry_RC_Sig_Update(Telemetry_RCInput_TypeDef *RC_Input_obj, Srv
 482:Task/Task_Telemetry.c **** {
 483:Task/Task_Telemetry.c ****     SrvReceiverData_TypeDef receiver_data;
 484:Task/Task_Telemetry.c ****     Telemetry_RCSig_TypeDef sig_tmp;
 485:Task/Task_Telemetry.c ****     static bool throttle_warning = false;
 486:Task/Task_Telemetry.c **** 
 487:Task/Task_Telemetry.c ****     memset(&receiver_data, 0, sizeof(receiver_data));
 488:Task/Task_Telemetry.c ****     memset(&sig_tmp, 0, sizeof(sig_tmp));
 489:Task/Task_Telemetry.c **** 
 490:Task/Task_Telemetry.c ****     if ((!RC_Input_obj) || (!receiver_obj) || (!RC_Input_obj->init_state))
 491:Task/Task_Telemetry.c ****         return sig_tmp;
 492:Task/Task_Telemetry.c **** 
 493:Task/Task_Telemetry.c ****     receiver_data = SrvReceiver.get(receiver_obj);
 494:Task/Task_Telemetry.c **** 
 495:Task/Task_Telemetry.c ****     if (!receiver_data.failsafe)
 496:Task/Task_Telemetry.c ****     {
 497:Task/Task_Telemetry.c ****         RC_Input_obj->sig.rssi = receiver_data.rssi;
 498:Task/Task_Telemetry.c ****         RC_Input_obj->sig.link_quality = receiver_data.link_quality;
 499:Task/Task_Telemetry.c ****         RC_Input_obj->sig.time_stamp = RC_Input_obj->update_rt;
 500:Task/Task_Telemetry.c **** 
 501:Task/Task_Telemetry.c ****         RC_Input_obj->sig.channel_sum = Receiver_Obj.channel_num;
 502:Task/Task_Telemetry.c **** 
 503:Task/Task_Telemetry.c ****         /* get gimbal channel */
ARM GAS  C:\Users\8bit\AppData\Local\Temp\cc7otBDv.s 			page 16


 504:Task/Task_Telemetry.c ****         for (uint8_t i = 0; i < receiver_obj->channel_num; i++)
 505:Task/Task_Telemetry.c ****         {
 506:Task/Task_Telemetry.c ****             if (i < Gimbal_Sum)
 507:Task/Task_Telemetry.c ****             {
 508:Task/Task_Telemetry.c ****                 Telemetry_Check_Gimbal(&RC_Input_obj->Gimbal[i]);
 509:Task/Task_Telemetry.c ****                 RC_Input_obj->sig.gimbal_percent[i] = Telemetry_GimbalToPercent(&RC_Input_obj->Gimb
 510:Task/Task_Telemetry.c ****             }
 511:Task/Task_Telemetry.c **** 
 512:Task/Task_Telemetry.c ****             RC_Input_obj->sig.channel[i] = receiver_data.val_list[i];
 513:Task/Task_Telemetry.c ****         }
 514:Task/Task_Telemetry.c **** 
 515:Task/Task_Telemetry.c ****         /* check blackbox toggle */
 516:Task/Task_Telemetry.c ****         RC_Input_obj->sig.blackbox = Telemetry_Toggle_Check(&RC_Input_obj->Blackbox_Toggle).state;
 517:Task/Task_Telemetry.c **** 
 518:Task/Task_Telemetry.c ****         /* check buzzer toggle */
 519:Task/Task_Telemetry.c ****         RC_Input_obj->sig.buzz_state = Telemetry_Toggle_Check(&RC_Input_obj->Buzzer_Toggle).state;
 520:Task/Task_Telemetry.c **** 
 521:Task/Task_Telemetry.c ****         /* check arm & disarm */
 522:Task/Task_Telemetry.c ****         RC_Input_obj->sig.arm_state = Telemetry_Toggle_Check(&RC_Input_obj->ARM_Toggle).state;
 523:Task/Task_Telemetry.c **** 
 524:Task/Task_Telemetry.c ****         /* check control mode */
 525:Task/Task_Telemetry.c ****         RC_Input_obj->sig.control_mode = Telemetry_Toggle_Check(&RC_Input_obj->ControlMode_Toggle).
 526:Task/Task_Telemetry.c **** 
 527:Task/Task_Telemetry.c ****         /* check control mode inedx range */
 528:Task/Task_Telemetry.c ****         if ((RC_Input_obj->sig.control_mode > Telemetry_Control_Mode_AUTO) || (RC_Input_obj->sig.co
 529:Task/Task_Telemetry.c ****             RC_Input_obj->sig.control_mode = Telemetry_Control_Mode_Default;
 530:Task/Task_Telemetry.c **** 
 531:Task/Task_Telemetry.c ****         if (RC_Input_obj->sig.arm_state == TELEMETRY_SET_ARM)
 532:Task/Task_Telemetry.c ****         {
 533:Task/Task_Telemetry.c ****             throttle_warning = false;
 534:Task/Task_Telemetry.c **** 
 535:Task/Task_Telemetry.c ****             /* check calibrate */
 536:Task/Task_Telemetry.c ****             RC_Input_obj->sig.cali_state = Telemetry_Toggle_Check(&RC_Input_obj->CLB_Toggle).state;
 537:Task/Task_Telemetry.c ****             
 538:Task/Task_Telemetry.c ****             /* check flip over toggle */
 539:Task/Task_Telemetry.c ****             RC_Input_obj->sig.flip_over = Telemetry_Toggle_Check(&RC_Input_obj->FlipOver_Toggle).st
 540:Task/Task_Telemetry.c ****         }
 541:Task/Task_Telemetry.c ****         else
 542:Task/Task_Telemetry.c ****         {
 543:Task/Task_Telemetry.c ****             RC_Input_obj->sig.cali_state = false;
 544:Task/Task_Telemetry.c ****             RC_Input_obj->sig.flip_over = false;
 545:Task/Task_Telemetry.c ****         }
 546:Task/Task_Telemetry.c **** 
 547:Task/Task_Telemetry.c ****         RC_Input_obj->update_rt = receiver_data.time_stamp;
 548:Task/Task_Telemetry.c ****         RC_Input_obj->sig.update_interval = RC_Input_obj->update_rt - RC_Input_obj->lst_update_rt;
 549:Task/Task_Telemetry.c **** 
 550:Task/Task_Telemetry.c ****         RC_Input_obj->lst_update_rt = RC_Input_obj->update_rt;
 551:Task/Task_Telemetry.c ****         RC_Input_obj->sig.failsafe = false;
 552:Task/Task_Telemetry.c **** 
 553:Task/Task_Telemetry.c ****         /* is recover form failsafe */
 554:Task/Task_Telemetry.c ****         if (Telemetry_Monitor.recover_failsafe)
 555:Task/Task_Telemetry.c ****         {
 556:Task/Task_Telemetry.c ****             /* if current arm state equal to before fall into failsafe's
 557:Task/Task_Telemetry.c ****              * then sig is fine or else the arm signal has been change from recovered */
 558:Task/Task_Telemetry.c ****             if ((Telemetry_Monitor.lst_arm_state == TELEMETRY_SET_ARM) && (RC_Input_obj->sig.arm_st
 559:Task/Task_Telemetry.c ****             {
 560:Task/Task_Telemetry.c ****                 RC_Input_obj->sig.failsafe = true;
ARM GAS  C:\Users\8bit\AppData\Local\Temp\cc7otBDv.s 			page 17


 561:Task/Task_Telemetry.c ****                 return sig_tmp;
 562:Task/Task_Telemetry.c ****             }
 563:Task/Task_Telemetry.c **** 
 564:Task/Task_Telemetry.c ****             Telemetry_Monitor.recover_failsafe = false;
 565:Task/Task_Telemetry.c ****         }
 566:Task/Task_Telemetry.c ****     
 567:Task/Task_Telemetry.c ****         /* when power on and arm toggle on remote is set on disarm we force it to arm */
 568:Task/Task_Telemetry.c ****         if(Telemetry_Monitor.poweron_arm_check)
 569:Task/Task_Telemetry.c ****         {
 570:Task/Task_Telemetry.c ****             if(RC_Input_obj->sig.arm_state == TELEMETRY_SET_DISARM)
 571:Task/Task_Telemetry.c ****             {
 572:Task/Task_Telemetry.c ****                 RC_Input_obj->sig.arm_state = TELEMETRY_SET_ARM;
 573:Task/Task_Telemetry.c ****             }
 574:Task/Task_Telemetry.c ****             else
 575:Task/Task_Telemetry.c ****             {
 576:Task/Task_Telemetry.c ****                 Telemetry_Monitor.poweron_arm_check = false;
 577:Task/Task_Telemetry.c ****             }
 578:Task/Task_Telemetry.c ****         }
 579:Task/Task_Telemetry.c **** 
 580:Task/Task_Telemetry.c ****         /* if toggle switch into disarm but throttle currently is upper then 5% percent input
 581:Task/Task_Telemetry.c ****          * force throttle value to 0
 582:Task/Task_Telemetry.c ****          * only when physical throttle gimbal actually down to lowest so we update lst_arm_state */
 583:Task/Task_Telemetry.c ****         if ((RC_Input_obj->sig.arm_state == TELEMETRY_SET_DISARM) && (Telemetry_Monitor.lst_arm_sta
 584:Task/Task_Telemetry.c ****         {
 585:Task/Task_Telemetry.c ****             if (RC_Input_obj->sig.gimbal_percent[Gimbal_Throttle] >= TELEMETRY_RC_THROTTLE_PERCENT_
 586:Task/Task_Telemetry.c ****             {
 587:Task/Task_Telemetry.c ****                 RC_Input_obj->sig.gimbal_percent[Gimbal_Throttle] = 0;
 588:Task/Task_Telemetry.c ****                 throttle_warning = true;
 589:Task/Task_Telemetry.c ****             }
 590:Task/Task_Telemetry.c ****         }
 591:Task/Task_Telemetry.c **** 
 592:Task/Task_Telemetry.c ****         if (throttle_warning)
 593:Task/Task_Telemetry.c ****             RC_Input_obj->sig.arm_state = TELEMETRY_SET_ARM;
 594:Task/Task_Telemetry.c **** 
 595:Task/Task_Telemetry.c ****         Telemetry_Monitor.lst_arm_state = RC_Input_obj->sig.arm_state;
 596:Task/Task_Telemetry.c **** 
 597:Task/Task_Telemetry.c ****         Telemetry_Led_Control(false);
 598:Task/Task_Telemetry.c ****     }
 599:Task/Task_Telemetry.c ****     else
 600:Task/Task_Telemetry.c ****     {
 601:Task/Task_Telemetry.c ****         RC_Input_obj->sig.failsafe = true;
 602:Task/Task_Telemetry.c ****         RC_Input_obj->sig.arm_state = TELEMETRY_SET_ARM;
 603:Task/Task_Telemetry.c ****         RC_Input_obj->sig.buzz_state = false;
 604:Task/Task_Telemetry.c ****         // RC_Input_obj->sig.control_mode = Telemetry_Control_Mode_Default;
 605:Task/Task_Telemetry.c **** 
 606:Task/Task_Telemetry.c ****         for (uint8_t i = Gimbal_Throttle; i < Gimbal_Sum; i++)
 607:Task/Task_Telemetry.c ****             RC_Input_obj->sig.gimbal_percent[i] = 0;
 608:Task/Task_Telemetry.c **** 
 609:Task/Task_Telemetry.c ****         Telemetry_Monitor.recover_failsafe = true;
 610:Task/Task_Telemetry.c ****         Telemetry_Led_Control(true);
 611:Task/Task_Telemetry.c ****     }
 612:Task/Task_Telemetry.c **** 
 613:Task/Task_Telemetry.c ****     memcpy(&sig_tmp, &RC_Input_obj->sig, sizeof(Telemetry_RCSig_TypeDef));
 614:Task/Task_Telemetry.c **** 
 615:Task/Task_Telemetry.c ****     return sig_tmp;
 616:Task/Task_Telemetry.c **** }
 617:Task/Task_Telemetry.c **** 
ARM GAS  C:\Users\8bit\AppData\Local\Temp\cc7otBDv.s 			page 18


 618:Task/Task_Telemetry.c **** static uint16_t Telemetry_SplitScopeValue_Into(uint8_t pcs)
 619:Task/Task_Telemetry.c **** {
 334              		.loc 1 619 1 is_stmt 1 view -0
 335              		.cfi_startproc
 336              		@ args = 0, pretend = 0, frame = 0
 337              		@ frame_needed = 0, uses_anonymous_args = 0
 338              		@ link register save eliminated.
 620:Task/Task_Telemetry.c ****     uint16_t range = Telemetry_Monitor.receiver_value_max - Telemetry_Monitor.receiver_value_min;
 339              		.loc 1 620 5 view .LVU100
 340              		.loc 1 620 39 is_stmt 0 view .LVU101
 341 0000 054A     		ldr	r2, .L28
 342 0002 9389     		ldrh	r3, [r2, #12]
 343              		.loc 1 620 78 view .LVU102
 344 0004 128A     		ldrh	r2, [r2, #16]
 345              		.loc 1 620 14 view .LVU103
 346 0006 9B1A     		subs	r3, r3, r2
 347 0008 9BB2     		uxth	r3, r3
 348              	.LVL31:
 621:Task/Task_Telemetry.c **** 
 622:Task/Task_Telemetry.c ****     if(pcs)
 349              		.loc 1 622 5 is_stmt 1 view .LVU104
 350              		.loc 1 622 7 is_stmt 0 view .LVU105
 351 000a 08B9     		cbnz	r0, .L27
 623:Task/Task_Telemetry.c ****         return range / pcs;
 624:Task/Task_Telemetry.c **** 
 625:Task/Task_Telemetry.c ****     return 0;
 352              		.loc 1 625 12 view .LVU106
 353 000c 0020     		movs	r0, #0
 354              	.LVL32:
 626:Task/Task_Telemetry.c **** }
 355              		.loc 1 626 1 view .LVU107
 356 000e 7047     		bx	lr
 357              	.LVL33:
 358              	.L27:
 623:Task/Task_Telemetry.c ****         return range / pcs;
 359              		.loc 1 623 9 is_stmt 1 view .LVU108
 623:Task/Task_Telemetry.c ****         return range / pcs;
 360              		.loc 1 623 22 is_stmt 0 view .LVU109
 361 0010 93FBF0F0 		sdiv	r0, r3, r0
 362              	.LVL34:
 623:Task/Task_Telemetry.c ****         return range / pcs;
 363              		.loc 1 623 22 view .LVU110
 364 0014 7047     		bx	lr
 365              	.L29:
 366 0016 00BF     		.align	2
 367              	.L28:
 368 0018 00000000 		.word	.LANCHOR0
 369              		.cfi_endproc
 370              	.LFE2085:
 372              		.section	.text.Telemetry_BlackBox_OnChange,"ax",%progbits
 373              		.align	1
 374              		.syntax unified
 375              		.thumb
 376              		.thumb_func
 378              	Telemetry_BlackBox_OnChange:
 379              	.LFB2090:
 627:Task/Task_Telemetry.c **** 
ARM GAS  C:\Users\8bit\AppData\Local\Temp\cc7otBDv.s 			page 19


 628:Task/Task_Telemetry.c **** static bool Telemetry_Bind_Gimbal(uint8_t throttle_ch, uint8_t pitch_ch, uint8_t roll_ch, uint8_t y
 629:Task/Task_Telemetry.c **** {
 630:Task/Task_Telemetry.c ****     if((throttle_ch == pitch_ch) || \
 631:Task/Task_Telemetry.c ****        (throttle_ch == roll_ch) || \
 632:Task/Task_Telemetry.c ****        (throttle_ch == yaw_ch) || \
 633:Task/Task_Telemetry.c ****        (pitch_ch == roll_ch) || \
 634:Task/Task_Telemetry.c ****        (pitch_ch == yaw_ch) || \
 635:Task/Task_Telemetry.c ****        (roll_ch == yaw_ch))
 636:Task/Task_Telemetry.c ****         return false;
 637:Task/Task_Telemetry.c **** 
 638:Task/Task_Telemetry.c ****     if( !Telemetry_BindGimbalToChannel(&Telemetry_Monitor.RC_Setting, \
 639:Task/Task_Telemetry.c ****                                        &Receiver_Obj.data.val_list[throttle_ch], \
 640:Task/Task_Telemetry.c ****                                        Gimbal_Throttle, \
 641:Task/Task_Telemetry.c ****                                        Telemetry_Monitor.receiver_value_min, \
 642:Task/Task_Telemetry.c ****                                        Telemetry_Monitor.receiver_value_mid, \
 643:Task/Task_Telemetry.c ****                                        Telemetry_Monitor.receiver_value_max) ||
 644:Task/Task_Telemetry.c ****         !Telemetry_BindGimbalToChannel(&Telemetry_Monitor.RC_Setting, \
 645:Task/Task_Telemetry.c ****                                        &Receiver_Obj.data.val_list[pitch_ch], \
 646:Task/Task_Telemetry.c ****                                        Gimbal_Pitch, \
 647:Task/Task_Telemetry.c ****                                        Telemetry_Monitor.receiver_value_min, \
 648:Task/Task_Telemetry.c ****                                        Telemetry_Monitor.receiver_value_mid, \
 649:Task/Task_Telemetry.c ****                                        Telemetry_Monitor.receiver_value_max) ||
 650:Task/Task_Telemetry.c ****         !Telemetry_BindGimbalToChannel(&Telemetry_Monitor.RC_Setting, \
 651:Task/Task_Telemetry.c ****                                        &Receiver_Obj.data.val_list[roll_ch], \
 652:Task/Task_Telemetry.c ****                                        Gimbal_Roll, \
 653:Task/Task_Telemetry.c ****                                        Telemetry_Monitor.receiver_value_min, \
 654:Task/Task_Telemetry.c ****                                        Telemetry_Monitor.receiver_value_mid, \
 655:Task/Task_Telemetry.c ****                                        Telemetry_Monitor.receiver_value_max) ||
 656:Task/Task_Telemetry.c ****         !Telemetry_BindGimbalToChannel(&Telemetry_Monitor.RC_Setting, \
 657:Task/Task_Telemetry.c ****                                        &Receiver_Obj.data.val_list[yaw_ch], \
 658:Task/Task_Telemetry.c ****                                        Gimbal_Yaw, \
 659:Task/Task_Telemetry.c ****                                        Telemetry_Monitor.receiver_value_min, \
 660:Task/Task_Telemetry.c ****                                        Telemetry_Monitor.receiver_value_mid, \
 661:Task/Task_Telemetry.c ****                                        Telemetry_Monitor.receiver_value_max))
 662:Task/Task_Telemetry.c ****         return false;
 663:Task/Task_Telemetry.c **** 
 664:Task/Task_Telemetry.c ****     return true;
 665:Task/Task_Telemetry.c **** }
 666:Task/Task_Telemetry.c **** 
 667:Task/Task_Telemetry.c **** static bool Telemetry_Bind_Toggle(uint8_t arm_toggle_ch, uint8_t mode_toggle_ch, uint8_t buzzer_tog
 668:Task/Task_Telemetry.c **** {
 669:Task/Task_Telemetry.c ****     int16_t start = 0;
 670:Task/Task_Telemetry.c ****     int16_t end = 0;
 671:Task/Task_Telemetry.c ****     
 672:Task/Task_Telemetry.c ****     /* bind arm toggle */
 673:Task/Task_Telemetry.c ****     if(!Telemetry_BindToggleToChannel(&Telemetry_Monitor.RC_Setting, \
 674:Task/Task_Telemetry.c ****                                       &Receiver_Obj.data.val_list[arm_toggle_ch], \
 675:Task/Task_Telemetry.c ****                                       &Telemetry_Monitor.RC_Setting.ARM_Toggle, \
 676:Task/Task_Telemetry.c ****                                       Telemetry_Monitor.receiver_value_min, \
 677:Task/Task_Telemetry.c ****                                       Telemetry_Monitor.receiver_value_mid))
 678:Task/Task_Telemetry.c ****         return false;
 679:Task/Task_Telemetry.c **** 
 680:Task/Task_Telemetry.c ****     /* bind buzzer toggle */
 681:Task/Task_Telemetry.c ****     if(!Telemetry_BindToggleToChannel(&Telemetry_Monitor.RC_Setting, \
 682:Task/Task_Telemetry.c ****                                       &Receiver_Obj.data.val_list[buzzer_toggle_ch], \
 683:Task/Task_Telemetry.c ****                                       &Telemetry_Monitor.RC_Setting.Buzzer_Toggle, \
 684:Task/Task_Telemetry.c ****                                       Telemetry_Monitor.receiver_value_mid, \
ARM GAS  C:\Users\8bit\AppData\Local\Temp\cc7otBDv.s 			page 20


 685:Task/Task_Telemetry.c ****                                       Telemetry_Monitor.receiver_value_max))
 686:Task/Task_Telemetry.c ****         return false;
 687:Task/Task_Telemetry.c ****     
 688:Task/Task_Telemetry.c ****     /* bind control mode switcher toggle */ 
 689:Task/Task_Telemetry.c ****     uint16_t split_val = Telemetry_SplitScopeValue_Into(3);
 690:Task/Task_Telemetry.c ****     start = Telemetry_Monitor.receiver_value_min;
 691:Task/Task_Telemetry.c ****     end = Telemetry_Monitor.receiver_value_min + split_val;
 692:Task/Task_Telemetry.c ****     if(!Telemetry_BindToggleToChannel(&Telemetry_Monitor.RC_Setting, \
 693:Task/Task_Telemetry.c ****                                       &Receiver_Obj.data.val_list[mode_toggle_ch], \
 694:Task/Task_Telemetry.c ****                                       &Telemetry_Monitor.RC_Setting.ControlMode_Toggle, \
 695:Task/Task_Telemetry.c ****                                       start, \
 696:Task/Task_Telemetry.c ****                                       end))
 697:Task/Task_Telemetry.c ****         return false;
 698:Task/Task_Telemetry.c **** 
 699:Task/Task_Telemetry.c ****     start = end;
 700:Task/Task_Telemetry.c ****     end += split_val;
 701:Task/Task_Telemetry.c ****     if(!Telemetry_AddToggleCombo(&Telemetry_Monitor.RC_Setting, \
 702:Task/Task_Telemetry.c ****                                  &Receiver_Obj.data.val_list[mode_toggle_ch], \
 703:Task/Task_Telemetry.c ****                                  &Telemetry_Monitor.RC_Setting.ControlMode_Toggle, \
 704:Task/Task_Telemetry.c ****                                  start, \
 705:Task/Task_Telemetry.c ****                                  end))
 706:Task/Task_Telemetry.c ****         return false;
 707:Task/Task_Telemetry.c **** 
 708:Task/Task_Telemetry.c ****     start = end;
 709:Task/Task_Telemetry.c ****     end = Telemetry_Monitor.receiver_value_max;
 710:Task/Task_Telemetry.c ****     if(!Telemetry_AddToggleCombo(&Telemetry_Monitor.RC_Setting, \
 711:Task/Task_Telemetry.c ****                                  &Receiver_Obj.data.val_list[mode_toggle_ch], \
 712:Task/Task_Telemetry.c ****                                  &Telemetry_Monitor.RC_Setting.ControlMode_Toggle, \
 713:Task/Task_Telemetry.c ****                                  start, \
 714:Task/Task_Telemetry.c ****                                  end))
 715:Task/Task_Telemetry.c ****        return false;
 716:Task/Task_Telemetry.c **** 
 717:Task/Task_Telemetry.c ****     /* bind control BlackBox toggle (toggle must can auto reset) */
 718:Task/Task_Telemetry.c ****     if(!Telemetry_BindToggleToChannel(&Telemetry_Monitor.RC_Setting, \
 719:Task/Task_Telemetry.c ****                                       &Receiver_Obj.data.val_list[blackbox_toggle_ch], \
 720:Task/Task_Telemetry.c ****                                       &Telemetry_Monitor.RC_Setting.Blackbox_Toggle, \
 721:Task/Task_Telemetry.c ****                                       Telemetry_Monitor.receiver_value_mid, \
 722:Task/Task_Telemetry.c ****                                       Telemetry_Monitor.receiver_value_max))
 723:Task/Task_Telemetry.c ****         return false;
 724:Task/Task_Telemetry.c **** 
 725:Task/Task_Telemetry.c ****     if(!Telemetry_BindToggleToChannel(&Telemetry_Monitor.RC_Setting, \
 726:Task/Task_Telemetry.c ****                                       &Receiver_Obj.data.val_list[flipover_toggle_ch], \
 727:Task/Task_Telemetry.c ****                                       &Telemetry_Monitor.RC_Setting.FlipOver_Toggle, \
 728:Task/Task_Telemetry.c ****                                       Telemetry_Monitor.receiver_value_mid, \
 729:Task/Task_Telemetry.c ****                                       Telemetry_Monitor.receiver_value_max))
 730:Task/Task_Telemetry.c ****         return false;
 731:Task/Task_Telemetry.c **** 
 732:Task/Task_Telemetry.c ****     return true;
 733:Task/Task_Telemetry.c **** }
 734:Task/Task_Telemetry.c **** 
 735:Task/Task_Telemetry.c **** /* const gimbal position */
 736:Task/Task_Telemetry.c **** static bool Telemetry_Bind_CalibCombo(void)
 737:Task/Task_Telemetry.c **** {
 738:Task/Task_Telemetry.c ****     int16_t start = Telemetry_Monitor.receiver_value_min;
 739:Task/Task_Telemetry.c ****     int16_t end = start + 100;
 740:Task/Task_Telemetry.c **** 
 741:Task/Task_Telemetry.c ****     if(!Telemetry_AddToggleCombo(&Telemetry_Monitor.RC_Setting, &Receiver_Obj.data.val_list[2], &Te
ARM GAS  C:\Users\8bit\AppData\Local\Temp\cc7otBDv.s 			page 21


 742:Task/Task_Telemetry.c ****        !Telemetry_AddToggleCombo(&Telemetry_Monitor.RC_Setting, &Receiver_Obj.data.val_list[1], &Te
 743:Task/Task_Telemetry.c ****        !Telemetry_AddToggleCombo(&Telemetry_Monitor.RC_Setting, &Receiver_Obj.data.val_list[0], &Te
 744:Task/Task_Telemetry.c ****        !Telemetry_AddToggleCombo(&Telemetry_Monitor.RC_Setting, &Receiver_Obj.data.val_list[3], &Te
 745:Task/Task_Telemetry.c ****        return false;
 746:Task/Task_Telemetry.c **** 
 747:Task/Task_Telemetry.c ****     return true;
 748:Task/Task_Telemetry.c **** }
 749:Task/Task_Telemetry.c **** 
 750:Task/Task_Telemetry.c **** static void Telemetry_ConvertRCData_To_ControlData(Telemetry_RCSig_TypeDef RCSig, ControlData_TypeD
 751:Task/Task_Telemetry.c **** {
 752:Task/Task_Telemetry.c ****     if(CTLSig)
 753:Task/Task_Telemetry.c ****     {
 754:Task/Task_Telemetry.c ****         memset(CTLSig, 0, sizeof(ControlData_TypeDef));
 755:Task/Task_Telemetry.c **** 
 756:Task/Task_Telemetry.c ****         CTLSig->update_time_stamp = RCSig.time_stamp;
 757:Task/Task_Telemetry.c ****         CTLSig->arm_state = RCSig.arm_state;
 758:Task/Task_Telemetry.c ****         CTLSig->fail_safe = RCSig.failsafe;
 759:Task/Task_Telemetry.c **** 
 760:Task/Task_Telemetry.c ****         if(!RCSig.failsafe)
 761:Task/Task_Telemetry.c ****         {
 762:Task/Task_Telemetry.c ****             CTLSig->channel_sum = RCSig.channel_sum;
 763:Task/Task_Telemetry.c ****             for(uint8_t ch_index = Channel_1; ch_index < Channel_Max; ch_index ++)
 764:Task/Task_Telemetry.c ****             {
 765:Task/Task_Telemetry.c ****                 CTLSig->all_ch[ch_index] = RCSig.channel[ch_index];
 766:Task/Task_Telemetry.c ****             }
 767:Task/Task_Telemetry.c **** 
 768:Task/Task_Telemetry.c ****             CTLSig->gimbal[Gimbal_Throttle] = RCSig.channel[Telemetry_Monitor.throttle_ch];
 769:Task/Task_Telemetry.c ****             CTLSig->gimbal[Gimbal_Pitch] = RCSig.channel[Telemetry_Monitor.pitch_ch];
 770:Task/Task_Telemetry.c ****             CTLSig->gimbal[Gimbal_Roll] = RCSig.channel[Telemetry_Monitor.roll_ch];
 771:Task/Task_Telemetry.c ****             CTLSig->gimbal[Gimbal_Yaw] = RCSig.channel[Telemetry_Monitor.yaw_ch];
 772:Task/Task_Telemetry.c ****                 
 773:Task/Task_Telemetry.c ****             CTLSig->throttle_percent = RCSig.gimbal_percent[Gimbal_Throttle];
 774:Task/Task_Telemetry.c ****             CTLSig->pitch_percent = RCSig.gimbal_percent[Gimbal_Pitch];
 775:Task/Task_Telemetry.c ****             CTLSig->roll_percent = RCSig.gimbal_percent[Gimbal_Roll];
 776:Task/Task_Telemetry.c ****             CTLSig->yaw_percent = RCSig.gimbal_percent[Gimbal_Yaw];
 777:Task/Task_Telemetry.c **** 
 778:Task/Task_Telemetry.c ****             CTLSig->gimbal_max = Telemetry_Monitor.receiver_value_max;
 779:Task/Task_Telemetry.c ****             CTLSig->gimbal_mid = Telemetry_Monitor.receiver_value_mid;
 780:Task/Task_Telemetry.c ****             CTLSig->gimbal_min = Telemetry_Monitor.receiver_value_min;
 781:Task/Task_Telemetry.c **** 
 782:Task/Task_Telemetry.c ****             CTLSig->aux.bit.blackbox = RCSig.blackbox;
 783:Task/Task_Telemetry.c **** 
 784:Task/Task_Telemetry.c ****             if(RCSig.arm_state == TELEMETRY_SET_ARM)
 785:Task/Task_Telemetry.c ****             {
 786:Task/Task_Telemetry.c ****                 CTLSig->aux.bit.calib = RCSig.cali_state;
 787:Task/Task_Telemetry.c ****                 CTLSig->aux.bit.flip_over = RCSig.flip_over;
 788:Task/Task_Telemetry.c ****             }
 789:Task/Task_Telemetry.c ****             else
 790:Task/Task_Telemetry.c ****                 CTLSig->aux.bit.calib = false;
 791:Task/Task_Telemetry.c ****         }
 792:Task/Task_Telemetry.c ****         else
 793:Task/Task_Telemetry.c ****         {
 794:Task/Task_Telemetry.c ****             CTLSig->arm_state = TELEMETRY_SET_ARM;
 795:Task/Task_Telemetry.c ****         }
 796:Task/Task_Telemetry.c **** 
 797:Task/Task_Telemetry.c ****         CTLSig->aux.bit.buzzer = RCSig.buzz_state;
 798:Task/Task_Telemetry.c ****         CTLSig->control_mode = RCSig.control_mode;
ARM GAS  C:\Users\8bit\AppData\Local\Temp\cc7otBDv.s 			page 22


 799:Task/Task_Telemetry.c ****         CTLSig->aux.bit.hover_pos_hold = true;
 800:Task/Task_Telemetry.c ****         CTLSig->rssi = RCSig.link_quality;
 801:Task/Task_Telemetry.c ****     }
 802:Task/Task_Telemetry.c **** }
 803:Task/Task_Telemetry.c **** 
 804:Task/Task_Telemetry.c **** static bool Telemetry_BlackBox_OnChange(Telemetry_RCSig_TypeDef RCSig)
 805:Task/Task_Telemetry.c **** {
 380              		.loc 1 805 1 is_stmt 1 view -0
 381              		.cfi_startproc
 382              		@ args = 68, pretend = 16, frame = 0
 383              		@ frame_needed = 0, uses_anonymous_args = 0
 384              		@ link register save eliminated.
 385 0000 84B0     		sub	sp, sp, #16
 386              	.LCFI4:
 387              		.cfi_def_cfa_offset 16
 388 0002 8DE80F00 		stm	sp, {r0, r1, r2, r3}
 806:Task/Task_Telemetry.c ****     static bool first_trigger = true;
 389              		.loc 1 806 5 view .LVU112
 807:Task/Task_Telemetry.c ****     static bool lst_blackbox_state = false;
 390              		.loc 1 807 5 view .LVU113
 808:Task/Task_Telemetry.c ****     bool state = false;
 391              		.loc 1 808 5 view .LVU114
 392              	.LVL35:
 809:Task/Task_Telemetry.c **** 
 810:Task/Task_Telemetry.c ****     /* when on power and blackbox toggle is on */
 811:Task/Task_Telemetry.c ****     if (first_trigger)
 393              		.loc 1 811 5 view .LVU115
 394              		.loc 1 811 9 is_stmt 0 view .LVU116
 395 0006 0E4B     		ldr	r3, .L38
 396 0008 1878     		ldrb	r0, [r3]	@ zero_extendqisi2
 397              		.loc 1 811 8 view .LVU117
 398 000a 50B9     		cbnz	r0, .L37
 812:Task/Task_Telemetry.c ****     {    
 813:Task/Task_Telemetry.c ****         lst_blackbox_state = RCSig.blackbox;
 814:Task/Task_Telemetry.c ****         
 815:Task/Task_Telemetry.c ****         first_trigger = false;
 816:Task/Task_Telemetry.c ****         if (RCSig.blackbox)
 817:Task/Task_Telemetry.c ****         {
 818:Task/Task_Telemetry.c ****             lst_blackbox_state = false;
 819:Task/Task_Telemetry.c ****             first_trigger = true;
 820:Task/Task_Telemetry.c ****         }
 821:Task/Task_Telemetry.c **** 
 822:Task/Task_Telemetry.c ****         return false;
 823:Task/Task_Telemetry.c ****     }
 824:Task/Task_Telemetry.c ****     
 825:Task/Task_Telemetry.c ****     if (lst_blackbox_state != RCSig.blackbox)
 399              		.loc 1 825 5 is_stmt 1 view .LVU118
 400              		.loc 1 825 36 is_stmt 0 view .LVU119
 401 000c 9DF80430 		ldrb	r3, [sp, #4]	@ zero_extendqisi2
 402              		.loc 1 825 28 view .LVU120
 403 0010 0C4A     		ldr	r2, .L38+4
 404 0012 1278     		ldrb	r2, [r2]	@ zero_extendqisi2
 405              		.loc 1 825 8 view .LVU121
 406 0014 9342     		cmp	r3, r2
 407 0016 00D0     		beq	.L34
 826:Task/Task_Telemetry.c ****         state = true;
 408              		.loc 1 826 15 view .LVU122
ARM GAS  C:\Users\8bit\AppData\Local\Temp\cc7otBDv.s 			page 23


 409 0018 0120     		movs	r0, #1
 410              	.L34:
 411              	.LVL36:
 827:Task/Task_Telemetry.c **** 
 828:Task/Task_Telemetry.c ****     lst_blackbox_state = RCSig.blackbox;
 412              		.loc 1 828 5 is_stmt 1 view .LVU123
 413              		.loc 1 828 24 is_stmt 0 view .LVU124
 414 001a 0A4A     		ldr	r2, .L38+4
 415 001c 1370     		strb	r3, [r2]
 829:Task/Task_Telemetry.c ****     return state;
 416              		.loc 1 829 5 is_stmt 1 view .LVU125
 417              	.LVL37:
 418              	.L33:
 830:Task/Task_Telemetry.c **** }
 419              		.loc 1 830 1 is_stmt 0 view .LVU126
 420 001e 04B0     		add	sp, sp, #16
 421              	.LCFI5:
 422              		.cfi_remember_state
 423              		.cfi_def_cfa_offset 0
 424 0020 7047     		bx	lr
 425              	.LVL38:
 426              	.L37:
 427              	.LCFI6:
 428              		.cfi_restore_state
 813:Task/Task_Telemetry.c ****         
 429              		.loc 1 813 9 is_stmt 1 view .LVU127
 813:Task/Task_Telemetry.c ****         
 430              		.loc 1 813 35 is_stmt 0 view .LVU128
 431 0022 9DF80430 		ldrb	r3, [sp, #4]	@ zero_extendqisi2
 813:Task/Task_Telemetry.c ****         
 432              		.loc 1 813 28 view .LVU129
 433 0026 074A     		ldr	r2, .L38+4
 434 0028 1370     		strb	r3, [r2]
 815:Task/Task_Telemetry.c ****         if (RCSig.blackbox)
 435              		.loc 1 815 9 is_stmt 1 view .LVU130
 815:Task/Task_Telemetry.c ****         if (RCSig.blackbox)
 436              		.loc 1 815 23 is_stmt 0 view .LVU131
 437 002a 054A     		ldr	r2, .L38
 438 002c 0021     		movs	r1, #0
 439 002e 1170     		strb	r1, [r2]
 816:Task/Task_Telemetry.c ****         {
 440              		.loc 1 816 9 is_stmt 1 view .LVU132
 816:Task/Task_Telemetry.c ****         {
 441              		.loc 1 816 12 is_stmt 0 view .LVU133
 442 0030 23B1     		cbz	r3, .L32
 818:Task/Task_Telemetry.c ****             first_trigger = true;
 443              		.loc 1 818 13 is_stmt 1 view .LVU134
 818:Task/Task_Telemetry.c ****             first_trigger = true;
 444              		.loc 1 818 32 is_stmt 0 view .LVU135
 445 0032 044B     		ldr	r3, .L38+4
 446 0034 1970     		strb	r1, [r3]
 819:Task/Task_Telemetry.c ****         }
 447              		.loc 1 819 13 is_stmt 1 view .LVU136
 819:Task/Task_Telemetry.c ****         }
 448              		.loc 1 819 27 is_stmt 0 view .LVU137
 449 0036 024B     		ldr	r3, .L38
 450 0038 0122     		movs	r2, #1
ARM GAS  C:\Users\8bit\AppData\Local\Temp\cc7otBDv.s 			page 24


 451 003a 1A70     		strb	r2, [r3]
 452              	.L32:
 822:Task/Task_Telemetry.c ****     }
 453              		.loc 1 822 9 is_stmt 1 view .LVU138
 822:Task/Task_Telemetry.c ****     }
 454              		.loc 1 822 16 is_stmt 0 view .LVU139
 455 003c 0020     		movs	r0, #0
 456 003e EEE7     		b	.L33
 457              	.L39:
 458              		.align	2
 459              	.L38:
 460 0040 00000000 		.word	.LANCHOR1
 461 0044 00000000 		.word	.LANCHOR2
 462              		.cfi_endproc
 463              	.LFE2090:
 465              		.section	.text.Telemetry_RC_Sig_Init,"ax",%progbits
 466              		.align	1
 467              		.syntax unified
 468              		.thumb
 469              		.thumb_func
 471              	Telemetry_RC_Sig_Init:
 472              	.LVL39:
 473              	.LFB2076:
 184:Task/Task_Telemetry.c ****     uint8_t *port_ptr = NULL;
 474              		.loc 1 184 1 is_stmt 1 view -0
 475              		.cfi_startproc
 476              		@ args = 0, pretend = 0, frame = 0
 477              		@ frame_needed = 0, uses_anonymous_args = 0
 184:Task/Task_Telemetry.c ****     uint8_t *port_ptr = NULL;
 478              		.loc 1 184 1 is_stmt 0 view .LVU141
 479 0000 2DE9F043 		push	{r4, r5, r6, r7, r8, r9, lr}
 480              	.LCFI7:
 481              		.cfi_def_cfa_offset 28
 482              		.cfi_offset 4, -28
 483              		.cfi_offset 5, -24
 484              		.cfi_offset 6, -20
 485              		.cfi_offset 7, -16
 486              		.cfi_offset 8, -12
 487              		.cfi_offset 9, -8
 488              		.cfi_offset 14, -4
 489 0004 89B0     		sub	sp, sp, #36
 490              	.LCFI8:
 491              		.cfi_def_cfa_offset 64
 492 0006 0446     		mov	r4, r0
 493 0008 0D46     		mov	r5, r1
 185:Task/Task_Telemetry.c **** 
 494              		.loc 1 185 5 is_stmt 1 view .LVU142
 495              	.LVL40:
 187:Task/Task_Telemetry.c **** 
 496              		.loc 1 187 5 view .LVU143
 497 000a 4FF00009 		mov	r9, #0
 498 000e C1F80090 		str	r9, [r1]	@ unaligned
 189:Task/Task_Telemetry.c ****     receiver_obj->Frame_type = Receiver_Type_CRSF;
 499              		.loc 1 189 5 view .LVU144
 189:Task/Task_Telemetry.c ****     receiver_obj->Frame_type = Receiver_Type_CRSF;
 500              		.loc 1 189 29 is_stmt 0 view .LVU145
 501 0012 0127     		movs	r7, #1
ARM GAS  C:\Users\8bit\AppData\Local\Temp\cc7otBDv.s 			page 25


 502 0014 4F70     		strb	r7, [r1, #1]
 190:Task/Task_Telemetry.c **** 
 503              		.loc 1 190 5 is_stmt 1 view .LVU146
 190:Task/Task_Telemetry.c **** 
 504              		.loc 1 190 30 is_stmt 0 view .LVU147
 505 0016 0F70     		strb	r7, [r1]
 193:Task/Task_Telemetry.c ****     {
 506              		.loc 1 193 5 is_stmt 1 view .LVU148
 196:Task/Task_Telemetry.c ****         {
 507              		.loc 1 196 9 view .LVU149
 198:Task/Task_Telemetry.c ****                                                      RECEIVER_CRSF_RX_DMA,
 508              		.loc 1 198 13 view .LVU150
 198:Task/Task_Telemetry.c ****                                                      RECEIVER_CRSF_RX_DMA,
 509              		.loc 1 198 35 is_stmt 0 view .LVU151
 510 0018 DFF86C80 		ldr	r8, .L42+16
 198:Task/Task_Telemetry.c ****                                                      RECEIVER_CRSF_RX_DMA,
 511              		.loc 1 198 24 view .LVU152
 512 001c 164A     		ldr	r2, .L42
 513 001e 05AB     		add	r3, sp, #20
 514 0020 07CA     		ldm	r2, {r0, r1, r2}
 515              	.LVL41:
 198:Task/Task_Telemetry.c ****                                                      RECEIVER_CRSF_RX_DMA,
 516              		.loc 1 198 24 view .LVU153
 517 0022 83E80700 		stm	r3, {r0, r1, r2}
 518 0026 154A     		ldr	r2, .L42+4
 519 0028 02AB     		add	r3, sp, #8
 520 002a 07CA     		ldm	r2, {r0, r1, r2}
 521 002c 83E80700 		stm	r3, {r0, r1, r2}
 522 0030 0197     		str	r7, [sp, #4]
 523 0032 0523     		movs	r3, #5
 524 0034 0093     		str	r3, [sp]
 525 0036 4B46     		mov	r3, r9
 526 0038 0422     		movs	r2, #4
 527 003a 4946     		mov	r1, r9
 528 003c 1048     		ldr	r0, .L42+8
 529 003e D8F80060 		ldr	r6, [r8]
 530 0042 B047     		blx	r6
 531              	.LVL42:
 532 0044 0146     		mov	r1, r0
 533              	.LVL43:
 233:Task/Task_Telemetry.c **** 
 534              		.loc 1 233 5 is_stmt 1 view .LVU154
 233:Task/Task_Telemetry.c **** 
 535              		.loc 1 233 43 is_stmt 0 view .LVU155
 536 0046 D8F80830 		ldr	r3, [r8, #8]
 233:Task/Task_Telemetry.c **** 
 537              		.loc 1 233 32 view .LVU156
 538 004a 2846     		mov	r0, r5
 539              	.LVL44:
 233:Task/Task_Telemetry.c **** 
 540              		.loc 1 233 32 view .LVU157
 541 004c 9847     		blx	r3
 542              	.LVL45:
 233:Task/Task_Telemetry.c **** 
 543              		.loc 1 233 30 view .LVU158
 544 004e 2070     		strb	r0, [r4]
 235:Task/Task_Telemetry.c ****     RC_Input_obj->sig.buzz_state = false;
ARM GAS  C:\Users\8bit\AppData\Local\Temp\cc7otBDv.s 			page 26


 545              		.loc 1 235 5 is_stmt 1 view .LVU159
 235:Task/Task_Telemetry.c ****     RC_Input_obj->sig.buzz_state = false;
 546              		.loc 1 235 33 is_stmt 0 view .LVU160
 547 0050 2773     		strb	r7, [r4, #12]
 236:Task/Task_Telemetry.c ****     RC_Input_obj->sig.control_mode = Telemetry_Control_Mode_Default;
 548              		.loc 1 236 5 is_stmt 1 view .LVU161
 236:Task/Task_Telemetry.c ****     RC_Input_obj->sig.control_mode = Telemetry_Control_Mode_Default;
 549              		.loc 1 236 34 is_stmt 0 view .LVU162
 550 0052 84F80D90 		strb	r9, [r4, #13]
 237:Task/Task_Telemetry.c ****     RC_Input_obj->sig.module_enable = TELEMETRY_DISABLE_ALL_MODULE;
 551              		.loc 1 237 5 is_stmt 1 view .LVU163
 237:Task/Task_Telemetry.c ****     RC_Input_obj->sig.module_enable = TELEMETRY_DISABLE_ALL_MODULE;
 552              		.loc 1 237 36 is_stmt 0 view .LVU164
 553 0056 A777     		strb	r7, [r4, #30]
 238:Task/Task_Telemetry.c **** 
 554              		.loc 1 238 5 is_stmt 1 view .LVU165
 238:Task/Task_Telemetry.c **** 
 555              		.loc 1 238 37 is_stmt 0 view .LVU166
 556 0058 A4F82090 		strh	r9, [r4, #32]	@ movhi
 240:Task/Task_Telemetry.c ****                                                      &Telemetry_Monitor.receiver_value_max, \
 557              		.loc 1 240 5 is_stmt 1 view .LVU167
 240:Task/Task_Telemetry.c ****                                                      &Telemetry_Monitor.receiver_value_max, \
 558              		.loc 1 240 43 is_stmt 0 view .LVU168
 559 005c D8F81460 		ldr	r6, [r8, #20]
 240:Task/Task_Telemetry.c ****                                                      &Telemetry_Monitor.receiver_value_max, \
 560              		.loc 1 240 32 view .LVU169
 561 0060 0849     		ldr	r1, .L42+12
 562 0062 01F11003 		add	r3, r1, #16
 563 0066 01F10E02 		add	r2, r1, #14
 564 006a 0C31     		adds	r1, r1, #12
 565 006c 2846     		mov	r0, r5
 566 006e B047     		blx	r6
 567              	.LVL46:
 240:Task/Task_Telemetry.c ****                                                      &Telemetry_Monitor.receiver_value_max, \
 568              		.loc 1 240 30 view .LVU170
 569 0070 2070     		strb	r0, [r4]
 245:Task/Task_Telemetry.c **** }
 570              		.loc 1 245 5 is_stmt 1 view .LVU171
 246:Task/Task_Telemetry.c **** 
 571              		.loc 1 246 1 is_stmt 0 view .LVU172
 572 0072 09B0     		add	sp, sp, #36
 573              	.LCFI9:
 574              		.cfi_def_cfa_offset 28
 575              		@ sp needed
 576 0074 BDE8F083 		pop	{r4, r5, r6, r7, r8, r9, pc}
 577              	.LVL47:
 578              	.L43:
 246:Task/Task_Telemetry.c **** 
 579              		.loc 1 246 1 view .LVU173
 580              		.align	2
 581              	.L42:
 582 0078 00000000 		.word	Uart3_RxPin
 583 007c 00000000 		.word	Uart3_TxPin
 584 0080 00480040 		.word	1073760256
 585 0084 00000000 		.word	.LANCHOR0
 586 0088 00000000 		.word	SrvReceiver
 587              		.cfi_endproc
ARM GAS  C:\Users\8bit\AppData\Local\Temp\cc7otBDv.s 			page 27


 588              	.LFE2076:
 590              		.section	.text.Telemetry_ConvertRCData_To_ControlData,"ax",%progbits
 591              		.align	1
 592              		.syntax unified
 593              		.thumb
 594              		.thumb_func
 596              	Telemetry_ConvertRCData_To_ControlData:
 597              	.LVL48:
 598              	.LFB2089:
 751:Task/Task_Telemetry.c ****     if(CTLSig)
 599              		.loc 1 751 1 is_stmt 1 view -0
 600              		.cfi_startproc
 601              		@ args = 72, pretend = 16, frame = 0
 602              		@ frame_needed = 0, uses_anonymous_args = 0
 751:Task/Task_Telemetry.c ****     if(CTLSig)
 603              		.loc 1 751 1 is_stmt 0 view .LVU175
 604 0000 84B0     		sub	sp, sp, #16
 605              	.LCFI10:
 606              		.cfi_def_cfa_offset 16
 607 0002 10B5     		push	{r4, lr}
 608              	.LCFI11:
 609              		.cfi_def_cfa_offset 24
 610              		.cfi_offset 4, -24
 611              		.cfi_offset 14, -20
 612 0004 02AC     		add	r4, sp, #8
 613 0006 84E80F00 		stm	r4, {r0, r1, r2, r3}
 614 000a 139C     		ldr	r4, [sp, #76]
 752:Task/Task_Telemetry.c ****     {
 615              		.loc 1 752 5 is_stmt 1 view .LVU176
 752:Task/Task_Telemetry.c ****     {
 616              		.loc 1 752 7 is_stmt 0 view .LVU177
 617 000c 002C     		cmp	r4, #0
 618 000e 00F09280 		beq	.L44
 754:Task/Task_Telemetry.c **** 
 619              		.loc 1 754 9 is_stmt 1 view .LVU178
 620 0012 6422     		movs	r2, #100
 621 0014 0021     		movs	r1, #0
 622 0016 2046     		mov	r0, r4
 623 0018 FFF7FEFF 		bl	memset
 624              	.LVL49:
 756:Task/Task_Telemetry.c ****         CTLSig->arm_state = RCSig.arm_state;
 625              		.loc 1 756 9 view .LVU179
 756:Task/Task_Telemetry.c ****         CTLSig->arm_state = RCSig.arm_state;
 626              		.loc 1 756 42 is_stmt 0 view .LVU180
 627 001c 099B     		ldr	r3, [sp, #36]
 756:Task/Task_Telemetry.c ****         CTLSig->arm_state = RCSig.arm_state;
 628              		.loc 1 756 35 view .LVU181
 629 001e 2360     		str	r3, [r4]
 757:Task/Task_Telemetry.c ****         CTLSig->fail_safe = RCSig.failsafe;
 630              		.loc 1 757 9 is_stmt 1 view .LVU182
 757:Task/Task_Telemetry.c ****         CTLSig->fail_safe = RCSig.failsafe;
 631              		.loc 1 757 34 is_stmt 0 view .LVU183
 632 0020 9DF80800 		ldrb	r0, [sp, #8]	@ zero_extendqisi2
 757:Task/Task_Telemetry.c ****         CTLSig->fail_safe = RCSig.failsafe;
 633              		.loc 1 757 27 view .LVU184
 634 0024 84F85E00 		strb	r0, [r4, #94]
 758:Task/Task_Telemetry.c **** 
ARM GAS  C:\Users\8bit\AppData\Local\Temp\cc7otBDv.s 			page 28


 635              		.loc 1 758 9 is_stmt 1 view .LVU185
 758:Task/Task_Telemetry.c **** 
 636              		.loc 1 758 34 is_stmt 0 view .LVU186
 637 0028 9DF80D30 		ldrb	r3, [sp, #13]	@ zero_extendqisi2
 758:Task/Task_Telemetry.c **** 
 638              		.loc 1 758 27 view .LVU187
 639 002c 84F85F30 		strb	r3, [r4, #95]
 760:Task/Task_Telemetry.c ****         {
 640              		.loc 1 760 9 is_stmt 1 view .LVU188
 760:Task/Task_Telemetry.c ****         {
 641              		.loc 1 760 11 is_stmt 0 view .LVU189
 642 0030 002B     		cmp	r3, #0
 643 0032 67D1     		bne	.L46
 762:Task/Task_Telemetry.c ****             for(uint8_t ch_index = Channel_1; ch_index < Channel_Max; ch_index ++)
 644              		.loc 1 762 13 is_stmt 1 view .LVU190
 762:Task/Task_Telemetry.c ****             for(uint8_t ch_index = Channel_1; ch_index < Channel_Max; ch_index ++)
 645              		.loc 1 762 40 is_stmt 0 view .LVU191
 646 0034 9DF82830 		ldrb	r3, [sp, #40]	@ zero_extendqisi2
 762:Task/Task_Telemetry.c ****             for(uint8_t ch_index = Channel_1; ch_index < Channel_Max; ch_index ++)
 647              		.loc 1 762 33 view .LVU192
 648 0038 2371     		strb	r3, [r4, #4]
 763:Task/Task_Telemetry.c ****             {
 649              		.loc 1 763 13 is_stmt 1 view .LVU193
 650              	.LBB4:
 763:Task/Task_Telemetry.c ****             {
 651              		.loc 1 763 17 view .LVU194
 652              	.LVL50:
 763:Task/Task_Telemetry.c ****             {
 653              		.loc 1 763 25 is_stmt 0 view .LVU195
 654 003a 0023     		movs	r3, #0
 763:Task/Task_Telemetry.c ****             {
 655              		.loc 1 763 13 view .LVU196
 656 003c 0AE0     		b	.L47
 657              	.LVL51:
 658              	.L48:
 765:Task/Task_Telemetry.c ****             }
 659              		.loc 1 765 17 is_stmt 1 discriminator 3 view .LVU197
 765:Task/Task_Telemetry.c ****             }
 660              		.loc 1 765 57 is_stmt 0 discriminator 3 view .LVU198
 661 003e 03F11002 		add	r2, r3, #16
 662 0042 02A9     		add	r1, sp, #8
 663 0044 01EB4202 		add	r2, r1, r2, lsl #1
 664 0048 5188     		ldrh	r1, [r2, #2]
 765:Task/Task_Telemetry.c ****             }
 665              		.loc 1 765 42 discriminator 3 view .LVU199
 666 004a 04EB4302 		add	r2, r4, r3, lsl #1
 667 004e D180     		strh	r1, [r2, #6]	@ movhi
 763:Task/Task_Telemetry.c ****             {
 668              		.loc 1 763 71 is_stmt 1 discriminator 3 view .LVU200
 763:Task/Task_Telemetry.c ****             {
 669              		.loc 1 763 80 is_stmt 0 discriminator 3 view .LVU201
 670 0050 0133     		adds	r3, r3, #1
 671              	.LVL52:
 763:Task/Task_Telemetry.c ****             {
 672              		.loc 1 763 80 discriminator 3 view .LVU202
 673 0052 DBB2     		uxtb	r3, r3
 674              	.LVL53:
ARM GAS  C:\Users\8bit\AppData\Local\Temp\cc7otBDv.s 			page 29


 675              	.L47:
 763:Task/Task_Telemetry.c ****             {
 676              		.loc 1 763 47 is_stmt 1 discriminator 1 view .LVU203
 763:Task/Task_Telemetry.c ****             {
 677              		.loc 1 763 13 is_stmt 0 discriminator 1 view .LVU204
 678 0054 0F2B     		cmp	r3, #15
 679 0056 F2D9     		bls	.L48
 680              	.LBE4:
 768:Task/Task_Telemetry.c ****             CTLSig->gimbal[Gimbal_Pitch] = RCSig.channel[Telemetry_Monitor.pitch_ch];
 681              		.loc 1 768 13 is_stmt 1 view .LVU205
 768:Task/Task_Telemetry.c ****             CTLSig->gimbal[Gimbal_Pitch] = RCSig.channel[Telemetry_Monitor.pitch_ch];
 682              		.loc 1 768 78 is_stmt 0 view .LVU206
 683 0058 394B     		ldr	r3, .L51
 684              	.LVL54:
 768:Task/Task_Telemetry.c ****             CTLSig->gimbal[Gimbal_Pitch] = RCSig.channel[Telemetry_Monitor.pitch_ch];
 685              		.loc 1 768 78 view .LVU207
 686 005a 9A7C     		ldrb	r2, [r3, #18]	@ zero_extendqisi2
 768:Task/Task_Telemetry.c ****             CTLSig->gimbal[Gimbal_Pitch] = RCSig.channel[Telemetry_Monitor.pitch_ch];
 687              		.loc 1 768 60 view .LVU208
 688 005c 1032     		adds	r2, r2, #16
 689 005e 02A9     		add	r1, sp, #8
 690 0060 01EB4202 		add	r2, r1, r2, lsl #1
 691 0064 B2F90220 		ldrsh	r2, [r2, #2]
 768:Task/Task_Telemetry.c ****             CTLSig->gimbal[Gimbal_Pitch] = RCSig.channel[Telemetry_Monitor.pitch_ch];
 692              		.loc 1 768 45 view .LVU209
 693 0068 A4F84620 		strh	r2, [r4, #70]	@ movhi
 769:Task/Task_Telemetry.c ****             CTLSig->gimbal[Gimbal_Roll] = RCSig.channel[Telemetry_Monitor.roll_ch];
 694              		.loc 1 769 13 is_stmt 1 view .LVU210
 769:Task/Task_Telemetry.c ****             CTLSig->gimbal[Gimbal_Roll] = RCSig.channel[Telemetry_Monitor.roll_ch];
 695              		.loc 1 769 75 is_stmt 0 view .LVU211
 696 006c DA7C     		ldrb	r2, [r3, #19]	@ zero_extendqisi2
 769:Task/Task_Telemetry.c ****             CTLSig->gimbal[Gimbal_Roll] = RCSig.channel[Telemetry_Monitor.roll_ch];
 697              		.loc 1 769 57 view .LVU212
 698 006e 1032     		adds	r2, r2, #16
 699 0070 01EB4202 		add	r2, r1, r2, lsl #1
 700 0074 B2F90220 		ldrsh	r2, [r2, #2]
 769:Task/Task_Telemetry.c ****             CTLSig->gimbal[Gimbal_Roll] = RCSig.channel[Telemetry_Monitor.roll_ch];
 701              		.loc 1 769 42 view .LVU213
 702 0078 A4F84820 		strh	r2, [r4, #72]	@ movhi
 770:Task/Task_Telemetry.c ****             CTLSig->gimbal[Gimbal_Yaw] = RCSig.channel[Telemetry_Monitor.yaw_ch];
 703              		.loc 1 770 13 is_stmt 1 view .LVU214
 770:Task/Task_Telemetry.c ****             CTLSig->gimbal[Gimbal_Yaw] = RCSig.channel[Telemetry_Monitor.yaw_ch];
 704              		.loc 1 770 74 is_stmt 0 view .LVU215
 705 007c 1A7D     		ldrb	r2, [r3, #20]	@ zero_extendqisi2
 770:Task/Task_Telemetry.c ****             CTLSig->gimbal[Gimbal_Yaw] = RCSig.channel[Telemetry_Monitor.yaw_ch];
 706              		.loc 1 770 56 view .LVU216
 707 007e 1032     		adds	r2, r2, #16
 708 0080 01EB4202 		add	r2, r1, r2, lsl #1
 709 0084 B2F90220 		ldrsh	r2, [r2, #2]
 770:Task/Task_Telemetry.c ****             CTLSig->gimbal[Gimbal_Yaw] = RCSig.channel[Telemetry_Monitor.yaw_ch];
 710              		.loc 1 770 41 view .LVU217
 711 0088 A4F84A20 		strh	r2, [r4, #74]	@ movhi
 771:Task/Task_Telemetry.c ****                 
 712              		.loc 1 771 13 is_stmt 1 view .LVU218
 771:Task/Task_Telemetry.c ****                 
 713              		.loc 1 771 73 is_stmt 0 view .LVU219
 714 008c 5A7D     		ldrb	r2, [r3, #21]	@ zero_extendqisi2
ARM GAS  C:\Users\8bit\AppData\Local\Temp\cc7otBDv.s 			page 30


 771:Task/Task_Telemetry.c ****                 
 715              		.loc 1 771 55 view .LVU220
 716 008e 1032     		adds	r2, r2, #16
 717 0090 01EB4202 		add	r2, r1, r2, lsl #1
 718 0094 B2F90220 		ldrsh	r2, [r2, #2]
 771:Task/Task_Telemetry.c ****                 
 719              		.loc 1 771 40 view .LVU221
 720 0098 A4F84C20 		strh	r2, [r4, #76]	@ movhi
 773:Task/Task_Telemetry.c ****             CTLSig->pitch_percent = RCSig.gimbal_percent[Gimbal_Pitch];
 721              		.loc 1 773 13 is_stmt 1 view .LVU222
 773:Task/Task_Telemetry.c ****             CTLSig->pitch_percent = RCSig.gimbal_percent[Gimbal_Pitch];
 722              		.loc 1 773 60 is_stmt 0 view .LVU223
 723 009c BDF81220 		ldrh	r2, [sp, #18]
 773:Task/Task_Telemetry.c ****             CTLSig->pitch_percent = RCSig.gimbal_percent[Gimbal_Pitch];
 724              		.loc 1 773 38 view .LVU224
 725 00a0 84F84E20 		strb	r2, [r4, #78]
 774:Task/Task_Telemetry.c ****             CTLSig->roll_percent = RCSig.gimbal_percent[Gimbal_Roll];
 726              		.loc 1 774 13 is_stmt 1 view .LVU225
 774:Task/Task_Telemetry.c ****             CTLSig->roll_percent = RCSig.gimbal_percent[Gimbal_Roll];
 727              		.loc 1 774 57 is_stmt 0 view .LVU226
 728 00a4 BDF81420 		ldrh	r2, [sp, #20]
 774:Task/Task_Telemetry.c ****             CTLSig->roll_percent = RCSig.gimbal_percent[Gimbal_Roll];
 729              		.loc 1 774 35 view .LVU227
 730 00a8 84F84F20 		strb	r2, [r4, #79]
 775:Task/Task_Telemetry.c ****             CTLSig->yaw_percent = RCSig.gimbal_percent[Gimbal_Yaw];
 731              		.loc 1 775 13 is_stmt 1 view .LVU228
 775:Task/Task_Telemetry.c ****             CTLSig->yaw_percent = RCSig.gimbal_percent[Gimbal_Yaw];
 732              		.loc 1 775 56 is_stmt 0 view .LVU229
 733 00ac BDF81620 		ldrh	r2, [sp, #22]
 775:Task/Task_Telemetry.c ****             CTLSig->yaw_percent = RCSig.gimbal_percent[Gimbal_Yaw];
 734              		.loc 1 775 34 view .LVU230
 735 00b0 84F85020 		strb	r2, [r4, #80]
 776:Task/Task_Telemetry.c **** 
 736              		.loc 1 776 13 is_stmt 1 view .LVU231
 776:Task/Task_Telemetry.c **** 
 737              		.loc 1 776 55 is_stmt 0 view .LVU232
 738 00b4 BDF81820 		ldrh	r2, [sp, #24]
 776:Task/Task_Telemetry.c **** 
 739              		.loc 1 776 33 view .LVU233
 740 00b8 84F85120 		strb	r2, [r4, #81]
 778:Task/Task_Telemetry.c ****             CTLSig->gimbal_mid = Telemetry_Monitor.receiver_value_mid;
 741              		.loc 1 778 13 is_stmt 1 view .LVU234
 778:Task/Task_Telemetry.c ****             CTLSig->gimbal_mid = Telemetry_Monitor.receiver_value_mid;
 742              		.loc 1 778 51 is_stmt 0 view .LVU235
 743 00bc B3F90C20 		ldrsh	r2, [r3, #12]
 778:Task/Task_Telemetry.c ****             CTLSig->gimbal_mid = Telemetry_Monitor.receiver_value_mid;
 744              		.loc 1 778 32 view .LVU236
 745 00c0 A4F85220 		strh	r2, [r4, #82]	@ movhi
 779:Task/Task_Telemetry.c ****             CTLSig->gimbal_min = Telemetry_Monitor.receiver_value_min;
 746              		.loc 1 779 13 is_stmt 1 view .LVU237
 779:Task/Task_Telemetry.c ****             CTLSig->gimbal_min = Telemetry_Monitor.receiver_value_min;
 747              		.loc 1 779 51 is_stmt 0 view .LVU238
 748 00c4 B3F90E20 		ldrsh	r2, [r3, #14]
 779:Task/Task_Telemetry.c ****             CTLSig->gimbal_min = Telemetry_Monitor.receiver_value_min;
 749              		.loc 1 779 32 view .LVU239
 750 00c8 A4F85420 		strh	r2, [r4, #84]	@ movhi
 780:Task/Task_Telemetry.c **** 
ARM GAS  C:\Users\8bit\AppData\Local\Temp\cc7otBDv.s 			page 31


 751              		.loc 1 780 13 is_stmt 1 view .LVU240
 780:Task/Task_Telemetry.c **** 
 752              		.loc 1 780 51 is_stmt 0 view .LVU241
 753 00cc B3F91030 		ldrsh	r3, [r3, #16]
 780:Task/Task_Telemetry.c **** 
 754              		.loc 1 780 32 view .LVU242
 755 00d0 A4F85630 		strh	r3, [r4, #86]	@ movhi
 782:Task/Task_Telemetry.c **** 
 756              		.loc 1 782 13 is_stmt 1 view .LVU243
 782:Task/Task_Telemetry.c **** 
 757              		.loc 1 782 45 is_stmt 0 view .LVU244
 758 00d4 9DF80C20 		ldrb	r2, [sp, #12]	@ zero_extendqisi2
 782:Task/Task_Telemetry.c **** 
 759              		.loc 1 782 38 view .LVU245
 760 00d8 94F85A30 		ldrb	r3, [r4, #90]	@ zero_extendqisi2
 761 00dc 62F30413 		bfi	r3, r2, #4, #1
 762 00e0 84F85A30 		strb	r3, [r4, #90]
 784:Task/Task_Telemetry.c ****             {
 763              		.loc 1 784 13 is_stmt 1 view .LVU246
 784:Task/Task_Telemetry.c ****             {
 764              		.loc 1 784 15 is_stmt 0 view .LVU247
 765 00e4 88B1     		cbz	r0, .L49
 786:Task/Task_Telemetry.c ****                 CTLSig->aux.bit.flip_over = RCSig.flip_over;
 766              		.loc 1 786 17 is_stmt 1 view .LVU248
 786:Task/Task_Telemetry.c ****                 CTLSig->aux.bit.flip_over = RCSig.flip_over;
 767              		.loc 1 786 46 is_stmt 0 view .LVU249
 768 00e6 9DF80A20 		ldrb	r2, [sp, #10]	@ zero_extendqisi2
 786:Task/Task_Telemetry.c ****                 CTLSig->aux.bit.flip_over = RCSig.flip_over;
 769              		.loc 1 786 39 view .LVU250
 770 00ea DBB2     		uxtb	r3, r3
 771 00ec 62F3C303 		bfi	r3, r2, #3, #1
 772 00f0 84F85A30 		strb	r3, [r4, #90]
 787:Task/Task_Telemetry.c ****             }
 773              		.loc 1 787 17 is_stmt 1 view .LVU251
 787:Task/Task_Telemetry.c ****             }
 774              		.loc 1 787 50 is_stmt 0 view .LVU252
 775 00f4 9DF80B20 		ldrb	r2, [sp, #11]	@ zero_extendqisi2
 787:Task/Task_Telemetry.c ****             }
 776              		.loc 1 787 43 view .LVU253
 777 00f8 DBB2     		uxtb	r3, r3
 778 00fa 62F38203 		bfi	r3, r2, #2, #1
 779 00fe 84F85A30 		strb	r3, [r4, #90]
 780 0102 02E0     		b	.L49
 781              	.L46:
 794:Task/Task_Telemetry.c ****         }
 782              		.loc 1 794 13 is_stmt 1 view .LVU254
 794:Task/Task_Telemetry.c ****         }
 783              		.loc 1 794 31 is_stmt 0 view .LVU255
 784 0104 0123     		movs	r3, #1
 785 0106 84F85E30 		strb	r3, [r4, #94]
 786              	.L49:
 797:Task/Task_Telemetry.c ****         CTLSig->control_mode = RCSig.control_mode;
 787              		.loc 1 797 9 is_stmt 1 view .LVU256
 797:Task/Task_Telemetry.c ****         CTLSig->control_mode = RCSig.control_mode;
 788              		.loc 1 797 39 is_stmt 0 view .LVU257
 789 010a 9DF80920 		ldrb	r2, [sp, #9]	@ zero_extendqisi2
 797:Task/Task_Telemetry.c ****         CTLSig->control_mode = RCSig.control_mode;
ARM GAS  C:\Users\8bit\AppData\Local\Temp\cc7otBDv.s 			page 32


 790              		.loc 1 797 32 view .LVU258
 791 010e 94F85A30 		ldrb	r3, [r4, #90]	@ zero_extendqisi2
 792 0112 62F34103 		bfi	r3, r2, #1, #1
 793 0116 84F85A30 		strb	r3, [r4, #90]
 798:Task/Task_Telemetry.c ****         CTLSig->aux.bit.hover_pos_hold = true;
 794              		.loc 1 798 9 is_stmt 1 view .LVU259
 798:Task/Task_Telemetry.c ****         CTLSig->aux.bit.hover_pos_hold = true;
 795              		.loc 1 798 37 is_stmt 0 view .LVU260
 796 011a 9DF81A30 		ldrb	r3, [sp, #26]	@ zero_extendqisi2
 798:Task/Task_Telemetry.c ****         CTLSig->aux.bit.hover_pos_hold = true;
 797              		.loc 1 798 30 view .LVU261
 798 011e 84F85830 		strb	r3, [r4, #88]
 799:Task/Task_Telemetry.c ****         CTLSig->rssi = RCSig.link_quality;
 799              		.loc 1 799 9 is_stmt 1 view .LVU262
 799:Task/Task_Telemetry.c ****         CTLSig->rssi = RCSig.link_quality;
 800              		.loc 1 799 40 is_stmt 0 view .LVU263
 801 0122 94F85A30 		ldrb	r3, [r4, #90]	@ zero_extendqisi2
 802 0126 43F00103 		orr	r3, r3, #1
 803 012a 84F85A30 		strb	r3, [r4, #90]
 800:Task/Task_Telemetry.c ****     }
 804              		.loc 1 800 9 is_stmt 1 view .LVU264
 800:Task/Task_Telemetry.c ****     }
 805              		.loc 1 800 29 is_stmt 0 view .LVU265
 806 012e BDF81030 		ldrh	r3, [sp, #16]
 800:Task/Task_Telemetry.c ****     }
 807              		.loc 1 800 22 view .LVU266
 808 0132 A4F86030 		strh	r3, [r4, #96]	@ movhi
 809              	.L44:
 802:Task/Task_Telemetry.c **** 
 810              		.loc 1 802 1 view .LVU267
 811 0136 BDE81040 		pop	{r4, lr}
 812              	.LCFI12:
 813              		.cfi_restore 14
 814              		.cfi_restore 4
 815              		.cfi_def_cfa_offset 16
 816 013a 04B0     		add	sp, sp, #16
 817              	.LCFI13:
 818              		.cfi_def_cfa_offset 0
 819 013c 7047     		bx	lr
 820              	.L52:
 821 013e 00BF     		.align	2
 822              	.L51:
 823 0140 00000000 		.word	.LANCHOR0
 824              		.cfi_endproc
 825              	.LFE2089:
 827              		.section	.text.Telemetry_BindGimbalToChannel,"ax",%progbits
 828              		.align	1
 829              		.syntax unified
 830              		.thumb
 831              		.thumb_func
 833              	Telemetry_BindGimbalToChannel:
 834              	.LVL55:
 835              	.LFB2077:
 249:Task/Task_Telemetry.c ****     Telemetry_ChannelSet_TypeDef *channel_set = NULL;
 836              		.loc 1 249 1 is_stmt 1 view -0
 837              		.cfi_startproc
 838              		@ args = 8, pretend = 0, frame = 0
ARM GAS  C:\Users\8bit\AppData\Local\Temp\cc7otBDv.s 			page 33


 839              		@ frame_needed = 0, uses_anonymous_args = 0
 249:Task/Task_Telemetry.c ****     Telemetry_ChannelSet_TypeDef *channel_set = NULL;
 840              		.loc 1 249 1 is_stmt 0 view .LVU269
 841 0000 2DE9F041 		push	{r4, r5, r6, r7, r8, lr}
 842              	.LCFI14:
 843              		.cfi_def_cfa_offset 24
 844              		.cfi_offset 4, -24
 845              		.cfi_offset 5, -20
 846              		.cfi_offset 6, -16
 847              		.cfi_offset 7, -12
 848              		.cfi_offset 8, -8
 849              		.cfi_offset 14, -4
 850 0004 BDF81C80 		ldrh	r8, [sp, #28]
 250:Task/Task_Telemetry.c **** 
 851              		.loc 1 250 5 is_stmt 1 view .LVU270
 852              	.LVL56:
 252:Task/Task_Telemetry.c ****         (!data_obj) ||
 853              		.loc 1 252 5 view .LVU271
 252:Task/Task_Telemetry.c ****         (!data_obj) ||
 854              		.loc 1 252 8 is_stmt 0 view .LVU272
 855 0008 0028     		cmp	r0, #0
 856 000a 38D0     		beq	.L56
 857 000c 0C46     		mov	r4, r1
 858 000e 1746     		mov	r7, r2
 859 0010 1D46     		mov	r5, r3
 860 0012 0646     		mov	r6, r0
 252:Task/Task_Telemetry.c ****         (!data_obj) ||
 861              		.loc 1 252 25 discriminator 1 view .LVU273
 862 0014 0029     		cmp	r1, #0
 863 0016 34D0     		beq	.L57
 254:Task/Task_Telemetry.c ****         (max_range > Telemetry_Monitor.receiver_value_max))
 864              		.loc 1 254 39 view .LVU274
 865 0018 1D4B     		ldr	r3, .L64
 866              	.LVL57:
 254:Task/Task_Telemetry.c ****         (max_range > Telemetry_Monitor.receiver_value_max))
 867              		.loc 1 254 39 view .LVU275
 868 001a B3F91030 		ldrsh	r3, [r3, #16]
 253:Task/Task_Telemetry.c ****         (min_range < Telemetry_Monitor.receiver_value_min) ||
 869              		.loc 1 253 21 view .LVU276
 870 001e 9D42     		cmp	r5, r3
 871 0020 31DB     		blt	.L58
 255:Task/Task_Telemetry.c ****         return false;
 872              		.loc 1 255 39 view .LVU277
 873 0022 1B4B     		ldr	r3, .L64
 874 0024 B3F90C30 		ldrsh	r3, [r3, #12]
 254:Task/Task_Telemetry.c ****         (max_range > Telemetry_Monitor.receiver_value_max))
 875              		.loc 1 254 60 view .LVU278
 876 0028 9845     		cmp	r8, r3
 877 002a 2FDC     		bgt	.L59
 258:Task/Task_Telemetry.c **** 
 878              		.loc 1 258 5 is_stmt 1 view .LVU279
 258:Task/Task_Telemetry.c **** 
 879              		.loc 1 258 62 is_stmt 0 view .LVU280
 880 002c 194B     		ldr	r3, .L64+4
 881 002e 9B6A     		ldr	r3, [r3, #40]
 258:Task/Task_Telemetry.c **** 
 882              		.loc 1 258 51 view .LVU281
ARM GAS  C:\Users\8bit\AppData\Local\Temp\cc7otBDv.s 			page 34


 883 0030 1420     		movs	r0, #20
 884              	.LVL58:
 258:Task/Task_Telemetry.c **** 
 885              		.loc 1 258 51 view .LVU282
 886 0032 9847     		blx	r3
 887              	.LVL59:
 260:Task/Task_Telemetry.c ****     {
 888              		.loc 1 260 5 is_stmt 1 view .LVU283
 260:Task/Task_Telemetry.c ****     {
 889              		.loc 1 260 8 is_stmt 0 view .LVU284
 890 0034 0146     		mov	r1, r0
 891 0036 68B1     		cbz	r0, .L62
 266:Task/Task_Telemetry.c ****     channel_set->max = max_range;
 892              		.loc 1 266 5 is_stmt 1 view .LVU285
 266:Task/Task_Telemetry.c ****     channel_set->max = max_range;
 893              		.loc 1 266 30 is_stmt 0 view .LVU286
 894 0038 C460     		str	r4, [r0, #12]
 267:Task/Task_Telemetry.c ****     channel_set->mid = mid_val;
 895              		.loc 1 267 5 is_stmt 1 view .LVU287
 267:Task/Task_Telemetry.c ****     channel_set->mid = mid_val;
 896              		.loc 1 267 22 is_stmt 0 view .LVU288
 897 003a A0F80880 		strh	r8, [r0, #8]	@ movhi
 268:Task/Task_Telemetry.c ****     channel_set->min = min_range;
 898              		.loc 1 268 5 is_stmt 1 view .LVU289
 268:Task/Task_Telemetry.c ****     channel_set->min = min_range;
 899              		.loc 1 268 22 is_stmt 0 view .LVU290
 900 003e BDF81830 		ldrh	r3, [sp, #24]
 901 0042 C380     		strh	r3, [r0, #6]	@ movhi
 269:Task/Task_Telemetry.c ****     channel_set->center_deadzone_scope = 0;
 902              		.loc 1 269 5 is_stmt 1 view .LVU291
 269:Task/Task_Telemetry.c ****     channel_set->center_deadzone_scope = 0;
 903              		.loc 1 269 22 is_stmt 0 view .LVU292
 904 0044 8580     		strh	r5, [r0, #4]	@ movhi
 270:Task/Task_Telemetry.c ****     channel_set->enable_deadzone = false;
 905              		.loc 1 270 5 is_stmt 1 view .LVU293
 270:Task/Task_Telemetry.c ****     channel_set->enable_deadzone = false;
 906              		.loc 1 270 40 is_stmt 0 view .LVU294
 907 0046 0023     		movs	r3, #0
 908 0048 4380     		strh	r3, [r0, #2]	@ movhi
 271:Task/Task_Telemetry.c **** 
 909              		.loc 1 271 5 is_stmt 1 view .LVU295
 271:Task/Task_Telemetry.c **** 
 910              		.loc 1 271 34 is_stmt 0 view .LVU296
 911 004a 0370     		strb	r3, [r0]
 273:Task/Task_Telemetry.c ****     {
 912              		.loc 1 273 5 is_stmt 1 view .LVU297
 913 004c 032F     		cmp	r7, #3
 914 004e 06D9     		bls	.L63
 284:Task/Task_Telemetry.c ****     }
 915              		.loc 1 284 20 is_stmt 0 view .LVU298
 916 0050 0020     		movs	r0, #0
 917              	.LVL60:
 284:Task/Task_Telemetry.c ****     }
 918              		.loc 1 284 20 view .LVU299
 919 0052 19E0     		b	.L54
 920              	.LVL61:
 921              	.L62:
ARM GAS  C:\Users\8bit\AppData\Local\Temp\cc7otBDv.s 			page 35


 262:Task/Task_Telemetry.c ****         return false;
 922              		.loc 1 262 9 is_stmt 1 view .LVU300
 262:Task/Task_Telemetry.c ****         return false;
 923              		.loc 1 262 20 is_stmt 0 view .LVU301
 924 0054 0F4B     		ldr	r3, .L64+4
 925 0056 DB6A     		ldr	r3, [r3, #44]
 262:Task/Task_Telemetry.c ****         return false;
 926              		.loc 1 262 9 view .LVU302
 927 0058 9847     		blx	r3
 928              	.LVL62:
 263:Task/Task_Telemetry.c ****     }
 929              		.loc 1 263 9 is_stmt 1 view .LVU303
 263:Task/Task_Telemetry.c ****     }
 930              		.loc 1 263 16 is_stmt 0 view .LVU304
 931 005a 0020     		movs	r0, #0
 932 005c 14E0     		b	.L54
 933              	.LVL63:
 934              	.L63:
 279:Task/Task_Telemetry.c ****             List_ItemInit(&(RC_Input_obj->Gimbal[tag].combo_list), channel_set);
 935              		.loc 1 279 13 is_stmt 1 view .LVU305
 279:Task/Task_Telemetry.c ****             List_ItemInit(&(RC_Input_obj->Gimbal[tag].combo_list), channel_set);
 936              		.loc 1 279 49 is_stmt 0 view .LVU306
 937 005e 07EB4703 		add	r3, r7, r7, lsl #1
 938 0062 06EBC303 		add	r3, r6, r3, lsl #3
 939 0066 0124     		movs	r4, #1
 940              	.LVL64:
 279:Task/Task_Telemetry.c ****             List_ItemInit(&(RC_Input_obj->Gimbal[tag].combo_list), channel_set);
 941              		.loc 1 279 49 view .LVU307
 942 0068 83F86440 		strb	r4, [r3, #100]
 943              	.LVL65:
 280:Task/Task_Telemetry.c ****             return true;
 944              		.loc 1 280 13 is_stmt 1 view .LVU308
 945 006c 07EB4703 		add	r3, r7, r7, lsl #1
 946 0070 DB00     		lsls	r3, r3, #3
 947 0072 5033     		adds	r3, r3, #80
 948 0074 F018     		adds	r0, r6, r3
 949              	.LVL66:
 280:Task/Task_Telemetry.c ****             return true;
 950              		.loc 1 280 13 is_stmt 0 view .LVU309
 951 0076 FFF7FEFF 		bl	List_ItemInit
 952              	.LVL67:
 281:Task/Task_Telemetry.c **** 
 953              		.loc 1 281 13 is_stmt 1 view .LVU310
 281:Task/Task_Telemetry.c **** 
 954              		.loc 1 281 20 is_stmt 0 view .LVU311
 955 007a 2046     		mov	r0, r4
 956 007c 04E0     		b	.L54
 957              	.LVL68:
 958              	.L56:
 256:Task/Task_Telemetry.c **** 
 959              		.loc 1 256 16 view .LVU312
 960 007e 0020     		movs	r0, #0
 961              	.LVL69:
 256:Task/Task_Telemetry.c **** 
 962              		.loc 1 256 16 view .LVU313
 963 0080 02E0     		b	.L54
 964              	.LVL70:
ARM GAS  C:\Users\8bit\AppData\Local\Temp\cc7otBDv.s 			page 36


 965              	.L57:
 256:Task/Task_Telemetry.c **** 
 966              		.loc 1 256 16 view .LVU314
 967 0082 0020     		movs	r0, #0
 968              	.LVL71:
 256:Task/Task_Telemetry.c **** 
 969              		.loc 1 256 16 view .LVU315
 970 0084 00E0     		b	.L54
 971              	.LVL72:
 972              	.L58:
 256:Task/Task_Telemetry.c **** 
 973              		.loc 1 256 16 view .LVU316
 974 0086 0020     		movs	r0, #0
 975              	.LVL73:
 976              	.L54:
 286:Task/Task_Telemetry.c **** 
 977              		.loc 1 286 1 view .LVU317
 978 0088 BDE8F081 		pop	{r4, r5, r6, r7, r8, pc}
 979              	.LVL74:
 980              	.L59:
 256:Task/Task_Telemetry.c **** 
 981              		.loc 1 256 16 view .LVU318
 982 008c 0020     		movs	r0, #0
 983              	.LVL75:
 256:Task/Task_Telemetry.c **** 
 984              		.loc 1 256 16 view .LVU319
 985 008e FBE7     		b	.L54
 986              	.L65:
 987              		.align	2
 988              	.L64:
 989 0090 00000000 		.word	.LANCHOR0
 990 0094 00000000 		.word	SrvOsCommon
 991              		.cfi_endproc
 992              	.LFE2077:
 994              		.section	.text.Telemetry_Bind_Gimbal,"ax",%progbits
 995              		.align	1
 996              		.syntax unified
 997              		.thumb
 998              		.thumb_func
 1000              	Telemetry_Bind_Gimbal:
 1001              	.LVL76:
 1002              	.LFB2086:
 629:Task/Task_Telemetry.c ****     if((throttle_ch == pitch_ch) || \
 1003              		.loc 1 629 1 is_stmt 1 view -0
 1004              		.cfi_startproc
 1005              		@ args = 0, pretend = 0, frame = 0
 1006              		@ frame_needed = 0, uses_anonymous_args = 0
 630:Task/Task_Telemetry.c ****        (throttle_ch == roll_ch) || \
 1007              		.loc 1 630 5 view .LVU321
 630:Task/Task_Telemetry.c ****        (throttle_ch == roll_ch) || \
 1008              		.loc 1 630 7 is_stmt 0 view .LVU322
 1009 0000 8842     		cmp	r0, r1
 1010 0002 6BD0     		beq	.L69
 629:Task/Task_Telemetry.c ****     if((throttle_ch == pitch_ch) || \
 1011              		.loc 1 629 1 discriminator 1 view .LVU323
 1012 0004 F0B5     		push	{r4, r5, r6, r7, lr}
 1013              	.LCFI15:
ARM GAS  C:\Users\8bit\AppData\Local\Temp\cc7otBDv.s 			page 37


 1014              		.cfi_def_cfa_offset 20
 1015              		.cfi_offset 4, -20
 1016              		.cfi_offset 5, -16
 1017              		.cfi_offset 6, -12
 1018              		.cfi_offset 7, -8
 1019              		.cfi_offset 14, -4
 1020 0006 83B0     		sub	sp, sp, #12
 1021              	.LCFI16:
 1022              		.cfi_def_cfa_offset 32
 1023 0008 0D46     		mov	r5, r1
 1024 000a 1646     		mov	r6, r2
 1025 000c 1C46     		mov	r4, r3
 630:Task/Task_Telemetry.c ****        (throttle_ch == roll_ch) || \
 1026              		.loc 1 630 34 discriminator 1 view .LVU324
 1027 000e 9042     		cmp	r0, r2
 1028 0010 66D0     		beq	.L70
 631:Task/Task_Telemetry.c ****        (throttle_ch == yaw_ch) || \
 1029              		.loc 1 631 33 view .LVU325
 1030 0012 9842     		cmp	r0, r3
 1031 0014 66D0     		beq	.L71
 632:Task/Task_Telemetry.c ****        (pitch_ch == roll_ch) || \
 1032              		.loc 1 632 32 view .LVU326
 1033 0016 9142     		cmp	r1, r2
 1034 0018 66D0     		beq	.L72
 633:Task/Task_Telemetry.c ****        (pitch_ch == yaw_ch) || \
 1035              		.loc 1 633 30 view .LVU327
 1036 001a 9942     		cmp	r1, r3
 1037 001c 66D0     		beq	.L73
 634:Task/Task_Telemetry.c ****        (roll_ch == yaw_ch))
 1038              		.loc 1 634 29 view .LVU328
 1039 001e 9A42     		cmp	r2, r3
 1040 0020 66D0     		beq	.L74
 638:Task/Task_Telemetry.c ****                                        &Receiver_Obj.data.val_list[throttle_ch], \
 1041              		.loc 1 638 5 is_stmt 1 view .LVU329
 639:Task/Task_Telemetry.c ****                                        Gimbal_Throttle, \
 1042              		.loc 1 639 58 is_stmt 0 view .LVU330
 1043 0022 344B     		ldr	r3, .L80
 1044              	.LVL77:
 639:Task/Task_Telemetry.c ****                                        Gimbal_Throttle, \
 1045              		.loc 1 639 58 view .LVU331
 1046 0024 D968     		ldr	r1, [r3, #12]
 1047              	.LVL78:
 641:Task/Task_Telemetry.c ****                                        Telemetry_Monitor.receiver_value_mid, \
 1048              		.loc 1 641 57 view .LVU332
 1049 0026 344F     		ldr	r7, .L80+4
 1050 0028 B7F910C0 		ldrsh	ip, [r7, #16]
 642:Task/Task_Telemetry.c ****                                        Telemetry_Monitor.receiver_value_max) ||
 1051              		.loc 1 642 57 view .LVU333
 1052 002c B7F90E20 		ldrsh	r2, [r7, #14]
 1053              	.LVL79:
 643:Task/Task_Telemetry.c ****         !Telemetry_BindGimbalToChannel(&Telemetry_Monitor.RC_Setting, \
 1054              		.loc 1 643 57 view .LVU334
 1055 0030 B7F90C30 		ldrsh	r3, [r7, #12]
 638:Task/Task_Telemetry.c ****                                        &Receiver_Obj.data.val_list[throttle_ch], \
 1056              		.loc 1 638 10 view .LVU335
 1057 0034 9BB2     		uxth	r3, r3
 1058 0036 0193     		str	r3, [sp, #4]
ARM GAS  C:\Users\8bit\AppData\Local\Temp\cc7otBDv.s 			page 38


 1059 0038 92B2     		uxth	r2, r2
 1060 003a 0092     		str	r2, [sp]
 1061 003c 1FFA8CF3 		uxth	r3, ip
 1062 0040 0022     		movs	r2, #0
 1063 0042 01EB4001 		add	r1, r1, r0, lsl #1
 1064 0046 07F12400 		add	r0, r7, #36
 1065              	.LVL80:
 638:Task/Task_Telemetry.c ****                                        &Receiver_Obj.data.val_list[throttle_ch], \
 1066              		.loc 1 638 10 view .LVU336
 1067 004a FFF7FEFF 		bl	Telemetry_BindGimbalToChannel
 1068              	.LVL81:
 638:Task/Task_Telemetry.c ****                                        &Receiver_Obj.data.val_list[throttle_ch], \
 1069              		.loc 1 638 7 view .LVU337
 1070 004e 10B9     		cbnz	r0, .L79
 1071              	.L68:
 662:Task/Task_Telemetry.c **** 
 1072              		.loc 1 662 9 is_stmt 1 view .LVU338
 662:Task/Task_Telemetry.c **** 
 1073              		.loc 1 662 16 is_stmt 0 view .LVU339
 1074 0050 0020     		movs	r0, #0
 1075              	.L67:
 665:Task/Task_Telemetry.c **** 
 1076              		.loc 1 665 1 view .LVU340
 1077 0052 03B0     		add	sp, sp, #12
 1078              	.LCFI17:
 1079              		.cfi_remember_state
 1080              		.cfi_def_cfa_offset 20
 1081              		@ sp needed
 1082 0054 F0BD     		pop	{r4, r5, r6, r7, pc}
 1083              	.L79:
 1084              	.LCFI18:
 1085              		.cfi_restore_state
 645:Task/Task_Telemetry.c ****                                        Gimbal_Pitch, \
 1086              		.loc 1 645 58 view .LVU341
 1087 0056 274B     		ldr	r3, .L80
 1088 0058 D968     		ldr	r1, [r3, #12]
 647:Task/Task_Telemetry.c ****                                        Telemetry_Monitor.receiver_value_mid, \
 1089              		.loc 1 647 57 view .LVU342
 1090 005a 3846     		mov	r0, r7
 1091 005c B7F91030 		ldrsh	r3, [r7, #16]
 648:Task/Task_Telemetry.c ****                                        Telemetry_Monitor.receiver_value_max) ||
 1092              		.loc 1 648 57 view .LVU343
 1093 0060 B7F90E20 		ldrsh	r2, [r7, #14]
 649:Task/Task_Telemetry.c ****         !Telemetry_BindGimbalToChannel(&Telemetry_Monitor.RC_Setting, \
 1094              		.loc 1 649 57 view .LVU344
 1095 0064 B7F90C70 		ldrsh	r7, [r7, #12]
 644:Task/Task_Telemetry.c ****                                        &Receiver_Obj.data.val_list[pitch_ch], \
 1096              		.loc 1 644 10 view .LVU345
 1097 0068 BFB2     		uxth	r7, r7
 1098 006a 0197     		str	r7, [sp, #4]
 1099 006c 92B2     		uxth	r2, r2
 1100 006e 0092     		str	r2, [sp]
 1101 0070 9BB2     		uxth	r3, r3
 1102 0072 0122     		movs	r2, #1
 1103 0074 01EB4501 		add	r1, r1, r5, lsl #1
 1104 0078 2430     		adds	r0, r0, #36
 1105 007a FFF7FEFF 		bl	Telemetry_BindGimbalToChannel
ARM GAS  C:\Users\8bit\AppData\Local\Temp\cc7otBDv.s 			page 39


 1106              	.LVL82:
 643:Task/Task_Telemetry.c ****         !Telemetry_BindGimbalToChannel(&Telemetry_Monitor.RC_Setting, \
 1107              		.loc 1 643 78 view .LVU346
 1108 007e 0028     		cmp	r0, #0
 1109 0080 E6D0     		beq	.L68
 651:Task/Task_Telemetry.c ****                                        Gimbal_Roll, \
 1110              		.loc 1 651 58 view .LVU347
 1111 0082 1C4B     		ldr	r3, .L80
 1112 0084 D968     		ldr	r1, [r3, #12]
 653:Task/Task_Telemetry.c ****                                        Telemetry_Monitor.receiver_value_mid, \
 1113              		.loc 1 653 57 view .LVU348
 1114 0086 1C48     		ldr	r0, .L80+4
 1115 0088 B0F91030 		ldrsh	r3, [r0, #16]
 654:Task/Task_Telemetry.c ****                                        Telemetry_Monitor.receiver_value_max) ||
 1116              		.loc 1 654 57 view .LVU349
 1117 008c B0F90E20 		ldrsh	r2, [r0, #14]
 655:Task/Task_Telemetry.c ****         !Telemetry_BindGimbalToChannel(&Telemetry_Monitor.RC_Setting, \
 1118              		.loc 1 655 57 view .LVU350
 1119 0090 B0F90C50 		ldrsh	r5, [r0, #12]
 650:Task/Task_Telemetry.c ****                                        &Receiver_Obj.data.val_list[roll_ch], \
 1120              		.loc 1 650 10 view .LVU351
 1121 0094 ADB2     		uxth	r5, r5
 1122 0096 0195     		str	r5, [sp, #4]
 1123 0098 92B2     		uxth	r2, r2
 1124 009a 0092     		str	r2, [sp]
 1125 009c 9BB2     		uxth	r3, r3
 1126 009e 0222     		movs	r2, #2
 1127 00a0 01EB4601 		add	r1, r1, r6, lsl #1
 1128 00a4 2430     		adds	r0, r0, #36
 1129 00a6 FFF7FEFF 		bl	Telemetry_BindGimbalToChannel
 1130              	.LVL83:
 649:Task/Task_Telemetry.c ****         !Telemetry_BindGimbalToChannel(&Telemetry_Monitor.RC_Setting, \
 1131              		.loc 1 649 78 view .LVU352
 1132 00aa 0028     		cmp	r0, #0
 1133 00ac D0D0     		beq	.L68
 657:Task/Task_Telemetry.c ****                                        Gimbal_Yaw, \
 1134              		.loc 1 657 58 view .LVU353
 1135 00ae 114B     		ldr	r3, .L80
 1136 00b0 D968     		ldr	r1, [r3, #12]
 659:Task/Task_Telemetry.c ****                                        Telemetry_Monitor.receiver_value_mid, \
 1137              		.loc 1 659 57 view .LVU354
 1138 00b2 1148     		ldr	r0, .L80+4
 1139 00b4 B0F91030 		ldrsh	r3, [r0, #16]
 660:Task/Task_Telemetry.c ****                                        Telemetry_Monitor.receiver_value_max))
 1140              		.loc 1 660 57 view .LVU355
 1141 00b8 B0F90E20 		ldrsh	r2, [r0, #14]
 661:Task/Task_Telemetry.c ****         return false;
 1142              		.loc 1 661 57 view .LVU356
 1143 00bc B0F90C50 		ldrsh	r5, [r0, #12]
 656:Task/Task_Telemetry.c ****                                        &Receiver_Obj.data.val_list[yaw_ch], \
 1144              		.loc 1 656 10 view .LVU357
 1145 00c0 ADB2     		uxth	r5, r5
 1146 00c2 0195     		str	r5, [sp, #4]
 1147 00c4 92B2     		uxth	r2, r2
 1148 00c6 0092     		str	r2, [sp]
 1149 00c8 9BB2     		uxth	r3, r3
 1150 00ca 0322     		movs	r2, #3
ARM GAS  C:\Users\8bit\AppData\Local\Temp\cc7otBDv.s 			page 40


 1151 00cc 01EB4401 		add	r1, r1, r4, lsl #1
 1152 00d0 2430     		adds	r0, r0, #36
 1153 00d2 FFF7FEFF 		bl	Telemetry_BindGimbalToChannel
 1154              	.LVL84:
 655:Task/Task_Telemetry.c ****         !Telemetry_BindGimbalToChannel(&Telemetry_Monitor.RC_Setting, \
 1155              		.loc 1 655 78 view .LVU358
 1156 00d6 0028     		cmp	r0, #0
 1157 00d8 BBD1     		bne	.L67
 1158 00da B9E7     		b	.L68
 1159              	.LVL85:
 1160              	.L69:
 1161              	.LCFI19:
 1162              		.cfi_def_cfa_offset 0
 1163              		.cfi_restore 4
 1164              		.cfi_restore 5
 1165              		.cfi_restore 6
 1166              		.cfi_restore 7
 1167              		.cfi_restore 14
 636:Task/Task_Telemetry.c **** 
 1168              		.loc 1 636 16 view .LVU359
 1169 00dc 0020     		movs	r0, #0
 1170              	.LVL86:
 665:Task/Task_Telemetry.c **** 
 1171              		.loc 1 665 1 view .LVU360
 1172 00de 7047     		bx	lr
 1173              	.LVL87:
 1174              	.L70:
 1175              	.LCFI20:
 1176              		.cfi_def_cfa_offset 32
 1177              		.cfi_offset 4, -20
 1178              		.cfi_offset 5, -16
 1179              		.cfi_offset 6, -12
 1180              		.cfi_offset 7, -8
 1181              		.cfi_offset 14, -4
 636:Task/Task_Telemetry.c **** 
 1182              		.loc 1 636 16 view .LVU361
 1183 00e0 0020     		movs	r0, #0
 1184              	.LVL88:
 636:Task/Task_Telemetry.c **** 
 1185              		.loc 1 636 16 view .LVU362
 1186 00e2 B6E7     		b	.L67
 1187              	.LVL89:
 1188              	.L71:
 636:Task/Task_Telemetry.c **** 
 1189              		.loc 1 636 16 view .LVU363
 1190 00e4 0020     		movs	r0, #0
 1191              	.LVL90:
 636:Task/Task_Telemetry.c **** 
 1192              		.loc 1 636 16 view .LVU364
 1193 00e6 B4E7     		b	.L67
 1194              	.LVL91:
 1195              	.L72:
 636:Task/Task_Telemetry.c **** 
 1196              		.loc 1 636 16 view .LVU365
 1197 00e8 0020     		movs	r0, #0
 1198              	.LVL92:
 636:Task/Task_Telemetry.c **** 
ARM GAS  C:\Users\8bit\AppData\Local\Temp\cc7otBDv.s 			page 41


 1199              		.loc 1 636 16 view .LVU366
 1200 00ea B2E7     		b	.L67
 1201              	.LVL93:
 1202              	.L73:
 636:Task/Task_Telemetry.c **** 
 1203              		.loc 1 636 16 view .LVU367
 1204 00ec 0020     		movs	r0, #0
 1205              	.LVL94:
 636:Task/Task_Telemetry.c **** 
 1206              		.loc 1 636 16 view .LVU368
 1207 00ee B0E7     		b	.L67
 1208              	.LVL95:
 1209              	.L74:
 636:Task/Task_Telemetry.c **** 
 1210              		.loc 1 636 16 view .LVU369
 1211 00f0 0020     		movs	r0, #0
 1212              	.LVL96:
 636:Task/Task_Telemetry.c **** 
 1213              		.loc 1 636 16 view .LVU370
 1214 00f2 AEE7     		b	.L67
 1215              	.L81:
 1216              		.align	2
 1217              	.L80:
 1218 00f4 00000000 		.word	.LANCHOR3
 1219 00f8 00000000 		.word	.LANCHOR0
 1220              		.cfi_endproc
 1221              	.LFE2086:
 1223              		.section	.text.Telemetry_BindToggleToChannel,"ax",%progbits
 1224              		.align	1
 1225              		.syntax unified
 1226              		.thumb
 1227              		.thumb_func
 1229              	Telemetry_BindToggleToChannel:
 1230              	.LVL97:
 1231              	.LFB2078:
 289:Task/Task_Telemetry.c ****     Telemetry_ChannelSet_TypeDef *channel_set = NULL;
 1232              		.loc 1 289 1 is_stmt 1 view -0
 1233              		.cfi_startproc
 1234              		@ args = 4, pretend = 0, frame = 0
 1235              		@ frame_needed = 0, uses_anonymous_args = 0
 289:Task/Task_Telemetry.c ****     Telemetry_ChannelSet_TypeDef *channel_set = NULL;
 1236              		.loc 1 289 1 is_stmt 0 view .LVU372
 1237 0000 F8B5     		push	{r3, r4, r5, r6, r7, lr}
 1238              	.LCFI21:
 1239              		.cfi_def_cfa_offset 24
 1240              		.cfi_offset 3, -24
 1241              		.cfi_offset 4, -20
 1242              		.cfi_offset 5, -16
 1243              		.cfi_offset 6, -12
 1244              		.cfi_offset 7, -8
 1245              		.cfi_offset 14, -4
 1246 0002 BDF81870 		ldrh	r7, [sp, #24]
 290:Task/Task_Telemetry.c **** 
 1247              		.loc 1 290 5 is_stmt 1 view .LVU373
 1248              	.LVL98:
 292:Task/Task_Telemetry.c ****         (!data_obj) ||
 1249              		.loc 1 292 5 view .LVU374
ARM GAS  C:\Users\8bit\AppData\Local\Temp\cc7otBDv.s 			page 42


 292:Task/Task_Telemetry.c ****         (!data_obj) ||
 1250              		.loc 1 292 8 is_stmt 0 view .LVU375
 1251 0006 28B3     		cbz	r0, .L85
 1252 0008 0C46     		mov	r4, r1
 1253 000a 1646     		mov	r6, r2
 1254 000c 1D46     		mov	r5, r3
 292:Task/Task_Telemetry.c ****         (!data_obj) ||
 1255              		.loc 1 292 25 discriminator 1 view .LVU376
 1256 000e 19B3     		cbz	r1, .L86
 294:Task/Task_Telemetry.c ****         (trigger_max_range > Telemetry_Monitor.receiver_value_max))
 1257              		.loc 1 294 47 view .LVU377
 1258 0010 144B     		ldr	r3, .L91
 1259              	.LVL99:
 294:Task/Task_Telemetry.c ****         (trigger_max_range > Telemetry_Monitor.receiver_value_max))
 1260              		.loc 1 294 47 view .LVU378
 1261 0012 B3F91030 		ldrsh	r3, [r3, #16]
 293:Task/Task_Telemetry.c ****         (trigger_min_range < Telemetry_Monitor.receiver_value_min) ||
 1262              		.loc 1 293 21 view .LVU379
 1263 0016 9D42     		cmp	r5, r3
 1264 0018 20DB     		blt	.L87
 295:Task/Task_Telemetry.c ****         return false;
 1265              		.loc 1 295 47 view .LVU380
 1266 001a 124B     		ldr	r3, .L91
 1267 001c B3F90C30 		ldrsh	r3, [r3, #12]
 294:Task/Task_Telemetry.c ****         (trigger_max_range > Telemetry_Monitor.receiver_value_max))
 1268              		.loc 1 294 68 view .LVU381
 1269 0020 9F42     		cmp	r7, r3
 1270 0022 1DDC     		bgt	.L88
 298:Task/Task_Telemetry.c **** 
 1271              		.loc 1 298 5 is_stmt 1 view .LVU382
 298:Task/Task_Telemetry.c **** 
 1272              		.loc 1 298 62 is_stmt 0 view .LVU383
 1273 0024 104B     		ldr	r3, .L91+4
 1274 0026 9B6A     		ldr	r3, [r3, #40]
 298:Task/Task_Telemetry.c **** 
 1275              		.loc 1 298 51 view .LVU384
 1276 0028 1420     		movs	r0, #20
 1277              	.LVL100:
 298:Task/Task_Telemetry.c **** 
 1278              		.loc 1 298 51 view .LVU385
 1279 002a 9847     		blx	r3
 1280              	.LVL101:
 300:Task/Task_Telemetry.c ****     {
 1281              		.loc 1 300 5 is_stmt 1 view .LVU386
 300:Task/Task_Telemetry.c ****     {
 1282              		.loc 1 300 8 is_stmt 0 view .LVU387
 1283 002c 0146     		mov	r1, r0
 1284 002e 60B1     		cbz	r0, .L90
 306:Task/Task_Telemetry.c ****     channel_set->max = trigger_max_range;
 1285              		.loc 1 306 5 is_stmt 1 view .LVU388
 306:Task/Task_Telemetry.c ****     channel_set->max = trigger_max_range;
 1286              		.loc 1 306 30 is_stmt 0 view .LVU389
 1287 0030 C460     		str	r4, [r0, #12]
 307:Task/Task_Telemetry.c ****     channel_set->min = trigger_min_range;
 1288              		.loc 1 307 5 is_stmt 1 view .LVU390
 307:Task/Task_Telemetry.c ****     channel_set->min = trigger_min_range;
 1289              		.loc 1 307 22 is_stmt 0 view .LVU391
ARM GAS  C:\Users\8bit\AppData\Local\Temp\cc7otBDv.s 			page 43


 1290 0032 0781     		strh	r7, [r0, #8]	@ movhi
 308:Task/Task_Telemetry.c **** 
 1291              		.loc 1 308 5 is_stmt 1 view .LVU392
 308:Task/Task_Telemetry.c **** 
 1292              		.loc 1 308 22 is_stmt 0 view .LVU393
 1293 0034 8580     		strh	r5, [r0, #4]	@ movhi
 310:Task/Task_Telemetry.c ****     toggle->combo_list.mode = by_order;
 1294              		.loc 1 310 5 is_stmt 1 view .LVU394
 310:Task/Task_Telemetry.c ****     toggle->combo_list.mode = by_order;
 1295              		.loc 1 310 23 is_stmt 0 view .LVU395
 1296 0036 0124     		movs	r4, #1
 1297              	.LVL102:
 310:Task/Task_Telemetry.c ****     toggle->combo_list.mode = by_order;
 1298              		.loc 1 310 23 view .LVU396
 1299 0038 3475     		strb	r4, [r6, #20]
 1300              	.LVL103:
 311:Task/Task_Telemetry.c ****     toggle->combo_list.compare_callback = NULL;
 1301              		.loc 1 311 5 is_stmt 1 view .LVU397
 311:Task/Task_Telemetry.c ****     toggle->combo_list.compare_callback = NULL;
 1302              		.loc 1 311 29 is_stmt 0 view .LVU398
 1303 003a 3470     		strb	r4, [r6]
 312:Task/Task_Telemetry.c ****     List_ItemInit(&(toggle->combo_list), channel_set);
 1304              		.loc 1 312 5 is_stmt 1 view .LVU399
 312:Task/Task_Telemetry.c ****     List_ItemInit(&(toggle->combo_list), channel_set);
 1305              		.loc 1 312 41 is_stmt 0 view .LVU400
 1306 003c 0023     		movs	r3, #0
 1307 003e 7360     		str	r3, [r6, #4]
 313:Task/Task_Telemetry.c **** 
 1308              		.loc 1 313 5 is_stmt 1 view .LVU401
 1309 0040 3046     		mov	r0, r6
 1310              	.LVL104:
 313:Task/Task_Telemetry.c **** 
 1311              		.loc 1 313 5 is_stmt 0 view .LVU402
 1312 0042 FFF7FEFF 		bl	List_ItemInit
 1313              	.LVL105:
 315:Task/Task_Telemetry.c **** }
 1314              		.loc 1 315 5 is_stmt 1 view .LVU403
 315:Task/Task_Telemetry.c **** }
 1315              		.loc 1 315 12 is_stmt 0 view .LVU404
 1316 0046 2046     		mov	r0, r4
 1317 0048 09E0     		b	.L83
 1318              	.LVL106:
 1319              	.L90:
 302:Task/Task_Telemetry.c ****         return false;
 1320              		.loc 1 302 9 is_stmt 1 view .LVU405
 302:Task/Task_Telemetry.c ****         return false;
 1321              		.loc 1 302 20 is_stmt 0 view .LVU406
 1322 004a 074B     		ldr	r3, .L91+4
 1323 004c DB6A     		ldr	r3, [r3, #44]
 302:Task/Task_Telemetry.c ****         return false;
 1324              		.loc 1 302 9 view .LVU407
 1325 004e 9847     		blx	r3
 1326              	.LVL107:
 303:Task/Task_Telemetry.c ****     }
 1327              		.loc 1 303 9 is_stmt 1 view .LVU408
 303:Task/Task_Telemetry.c ****     }
 1328              		.loc 1 303 16 is_stmt 0 view .LVU409
ARM GAS  C:\Users\8bit\AppData\Local\Temp\cc7otBDv.s 			page 44


 1329 0050 0020     		movs	r0, #0
 1330 0052 04E0     		b	.L83
 1331              	.LVL108:
 1332              	.L85:
 296:Task/Task_Telemetry.c **** 
 1333              		.loc 1 296 16 view .LVU410
 1334 0054 0020     		movs	r0, #0
 1335              	.LVL109:
 296:Task/Task_Telemetry.c **** 
 1336              		.loc 1 296 16 view .LVU411
 1337 0056 02E0     		b	.L83
 1338              	.LVL110:
 1339              	.L86:
 296:Task/Task_Telemetry.c **** 
 1340              		.loc 1 296 16 view .LVU412
 1341 0058 0020     		movs	r0, #0
 1342              	.LVL111:
 296:Task/Task_Telemetry.c **** 
 1343              		.loc 1 296 16 view .LVU413
 1344 005a 00E0     		b	.L83
 1345              	.LVL112:
 1346              	.L87:
 296:Task/Task_Telemetry.c **** 
 1347              		.loc 1 296 16 view .LVU414
 1348 005c 0020     		movs	r0, #0
 1349              	.LVL113:
 1350              	.L83:
 316:Task/Task_Telemetry.c **** 
 1351              		.loc 1 316 1 view .LVU415
 1352 005e F8BD     		pop	{r3, r4, r5, r6, r7, pc}
 1353              	.LVL114:
 1354              	.L88:
 296:Task/Task_Telemetry.c **** 
 1355              		.loc 1 296 16 view .LVU416
 1356 0060 0020     		movs	r0, #0
 1357              	.LVL115:
 296:Task/Task_Telemetry.c **** 
 1358              		.loc 1 296 16 view .LVU417
 1359 0062 FCE7     		b	.L83
 1360              	.L92:
 1361              		.align	2
 1362              	.L91:
 1363 0064 00000000 		.word	.LANCHOR0
 1364 0068 00000000 		.word	SrvOsCommon
 1365              		.cfi_endproc
 1366              	.LFE2078:
 1368              		.section	.text.Telemetry_AddToggleCombo,"ax",%progbits
 1369              		.align	1
 1370              		.syntax unified
 1371              		.thumb
 1372              		.thumb_func
 1374              	Telemetry_AddToggleCombo:
 1375              	.LVL116:
 1376              	.LFB2079:
 319:Task/Task_Telemetry.c ****     Telemetry_ChannelSet_TypeDef *channel_set = NULL;
 1377              		.loc 1 319 1 is_stmt 1 view -0
 1378              		.cfi_startproc
ARM GAS  C:\Users\8bit\AppData\Local\Temp\cc7otBDv.s 			page 45


 1379              		@ args = 4, pretend = 0, frame = 0
 1380              		@ frame_needed = 0, uses_anonymous_args = 0
 319:Task/Task_Telemetry.c ****     Telemetry_ChannelSet_TypeDef *channel_set = NULL;
 1381              		.loc 1 319 1 is_stmt 0 view .LVU419
 1382 0000 2DE9F843 		push	{r3, r4, r5, r6, r7, r8, r9, lr}
 1383              	.LCFI22:
 1384              		.cfi_def_cfa_offset 32
 1385              		.cfi_offset 3, -32
 1386              		.cfi_offset 4, -28
 1387              		.cfi_offset 5, -24
 1388              		.cfi_offset 6, -20
 1389              		.cfi_offset 7, -16
 1390              		.cfi_offset 8, -12
 1391              		.cfi_offset 9, -8
 1392              		.cfi_offset 14, -4
 1393 0004 BDF82070 		ldrh	r7, [sp, #32]
 320:Task/Task_Telemetry.c ****     item_obj *item = NULL;
 1394              		.loc 1 320 5 is_stmt 1 view .LVU420
 1395              	.LVL117:
 321:Task/Task_Telemetry.c **** 
 1396              		.loc 1 321 5 view .LVU421
 323:Task/Task_Telemetry.c ****         (!data_obj) ||
 1397              		.loc 1 323 5 view .LVU422
 323:Task/Task_Telemetry.c ****         (!data_obj) ||
 1398              		.loc 1 323 8 is_stmt 0 view .LVU423
 1399 0008 0028     		cmp	r0, #0
 1400 000a 36D0     		beq	.L97
 1401 000c 0E46     		mov	r6, r1
 1402 000e 1546     		mov	r5, r2
 1403 0010 1C46     		mov	r4, r3
 323:Task/Task_Telemetry.c ****         (!data_obj) ||
 1404              		.loc 1 323 25 discriminator 1 view .LVU424
 1405 0012 0029     		cmp	r1, #0
 1406 0014 33D0     		beq	.L98
 325:Task/Task_Telemetry.c ****         (trigger_max_range > Telemetry_Monitor.receiver_value_max))
 1407              		.loc 1 325 47 view .LVU425
 1408 0016 1D4B     		ldr	r3, .L104
 1409              	.LVL118:
 325:Task/Task_Telemetry.c ****         (trigger_max_range > Telemetry_Monitor.receiver_value_max))
 1410              		.loc 1 325 47 view .LVU426
 1411 0018 B3F91030 		ldrsh	r3, [r3, #16]
 324:Task/Task_Telemetry.c ****         (trigger_min_range < Telemetry_Monitor.receiver_value_min) ||
 1412              		.loc 1 324 21 view .LVU427
 1413 001c 9C42     		cmp	r4, r3
 1414 001e 30DB     		blt	.L99
 326:Task/Task_Telemetry.c ****         return false;
 1415              		.loc 1 326 47 view .LVU428
 1416 0020 1A4B     		ldr	r3, .L104
 1417 0022 B3F90C30 		ldrsh	r3, [r3, #12]
 325:Task/Task_Telemetry.c ****         (trigger_max_range > Telemetry_Monitor.receiver_value_max))
 1418              		.loc 1 325 68 view .LVU429
 1419 0026 9F42     		cmp	r7, r3
 1420 0028 2EDC     		bgt	.L100
 329:Task/Task_Telemetry.c **** 
 1421              		.loc 1 329 5 is_stmt 1 view .LVU430
 329:Task/Task_Telemetry.c **** 
 1422              		.loc 1 329 62 is_stmt 0 view .LVU431
ARM GAS  C:\Users\8bit\AppData\Local\Temp\cc7otBDv.s 			page 46


 1423 002a 194B     		ldr	r3, .L104+4
 1424 002c 9B6A     		ldr	r3, [r3, #40]
 329:Task/Task_Telemetry.c **** 
 1425              		.loc 1 329 51 view .LVU432
 1426 002e 1420     		movs	r0, #20
 1427              	.LVL119:
 329:Task/Task_Telemetry.c **** 
 1428              		.loc 1 329 51 view .LVU433
 1429 0030 9847     		blx	r3
 1430              	.LVL120:
 331:Task/Task_Telemetry.c ****     {
 1431              		.loc 1 331 5 is_stmt 1 view .LVU434
 331:Task/Task_Telemetry.c ****     {
 1432              		.loc 1 331 8 is_stmt 0 view .LVU435
 1433 0032 8046     		mov	r8, r0
 1434 0034 B8B1     		cbz	r0, .L102
 337:Task/Task_Telemetry.c **** 
 1435              		.loc 1 337 5 is_stmt 1 view .LVU436
 337:Task/Task_Telemetry.c **** 
 1436              		.loc 1 337 35 is_stmt 0 view .LVU437
 1437 0036 164B     		ldr	r3, .L104+4
 1438 0038 9B6A     		ldr	r3, [r3, #40]
 337:Task/Task_Telemetry.c **** 
 1439              		.loc 1 337 24 view .LVU438
 1440 003a 1420     		movs	r0, #20
 1441              	.LVL121:
 337:Task/Task_Telemetry.c **** 
 1442              		.loc 1 337 24 view .LVU439
 1443 003c 9847     		blx	r3
 1444              	.LVL122:
 339:Task/Task_Telemetry.c ****     {
 1445              		.loc 1 339 5 is_stmt 1 view .LVU440
 339:Task/Task_Telemetry.c ****     {
 1446              		.loc 1 339 8 is_stmt 0 view .LVU441
 1447 003e 8146     		mov	r9, r0
 1448 0040 B0B1     		cbz	r0, .L103
 345:Task/Task_Telemetry.c ****     channel_set->max = trigger_max_range;
 1449              		.loc 1 345 5 is_stmt 1 view .LVU442
 345:Task/Task_Telemetry.c ****     channel_set->max = trigger_max_range;
 1450              		.loc 1 345 30 is_stmt 0 view .LVU443
 1451 0042 C8F80C60 		str	r6, [r8, #12]
 346:Task/Task_Telemetry.c ****     channel_set->min = trigger_min_range;
 1452              		.loc 1 346 5 is_stmt 1 view .LVU444
 346:Task/Task_Telemetry.c ****     channel_set->min = trigger_min_range;
 1453              		.loc 1 346 22 is_stmt 0 view .LVU445
 1454 0046 A8F80870 		strh	r7, [r8, #8]	@ movhi
 347:Task/Task_Telemetry.c **** 
 1455              		.loc 1 347 5 is_stmt 1 view .LVU446
 347:Task/Task_Telemetry.c **** 
 1456              		.loc 1 347 22 is_stmt 0 view .LVU447
 1457 004a A8F80440 		strh	r4, [r8, #4]	@ movhi
 349:Task/Task_Telemetry.c ****     List_ItemInit(item, channel_set);
 1458              		.loc 1 349 5 is_stmt 1 view .LVU448
 349:Task/Task_Telemetry.c ****     List_ItemInit(item, channel_set);
 1459              		.loc 1 349 11 is_stmt 0 view .LVU449
 1460 004e 2B7D     		ldrb	r3, [r5, #20]	@ zero_extendqisi2
 349:Task/Task_Telemetry.c ****     List_ItemInit(item, channel_set);
ARM GAS  C:\Users\8bit\AppData\Local\Temp\cc7otBDv.s 			page 47


 1461              		.loc 1 349 22 view .LVU450
 1462 0050 0133     		adds	r3, r3, #1
 1463 0052 2B75     		strb	r3, [r5, #20]
 350:Task/Task_Telemetry.c ****     List_Insert_Item(&toggle->combo_list, item);
 1464              		.loc 1 350 5 is_stmt 1 view .LVU451
 1465 0054 4146     		mov	r1, r8
 1466 0056 FFF7FEFF 		bl	List_ItemInit
 1467              	.LVL123:
 351:Task/Task_Telemetry.c **** 
 1468              		.loc 1 351 5 view .LVU452
 1469 005a 4946     		mov	r1, r9
 1470 005c 2846     		mov	r0, r5
 1471 005e FFF7FEFF 		bl	List_Insert_Item
 1472              	.LVL124:
 353:Task/Task_Telemetry.c **** }
 1473              		.loc 1 353 5 view .LVU453
 353:Task/Task_Telemetry.c **** }
 1474              		.loc 1 353 12 is_stmt 0 view .LVU454
 1475 0062 0120     		movs	r0, #1
 1476 0064 0EE0     		b	.L94
 1477              	.LVL125:
 1478              	.L102:
 333:Task/Task_Telemetry.c ****         return false;
 1479              		.loc 1 333 9 is_stmt 1 view .LVU455
 333:Task/Task_Telemetry.c ****         return false;
 1480              		.loc 1 333 20 is_stmt 0 view .LVU456
 1481 0066 0A4B     		ldr	r3, .L104+4
 1482 0068 DB6A     		ldr	r3, [r3, #44]
 333:Task/Task_Telemetry.c ****         return false;
 1483              		.loc 1 333 9 view .LVU457
 1484 006a 9847     		blx	r3
 1485              	.LVL126:
 334:Task/Task_Telemetry.c ****     }
 1486              		.loc 1 334 9 is_stmt 1 view .LVU458
 334:Task/Task_Telemetry.c ****     }
 1487              		.loc 1 334 16 is_stmt 0 view .LVU459
 1488 006c 0020     		movs	r0, #0
 1489 006e 09E0     		b	.L94
 1490              	.LVL127:
 1491              	.L103:
 341:Task/Task_Telemetry.c ****         return false;
 1492              		.loc 1 341 9 is_stmt 1 view .LVU460
 341:Task/Task_Telemetry.c ****         return false;
 1493              		.loc 1 341 20 is_stmt 0 view .LVU461
 1494 0070 074B     		ldr	r3, .L104+4
 1495 0072 DB6A     		ldr	r3, [r3, #44]
 341:Task/Task_Telemetry.c ****         return false;
 1496              		.loc 1 341 9 view .LVU462
 1497 0074 9847     		blx	r3
 1498              	.LVL128:
 342:Task/Task_Telemetry.c ****     }
 1499              		.loc 1 342 9 is_stmt 1 view .LVU463
 342:Task/Task_Telemetry.c ****     }
 1500              		.loc 1 342 16 is_stmt 0 view .LVU464
 1501 0076 0020     		movs	r0, #0
 1502 0078 04E0     		b	.L94
 1503              	.LVL129:
ARM GAS  C:\Users\8bit\AppData\Local\Temp\cc7otBDv.s 			page 48


 1504              	.L97:
 327:Task/Task_Telemetry.c **** 
 1505              		.loc 1 327 16 view .LVU465
 1506 007a 0020     		movs	r0, #0
 1507              	.LVL130:
 327:Task/Task_Telemetry.c **** 
 1508              		.loc 1 327 16 view .LVU466
 1509 007c 02E0     		b	.L94
 1510              	.LVL131:
 1511              	.L98:
 327:Task/Task_Telemetry.c **** 
 1512              		.loc 1 327 16 view .LVU467
 1513 007e 0020     		movs	r0, #0
 1514              	.LVL132:
 327:Task/Task_Telemetry.c **** 
 1515              		.loc 1 327 16 view .LVU468
 1516 0080 00E0     		b	.L94
 1517              	.LVL133:
 1518              	.L99:
 327:Task/Task_Telemetry.c **** 
 1519              		.loc 1 327 16 view .LVU469
 1520 0082 0020     		movs	r0, #0
 1521              	.LVL134:
 1522              	.L94:
 354:Task/Task_Telemetry.c **** 
 1523              		.loc 1 354 1 view .LVU470
 1524 0084 BDE8F883 		pop	{r3, r4, r5, r6, r7, r8, r9, pc}
 1525              	.LVL135:
 1526              	.L100:
 327:Task/Task_Telemetry.c **** 
 1527              		.loc 1 327 16 view .LVU471
 1528 0088 0020     		movs	r0, #0
 1529              	.LVL136:
 327:Task/Task_Telemetry.c **** 
 1530              		.loc 1 327 16 view .LVU472
 1531 008a FBE7     		b	.L94
 1532              	.L105:
 1533              		.align	2
 1534              	.L104:
 1535 008c 00000000 		.word	.LANCHOR0
 1536 0090 00000000 		.word	SrvOsCommon
 1537              		.cfi_endproc
 1538              	.LFE2079:
 1540              		.section	.text.Telemetry_Bind_Toggle,"ax",%progbits
 1541              		.align	1
 1542              		.syntax unified
 1543              		.thumb
 1544              		.thumb_func
 1546              	Telemetry_Bind_Toggle:
 1547              	.LVL137:
 1548              	.LFB2087:
 668:Task/Task_Telemetry.c ****     int16_t start = 0;
 1549              		.loc 1 668 1 is_stmt 1 view -0
 1550              		.cfi_startproc
 1551              		@ args = 4, pretend = 0, frame = 0
 1552              		@ frame_needed = 0, uses_anonymous_args = 0
 668:Task/Task_Telemetry.c ****     int16_t start = 0;
ARM GAS  C:\Users\8bit\AppData\Local\Temp\cc7otBDv.s 			page 49


 1553              		.loc 1 668 1 is_stmt 0 view .LVU474
 1554 0000 2DE9F041 		push	{r4, r5, r6, r7, r8, lr}
 1555              	.LCFI23:
 1556              		.cfi_def_cfa_offset 24
 1557              		.cfi_offset 4, -24
 1558              		.cfi_offset 5, -20
 1559              		.cfi_offset 6, -16
 1560              		.cfi_offset 7, -12
 1561              		.cfi_offset 8, -8
 1562              		.cfi_offset 14, -4
 1563 0004 82B0     		sub	sp, sp, #8
 1564              	.LCFI24:
 1565              		.cfi_def_cfa_offset 32
 1566 0006 0F46     		mov	r7, r1
 1567 0008 1646     		mov	r6, r2
 1568 000a 9846     		mov	r8, r3
 669:Task/Task_Telemetry.c ****     int16_t end = 0;
 1569              		.loc 1 669 5 is_stmt 1 view .LVU475
 1570              	.LVL138:
 670:Task/Task_Telemetry.c ****     
 1571              		.loc 1 670 5 view .LVU476
 673:Task/Task_Telemetry.c ****                                       &Receiver_Obj.data.val_list[arm_toggle_ch], \
 1572              		.loc 1 673 5 view .LVU477
 674:Task/Task_Telemetry.c ****                                       &Telemetry_Monitor.RC_Setting.ARM_Toggle, \
 1573              		.loc 1 674 57 is_stmt 0 view .LVU478
 1574 000c 424B     		ldr	r3, .L110
 1575              	.LVL139:
 674:Task/Task_Telemetry.c ****                                       &Telemetry_Monitor.RC_Setting.ARM_Toggle, \
 1576              		.loc 1 674 57 view .LVU479
 1577 000e D968     		ldr	r1, [r3, #12]
 1578              	.LVL140:
 676:Task/Task_Telemetry.c ****                                       Telemetry_Monitor.receiver_value_mid))
 1579              		.loc 1 676 56 view .LVU480
 1580 0010 424C     		ldr	r4, .L110+4
 1581 0012 B4F91030 		ldrsh	r3, [r4, #16]
 677:Task/Task_Telemetry.c ****         return false;
 1582              		.loc 1 677 56 view .LVU481
 1583 0016 B4F90E50 		ldrsh	r5, [r4, #14]
 673:Task/Task_Telemetry.c ****                                       &Receiver_Obj.data.val_list[arm_toggle_ch], \
 1584              		.loc 1 673 9 view .LVU482
 1585 001a ADB2     		uxth	r5, r5
 1586 001c 0095     		str	r5, [sp]
 1587 001e 9BB2     		uxth	r3, r3
 1588 0020 04F1D402 		add	r2, r4, #212
 1589              	.LVL141:
 673:Task/Task_Telemetry.c ****                                       &Receiver_Obj.data.val_list[arm_toggle_ch], \
 1590              		.loc 1 673 9 view .LVU483
 1591 0024 01EB4001 		add	r1, r1, r0, lsl #1
 1592 0028 04F12400 		add	r0, r4, #36
 1593              	.LVL142:
 673:Task/Task_Telemetry.c ****                                       &Receiver_Obj.data.val_list[arm_toggle_ch], \
 1594              		.loc 1 673 9 view .LVU484
 1595 002c FFF7FEFF 		bl	Telemetry_BindToggleToChannel
 1596              	.LVL143:
 673:Task/Task_Telemetry.c ****                                       &Receiver_Obj.data.val_list[arm_toggle_ch], \
 1597              		.loc 1 673 7 view .LVU485
 1598 0030 10B9     		cbnz	r0, .L109
ARM GAS  C:\Users\8bit\AppData\Local\Temp\cc7otBDv.s 			page 50


 1599              	.LVL144:
 1600              	.L107:
 733:Task/Task_Telemetry.c **** 
 1601              		.loc 1 733 1 view .LVU486
 1602 0032 02B0     		add	sp, sp, #8
 1603              	.LCFI25:
 1604              		.cfi_remember_state
 1605              		.cfi_def_cfa_offset 24
 1606              		@ sp needed
 1607 0034 BDE8F081 		pop	{r4, r5, r6, r7, r8, pc}
 1608              	.LVL145:
 1609              	.L109:
 1610              	.LCFI26:
 1611              		.cfi_restore_state
 681:Task/Task_Telemetry.c ****                                       &Receiver_Obj.data.val_list[buzzer_toggle_ch], \
 1612              		.loc 1 681 5 is_stmt 1 view .LVU487
 682:Task/Task_Telemetry.c ****                                       &Telemetry_Monitor.RC_Setting.Buzzer_Toggle, \
 1613              		.loc 1 682 57 is_stmt 0 view .LVU488
 1614 0038 374B     		ldr	r3, .L110
 1615 003a D968     		ldr	r1, [r3, #12]
 684:Task/Task_Telemetry.c ****                                       Telemetry_Monitor.receiver_value_max))
 1616              		.loc 1 684 56 view .LVU489
 1617 003c 2046     		mov	r0, r4
 1618 003e B4F90E30 		ldrsh	r3, [r4, #14]
 685:Task/Task_Telemetry.c ****         return false;
 1619              		.loc 1 685 56 view .LVU490
 1620 0042 B4F90C20 		ldrsh	r2, [r4, #12]
 681:Task/Task_Telemetry.c ****                                       &Receiver_Obj.data.val_list[buzzer_toggle_ch], \
 1621              		.loc 1 681 9 view .LVU491
 1622 0046 92B2     		uxth	r2, r2
 1623 0048 0092     		str	r2, [sp]
 1624 004a 9BB2     		uxth	r3, r3
 1625 004c 04F58272 		add	r2, r4, #260
 1626 0050 01EB4601 		add	r1, r1, r6, lsl #1
 1627 0054 2430     		adds	r0, r0, #36
 1628 0056 FFF7FEFF 		bl	Telemetry_BindToggleToChannel
 1629              	.LVL146:
 681:Task/Task_Telemetry.c ****                                       &Receiver_Obj.data.val_list[buzzer_toggle_ch], \
 1630              		.loc 1 681 7 view .LVU492
 1631 005a 0028     		cmp	r0, #0
 1632 005c E9D0     		beq	.L107
 689:Task/Task_Telemetry.c ****     start = Telemetry_Monitor.receiver_value_min;
 1633              		.loc 1 689 5 is_stmt 1 view .LVU493
 689:Task/Task_Telemetry.c ****     start = Telemetry_Monitor.receiver_value_min;
 1634              		.loc 1 689 26 is_stmt 0 view .LVU494
 1635 005e 0320     		movs	r0, #3
 1636 0060 FFF7FEFF 		bl	Telemetry_SplitScopeValue_Into
 1637              	.LVL147:
 1638 0064 0446     		mov	r4, r0
 1639              	.LVL148:
 690:Task/Task_Telemetry.c ****     end = Telemetry_Monitor.receiver_value_min + split_val;
 1640              		.loc 1 690 5 is_stmt 1 view .LVU495
 690:Task/Task_Telemetry.c ****     end = Telemetry_Monitor.receiver_value_min + split_val;
 1641              		.loc 1 690 11 is_stmt 0 view .LVU496
 1642 0066 2D48     		ldr	r0, .L110+4
 1643 0068 B0F91030 		ldrsh	r3, [r0, #16]
 1644              	.LVL149:
ARM GAS  C:\Users\8bit\AppData\Local\Temp\cc7otBDv.s 			page 51


 691:Task/Task_Telemetry.c ****     if(!Telemetry_BindToggleToChannel(&Telemetry_Monitor.RC_Setting, \
 1645              		.loc 1 691 5 is_stmt 1 view .LVU497
 691:Task/Task_Telemetry.c ****     if(!Telemetry_BindToggleToChannel(&Telemetry_Monitor.RC_Setting, \
 1646              		.loc 1 691 28 is_stmt 0 view .LVU498
 1647 006c 9BB2     		uxth	r3, r3
 691:Task/Task_Telemetry.c ****     if(!Telemetry_BindToggleToChannel(&Telemetry_Monitor.RC_Setting, \
 1648              		.loc 1 691 48 view .LVU499
 1649 006e 1D19     		adds	r5, r3, r4
 1650 0070 ADB2     		uxth	r5, r5
 1651              	.LVL150:
 692:Task/Task_Telemetry.c ****                                       &Receiver_Obj.data.val_list[mode_toggle_ch], \
 1652              		.loc 1 692 5 is_stmt 1 view .LVU500
 693:Task/Task_Telemetry.c ****                                       &Telemetry_Monitor.RC_Setting.ControlMode_Toggle, \
 1653              		.loc 1 693 57 is_stmt 0 view .LVU501
 1654 0072 294A     		ldr	r2, .L110
 1655 0074 D168     		ldr	r1, [r2, #12]
 693:Task/Task_Telemetry.c ****                                       &Telemetry_Monitor.RC_Setting.ControlMode_Toggle, \
 1656              		.loc 1 693 66 view .LVU502
 1657 0076 7E00     		lsls	r6, r7, #1
 692:Task/Task_Telemetry.c ****                                       &Receiver_Obj.data.val_list[mode_toggle_ch], \
 1658              		.loc 1 692 9 view .LVU503
 1659 0078 0095     		str	r5, [sp]
 1660 007a 00F1EC02 		add	r2, r0, #236
 1661 007e 01EB4701 		add	r1, r1, r7, lsl #1
 1662 0082 2430     		adds	r0, r0, #36
 1663 0084 FFF7FEFF 		bl	Telemetry_BindToggleToChannel
 1664              	.LVL151:
 692:Task/Task_Telemetry.c ****                                       &Receiver_Obj.data.val_list[mode_toggle_ch], \
 1665              		.loc 1 692 7 view .LVU504
 1666 0088 0028     		cmp	r0, #0
 1667 008a D2D0     		beq	.L107
 699:Task/Task_Telemetry.c ****     end += split_val;
 1668              		.loc 1 699 5 is_stmt 1 view .LVU505
 1669              	.LVL152:
 700:Task/Task_Telemetry.c ****     if(!Telemetry_AddToggleCombo(&Telemetry_Monitor.RC_Setting, \
 1670              		.loc 1 700 5 view .LVU506
 700:Task/Task_Telemetry.c ****     if(!Telemetry_AddToggleCombo(&Telemetry_Monitor.RC_Setting, \
 1671              		.loc 1 700 9 is_stmt 0 view .LVU507
 1672 008c 2C44     		add	r4, r4, r5
 1673              	.LVL153:
 700:Task/Task_Telemetry.c ****     if(!Telemetry_AddToggleCombo(&Telemetry_Monitor.RC_Setting, \
 1674              		.loc 1 700 9 view .LVU508
 1675 008e A4B2     		uxth	r4, r4
 1676              	.LVL154:
 701:Task/Task_Telemetry.c ****                                  &Receiver_Obj.data.val_list[mode_toggle_ch], \
 1677              		.loc 1 701 5 is_stmt 1 view .LVU509
 702:Task/Task_Telemetry.c ****                                  &Telemetry_Monitor.RC_Setting.ControlMode_Toggle, \
 1678              		.loc 1 702 52 is_stmt 0 view .LVU510
 1679 0090 214B     		ldr	r3, .L110
 1680 0092 D968     		ldr	r1, [r3, #12]
 701:Task/Task_Telemetry.c ****                                  &Receiver_Obj.data.val_list[mode_toggle_ch], \
 1681              		.loc 1 701 9 view .LVU511
 1682 0094 2148     		ldr	r0, .L110+4
 1683 0096 0094     		str	r4, [sp]
 1684 0098 2B46     		mov	r3, r5
 1685 009a 00F1EC02 		add	r2, r0, #236
 1686 009e 3144     		add	r1, r1, r6
ARM GAS  C:\Users\8bit\AppData\Local\Temp\cc7otBDv.s 			page 52


 1687 00a0 2430     		adds	r0, r0, #36
 1688 00a2 FFF7FEFF 		bl	Telemetry_AddToggleCombo
 1689              	.LVL155:
 701:Task/Task_Telemetry.c ****                                  &Receiver_Obj.data.val_list[mode_toggle_ch], \
 1690              		.loc 1 701 7 view .LVU512
 1691 00a6 0028     		cmp	r0, #0
 1692 00a8 C3D0     		beq	.L107
 708:Task/Task_Telemetry.c ****     end = Telemetry_Monitor.receiver_value_max;
 1693              		.loc 1 708 5 is_stmt 1 view .LVU513
 1694              	.LVL156:
 709:Task/Task_Telemetry.c ****     if(!Telemetry_AddToggleCombo(&Telemetry_Monitor.RC_Setting, \
 1695              		.loc 1 709 5 view .LVU514
 709:Task/Task_Telemetry.c ****     if(!Telemetry_AddToggleCombo(&Telemetry_Monitor.RC_Setting, \
 1696              		.loc 1 709 9 is_stmt 0 view .LVU515
 1697 00aa 1C48     		ldr	r0, .L110+4
 1698 00ac B0F90C30 		ldrsh	r3, [r0, #12]
 1699              	.LVL157:
 710:Task/Task_Telemetry.c ****                                  &Receiver_Obj.data.val_list[mode_toggle_ch], \
 1700              		.loc 1 710 5 is_stmt 1 view .LVU516
 711:Task/Task_Telemetry.c ****                                  &Telemetry_Monitor.RC_Setting.ControlMode_Toggle, \
 1701              		.loc 1 711 52 is_stmt 0 view .LVU517
 1702 00b0 194A     		ldr	r2, .L110
 1703 00b2 D168     		ldr	r1, [r2, #12]
 710:Task/Task_Telemetry.c ****                                  &Receiver_Obj.data.val_list[mode_toggle_ch], \
 1704              		.loc 1 710 9 view .LVU518
 1705 00b4 9BB2     		uxth	r3, r3
 710:Task/Task_Telemetry.c ****                                  &Receiver_Obj.data.val_list[mode_toggle_ch], \
 1706              		.loc 1 710 9 view .LVU519
 1707 00b6 0093     		str	r3, [sp]
 1708 00b8 2346     		mov	r3, r4
 1709              	.LVL158:
 710:Task/Task_Telemetry.c ****                                  &Receiver_Obj.data.val_list[mode_toggle_ch], \
 1710              		.loc 1 710 9 view .LVU520
 1711 00ba 00F1EC02 		add	r2, r0, #236
 1712 00be 3144     		add	r1, r1, r6
 1713 00c0 2430     		adds	r0, r0, #36
 1714 00c2 FFF7FEFF 		bl	Telemetry_AddToggleCombo
 1715              	.LVL159:
 710:Task/Task_Telemetry.c ****                                  &Receiver_Obj.data.val_list[mode_toggle_ch], \
 1716              		.loc 1 710 7 view .LVU521
 1717 00c6 0028     		cmp	r0, #0
 1718 00c8 B3D0     		beq	.L107
 718:Task/Task_Telemetry.c ****                                       &Receiver_Obj.data.val_list[blackbox_toggle_ch], \
 1719              		.loc 1 718 5 is_stmt 1 view .LVU522
 719:Task/Task_Telemetry.c ****                                       &Telemetry_Monitor.RC_Setting.Blackbox_Toggle, \
 1720              		.loc 1 719 57 is_stmt 0 view .LVU523
 1721 00ca 134B     		ldr	r3, .L110
 1722 00cc D968     		ldr	r1, [r3, #12]
 721:Task/Task_Telemetry.c ****                                       Telemetry_Monitor.receiver_value_max))
 1723              		.loc 1 721 56 view .LVU524
 1724 00ce 1348     		ldr	r0, .L110+4
 1725 00d0 B0F90E30 		ldrsh	r3, [r0, #14]
 722:Task/Task_Telemetry.c ****         return false;
 1726              		.loc 1 722 56 view .LVU525
 1727 00d4 B0F90C20 		ldrsh	r2, [r0, #12]
 718:Task/Task_Telemetry.c ****                                       &Receiver_Obj.data.val_list[blackbox_toggle_ch], \
 1728              		.loc 1 718 9 view .LVU526
ARM GAS  C:\Users\8bit\AppData\Local\Temp\cc7otBDv.s 			page 53


 1729 00d8 92B2     		uxth	r2, r2
 1730 00da 0092     		str	r2, [sp]
 1731 00dc 9BB2     		uxth	r3, r3
 1732 00de 00F58E72 		add	r2, r0, #284
 1733 00e2 9DF82040 		ldrb	r4, [sp, #32]	@ zero_extendqisi2
 1734              	.LVL160:
 718:Task/Task_Telemetry.c ****                                       &Receiver_Obj.data.val_list[blackbox_toggle_ch], \
 1735              		.loc 1 718 9 view .LVU527
 1736 00e6 01EB4401 		add	r1, r1, r4, lsl #1
 1737 00ea 2430     		adds	r0, r0, #36
 1738 00ec FFF7FEFF 		bl	Telemetry_BindToggleToChannel
 1739              	.LVL161:
 718:Task/Task_Telemetry.c ****                                       &Receiver_Obj.data.val_list[blackbox_toggle_ch], \
 1740              		.loc 1 718 7 view .LVU528
 1741 00f0 0028     		cmp	r0, #0
 1742 00f2 9ED0     		beq	.L107
 725:Task/Task_Telemetry.c ****                                       &Receiver_Obj.data.val_list[flipover_toggle_ch], \
 1743              		.loc 1 725 5 is_stmt 1 view .LVU529
 726:Task/Task_Telemetry.c ****                                       &Telemetry_Monitor.RC_Setting.FlipOver_Toggle, \
 1744              		.loc 1 726 57 is_stmt 0 view .LVU530
 1745 00f4 084B     		ldr	r3, .L110
 1746 00f6 D968     		ldr	r1, [r3, #12]
 728:Task/Task_Telemetry.c ****                                       Telemetry_Monitor.receiver_value_max))
 1747              		.loc 1 728 56 view .LVU531
 1748 00f8 0848     		ldr	r0, .L110+4
 1749 00fa B0F90E30 		ldrsh	r3, [r0, #14]
 729:Task/Task_Telemetry.c ****         return false;
 1750              		.loc 1 729 56 view .LVU532
 1751 00fe B0F90C20 		ldrsh	r2, [r0, #12]
 725:Task/Task_Telemetry.c ****                                       &Receiver_Obj.data.val_list[flipover_toggle_ch], \
 1752              		.loc 1 725 9 view .LVU533
 1753 0102 92B2     		uxth	r2, r2
 1754 0104 0092     		str	r2, [sp]
 1755 0106 9BB2     		uxth	r3, r3
 1756 0108 00F59A72 		add	r2, r0, #308
 1757 010c 01EB4801 		add	r1, r1, r8, lsl #1
 1758 0110 2430     		adds	r0, r0, #36
 1759 0112 FFF7FEFF 		bl	Telemetry_BindToggleToChannel
 1760              	.LVL162:
 1761 0116 8CE7     		b	.L107
 1762              	.L111:
 1763              		.align	2
 1764              	.L110:
 1765 0118 00000000 		.word	.LANCHOR3
 1766 011c 00000000 		.word	.LANCHOR0
 1767              		.cfi_endproc
 1768              	.LFE2087:
 1770              		.section	.text.Telemetry_Bind_CalibCombo,"ax",%progbits
 1771              		.align	1
 1772              		.syntax unified
 1773              		.thumb
 1774              		.thumb_func
 1776              	Telemetry_Bind_CalibCombo:
 1777              	.LFB2088:
 737:Task/Task_Telemetry.c ****     int16_t start = Telemetry_Monitor.receiver_value_min;
 1778              		.loc 1 737 1 is_stmt 1 view -0
 1779              		.cfi_startproc
ARM GAS  C:\Users\8bit\AppData\Local\Temp\cc7otBDv.s 			page 54


 1780              		@ args = 0, pretend = 0, frame = 0
 1781              		@ frame_needed = 0, uses_anonymous_args = 0
 1782 0000 30B5     		push	{r4, r5, lr}
 1783              	.LCFI27:
 1784              		.cfi_def_cfa_offset 12
 1785              		.cfi_offset 4, -12
 1786              		.cfi_offset 5, -8
 1787              		.cfi_offset 14, -4
 1788 0002 83B0     		sub	sp, sp, #12
 1789              	.LCFI28:
 1790              		.cfi_def_cfa_offset 24
 738:Task/Task_Telemetry.c ****     int16_t end = start + 100;
 1791              		.loc 1 738 5 view .LVU535
 738:Task/Task_Telemetry.c ****     int16_t end = start + 100;
 1792              		.loc 1 738 13 is_stmt 0 view .LVU536
 1793 0004 1D48     		ldr	r0, .L117
 1794 0006 B0F91040 		ldrsh	r4, [r0, #16]
 1795              	.LVL163:
 739:Task/Task_Telemetry.c **** 
 1796              		.loc 1 739 5 is_stmt 1 view .LVU537
 739:Task/Task_Telemetry.c **** 
 1797              		.loc 1 739 25 is_stmt 0 view .LVU538
 1798 000a A4B2     		uxth	r4, r4
 739:Task/Task_Telemetry.c **** 
 1799              		.loc 1 739 25 view .LVU539
 1800 000c 04F16405 		add	r5, r4, #100
 1801 0010 ADB2     		uxth	r5, r5
 1802              	.LVL164:
 741:Task/Task_Telemetry.c ****        !Telemetry_AddToggleCombo(&Telemetry_Monitor.RC_Setting, &Receiver_Obj.data.val_list[1], &Te
 1803              		.loc 1 741 5 is_stmt 1 view .LVU540
 741:Task/Task_Telemetry.c ****        !Telemetry_AddToggleCombo(&Telemetry_Monitor.RC_Setting, &Receiver_Obj.data.val_list[1], &Te
 1804              		.loc 1 741 83 is_stmt 0 view .LVU541
 1805 0012 1B4B     		ldr	r3, .L117+4
 1806 0014 D968     		ldr	r1, [r3, #12]
 741:Task/Task_Telemetry.c ****        !Telemetry_AddToggleCombo(&Telemetry_Monitor.RC_Setting, &Receiver_Obj.data.val_list[1], &Te
 1807              		.loc 1 741 9 view .LVU542
 1808 0016 0095     		str	r5, [sp]
 1809 0018 2346     		mov	r3, r4
 1810 001a 00F5B272 		add	r2, r0, #356
 1811 001e 0431     		adds	r1, r1, #4
 1812 0020 2430     		adds	r0, r0, #36
 1813 0022 FFF7FEFF 		bl	Telemetry_AddToggleCombo
 1814              	.LVL165:
 741:Task/Task_Telemetry.c ****        !Telemetry_AddToggleCombo(&Telemetry_Monitor.RC_Setting, &Receiver_Obj.data.val_list[1], &Te
 1815              		.loc 1 741 7 view .LVU543
 1816 0026 10B9     		cbnz	r0, .L116
 1817              	.L113:
 745:Task/Task_Telemetry.c **** 
 1818              		.loc 1 745 8 is_stmt 1 view .LVU544
 745:Task/Task_Telemetry.c **** 
 1819              		.loc 1 745 15 is_stmt 0 view .LVU545
 1820 0028 0020     		movs	r0, #0
 1821              	.L114:
 748:Task/Task_Telemetry.c **** 
 1822              		.loc 1 748 1 view .LVU546
 1823 002a 03B0     		add	sp, sp, #12
 1824              	.LCFI29:
ARM GAS  C:\Users\8bit\AppData\Local\Temp\cc7otBDv.s 			page 55


 1825              		.cfi_remember_state
 1826              		.cfi_def_cfa_offset 12
 1827              		@ sp needed
 1828 002c 30BD     		pop	{r4, r5, pc}
 1829              	.LVL166:
 1830              	.L116:
 1831              	.LCFI30:
 1832              		.cfi_restore_state
 742:Task/Task_Telemetry.c ****        !Telemetry_AddToggleCombo(&Telemetry_Monitor.RC_Setting, &Receiver_Obj.data.val_list[0], &Te
 1833              		.loc 1 742 83 discriminator 1 view .LVU547
 1834 002e 144B     		ldr	r3, .L117+4
 1835 0030 D968     		ldr	r1, [r3, #12]
 742:Task/Task_Telemetry.c ****        !Telemetry_AddToggleCombo(&Telemetry_Monitor.RC_Setting, &Receiver_Obj.data.val_list[0], &Te
 1836              		.loc 1 742 9 discriminator 1 view .LVU548
 1837 0032 1248     		ldr	r0, .L117
 1838 0034 0095     		str	r5, [sp]
 1839 0036 2346     		mov	r3, r4
 1840 0038 00F5B272 		add	r2, r0, #356
 1841 003c 0231     		adds	r1, r1, #2
 1842 003e 2430     		adds	r0, r0, #36
 1843 0040 FFF7FEFF 		bl	Telemetry_AddToggleCombo
 1844              	.LVL167:
 741:Task/Task_Telemetry.c ****        !Telemetry_AddToggleCombo(&Telemetry_Monitor.RC_Setting, &Receiver_Obj.data.val_list[1], &Te
 1845              		.loc 1 741 151 discriminator 1 view .LVU549
 1846 0044 0028     		cmp	r0, #0
 1847 0046 EFD0     		beq	.L113
 743:Task/Task_Telemetry.c ****        !Telemetry_AddToggleCombo(&Telemetry_Monitor.RC_Setting, &Receiver_Obj.data.val_list[3], &Te
 1848              		.loc 1 743 9 view .LVU550
 1849 0048 0C48     		ldr	r0, .L117
 1850 004a 0095     		str	r5, [sp]
 1851 004c 2346     		mov	r3, r4
 1852 004e 00F5B272 		add	r2, r0, #356
 1853 0052 0B49     		ldr	r1, .L117+4
 1854 0054 C968     		ldr	r1, [r1, #12]
 1855 0056 2430     		adds	r0, r0, #36
 1856 0058 FFF7FEFF 		bl	Telemetry_AddToggleCombo
 1857              	.LVL168:
 742:Task/Task_Telemetry.c ****        !Telemetry_AddToggleCombo(&Telemetry_Monitor.RC_Setting, &Receiver_Obj.data.val_list[0], &Te
 1858              		.loc 1 742 151 view .LVU551
 1859 005c 0028     		cmp	r0, #0
 1860 005e E3D0     		beq	.L113
 744:Task/Task_Telemetry.c ****        return false;
 1861              		.loc 1 744 83 view .LVU552
 1862 0060 074B     		ldr	r3, .L117+4
 1863 0062 D968     		ldr	r1, [r3, #12]
 744:Task/Task_Telemetry.c ****        return false;
 1864              		.loc 1 744 9 view .LVU553
 1865 0064 0548     		ldr	r0, .L117
 1866 0066 0095     		str	r5, [sp]
 1867 0068 2346     		mov	r3, r4
 1868 006a 00F5B272 		add	r2, r0, #356
 1869 006e 0631     		adds	r1, r1, #6
 1870 0070 2430     		adds	r0, r0, #36
 1871 0072 FFF7FEFF 		bl	Telemetry_AddToggleCombo
 1872              	.LVL169:
 743:Task/Task_Telemetry.c ****        !Telemetry_AddToggleCombo(&Telemetry_Monitor.RC_Setting, &Receiver_Obj.data.val_list[3], &Te
 1873              		.loc 1 743 151 view .LVU554
ARM GAS  C:\Users\8bit\AppData\Local\Temp\cc7otBDv.s 			page 56


 1874 0076 0028     		cmp	r0, #0
 1875 0078 D7D1     		bne	.L114
 1876 007a D5E7     		b	.L113
 1877              	.L118:
 1878              		.align	2
 1879              	.L117:
 1880 007c 00000000 		.word	.LANCHOR0
 1881 0080 00000000 		.word	.LANCHOR3
 1882              		.cfi_endproc
 1883              	.LFE2088:
 1885              		.section	.text.Telemetry_Toggle_Check,"ax",%progbits
 1886              		.align	1
 1887              		.syntax unified
 1888              		.thumb
 1889              		.thumb_func
 1891              	Telemetry_Toggle_Check:
 1892              	.LVL170:
 1893              	.LFB2080:
 357:Task/Task_Telemetry.c ****     Telemetry_ToggleData_TypeDef toggle_val;
 1894              		.loc 1 357 1 is_stmt 1 view -0
 1895              		.cfi_startproc
 1896              		@ args = 0, pretend = 0, frame = 8
 1897              		@ frame_needed = 0, uses_anonymous_args = 0
 357:Task/Task_Telemetry.c ****     Telemetry_ToggleData_TypeDef toggle_val;
 1898              		.loc 1 357 1 is_stmt 0 view .LVU556
 1899 0000 30B5     		push	{r4, r5, lr}
 1900              	.LCFI31:
 1901              		.cfi_def_cfa_offset 12
 1902              		.cfi_offset 4, -12
 1903              		.cfi_offset 5, -8
 1904              		.cfi_offset 14, -4
 1905 0002 83B0     		sub	sp, sp, #12
 1906              	.LCFI32:
 1907              		.cfi_def_cfa_offset 24
 358:Task/Task_Telemetry.c ****     uint8_t pos_reg = 0;
 1908              		.loc 1 358 5 is_stmt 1 view .LVU557
 359:Task/Task_Telemetry.c **** 
 1909              		.loc 1 359 5 view .LVU558
 1910              	.LVL171:
 361:Task/Task_Telemetry.c ****     toggle_val.cnt = 0;
 1911              		.loc 1 361 5 view .LVU559
 361:Task/Task_Telemetry.c ****     toggle_val.cnt = 0;
 1912              		.loc 1 361 20 is_stmt 0 view .LVU560
 1913 0004 0023     		movs	r3, #0
 1914 0006 ADF80230 		strh	r3, [sp, #2]	@ movhi
 362:Task/Task_Telemetry.c ****     toggle_val.state = false;
 1915              		.loc 1 362 5 is_stmt 1 view .LVU561
 362:Task/Task_Telemetry.c ****     toggle_val.state = false;
 1916              		.loc 1 362 20 is_stmt 0 view .LVU562
 1917 000a 8DF80030 		strb	r3, [sp]
 363:Task/Task_Telemetry.c ****     item_obj *nxt = &toggle->combo_list;
 1918              		.loc 1 363 5 is_stmt 1 view .LVU563
 363:Task/Task_Telemetry.c ****     item_obj *nxt = &toggle->combo_list;
 1919              		.loc 1 363 22 is_stmt 0 view .LVU564
 1920 000e 8DF80130 		strb	r3, [sp, #1]
 364:Task/Task_Telemetry.c ****     Telemetry_ChannelSet_TypeDef *channel_data = NULL;
 1921              		.loc 1 364 5 is_stmt 1 view .LVU565
ARM GAS  C:\Users\8bit\AppData\Local\Temp\cc7otBDv.s 			page 57


 1922              	.LVL172:
 365:Task/Task_Telemetry.c **** 
 1923              		.loc 1 365 5 view .LVU566
 367:Task/Task_Telemetry.c ****         return toggle_val;
 1924              		.loc 1 367 5 view .LVU567
 367:Task/Task_Telemetry.c ****         return toggle_val;
 1925              		.loc 1 367 8 is_stmt 0 view .LVU568
 1926 0012 18B1     		cbz	r0, .L130
 1927 0014 0446     		mov	r4, r0
 1928 0016 0346     		mov	r3, r0
 359:Task/Task_Telemetry.c **** 
 1929              		.loc 1 359 13 view .LVU569
 1930 0018 0025     		movs	r5, #0
 1931 001a 13E0     		b	.L120
 1932              	.L130:
 368:Task/Task_Telemetry.c **** 
 1933              		.loc 1 368 9 is_stmt 1 view .LVU570
 368:Task/Task_Telemetry.c **** 
 1934              		.loc 1 368 16 is_stmt 0 view .LVU571
 1935 001c 009B     		ldr	r3, [sp]
 1936 001e 0193     		str	r3, [sp, #4]
 1937 0020 2CE0     		b	.L121
 1938              	.LVL173:
 1939              	.L122:
 379:Task/Task_Telemetry.c ****             toggle_val.cnt++;
 1940              		.loc 1 379 13 is_stmt 1 view .LVU572
 379:Task/Task_Telemetry.c ****             toggle_val.cnt++;
 1941              		.loc 1 379 39 is_stmt 0 view .LVU573
 1942 0022 BDF80210 		ldrh	r1, [sp, #2]
 379:Task/Task_Telemetry.c ****             toggle_val.cnt++;
 1943              		.loc 1 379 26 view .LVU574
 1944 0026 0122     		movs	r2, #1
 1945 0028 8A40     		lsls	r2, r2, r1
 379:Task/Task_Telemetry.c ****             toggle_val.cnt++;
 1946              		.loc 1 379 21 view .LVU575
 1947 002a 2A43     		orrs	r2, r2, r5
 1948 002c D5B2     		uxtb	r5, r2
 1949              	.LVL174:
 380:Task/Task_Telemetry.c ****         }
 1950              		.loc 1 380 13 is_stmt 1 view .LVU576
 380:Task/Task_Telemetry.c ****         }
 1951              		.loc 1 380 23 is_stmt 0 view .LVU577
 1952 002e 9DF80020 		ldrb	r2, [sp]	@ zero_extendqisi2
 380:Task/Task_Telemetry.c ****         }
 1953              		.loc 1 380 27 view .LVU578
 1954 0032 0132     		adds	r2, r2, #1
 1955 0034 8DF80020 		strb	r2, [sp]
 1956              	.L123:
 383:Task/Task_Telemetry.c ****         nxt = nxt->nxt;
 1957              		.loc 1 383 9 is_stmt 1 view .LVU579
 383:Task/Task_Telemetry.c ****         nxt = nxt->nxt;
 1958              		.loc 1 383 19 is_stmt 0 view .LVU580
 1959 0038 BDF80220 		ldrh	r2, [sp, #2]
 383:Task/Task_Telemetry.c ****         nxt = nxt->nxt;
 1960              		.loc 1 383 23 view .LVU581
 1961 003c 0132     		adds	r2, r2, #1
 1962 003e ADF80220 		strh	r2, [sp, #2]	@ movhi
ARM GAS  C:\Users\8bit\AppData\Local\Temp\cc7otBDv.s 			page 58


 384:Task/Task_Telemetry.c ****     }
 1963              		.loc 1 384 9 is_stmt 1 view .LVU582
 384:Task/Task_Telemetry.c ****     }
 1964              		.loc 1 384 13 is_stmt 0 view .LVU583
 1965 0042 DB68     		ldr	r3, [r3, #12]
 1966              	.LVL175:
 1967              	.L120:
 371:Task/Task_Telemetry.c ****     {
 1968              		.loc 1 371 11 is_stmt 1 view .LVU584
 1969 0044 5BB1     		cbz	r3, .L131
 373:Task/Task_Telemetry.c **** 
 1970              		.loc 1 373 9 view .LVU585
 373:Task/Task_Telemetry.c **** 
 1971              		.loc 1 373 22 is_stmt 0 view .LVU586
 1972 0046 1A69     		ldr	r2, [r3, #16]
 1973              	.LVL176:
 375:Task/Task_Telemetry.c ****             (((*(uint16_t *)channel_data->channel_ptr) <= channel_data->max) &&
 1974              		.loc 1 375 9 is_stmt 1 view .LVU587
 375:Task/Task_Telemetry.c ****             (((*(uint16_t *)channel_data->channel_ptr) <= channel_data->max) &&
 1975              		.loc 1 375 12 is_stmt 0 view .LVU588
 1976 0048 002A     		cmp	r2, #0
 1977 004a EAD0     		beq	.L122
 376:Task/Task_Telemetry.c ****              ((*(uint16_t *)channel_data->channel_ptr) >= channel_data->min)))
 1978              		.loc 1 376 41 discriminator 1 view .LVU589
 1979 004c D168     		ldr	r1, [r2, #12]
 376:Task/Task_Telemetry.c ****              ((*(uint16_t *)channel_data->channel_ptr) >= channel_data->min)))
 1980              		.loc 1 376 16 discriminator 1 view .LVU590
 1981 004e 0988     		ldrh	r1, [r1]
 376:Task/Task_Telemetry.c ****              ((*(uint16_t *)channel_data->channel_ptr) >= channel_data->min)))
 1982              		.loc 1 376 71 discriminator 1 view .LVU591
 1983 0050 1089     		ldrh	r0, [r2, #8]
 375:Task/Task_Telemetry.c ****             (((*(uint16_t *)channel_data->channel_ptr) <= channel_data->max) &&
 1984              		.loc 1 375 27 discriminator 1 view .LVU592
 1985 0052 8142     		cmp	r1, r0
 1986 0054 F0D8     		bhi	.L123
 377:Task/Task_Telemetry.c ****         {
 1987              		.loc 1 377 71 view .LVU593
 1988 0056 9288     		ldrh	r2, [r2, #4]
 1989              	.LVL177:
 376:Task/Task_Telemetry.c ****              ((*(uint16_t *)channel_data->channel_ptr) >= channel_data->min)))
 1990              		.loc 1 376 78 view .LVU594
 1991 0058 9142     		cmp	r1, r2
 1992 005a EDD3     		bcc	.L123
 1993 005c E1E7     		b	.L122
 1994              	.LVL178:
 1995              	.L131:
 388:Task/Task_Telemetry.c ****     {
 1996              		.loc 1 388 5 is_stmt 1 view .LVU595
 388:Task/Task_Telemetry.c ****     {
 1997              		.loc 1 388 9 is_stmt 0 view .LVU596
 1998 005e 2846     		mov	r0, r5
 1999 0060 FFF7FEFF 		bl	Get_OnSet_Bit_Num
 2000              	.LVL179:
 388:Task/Task_Telemetry.c ****     {
 2001              		.loc 1 388 8 view .LVU597
 2002 0064 0128     		cmp	r0, #1
 2003 0066 14D0     		beq	.L132
ARM GAS  C:\Users\8bit\AppData\Local\Temp\cc7otBDv.s 			page 59


 396:Task/Task_Telemetry.c ****     }
 2004              		.loc 1 396 9 is_stmt 1 view .LVU598
 396:Task/Task_Telemetry.c ****     }
 2005              		.loc 1 396 24 is_stmt 0 view .LVU599
 2006 0068 0023     		movs	r3, #0
 2007 006a ADF80230 		strh	r3, [sp, #2]	@ movhi
 2008              	.L126:
 399:Task/Task_Telemetry.c ****         toggle_val.state = true;
 2009              		.loc 1 399 5 is_stmt 1 view .LVU600
 399:Task/Task_Telemetry.c ****         toggle_val.state = true;
 2010              		.loc 1 399 19 is_stmt 0 view .LVU601
 2011 006e 9DF80020 		ldrb	r2, [sp]	@ zero_extendqisi2
 399:Task/Task_Telemetry.c ****         toggle_val.state = true;
 2012              		.loc 1 399 33 view .LVU602
 2013 0072 237D     		ldrb	r3, [r4, #20]	@ zero_extendqisi2
 399:Task/Task_Telemetry.c ****         toggle_val.state = true;
 2014              		.loc 1 399 8 view .LVU603
 2015 0074 9A42     		cmp	r2, r3
 2016 0076 12D0     		beq	.L133
 2017              	.L127:
 402:Task/Task_Telemetry.c **** }
 2018              		.loc 1 402 5 is_stmt 1 view .LVU604
 402:Task/Task_Telemetry.c **** }
 2019              		.loc 1 402 12 is_stmt 0 view .LVU605
 2020 0078 009B     		ldr	r3, [sp]
 2021 007a 0193     		str	r3, [sp, #4]
 2022              	.LVL180:
 2023              	.L121:
 403:Task/Task_Telemetry.c **** 
 2024              		.loc 1 403 1 view .LVU606
 2025 007c 0020     		movs	r0, #0
 2026 007e BDF80430 		ldrh	r3, [sp, #4]
 2027 0082 63F30F00 		bfi	r0, r3, #0, #16
 2028 0086 BDF80630 		ldrh	r3, [sp, #6]
 2029 008a 63F31F40 		bfi	r0, r3, #16, #16
 2030 008e 03B0     		add	sp, sp, #12
 2031              	.LCFI33:
 2032              		.cfi_remember_state
 2033              		.cfi_def_cfa_offset 12
 2034              		@ sp needed
 2035 0090 30BD     		pop	{r4, r5, pc}
 2036              	.LVL181:
 2037              	.L132:
 2038              	.LCFI34:
 2039              		.cfi_restore_state
 391:Task/Task_Telemetry.c ****     }
 2040              		.loc 1 391 9 is_stmt 1 view .LVU607
 391:Task/Task_Telemetry.c ****     }
 2041              		.loc 1 391 26 is_stmt 0 view .LVU608
 2042 0092 2846     		mov	r0, r5
 2043 0094 FFF7FEFF 		bl	Get_Bit_Index
 2044              	.LVL182:
 391:Task/Task_Telemetry.c ****     }
 2045              		.loc 1 391 24 view .LVU609
 2046 0098 ADF80200 		strh	r0, [sp, #2]	@ movhi
 2047 009c E7E7     		b	.L126
 2048              	.L133:
ARM GAS  C:\Users\8bit\AppData\Local\Temp\cc7otBDv.s 			page 60


 400:Task/Task_Telemetry.c **** 
 2049              		.loc 1 400 9 is_stmt 1 view .LVU610
 400:Task/Task_Telemetry.c **** 
 2050              		.loc 1 400 26 is_stmt 0 view .LVU611
 2051 009e 0123     		movs	r3, #1
 2052 00a0 8DF80130 		strb	r3, [sp, #1]
 2053 00a4 E8E7     		b	.L127
 2054              		.cfi_endproc
 2055              	.LFE2080:
 2057              		.section	.text.Telemetry_RC_Sig_Update,"ax",%progbits
 2058              		.align	1
 2059              		.syntax unified
 2060              		.thumb
 2061              		.thumb_func
 2063              	Telemetry_RC_Sig_Update:
 2064              	.LVL183:
 2065              	.LFB2084:
 482:Task/Task_Telemetry.c ****     SrvReceiverData_TypeDef receiver_data;
 2066              		.loc 1 482 1 is_stmt 1 view -0
 2067              		.cfi_startproc
 2068              		@ args = 0, pretend = 0, frame = 128
 2069              		@ frame_needed = 0, uses_anonymous_args = 0
 482:Task/Task_Telemetry.c ****     SrvReceiverData_TypeDef receiver_data;
 2070              		.loc 1 482 1 is_stmt 0 view .LVU613
 2071 0000 F0B5     		push	{r4, r5, r6, r7, lr}
 2072              	.LCFI35:
 2073              		.cfi_def_cfa_offset 20
 2074              		.cfi_offset 4, -20
 2075              		.cfi_offset 5, -16
 2076              		.cfi_offset 6, -12
 2077              		.cfi_offset 7, -8
 2078              		.cfi_offset 14, -4
 2079 0002 A1B0     		sub	sp, sp, #132
 2080              	.LCFI36:
 2081              		.cfi_def_cfa_offset 152
 2082 0004 0646     		mov	r6, r0
 2083 0006 0D46     		mov	r5, r1
 2084 0008 1746     		mov	r7, r2
 483:Task/Task_Telemetry.c ****     Telemetry_RCSig_TypeDef sig_tmp;
 2085              		.loc 1 483 5 is_stmt 1 view .LVU614
 484:Task/Task_Telemetry.c ****     static bool throttle_warning = false;
 2086              		.loc 1 484 5 view .LVU615
 485:Task/Task_Telemetry.c **** 
 2087              		.loc 1 485 5 view .LVU616
 487:Task/Task_Telemetry.c ****     memset(&sig_tmp, 0, sizeof(sig_tmp));
 2088              		.loc 1 487 5 view .LVU617
 2089 000a 0021     		movs	r1, #0
 2090              	.LVL184:
 487:Task/Task_Telemetry.c ****     memset(&sig_tmp, 0, sizeof(sig_tmp));
 2091              		.loc 1 487 5 is_stmt 0 view .LVU618
 2092 000c 1691     		str	r1, [sp, #88]
 2093 000e 1791     		str	r1, [sp, #92]
 2094 0010 1891     		str	r1, [sp, #96]
 2095 0012 1991     		str	r1, [sp, #100]
 488:Task/Task_Telemetry.c **** 
 2096              		.loc 1 488 5 is_stmt 1 view .LVU619
 2097 0014 4422     		movs	r2, #68
ARM GAS  C:\Users\8bit\AppData\Local\Temp\cc7otBDv.s 			page 61


 2098              	.LVL185:
 488:Task/Task_Telemetry.c **** 
 2099              		.loc 1 488 5 is_stmt 0 view .LVU620
 2100 0016 05A8     		add	r0, sp, #20
 2101              	.LVL186:
 488:Task/Task_Telemetry.c **** 
 2102              		.loc 1 488 5 view .LVU621
 2103 0018 FFF7FEFF 		bl	memset
 2104              	.LVL187:
 490:Task/Task_Telemetry.c ****         return sig_tmp;
 2105              		.loc 1 490 5 is_stmt 1 view .LVU622
 490:Task/Task_Telemetry.c ****         return sig_tmp;
 2106              		.loc 1 490 8 is_stmt 0 view .LVU623
 2107 001c 0DB3     		cbz	r5, .L135
 490:Task/Task_Telemetry.c ****         return sig_tmp;
 2108              		.loc 1 490 25 discriminator 1 view .LVU624
 2109 001e 07B3     		cbz	r7, .L135
 490:Task/Task_Telemetry.c ****         return sig_tmp;
 2110              		.loc 1 490 61 discriminator 2 view .LVU625
 2111 0020 2B78     		ldrb	r3, [r5]	@ zero_extendqisi2
 490:Task/Task_Telemetry.c ****         return sig_tmp;
 2112              		.loc 1 490 44 discriminator 2 view .LVU626
 2113 0022 F3B1     		cbz	r3, .L135
 493:Task/Task_Telemetry.c **** 
 2114              		.loc 1 493 5 is_stmt 1 view .LVU627
 493:Task/Task_Telemetry.c **** 
 2115              		.loc 1 493 32 is_stmt 0 view .LVU628
 2116 0024 744B     		ldr	r3, .L158
 2117 0026 DB68     		ldr	r3, [r3, #12]
 493:Task/Task_Telemetry.c **** 
 2118              		.loc 1 493 21 view .LVU629
 2119 0028 6C46     		mov	r4, sp
 2120 002a 3946     		mov	r1, r7
 2121 002c 2046     		mov	r0, r4
 2122 002e 9847     		blx	r3
 2123              	.LVL188:
 2124 0030 0DF1580C 		add	ip, sp, #88
 2125 0034 94E80F00 		ldm	r4, {r0, r1, r2, r3}
 2126 0038 8CE80F00 		stm	ip, {r0, r1, r2, r3}
 495:Task/Task_Telemetry.c ****     {
 2127              		.loc 1 495 5 is_stmt 1 view .LVU630
 495:Task/Task_Telemetry.c ****     {
 2128              		.loc 1 495 23 is_stmt 0 view .LVU631
 2129 003c 9DF86530 		ldrb	r3, [sp, #101]	@ zero_extendqisi2
 495:Task/Task_Telemetry.c ****     {
 2130              		.loc 1 495 8 view .LVU632
 2131 0040 002B     		cmp	r3, #0
 2132 0042 40F0B680 		bne	.L138
 497:Task/Task_Telemetry.c ****         RC_Input_obj->sig.link_quality = receiver_data.link_quality;
 2133              		.loc 1 497 9 is_stmt 1 view .LVU633
 497:Task/Task_Telemetry.c ****         RC_Input_obj->sig.link_quality = receiver_data.link_quality;
 2134              		.loc 1 497 47 is_stmt 0 view .LVU634
 2135 0046 BDF86030 		ldrh	r3, [sp, #96]
 497:Task/Task_Telemetry.c ****         RC_Input_obj->sig.link_quality = receiver_data.link_quality;
 2136              		.loc 1 497 32 view .LVU635
 2137 004a 6B82     		strh	r3, [r5, #18]	@ movhi
 498:Task/Task_Telemetry.c ****         RC_Input_obj->sig.time_stamp = RC_Input_obj->update_rt;
ARM GAS  C:\Users\8bit\AppData\Local\Temp\cc7otBDv.s 			page 62


 2138              		.loc 1 498 9 is_stmt 1 view .LVU636
 498:Task/Task_Telemetry.c ****         RC_Input_obj->sig.time_stamp = RC_Input_obj->update_rt;
 2139              		.loc 1 498 55 is_stmt 0 view .LVU637
 2140 004c BDF86230 		ldrh	r3, [sp, #98]
 498:Task/Task_Telemetry.c ****         RC_Input_obj->sig.time_stamp = RC_Input_obj->update_rt;
 2141              		.loc 1 498 40 view .LVU638
 2142 0050 AB82     		strh	r3, [r5, #20]	@ movhi
 499:Task/Task_Telemetry.c **** 
 2143              		.loc 1 499 9 is_stmt 1 view .LVU639
 499:Task/Task_Telemetry.c **** 
 2144              		.loc 1 499 52 is_stmt 0 view .LVU640
 2145 0052 6B68     		ldr	r3, [r5, #4]
 499:Task/Task_Telemetry.c **** 
 2146              		.loc 1 499 38 view .LVU641
 2147 0054 AB62     		str	r3, [r5, #40]
 501:Task/Task_Telemetry.c **** 
 2148              		.loc 1 501 9 is_stmt 1 view .LVU642
 501:Task/Task_Telemetry.c **** 
 2149              		.loc 1 501 53 is_stmt 0 view .LVU643
 2150 0056 694B     		ldr	r3, .L158+4
 2151 0058 9B78     		ldrb	r3, [r3, #2]	@ zero_extendqisi2
 501:Task/Task_Telemetry.c **** 
 2152              		.loc 1 501 39 view .LVU644
 2153 005a 85F82C30 		strb	r3, [r5, #44]
 504:Task/Task_Telemetry.c ****         {
 2154              		.loc 1 504 9 is_stmt 1 view .LVU645
 2155              	.LBB5:
 504:Task/Task_Telemetry.c ****         {
 2156              		.loc 1 504 14 view .LVU646
 2157              	.LVL189:
 504:Task/Task_Telemetry.c ****         {
 2158              		.loc 1 504 22 is_stmt 0 view .LVU647
 2159 005e 0024     		movs	r4, #0
 504:Task/Task_Telemetry.c ****         {
 2160              		.loc 1 504 9 view .LVU648
 2161 0060 11E0     		b	.L139
 2162              	.LVL190:
 2163              	.L135:
 504:Task/Task_Telemetry.c ****         {
 2164              		.loc 1 504 9 view .LVU649
 2165              	.LBE5:
 491:Task/Task_Telemetry.c **** 
 2166              		.loc 1 491 9 is_stmt 1 view .LVU650
 491:Task/Task_Telemetry.c **** 
 2167              		.loc 1 491 16 is_stmt 0 view .LVU651
 2168 0062 4422     		movs	r2, #68
 2169 0064 0021     		movs	r1, #0
 2170 0066 3046     		mov	r0, r6
 2171 0068 FFF7FEFF 		bl	memset
 2172              	.LVL191:
 2173              	.L134:
 616:Task/Task_Telemetry.c **** 
 2174              		.loc 1 616 1 view .LVU652
 2175 006c 3046     		mov	r0, r6
 2176 006e 21B0     		add	sp, sp, #132
 2177              	.LCFI37:
 2178              		.cfi_remember_state
ARM GAS  C:\Users\8bit\AppData\Local\Temp\cc7otBDv.s 			page 63


 2179              		.cfi_def_cfa_offset 20
 2180              		@ sp needed
 2181 0070 F0BD     		pop	{r4, r5, r6, r7, pc}
 2182              	.LVL192:
 2183              	.L140:
 2184              	.LCFI38:
 2185              		.cfi_restore_state
 2186              	.LBB6:
 512:Task/Task_Telemetry.c ****         }
 2187              		.loc 1 512 13 is_stmt 1 discriminator 2 view .LVU653
 512:Task/Task_Telemetry.c ****         }
 2188              		.loc 1 512 57 is_stmt 0 discriminator 2 view .LVU654
 2189 0072 179B     		ldr	r3, [sp, #92]
 512:Task/Task_Telemetry.c ****         }
 2190              		.loc 1 512 66 discriminator 2 view .LVU655
 2191 0074 33F91420 		ldrsh	r2, [r3, r4, lsl #1]
 512:Task/Task_Telemetry.c ****         }
 2192              		.loc 1 512 42 discriminator 2 view .LVU656
 2193 0078 04F11403 		add	r3, r4, #20
 2194 007c 05EB4303 		add	r3, r5, r3, lsl #1
 2195 0080 DA80     		strh	r2, [r3, #6]	@ movhi
 504:Task/Task_Telemetry.c ****         {
 2196              		.loc 1 504 60 is_stmt 1 discriminator 2 view .LVU657
 504:Task/Task_Telemetry.c ****         {
 2197              		.loc 1 504 61 is_stmt 0 discriminator 2 view .LVU658
 2198 0082 0134     		adds	r4, r4, #1
 2199              	.LVL193:
 504:Task/Task_Telemetry.c ****         {
 2200              		.loc 1 504 61 discriminator 2 view .LVU659
 2201 0084 E4B2     		uxtb	r4, r4
 2202              	.LVL194:
 2203              	.L139:
 504:Task/Task_Telemetry.c ****         {
 2204              		.loc 1 504 29 is_stmt 1 discriminator 1 view .LVU660
 504:Task/Task_Telemetry.c ****         {
 2205              		.loc 1 504 45 is_stmt 0 discriminator 1 view .LVU661
 2206 0086 BB78     		ldrb	r3, [r7, #2]	@ zero_extendqisi2
 504:Task/Task_Telemetry.c ****         {
 2207              		.loc 1 504 9 discriminator 1 view .LVU662
 2208 0088 A342     		cmp	r3, r4
 2209 008a 0ED9     		bls	.L155
 506:Task/Task_Telemetry.c ****             {
 2210              		.loc 1 506 13 is_stmt 1 view .LVU663
 506:Task/Task_Telemetry.c ****             {
 2211              		.loc 1 506 16 is_stmt 0 view .LVU664
 2212 008c 032C     		cmp	r4, #3
 2213 008e F0D8     		bhi	.L140
 508:Task/Task_Telemetry.c ****                 RC_Input_obj->sig.gimbal_percent[i] = Telemetry_GimbalToPercent(&RC_Input_obj->Gimb
 2214              		.loc 1 508 17 is_stmt 1 view .LVU665
 2215 0090 04EB4400 		add	r0, r4, r4, lsl #1
 2216 0094 C000     		lsls	r0, r0, #3
 2217 0096 5030     		adds	r0, r0, #80
 509:Task/Task_Telemetry.c ****             }
 2218              		.loc 1 509 17 view .LVU666
 509:Task/Task_Telemetry.c ****             }
 2219              		.loc 1 509 55 is_stmt 0 view .LVU667
 2220 0098 2844     		add	r0, r0, r5
ARM GAS  C:\Users\8bit\AppData\Local\Temp\cc7otBDv.s 			page 64


 2221 009a FFF7FEFF 		bl	Telemetry_GimbalToPercent
 2222              	.LVL195:
 509:Task/Task_Telemetry.c ****             }
 2223              		.loc 1 509 53 view .LVU668
 2224 009e 04F10803 		add	r3, r4, #8
 2225 00a2 05EB4303 		add	r3, r5, r3, lsl #1
 2226 00a6 D880     		strh	r0, [r3, #6]	@ movhi
 2227 00a8 E3E7     		b	.L140
 2228              	.L155:
 509:Task/Task_Telemetry.c ****             }
 2229              		.loc 1 509 53 view .LVU669
 2230              	.LBE6:
 516:Task/Task_Telemetry.c **** 
 2231              		.loc 1 516 9 is_stmt 1 view .LVU670
 516:Task/Task_Telemetry.c **** 
 2232              		.loc 1 516 38 is_stmt 0 view .LVU671
 2233 00aa 05F1F800 		add	r0, r5, #248
 2234 00ae FFF7FEFF 		bl	Telemetry_Toggle_Check
 2235              	.LVL196:
 2236 00b2 1A90     		str	r0, [sp, #104]
 516:Task/Task_Telemetry.c **** 
 2237              		.loc 1 516 92 view .LVU672
 2238 00b4 9DF86930 		ldrb	r3, [sp, #105]	@ zero_extendqisi2
 516:Task/Task_Telemetry.c **** 
 2239              		.loc 1 516 36 view .LVU673
 2240 00b8 2B74     		strb	r3, [r5, #16]
 519:Task/Task_Telemetry.c **** 
 2241              		.loc 1 519 9 is_stmt 1 view .LVU674
 519:Task/Task_Telemetry.c **** 
 2242              		.loc 1 519 40 is_stmt 0 view .LVU675
 2243 00ba 05F1E000 		add	r0, r5, #224
 2244 00be FFF7FEFF 		bl	Telemetry_Toggle_Check
 2245              	.LVL197:
 2246 00c2 1B90     		str	r0, [sp, #108]
 519:Task/Task_Telemetry.c **** 
 2247              		.loc 1 519 92 view .LVU676
 2248 00c4 9DF86D30 		ldrb	r3, [sp, #109]	@ zero_extendqisi2
 519:Task/Task_Telemetry.c **** 
 2249              		.loc 1 519 38 view .LVU677
 2250 00c8 6B73     		strb	r3, [r5, #13]
 522:Task/Task_Telemetry.c **** 
 2251              		.loc 1 522 9 is_stmt 1 view .LVU678
 522:Task/Task_Telemetry.c **** 
 2252              		.loc 1 522 39 is_stmt 0 view .LVU679
 2253 00ca 05F1B000 		add	r0, r5, #176
 2254 00ce FFF7FEFF 		bl	Telemetry_Toggle_Check
 2255              	.LVL198:
 2256 00d2 1C90     		str	r0, [sp, #112]
 522:Task/Task_Telemetry.c **** 
 2257              		.loc 1 522 88 view .LVU680
 2258 00d4 9DF87130 		ldrb	r3, [sp, #113]	@ zero_extendqisi2
 522:Task/Task_Telemetry.c **** 
 2259              		.loc 1 522 37 view .LVU681
 2260 00d8 2B73     		strb	r3, [r5, #12]
 525:Task/Task_Telemetry.c **** 
 2261              		.loc 1 525 9 is_stmt 1 view .LVU682
 525:Task/Task_Telemetry.c **** 
ARM GAS  C:\Users\8bit\AppData\Local\Temp\cc7otBDv.s 			page 65


 2262              		.loc 1 525 42 is_stmt 0 view .LVU683
 2263 00da 05F1C800 		add	r0, r5, #200
 2264 00de FFF7FEFF 		bl	Telemetry_Toggle_Check
 2265              	.LVL199:
 2266 00e2 1D90     		str	r0, [sp, #116]
 525:Task/Task_Telemetry.c **** 
 2267              		.loc 1 525 40 view .LVU684
 2268 00e4 9DF87630 		ldrb	r3, [sp, #118]	@ zero_extendqisi2
 2269 00e8 AB77     		strb	r3, [r5, #30]
 528:Task/Task_Telemetry.c ****             RC_Input_obj->sig.control_mode = Telemetry_Control_Mode_Default;
 2270              		.loc 1 528 9 is_stmt 1 view .LVU685
 528:Task/Task_Telemetry.c ****             RC_Input_obj->sig.control_mode = Telemetry_Control_Mode_Default;
 2271              		.loc 1 528 12 is_stmt 0 view .LVU686
 2272 00ea 022B     		cmp	r3, #2
 2273 00ec 01D9     		bls	.L142
 529:Task/Task_Telemetry.c **** 
 2274              		.loc 1 529 13 is_stmt 1 view .LVU687
 529:Task/Task_Telemetry.c **** 
 2275              		.loc 1 529 44 is_stmt 0 view .LVU688
 2276 00ee 0123     		movs	r3, #1
 2277 00f0 AB77     		strb	r3, [r5, #30]
 2278              	.L142:
 531:Task/Task_Telemetry.c ****         {
 2279              		.loc 1 531 9 is_stmt 1 view .LVU689
 531:Task/Task_Telemetry.c ****         {
 2280              		.loc 1 531 30 is_stmt 0 view .LVU690
 2281 00f2 2B7B     		ldrb	r3, [r5, #12]	@ zero_extendqisi2
 531:Task/Task_Telemetry.c ****         {
 2282              		.loc 1 531 12 view .LVU691
 2283 00f4 002B     		cmp	r3, #0
 2284 00f6 3CD1     		bne	.L156
 543:Task/Task_Telemetry.c ****             RC_Input_obj->sig.flip_over = false;
 2285              		.loc 1 543 13 is_stmt 1 view .LVU692
 543:Task/Task_Telemetry.c ****             RC_Input_obj->sig.flip_over = false;
 2286              		.loc 1 543 42 is_stmt 0 view .LVU693
 2287 00f8 0023     		movs	r3, #0
 2288 00fa AB73     		strb	r3, [r5, #14]
 544:Task/Task_Telemetry.c ****         }
 2289              		.loc 1 544 13 is_stmt 1 view .LVU694
 544:Task/Task_Telemetry.c ****         }
 2290              		.loc 1 544 41 is_stmt 0 view .LVU695
 2291 00fc EB73     		strb	r3, [r5, #15]
 2292              	.L144:
 547:Task/Task_Telemetry.c ****         RC_Input_obj->sig.update_interval = RC_Input_obj->update_rt - RC_Input_obj->lst_update_rt;
 2293              		.loc 1 547 9 is_stmt 1 view .LVU696
 547:Task/Task_Telemetry.c ****         RC_Input_obj->sig.update_interval = RC_Input_obj->update_rt - RC_Input_obj->lst_update_rt;
 2294              		.loc 1 547 48 is_stmt 0 view .LVU697
 2295 00fe 169B     		ldr	r3, [sp, #88]
 547:Task/Task_Telemetry.c ****         RC_Input_obj->sig.update_interval = RC_Input_obj->update_rt - RC_Input_obj->lst_update_rt;
 2296              		.loc 1 547 33 view .LVU698
 2297 0100 6B60     		str	r3, [r5, #4]
 548:Task/Task_Telemetry.c **** 
 2298              		.loc 1 548 9 is_stmt 1 view .LVU699
 548:Task/Task_Telemetry.c **** 
 2299              		.loc 1 548 83 is_stmt 0 view .LVU700
 2300 0102 AA68     		ldr	r2, [r5, #8]
 548:Task/Task_Telemetry.c **** 
ARM GAS  C:\Users\8bit\AppData\Local\Temp\cc7otBDv.s 			page 66


 2301              		.loc 1 548 69 view .LVU701
 2302 0104 9A1A     		subs	r2, r3, r2
 548:Task/Task_Telemetry.c **** 
 2303              		.loc 1 548 43 view .LVU702
 2304 0106 6A62     		str	r2, [r5, #36]
 550:Task/Task_Telemetry.c ****         RC_Input_obj->sig.failsafe = false;
 2305              		.loc 1 550 9 is_stmt 1 view .LVU703
 550:Task/Task_Telemetry.c ****         RC_Input_obj->sig.failsafe = false;
 2306              		.loc 1 550 37 is_stmt 0 view .LVU704
 2307 0108 AB60     		str	r3, [r5, #8]
 551:Task/Task_Telemetry.c **** 
 2308              		.loc 1 551 9 is_stmt 1 view .LVU705
 551:Task/Task_Telemetry.c **** 
 2309              		.loc 1 551 36 is_stmt 0 view .LVU706
 2310 010a 0023     		movs	r3, #0
 2311 010c 6B74     		strb	r3, [r5, #17]
 554:Task/Task_Telemetry.c ****         {
 2312              		.loc 1 554 9 is_stmt 1 view .LVU707
 554:Task/Task_Telemetry.c ****         {
 2313              		.loc 1 554 30 is_stmt 0 view .LVU708
 2314 010e 3C4B     		ldr	r3, .L158+8
 2315 0110 93F82030 		ldrb	r3, [r3, #32]	@ zero_extendqisi2
 554:Task/Task_Telemetry.c ****         {
 2316              		.loc 1 554 12 view .LVU709
 2317 0114 53B1     		cbz	r3, .L145
 558:Task/Task_Telemetry.c ****             {
 2318              		.loc 1 558 13 is_stmt 1 view .LVU710
 558:Task/Task_Telemetry.c ****             {
 2319              		.loc 1 558 35 is_stmt 0 view .LVU711
 2320 0116 3A4B     		ldr	r3, .L158+8
 2321 0118 93F82130 		ldrb	r3, [r3, #33]	@ zero_extendqisi2
 558:Task/Task_Telemetry.c ****             {
 2322              		.loc 1 558 16 view .LVU712
 2323 011c 13B1     		cbz	r3, .L146
 558:Task/Task_Telemetry.c ****             {
 2324              		.loc 1 558 93 discriminator 1 view .LVU713
 2325 011e 2B7B     		ldrb	r3, [r5, #12]	@ zero_extendqisi2
 558:Task/Task_Telemetry.c ****             {
 2326              		.loc 1 558 72 discriminator 1 view .LVU714
 2327 0120 002B     		cmp	r3, #0
 2328 0122 3AD0     		beq	.L157
 2329              	.L146:
 564:Task/Task_Telemetry.c ****         }
 2330              		.loc 1 564 13 is_stmt 1 view .LVU715
 564:Task/Task_Telemetry.c ****         }
 2331              		.loc 1 564 48 is_stmt 0 view .LVU716
 2332 0124 364B     		ldr	r3, .L158+8
 2333 0126 0022     		movs	r2, #0
 2334 0128 83F82020 		strb	r2, [r3, #32]
 2335              	.L145:
 568:Task/Task_Telemetry.c ****         {
 2336              		.loc 1 568 9 is_stmt 1 view .LVU717
 568:Task/Task_Telemetry.c ****         {
 2337              		.loc 1 568 29 is_stmt 0 view .LVU718
 2338 012c 344B     		ldr	r3, .L158+8
 2339 012e DB7E     		ldrb	r3, [r3, #27]	@ zero_extendqisi2
 568:Task/Task_Telemetry.c ****         {
ARM GAS  C:\Users\8bit\AppData\Local\Temp\cc7otBDv.s 			page 67


 2340              		.loc 1 568 11 view .LVU719
 2341 0130 23B1     		cbz	r3, .L147
 570:Task/Task_Telemetry.c ****             {
 2342              		.loc 1 570 13 is_stmt 1 view .LVU720
 570:Task/Task_Telemetry.c ****             {
 2343              		.loc 1 570 33 is_stmt 0 view .LVU721
 2344 0132 2B7B     		ldrb	r3, [r5, #12]	@ zero_extendqisi2
 570:Task/Task_Telemetry.c ****             {
 2345              		.loc 1 570 15 view .LVU722
 2346 0134 002B     		cmp	r3, #0
 2347 0136 38D1     		bne	.L148
 572:Task/Task_Telemetry.c ****             }
 2348              		.loc 1 572 17 is_stmt 1 view .LVU723
 572:Task/Task_Telemetry.c ****             }
 2349              		.loc 1 572 45 is_stmt 0 view .LVU724
 2350 0138 0123     		movs	r3, #1
 2351 013a 2B73     		strb	r3, [r5, #12]
 2352              	.L147:
 583:Task/Task_Telemetry.c ****         {
 2353              		.loc 1 583 9 is_stmt 1 view .LVU725
 583:Task/Task_Telemetry.c ****         {
 2354              		.loc 1 583 31 is_stmt 0 view .LVU726
 2355 013c 2B7B     		ldrb	r3, [r5, #12]	@ zero_extendqisi2
 583:Task/Task_Telemetry.c ****         {
 2356              		.loc 1 583 12 view .LVU727
 2357 013e 5BB9     		cbnz	r3, .L149
 583:Task/Task_Telemetry.c ****         {
 2358              		.loc 1 583 88 discriminator 1 view .LVU728
 2359 0140 2F4B     		ldr	r3, .L158+8
 2360 0142 93F82130 		ldrb	r3, [r3, #33]	@ zero_extendqisi2
 583:Task/Task_Telemetry.c ****         {
 2361              		.loc 1 583 67 discriminator 1 view .LVU729
 2362 0146 3BB1     		cbz	r3, .L149
 585:Task/Task_Telemetry.c ****             {
 2363              		.loc 1 585 13 is_stmt 1 view .LVU730
 585:Task/Task_Telemetry.c ****             {
 2364              		.loc 1 585 49 is_stmt 0 view .LVU731
 2365 0148 EB8A     		ldrh	r3, [r5, #22]
 585:Task/Task_Telemetry.c ****             {
 2366              		.loc 1 585 16 view .LVU732
 2367 014a 042B     		cmp	r3, #4
 2368 014c 04D9     		bls	.L149
 587:Task/Task_Telemetry.c ****                 throttle_warning = true;
 2369              		.loc 1 587 17 is_stmt 1 view .LVU733
 587:Task/Task_Telemetry.c ****                 throttle_warning = true;
 2370              		.loc 1 587 67 is_stmt 0 view .LVU734
 2371 014e 0023     		movs	r3, #0
 2372 0150 EB82     		strh	r3, [r5, #22]	@ movhi
 588:Task/Task_Telemetry.c ****             }
 2373              		.loc 1 588 17 is_stmt 1 view .LVU735
 588:Task/Task_Telemetry.c ****             }
 2374              		.loc 1 588 34 is_stmt 0 view .LVU736
 2375 0152 2C4B     		ldr	r3, .L158+12
 2376 0154 0122     		movs	r2, #1
 2377 0156 1A70     		strb	r2, [r3]
 2378              	.L149:
 592:Task/Task_Telemetry.c ****             RC_Input_obj->sig.arm_state = TELEMETRY_SET_ARM;
ARM GAS  C:\Users\8bit\AppData\Local\Temp\cc7otBDv.s 			page 68


 2379              		.loc 1 592 9 is_stmt 1 view .LVU737
 592:Task/Task_Telemetry.c ****             RC_Input_obj->sig.arm_state = TELEMETRY_SET_ARM;
 2380              		.loc 1 592 13 is_stmt 0 view .LVU738
 2381 0158 2A4B     		ldr	r3, .L158+12
 2382 015a 1B78     		ldrb	r3, [r3]	@ zero_extendqisi2
 592:Task/Task_Telemetry.c ****             RC_Input_obj->sig.arm_state = TELEMETRY_SET_ARM;
 2383              		.loc 1 592 12 view .LVU739
 2384 015c 0BB1     		cbz	r3, .L150
 593:Task/Task_Telemetry.c **** 
 2385              		.loc 1 593 13 is_stmt 1 view .LVU740
 593:Task/Task_Telemetry.c **** 
 2386              		.loc 1 593 41 is_stmt 0 view .LVU741
 2387 015e 0123     		movs	r3, #1
 2388 0160 2B73     		strb	r3, [r5, #12]
 2389              	.L150:
 595:Task/Task_Telemetry.c **** 
 2390              		.loc 1 595 9 is_stmt 1 view .LVU742
 595:Task/Task_Telemetry.c **** 
 2391              		.loc 1 595 60 is_stmt 0 view .LVU743
 2392 0162 2A7B     		ldrb	r2, [r5, #12]	@ zero_extendqisi2
 595:Task/Task_Telemetry.c **** 
 2393              		.loc 1 595 41 view .LVU744
 2394 0164 264B     		ldr	r3, .L158+8
 2395 0166 83F82120 		strb	r2, [r3, #33]
 597:Task/Task_Telemetry.c ****     }
 2396              		.loc 1 597 9 is_stmt 1 view .LVU745
 2397 016a 0020     		movs	r0, #0
 2398 016c FFF7FEFF 		bl	Telemetry_Led_Control
 2399              	.LVL200:
 2400 0170 35E0     		b	.L151
 2401              	.L156:
 533:Task/Task_Telemetry.c **** 
 2402              		.loc 1 533 13 view .LVU746
 533:Task/Task_Telemetry.c **** 
 2403              		.loc 1 533 30 is_stmt 0 view .LVU747
 2404 0172 244B     		ldr	r3, .L158+12
 2405 0174 0022     		movs	r2, #0
 2406 0176 1A70     		strb	r2, [r3]
 536:Task/Task_Telemetry.c ****             
 2407              		.loc 1 536 13 is_stmt 1 view .LVU748
 536:Task/Task_Telemetry.c ****             
 2408              		.loc 1 536 44 is_stmt 0 view .LVU749
 2409 0178 05F5A070 		add	r0, r5, #320
 2410 017c FFF7FEFF 		bl	Telemetry_Toggle_Check
 2411              	.LVL201:
 2412 0180 1E90     		str	r0, [sp, #120]
 536:Task/Task_Telemetry.c ****             
 2413              		.loc 1 536 93 view .LVU750
 2414 0182 9DF87930 		ldrb	r3, [sp, #121]	@ zero_extendqisi2
 536:Task/Task_Telemetry.c ****             
 2415              		.loc 1 536 42 view .LVU751
 2416 0186 AB73     		strb	r3, [r5, #14]
 539:Task/Task_Telemetry.c ****         }
 2417              		.loc 1 539 13 is_stmt 1 view .LVU752
 539:Task/Task_Telemetry.c ****         }
 2418              		.loc 1 539 43 is_stmt 0 view .LVU753
 2419 0188 05F58870 		add	r0, r5, #272
ARM GAS  C:\Users\8bit\AppData\Local\Temp\cc7otBDv.s 			page 69


 2420 018c FFF7FEFF 		bl	Telemetry_Toggle_Check
 2421              	.LVL202:
 2422 0190 1F90     		str	r0, [sp, #124]
 539:Task/Task_Telemetry.c ****         }
 2423              		.loc 1 539 97 view .LVU754
 2424 0192 9DF87D30 		ldrb	r3, [sp, #125]	@ zero_extendqisi2
 539:Task/Task_Telemetry.c ****         }
 2425              		.loc 1 539 41 view .LVU755
 2426 0196 EB73     		strb	r3, [r5, #15]
 2427 0198 B1E7     		b	.L144
 2428              	.L157:
 560:Task/Task_Telemetry.c ****                 return sig_tmp;
 2429              		.loc 1 560 17 is_stmt 1 view .LVU756
 560:Task/Task_Telemetry.c ****                 return sig_tmp;
 2430              		.loc 1 560 44 is_stmt 0 view .LVU757
 2431 019a 0123     		movs	r3, #1
 2432 019c 6B74     		strb	r3, [r5, #17]
 561:Task/Task_Telemetry.c ****             }
 2433              		.loc 1 561 17 is_stmt 1 view .LVU758
 561:Task/Task_Telemetry.c ****             }
 2434              		.loc 1 561 24 is_stmt 0 view .LVU759
 2435 019e 4422     		movs	r2, #68
 2436 01a0 05A9     		add	r1, sp, #20
 2437 01a2 3046     		mov	r0, r6
 2438 01a4 FFF7FEFF 		bl	memcpy
 2439              	.LVL203:
 2440 01a8 60E7     		b	.L134
 2441              	.L148:
 576:Task/Task_Telemetry.c ****             }
 2442              		.loc 1 576 17 is_stmt 1 view .LVU760
 576:Task/Task_Telemetry.c ****             }
 2443              		.loc 1 576 53 is_stmt 0 view .LVU761
 2444 01aa 154B     		ldr	r3, .L158+8
 2445 01ac 0022     		movs	r2, #0
 2446 01ae DA76     		strb	r2, [r3, #27]
 2447 01b0 C4E7     		b	.L147
 2448              	.LVL204:
 2449              	.L138:
 601:Task/Task_Telemetry.c ****         RC_Input_obj->sig.arm_state = TELEMETRY_SET_ARM;
 2450              		.loc 1 601 9 is_stmt 1 view .LVU762
 601:Task/Task_Telemetry.c ****         RC_Input_obj->sig.arm_state = TELEMETRY_SET_ARM;
 2451              		.loc 1 601 36 is_stmt 0 view .LVU763
 2452 01b2 0123     		movs	r3, #1
 2453 01b4 6B74     		strb	r3, [r5, #17]
 602:Task/Task_Telemetry.c ****         RC_Input_obj->sig.buzz_state = false;
 2454              		.loc 1 602 9 is_stmt 1 view .LVU764
 602:Task/Task_Telemetry.c ****         RC_Input_obj->sig.buzz_state = false;
 2455              		.loc 1 602 37 is_stmt 0 view .LVU765
 2456 01b6 2B73     		strb	r3, [r5, #12]
 603:Task/Task_Telemetry.c ****         // RC_Input_obj->sig.control_mode = Telemetry_Control_Mode_Default;
 2457              		.loc 1 603 9 is_stmt 1 view .LVU766
 603:Task/Task_Telemetry.c ****         // RC_Input_obj->sig.control_mode = Telemetry_Control_Mode_Default;
 2458              		.loc 1 603 38 is_stmt 0 view .LVU767
 2459 01b8 0023     		movs	r3, #0
 2460 01ba 6B73     		strb	r3, [r5, #13]
 606:Task/Task_Telemetry.c ****             RC_Input_obj->sig.gimbal_percent[i] = 0;
 2461              		.loc 1 606 9 is_stmt 1 view .LVU768
ARM GAS  C:\Users\8bit\AppData\Local\Temp\cc7otBDv.s 			page 70


 2462              	.LBB7:
 606:Task/Task_Telemetry.c ****             RC_Input_obj->sig.gimbal_percent[i] = 0;
 2463              		.loc 1 606 14 view .LVU769
 2464              	.LVL205:
 606:Task/Task_Telemetry.c ****             RC_Input_obj->sig.gimbal_percent[i] = 0;
 2465              		.loc 1 606 9 is_stmt 0 view .LVU770
 2466 01bc 07E0     		b	.L152
 2467              	.LVL206:
 2468              	.L153:
 607:Task/Task_Telemetry.c **** 
 2469              		.loc 1 607 13 is_stmt 1 discriminator 3 view .LVU771
 607:Task/Task_Telemetry.c **** 
 2470              		.loc 1 607 49 is_stmt 0 discriminator 3 view .LVU772
 2471 01be 03F10802 		add	r2, r3, #8
 2472 01c2 05EB4202 		add	r2, r5, r2, lsl #1
 2473 01c6 0021     		movs	r1, #0
 2474 01c8 D180     		strh	r1, [r2, #6]	@ movhi
 606:Task/Task_Telemetry.c ****             RC_Input_obj->sig.gimbal_percent[i] = 0;
 2475              		.loc 1 606 59 is_stmt 1 discriminator 3 view .LVU773
 606:Task/Task_Telemetry.c ****             RC_Input_obj->sig.gimbal_percent[i] = 0;
 2476              		.loc 1 606 60 is_stmt 0 discriminator 3 view .LVU774
 2477 01ca 0133     		adds	r3, r3, #1
 2478              	.LVL207:
 606:Task/Task_Telemetry.c ****             RC_Input_obj->sig.gimbal_percent[i] = 0;
 2479              		.loc 1 606 60 discriminator 3 view .LVU775
 2480 01cc DBB2     		uxtb	r3, r3
 2481              	.LVL208:
 2482              	.L152:
 606:Task/Task_Telemetry.c ****             RC_Input_obj->sig.gimbal_percent[i] = 0;
 2483              		.loc 1 606 43 is_stmt 1 discriminator 1 view .LVU776
 606:Task/Task_Telemetry.c ****             RC_Input_obj->sig.gimbal_percent[i] = 0;
 2484              		.loc 1 606 9 is_stmt 0 discriminator 1 view .LVU777
 2485 01ce 032B     		cmp	r3, #3
 2486 01d0 F5D9     		bls	.L153
 2487              	.LBE7:
 609:Task/Task_Telemetry.c ****         Telemetry_Led_Control(true);
 2488              		.loc 1 609 9 is_stmt 1 view .LVU778
 609:Task/Task_Telemetry.c ****         Telemetry_Led_Control(true);
 2489              		.loc 1 609 44 is_stmt 0 view .LVU779
 2490 01d2 0120     		movs	r0, #1
 2491 01d4 0A4B     		ldr	r3, .L158+8
 2492              	.LVL209:
 609:Task/Task_Telemetry.c ****         Telemetry_Led_Control(true);
 2493              		.loc 1 609 44 view .LVU780
 2494 01d6 83F82000 		strb	r0, [r3, #32]
 610:Task/Task_Telemetry.c ****     }
 2495              		.loc 1 610 9 is_stmt 1 view .LVU781
 2496 01da FFF7FEFF 		bl	Telemetry_Led_Control
 2497              	.LVL210:
 2498              	.L151:
 613:Task/Task_Telemetry.c **** 
 2499              		.loc 1 613 5 view .LVU782
 2500 01de 4424     		movs	r4, #68
 2501 01e0 2246     		mov	r2, r4
 2502 01e2 05F10C01 		add	r1, r5, #12
 2503 01e6 05A8     		add	r0, sp, #20
 2504 01e8 FFF7FEFF 		bl	memcpy
ARM GAS  C:\Users\8bit\AppData\Local\Temp\cc7otBDv.s 			page 71


 2505              	.LVL211:
 615:Task/Task_Telemetry.c **** }
 2506              		.loc 1 615 5 view .LVU783
 615:Task/Task_Telemetry.c **** }
 2507              		.loc 1 615 12 is_stmt 0 view .LVU784
 2508 01ec 2246     		mov	r2, r4
 2509 01ee 05A9     		add	r1, sp, #20
 2510 01f0 3046     		mov	r0, r6
 2511 01f2 FFF7FEFF 		bl	memcpy
 2512              	.LVL212:
 2513 01f6 39E7     		b	.L134
 2514              	.L159:
 2515              		.align	2
 2516              	.L158:
 2517 01f8 00000000 		.word	SrvReceiver
 2518 01fc 00000000 		.word	.LANCHOR3
 2519 0200 00000000 		.word	.LANCHOR0
 2520 0204 00000000 		.word	.LANCHOR4
 2521              		.cfi_endproc
 2522              	.LFE2084:
 2524              		.section	.text.TaskTelemetry_Set_DataIO_Enable,"ax",%progbits
 2525              		.align	1
 2526              		.global	TaskTelemetry_Set_DataIO_Enable
 2527              		.syntax unified
 2528              		.thumb
 2529              		.thumb_func
 2531              	TaskTelemetry_Set_DataIO_Enable:
 2532              	.LVL213:
 2533              	.LFB2071:
  54:Task/Task_Telemetry.c ****     RCData_To_Configuretor = state;
 2534              		.loc 1 54 1 is_stmt 1 view -0
 2535              		.cfi_startproc
 2536              		@ args = 0, pretend = 0, frame = 0
 2537              		@ frame_needed = 0, uses_anonymous_args = 0
 2538              		@ link register save eliminated.
  55:Task/Task_Telemetry.c **** }
 2539              		.loc 1 55 5 view .LVU786
  55:Task/Task_Telemetry.c **** }
 2540              		.loc 1 55 28 is_stmt 0 view .LVU787
 2541 0000 014B     		ldr	r3, .L161
 2542 0002 1870     		strb	r0, [r3]
  56:Task/Task_Telemetry.c **** 
 2543              		.loc 1 56 1 view .LVU788
 2544 0004 7047     		bx	lr
 2545              	.L162:
 2546 0006 00BF     		.align	2
 2547              	.L161:
 2548 0008 00000000 		.word	.LANCHOR5
 2549              		.cfi_endproc
 2550              	.LFE2071:
 2552              		.section	.text.TaskTelemetry_Init,"ax",%progbits
 2553              		.align	1
 2554              		.global	TaskTelemetry_Init
 2555              		.syntax unified
 2556              		.thumb
 2557              		.thumb_func
 2559              	TaskTelemetry_Init:
ARM GAS  C:\Users\8bit\AppData\Local\Temp\cc7otBDv.s 			page 72


 2560              	.LVL214:
 2561              	.LFB2072:
  59:Task/Task_Telemetry.c ****     memset(&Telemetry_Monitor, 0, sizeof(Telemetry_Monitor));
 2562              		.loc 1 59 1 is_stmt 1 view -0
 2563              		.cfi_startproc
 2564              		@ args = 0, pretend = 0, frame = 0
 2565              		@ frame_needed = 0, uses_anonymous_args = 0
  59:Task/Task_Telemetry.c ****     memset(&Telemetry_Monitor, 0, sizeof(Telemetry_Monitor));
 2566              		.loc 1 59 1 is_stmt 0 view .LVU790
 2567 0000 F0B5     		push	{r4, r5, r6, r7, lr}
 2568              	.LCFI39:
 2569              		.cfi_def_cfa_offset 20
 2570              		.cfi_offset 4, -20
 2571              		.cfi_offset 5, -16
 2572              		.cfi_offset 6, -12
 2573              		.cfi_offset 7, -8
 2574              		.cfi_offset 14, -4
 2575 0002 83B0     		sub	sp, sp, #12
 2576              	.LCFI40:
 2577              		.cfi_def_cfa_offset 32
 2578 0004 0546     		mov	r5, r0
  60:Task/Task_Telemetry.c **** 
 2579              		.loc 1 60 5 is_stmt 1 view .LVU791
 2580 0006 374C     		ldr	r4, .L168
 2581 0008 4FF4BE72 		mov	r2, #380
 2582 000c 0021     		movs	r1, #0
 2583 000e 2046     		mov	r0, r4
 2584              	.LVL215:
  60:Task/Task_Telemetry.c **** 
 2585              		.loc 1 60 5 is_stmt 0 view .LVU792
 2586 0010 FFF7FEFF 		bl	memset
 2587              	.LVL216:
  62:Task/Task_Telemetry.c **** 
 2588              		.loc 1 62 5 is_stmt 1 view .LVU793
  62:Task/Task_Telemetry.c **** 
 2589              		.loc 1 62 44 is_stmt 0 view .LVU794
 2590 0014 344B     		ldr	r3, .L168+4
 2591 0016 1B68     		ldr	r3, [r3]
  62:Task/Task_Telemetry.c **** 
 2592              		.loc 1 62 33 view .LVU795
 2593 0018 9847     		blx	r3
 2594              	.LVL217:
  62:Task/Task_Telemetry.c **** 
 2595              		.loc 1 62 31 view .LVU796
 2596 001a 2060     		str	r0, [r4]
  65:Task/Task_Telemetry.c ****     Telemetry_Monitor.pitch_ch = Channel_3;
 2597              		.loc 1 65 5 is_stmt 1 view .LVU797
  65:Task/Task_Telemetry.c ****     Telemetry_Monitor.pitch_ch = Channel_3;
 2598              		.loc 1 65 35 is_stmt 0 view .LVU798
 2599 001c 0123     		movs	r3, #1
 2600 001e A374     		strb	r3, [r4, #18]
  66:Task/Task_Telemetry.c ****     Telemetry_Monitor.roll_ch = Channel_4;
 2601              		.loc 1 66 5 is_stmt 1 view .LVU799
  66:Task/Task_Telemetry.c ****     Telemetry_Monitor.roll_ch = Channel_4;
 2602              		.loc 1 66 32 is_stmt 0 view .LVU800
 2603 0020 0223     		movs	r3, #2
 2604 0022 E374     		strb	r3, [r4, #19]
ARM GAS  C:\Users\8bit\AppData\Local\Temp\cc7otBDv.s 			page 73


  67:Task/Task_Telemetry.c ****     Telemetry_Monitor.yaw_ch = Channel_1;
 2605              		.loc 1 67 5 is_stmt 1 view .LVU801
  67:Task/Task_Telemetry.c ****     Telemetry_Monitor.yaw_ch = Channel_1;
 2606              		.loc 1 67 31 is_stmt 0 view .LVU802
 2607 0024 0323     		movs	r3, #3
 2608 0026 2375     		strb	r3, [r4, #20]
  68:Task/Task_Telemetry.c **** 
 2609              		.loc 1 68 5 is_stmt 1 view .LVU803
  68:Task/Task_Telemetry.c **** 
 2610              		.loc 1 68 30 is_stmt 0 view .LVU804
 2611 0028 0023     		movs	r3, #0
 2612 002a 6375     		strb	r3, [r4, #21]
  71:Task/Task_Telemetry.c ****     Telemetry_Monitor.buzzer_toggle_ch = Channel_6;
 2613              		.loc 1 71 5 is_stmt 1 view .LVU805
  71:Task/Task_Telemetry.c ****     Telemetry_Monitor.buzzer_toggle_ch = Channel_6;
 2614              		.loc 1 71 37 is_stmt 0 view .LVU806
 2615 002c 0423     		movs	r3, #4
 2616 002e A375     		strb	r3, [r4, #22]
  72:Task/Task_Telemetry.c ****     Telemetry_Monitor.mode_switcher_ch = Channel_7;
 2617              		.loc 1 72 5 is_stmt 1 view .LVU807
  72:Task/Task_Telemetry.c ****     Telemetry_Monitor.mode_switcher_ch = Channel_7;
 2618              		.loc 1 72 40 is_stmt 0 view .LVU808
 2619 0030 0523     		movs	r3, #5
 2620 0032 E375     		strb	r3, [r4, #23]
  73:Task/Task_Telemetry.c ****     Telemetry_Monitor.blackbox_ch = Channel_8;
 2621              		.loc 1 73 5 is_stmt 1 view .LVU809
  73:Task/Task_Telemetry.c ****     Telemetry_Monitor.blackbox_ch = Channel_8;
 2622              		.loc 1 73 40 is_stmt 0 view .LVU810
 2623 0034 0623     		movs	r3, #6
 2624 0036 2376     		strb	r3, [r4, #24]
  74:Task/Task_Telemetry.c ****     Telemetry_Monitor.flip_over_ch = Channel_9;
 2625              		.loc 1 74 5 is_stmt 1 view .LVU811
  74:Task/Task_Telemetry.c ****     Telemetry_Monitor.flip_over_ch = Channel_9;
 2626              		.loc 1 74 35 is_stmt 0 view .LVU812
 2627 0038 0723     		movs	r3, #7
 2628 003a 6376     		strb	r3, [r4, #25]
  75:Task/Task_Telemetry.c **** 
 2629              		.loc 1 75 5 is_stmt 1 view .LVU813
  75:Task/Task_Telemetry.c **** 
 2630              		.loc 1 75 36 is_stmt 0 view .LVU814
 2631 003c 0823     		movs	r3, #8
 2632 003e A376     		strb	r3, [r4, #26]
  78:Task/Task_Telemetry.c ****     {
 2633              		.loc 1 78 5 is_stmt 1 view .LVU815
  78:Task/Task_Telemetry.c ****     {
 2634              		.loc 1 78 9 is_stmt 0 view .LVU816
 2635 0040 2A49     		ldr	r1, .L168+8
 2636 0042 04F12400 		add	r0, r4, #36
 2637 0046 FFF7FEFF 		bl	Telemetry_RC_Sig_Init
 2638              	.LVL218:
  78:Task/Task_Telemetry.c ****     {
 2639              		.loc 1 78 8 view .LVU817
 2640 004a 38B1     		cbz	r0, .L164
  82:Task/Task_Telemetry.c ****         {
 2641              		.loc 1 82 9 is_stmt 1 view .LVU818
  82:Task/Task_Telemetry.c ****         {
 2642              		.loc 1 82 25 is_stmt 0 view .LVU819
ARM GAS  C:\Users\8bit\AppData\Local\Temp\cc7otBDv.s 			page 74


 2643 004c 274B     		ldr	r3, .L168+8
 2644 004e 1B78     		ldrb	r3, [r3]	@ zero_extendqisi2
  82:Task/Task_Telemetry.c ****         {
 2645              		.loc 1 82 12 view .LVU820
 2646 0050 012B     		cmp	r3, #1
 2647 0052 0AD0     		beq	.L167
 2648              	.L165:
 117:Task/Task_Telemetry.c **** 
 2649              		.loc 1 117 9 is_stmt 1 view .LVU821
 119:Task/Task_Telemetry.c ****     }
 2650              		.loc 1 119 9 view .LVU822
 119:Task/Task_Telemetry.c ****     }
 2651              		.loc 1 119 41 is_stmt 0 view .LVU823
 2652 0054 234B     		ldr	r3, .L168
 2653 0056 0122     		movs	r2, #1
 2654 0058 83F82120 		strb	r2, [r3, #33]
 2655              	.L164:
 122:Task/Task_Telemetry.c **** 
 2656              		.loc 1 122 5 is_stmt 1 view .LVU824
 122:Task/Task_Telemetry.c **** 
 2657              		.loc 1 122 41 is_stmt 0 view .LVU825
 2658 005c 214B     		ldr	r3, .L168
 2659 005e 0122     		movs	r2, #1
 2660 0060 DA76     		strb	r2, [r3, #27]
 124:Task/Task_Telemetry.c **** }
 2661              		.loc 1 124 5 is_stmt 1 view .LVU826
 124:Task/Task_Telemetry.c **** }
 2662              		.loc 1 124 26 is_stmt 0 view .LVU827
 2663 0062 234B     		ldr	r3, .L168+12
 2664 0064 1D60     		str	r5, [r3]
 125:Task/Task_Telemetry.c **** 
 2665              		.loc 1 125 1 view .LVU828
 2666 0066 03B0     		add	sp, sp, #12
 2667              	.LCFI41:
 2668              		.cfi_remember_state
 2669              		.cfi_def_cfa_offset 20
 2670              		@ sp needed
 2671 0068 F0BD     		pop	{r4, r5, r6, r7, pc}
 2672              	.LVL219:
 2673              	.L167:
 2674              	.LCFI42:
 2675              		.cfi_restore_state
  86:Task/Task_Telemetry.c ****                                       Telemetry_Monitor.pitch_ch, \
 2676              		.loc 1 86 13 is_stmt 1 view .LVU829
  86:Task/Task_Telemetry.c ****                                       Telemetry_Monitor.pitch_ch, \
 2677              		.loc 1 86 17 is_stmt 0 view .LVU830
 2678 006a 637D     		ldrb	r3, [r4, #21]	@ zero_extendqisi2
 2679 006c 227D     		ldrb	r2, [r4, #20]	@ zero_extendqisi2
 2680 006e E17C     		ldrb	r1, [r4, #19]	@ zero_extendqisi2
 2681 0070 A07C     		ldrb	r0, [r4, #18]	@ zero_extendqisi2
 2682 0072 FFF7FEFF 		bl	Telemetry_Bind_Gimbal
 2683              	.LVL220:
  86:Task/Task_Telemetry.c ****                                       Telemetry_Monitor.pitch_ch, \
 2684              		.loc 1 86 16 view .LVU831
 2685 0076 0028     		cmp	r0, #0
 2686 0078 ECD0     		beq	.L165
  90:Task/Task_Telemetry.c ****                                       Telemetry_Monitor.mode_switcher_ch, \
ARM GAS  C:\Users\8bit\AppData\Local\Temp\cc7otBDv.s 			page 75


 2687              		.loc 1 90 17 view .LVU832
 2688 007a 637E     		ldrb	r3, [r4, #25]	@ zero_extendqisi2
 2689 007c 0093     		str	r3, [sp]
 2690 007e A37E     		ldrb	r3, [r4, #26]	@ zero_extendqisi2
 2691 0080 E27D     		ldrb	r2, [r4, #23]	@ zero_extendqisi2
 2692 0082 217E     		ldrb	r1, [r4, #24]	@ zero_extendqisi2
 2693 0084 A07D     		ldrb	r0, [r4, #22]	@ zero_extendqisi2
 2694 0086 FFF7FEFF 		bl	Telemetry_Bind_Toggle
 2695              	.LVL221:
  89:Task/Task_Telemetry.c ****                 Telemetry_Bind_Toggle(Telemetry_Monitor.arm_toggle_ch, \
 2696              		.loc 1 89 65 view .LVU833
 2697 008a 0028     		cmp	r0, #0
 2698 008c E2D0     		beq	.L165
  95:Task/Task_Telemetry.c ****             {
 2699              		.loc 1 95 17 view .LVU834
 2700 008e FFF7FEFF 		bl	Telemetry_Bind_CalibCombo
 2701              	.LVL222:
  94:Task/Task_Telemetry.c ****                 Telemetry_Bind_CalibCombo())
 2702              		.loc 1 94 70 view .LVU835
 2703 0092 0028     		cmp	r0, #0
 2704 0094 DED0     		beq	.L165
  97:Task/Task_Telemetry.c **** 
 2705              		.loc 1 97 17 is_stmt 1 view .LVU836
  97:Task/Task_Telemetry.c **** 
 2706              		.loc 1 97 60 is_stmt 0 view .LVU837
 2707 0096 0126     		movs	r6, #1
 2708 0098 84F83060 		strb	r6, [r4, #48]
 100:Task/Task_Telemetry.c ****                 Telemetry_Enable_GimbalDeadZone(&Telemetry_Monitor.RC_Setting.Gimbal[Gimbal_Roll], 
 2709              		.loc 1 100 17 is_stmt 1 view .LVU838
 2710 009c 6421     		movs	r1, #100
 2711 009e 04F18C00 		add	r0, r4, #140
 2712 00a2 FFF7FEFF 		bl	Telemetry_Enable_GimbalDeadZone
 2713              	.LVL223:
 101:Task/Task_Telemetry.c ****                 Telemetry_Enable_GimbalDeadZone(&Telemetry_Monitor.RC_Setting.Gimbal[Gimbal_Yaw], 1
 2714              		.loc 1 101 17 view .LVU839
 2715 00a6 6421     		movs	r1, #100
 2716 00a8 04F1A400 		add	r0, r4, #164
 2717 00ac FFF7FEFF 		bl	Telemetry_Enable_GimbalDeadZone
 2718              	.LVL224:
 102:Task/Task_Telemetry.c **** 
 2719              		.loc 1 102 17 view .LVU840
 2720 00b0 6421     		movs	r1, #100
 2721 00b2 04F1BC00 		add	r0, r4, #188
 2722 00b6 FFF7FEFF 		bl	Telemetry_Enable_GimbalDeadZone
 2723              	.LVL225:
 105:Task/Task_Telemetry.c ****                 memset(DataPipe_DataObjAddr(Rc), 0, DataPipe_DataSize(Rc));
 2724              		.loc 1 105 17 view .LVU841
 2725 00ba 0E4C     		ldr	r4, .L168+16
 2726 00bc 2722     		movs	r2, #39
 2727 00be 0021     		movs	r1, #0
 2728 00c0 2046     		mov	r0, r4
 2729 00c2 FFF7FEFF 		bl	memset
 2730              	.LVL226:
 106:Task/Task_Telemetry.c **** 
 2731              		.loc 1 106 17 view .LVU842
 2732 00c6 0C4F     		ldr	r7, .L168+20
 2733 00c8 6422     		movs	r2, #100
ARM GAS  C:\Users\8bit\AppData\Local\Temp\cc7otBDv.s 			page 76


 2734 00ca 0021     		movs	r1, #0
 2735 00cc 3846     		mov	r0, r7
 2736 00ce FFF7FEFF 		bl	memset
 2737              	.LVL227:
 108:Task/Task_Telemetry.c ****                 Receiver_Smp_DataPipe.data_size = DataPipe_DataSize(Rc);
 2738              		.loc 1 108 17 view .LVU843
 108:Task/Task_Telemetry.c ****                 Receiver_Smp_DataPipe.data_size = DataPipe_DataSize(Rc);
 2739              		.loc 1 108 49 is_stmt 0 view .LVU844
 2740 00d2 C4F80D70 		str	r7, [r4, #13]	@ unaligned
 109:Task/Task_Telemetry.c **** 
 2741              		.loc 1 109 17 is_stmt 1 view .LVU845
 109:Task/Task_Telemetry.c **** 
 2742              		.loc 1 109 49 is_stmt 0 view .LVU846
 2743 00d6 6423     		movs	r3, #100
 2744 00d8 6374     		strb	r3, [r4, #17]
 2745 00da 0023     		movs	r3, #0
 2746 00dc A374     		strb	r3, [r4, #18]
 111:Task/Task_Telemetry.c ****             }
 2747              		.loc 1 111 17 is_stmt 1 view .LVU847
 2748              	.LVL228:
 2749              	.LBB8:
 2750              	.LBI8:
 2751              		.file 2 "System/DataPipe/DataPipe.h"
   1:System/DataPipe/DataPipe.h **** #ifndef __DATAPIPE_H
   2:System/DataPipe/DataPipe.h **** #define __DATAPIPE_H
   3:System/DataPipe/DataPipe.h **** 
   4:System/DataPipe/DataPipe.h **** #ifdef __cplusplus
   5:System/DataPipe/DataPipe.h **** extern "C" {
   6:System/DataPipe/DataPipe.h **** #endif
   7:System/DataPipe/DataPipe.h **** 
   8:System/DataPipe/DataPipe.h **** #include <stdint.h>
   9:System/DataPipe/DataPipe.h **** #include <string.h>
  10:System/DataPipe/DataPipe.h **** #include <stdbool.h>
  11:System/DataPipe/DataPipe.h **** 
  12:System/DataPipe/DataPipe.h **** typedef void (*Pipe_TransFinish_Callback)(void *pipe_obj);
  13:System/DataPipe/DataPipe.h **** typedef void (*Pipe_TransError_Callback)(void *pipe_obj);
  14:System/DataPipe/DataPipe.h **** typedef void (*Pipe_TimeOutProc_Callback)(void *pipe_obj);
  15:System/DataPipe/DataPipe.h **** 
  16:System/DataPipe/DataPipe.h **** #define DataPipeHandleToObj(x) ((DataPipeObj_TypeDef *)x)
  17:System/DataPipe/DataPipe.h **** #define DataPipe_CreateDataObj(type, name) static type name##_##PipeDataObj __attribute__((section(
  18:System/DataPipe/DataPipe.h **** #define DataPipe_DataObjAddr(name) (&name##_##PipeDataObj)
  19:System/DataPipe/DataPipe.h **** #define DataPipe_DataObj(name) name##_##PipeDataObj
  20:System/DataPipe/DataPipe.h **** #define DataPipe_DataSize(name) sizeof(name##_##PipeDataObj)
  21:System/DataPipe/DataPipe.h **** 
  22:System/DataPipe/DataPipe.h **** typedef enum
  23:System/DataPipe/DataPipe.h **** {
  24:System/DataPipe/DataPipe.h ****     Pipe_UnReady = 0,
  25:System/DataPipe/DataPipe.h ****     Pipe_Ready,
  26:System/DataPipe/DataPipe.h ****     Pipe_Busy,
  27:System/DataPipe/DataPipe.h ****     Pipe_Error,
  28:System/DataPipe/DataPipe.h **** } DataPipe_State_List;
  29:System/DataPipe/DataPipe.h **** 
  30:System/DataPipe/DataPipe.h **** #pragma pack(1)
  31:System/DataPipe/DataPipe.h **** typedef struct
  32:System/DataPipe/DataPipe.h **** {
  33:System/DataPipe/DataPipe.h ****     uint32_t min_rx_interval;
  34:System/DataPipe/DataPipe.h ****     uint32_t detect_interval;
ARM GAS  C:\Users\8bit\AppData\Local\Temp\cc7otBDv.s 			page 77


  35:System/DataPipe/DataPipe.h ****     uint32_t rx_ms_rt;
  36:System/DataPipe/DataPipe.h **** 
  37:System/DataPipe/DataPipe.h ****     bool enable;
  38:System/DataPipe/DataPipe.h **** 
  39:System/DataPipe/DataPipe.h ****     uint32_t data_addr;
  40:System/DataPipe/DataPipe.h ****     uint16_t data_size;
  41:System/DataPipe/DataPipe.h **** 
  42:System/DataPipe/DataPipe.h ****     Pipe_TransFinish_Callback trans_finish_cb;
  43:System/DataPipe/DataPipe.h ****     Pipe_TransError_Callback trans_error_cb;
  44:System/DataPipe/DataPipe.h **** 
  45:System/DataPipe/DataPipe.h ****     uint32_t tx_cnt;
  46:System/DataPipe/DataPipe.h ****     uint32_t rx_cnt;
  47:System/DataPipe/DataPipe.h ****     uint32_t er_cnt;
  48:System/DataPipe/DataPipe.h **** } DataPipeObj_TypeDef;
  49:System/DataPipe/DataPipe.h **** #pragma pack()
  50:System/DataPipe/DataPipe.h **** 
  51:System/DataPipe/DataPipe.h **** typedef struct
  52:System/DataPipe/DataPipe.h **** {
  53:System/DataPipe/DataPipe.h ****     DataPipeObj_TypeDef *org;
  54:System/DataPipe/DataPipe.h ****     DataPipeObj_TypeDef *dst;
  55:System/DataPipe/DataPipe.h **** } Data_PlugedPipeObj_TypeDef;
  56:System/DataPipe/DataPipe.h **** 
  57:System/DataPipe/DataPipe.h **** bool DataPipe_Init(void);
  58:System/DataPipe/DataPipe.h **** bool DataPipe_DeInit(void);
  59:System/DataPipe/DataPipe.h **** bool DataPipe_SendTo(DataPipeObj_TypeDef *p_org, DataPipeObj_TypeDef *p_dst);
  60:System/DataPipe/DataPipe.h **** bool DataPipe_DealError(void);
  61:System/DataPipe/DataPipe.h **** 
  62:System/DataPipe/DataPipe.h **** inline bool DataPipe_Enable(DataPipeObj_TypeDef *obj)
 2752              		.loc 2 62 13 view .LVU848
 2753              	.LBB9:
  63:System/DataPipe/DataPipe.h **** {
  64:System/DataPipe/DataPipe.h ****     if (obj == NULL)
 2754              		.loc 2 64 5 view .LVU849
  65:System/DataPipe/DataPipe.h ****         return false;
  66:System/DataPipe/DataPipe.h **** 
  67:System/DataPipe/DataPipe.h ****     obj->enable = true;
 2755              		.loc 2 67 5 view .LVU850
 2756              		.loc 2 67 17 is_stmt 0 view .LVU851
 2757 00de 2673     		strb	r6, [r4, #12]
  68:System/DataPipe/DataPipe.h **** 
  69:System/DataPipe/DataPipe.h ****     return true;
 2758              		.loc 2 69 5 is_stmt 1 view .LVU852
 2759 00e0 B8E7     		b	.L165
 2760              	.L169:
 2761 00e2 00BF     		.align	2
 2762              	.L168:
 2763 00e4 00000000 		.word	.LANCHOR0
 2764 00e8 00000000 		.word	SrvOsCommon
 2765 00ec 00000000 		.word	.LANCHOR3
 2766 00f0 00000000 		.word	.LANCHOR7
 2767 00f4 00000000 		.word	Receiver_Smp_DataPipe
 2768 00f8 00000000 		.word	.LANCHOR6
 2769              	.LBE9:
 2770              	.LBE8:
 2771              		.cfi_endproc
 2772              	.LFE2072:
 2774              		.section	.text.Telemetry_blink,"ax",%progbits
ARM GAS  C:\Users\8bit\AppData\Local\Temp\cc7otBDv.s 			page 78


 2775              		.align	1
 2776              		.global	Telemetry_blink
 2777              		.syntax unified
 2778              		.thumb
 2779              		.thumb_func
 2781              	Telemetry_blink:
 2782              	.LFB2073:
 128:Task/Task_Telemetry.c ****     uint32_t Rt = 0;
 2783              		.loc 1 128 1 view -0
 2784              		.cfi_startproc
 2785              		@ args = 0, pretend = 0, frame = 0
 2786              		@ frame_needed = 0, uses_anonymous_args = 0
 2787 0000 10B5     		push	{r4, lr}
 2788              	.LCFI43:
 2789              		.cfi_def_cfa_offset 8
 2790              		.cfi_offset 4, -8
 2791              		.cfi_offset 14, -4
 129:Task/Task_Telemetry.c ****     static uint32_t Lst_Rt = 0;
 2792              		.loc 1 129 5 view .LVU854
 2793              	.LVL229:
 130:Task/Task_Telemetry.c ****     static bool led_state = false;
 2794              		.loc 1 130 5 view .LVU855
 131:Task/Task_Telemetry.c **** 
 2795              		.loc 1 131 5 view .LVU856
 136:Task/Task_Telemetry.c **** 
 2796              		.loc 1 136 5 view .LVU857
 136:Task/Task_Telemetry.c **** 
 2797              		.loc 1 136 21 is_stmt 0 view .LVU858
 2798 0002 0F4B     		ldr	r3, .L173
 2799 0004 1B68     		ldr	r3, [r3]
 136:Task/Task_Telemetry.c **** 
 2800              		.loc 1 136 10 view .LVU859
 2801 0006 9847     		blx	r3
 2802              	.LVL230:
 138:Task/Task_Telemetry.c ****     {
 2803              		.loc 1 138 5 is_stmt 1 view .LVU860
 138:Task/Task_Telemetry.c ****     {
 2804              		.loc 1 138 13 is_stmt 0 view .LVU861
 2805 0008 0E4B     		ldr	r3, .L173+4
 2806 000a A3FB0023 		umull	r2, r3, r3, r0
 2807 000e 5B09     		lsrs	r3, r3, #5
 2808 0010 6422     		movs	r2, #100
 2809 0012 02FB1303 		mls	r3, r2, r3, r0
 138:Task/Task_Telemetry.c ****     {
 2810              		.loc 1 138 8 view .LVU862
 2811 0016 53B9     		cbnz	r3, .L171
 138:Task/Task_Telemetry.c ****     {
 2812              		.loc 1 138 36 discriminator 1 view .LVU863
 2813 0018 0B4B     		ldr	r3, .L173+8
 2814 001a 1B68     		ldr	r3, [r3]
 138:Task/Task_Telemetry.c ****     {
 2815              		.loc 1 138 25 discriminator 1 view .LVU864
 2816 001c 8342     		cmp	r3, r0
 2817 001e 06D0     		beq	.L171
 140:Task/Task_Telemetry.c ****         Lst_Rt = Rt;
 2818              		.loc 1 140 9 is_stmt 1 view .LVU865
 2819 0020 0A4A     		ldr	r2, .L173+12
ARM GAS  C:\Users\8bit\AppData\Local\Temp\cc7otBDv.s 			page 79


 2820 0022 1378     		ldrb	r3, [r2]	@ zero_extendqisi2
 2821 0024 83F00103 		eor	r3, r3, #1
 140:Task/Task_Telemetry.c ****         Lst_Rt = Rt;
 2822              		.loc 1 140 19 is_stmt 0 view .LVU866
 2823 0028 1370     		strb	r3, [r2]
 141:Task/Task_Telemetry.c ****     }
 2824              		.loc 1 141 9 is_stmt 1 view .LVU867
 141:Task/Task_Telemetry.c ****     }
 2825              		.loc 1 141 16 is_stmt 0 view .LVU868
 2826 002a 074B     		ldr	r3, .L173+8
 2827 002c 1860     		str	r0, [r3]
 2828              	.L171:
 144:Task/Task_Telemetry.c ****     // DevLED.ctl(Led3, led_state);
 2829              		.loc 1 144 5 is_stmt 1 view .LVU869
 144:Task/Task_Telemetry.c ****     // DevLED.ctl(Led3, led_state);
 2830              		.loc 1 144 11 is_stmt 0 view .LVU870
 2831 002e 084B     		ldr	r3, .L173+16
 2832 0030 5C68     		ldr	r4, [r3, #4]
 144:Task/Task_Telemetry.c ****     // DevLED.ctl(Led3, led_state);
 2833              		.loc 1 144 5 view .LVU871
 2834 0032 084A     		ldr	r2, .L173+20
 2835 0034 054B     		ldr	r3, .L173+12
 2836 0036 1B78     		ldrb	r3, [r3]	@ zero_extendqisi2
 2837 0038 07CA     		ldm	r2, {r0, r1, r2}
 2838              	.LVL231:
 144:Task/Task_Telemetry.c ****     // DevLED.ctl(Led3, led_state);
 2839              		.loc 1 144 5 view .LVU872
 2840 003a A047     		blx	r4
 2841              	.LVL232:
 146:Task/Task_Telemetry.c **** 
 2842              		.loc 1 146 1 view .LVU873
 2843 003c 10BD     		pop	{r4, pc}
 2844              	.L174:
 2845 003e 00BF     		.align	2
 2846              	.L173:
 2847 0040 00000000 		.word	SrvOsCommon
 2848 0044 1F85EB51 		.word	1374389535
 2849 0048 00000000 		.word	.LANCHOR8
 2850 004c 00000000 		.word	.LANCHOR9
 2851 0050 00000000 		.word	DevLED
 2852 0054 00000000 		.word	Led1
 2853              		.cfi_endproc
 2854              	.LFE2073:
 2856              		.section	.text.TaskTelemetry_Core,"ax",%progbits
 2857              		.align	1
 2858              		.global	TaskTelemetry_Core
 2859              		.syntax unified
 2860              		.thumb
 2861              		.thumb_func
 2863              	TaskTelemetry_Core:
 2864              	.LVL233:
 2865              	.LFB2075:
 154:Task/Task_Telemetry.c ****     uint32_t sys_time = SrvOsCommon.get_os_ms();
 2866              		.loc 1 154 1 is_stmt 1 view -0
 2867              		.cfi_startproc
 2868              		@ Volatile: function does not return.
 2869              		@ args = 0, pretend = 0, frame = 152
ARM GAS  C:\Users\8bit\AppData\Local\Temp\cc7otBDv.s 			page 80


 2870              		@ frame_needed = 0, uses_anonymous_args = 0
 154:Task/Task_Telemetry.c ****     uint32_t sys_time = SrvOsCommon.get_os_ms();
 2871              		.loc 1 154 1 is_stmt 0 view .LVU875
 2872 0000 00B5     		push	{lr}
 2873              	.LCFI44:
 2874              		.cfi_def_cfa_offset 4
 2875              		.cfi_offset 14, -4
 2876 0002 B5B0     		sub	sp, sp, #212
 2877              	.LCFI45:
 2878              		.cfi_def_cfa_offset 216
 155:Task/Task_Telemetry.c ****     bool upgrade_state = false;
 2879              		.loc 1 155 5 is_stmt 1 view .LVU876
 155:Task/Task_Telemetry.c ****     bool upgrade_state = false;
 2880              		.loc 1 155 36 is_stmt 0 view .LVU877
 2881 0004 304B     		ldr	r3, .L180
 2882 0006 1B68     		ldr	r3, [r3]
 155:Task/Task_Telemetry.c ****     bool upgrade_state = false;
 2883              		.loc 1 155 25 view .LVU878
 2884 0008 9847     		blx	r3
 2885              	.LVL234:
 155:Task/Task_Telemetry.c ****     bool upgrade_state = false;
 2886              		.loc 1 155 14 view .LVU879
 2887 000a 3390     		str	r0, [sp, #204]
 156:Task/Task_Telemetry.c ****     Telemetry_RCSig_TypeDef RCSig;
 2888              		.loc 1 156 5 is_stmt 1 view .LVU880
 156:Task/Task_Telemetry.c ****     Telemetry_RCSig_TypeDef RCSig;
 2889              		.loc 1 156 10 is_stmt 0 view .LVU881
 2890 000c 0021     		movs	r1, #0
 2891 000e 8DF8CB10 		strb	r1, [sp, #203]
 157:Task/Task_Telemetry.c ****     memset(&RCSig, 0, sizeof(Telemetry_RCSig_TypeDef));
 2892              		.loc 1 157 5 is_stmt 1 view .LVU882
 158:Task/Task_Telemetry.c **** 
 2893              		.loc 1 158 5 view .LVU883
 2894 0012 4422     		movs	r2, #68
 2895 0014 21A8     		add	r0, sp, #132
 2896 0016 FFF7FEFF 		bl	memset
 2897              	.LVL235:
 2898 001a 09E0     		b	.L178
 2899              	.L177:
 175:Task/Task_Telemetry.c ****         }
 2900              		.loc 1 175 13 view .LVU884
 2901 001c 2B49     		ldr	r1, .L180+4
 2902 001e 2C48     		ldr	r0, .L180+8
 2903 0020 FFF7FEFF 		bl	DataPipe_SendTo
 2904              	.LVL236:
 2905              	.L176:
 178:Task/Task_Telemetry.c ****     }
 2906              		.loc 1 178 9 view .LVU885
 178:Task/Task_Telemetry.c ****     }
 2907              		.loc 1 178 20 is_stmt 0 view .LVU886
 2908 0024 284B     		ldr	r3, .L180
 2909 0026 9B68     		ldr	r3, [r3, #8]
 178:Task/Task_Telemetry.c ****     }
 2910              		.loc 1 178 9 view .LVU887
 2911 0028 2A4A     		ldr	r2, .L180+12
 2912 002a 1168     		ldr	r1, [r2]
 2913 002c 33A8     		add	r0, sp, #204
ARM GAS  C:\Users\8bit\AppData\Local\Temp\cc7otBDv.s 			page 81


 2914 002e 9847     		blx	r3
 2915              	.LVL237:
 160:Task/Task_Telemetry.c ****     {
 2916              		.loc 1 160 10 is_stmt 1 view .LVU888
 2917              	.L178:
 160:Task/Task_Telemetry.c ****     {
 2918              		.loc 1 160 5 view .LVU889
 164:Task/Task_Telemetry.c ****         {
 2919              		.loc 1 164 9 view .LVU890
 164:Task/Task_Telemetry.c ****         {
 2920              		.loc 1 164 23 is_stmt 0 view .LVU891
 2921 0030 294B     		ldr	r3, .L180+16
 2922 0032 1B69     		ldr	r3, [r3, #16]
 164:Task/Task_Telemetry.c ****         {
 2923              		.loc 1 164 13 view .LVU892
 2924 0034 0DF1CB00 		add	r0, sp, #203
 2925 0038 9847     		blx	r3
 2926              	.LVL238:
 164:Task/Task_Telemetry.c ****         {
 2927              		.loc 1 164 12 view .LVU893
 2928 003a 0028     		cmp	r0, #0
 2929 003c F2D0     		beq	.L176
 164:Task/Task_Telemetry.c ****         {
 2930              		.loc 1 164 61 discriminator 1 view .LVU894
 2931 003e 9DF8CB30 		ldrb	r3, [sp, #203]	@ zero_extendqisi2
 164:Task/Task_Telemetry.c ****         {
 2932              		.loc 1 164 58 discriminator 1 view .LVU895
 2933 0042 002B     		cmp	r3, #0
 2934 0044 EED1     		bne	.L176
 167:Task/Task_Telemetry.c ****             Telemetry_ConvertRCData_To_ControlData(RCSig, DataPipe_DataObjAddr(Rc));
 2935              		.loc 1 167 13 is_stmt 1 view .LVU896
 167:Task/Task_Telemetry.c ****             Telemetry_ConvertRCData_To_ControlData(RCSig, DataPipe_DataObjAddr(Rc));
 2936              		.loc 1 167 21 is_stmt 0 view .LVU897
 2937 0046 254A     		ldr	r2, .L180+20
 2938 0048 2549     		ldr	r1, .L180+24
 2939 004a 0EA8     		add	r0, sp, #56
 2940 004c FFF7FEFF 		bl	Telemetry_RC_Sig_Update
 2941              	.LVL239:
 2942 0050 21AC     		add	r4, sp, #132
 2943 0052 4422     		movs	r2, #68
 2944 0054 0EA9     		add	r1, sp, #56
 2945 0056 2046     		mov	r0, r4
 2946 0058 FFF7FEFF 		bl	memcpy
 2947              	.LVL240:
 168:Task/Task_Telemetry.c **** 
 2948              		.loc 1 168 13 is_stmt 1 view .LVU898
 2949 005c 214B     		ldr	r3, .L180+28
 2950 005e 0D93     		str	r3, [sp, #52]
 2951 0060 EC46     		mov	ip, sp
 2952 0062 0DF1940E 		add	lr, sp, #148
 2953 0066 BEE80F00 		ldmia	lr!, {r0, r1, r2, r3}
 2954 006a ACE80F00 		stmia	ip!, {r0, r1, r2, r3}
 2955 006e BEE80F00 		ldmia	lr!, {r0, r1, r2, r3}
 2956 0072 ACE80F00 		stmia	ip!, {r0, r1, r2, r3}
 2957 0076 BEE80F00 		ldmia	lr!, {r0, r1, r2, r3}
 2958 007a ACE80F00 		stmia	ip!, {r0, r1, r2, r3}
 2959 007e DEF80030 		ldr	r3, [lr]
ARM GAS  C:\Users\8bit\AppData\Local\Temp\cc7otBDv.s 			page 82


 2960 0082 CCF80030 		str	r3, [ip]
 2961 0086 94E80F00 		ldm	r4, {r0, r1, r2, r3}
 2962 008a FFF7FEFF 		bl	Telemetry_ConvertRCData_To_ControlData
 2963              	.LVL241:
 170:Task/Task_Telemetry.c ****                 /* trigger blackbox */
 2964              		.loc 1 170 13 view .LVU899
 170:Task/Task_Telemetry.c ****                 /* trigger blackbox */
 2965              		.loc 1 170 17 is_stmt 0 view .LVU900
 2966 008e EC46     		mov	ip, sp
 2967 0090 0DF1940E 		add	lr, sp, #148
 2968 0094 BEE80F00 		ldmia	lr!, {r0, r1, r2, r3}
 2969 0098 ACE80F00 		stmia	ip!, {r0, r1, r2, r3}
 2970 009c BEE80F00 		ldmia	lr!, {r0, r1, r2, r3}
 2971 00a0 ACE80F00 		stmia	ip!, {r0, r1, r2, r3}
 2972 00a4 BEE80F00 		ldmia	lr!, {r0, r1, r2, r3}
 2973 00a8 ACE80F00 		stmia	ip!, {r0, r1, r2, r3}
 2974 00ac DEF80030 		ldr	r3, [lr]
 2975 00b0 CCF80030 		str	r3, [ip]
 2976 00b4 94E80F00 		ldm	r4, {r0, r1, r2, r3}
 2977 00b8 FFF7FEFF 		bl	Telemetry_BlackBox_OnChange
 2978              	.LVL242:
 170:Task/Task_Telemetry.c ****                 /* trigger blackbox */
 2979              		.loc 1 170 16 view .LVU901
 2980 00bc 0028     		cmp	r0, #0
 2981 00be ADD0     		beq	.L177
 172:Task/Task_Telemetry.c **** 
 2982              		.loc 1 172 17 is_stmt 1 view .LVU902
 2983 00c0 FFF7FEFF 		bl	TaskBlackBox_LogControl
 2984              	.LVL243:
 2985 00c4 AAE7     		b	.L177
 2986              	.L181:
 2987 00c6 00BF     		.align	2
 2988              	.L180:
 2989 00c8 00000000 		.word	SrvOsCommon
 2990 00cc 00000000 		.word	Receiver_hub_DataPipe
 2991 00d0 00000000 		.word	Receiver_Smp_DataPipe
 2992 00d4 00000000 		.word	.LANCHOR7
 2993 00d8 00000000 		.word	SrvDataHub
 2994 00dc 00000000 		.word	.LANCHOR3
 2995 00e0 24000000 		.word	.LANCHOR0+36
 2996 00e4 00000000 		.word	.LANCHOR6
 2997              		.cfi_endproc
 2998              	.LFE2075:
 3000              		.section	.Perph_Section,"aw"
 3001              		.align	2
 3002              		.set	.LANCHOR6,. + 0
 3005              	Rc_PipeDataObj:
 3006 0000 00000000 		.space	100
 3006      00000000 
 3006      00000000 
 3006      00000000 
 3006      00000000 
 3007              		.section	.bss.Lst_Rt.4,"aw",%nobits
 3008              		.align	2
 3009              		.set	.LANCHOR8,. + 0
 3012              	Lst_Rt.4:
 3013 0000 00000000 		.space	4
ARM GAS  C:\Users\8bit\AppData\Local\Temp\cc7otBDv.s 			page 83


 3014              		.section	.bss.RCData_To_Configuretor,"aw",%nobits
 3015              		.set	.LANCHOR5,. + 0
 3018              	RCData_To_Configuretor:
 3019 0000 00       		.space	1
 3020              		.section	.bss.Receiver_Obj,"aw",%nobits
 3021              		.align	2
 3022              		.set	.LANCHOR3,. + 0
 3025              	Receiver_Obj:
 3026 0000 00000000 		.space	60
 3026      00000000 
 3026      00000000 
 3026      00000000 
 3026      00000000 
 3027              		.section	.bss.TaskTelemetry_Period,"aw",%nobits
 3028              		.align	2
 3029              		.set	.LANCHOR7,. + 0
 3032              	TaskTelemetry_Period:
 3033 0000 00000000 		.space	4
 3034              		.section	.bss.Telemetry_Monitor,"aw",%nobits
 3035              		.align	2
 3036              		.set	.LANCHOR0,. + 0
 3039              	Telemetry_Monitor:
 3040 0000 00000000 		.space	380
 3040      00000000 
 3040      00000000 
 3040      00000000 
 3040      00000000 
 3041              		.section	.bss.led_state.3,"aw",%nobits
 3042              		.set	.LANCHOR9,. + 0
 3045              	led_state.3:
 3046 0000 00       		.space	1
 3047              		.section	.bss.lst_blackbox_state.0,"aw",%nobits
 3048              		.set	.LANCHOR2,. + 0
 3051              	lst_blackbox_state.0:
 3052 0000 00       		.space	1
 3053              		.section	.bss.throttle_warning.2,"aw",%nobits
 3054              		.set	.LANCHOR4,. + 0
 3057              	throttle_warning.2:
 3058 0000 00       		.space	1
 3059              		.section	.data.first_trigger.1,"aw"
 3060              		.set	.LANCHOR1,. + 0
 3063              	first_trigger.1:
 3064 0000 01       		.byte	1
 3065              		.text
 3066              	.Letext0:
 3067              		.file 3 "c:\\program files (x86)\\gnu arm embedded toolchain\\10 2021.10\\lib\\gcc\\arm-none-eabi\
 3068              		.file 4 "c:\\program files (x86)\\gnu arm embedded toolchain\\10 2021.10\\arm-none-eabi\\include\\
 3069              		.file 5 "c:\\program files (x86)\\gnu arm embedded toolchain\\10 2021.10\\arm-none-eabi\\include\\
 3070              		.file 6 "System/FreeRTOS/include/portable.h"
 3071              		.file 7 "Service/Srv_OsCommon.h"
 3072              		.file 8 "HW_Lib/AT32F435/drivers/inc/at32f435_437_tmr.h"
 3073              		.file 9 "HW_Lib/AT32F435/drivers/inc/at32f435_437_usart.h"
 3074              		.file 10 "HW_Lib/Port_Def/Bsp_GPIO_Port_Def.h"
 3075              		.file 11 "Service/control_data.h"
 3076              		.file 12 "Service/Srv_Receiver.h"
 3077              		.file 13 "DataStructure/linked_list.h"
 3078              		.file 14 "HW_Lib/AT32F435/bsp/Bsp_DMA.h"
ARM GAS  C:\Users\8bit\AppData\Local\Temp\cc7otBDv.s 			page 84


 3079              		.file 15 "Device/Dev_Led.h"
 3080              		.file 16 "common/Error_Log/../../common/gen_physic_def/imu_data.h"
 3081              		.file 17 "HW_Lib/AT32F435/PinPort_Def/CCRC_AT32_20/HW_Def.h"
 3082              		.file 18 "Device/Dev_Dshot.h"
 3083              		.file 19 "Service/Srv_DataHub.h"
 3084              		.file 20 "Task/Task_Telemetry.h"
 3085              		.file 21 "System/FreeRTOS/FreeRTOSConfig.h"
 3086              		.file 22 "<built-in>"
 3087              		.file 23 "Task/../common/util.h"
 3088              		.file 24 "Task/Task_BlackBox.h"
ARM GAS  C:\Users\8bit\AppData\Local\Temp\cc7otBDv.s 			page 85


DEFINED SYMBOLS
                            *ABS*:00000000 Task_Telemetry.c
C:\Users\8bit\AppData\Local\Temp\cc7otBDv.s:20     .text.Telemetry_Led_Control:00000000 $t
C:\Users\8bit\AppData\Local\Temp\cc7otBDv.s:25     .text.Telemetry_Led_Control:00000000 Telemetry_Led_Control
C:\Users\8bit\AppData\Local\Temp\cc7otBDv.s:56     .text.Telemetry_Led_Control:00000010 $d
C:\Users\8bit\AppData\Local\Temp\cc7otBDv.s:62     .text.Telemetry_Enable_GimbalDeadZone:00000000 $t
C:\Users\8bit\AppData\Local\Temp\cc7otBDv.s:67     .text.Telemetry_Enable_GimbalDeadZone:00000000 Telemetry_Enable_GimbalDeadZone
C:\Users\8bit\AppData\Local\Temp\cc7otBDv.s:104    .text.Telemetry_GimbalToPercent:00000000 $t
C:\Users\8bit\AppData\Local\Temp\cc7otBDv.s:109    .text.Telemetry_GimbalToPercent:00000000 Telemetry_GimbalToPercent
C:\Users\8bit\AppData\Local\Temp\cc7otBDv.s:320    .text.Telemetry_GimbalToPercent:000000e4 $d
C:\Users\8bit\AppData\Local\Temp\cc7otBDv.s:326    .text.Telemetry_SplitScopeValue_Into:00000000 $t
C:\Users\8bit\AppData\Local\Temp\cc7otBDv.s:331    .text.Telemetry_SplitScopeValue_Into:00000000 Telemetry_SplitScopeValue_Into
C:\Users\8bit\AppData\Local\Temp\cc7otBDv.s:368    .text.Telemetry_SplitScopeValue_Into:00000018 $d
C:\Users\8bit\AppData\Local\Temp\cc7otBDv.s:373    .text.Telemetry_BlackBox_OnChange:00000000 $t
C:\Users\8bit\AppData\Local\Temp\cc7otBDv.s:378    .text.Telemetry_BlackBox_OnChange:00000000 Telemetry_BlackBox_OnChange
C:\Users\8bit\AppData\Local\Temp\cc7otBDv.s:460    .text.Telemetry_BlackBox_OnChange:00000040 $d
C:\Users\8bit\AppData\Local\Temp\cc7otBDv.s:466    .text.Telemetry_RC_Sig_Init:00000000 $t
C:\Users\8bit\AppData\Local\Temp\cc7otBDv.s:471    .text.Telemetry_RC_Sig_Init:00000000 Telemetry_RC_Sig_Init
C:\Users\8bit\AppData\Local\Temp\cc7otBDv.s:582    .text.Telemetry_RC_Sig_Init:00000078 $d
C:\Users\8bit\AppData\Local\Temp\cc7otBDv.s:591    .text.Telemetry_ConvertRCData_To_ControlData:00000000 $t
C:\Users\8bit\AppData\Local\Temp\cc7otBDv.s:596    .text.Telemetry_ConvertRCData_To_ControlData:00000000 Telemetry_ConvertRCData_To_ControlData
C:\Users\8bit\AppData\Local\Temp\cc7otBDv.s:823    .text.Telemetry_ConvertRCData_To_ControlData:00000140 $d
C:\Users\8bit\AppData\Local\Temp\cc7otBDv.s:828    .text.Telemetry_BindGimbalToChannel:00000000 $t
C:\Users\8bit\AppData\Local\Temp\cc7otBDv.s:833    .text.Telemetry_BindGimbalToChannel:00000000 Telemetry_BindGimbalToChannel
C:\Users\8bit\AppData\Local\Temp\cc7otBDv.s:989    .text.Telemetry_BindGimbalToChannel:00000090 $d
C:\Users\8bit\AppData\Local\Temp\cc7otBDv.s:995    .text.Telemetry_Bind_Gimbal:00000000 $t
C:\Users\8bit\AppData\Local\Temp\cc7otBDv.s:1000   .text.Telemetry_Bind_Gimbal:00000000 Telemetry_Bind_Gimbal
C:\Users\8bit\AppData\Local\Temp\cc7otBDv.s:1218   .text.Telemetry_Bind_Gimbal:000000f4 $d
C:\Users\8bit\AppData\Local\Temp\cc7otBDv.s:1224   .text.Telemetry_BindToggleToChannel:00000000 $t
C:\Users\8bit\AppData\Local\Temp\cc7otBDv.s:1229   .text.Telemetry_BindToggleToChannel:00000000 Telemetry_BindToggleToChannel
C:\Users\8bit\AppData\Local\Temp\cc7otBDv.s:1363   .text.Telemetry_BindToggleToChannel:00000064 $d
C:\Users\8bit\AppData\Local\Temp\cc7otBDv.s:1369   .text.Telemetry_AddToggleCombo:00000000 $t
C:\Users\8bit\AppData\Local\Temp\cc7otBDv.s:1374   .text.Telemetry_AddToggleCombo:00000000 Telemetry_AddToggleCombo
C:\Users\8bit\AppData\Local\Temp\cc7otBDv.s:1535   .text.Telemetry_AddToggleCombo:0000008c $d
C:\Users\8bit\AppData\Local\Temp\cc7otBDv.s:1541   .text.Telemetry_Bind_Toggle:00000000 $t
C:\Users\8bit\AppData\Local\Temp\cc7otBDv.s:1546   .text.Telemetry_Bind_Toggle:00000000 Telemetry_Bind_Toggle
C:\Users\8bit\AppData\Local\Temp\cc7otBDv.s:1765   .text.Telemetry_Bind_Toggle:00000118 $d
C:\Users\8bit\AppData\Local\Temp\cc7otBDv.s:1771   .text.Telemetry_Bind_CalibCombo:00000000 $t
C:\Users\8bit\AppData\Local\Temp\cc7otBDv.s:1776   .text.Telemetry_Bind_CalibCombo:00000000 Telemetry_Bind_CalibCombo
C:\Users\8bit\AppData\Local\Temp\cc7otBDv.s:1880   .text.Telemetry_Bind_CalibCombo:0000007c $d
C:\Users\8bit\AppData\Local\Temp\cc7otBDv.s:1886   .text.Telemetry_Toggle_Check:00000000 $t
C:\Users\8bit\AppData\Local\Temp\cc7otBDv.s:1891   .text.Telemetry_Toggle_Check:00000000 Telemetry_Toggle_Check
C:\Users\8bit\AppData\Local\Temp\cc7otBDv.s:2058   .text.Telemetry_RC_Sig_Update:00000000 $t
C:\Users\8bit\AppData\Local\Temp\cc7otBDv.s:2063   .text.Telemetry_RC_Sig_Update:00000000 Telemetry_RC_Sig_Update
C:\Users\8bit\AppData\Local\Temp\cc7otBDv.s:2517   .text.Telemetry_RC_Sig_Update:000001f8 $d
C:\Users\8bit\AppData\Local\Temp\cc7otBDv.s:2525   .text.TaskTelemetry_Set_DataIO_Enable:00000000 $t
C:\Users\8bit\AppData\Local\Temp\cc7otBDv.s:2531   .text.TaskTelemetry_Set_DataIO_Enable:00000000 TaskTelemetry_Set_DataIO_Enable
C:\Users\8bit\AppData\Local\Temp\cc7otBDv.s:2548   .text.TaskTelemetry_Set_DataIO_Enable:00000008 $d
C:\Users\8bit\AppData\Local\Temp\cc7otBDv.s:2553   .text.TaskTelemetry_Init:00000000 $t
C:\Users\8bit\AppData\Local\Temp\cc7otBDv.s:2559   .text.TaskTelemetry_Init:00000000 TaskTelemetry_Init
C:\Users\8bit\AppData\Local\Temp\cc7otBDv.s:2763   .text.TaskTelemetry_Init:000000e4 $d
C:\Users\8bit\AppData\Local\Temp\cc7otBDv.s:2775   .text.Telemetry_blink:00000000 $t
C:\Users\8bit\AppData\Local\Temp\cc7otBDv.s:2781   .text.Telemetry_blink:00000000 Telemetry_blink
C:\Users\8bit\AppData\Local\Temp\cc7otBDv.s:2847   .text.Telemetry_blink:00000040 $d
C:\Users\8bit\AppData\Local\Temp\cc7otBDv.s:2857   .text.TaskTelemetry_Core:00000000 $t
C:\Users\8bit\AppData\Local\Temp\cc7otBDv.s:2863   .text.TaskTelemetry_Core:00000000 TaskTelemetry_Core
C:\Users\8bit\AppData\Local\Temp\cc7otBDv.s:2989   .text.TaskTelemetry_Core:000000c8 $d
ARM GAS  C:\Users\8bit\AppData\Local\Temp\cc7otBDv.s 			page 86


C:\Users\8bit\AppData\Local\Temp\cc7otBDv.s:3001   .Perph_Section:00000000 $d
C:\Users\8bit\AppData\Local\Temp\cc7otBDv.s:3005   .Perph_Section:00000000 Rc_PipeDataObj
C:\Users\8bit\AppData\Local\Temp\cc7otBDv.s:3008   .bss.Lst_Rt.4:00000000 $d
C:\Users\8bit\AppData\Local\Temp\cc7otBDv.s:3012   .bss.Lst_Rt.4:00000000 Lst_Rt.4
C:\Users\8bit\AppData\Local\Temp\cc7otBDv.s:3018   .bss.RCData_To_Configuretor:00000000 RCData_To_Configuretor
C:\Users\8bit\AppData\Local\Temp\cc7otBDv.s:3019   .bss.RCData_To_Configuretor:00000000 $d
C:\Users\8bit\AppData\Local\Temp\cc7otBDv.s:3021   .bss.Receiver_Obj:00000000 $d
C:\Users\8bit\AppData\Local\Temp\cc7otBDv.s:3025   .bss.Receiver_Obj:00000000 Receiver_Obj
C:\Users\8bit\AppData\Local\Temp\cc7otBDv.s:3028   .bss.TaskTelemetry_Period:00000000 $d
C:\Users\8bit\AppData\Local\Temp\cc7otBDv.s:3032   .bss.TaskTelemetry_Period:00000000 TaskTelemetry_Period
C:\Users\8bit\AppData\Local\Temp\cc7otBDv.s:3035   .bss.Telemetry_Monitor:00000000 $d
C:\Users\8bit\AppData\Local\Temp\cc7otBDv.s:3039   .bss.Telemetry_Monitor:00000000 Telemetry_Monitor
C:\Users\8bit\AppData\Local\Temp\cc7otBDv.s:3045   .bss.led_state.3:00000000 led_state.3
C:\Users\8bit\AppData\Local\Temp\cc7otBDv.s:3046   .bss.led_state.3:00000000 $d
C:\Users\8bit\AppData\Local\Temp\cc7otBDv.s:3051   .bss.lst_blackbox_state.0:00000000 lst_blackbox_state.0
C:\Users\8bit\AppData\Local\Temp\cc7otBDv.s:3052   .bss.lst_blackbox_state.0:00000000 $d
C:\Users\8bit\AppData\Local\Temp\cc7otBDv.s:3057   .bss.throttle_warning.2:00000000 throttle_warning.2
C:\Users\8bit\AppData\Local\Temp\cc7otBDv.s:3058   .bss.throttle_warning.2:00000000 $d
C:\Users\8bit\AppData\Local\Temp\cc7otBDv.s:3063   .data.first_trigger.1:00000000 first_trigger.1

UNDEFINED SYMBOLS
DevLED
Led1
Uart3_RxPin
Uart3_TxPin
SrvReceiver
memset
List_ItemInit
SrvOsCommon
List_Insert_Item
Get_OnSet_Bit_Num
Get_Bit_Index
memcpy
Receiver_Smp_DataPipe
DataPipe_SendTo
TaskBlackBox_LogControl
Receiver_hub_DataPipe
SrvDataHub
