ARM GAS  C:\Users\8bit\AppData\Local\Temp\ccKJxVte.s 			page 1


   1              		.cpu cortex-m4
   2              		.arch armv7e-m
   3              		.fpu fpv4-sp-d16
   4              		.eabi_attribute 27, 1
   5              		.eabi_attribute 28, 1
   6              		.eabi_attribute 20, 1
   7              		.eabi_attribute 21, 1
   8              		.eabi_attribute 23, 3
   9              		.eabi_attribute 24, 1
  10              		.eabi_attribute 25, 1
  11              		.eabi_attribute 26, 1
  12              		.eabi_attribute 30, 1
  13              		.eabi_attribute 34, 1
  14              		.eabi_attribute 18, 4
  15              		.file	"Task_Sample.c"
  16              		.text
  17              	.Ltext0:
  18              		.cfi_sections	.debug_frame
  19              		.section	.text.TaskInertical_Blink_Notification,"ax",%progbits
  20              		.align	1
  21              		.syntax unified
  22              		.thumb
  23              		.thumb_func
  25              	TaskInertical_Blink_Notification:
  26              	.LVL0:
  27              	.LFB147:
  28              		.file 1 "Task/Task_Sample.c"
   1:Task/Task_Sample.c **** #include "Task_Sample.h"
   2:Task/Task_Sample.c **** #include "debug_util.h"
   3:Task/Task_Sample.c **** #include "Srv_OsCommon.h"
   4:Task/Task_Sample.c **** #include "HW_Def.h"
   5:Task/Task_Sample.c **** #include "error_log.h"
   6:Task/Task_Sample.c **** #include "../FCHW_Config.h"
   7:Task/Task_Sample.c **** #include "../System/DataPipe/DataPipe.h"
   8:Task/Task_Sample.c **** #include "Srv_SensorMonitor.h"
   9:Task/Task_Sample.c **** #include "shell_port.h"
  10:Task/Task_Sample.c **** 
  11:Task/Task_Sample.c **** #define ToBoolStr(x) x ? "true" : "false"
  12:Task/Task_Sample.c **** #define DATAPIPE_TRANS_TIMEOUT_100Ms 100
  13:Task/Task_Sample.c **** 
  14:Task/Task_Sample.c **** #if defined MATEKH743_V1_5
  15:Task/Task_Sample.c **** #define Sample_Blinkly Led2
  16:Task/Task_Sample.c **** #elif defined BATEAT32F435_AIO || defined CCRC_AT32_20
  17:Task/Task_Sample.c **** #define Sample_Blinkly Led1
  18:Task/Task_Sample.c **** #endif
  19:Task/Task_Sample.c **** 
  20:Task/Task_Sample.c **** /* internal var */
  21:Task/Task_Sample.c **** static uint32_t TaskSample_Period = 0;
  22:Task/Task_Sample.c **** static bool sample_enable = false;
  23:Task/Task_Sample.c **** static SrvSensorMonitorObj_TypeDef SensorMonitor;
  24:Task/Task_Sample.c **** DataPipe_CreateDataObj(SrvIMU_UnionData_TypeDef, IMU_Data);
  25:Task/Task_Sample.c **** DataPipe_CreateDataObj(SrvBaro_UnionData_TypeDef, Baro_Data);
  26:Task/Task_Sample.c **** DataPipe_CreateDataObj(SrvSensorMonitor_GenReg_TypeDef, SensorEnable_State);
  27:Task/Task_Sample.c **** DataPipe_CreateDataObj(SrvSensorMonitor_GenReg_TypeDef, SensorInit_State);
  28:Task/Task_Sample.c **** DataPipe_CreateDataObj(SrvIMU_Range_TypeDef, Smp_PriIMU_Range);
  29:Task/Task_Sample.c **** #if (IMUJ_CNT == 2)
  30:Task/Task_Sample.c **** DataPipe_CreateDataObj(SrvIMU_Range_TypeDef, Smp_SecIMU_Range);
ARM GAS  C:\Users\8bit\AppData\Local\Temp\ccKJxVte.s 			page 2


  31:Task/Task_Sample.c **** #endif
  32:Task/Task_Sample.c **** 
  33:Task/Task_Sample.c **** /* internal function */
  34:Task/Task_Sample.c **** static void TaskInertical_Blink_Notification(uint16_t duration);
  35:Task/Task_Sample.c **** 
  36:Task/Task_Sample.c **** /* external function */
  37:Task/Task_Sample.c **** 
  38:Task/Task_Sample.c **** void TaskSample_Init(uint32_t period)
  39:Task/Task_Sample.c **** {
  40:Task/Task_Sample.c ****     SrvSensorMonitor_IMURange_TypeDef PriIMU_Range;
  41:Task/Task_Sample.c ****     SrvSensorMonitor_IMURange_TypeDef SecIMU_Range;
  42:Task/Task_Sample.c **** 
  43:Task/Task_Sample.c ****     memset(&PriIMU_Range, 0, sizeof(SrvSensorMonitor_IMURange_TypeDef));
  44:Task/Task_Sample.c ****     memset(&SecIMU_Range, 0, sizeof(SrvSensorMonitor_IMURange_TypeDef));
  45:Task/Task_Sample.c **** 
  46:Task/Task_Sample.c ****     memset(&SensorMonitor, 0, sizeof(SrvSensorMonitorObj_TypeDef));
  47:Task/Task_Sample.c ****     memset(&IMU_Smp_DataPipe, 0, sizeof(IMU_Smp_DataPipe));
  48:Task/Task_Sample.c ****     memset(&Baro_smp_DataPipe, 0, sizeof(Baro_smp_DataPipe));
  49:Task/Task_Sample.c **** 
  50:Task/Task_Sample.c ****     memset(DataPipe_DataObjAddr(Baro_Data), 0, DataPipe_DataSize(Baro_Data));
  51:Task/Task_Sample.c ****     memset(DataPipe_DataObjAddr(IMU_Data), 0, DataPipe_DataSize(IMU_Data));
  52:Task/Task_Sample.c **** 
  53:Task/Task_Sample.c ****     IMU_Smp_DataPipe.data_addr = (uint32_t)DataPipe_DataObjAddr(IMU_Data);
  54:Task/Task_Sample.c ****     IMU_Smp_DataPipe.data_size = DataPipe_DataSize(IMU_Data);
  55:Task/Task_Sample.c ****     DataPipe_Enable(&IMU_Smp_DataPipe);
  56:Task/Task_Sample.c ****     
  57:Task/Task_Sample.c ****     Baro_smp_DataPipe.data_addr = (uint32_t)DataPipe_DataObjAddr(Baro_Data);
  58:Task/Task_Sample.c ****     Baro_smp_DataPipe.data_size = DataPipe_DataSize(Baro_Data);
  59:Task/Task_Sample.c ****     DataPipe_Enable(&Baro_smp_DataPipe);
  60:Task/Task_Sample.c **** 
  61:Task/Task_Sample.c ****     SensorMonitor.enabled_reg.bit.imu = true;
  62:Task/Task_Sample.c ****     SensorMonitor.freq_reg.bit.imu = SrvSensorMonitor_SampleFreq_1KHz;
  63:Task/Task_Sample.c ****     
  64:Task/Task_Sample.c **** #if (BARO_SUM >= 1)
  65:Task/Task_Sample.c ****     SensorMonitor.enabled_reg.bit.baro = true;
  66:Task/Task_Sample.c ****     SensorMonitor.freq_reg.bit.baro = SrvSensorMonitor_SampleFreq_50Hz;
  67:Task/Task_Sample.c **** #endif
  68:Task/Task_Sample.c **** 
  69:Task/Task_Sample.c ****     sample_enable = SrvSensorMonitor.init(&SensorMonitor);
  70:Task/Task_Sample.c **** 
  71:Task/Task_Sample.c ****     DataPipe_DataObj(SensorEnable_State).val = SensorMonitor.enabled_reg.val;
  72:Task/Task_Sample.c ****     DataPipe_DataObj(SensorInit_State).val = SensorMonitor.init_state_reg.val;
  73:Task/Task_Sample.c ****     
  74:Task/Task_Sample.c ****     SensorEnableState_smp_DataPipe.data_addr = (uint32_t)DataPipe_DataObjAddr(SensorEnable_State);
  75:Task/Task_Sample.c ****     SensorEnableState_smp_DataPipe.data_size = DataPipe_DataSize(SensorEnable_State);
  76:Task/Task_Sample.c ****     DataPipe_Enable(&SensorEnableState_smp_DataPipe);
  77:Task/Task_Sample.c ****     
  78:Task/Task_Sample.c ****     SensorInitState_smp_DataPipe.data_addr = (uint32_t)DataPipe_DataObjAddr(SensorInit_State);
  79:Task/Task_Sample.c ****     SensorInitState_smp_DataPipe.data_size = DataPipe_DataSize(SensorInit_State);
  80:Task/Task_Sample.c ****     DataPipe_Enable(&SensorInitState_smp_DataPipe);
  81:Task/Task_Sample.c **** 
  82:Task/Task_Sample.c ****     /* pipe sensor enable and initial state to datahub */
  83:Task/Task_Sample.c ****     DataPipe_SendTo(&SensorEnableState_smp_DataPipe, &SensorEnableState_hub_DataPipe);
  84:Task/Task_Sample.c ****     DataPipe_SendTo(&SensorInitState_smp_DataPipe, &SensorInitState_hub_DataPipe);
  85:Task/Task_Sample.c **** 
  86:Task/Task_Sample.c ****     if(sample_enable)
  87:Task/Task_Sample.c ****     {
ARM GAS  C:\Users\8bit\AppData\Local\Temp\ccKJxVte.s 			page 3


  88:Task/Task_Sample.c ****         if(SrvSensorMonitor.get_imu_range(&SensorMonitor, SrvIMU_PriModule, &PriIMU_Range))
  89:Task/Task_Sample.c ****         {
  90:Task/Task_Sample.c ****             DataPipe_DataObj(Smp_PriIMU_Range).Acc = PriIMU_Range.Acc;
  91:Task/Task_Sample.c ****             DataPipe_DataObj(Smp_PriIMU_Range).Gyr = PriIMU_Range.Gyr;
  92:Task/Task_Sample.c **** 
  93:Task/Task_Sample.c ****             IMU_PriRange_Smp_DataPipe.data_addr = (uint32_t)DataPipe_DataObjAddr(Smp_PriIMU_Range);
  94:Task/Task_Sample.c ****             IMU_PriRange_Smp_DataPipe.data_size = DataPipe_DataSize(Smp_PriIMU_Range);
  95:Task/Task_Sample.c ****             DataPipe_Enable(&IMU_PriRange_Smp_DataPipe);
  96:Task/Task_Sample.c ****             
  97:Task/Task_Sample.c ****             /* pipe sensor sample range to datahub */
  98:Task/Task_Sample.c ****             DataPipe_SendTo(&IMU_PriRange_Smp_DataPipe, &IMU_PriRange_hub_DataPipe);
  99:Task/Task_Sample.c ****         }
 100:Task/Task_Sample.c **** 
 101:Task/Task_Sample.c **** #if (IMU_CNT == 2)
 102:Task/Task_Sample.c ****         if(SrvSensorMonitor.get_imu_range(&SensorMonitor, SrvIMU_SecModule, &SecIMU_Range))
 103:Task/Task_Sample.c ****         {
 104:Task/Task_Sample.c ****             DataPipe_DataObj(Smp_SecIMU_Range).Acc = SecIMU_Range.Acc;
 105:Task/Task_Sample.c ****             DataPipe_DataObj(Smp_SecIMU_Range).Gyr = SecIMU_Range.Gyr;
 106:Task/Task_Sample.c ****             
 107:Task/Task_Sample.c ****             IMU_SecRange_Smp_DataPipe.data_addr = (uint32_t)DataPipe_DataObjAddr(Smp_SecIMU_Range);
 108:Task/Task_Sample.c ****             IMU_SecRange_Smp_DataPipe.data_size = DataPipe_DataSize(Smp_SecIMU_Range);
 109:Task/Task_Sample.c ****             DataPipe_Enable(&IMU_SecRange_Smp_DataPipe);
 110:Task/Task_Sample.c ****             
 111:Task/Task_Sample.c ****             /* pipe sensor sample range to datahub */
 112:Task/Task_Sample.c ****             DataPipe_SendTo(&IMU_SecRange_Smp_DataPipe, &IMU_SecRange_hub_DataPipe);
 113:Task/Task_Sample.c ****         }
 114:Task/Task_Sample.c **** #endif
 115:Task/Task_Sample.c ****     }
 116:Task/Task_Sample.c **** 
 117:Task/Task_Sample.c ****     /* force make sensor sample task run as 1khz freq */
 118:Task/Task_Sample.c ****     TaskSample_Period = 1;
 119:Task/Task_Sample.c **** }
 120:Task/Task_Sample.c **** 
 121:Task/Task_Sample.c **** void TaskSample_Core(void const *arg)
 122:Task/Task_Sample.c **** {
 123:Task/Task_Sample.c ****     uint32_t sys_time = SrvOsCommon.get_os_ms();
 124:Task/Task_Sample.c ****     
 125:Task/Task_Sample.c ****     while(1)
 126:Task/Task_Sample.c ****     {
 127:Task/Task_Sample.c ****         TaskInertical_Blink_Notification(100);
 128:Task/Task_Sample.c **** 
 129:Task/Task_Sample.c ****         if(sample_enable && SrvSensorMonitor.sample_ctl(&SensorMonitor))
 130:Task/Task_Sample.c ****         {
 131:Task/Task_Sample.c ****             DataPipe_DataObj(IMU_Data) = SrvSensorMonitor.get_imu_data(&SensorMonitor);
 132:Task/Task_Sample.c ****             DataPipe_DataObj(Baro_Data).data = SrvSensorMonitor.get_baro_data(&SensorMonitor);
 133:Task/Task_Sample.c **** 
 134:Task/Task_Sample.c ****             /* need measurement the overhead from pipe send to pipe receive callback triggered */
 135:Task/Task_Sample.c ****             // DebugPin.ctl(Debug_PB4, true);
 136:Task/Task_Sample.c ****             /* to Log task */
 137:Task/Task_Sample.c ****             DataPipe_SendTo(&IMU_Smp_DataPipe, &IMU_Log_DataPipe);
 138:Task/Task_Sample.c ****             DataPipe_SendTo(&Baro_smp_DataPipe, &Baro_Log_DataPipe);
 139:Task/Task_Sample.c **** 
 140:Task/Task_Sample.c ****             /* to data hub */
 141:Task/Task_Sample.c ****             DataPipe_SendTo(&IMU_Smp_DataPipe, &IMU_hub_DataPipe);
 142:Task/Task_Sample.c ****             DataPipe_SendTo(&Baro_smp_DataPipe, &Baro_hub_DataPipe);
 143:Task/Task_Sample.c ****             // DebugPin.ctl(Debug_PB4, false);
 144:Task/Task_Sample.c ****         }
ARM GAS  C:\Users\8bit\AppData\Local\Temp\ccKJxVte.s 			page 4


 145:Task/Task_Sample.c ****         
 146:Task/Task_Sample.c ****         SrvOsCommon.precise_delay(&sys_time, TaskSample_Period);
 147:Task/Task_Sample.c ****     }
 148:Task/Task_Sample.c **** }
 149:Task/Task_Sample.c **** 
 150:Task/Task_Sample.c **** static void TaskInertical_Blink_Notification(uint16_t duration)
 151:Task/Task_Sample.c **** {
  29              		.loc 1 151 1 view -0
  30              		.cfi_startproc
  31              		@ args = 0, pretend = 0, frame = 0
  32              		@ frame_needed = 0, uses_anonymous_args = 0
  33              		.loc 1 151 1 is_stmt 0 view .LVU1
  34 0000 10B5     		push	{r4, lr}
  35              	.LCFI0:
  36              		.cfi_def_cfa_offset 8
  37              		.cfi_offset 4, -8
  38              		.cfi_offset 14, -4
  39 0002 0446     		mov	r4, r0
 152:Task/Task_Sample.c ****     uint32_t Rt = 0;
  40              		.loc 1 152 5 is_stmt 1 view .LVU2
  41              	.LVL1:
 153:Task/Task_Sample.c ****     static uint32_t Lst_Rt = 0;
  42              		.loc 1 153 5 view .LVU3
 154:Task/Task_Sample.c ****     static bool led_state = false;
  43              		.loc 1 154 5 view .LVU4
 155:Task/Task_Sample.c **** 
 156:Task/Task_Sample.c ****     Rt = SrvOsCommon.get_os_ms();
  44              		.loc 1 156 5 view .LVU5
  45              		.loc 1 156 21 is_stmt 0 view .LVU6
  46 0004 0D4B     		ldr	r3, .L4
  47 0006 1B68     		ldr	r3, [r3]
  48              		.loc 1 156 10 view .LVU7
  49 0008 9847     		blx	r3
  50              	.LVL2:
 157:Task/Task_Sample.c **** 
 158:Task/Task_Sample.c ****     if ((Rt % duration == 0) && (Lst_Rt != Rt))
  51              		.loc 1 158 5 is_stmt 1 view .LVU8
  52              		.loc 1 158 13 is_stmt 0 view .LVU9
  53 000a B0FBF4F3 		udiv	r3, r0, r4
  54 000e 04FB1304 		mls	r4, r4, r3, r0
  55              		.loc 1 158 8 view .LVU10
  56 0012 54B9     		cbnz	r4, .L2
  57              		.loc 1 158 41 discriminator 1 view .LVU11
  58 0014 0A4B     		ldr	r3, .L4+4
  59 0016 1B68     		ldr	r3, [r3]
  60              		.loc 1 158 30 discriminator 1 view .LVU12
  61 0018 8342     		cmp	r3, r0
  62 001a 06D0     		beq	.L2
 159:Task/Task_Sample.c ****     {
 160:Task/Task_Sample.c ****         led_state = !led_state;
  63              		.loc 1 160 9 is_stmt 1 view .LVU13
  64 001c 094A     		ldr	r2, .L4+8
  65 001e 1378     		ldrb	r3, [r2]	@ zero_extendqisi2
  66 0020 83F00103 		eor	r3, r3, #1
  67              		.loc 1 160 19 is_stmt 0 view .LVU14
  68 0024 1370     		strb	r3, [r2]
 161:Task/Task_Sample.c ****         Lst_Rt = Rt;
ARM GAS  C:\Users\8bit\AppData\Local\Temp\ccKJxVte.s 			page 5


  69              		.loc 1 161 9 is_stmt 1 view .LVU15
  70              		.loc 1 161 16 is_stmt 0 view .LVU16
  71 0026 064B     		ldr	r3, .L4+4
  72 0028 1860     		str	r0, [r3]
  73              	.L2:
 162:Task/Task_Sample.c ****     }
 163:Task/Task_Sample.c **** 
 164:Task/Task_Sample.c ****     DevLED.ctl(Sample_Blinkly, led_state);
  74              		.loc 1 164 5 is_stmt 1 view .LVU17
  75              		.loc 1 164 11 is_stmt 0 view .LVU18
  76 002a 074B     		ldr	r3, .L4+12
  77 002c 5C68     		ldr	r4, [r3, #4]
  78              		.loc 1 164 5 view .LVU19
  79 002e 074A     		ldr	r2, .L4+16
  80 0030 044B     		ldr	r3, .L4+8
  81 0032 1B78     		ldrb	r3, [r3]	@ zero_extendqisi2
  82 0034 07CA     		ldm	r2, {r0, r1, r2}
  83              	.LVL3:
  84              		.loc 1 164 5 view .LVU20
  85 0036 A047     		blx	r4
  86              	.LVL4:
 165:Task/Task_Sample.c **** }
  87              		.loc 1 165 1 view .LVU21
  88 0038 10BD     		pop	{r4, pc}
  89              	.L5:
  90 003a 00BF     		.align	2
  91              	.L4:
  92 003c 00000000 		.word	SrvOsCommon
  93 0040 00000000 		.word	.LANCHOR0
  94 0044 00000000 		.word	.LANCHOR1
  95 0048 00000000 		.word	DevLED
  96 004c 00000000 		.word	Led1
  97              		.cfi_endproc
  98              	.LFE147:
 100              		.section	.rodata.TaskSample_Get_SensorState.str1.4,"aMS",%progbits,1
 101              		.align	2
 102              	.LC0:
 103 0000 66616C73 		.ascii	"false\000"
 103      6500
 104 0006 0000     		.align	2
 105              	.LC1:
 106 0008 74727565 		.ascii	"true\000"
 106      00
 107 000d 000000   		.align	2
 108              	.LC2:
 109 0010 4261726F 		.ascii	"Baro enable state: %s\015\012\000"
 109      20656E61 
 109      626C6520 
 109      73746174 
 109      653A2025 
 110              		.align	2
 111              	.LC3:
 112 0028 494D5520 		.ascii	"IMU  enable state: %s\015\012\000"
 112      20656E61 
 112      626C6520 
 112      73746174 
 112      653A2025 
ARM GAS  C:\Users\8bit\AppData\Local\Temp\ccKJxVte.s 			page 6


 113              		.align	2
 114              	.LC4:
 115 0040 4D616720 		.ascii	"Mag  enable state: %s\015\012\000"
 115      20656E61 
 115      626C6520 
 115      73746174 
 115      653A2025 
 116              		.align	2
 117              	.LC5:
 118 0058 466C6F77 		.ascii	"Flow enable state: %s\015\012\000"
 118      20656E61 
 118      626C6520 
 118      73746174 
 118      653A2025 
 119              		.align	2
 120              	.LC6:
 121 0070 2D2D2D2D 		.ascii	"---------------------------\015\012\000"
 121      2D2D2D2D 
 121      2D2D2D2D 
 121      2D2D2D2D 
 121      2D2D2D2D 
 122 008e 0000     		.align	2
 123              	.LC7:
 124 0090 4261726F 		.ascii	"Baro init   state: %s\015\012\000"
 124      20696E69 
 124      74202020 
 124      73746174 
 124      653A2025 
 125              		.align	2
 126              	.LC8:
 127 00a8 494D5520 		.ascii	"IMU  init   state: %s\015\012\000"
 127      20696E69 
 127      74202020 
 127      73746174 
 127      653A2025 
 128              		.align	2
 129              	.LC9:
 130 00c0 4D616720 		.ascii	"Mag  init   state: %s\015\012\000"
 130      20696E69 
 130      74202020 
 130      73746174 
 130      653A2025 
 131              		.align	2
 132              	.LC10:
 133 00d8 466C6F77 		.ascii	"Flow init   state: %s\015\012\000"
 133      20696E69 
 133      74202020 
 133      73746174 
 133      653A2025 
 134              		.section	.text.TaskSample_Get_SensorState,"ax",%progbits
 135              		.align	1
 136              		.syntax unified
 137              		.thumb
 138              		.thumb_func
 140              	TaskSample_Get_SensorState:
 141              	.LFB148:
 166:Task/Task_Sample.c **** 
ARM GAS  C:\Users\8bit\AppData\Local\Temp\ccKJxVte.s 			page 7


 167:Task/Task_Sample.c **** static void TaskSample_Get_SensorState(void)
 168:Task/Task_Sample.c **** {
 142              		.loc 1 168 1 is_stmt 1 view -0
 143              		.cfi_startproc
 144              		@ args = 0, pretend = 0, frame = 0
 145              		@ frame_needed = 0, uses_anonymous_args = 0
 146 0000 10B5     		push	{r4, lr}
 147              	.LCFI1:
 148              		.cfi_def_cfa_offset 8
 149              		.cfi_offset 4, -8
 150              		.cfi_offset 14, -4
 169:Task/Task_Sample.c ****     Shell *shell_obj = Shell_GetInstence();
 151              		.loc 1 169 5 view .LVU23
 152              		.loc 1 169 24 is_stmt 0 view .LVU24
 153 0002 FFF7FEFF 		bl	Shell_GetInstence
 154              	.LVL5:
 170:Task/Task_Sample.c **** 
 171:Task/Task_Sample.c ****     if (shell_obj == NULL)
 155              		.loc 1 171 5 is_stmt 1 view .LVU25
 156              		.loc 1 171 8 is_stmt 0 view .LVU26
 157 0006 0028     		cmp	r0, #0
 158 0008 54D0     		beq	.L6
 159 000a 0446     		mov	r4, r0
 172:Task/Task_Sample.c ****         return;
 173:Task/Task_Sample.c **** 
 174:Task/Task_Sample.c ****     shellPrint(shell_obj, "Baro enable state: %s\r\n", ToBoolStr(SensorMonitor.enabled_reg.bit.baro
 160              		.loc 1 174 5 is_stmt 1 view .LVU27
 161              		.loc 1 174 56 is_stmt 0 view .LVU28
 162 000c 324B     		ldr	r3, .L25
 163 000e 1B78     		ldrb	r3, [r3]	@ zero_extendqisi2
 164              		.loc 1 174 5 view .LVU29
 165 0010 13F0040F 		tst	r3, #4
 166 0014 4FD0     		beq	.L16
 167 0016 314A     		ldr	r2, .L25+4
 168              	.L8:
 169              		.loc 1 174 5 discriminator 4 view .LVU30
 170 0018 3149     		ldr	r1, .L25+8
 171 001a 2046     		mov	r0, r4
 172              	.LVL6:
 173              		.loc 1 174 5 discriminator 4 view .LVU31
 174 001c FFF7FEFF 		bl	shellPrint
 175              	.LVL7:
 175:Task/Task_Sample.c ****     shellPrint(shell_obj, "IMU  enable state: %s\r\n", ToBoolStr(SensorMonitor.enabled_reg.bit.imu)
 176              		.loc 1 175 5 is_stmt 1 discriminator 4 view .LVU32
 177              		.loc 1 175 56 is_stmt 0 discriminator 4 view .LVU33
 178 0020 2D4B     		ldr	r3, .L25
 179 0022 1B78     		ldrb	r3, [r3]	@ zero_extendqisi2
 180              		.loc 1 175 5 discriminator 4 view .LVU34
 181 0024 13F0010F 		tst	r3, #1
 182 0028 47D0     		beq	.L17
 183              		.loc 1 175 5 view .LVU35
 184 002a 2C4A     		ldr	r2, .L25+4
 185              	.L9:
 186              		.loc 1 175 5 discriminator 4 view .LVU36
 187 002c 2D49     		ldr	r1, .L25+12
 188 002e 2046     		mov	r0, r4
 189 0030 FFF7FEFF 		bl	shellPrint
ARM GAS  C:\Users\8bit\AppData\Local\Temp\ccKJxVte.s 			page 8


 190              	.LVL8:
 176:Task/Task_Sample.c ****     shellPrint(shell_obj, "Mag  enable state: %s\r\n", ToBoolStr(SensorMonitor.enabled_reg.bit.mag)
 191              		.loc 1 176 5 is_stmt 1 discriminator 4 view .LVU37
 192              		.loc 1 176 56 is_stmt 0 discriminator 4 view .LVU38
 193 0034 284B     		ldr	r3, .L25
 194 0036 1B78     		ldrb	r3, [r3]	@ zero_extendqisi2
 195              		.loc 1 176 5 discriminator 4 view .LVU39
 196 0038 13F0020F 		tst	r3, #2
 197 003c 3FD0     		beq	.L18
 198              		.loc 1 176 5 view .LVU40
 199 003e 274A     		ldr	r2, .L25+4
 200              	.L10:
 201              		.loc 1 176 5 discriminator 4 view .LVU41
 202 0040 2949     		ldr	r1, .L25+16
 203 0042 2046     		mov	r0, r4
 204 0044 FFF7FEFF 		bl	shellPrint
 205              	.LVL9:
 177:Task/Task_Sample.c ****     shellPrint(shell_obj, "Flow enable state: %s\r\n", ToBoolStr(SensorMonitor.enabled_reg.bit.flow
 206              		.loc 1 177 5 is_stmt 1 discriminator 4 view .LVU42
 207              		.loc 1 177 56 is_stmt 0 discriminator 4 view .LVU43
 208 0048 234B     		ldr	r3, .L25
 209 004a 1B78     		ldrb	r3, [r3]	@ zero_extendqisi2
 210              		.loc 1 177 5 discriminator 4 view .LVU44
 211 004c 13F0080F 		tst	r3, #8
 212 0050 37D0     		beq	.L19
 213              		.loc 1 177 5 view .LVU45
 214 0052 224A     		ldr	r2, .L25+4
 215              	.L11:
 216              		.loc 1 177 5 discriminator 4 view .LVU46
 217 0054 2549     		ldr	r1, .L25+20
 218 0056 2046     		mov	r0, r4
 219 0058 FFF7FEFF 		bl	shellPrint
 220              	.LVL10:
 178:Task/Task_Sample.c ****     shellPrint(shell_obj, "---------------------------\r\n");
 221              		.loc 1 178 5 is_stmt 1 discriminator 4 view .LVU47
 222 005c 2449     		ldr	r1, .L25+24
 223 005e 2046     		mov	r0, r4
 224 0060 FFF7FEFF 		bl	shellPrint
 225              	.LVL11:
 179:Task/Task_Sample.c ****     shellPrint(shell_obj, "Baro init   state: %s\r\n", ToBoolStr(SensorMonitor.init_state_reg.bit.b
 226              		.loc 1 179 5 discriminator 4 view .LVU48
 227              		.loc 1 179 56 is_stmt 0 discriminator 4 view .LVU49
 228 0064 1C4B     		ldr	r3, .L25
 229 0066 1B79     		ldrb	r3, [r3, #4]	@ zero_extendqisi2
 230              		.loc 1 179 5 discriminator 4 view .LVU50
 231 0068 13F0040F 		tst	r3, #4
 232 006c 2BD0     		beq	.L20
 233              		.loc 1 179 5 view .LVU51
 234 006e 1B4A     		ldr	r2, .L25+4
 235              	.L12:
 236              		.loc 1 179 5 discriminator 4 view .LVU52
 237 0070 2049     		ldr	r1, .L25+28
 238 0072 2046     		mov	r0, r4
 239 0074 FFF7FEFF 		bl	shellPrint
 240              	.LVL12:
 180:Task/Task_Sample.c ****     shellPrint(shell_obj, "IMU  init   state: %s\r\n", ToBoolStr(SensorMonitor.init_state_reg.bit.i
 241              		.loc 1 180 5 is_stmt 1 discriminator 4 view .LVU53
ARM GAS  C:\Users\8bit\AppData\Local\Temp\ccKJxVte.s 			page 9


 242              		.loc 1 180 56 is_stmt 0 discriminator 4 view .LVU54
 243 0078 174B     		ldr	r3, .L25
 244 007a 1B79     		ldrb	r3, [r3, #4]	@ zero_extendqisi2
 245              		.loc 1 180 5 discriminator 4 view .LVU55
 246 007c 13F0010F 		tst	r3, #1
 247 0080 23D0     		beq	.L21
 248              		.loc 1 180 5 view .LVU56
 249 0082 164A     		ldr	r2, .L25+4
 250              	.L13:
 251              		.loc 1 180 5 discriminator 4 view .LVU57
 252 0084 1C49     		ldr	r1, .L25+32
 253 0086 2046     		mov	r0, r4
 254 0088 FFF7FEFF 		bl	shellPrint
 255              	.LVL13:
 181:Task/Task_Sample.c ****     shellPrint(shell_obj, "Mag  init   state: %s\r\n", ToBoolStr(SensorMonitor.init_state_reg.bit.m
 256              		.loc 1 181 5 is_stmt 1 discriminator 4 view .LVU58
 257              		.loc 1 181 56 is_stmt 0 discriminator 4 view .LVU59
 258 008c 124B     		ldr	r3, .L25
 259 008e 1B79     		ldrb	r3, [r3, #4]	@ zero_extendqisi2
 260              		.loc 1 181 5 discriminator 4 view .LVU60
 261 0090 13F0020F 		tst	r3, #2
 262 0094 1BD0     		beq	.L22
 263              		.loc 1 181 5 view .LVU61
 264 0096 114A     		ldr	r2, .L25+4
 265              	.L14:
 266              		.loc 1 181 5 discriminator 4 view .LVU62
 267 0098 1849     		ldr	r1, .L25+36
 268 009a 2046     		mov	r0, r4
 269 009c FFF7FEFF 		bl	shellPrint
 270              	.LVL14:
 182:Task/Task_Sample.c ****     shellPrint(shell_obj, "Flow init   state: %s\r\n", ToBoolStr(SensorMonitor.init_state_reg.bit.f
 271              		.loc 1 182 5 is_stmt 1 discriminator 4 view .LVU63
 272              		.loc 1 182 56 is_stmt 0 discriminator 4 view .LVU64
 273 00a0 0D4B     		ldr	r3, .L25
 274 00a2 1B79     		ldrb	r3, [r3, #4]	@ zero_extendqisi2
 275              		.loc 1 182 5 discriminator 4 view .LVU65
 276 00a4 13F0080F 		tst	r3, #8
 277 00a8 13D0     		beq	.L23
 278              		.loc 1 182 5 view .LVU66
 279 00aa 0C4A     		ldr	r2, .L25+4
 280              	.L15:
 281              		.loc 1 182 5 discriminator 4 view .LVU67
 282 00ac 1449     		ldr	r1, .L25+40
 283 00ae 2046     		mov	r0, r4
 284 00b0 FFF7FEFF 		bl	shellPrint
 285              	.LVL15:
 286              	.L6:
 183:Task/Task_Sample.c **** }
 287              		.loc 1 183 1 view .LVU68
 288 00b4 10BD     		pop	{r4, pc}
 289              	.LVL16:
 290              	.L16:
 174:Task/Task_Sample.c ****     shellPrint(shell_obj, "IMU  enable state: %s\r\n", ToBoolStr(SensorMonitor.enabled_reg.bit.imu)
 291              		.loc 1 174 5 view .LVU69
 292 00b6 134A     		ldr	r2, .L25+44
 293 00b8 AEE7     		b	.L8
 294              	.LVL17:
ARM GAS  C:\Users\8bit\AppData\Local\Temp\ccKJxVte.s 			page 10


 295              	.L17:
 175:Task/Task_Sample.c ****     shellPrint(shell_obj, "Mag  enable state: %s\r\n", ToBoolStr(SensorMonitor.enabled_reg.bit.mag)
 296              		.loc 1 175 5 view .LVU70
 297 00ba 124A     		ldr	r2, .L25+44
 298 00bc B6E7     		b	.L9
 299              	.L18:
 176:Task/Task_Sample.c ****     shellPrint(shell_obj, "Flow enable state: %s\r\n", ToBoolStr(SensorMonitor.enabled_reg.bit.flow
 300              		.loc 1 176 5 view .LVU71
 301 00be 114A     		ldr	r2, .L25+44
 302 00c0 BEE7     		b	.L10
 303              	.L19:
 177:Task/Task_Sample.c ****     shellPrint(shell_obj, "---------------------------\r\n");
 304              		.loc 1 177 5 view .LVU72
 305 00c2 104A     		ldr	r2, .L25+44
 306 00c4 C6E7     		b	.L11
 307              	.L20:
 179:Task/Task_Sample.c ****     shellPrint(shell_obj, "IMU  init   state: %s\r\n", ToBoolStr(SensorMonitor.init_state_reg.bit.i
 308              		.loc 1 179 5 view .LVU73
 309 00c6 0F4A     		ldr	r2, .L25+44
 310 00c8 D2E7     		b	.L12
 311              	.L21:
 180:Task/Task_Sample.c ****     shellPrint(shell_obj, "Mag  init   state: %s\r\n", ToBoolStr(SensorMonitor.init_state_reg.bit.m
 312              		.loc 1 180 5 view .LVU74
 313 00ca 0E4A     		ldr	r2, .L25+44
 314 00cc DAE7     		b	.L13
 315              	.L22:
 181:Task/Task_Sample.c ****     shellPrint(shell_obj, "Flow init   state: %s\r\n", ToBoolStr(SensorMonitor.init_state_reg.bit.f
 316              		.loc 1 181 5 view .LVU75
 317 00ce 0D4A     		ldr	r2, .L25+44
 318 00d0 E2E7     		b	.L14
 319              	.L23:
 182:Task/Task_Sample.c **** }
 320              		.loc 1 182 5 view .LVU76
 321 00d2 0C4A     		ldr	r2, .L25+44
 322 00d4 EAE7     		b	.L15
 323              	.L26:
 324 00d6 00BF     		.align	2
 325              	.L25:
 326 00d8 00000000 		.word	.LANCHOR2
 327 00dc 08000000 		.word	.LC1
 328 00e0 10000000 		.word	.LC2
 329 00e4 28000000 		.word	.LC3
 330 00e8 40000000 		.word	.LC4
 331 00ec 58000000 		.word	.LC5
 332 00f0 70000000 		.word	.LC6
 333 00f4 90000000 		.word	.LC7
 334 00f8 A8000000 		.word	.LC8
 335 00fc C0000000 		.word	.LC9
 336 0100 D8000000 		.word	.LC10
 337 0104 00000000 		.word	.LC0
 338              		.cfi_endproc
 339              	.LFE148:
 341              		.section	.text.TaskSample_Init,"ax",%progbits
 342              		.align	1
 343              		.global	TaskSample_Init
 344              		.syntax unified
 345              		.thumb
ARM GAS  C:\Users\8bit\AppData\Local\Temp\ccKJxVte.s 			page 11


 346              		.thumb_func
 348              	TaskSample_Init:
 349              	.LVL18:
 350              	.LFB145:
  39:Task/Task_Sample.c ****     SrvSensorMonitor_IMURange_TypeDef PriIMU_Range;
 351              		.loc 1 39 1 is_stmt 1 view -0
 352              		.cfi_startproc
 353              		@ args = 0, pretend = 0, frame = 8
 354              		@ frame_needed = 0, uses_anonymous_args = 0
  39:Task/Task_Sample.c ****     SrvSensorMonitor_IMURange_TypeDef PriIMU_Range;
 355              		.loc 1 39 1 is_stmt 0 view .LVU78
 356 0000 2DE9F043 		push	{r4, r5, r6, r7, r8, r9, lr}
 357              	.LCFI2:
 358              		.cfi_def_cfa_offset 28
 359              		.cfi_offset 4, -28
 360              		.cfi_offset 5, -24
 361              		.cfi_offset 6, -20
 362              		.cfi_offset 7, -16
 363              		.cfi_offset 8, -12
 364              		.cfi_offset 9, -8
 365              		.cfi_offset 14, -4
 366 0004 83B0     		sub	sp, sp, #12
 367              	.LCFI3:
 368              		.cfi_def_cfa_offset 40
  40:Task/Task_Sample.c ****     SrvSensorMonitor_IMURange_TypeDef SecIMU_Range;
 369              		.loc 1 40 5 is_stmt 1 view .LVU79
  41:Task/Task_Sample.c **** 
 370              		.loc 1 41 5 view .LVU80
  43:Task/Task_Sample.c ****     memset(&SecIMU_Range, 0, sizeof(SrvSensorMonitor_IMURange_TypeDef));
 371              		.loc 1 43 5 view .LVU81
 372 0006 0024     		movs	r4, #0
 373 0008 0194     		str	r4, [sp, #4]
  44:Task/Task_Sample.c **** 
 374              		.loc 1 44 5 view .LVU82
 375 000a 0094     		str	r4, [sp]
  46:Task/Task_Sample.c ****     memset(&IMU_Smp_DataPipe, 0, sizeof(IMU_Smp_DataPipe));
 376              		.loc 1 46 5 view .LVU83
 377 000c 454E     		ldr	r6, .L31
 378 000e A022     		movs	r2, #160
 379 0010 2146     		mov	r1, r4
 380 0012 3046     		mov	r0, r6
 381              	.LVL19:
  46:Task/Task_Sample.c ****     memset(&IMU_Smp_DataPipe, 0, sizeof(IMU_Smp_DataPipe));
 382              		.loc 1 46 5 is_stmt 0 view .LVU84
 383 0014 FFF7FEFF 		bl	memset
 384              	.LVL20:
  47:Task/Task_Sample.c ****     memset(&Baro_smp_DataPipe, 0, sizeof(Baro_smp_DataPipe));
 385              		.loc 1 47 5 is_stmt 1 view .LVU85
 386 0018 DFF83891 		ldr	r9, .L31+48
 387 001c 2725     		movs	r5, #39
 388 001e 2A46     		mov	r2, r5
 389 0020 2146     		mov	r1, r4
 390 0022 4846     		mov	r0, r9
 391 0024 FFF7FEFF 		bl	memset
 392              	.LVL21:
  48:Task/Task_Sample.c **** 
 393              		.loc 1 48 5 view .LVU86
ARM GAS  C:\Users\8bit\AppData\Local\Temp\ccKJxVte.s 			page 12


 394 0028 3F4F     		ldr	r7, .L31+4
 395 002a 2A46     		mov	r2, r5
 396 002c 2146     		mov	r1, r4
 397 002e 3846     		mov	r0, r7
 398 0030 FFF7FEFF 		bl	memset
 399              	.LVL22:
  50:Task/Task_Sample.c ****     memset(DataPipe_DataObjAddr(IMU_Data), 0, DataPipe_DataSize(IMU_Data));
 400              		.loc 1 50 5 view .LVU87
 401 0034 3D4D     		ldr	r5, .L31+8
 402 0036 2C60     		str	r4, [r5]
 403 0038 6C60     		str	r4, [r5, #4]
 404 003a AC60     		str	r4, [r5, #8]
 405 003c EC60     		str	r4, [r5, #12]
 406 003e 2C61     		str	r4, [r5, #16]
 407 0040 6C61     		str	r4, [r5, #20]
 408 0042 AC61     		str	r4, [r5, #24]
  51:Task/Task_Sample.c **** 
 409              		.loc 1 51 5 view .LVU88
 410 0044 05F11C08 		add	r8, r5, #28
 411 0048 5422     		movs	r2, #84
 412 004a 2146     		mov	r1, r4
 413 004c 4046     		mov	r0, r8
 414 004e FFF7FEFF 		bl	memset
 415              	.LVL23:
  53:Task/Task_Sample.c ****     IMU_Smp_DataPipe.data_size = DataPipe_DataSize(IMU_Data);
 416              		.loc 1 53 5 view .LVU89
  53:Task/Task_Sample.c ****     IMU_Smp_DataPipe.data_size = DataPipe_DataSize(IMU_Data);
 417              		.loc 1 53 32 is_stmt 0 view .LVU90
 418 0052 C9F80D80 		str	r8, [r9, #13]	@ unaligned
  54:Task/Task_Sample.c ****     DataPipe_Enable(&IMU_Smp_DataPipe);
 419              		.loc 1 54 5 is_stmt 1 view .LVU91
  54:Task/Task_Sample.c ****     DataPipe_Enable(&IMU_Smp_DataPipe);
 420              		.loc 1 54 32 is_stmt 0 view .LVU92
 421 0056 5423     		movs	r3, #84
 422 0058 89F81130 		strb	r3, [r9, #17]
 423 005c 89F81240 		strb	r4, [r9, #18]
  55:Task/Task_Sample.c ****     
 424              		.loc 1 55 5 is_stmt 1 view .LVU93
 425              	.LVL24:
 426              	.LBB12:
 427              	.LBI12:
 428              		.file 2 "Task/../System/DataPipe/DataPipe.h"
   1:Task/../System/DataPipe/DataPipe.h **** #ifndef __DATAPIPE_H
   2:Task/../System/DataPipe/DataPipe.h **** #define __DATAPIPE_H
   3:Task/../System/DataPipe/DataPipe.h **** 
   4:Task/../System/DataPipe/DataPipe.h **** #ifdef __cplusplus
   5:Task/../System/DataPipe/DataPipe.h **** extern "C" {
   6:Task/../System/DataPipe/DataPipe.h **** #endif
   7:Task/../System/DataPipe/DataPipe.h **** 
   8:Task/../System/DataPipe/DataPipe.h **** #include <stdint.h>
   9:Task/../System/DataPipe/DataPipe.h **** #include <string.h>
  10:Task/../System/DataPipe/DataPipe.h **** #include <stdbool.h>
  11:Task/../System/DataPipe/DataPipe.h **** 
  12:Task/../System/DataPipe/DataPipe.h **** typedef void (*Pipe_TransFinish_Callback)(void *pipe_obj);
  13:Task/../System/DataPipe/DataPipe.h **** typedef void (*Pipe_TransError_Callback)(void *pipe_obj);
  14:Task/../System/DataPipe/DataPipe.h **** typedef void (*Pipe_TimeOutProc_Callback)(void *pipe_obj);
  15:Task/../System/DataPipe/DataPipe.h **** 
ARM GAS  C:\Users\8bit\AppData\Local\Temp\ccKJxVte.s 			page 13


  16:Task/../System/DataPipe/DataPipe.h **** #define DataPipeHandleToObj(x) ((DataPipeObj_TypeDef *)x)
  17:Task/../System/DataPipe/DataPipe.h **** #define DataPipe_CreateDataObj(type, name) static type name##_##PipeDataObj __attribute__((section(
  18:Task/../System/DataPipe/DataPipe.h **** #define DataPipe_DataObjAddr(name) (&name##_##PipeDataObj)
  19:Task/../System/DataPipe/DataPipe.h **** #define DataPipe_DataObj(name) name##_##PipeDataObj
  20:Task/../System/DataPipe/DataPipe.h **** #define DataPipe_DataSize(name) sizeof(name##_##PipeDataObj)
  21:Task/../System/DataPipe/DataPipe.h **** 
  22:Task/../System/DataPipe/DataPipe.h **** typedef enum
  23:Task/../System/DataPipe/DataPipe.h **** {
  24:Task/../System/DataPipe/DataPipe.h ****     Pipe_UnReady = 0,
  25:Task/../System/DataPipe/DataPipe.h ****     Pipe_Ready,
  26:Task/../System/DataPipe/DataPipe.h ****     Pipe_Busy,
  27:Task/../System/DataPipe/DataPipe.h ****     Pipe_Error,
  28:Task/../System/DataPipe/DataPipe.h **** } DataPipe_State_List;
  29:Task/../System/DataPipe/DataPipe.h **** 
  30:Task/../System/DataPipe/DataPipe.h **** #pragma pack(1)
  31:Task/../System/DataPipe/DataPipe.h **** typedef struct
  32:Task/../System/DataPipe/DataPipe.h **** {
  33:Task/../System/DataPipe/DataPipe.h ****     uint32_t min_rx_interval;
  34:Task/../System/DataPipe/DataPipe.h ****     uint32_t detect_interval;
  35:Task/../System/DataPipe/DataPipe.h ****     uint32_t rx_ms_rt;
  36:Task/../System/DataPipe/DataPipe.h **** 
  37:Task/../System/DataPipe/DataPipe.h ****     bool enable;
  38:Task/../System/DataPipe/DataPipe.h **** 
  39:Task/../System/DataPipe/DataPipe.h ****     uint32_t data_addr;
  40:Task/../System/DataPipe/DataPipe.h ****     uint16_t data_size;
  41:Task/../System/DataPipe/DataPipe.h **** 
  42:Task/../System/DataPipe/DataPipe.h ****     Pipe_TransFinish_Callback trans_finish_cb;
  43:Task/../System/DataPipe/DataPipe.h ****     Pipe_TransError_Callback trans_error_cb;
  44:Task/../System/DataPipe/DataPipe.h **** 
  45:Task/../System/DataPipe/DataPipe.h ****     uint32_t tx_cnt;
  46:Task/../System/DataPipe/DataPipe.h ****     uint32_t rx_cnt;
  47:Task/../System/DataPipe/DataPipe.h ****     uint32_t er_cnt;
  48:Task/../System/DataPipe/DataPipe.h **** } DataPipeObj_TypeDef;
  49:Task/../System/DataPipe/DataPipe.h **** #pragma pack()
  50:Task/../System/DataPipe/DataPipe.h **** 
  51:Task/../System/DataPipe/DataPipe.h **** typedef struct
  52:Task/../System/DataPipe/DataPipe.h **** {
  53:Task/../System/DataPipe/DataPipe.h ****     DataPipeObj_TypeDef *org;
  54:Task/../System/DataPipe/DataPipe.h ****     DataPipeObj_TypeDef *dst;
  55:Task/../System/DataPipe/DataPipe.h **** } Data_PlugedPipeObj_TypeDef;
  56:Task/../System/DataPipe/DataPipe.h **** 
  57:Task/../System/DataPipe/DataPipe.h **** bool DataPipe_Init(void);
  58:Task/../System/DataPipe/DataPipe.h **** bool DataPipe_DeInit(void);
  59:Task/../System/DataPipe/DataPipe.h **** bool DataPipe_SendTo(DataPipeObj_TypeDef *p_org, DataPipeObj_TypeDef *p_dst);
  60:Task/../System/DataPipe/DataPipe.h **** bool DataPipe_DealError(void);
  61:Task/../System/DataPipe/DataPipe.h **** 
  62:Task/../System/DataPipe/DataPipe.h **** inline bool DataPipe_Enable(DataPipeObj_TypeDef *obj)
 429              		.loc 2 62 13 view .LVU94
 430              	.LBB13:
  63:Task/../System/DataPipe/DataPipe.h **** {
  64:Task/../System/DataPipe/DataPipe.h ****     if (obj == NULL)
 431              		.loc 2 64 5 view .LVU95
  65:Task/../System/DataPipe/DataPipe.h ****         return false;
  66:Task/../System/DataPipe/DataPipe.h **** 
  67:Task/../System/DataPipe/DataPipe.h ****     obj->enable = true;
 432              		.loc 2 67 5 view .LVU96
 433              		.loc 2 67 17 is_stmt 0 view .LVU97
ARM GAS  C:\Users\8bit\AppData\Local\Temp\ccKJxVte.s 			page 14


 434 0060 4FF00108 		mov	r8, #1
 435 0064 89F80C80 		strb	r8, [r9, #12]
  68:Task/../System/DataPipe/DataPipe.h **** 
  69:Task/../System/DataPipe/DataPipe.h ****     return true;
 436              		.loc 2 69 5 is_stmt 1 view .LVU98
 437              	.LVL25:
 438              		.loc 2 69 5 is_stmt 0 view .LVU99
 439              	.LBE13:
 440              	.LBE12:
  57:Task/Task_Sample.c ****     Baro_smp_DataPipe.data_size = DataPipe_DataSize(Baro_Data);
 441              		.loc 1 57 5 is_stmt 1 view .LVU100
  57:Task/Task_Sample.c ****     Baro_smp_DataPipe.data_size = DataPipe_DataSize(Baro_Data);
 442              		.loc 1 57 33 is_stmt 0 view .LVU101
 443 0068 C7F80D50 		str	r5, [r7, #13]	@ unaligned
  58:Task/Task_Sample.c ****     DataPipe_Enable(&Baro_smp_DataPipe);
 444              		.loc 1 58 5 is_stmt 1 view .LVU102
  58:Task/Task_Sample.c ****     DataPipe_Enable(&Baro_smp_DataPipe);
 445              		.loc 1 58 33 is_stmt 0 view .LVU103
 446 006c 1C23     		movs	r3, #28
 447 006e 7B74     		strb	r3, [r7, #17]
 448 0070 BC74     		strb	r4, [r7, #18]
  59:Task/Task_Sample.c **** 
 449              		.loc 1 59 5 is_stmt 1 view .LVU104
 450              	.LVL26:
 451              	.LBB14:
 452              	.LBI14:
  62:Task/../System/DataPipe/DataPipe.h **** {
 453              		.loc 2 62 13 view .LVU105
 454              	.LBB15:
  64:Task/../System/DataPipe/DataPipe.h ****         return false;
 455              		.loc 2 64 5 view .LVU106
  67:Task/../System/DataPipe/DataPipe.h **** 
 456              		.loc 2 67 5 view .LVU107
  67:Task/../System/DataPipe/DataPipe.h **** 
 457              		.loc 2 67 17 is_stmt 0 view .LVU108
 458 0072 87F80C80 		strb	r8, [r7, #12]
 459              		.loc 2 69 5 is_stmt 1 view .LVU109
 460              	.LVL27:
 461              		.loc 2 69 5 is_stmt 0 view .LVU110
 462              	.LBE15:
 463              	.LBE14:
  61:Task/Task_Sample.c ****     SensorMonitor.freq_reg.bit.imu = SrvSensorMonitor_SampleFreq_1KHz;
 464              		.loc 1 61 5 is_stmt 1 view .LVU111
  61:Task/Task_Sample.c ****     SensorMonitor.freq_reg.bit.imu = SrvSensorMonitor_SampleFreq_1KHz;
 465              		.loc 1 61 39 is_stmt 0 view .LVU112
 466 0076 3378     		ldrb	r3, [r6]	@ zero_extendqisi2
 467 0078 43EA0803 		orr	r3, r3, r8
 468 007c 3370     		strb	r3, [r6]
  62:Task/Task_Sample.c ****     
 469              		.loc 1 62 5 is_stmt 1 view .LVU113
  65:Task/Task_Sample.c ****     SensorMonitor.freq_reg.bit.baro = SrvSensorMonitor_SampleFreq_50Hz;
 470              		.loc 1 65 5 view .LVU114
  65:Task/Task_Sample.c ****     SensorMonitor.freq_reg.bit.baro = SrvSensorMonitor_SampleFreq_50Hz;
 471              		.loc 1 65 40 is_stmt 0 view .LVU115
 472 007e DBB2     		uxtb	r3, r3
 473 0080 43F00403 		orr	r3, r3, #4
 474 0084 3370     		strb	r3, [r6]
ARM GAS  C:\Users\8bit\AppData\Local\Temp\ccKJxVte.s 			page 15


  66:Task/Task_Sample.c **** #endif
 475              		.loc 1 66 5 is_stmt 1 view .LVU116
  66:Task/Task_Sample.c **** #endif
 476              		.loc 1 66 37 is_stmt 0 view .LVU117
 477 0086 737A     		ldrb	r3, [r6, #9]	@ zero_extendqisi2
 478 0088 0522     		movs	r2, #5
 479 008a 62F30303 		bfi	r3, r2, #0, #4
 480 008e 7372     		strb	r3, [r6, #9]
  69:Task/Task_Sample.c **** 
 481              		.loc 1 69 5 is_stmt 1 view .LVU118
  69:Task/Task_Sample.c **** 
 482              		.loc 1 69 37 is_stmt 0 view .LVU119
 483 0090 274B     		ldr	r3, .L31+12
 484 0092 1B68     		ldr	r3, [r3]
  69:Task/Task_Sample.c **** 
 485              		.loc 1 69 21 view .LVU120
 486 0094 3046     		mov	r0, r6
 487 0096 9847     		blx	r3
 488              	.LVL28:
  69:Task/Task_Sample.c **** 
 489              		.loc 1 69 19 view .LVU121
 490 0098 264F     		ldr	r7, .L31+16
 491 009a 3870     		strb	r0, [r7]
  71:Task/Task_Sample.c ****     DataPipe_DataObj(SensorInit_State).val = SensorMonitor.init_state_reg.val;
 492              		.loc 1 71 5 is_stmt 1 view .LVU122
  71:Task/Task_Sample.c ****     DataPipe_DataObj(SensorInit_State).val = SensorMonitor.init_state_reg.val;
 493              		.loc 1 71 73 is_stmt 0 view .LVU123
 494 009c 3368     		ldr	r3, [r6]
  71:Task/Task_Sample.c ****     DataPipe_DataObj(SensorInit_State).val = SensorMonitor.init_state_reg.val;
 495              		.loc 1 71 46 view .LVU124
 496 009e 2B67     		str	r3, [r5, #112]
  72:Task/Task_Sample.c ****     
 497              		.loc 1 72 5 is_stmt 1 view .LVU125
  72:Task/Task_Sample.c ****     
 498              		.loc 1 72 74 is_stmt 0 view .LVU126
 499 00a0 7368     		ldr	r3, [r6, #4]
  72:Task/Task_Sample.c ****     
 500              		.loc 1 72 44 view .LVU127
 501 00a2 6B67     		str	r3, [r5, #116]
  74:Task/Task_Sample.c ****     SensorEnableState_smp_DataPipe.data_size = DataPipe_DataSize(SensorEnable_State);
 502              		.loc 1 74 5 is_stmt 1 view .LVU128
  74:Task/Task_Sample.c ****     SensorEnableState_smp_DataPipe.data_size = DataPipe_DataSize(SensorEnable_State);
 503              		.loc 1 74 48 is_stmt 0 view .LVU129
 504 00a4 05F17003 		add	r3, r5, #112
  74:Task/Task_Sample.c ****     SensorEnableState_smp_DataPipe.data_size = DataPipe_DataSize(SensorEnable_State);
 505              		.loc 1 74 46 view .LVU130
 506 00a8 2348     		ldr	r0, .L31+20
 507 00aa C0F80D30 		str	r3, [r0, #13]	@ unaligned
  75:Task/Task_Sample.c ****     DataPipe_Enable(&SensorEnableState_smp_DataPipe);
 508              		.loc 1 75 5 is_stmt 1 view .LVU131
  75:Task/Task_Sample.c ****     DataPipe_Enable(&SensorEnableState_smp_DataPipe);
 509              		.loc 1 75 46 is_stmt 0 view .LVU132
 510 00ae 0423     		movs	r3, #4
 511 00b0 4374     		strb	r3, [r0, #17]
 512 00b2 8474     		strb	r4, [r0, #18]
  76:Task/Task_Sample.c ****     
 513              		.loc 1 76 5 is_stmt 1 view .LVU133
ARM GAS  C:\Users\8bit\AppData\Local\Temp\ccKJxVte.s 			page 16


 514              	.LVL29:
 515              	.LBB16:
 516              	.LBI16:
  62:Task/../System/DataPipe/DataPipe.h **** {
 517              		.loc 2 62 13 view .LVU134
 518              	.LBB17:
  64:Task/../System/DataPipe/DataPipe.h ****         return false;
 519              		.loc 2 64 5 view .LVU135
  67:Task/../System/DataPipe/DataPipe.h **** 
 520              		.loc 2 67 5 view .LVU136
  67:Task/../System/DataPipe/DataPipe.h **** 
 521              		.loc 2 67 17 is_stmt 0 view .LVU137
 522 00b4 80F80C80 		strb	r8, [r0, #12]
 523              		.loc 2 69 5 is_stmt 1 view .LVU138
 524              	.LVL30:
 525              		.loc 2 69 5 is_stmt 0 view .LVU139
 526              	.LBE17:
 527              	.LBE16:
  78:Task/Task_Sample.c ****     SensorInitState_smp_DataPipe.data_size = DataPipe_DataSize(SensorInit_State);
 528              		.loc 1 78 5 is_stmt 1 view .LVU140
  78:Task/Task_Sample.c ****     SensorInitState_smp_DataPipe.data_size = DataPipe_DataSize(SensorInit_State);
 529              		.loc 1 78 46 is_stmt 0 view .LVU141
 530 00b8 7435     		adds	r5, r5, #116
  78:Task/Task_Sample.c ****     SensorInitState_smp_DataPipe.data_size = DataPipe_DataSize(SensorInit_State);
 531              		.loc 1 78 44 view .LVU142
 532 00ba 204E     		ldr	r6, .L31+24
 533 00bc C6F80D50 		str	r5, [r6, #13]	@ unaligned
  79:Task/Task_Sample.c ****     DataPipe_Enable(&SensorInitState_smp_DataPipe);
 534              		.loc 1 79 5 is_stmt 1 view .LVU143
  79:Task/Task_Sample.c ****     DataPipe_Enable(&SensorInitState_smp_DataPipe);
 535              		.loc 1 79 44 is_stmt 0 view .LVU144
 536 00c0 7374     		strb	r3, [r6, #17]
 537 00c2 B474     		strb	r4, [r6, #18]
  80:Task/Task_Sample.c **** 
 538              		.loc 1 80 5 is_stmt 1 view .LVU145
 539              	.LVL31:
 540              	.LBB18:
 541              	.LBI18:
  62:Task/../System/DataPipe/DataPipe.h **** {
 542              		.loc 2 62 13 view .LVU146
 543              	.LBB19:
  64:Task/../System/DataPipe/DataPipe.h ****         return false;
 544              		.loc 2 64 5 view .LVU147
  67:Task/../System/DataPipe/DataPipe.h **** 
 545              		.loc 2 67 5 view .LVU148
  67:Task/../System/DataPipe/DataPipe.h **** 
 546              		.loc 2 67 17 is_stmt 0 view .LVU149
 547 00c4 86F80C80 		strb	r8, [r6, #12]
 548              		.loc 2 69 5 is_stmt 1 view .LVU150
 549              	.LVL32:
 550              		.loc 2 69 5 is_stmt 0 view .LVU151
 551              	.LBE19:
 552              	.LBE18:
  83:Task/Task_Sample.c ****     DataPipe_SendTo(&SensorInitState_smp_DataPipe, &SensorInitState_hub_DataPipe);
 553              		.loc 1 83 5 is_stmt 1 view .LVU152
 554 00c8 1D49     		ldr	r1, .L31+28
 555 00ca FFF7FEFF 		bl	DataPipe_SendTo
ARM GAS  C:\Users\8bit\AppData\Local\Temp\ccKJxVte.s 			page 17


 556              	.LVL33:
  84:Task/Task_Sample.c **** 
 557              		.loc 1 84 5 view .LVU153
 558 00ce 1D49     		ldr	r1, .L31+32
 559 00d0 3046     		mov	r0, r6
 560 00d2 FFF7FEFF 		bl	DataPipe_SendTo
 561              	.LVL34:
  86:Task/Task_Sample.c ****     {
 562              		.loc 1 86 5 view .LVU154
  86:Task/Task_Sample.c ****     {
 563              		.loc 1 86 8 is_stmt 0 view .LVU155
 564 00d6 3B78     		ldrb	r3, [r7]	@ zero_extendqisi2
  86:Task/Task_Sample.c ****     {
 565              		.loc 1 86 7 view .LVU156
 566 00d8 33B1     		cbz	r3, .L28
  88:Task/Task_Sample.c ****         {
 567              		.loc 1 88 9 is_stmt 1 view .LVU157
  88:Task/Task_Sample.c ****         {
 568              		.loc 1 88 28 is_stmt 0 view .LVU158
 569 00da 154B     		ldr	r3, .L31+12
 570 00dc DB68     		ldr	r3, [r3, #12]
  88:Task/Task_Sample.c ****         {
 571              		.loc 1 88 12 view .LVU159
 572 00de 01AA     		add	r2, sp, #4
 573 00e0 4146     		mov	r1, r8
 574 00e2 1048     		ldr	r0, .L31
 575 00e4 9847     		blx	r3
 576              	.LVL35:
  88:Task/Task_Sample.c ****         {
 577              		.loc 1 88 11 view .LVU160
 578 00e6 28B9     		cbnz	r0, .L30
 579              	.L28:
 118:Task/Task_Sample.c **** }
 580              		.loc 1 118 5 is_stmt 1 view .LVU161
 118:Task/Task_Sample.c **** }
 581              		.loc 1 118 23 is_stmt 0 view .LVU162
 582 00e8 174B     		ldr	r3, .L31+36
 583 00ea 0122     		movs	r2, #1
 584 00ec 1A60     		str	r2, [r3]
 119:Task/Task_Sample.c **** 
 585              		.loc 1 119 1 view .LVU163
 586 00ee 03B0     		add	sp, sp, #12
 587              	.LCFI4:
 588              		.cfi_remember_state
 589              		.cfi_def_cfa_offset 28
 590              		@ sp needed
 591 00f0 BDE8F083 		pop	{r4, r5, r6, r7, r8, r9, pc}
 592              	.L30:
 593              	.LCFI5:
 594              		.cfi_restore_state
  90:Task/Task_Sample.c ****             DataPipe_DataObj(Smp_PriIMU_Range).Gyr = PriIMU_Range.Gyr;
 595              		.loc 1 90 13 is_stmt 1 view .LVU164
  90:Task/Task_Sample.c ****             DataPipe_DataObj(Smp_PriIMU_Range).Gyr = PriIMU_Range.Gyr;
 596              		.loc 1 90 66 is_stmt 0 view .LVU165
 597 00f4 9DF80420 		ldrb	r2, [sp, #4]	@ zero_extendqisi2
  90:Task/Task_Sample.c ****             DataPipe_DataObj(Smp_PriIMU_Range).Gyr = PriIMU_Range.Gyr;
 598              		.loc 1 90 52 view .LVU166
ARM GAS  C:\Users\8bit\AppData\Local\Temp\ccKJxVte.s 			page 18


 599 00f8 A5F17403 		sub	r3, r5, #116
 600 00fc 83F87820 		strb	r2, [r3, #120]
  91:Task/Task_Sample.c **** 
 601              		.loc 1 91 13 is_stmt 1 view .LVU167
  91:Task/Task_Sample.c **** 
 602              		.loc 1 91 66 is_stmt 0 view .LVU168
 603 0100 BDF80620 		ldrh	r2, [sp, #6]
  91:Task/Task_Sample.c **** 
 604              		.loc 1 91 52 view .LVU169
 605 0104 A3F87A20 		strh	r2, [r3, #122]	@ movhi
  93:Task/Task_Sample.c ****             IMU_PriRange_Smp_DataPipe.data_size = DataPipe_DataSize(Smp_PriIMU_Range);
 606              		.loc 1 93 13 is_stmt 1 view .LVU170
  93:Task/Task_Sample.c ****             IMU_PriRange_Smp_DataPipe.data_size = DataPipe_DataSize(Smp_PriIMU_Range);
 607              		.loc 1 93 51 is_stmt 0 view .LVU171
 608 0108 7833     		adds	r3, r3, #120
  93:Task/Task_Sample.c ****             IMU_PriRange_Smp_DataPipe.data_size = DataPipe_DataSize(Smp_PriIMU_Range);
 609              		.loc 1 93 49 view .LVU172
 610 010a 1048     		ldr	r0, .L31+40
 611 010c C0F80D30 		str	r3, [r0, #13]	@ unaligned
  94:Task/Task_Sample.c ****             DataPipe_Enable(&IMU_PriRange_Smp_DataPipe);
 612              		.loc 1 94 13 is_stmt 1 view .LVU173
  94:Task/Task_Sample.c ****             DataPipe_Enable(&IMU_PriRange_Smp_DataPipe);
 613              		.loc 1 94 49 is_stmt 0 view .LVU174
 614 0110 0423     		movs	r3, #4
 615 0112 4374     		strb	r3, [r0, #17]
 616 0114 8474     		strb	r4, [r0, #18]
  95:Task/Task_Sample.c ****             
 617              		.loc 1 95 13 is_stmt 1 view .LVU175
 618              	.LVL36:
 619              	.LBB20:
 620              	.LBI20:
  62:Task/../System/DataPipe/DataPipe.h **** {
 621              		.loc 2 62 13 view .LVU176
 622              	.LBB21:
  64:Task/../System/DataPipe/DataPipe.h ****         return false;
 623              		.loc 2 64 5 view .LVU177
  67:Task/../System/DataPipe/DataPipe.h **** 
 624              		.loc 2 67 5 view .LVU178
  67:Task/../System/DataPipe/DataPipe.h **** 
 625              		.loc 2 67 17 is_stmt 0 view .LVU179
 626 0116 80F80C80 		strb	r8, [r0, #12]
 627              		.loc 2 69 5 is_stmt 1 view .LVU180
 628              	.LVL37:
 629              		.loc 2 69 5 is_stmt 0 view .LVU181
 630              	.LBE21:
 631              	.LBE20:
  98:Task/Task_Sample.c ****         }
 632              		.loc 1 98 13 is_stmt 1 view .LVU182
 633 011a 0D49     		ldr	r1, .L31+44
 634 011c FFF7FEFF 		bl	DataPipe_SendTo
 635              	.LVL38:
 636 0120 E2E7     		b	.L28
 637              	.L32:
 638 0122 00BF     		.align	2
 639              	.L31:
 640 0124 00000000 		.word	.LANCHOR2
 641 0128 00000000 		.word	Baro_smp_DataPipe
ARM GAS  C:\Users\8bit\AppData\Local\Temp\ccKJxVte.s 			page 19


 642 012c 00000000 		.word	.LANCHOR3
 643 0130 00000000 		.word	SrvSensorMonitor
 644 0134 00000000 		.word	.LANCHOR4
 645 0138 00000000 		.word	SensorEnableState_smp_DataPipe
 646 013c 00000000 		.word	SensorInitState_smp_DataPipe
 647 0140 00000000 		.word	SensorEnableState_hub_DataPipe
 648 0144 00000000 		.word	SensorInitState_hub_DataPipe
 649 0148 00000000 		.word	.LANCHOR5
 650 014c 00000000 		.word	IMU_PriRange_Smp_DataPipe
 651 0150 00000000 		.word	IMU_PriRange_hub_DataPipe
 652 0154 00000000 		.word	IMU_Smp_DataPipe
 653              		.cfi_endproc
 654              	.LFE145:
 656              		.section	.text.TaskSample_Core,"ax",%progbits
 657              		.align	1
 658              		.global	TaskSample_Core
 659              		.syntax unified
 660              		.thumb
 661              		.thumb_func
 663              	TaskSample_Core:
 664              	.LVL39:
 665              	.LFB146:
 122:Task/Task_Sample.c ****     uint32_t sys_time = SrvOsCommon.get_os_ms();
 666              		.loc 1 122 1 view -0
 667              		.cfi_startproc
 668              		@ Volatile: function does not return.
 669              		@ args = 0, pretend = 0, frame = 96
 670              		@ frame_needed = 0, uses_anonymous_args = 0
 122:Task/Task_Sample.c ****     uint32_t sys_time = SrvOsCommon.get_os_ms();
 671              		.loc 1 122 1 is_stmt 0 view .LVU184
 672 0000 00B5     		push	{lr}
 673              	.LCFI6:
 674              		.cfi_def_cfa_offset 4
 675              		.cfi_offset 14, -4
 676 0002 99B0     		sub	sp, sp, #100
 677              	.LCFI7:
 678              		.cfi_def_cfa_offset 104
 123:Task/Task_Sample.c ****     
 679              		.loc 1 123 5 is_stmt 1 view .LVU185
 123:Task/Task_Sample.c ****     
 680              		.loc 1 123 36 is_stmt 0 view .LVU186
 681 0004 224B     		ldr	r3, .L37
 682 0006 1B68     		ldr	r3, [r3]
 123:Task/Task_Sample.c ****     
 683              		.loc 1 123 25 view .LVU187
 684 0008 9847     		blx	r3
 685              	.LVL40:
 123:Task/Task_Sample.c ****     
 686              		.loc 1 123 14 view .LVU188
 687 000a 1790     		str	r0, [sp, #92]
 688 000c 05E0     		b	.L35
 689              	.L34:
 146:Task/Task_Sample.c ****     }
 690              		.loc 1 146 9 is_stmt 1 view .LVU189
 146:Task/Task_Sample.c ****     }
 691              		.loc 1 146 20 is_stmt 0 view .LVU190
 692 000e 204B     		ldr	r3, .L37
ARM GAS  C:\Users\8bit\AppData\Local\Temp\ccKJxVte.s 			page 20


 693 0010 9B68     		ldr	r3, [r3, #8]
 146:Task/Task_Sample.c ****     }
 694              		.loc 1 146 9 view .LVU191
 695 0012 204A     		ldr	r2, .L37+4
 696 0014 1168     		ldr	r1, [r2]
 697 0016 17A8     		add	r0, sp, #92
 698 0018 9847     		blx	r3
 699              	.LVL41:
 125:Task/Task_Sample.c ****     {
 700              		.loc 1 125 10 is_stmt 1 view .LVU192
 701              	.L35:
 125:Task/Task_Sample.c ****     {
 702              		.loc 1 125 5 view .LVU193
 127:Task/Task_Sample.c **** 
 703              		.loc 1 127 9 view .LVU194
 704 001a 6420     		movs	r0, #100
 705 001c FFF7FEFF 		bl	TaskInertical_Blink_Notification
 706              	.LVL42:
 129:Task/Task_Sample.c ****         {
 707              		.loc 1 129 9 view .LVU195
 129:Task/Task_Sample.c ****         {
 708              		.loc 1 129 12 is_stmt 0 view .LVU196
 709 0020 1D4B     		ldr	r3, .L37+8
 710 0022 1B78     		ldrb	r3, [r3]	@ zero_extendqisi2
 129:Task/Task_Sample.c ****         {
 711              		.loc 1 129 11 view .LVU197
 712 0024 002B     		cmp	r3, #0
 713 0026 F2D0     		beq	.L34
 129:Task/Task_Sample.c ****         {
 714              		.loc 1 129 45 discriminator 1 view .LVU198
 715 0028 1C4B     		ldr	r3, .L37+12
 716 002a 5B68     		ldr	r3, [r3, #4]
 129:Task/Task_Sample.c ****         {
 717              		.loc 1 129 29 discriminator 1 view .LVU199
 718 002c 1C48     		ldr	r0, .L37+16
 719 002e 9847     		blx	r3
 720              	.LVL43:
 129:Task/Task_Sample.c ****         {
 721              		.loc 1 129 26 discriminator 1 view .LVU200
 722 0030 0028     		cmp	r0, #0
 723 0032 ECD0     		beq	.L34
 131:Task/Task_Sample.c ****             DataPipe_DataObj(Baro_Data).data = SrvSensorMonitor.get_baro_data(&SensorMonitor);
 724              		.loc 1 131 13 is_stmt 1 view .LVU201
 131:Task/Task_Sample.c ****             DataPipe_DataObj(Baro_Data).data = SrvSensorMonitor.get_baro_data(&SensorMonitor);
 725              		.loc 1 131 58 is_stmt 0 view .LVU202
 726 0034 194E     		ldr	r6, .L37+12
 727 0036 3369     		ldr	r3, [r6, #16]
 131:Task/Task_Sample.c ****             DataPipe_DataObj(Baro_Data).data = SrvSensorMonitor.get_baro_data(&SensorMonitor);
 728              		.loc 1 131 42 view .LVU203
 729 0038 1A4C     		ldr	r4, .L37+20
 730 003a 194D     		ldr	r5, .L37+16
 731 003c 2946     		mov	r1, r5
 732 003e 6846     		mov	r0, sp
 733 0040 9847     		blx	r3
 734              	.LVL44:
 735 0042 5422     		movs	r2, #84
 736 0044 6946     		mov	r1, sp
ARM GAS  C:\Users\8bit\AppData\Local\Temp\ccKJxVte.s 			page 21


 737 0046 04F11C00 		add	r0, r4, #28
 738 004a FFF7FEFF 		bl	memcpy
 739              	.LVL45:
 132:Task/Task_Sample.c **** 
 740              		.loc 1 132 13 is_stmt 1 view .LVU204
 132:Task/Task_Sample.c **** 
 741              		.loc 1 132 64 is_stmt 0 view .LVU205
 742 004e 7369     		ldr	r3, [r6, #20]
 132:Task/Task_Sample.c **** 
 743              		.loc 1 132 48 view .LVU206
 744 0050 2946     		mov	r1, r5
 745 0052 6846     		mov	r0, sp
 746 0054 9847     		blx	r3
 747              	.LVL46:
 748 0056 A646     		mov	lr, r4
 749 0058 EC46     		mov	ip, sp
 750 005a BCE80F00 		ldmia	ip!, {r0, r1, r2, r3}
 751 005e AEE80F00 		stmia	lr!, {r0, r1, r2, r3}
 752 0062 9CE80700 		ldm	ip, {r0, r1, r2}
 753 0066 8EE80700 		stm	lr, {r0, r1, r2}
 137:Task/Task_Sample.c ****             DataPipe_SendTo(&Baro_smp_DataPipe, &Baro_Log_DataPipe);
 754              		.loc 1 137 13 is_stmt 1 view .LVU207
 755 006a 0F4D     		ldr	r5, .L37+24
 756 006c 0F49     		ldr	r1, .L37+28
 757 006e 2846     		mov	r0, r5
 758 0070 FFF7FEFF 		bl	DataPipe_SendTo
 759              	.LVL47:
 138:Task/Task_Sample.c **** 
 760              		.loc 1 138 13 view .LVU208
 761 0074 0E4C     		ldr	r4, .L37+32
 762 0076 0F49     		ldr	r1, .L37+36
 763 0078 2046     		mov	r0, r4
 764 007a FFF7FEFF 		bl	DataPipe_SendTo
 765              	.LVL48:
 141:Task/Task_Sample.c ****             DataPipe_SendTo(&Baro_smp_DataPipe, &Baro_hub_DataPipe);
 766              		.loc 1 141 13 view .LVU209
 767 007e 0E49     		ldr	r1, .L37+40
 768 0080 2846     		mov	r0, r5
 769 0082 FFF7FEFF 		bl	DataPipe_SendTo
 770              	.LVL49:
 142:Task/Task_Sample.c ****             // DebugPin.ctl(Debug_PB4, false);
 771              		.loc 1 142 13 view .LVU210
 772 0086 0D49     		ldr	r1, .L37+44
 773 0088 2046     		mov	r0, r4
 774 008a FFF7FEFF 		bl	DataPipe_SendTo
 775              	.LVL50:
 776 008e BEE7     		b	.L34
 777              	.L38:
 778              		.align	2
 779              	.L37:
 780 0090 00000000 		.word	SrvOsCommon
 781 0094 00000000 		.word	.LANCHOR5
 782 0098 00000000 		.word	.LANCHOR4
 783 009c 00000000 		.word	SrvSensorMonitor
 784 00a0 00000000 		.word	.LANCHOR2
 785 00a4 00000000 		.word	.LANCHOR3
 786 00a8 00000000 		.word	IMU_Smp_DataPipe
ARM GAS  C:\Users\8bit\AppData\Local\Temp\ccKJxVte.s 			page 22


 787 00ac 00000000 		.word	IMU_Log_DataPipe
 788 00b0 00000000 		.word	Baro_smp_DataPipe
 789 00b4 00000000 		.word	Baro_Log_DataPipe
 790 00b8 00000000 		.word	IMU_hub_DataPipe
 791 00bc 00000000 		.word	Baro_hub_DataPipe
 792              		.cfi_endproc
 793              	.LFE146:
 795              		.global	shellCommandsensor_status
 796              		.global	shellDescsensor_status
 797              		.global	shellCmdsensor_status
 798              		.section	.Perph_Section,"aw"
 799              		.align	2
 800              		.set	.LANCHOR3,. + 0
 803              	Baro_Data_PipeDataObj:
 804 0000 00000000 		.space	28
 804      00000000 
 804      00000000 
 804      00000000 
 804      00000000 
 807              	IMU_Data_PipeDataObj:
 808 001c 00000000 		.space	84
 808      00000000 
 808      00000000 
 808      00000000 
 808      00000000 
 811              	SensorEnable_State_PipeDataObj:
 812 0070 00000000 		.space	4
 815              	SensorInit_State_PipeDataObj:
 816 0074 00000000 		.space	4
 819              	Smp_PriIMU_Range_PipeDataObj:
 820 0078 00000000 		.space	4
 821              		.section	.bss.Lst_Rt.1,"aw",%nobits
 822              		.align	2
 823              		.set	.LANCHOR0,. + 0
 826              	Lst_Rt.1:
 827 0000 00000000 		.space	4
 828              		.section	.bss.SensorMonitor,"aw",%nobits
 829              		.align	2
 830              		.set	.LANCHOR2,. + 0
 833              	SensorMonitor:
 834 0000 00000000 		.space	160
 834      00000000 
 834      00000000 
 834      00000000 
 834      00000000 
 835              		.section	.bss.TaskSample_Period,"aw",%nobits
 836              		.align	2
 837              		.set	.LANCHOR5,. + 0
 840              	TaskSample_Period:
 841 0000 00000000 		.space	4
 842              		.section	.bss.led_state.0,"aw",%nobits
 843              		.set	.LANCHOR1,. + 0
 846              	led_state.0:
 847 0000 00       		.space	1
 848              		.section	.bss.sample_enable,"aw",%nobits
 849              		.set	.LANCHOR4,. + 0
 852              	sample_enable:
ARM GAS  C:\Users\8bit\AppData\Local\Temp\ccKJxVte.s 			page 23


 853 0000 00       		.space	1
 854              		.section	.rodata.shellCmdsensor_status,"a"
 855              		.align	2
 858              	shellCmdsensor_status:
 859 0000 73656E73 		.ascii	"sensor_status\000"
 859      6F725F73 
 859      74617475 
 859      7300
 860              		.section	.rodata.shellDescsensor_status,"a"
 861              		.align	2
 864              	shellDescsensor_status:
 865 0000 73686F77 		.ascii	"show sensor status\000"
 865      2073656E 
 865      736F7220 
 865      73746174 
 865      757300
 866              		.section	shellCommand,"a"
 867              		.align	2
 870              	shellCommandsensor_status:
 871 0000 00210000 		.word	8448
 872 0004 00000000 		.word	shellCmdsensor_status
 873 0008 00000000 		.word	TaskSample_Get_SensorState
 874 000c 00000000 		.word	shellDescsensor_status
 875              		.text
 876              	.Letext0:
 877              		.file 3 "c:\\program files (x86)\\gnu arm embedded toolchain\\10 2021.10\\arm-none-eabi\\include\\
 878              		.file 4 "c:\\program files (x86)\\gnu arm embedded toolchain\\10 2021.10\\arm-none-eabi\\include\\
 879              		.file 5 "c:\\program files (x86)\\gnu arm embedded toolchain\\10 2021.10\\lib\\gcc\\arm-none-eabi\
 880              		.file 6 "System/FreeRTOS/include/portable.h"
 881              		.file 7 "Service/Srv_OsCommon.h"
 882              		.file 8 "HW_Lib/Port_Def/Bsp_GPIO_Port_Def.h"
 883              		.file 9 "common/gen_physic_def/imu_data.h"
 884              		.file 10 "common/gen_physic_def/gen_calib.h"
 885              		.file 11 "Service/Srv_IMUSample.h"
 886              		.file 12 "Service/Srv_Baro.h"
 887              		.file 13 "Service/Srv_SensorMonitor.h"
 888              		.file 14 "HW_Lib/AT32F435/drivers/inc/at32f435_437_tmr.h"
 889              		.file 15 "Device/Dev_Led.h"
 890              		.file 16 "HW_Lib/AT32F435/PinPort_Def/CCRC_AT32_20/HW_Def.h"
 891              		.file 17 "System/shell/shell.h"
 892              		.file 18 "System/FreeRTOS/FreeRTOSConfig.h"
 893              		.file 19 "System/shell/shell_port.h"
 894              		.file 20 "<built-in>"
ARM GAS  C:\Users\8bit\AppData\Local\Temp\ccKJxVte.s 			page 24

