ARM GAS  /var/folders/lx/hc4sn_b53233_zkc9xbbl97r0000gp/T//ccJUfFWA.s 			page 1


   1              		.cpu cortex-m7
   2              		.eabi_attribute 28, 1
   3              		.eabi_attribute 20, 1
   4              		.eabi_attribute 21, 1
   5              		.eabi_attribute 23, 3
   6              		.eabi_attribute 24, 1
   7              		.eabi_attribute 25, 1
   8              		.eabi_attribute 26, 1
   9              		.eabi_attribute 30, 1
  10              		.eabi_attribute 34, 1
  11              		.eabi_attribute 18, 4
  12              		.file	"Task_SensorInertial.c"
  13              		.text
  14              	.Ltext0:
  15              		.cfi_sections	.debug_frame
  16              		.section	.text.TaskInertial_Init,"ax",%progbits
  17              		.align	1
  18              		.global	TaskInertial_Init
  19              		.arch armv7e-m
  20              		.syntax unified
  21              		.thumb
  22              		.thumb_func
  23              		.fpu fpv5-d16
  25              	TaskInertial_Init:
  26              	.LFB147:
  27              		.file 1 "Task/Task_SensorInertial.c"
   1:Task/Task_SensorInertial.c **** #include "Task_SensorInertial.h"
   2:Task/Task_SensorInertial.c **** #include "scheduler.h"
   3:Task/Task_SensorInertial.c **** #include "debug_util.h"
   4:Task/Task_SensorInertial.c **** #include "runtime.h"
   5:Task/Task_SensorInertial.c **** #include "IO_Definition.h"
   6:Task/Task_SensorInertial.c **** #include "SrvMPU_Sample.h"
   7:Task/Task_SensorInertial.c **** #include "debug_util.h"
   8:Task/Task_SensorInertial.c **** #include "error_log.h"
   9:Task/Task_SensorInertial.c **** 
  10:Task/Task_SensorInertial.c **** /* internal var */
  11:Task/Task_SensorInertial.c **** static Task_SensorInertial_State TaskInertial_State = Task_SensorInertial_Core;
  12:Task/Task_SensorInertial.c **** static Error_Handler TaskInertial_ErrorLog_Handle = NULL;
  13:Task/Task_SensorInertial.c **** 
  14:Task/Task_SensorInertial.c **** /* internal function */
  15:Task/Task_SensorInertial.c **** static void TaskInertical_Blink_Notification(uint16_t duration);
  16:Task/Task_SensorInertial.c **** 
  17:Task/Task_SensorInertial.c **** /* external function */
  18:Task/Task_SensorInertial.c **** 
  19:Task/Task_SensorInertial.c **** void TaskInertial_Init(void)
  20:Task/Task_SensorInertial.c **** {
  28              		.loc 1 20 1 view -0
  29              		.cfi_startproc
  30              		@ args = 0, pretend = 0, frame = 0
  31              		@ frame_needed = 0, uses_anonymous_args = 0
  32 0000 08B5     		push	{r3, lr}
  33              	.LCFI0:
  34              		.cfi_def_cfa_offset 8
  35              		.cfi_offset 3, -8
  36              		.cfi_offset 14, -4
  21:Task/Task_SensorInertial.c ****     /* regist error */
  22:Task/Task_SensorInertial.c **** 
ARM GAS  /var/folders/lx/hc4sn_b53233_zkc9xbbl97r0000gp/T//ccJUfFWA.s 			page 2


  23:Task/Task_SensorInertial.c ****     SrvIMU_Init();
  37              		.loc 1 23 5 view .LVU1
  38 0002 FFF7FEFF 		bl	SrvIMU_Init
  39              	.LVL0:
  24:Task/Task_SensorInertial.c **** }
  40              		.loc 1 24 1 is_stmt 0 view .LVU2
  41 0006 08BD     		pop	{r3, pc}
  42              		.cfi_endproc
  43              	.LFE147:
  45              		.section	.text.TaskInertical_Core,"ax",%progbits
  46              		.align	1
  47              		.global	TaskInertical_Core
  48              		.syntax unified
  49              		.thumb
  50              		.thumb_func
  51              		.fpu fpv5-d16
  53              	TaskInertical_Core:
  54              	.LVL1:
  55              	.LFB148:
  25:Task/Task_SensorInertial.c **** 
  26:Task/Task_SensorInertial.c **** void TaskInertical_Core(Task_Handle hdl)
  27:Task/Task_SensorInertial.c **** {
  56              		.loc 1 27 1 is_stmt 1 view -0
  57              		.cfi_startproc
  58              		@ args = 0, pretend = 0, frame = 0
  59              		@ frame_needed = 0, uses_anonymous_args = 0
  60              		.loc 1 27 1 is_stmt 0 view .LVU4
  61 0000 38B5     		push	{r3, r4, r5, lr}
  62              	.LCFI1:
  63              		.cfi_def_cfa_offset 16
  64              		.cfi_offset 3, -16
  65              		.cfi_offset 4, -12
  66              		.cfi_offset 5, -8
  67              		.cfi_offset 14, -4
  28:Task/Task_SensorInertial.c ****     DebugPin.ctl(Debug_PB5, true);
  68              		.loc 1 28 5 is_stmt 1 view .LVU5
  69              		.loc 1 28 13 is_stmt 0 view .LVU6
  70 0002 0D4D     		ldr	r5, .L5
  71 0004 6B68     		ldr	r3, [r5, #4]
  72              		.loc 1 28 5 view .LVU7
  73 0006 0D4C     		ldr	r4, .L5+4
  74 0008 2179     		ldrb	r1, [r4, #4]	@ zero_extendqisi2
  75 000a 6279     		ldrb	r2, [r4, #5]	@ zero_extendqisi2
  76 000c 41EA0221 		orr	r1, r1, r2, lsl #8
  77 0010 A279     		ldrb	r2, [r4, #6]	@ zero_extendqisi2
  78 0012 41EA0241 		orr	r1, r1, r2, lsl #16
  79 0016 0122     		movs	r2, #1
  80 0018 2068     		ldr	r0, [r4]	@ unaligned
  81              	.LVL2:
  82              		.loc 1 28 5 view .LVU8
  83 001a 21F07F41 		bic	r1, r1, #-16777216
  84 001e 9847     		blx	r3
  85              	.LVL3:
  29:Task/Task_SensorInertial.c ****     switch ((uint8_t)TaskInertial_State)
  86              		.loc 1 29 5 is_stmt 1 view .LVU9
  30:Task/Task_SensorInertial.c ****     {
  31:Task/Task_SensorInertial.c ****     case Task_SensorInertial_Core:
ARM GAS  /var/folders/lx/hc4sn_b53233_zkc9xbbl97r0000gp/T//ccJUfFWA.s 			page 3


  32:Task/Task_SensorInertial.c ****         // TaskInertical_Blink_Notification(250);
  33:Task/Task_SensorInertial.c ****         break;
  34:Task/Task_SensorInertial.c **** 
  35:Task/Task_SensorInertial.c ****     case Task_SensorInertial_Error:
  36:Task/Task_SensorInertial.c ****         break;
  37:Task/Task_SensorInertial.c **** 
  38:Task/Task_SensorInertial.c ****     default:
  39:Task/Task_SensorInertial.c ****         break;
  40:Task/Task_SensorInertial.c ****     }
  41:Task/Task_SensorInertial.c ****     DebugPin.ctl(Debug_PB5, false);
  87              		.loc 1 41 5 view .LVU10
  88              		.loc 1 41 13 is_stmt 0 view .LVU11
  89 0020 6D68     		ldr	r5, [r5, #4]
  90              		.loc 1 41 5 view .LVU12
  91 0022 2379     		ldrb	r3, [r4, #4]	@ zero_extendqisi2
  92 0024 6179     		ldrb	r1, [r4, #5]	@ zero_extendqisi2
  93 0026 43EA0123 		orr	r3, r3, r1, lsl #8
  94 002a A179     		ldrb	r1, [r4, #6]	@ zero_extendqisi2
  95 002c 0022     		movs	r2, #0
  96 002e 2068     		ldr	r0, [r4]	@ unaligned
  97 0030 43EA0141 		orr	r1, r3, r1, lsl #16
  98 0034 A847     		blx	r5
  99              	.LVL4:
  42:Task/Task_SensorInertial.c **** }
 100              		.loc 1 42 1 view .LVU13
 101 0036 38BD     		pop	{r3, r4, r5, pc}
 102              	.L6:
 103              		.align	2
 104              	.L5:
 105 0038 00000000 		.word	DebugPin
 106 003c 00000000 		.word	Debug_PB5
 107              		.cfi_endproc
 108              	.LFE148:
 110              		.text
 111              	.Letext0:
 112              		.file 2 "/usr/local/arm-none-eabi-gcc/gcc-arm-none-eabi-10-2020-q4-major/arm-none-eabi/include/mac
 113              		.file 3 "/usr/local/arm-none-eabi-gcc/gcc-arm-none-eabi-10-2020-q4-major/arm-none-eabi/include/sys
 114              		.file 4 "HAL_Lib/CMSIS/Device/ST/STM32H7xx/Include/stm32h743xx.h"
 115              		.file 5 "HAL_Lib/STM32H7xx_HAL_Driver/Inc/stm32h7xx_hal_gpio.h"
 116              		.file 6 "System/scheduler/scheduler.h"
 117              		.file 7 "Service/imu_data.h"
 118              		.file 8 "Task/Task_SensorInertial.h"
 119              		.file 9 "Bsp/Bsp_GPIO.h"
 120              		.file 10 "debug/debug_util.h"
 121              		.file 11 "IO_Def/IO_Definition.h"
 122              		.file 12 "Common/error_log.h"
 123              		.file 13 "Service/SrvMPU_Sample.h"
ARM GAS  /var/folders/lx/hc4sn_b53233_zkc9xbbl97r0000gp/T//ccJUfFWA.s 			page 4

