ARM GAS  C:\Users\HUAV\AppData\Local\Temp\ccBqtc7a.s 			page 1


   1              		.cpu cortex-m7
   2              		.eabi_attribute 28, 1
   3              		.eabi_attribute 20, 1
   4              		.eabi_attribute 21, 1
   5              		.eabi_attribute 23, 3
   6              		.eabi_attribute 24, 1
   7              		.eabi_attribute 25, 1
   8              		.eabi_attribute 26, 1
   9              		.eabi_attribute 30, 1
  10              		.eabi_attribute 34, 1
  11              		.eabi_attribute 18, 4
  12              		.file	"Task_Telemetry.c"
  13              		.text
  14              	.Ltext0:
  15              		.cfi_sections	.debug_frame
  16              		.section	.text.Telemetry_Led_Control,"ax",%progbits
  17              		.align	1
  18              		.arch armv7e-m
  19              		.syntax unified
  20              		.thumb
  21              		.thumb_func
  22              		.fpu fpv5-d16
  24              	Telemetry_Led_Control:
  25              	.LVL0:
  26              	.LFB2000:
  27              		.file 1 "Task/Task_Telemetry.c"
   1:Task/Task_Telemetry.c **** /* code: 8_B!T0
   2:Task/Task_Telemetry.c ****  * Telemetry Task we use this task to get and process data from RC receiver and radio
   3:Task/Task_Telemetry.c ****  * OSD Tune Gimbal code : throttle down / Pitch down / Yaw right max / Roll right max / keep this p
   4:Task/Task_Telemetry.c ****  *
   5:Task/Task_Telemetry.c ****  * deflaut receiver list
   6:Task/Task_Telemetry.c ****  * channel 1  pitch
   7:Task/Task_Telemetry.c ****  * channel 2  roll
   8:Task/Task_Telemetry.c ****  * channel 3  throttle
   9:Task/Task_Telemetry.c ****  * channel 4  yaw
  10:Task/Task_Telemetry.c ****  * channel 5  aux1
  11:Task/Task_Telemetry.c ****  * channel 6  aux2
  12:Task/Task_Telemetry.c ****  * channel 7  aux3
  13:Task/Task_Telemetry.c ****  * channel 8  aux4
  14:Task/Task_Telemetry.c ****  * channel 9  aux5
  15:Task/Task_Telemetry.c ****  * channel 10 aux6
  16:Task/Task_Telemetry.c ****  * channel 11 aux7
  17:Task/Task_Telemetry.c ****  * channel 12 aux8
  18:Task/Task_Telemetry.c ****  * channel 13 aux9
  19:Task/Task_Telemetry.c ****  * channel 14 aux10
  20:Task/Task_Telemetry.c ****  * channel 15 aux11
  21:Task/Task_Telemetry.c ****  * channel 16 aux12
  22:Task/Task_Telemetry.c ****  *
  23:Task/Task_Telemetry.c ****  */
  24:Task/Task_Telemetry.c **** #include "Task_Telemetry.h"
  25:Task/Task_Telemetry.c **** #include "DataPipe.h"
  26:Task/Task_Telemetry.c **** #include "Srv_Receiver.h"
  27:Task/Task_Telemetry.c **** #include "system_cfg.h"
  28:Task/Task_Telemetry.c **** #include "IO_Definition.h"
  29:Task/Task_Telemetry.c **** #include "runtime.h"
  30:Task/Task_Telemetry.c **** #include "mmu.h"
  31:Task/Task_Telemetry.c **** #include "util.h"
ARM GAS  C:\Users\HUAV\AppData\Local\Temp\ccBqtc7a.s 			page 2


  32:Task/Task_Telemetry.c **** #include "Srv_ComProto.h"
  33:Task/Task_Telemetry.c **** 
  34:Task/Task_Telemetry.c **** #define CRSF_TX_PIN Uart4_TxPin
  35:Task/Task_Telemetry.c **** #define CRSF_RX_PIN Uart4_RxPin
  36:Task/Task_Telemetry.c **** 
  37:Task/Task_Telemetry.c **** #define SBUS_TX_PIN Uart4_TxPin
  38:Task/Task_Telemetry.c **** #define SBUS_RX_PIN Uart4_RxPin
  39:Task/Task_Telemetry.c **** 
  40:Task/Task_Telemetry.c **** /* internal variable */
  41:Task/Task_Telemetry.c **** static SrvReceiverObj_TypeDef Receiver_Obj;
  42:Task/Task_Telemetry.c **** static Telemetry_RCInput_TypeDef RC_Setting;
  43:Task/Task_Telemetry.c **** static Telemetry_Monitor_TypeDef Telemetry_Monitor;
  44:Task/Task_Telemetry.c **** static bool RCData_To_Configuretor = false;
  45:Task/Task_Telemetry.c **** DataPipe_CreateDataObj(Telemetry_RCSig_TypeDef, Rc);
  46:Task/Task_Telemetry.c **** 
  47:Task/Task_Telemetry.c **** /* internal funciotn */
  48:Task/Task_Telemetry.c **** static Telemetry_RCSig_TypeDef Telemetry_RC_Sig_Update(Telemetry_RCInput_TypeDef *RC_Input_obj, Srv
  49:Task/Task_Telemetry.c **** static bool Telemetry_RC_Sig_Init(Telemetry_RCInput_TypeDef *RC_Input_obj, SrvReceiverObj_TypeDef *
  50:Task/Task_Telemetry.c **** static bool Telemetry_BindGimbalToChannel(Telemetry_RCInput_TypeDef *RC_Input_obj, uint16_t *data_o
  51:Task/Task_Telemetry.c **** static bool Telemetry_BindToggleToChannel(Telemetry_RCInput_TypeDef *RC_Input_obj, uint16_t *data_o
  52:Task/Task_Telemetry.c **** static bool Telemetry_AddToggleCombo(Telemetry_RCInput_TypeDef *RC_Input_obj, uint16_t *data_obj, T
  53:Task/Task_Telemetry.c **** static void Telemetry_Enable_GimbalDeadZone(Telemetry_RCFuncMap_TypeDef *gimbal, uint16_t scope);
  54:Task/Task_Telemetry.c **** 
  55:Task/Task_Telemetry.c **** void TaskTelemetry_Set_DataIO_Enable(bool state)
  56:Task/Task_Telemetry.c **** {
  57:Task/Task_Telemetry.c ****     RCData_To_Configuretor = state;
  58:Task/Task_Telemetry.c **** }
  59:Task/Task_Telemetry.c **** 
  60:Task/Task_Telemetry.c **** void TaskTelemetry_Init(void)
  61:Task/Task_Telemetry.c **** {
  62:Task/Task_Telemetry.c ****     memset(&Telemetry_Monitor, 0, sizeof(Telemetry_Monitor));
  63:Task/Task_Telemetry.c **** 
  64:Task/Task_Telemetry.c ****     Telemetry_Monitor.Init_Rt = Get_CurrentRunningMs();
  65:Task/Task_Telemetry.c ****     SrvComProto.init(SrvComProto_Type_MAV, NULL);
  66:Task/Task_Telemetry.c **** 
  67:Task/Task_Telemetry.c ****     /* init receiver */
  68:Task/Task_Telemetry.c ****     if (Telemetry_RC_Sig_Init(&RC_Setting, &Receiver_Obj))
  69:Task/Task_Telemetry.c ****     {
  70:Task/Task_Telemetry.c ****         /* for crsf frame channel 1 is throttle */
  71:Task/Task_Telemetry.c ****         /* for sbus frame channel 3 is throttle */
  72:Task/Task_Telemetry.c ****         if (Receiver_Obj.Frame_type == Receiver_Type_CRSF)
  73:Task/Task_Telemetry.c ****         {
  74:Task/Task_Telemetry.c ****             /* set crsf receiver map */
  75:Task/Task_Telemetry.c ****             /* bind to channel */
  76:Task/Task_Telemetry.c ****             if (Telemetry_BindGimbalToChannel(&RC_Setting, &Receiver_Obj.data.val_list[2], Telemetr
  77:Task/Task_Telemetry.c ****                 Telemetry_BindGimbalToChannel(&RC_Setting, &Receiver_Obj.data.val_list[1], Telemetr
  78:Task/Task_Telemetry.c ****                 Telemetry_BindGimbalToChannel(&RC_Setting, &Receiver_Obj.data.val_list[0], Telemetr
  79:Task/Task_Telemetry.c ****                 Telemetry_BindGimbalToChannel(&RC_Setting, &Receiver_Obj.data.val_list[3], Telemetr
  80:Task/Task_Telemetry.c ****                 Telemetry_BindToggleToChannel(&RC_Setting, &Receiver_Obj.data.val_list[4], &RC_Sett
  81:Task/Task_Telemetry.c ****                 Telemetry_BindToggleToChannel(&RC_Setting, &Receiver_Obj.data.val_list[5], &RC_Sett
  82:Task/Task_Telemetry.c ****                 Telemetry_BindToggleToChannel(&RC_Setting, &Receiver_Obj.data.val_list[6], &RC_Sett
  83:Task/Task_Telemetry.c ****                 Telemetry_AddToggleCombo(&RC_Setting, &Receiver_Obj.data.val_list[6], &RC_Setting.C
  84:Task/Task_Telemetry.c ****                 Telemetry_AddToggleCombo(&RC_Setting, &Receiver_Obj.data.val_list[6], &RC_Setting.C
  85:Task/Task_Telemetry.c ****                 Telemetry_BindToggleToChannel(&RC_Setting, &Receiver_Obj.data.val_list[2], &RC_Sett
  86:Task/Task_Telemetry.c ****                 Telemetry_AddToggleCombo(&RC_Setting, &Receiver_Obj.data.val_list[1], &RC_Setting.O
  87:Task/Task_Telemetry.c ****                 Telemetry_AddToggleCombo(&RC_Setting, &Receiver_Obj.data.val_list[3], &RC_Setting.O
  88:Task/Task_Telemetry.c ****                 Telemetry_AddToggleCombo(&RC_Setting, &Receiver_Obj.data.val_list[0], &RC_Setting.O
ARM GAS  C:\Users\HUAV\AppData\Local\Temp\ccBqtc7a.s 			page 3


  89:Task/Task_Telemetry.c ****             {
  90:Task/Task_Telemetry.c ****                 RC_Setting.sig.arm_state = TELEMETRY_SET_ARM;
  91:Task/Task_Telemetry.c **** 
  92:Task/Task_Telemetry.c ****                 /* set gimbal center dead zone */
  93:Task/Task_Telemetry.c ****                 Telemetry_Enable_GimbalDeadZone(&RC_Setting.Gimbal[Telemetry_RC_Pitch], 50);
  94:Task/Task_Telemetry.c ****                 Telemetry_Enable_GimbalDeadZone(&RC_Setting.Gimbal[Telemetry_RC_Roll], 50);
  95:Task/Task_Telemetry.c ****                 Telemetry_Enable_GimbalDeadZone(&RC_Setting.Gimbal[Telemetry_RC_Yaw], 50);
  96:Task/Task_Telemetry.c **** 
  97:Task/Task_Telemetry.c ****                 /* set datapipe */
  98:Task/Task_Telemetry.c ****                 memset(&Receiver_Smp_DataPipe, 0, sizeof(Receiver_Smp_DataPipe));
  99:Task/Task_Telemetry.c ****                 memset(DataPipe_DataObjAddr(Rc), 0, sizeof(Telemetry_RCSig_TypeDef));
 100:Task/Task_Telemetry.c **** 
 101:Task/Task_Telemetry.c ****                 Receiver_Smp_DataPipe.data_addr = (uint32_t)DataPipe_DataObjAddr(Rc);
 102:Task/Task_Telemetry.c ****                 Receiver_Smp_DataPipe.data_size = DataPipe_DataSize(Rc);
 103:Task/Task_Telemetry.c **** 
 104:Task/Task_Telemetry.c ****                 DataPipe_Enable(&Receiver_Smp_DataPipe);
 105:Task/Task_Telemetry.c ****             }
 106:Task/Task_Telemetry.c ****         }
 107:Task/Task_Telemetry.c ****         else if (Receiver_Obj.Frame_type == Receiver_Type_Sbus)
 108:Task/Task_Telemetry.c ****         {
 109:Task/Task_Telemetry.c ****         }
 110:Task/Task_Telemetry.c **** 
 111:Task/Task_Telemetry.c ****         Telemetry_Monitor.lst_arm_state = TELEMETRY_SET_ARM;
 112:Task/Task_Telemetry.c ****     }
 113:Task/Task_Telemetry.c **** 
 114:Task/Task_Telemetry.c ****     /* init radio */
 115:Task/Task_Telemetry.c **** }
 116:Task/Task_Telemetry.c **** 
 117:Task/Task_Telemetry.c **** void Telemetry_blink(void)
 118:Task/Task_Telemetry.c **** {
 119:Task/Task_Telemetry.c ****     SYSTEM_RunTime Rt = 0;
 120:Task/Task_Telemetry.c ****     static SYSTEM_RunTime Lst_Rt = 0;
 121:Task/Task_Telemetry.c ****     static bool led_state = false;
 122:Task/Task_Telemetry.c **** 
 123:Task/Task_Telemetry.c ****     // DebugPin.ctl(Debug_PB4, true);
 124:Task/Task_Telemetry.c ****     // DebugPin.ctl(Debug_PB4, false);
 125:Task/Task_Telemetry.c **** 
 126:Task/Task_Telemetry.c ****     Rt = Get_CurrentRunningMs();
 127:Task/Task_Telemetry.c **** 
 128:Task/Task_Telemetry.c ****     if ((Rt % 100 == 0) && (Lst_Rt != Rt))
 129:Task/Task_Telemetry.c ****     {
 130:Task/Task_Telemetry.c ****         led_state = !led_state;
 131:Task/Task_Telemetry.c ****         Lst_Rt = Rt;
 132:Task/Task_Telemetry.c ****     }
 133:Task/Task_Telemetry.c **** 
 134:Task/Task_Telemetry.c ****     DevLED.ctl(Led1, led_state);
 135:Task/Task_Telemetry.c ****     // DevLED.ctl(Led3, led_state);
 136:Task/Task_Telemetry.c **** }
 137:Task/Task_Telemetry.c **** 
 138:Task/Task_Telemetry.c **** static bool Telemetry_Led_Control(bool state)
 139:Task/Task_Telemetry.c **** {
  28              		.loc 1 139 1 view -0
  29              		.cfi_startproc
  30              		@ args = 0, pretend = 0, frame = 0
  31              		@ frame_needed = 0, uses_anonymous_args = 0
  32              		.loc 1 139 1 is_stmt 0 view .LVU1
  33 0000 10B5     		push	{r4, lr}
ARM GAS  C:\Users\HUAV\AppData\Local\Temp\ccBqtc7a.s 			page 4


  34              	.LCFI0:
  35              		.cfi_def_cfa_offset 8
  36              		.cfi_offset 4, -8
  37              		.cfi_offset 14, -4
  38 0002 0346     		mov	r3, r0
 140:Task/Task_Telemetry.c ****     DevLED.ctl(Led1, state);
  39              		.loc 1 140 5 is_stmt 1 view .LVU2
  40              		.loc 1 140 11 is_stmt 0 view .LVU3
  41 0004 024A     		ldr	r2, .L3
  42 0006 5468     		ldr	r4, [r2, #4]
  43              		.loc 1 140 5 view .LVU4
  44 0008 024A     		ldr	r2, .L3+4
  45 000a 07CA     		ldm	r2, {r0, r1, r2}
  46              	.LVL1:
  47              		.loc 1 140 5 view .LVU5
  48 000c A047     		blx	r4
  49              	.LVL2:
 141:Task/Task_Telemetry.c **** }
  50              		.loc 1 141 1 view .LVU6
  51 000e 10BD     		pop	{r4, pc}
  52              	.L4:
  53              		.align	2
  54              	.L3:
  55 0010 00000000 		.word	DevLED
  56 0014 00000000 		.word	Led1
  57              		.cfi_endproc
  58              	.LFE2000:
  60              		.section	.text.Telemetry_Enable_GimbalDeadZone,"ax",%progbits
  61              		.align	1
  62              		.syntax unified
  63              		.thumb
  64              		.thumb_func
  65              		.fpu fpv5-d16
  67              	Telemetry_Enable_GimbalDeadZone:
  68              	.LVL3:
  69              	.LFB2007:
 142:Task/Task_Telemetry.c **** 
 143:Task/Task_Telemetry.c **** void TaskTelemetry_Core(Task_Handle hdl)
 144:Task/Task_Telemetry.c **** {
 145:Task/Task_Telemetry.c ****     // Telemetry_blink();
 146:Task/Task_Telemetry.c **** 
 147:Task/Task_Telemetry.c ****     DataPipe_DataObj(Rc) = Telemetry_RC_Sig_Update(&RC_Setting, &Receiver_Obj);
 148:Task/Task_Telemetry.c **** 
 149:Task/Task_Telemetry.c ****     /* pipe data out */
 150:Task/Task_Telemetry.c ****     DataPipe_SendTo(&Receiver_Smp_DataPipe, &Receiver_hub_DataPipe);
 151:Task/Task_Telemetry.c **** }
 152:Task/Task_Telemetry.c **** 
 153:Task/Task_Telemetry.c **** /************************************** telemetry receiver section ********************************
 154:Task/Task_Telemetry.c **** static bool Telemetry_RC_Sig_Init(Telemetry_RCInput_TypeDef *RC_Input_obj, SrvReceiverObj_TypeDef *
 155:Task/Task_Telemetry.c **** {
 156:Task/Task_Telemetry.c ****     uint8_t *port_ptr = NULL;
 157:Task/Task_Telemetry.c **** 
 158:Task/Task_Telemetry.c ****     memset(receiver_obj, 0, sizeof(receiver_obj));
 159:Task/Task_Telemetry.c **** 
 160:Task/Task_Telemetry.c ****     receiver_obj->port_type = Receiver_Port_Serial;
 161:Task/Task_Telemetry.c ****     receiver_obj->Frame_type = Receiver_Type_CRSF;
 162:Task/Task_Telemetry.c ****     receiver_obj->OSDTune_TriggerMs = 0;
ARM GAS  C:\Users\HUAV\AppData\Local\Temp\ccBqtc7a.s 			page 5


 163:Task/Task_Telemetry.c **** 
 164:Task/Task_Telemetry.c ****     /* create receiver port */
 165:Task/Task_Telemetry.c ****     switch (receiver_obj->port_type)
 166:Task/Task_Telemetry.c ****     {
 167:Task/Task_Telemetry.c ****     case Receiver_Port_Serial:
 168:Task/Task_Telemetry.c ****         if (receiver_obj->Frame_type == Receiver_Type_CRSF)
 169:Task/Task_Telemetry.c ****         {
 170:Task/Task_Telemetry.c ****             port_ptr = SrvReceiver.create_serial_obj(RECEIVER_PORT,
 171:Task/Task_Telemetry.c ****                                                      RECEIVER_CRSF_RX_DMA,
 172:Task/Task_Telemetry.c ****                                                      RECEIVER_CRSF_RX_DMA_STREAM,
 173:Task/Task_Telemetry.c ****                                                      RECEIVER_CRSF_TX_DMA,
 174:Task/Task_Telemetry.c ****                                                      RECEIVER_CRSF_TX_DMA_STREAM,
 175:Task/Task_Telemetry.c ****                                                      false,
 176:Task/Task_Telemetry.c ****                                                      CRSF_TX_PIN,
 177:Task/Task_Telemetry.c ****                                                      CRSF_RX_PIN);
 178:Task/Task_Telemetry.c ****         }
 179:Task/Task_Telemetry.c ****         else if (receiver_obj->Frame_type == Receiver_Type_Sbus)
 180:Task/Task_Telemetry.c ****         {
 181:Task/Task_Telemetry.c ****             port_ptr = SrvReceiver.create_serial_obj(RECEIVER_PORT,
 182:Task/Task_Telemetry.c ****                                                      RECEIVER_SBUS_RX_DMA,
 183:Task/Task_Telemetry.c ****                                                      RECEIVER_SBUS_RX_DMA_STREAM,
 184:Task/Task_Telemetry.c ****                                                      RECEIVER_SBUS_TX_DMA,
 185:Task/Task_Telemetry.c ****                                                      RECEIVER_SBUS_TX_DMA_STREAM,
 186:Task/Task_Telemetry.c ****                                                      false,
 187:Task/Task_Telemetry.c ****                                                      SBUS_TX_PIN,
 188:Task/Task_Telemetry.c ****                                                      SBUS_RX_PIN);
 189:Task/Task_Telemetry.c **** 
 190:Task/Task_Telemetry.c ****             /* set inverter pin */
 191:Task/Task_Telemetry.c ****         }
 192:Task/Task_Telemetry.c ****         break;
 193:Task/Task_Telemetry.c **** 
 194:Task/Task_Telemetry.c ****     case Receiver_Port_Spi:
 195:Task/Task_Telemetry.c ****         /* still in developing */
 196:Task/Task_Telemetry.c ****         port_ptr = SrvReceiver.create_spi_obj();
 197:Task/Task_Telemetry.c ****         break;
 198:Task/Task_Telemetry.c **** 
 199:Task/Task_Telemetry.c ****     default:
 200:Task/Task_Telemetry.c ****         return false;
 201:Task/Task_Telemetry.c ****     }
 202:Task/Task_Telemetry.c **** 
 203:Task/Task_Telemetry.c ****     /* init receiver object */
 204:Task/Task_Telemetry.c ****     RC_Input_obj->init_state = SrvReceiver.init(receiver_obj, port_ptr);
 205:Task/Task_Telemetry.c **** 
 206:Task/Task_Telemetry.c ****     RC_Input_obj->sig.arm_state = TELEMETRY_SET_ARM;
 207:Task/Task_Telemetry.c ****     RC_Input_obj->sig.buzz_state = false;
 208:Task/Task_Telemetry.c ****     RC_Input_obj->sig.osd_tune_state = false;
 209:Task/Task_Telemetry.c ****     RC_Input_obj->sig.control_mode = Telemetry_Control_Mode_Default;
 210:Task/Task_Telemetry.c ****     RC_Input_obj->sig.module_enable = TELEMETRY_DISABLE_ALL_MODULE;
 211:Task/Task_Telemetry.c **** 
 212:Task/Task_Telemetry.c ****     return RC_Input_obj->init_state;
 213:Task/Task_Telemetry.c **** }
 214:Task/Task_Telemetry.c **** 
 215:Task/Task_Telemetry.c **** static bool Telemetry_BindGimbalToChannel(Telemetry_RCInput_TypeDef *RC_Input_obj, uint16_t *data_o
 216:Task/Task_Telemetry.c **** {
 217:Task/Task_Telemetry.c ****     Telemetry_ChannelSet_TypeDef *channel_set = NULL;
 218:Task/Task_Telemetry.c **** 
 219:Task/Task_Telemetry.c ****     if ((!RC_Input_obj) ||
ARM GAS  C:\Users\HUAV\AppData\Local\Temp\ccBqtc7a.s 			page 6


 220:Task/Task_Telemetry.c ****         (!data_obj) ||
 221:Task/Task_Telemetry.c ****         (min_range < TELEMETRY_RC_CHANNEL_RANGE_MIN) ||
 222:Task/Task_Telemetry.c ****         (max_range > TELEMETRY_RC_CHANNEL_RANGE_MAX))
 223:Task/Task_Telemetry.c ****         return false;
 224:Task/Task_Telemetry.c **** 
 225:Task/Task_Telemetry.c ****     channel_set = (Telemetry_ChannelSet_TypeDef *)MMU_Malloc(sizeof(Telemetry_ChannelSet_TypeDef));
 226:Task/Task_Telemetry.c **** 
 227:Task/Task_Telemetry.c ****     if (!channel_set)
 228:Task/Task_Telemetry.c ****     {
 229:Task/Task_Telemetry.c ****         MMU_Free(channel_set);
 230:Task/Task_Telemetry.c ****         return false;
 231:Task/Task_Telemetry.c ****     }
 232:Task/Task_Telemetry.c **** 
 233:Task/Task_Telemetry.c ****     channel_set->channel_ptr = data_obj;
 234:Task/Task_Telemetry.c ****     channel_set->max = max_range;
 235:Task/Task_Telemetry.c ****     channel_set->min = min_range;
 236:Task/Task_Telemetry.c ****     channel_set->center_deadzone_scope = 0;
 237:Task/Task_Telemetry.c ****     channel_set->enable_deadzone = false;
 238:Task/Task_Telemetry.c **** 
 239:Task/Task_Telemetry.c ****     switch (tag)
 240:Task/Task_Telemetry.c ****     {
 241:Task/Task_Telemetry.c ****     case Telemetry_RC_Throttle:
 242:Task/Task_Telemetry.c ****     case Telemetry_RC_Pitch:
 243:Task/Task_Telemetry.c ****     case Telemetry_RC_Roll:
 244:Task/Task_Telemetry.c ****     case Telemetry_RC_Yaw:
 245:Task/Task_Telemetry.c ****         RC_Input_obj->Gimbal[tag].combo_cnt = 1;
 246:Task/Task_Telemetry.c ****         List_ItemInit(&(RC_Input_obj->Gimbal[tag].combo_list), channel_set);
 247:Task/Task_Telemetry.c ****         return true;
 248:Task/Task_Telemetry.c **** 
 249:Task/Task_Telemetry.c ****     default:
 250:Task/Task_Telemetry.c ****         return false;
 251:Task/Task_Telemetry.c ****     }
 252:Task/Task_Telemetry.c **** }
 253:Task/Task_Telemetry.c **** 
 254:Task/Task_Telemetry.c **** static bool Telemetry_BindToggleToChannel(Telemetry_RCInput_TypeDef *RC_Input_obj, uint16_t *data_o
 255:Task/Task_Telemetry.c **** {
 256:Task/Task_Telemetry.c ****     Telemetry_ChannelSet_TypeDef *channel_set = NULL;
 257:Task/Task_Telemetry.c **** 
 258:Task/Task_Telemetry.c ****     if ((!RC_Input_obj) ||
 259:Task/Task_Telemetry.c ****         (!data_obj) ||
 260:Task/Task_Telemetry.c ****         (min_range < TELEMETRY_RC_CHANNEL_RANGE_MIN) ||
 261:Task/Task_Telemetry.c ****         (max_range > TELEMETRY_RC_CHANNEL_RANGE_MAX))
 262:Task/Task_Telemetry.c ****         return false;
 263:Task/Task_Telemetry.c **** 
 264:Task/Task_Telemetry.c ****     channel_set = (Telemetry_ChannelSet_TypeDef *)MMU_Malloc(sizeof(Telemetry_ChannelSet_TypeDef));
 265:Task/Task_Telemetry.c **** 
 266:Task/Task_Telemetry.c ****     if (!channel_set)
 267:Task/Task_Telemetry.c ****     {
 268:Task/Task_Telemetry.c ****         MMU_Free(channel_set);
 269:Task/Task_Telemetry.c ****         return false;
 270:Task/Task_Telemetry.c ****     }
 271:Task/Task_Telemetry.c **** 
 272:Task/Task_Telemetry.c ****     channel_set->channel_ptr = data_obj;
 273:Task/Task_Telemetry.c ****     channel_set->max = max_range;
 274:Task/Task_Telemetry.c ****     channel_set->min = min_range;
 275:Task/Task_Telemetry.c **** 
 276:Task/Task_Telemetry.c ****     toggle->combo_cnt = 1;
ARM GAS  C:\Users\HUAV\AppData\Local\Temp\ccBqtc7a.s 			page 7


 277:Task/Task_Telemetry.c ****     toggle->combo_list.mode = by_order;
 278:Task/Task_Telemetry.c ****     toggle->combo_list.compare_callback = NULL;
 279:Task/Task_Telemetry.c ****     List_ItemInit(&(toggle->combo_list), channel_set);
 280:Task/Task_Telemetry.c **** 
 281:Task/Task_Telemetry.c ****     return true;
 282:Task/Task_Telemetry.c **** }
 283:Task/Task_Telemetry.c **** 
 284:Task/Task_Telemetry.c **** static bool Telemetry_AddToggleCombo(Telemetry_RCInput_TypeDef *RC_Input_obj, uint16_t *data_obj, T
 285:Task/Task_Telemetry.c **** {
 286:Task/Task_Telemetry.c ****     Telemetry_ChannelSet_TypeDef *channel_set = NULL;
 287:Task/Task_Telemetry.c ****     item_obj *item = NULL;
 288:Task/Task_Telemetry.c **** 
 289:Task/Task_Telemetry.c ****     if ((!RC_Input_obj) ||
 290:Task/Task_Telemetry.c ****         (!data_obj) ||
 291:Task/Task_Telemetry.c ****         (min_range < TELEMETRY_RC_CHANNEL_RANGE_MIN) ||
 292:Task/Task_Telemetry.c ****         (max_range > TELEMETRY_RC_CHANNEL_RANGE_MAX))
 293:Task/Task_Telemetry.c ****         return false;
 294:Task/Task_Telemetry.c **** 
 295:Task/Task_Telemetry.c ****     channel_set = (Telemetry_ChannelSet_TypeDef *)MMU_Malloc(sizeof(Telemetry_ChannelSet_TypeDef));
 296:Task/Task_Telemetry.c **** 
 297:Task/Task_Telemetry.c ****     if (!channel_set)
 298:Task/Task_Telemetry.c ****     {
 299:Task/Task_Telemetry.c ****         MMU_Free(channel_set);
 300:Task/Task_Telemetry.c ****         return false;
 301:Task/Task_Telemetry.c ****     }
 302:Task/Task_Telemetry.c **** 
 303:Task/Task_Telemetry.c ****     item = (item_obj *)MMU_Malloc(sizeof(item_obj));
 304:Task/Task_Telemetry.c **** 
 305:Task/Task_Telemetry.c ****     if (!item)
 306:Task/Task_Telemetry.c ****     {
 307:Task/Task_Telemetry.c ****         MMU_Free(item);
 308:Task/Task_Telemetry.c ****         return false;
 309:Task/Task_Telemetry.c ****     }
 310:Task/Task_Telemetry.c **** 
 311:Task/Task_Telemetry.c ****     channel_set->channel_ptr = data_obj;
 312:Task/Task_Telemetry.c ****     channel_set->max = max_range;
 313:Task/Task_Telemetry.c ****     channel_set->min = min_range;
 314:Task/Task_Telemetry.c **** 
 315:Task/Task_Telemetry.c ****     toggle->combo_cnt++;
 316:Task/Task_Telemetry.c ****     List_ItemInit(item, channel_set);
 317:Task/Task_Telemetry.c ****     List_Insert_Item(&toggle->combo_list, item);
 318:Task/Task_Telemetry.c **** 
 319:Task/Task_Telemetry.c ****     return true;
 320:Task/Task_Telemetry.c **** }
 321:Task/Task_Telemetry.c **** 
 322:Task/Task_Telemetry.c **** static Telemetry_ToggleData_TypeDef Telemetry_Toggle_Check(Telemetry_RCFuncMap_TypeDef *toggle)
 323:Task/Task_Telemetry.c **** {
 324:Task/Task_Telemetry.c ****     Telemetry_ToggleData_TypeDef toggle_val;
 325:Task/Task_Telemetry.c ****     uint8_t pos_reg = 0;
 326:Task/Task_Telemetry.c **** 
 327:Task/Task_Telemetry.c ****     toggle_val.pos = 0;
 328:Task/Task_Telemetry.c ****     toggle_val.cnt = 0;
 329:Task/Task_Telemetry.c ****     toggle_val.state = false;
 330:Task/Task_Telemetry.c ****     item_obj *nxt = &toggle->combo_list;
 331:Task/Task_Telemetry.c ****     Telemetry_ChannelSet_TypeDef *channel_data = NULL;
 332:Task/Task_Telemetry.c **** 
 333:Task/Task_Telemetry.c ****     if (!toggle)
ARM GAS  C:\Users\HUAV\AppData\Local\Temp\ccBqtc7a.s 			page 8


 334:Task/Task_Telemetry.c ****         return toggle_val;
 335:Task/Task_Telemetry.c **** 
 336:Task/Task_Telemetry.c ****     /* do not use list traverse here */
 337:Task/Task_Telemetry.c ****     while (nxt)
 338:Task/Task_Telemetry.c ****     {
 339:Task/Task_Telemetry.c ****         channel_data = (Telemetry_ChannelSet_TypeDef *)nxt->data;
 340:Task/Task_Telemetry.c **** 
 341:Task/Task_Telemetry.c ****         if (!channel_data ||
 342:Task/Task_Telemetry.c ****             (((*(uint16_t *)channel_data->channel_ptr) < channel_data->max) &&
 343:Task/Task_Telemetry.c ****              ((*(uint16_t *)channel_data->channel_ptr) > channel_data->min)))
 344:Task/Task_Telemetry.c ****         {
 345:Task/Task_Telemetry.c ****             pos_reg |= 1 << toggle_val.pos;
 346:Task/Task_Telemetry.c ****             toggle_val.cnt++;
 347:Task/Task_Telemetry.c ****         }
 348:Task/Task_Telemetry.c **** 
 349:Task/Task_Telemetry.c ****         toggle_val.pos++;
 350:Task/Task_Telemetry.c ****         nxt = nxt->nxt;
 351:Task/Task_Telemetry.c ****     }
 352:Task/Task_Telemetry.c **** 
 353:Task/Task_Telemetry.c ****     /* get the number of the bit on set */
 354:Task/Task_Telemetry.c ****     if (Get_OnSet_Bit_Num(pos_reg) == 1)
 355:Task/Task_Telemetry.c ****     {
 356:Task/Task_Telemetry.c ****         /* only on bit been set */
 357:Task/Task_Telemetry.c ****         toggle_val.pos = Get_Bit_Index(pos_reg);
 358:Task/Task_Telemetry.c ****     }
 359:Task/Task_Telemetry.c ****     else
 360:Task/Task_Telemetry.c ****     {
 361:Task/Task_Telemetry.c ****         /* many bits been set on pos_reg */
 362:Task/Task_Telemetry.c ****         toggle_val.pos = 0;
 363:Task/Task_Telemetry.c ****     }
 364:Task/Task_Telemetry.c **** 
 365:Task/Task_Telemetry.c ****     if (toggle_val.cnt == toggle->combo_cnt)
 366:Task/Task_Telemetry.c ****         toggle_val.state = true;
 367:Task/Task_Telemetry.c **** 
 368:Task/Task_Telemetry.c ****     return toggle_val;
 369:Task/Task_Telemetry.c **** }
 370:Task/Task_Telemetry.c **** 
 371:Task/Task_Telemetry.c **** static void Telemetry_Enable_GimbalDeadZone(Telemetry_RCFuncMap_TypeDef *gimbal, uint16_t scope)
 372:Task/Task_Telemetry.c **** {
  70              		.loc 1 372 1 is_stmt 1 view -0
  71              		.cfi_startproc
  72              		@ args = 0, pretend = 0, frame = 0
  73              		@ frame_needed = 0, uses_anonymous_args = 0
  74              		@ link register save eliminated.
 373:Task/Task_Telemetry.c ****     Telemetry_ChannelSet_TypeDef *gimbal_channel = NULL;
  75              		.loc 1 373 5 view .LVU8
 374:Task/Task_Telemetry.c **** 
 375:Task/Task_Telemetry.c ****     if (gimbal)
  76              		.loc 1 375 5 view .LVU9
  77              		.loc 1 375 8 is_stmt 0 view .LVU10
  78 0000 28B1     		cbz	r0, .L5
 376:Task/Task_Telemetry.c ****     {
 377:Task/Task_Telemetry.c ****         gimbal_channel = gimbal->combo_list.data;
  79              		.loc 1 377 9 is_stmt 1 view .LVU11
  80              		.loc 1 377 24 is_stmt 0 view .LVU12
  81 0002 0369     		ldr	r3, [r0, #16]	@ unaligned
  82              	.LVL4:
ARM GAS  C:\Users\HUAV\AppData\Local\Temp\ccBqtc7a.s 			page 9


 378:Task/Task_Telemetry.c **** 
 379:Task/Task_Telemetry.c ****         if (gimbal_channel)
  83              		.loc 1 379 9 is_stmt 1 view .LVU13
  84              		.loc 1 379 12 is_stmt 0 view .LVU14
  85 0004 1BB1     		cbz	r3, .L5
 380:Task/Task_Telemetry.c ****         {
 381:Task/Task_Telemetry.c ****             gimbal_channel->center_deadzone_scope = scope;
  86              		.loc 1 381 13 is_stmt 1 view .LVU15
  87              		.loc 1 381 51 is_stmt 0 view .LVU16
  88 0006 A3F80110 		strh	r1, [r3, #1]	@ unaligned
 382:Task/Task_Telemetry.c ****             gimbal_channel->enable_deadzone = true;
  89              		.loc 1 382 13 is_stmt 1 view .LVU17
  90              		.loc 1 382 45 is_stmt 0 view .LVU18
  91 000a 0122     		movs	r2, #1
  92 000c 1A70     		strb	r2, [r3]
  93              	.LVL5:
  94              	.L5:
 383:Task/Task_Telemetry.c ****         }
 384:Task/Task_Telemetry.c ****     }
 385:Task/Task_Telemetry.c **** }
  95              		.loc 1 385 1 view .LVU19
  96 000e 7047     		bx	lr
  97              		.cfi_endproc
  98              	.LFE2007:
 100              		.section	.text.Telemetry_GimbalToPercent,"ax",%progbits
 101              		.align	1
 102              		.syntax unified
 103              		.thumb
 104              		.thumb_func
 105              		.fpu fpv5-d16
 107              	Telemetry_GimbalToPercent:
 108              	.LVL6:
 109              	.LFB2009:
 386:Task/Task_Telemetry.c **** 
 387:Task/Task_Telemetry.c **** static uint16_t Telemetry_Check_Gimbal(Telemetry_RCFuncMap_TypeDef *gimbal)
 388:Task/Task_Telemetry.c **** {
 389:Task/Task_Telemetry.c ****     Telemetry_ChannelSet_TypeDef *gimbal_channel = NULL;
 390:Task/Task_Telemetry.c **** 
 391:Task/Task_Telemetry.c ****     if (gimbal == NULL)
 392:Task/Task_Telemetry.c ****         return TELEMETRY_RC_CHANNEL_RANGE_MIN;
 393:Task/Task_Telemetry.c **** 
 394:Task/Task_Telemetry.c ****     gimbal_channel = gimbal->combo_list.data;
 395:Task/Task_Telemetry.c **** 
 396:Task/Task_Telemetry.c ****     if ((gimbal_channel == NULL) || (gimbal_channel->min >= gimbal_channel->max))
 397:Task/Task_Telemetry.c ****         return TELEMETRY_RC_CHANNEL_RANGE_MIN;
 398:Task/Task_Telemetry.c **** 
 399:Task/Task_Telemetry.c ****     if (*gimbal_channel->channel_ptr < gimbal_channel->min)
 400:Task/Task_Telemetry.c ****         return gimbal_channel->min;
 401:Task/Task_Telemetry.c **** 
 402:Task/Task_Telemetry.c ****     if (*gimbal_channel->channel_ptr > gimbal_channel->max)
 403:Task/Task_Telemetry.c ****         return gimbal_channel->max;
 404:Task/Task_Telemetry.c **** 
 405:Task/Task_Telemetry.c ****     return *gimbal_channel->channel_ptr;
 406:Task/Task_Telemetry.c **** }
 407:Task/Task_Telemetry.c **** 
 408:Task/Task_Telemetry.c **** static uint16_t Telemetry_GimbalToPercent(Telemetry_RCFuncMap_TypeDef *gimbal)
 409:Task/Task_Telemetry.c **** {
ARM GAS  C:\Users\HUAV\AppData\Local\Temp\ccBqtc7a.s 			page 10


 110              		.loc 1 409 1 is_stmt 1 view -0
 111              		.cfi_startproc
 112              		@ args = 0, pretend = 0, frame = 0
 113              		@ frame_needed = 0, uses_anonymous_args = 0
 410:Task/Task_Telemetry.c ****     Telemetry_ChannelSet_TypeDef *gimbal_channel = NULL;
 114              		.loc 1 410 5 view .LVU21
 411:Task/Task_Telemetry.c ****     uint16_t gimbal_range = 0;
 115              		.loc 1 411 5 view .LVU22
 412:Task/Task_Telemetry.c ****     float percent = 0.0f;
 116              		.loc 1 412 5 view .LVU23
 413:Task/Task_Telemetry.c **** 
 414:Task/Task_Telemetry.c ****     if (gimbal == NULL)
 117              		.loc 1 414 5 view .LVU24
 118              		.loc 1 414 8 is_stmt 0 view .LVU25
 119 0000 A0B3     		cbz	r0, .L10
 415:Task/Task_Telemetry.c ****         return 0;
 416:Task/Task_Telemetry.c **** 
 417:Task/Task_Telemetry.c ****     gimbal_channel = gimbal->combo_list.data;
 120              		.loc 1 417 5 is_stmt 1 view .LVU26
 121              		.loc 1 417 20 is_stmt 0 view .LVU27
 122 0002 0369     		ldr	r3, [r0, #16]	@ unaligned
 123              	.LVL7:
 418:Task/Task_Telemetry.c **** 
 419:Task/Task_Telemetry.c ****     if ((gimbal_channel == NULL) || (gimbal_channel->min >= gimbal_channel->max))
 124              		.loc 1 419 5 is_stmt 1 view .LVU28
 125              		.loc 1 419 8 is_stmt 0 view .LVU29
 126 0004 A3B3     		cbz	r3, .L11
 127              		.loc 1 419 52 discriminator 1 view .LVU30
 128 0006 B3F80310 		ldrh	r1, [r3, #3]	@ unaligned
 129              		.loc 1 419 75 discriminator 1 view .LVU31
 130 000a B3F80720 		ldrh	r2, [r3, #7]	@ unaligned
 131              		.loc 1 419 34 discriminator 1 view .LVU32
 132 000e 9142     		cmp	r1, r2
 133 0010 30D2     		bcs	.L12
 409:Task/Task_Telemetry.c ****     Telemetry_ChannelSet_TypeDef *gimbal_channel = NULL;
 134              		.loc 1 409 1 view .LVU33
 135 0012 10B5     		push	{r4, lr}
 136              	.LCFI1:
 137              		.cfi_def_cfa_offset 8
 138              		.cfi_offset 4, -8
 139              		.cfi_offset 14, -4
 420:Task/Task_Telemetry.c ****         return 0;
 421:Task/Task_Telemetry.c **** 
 422:Task/Task_Telemetry.c ****     if (gimbal_channel->enable_deadzone)
 140              		.loc 1 422 5 is_stmt 1 view .LVU34
 141              		.loc 1 422 23 is_stmt 0 view .LVU35
 142 0014 1878     		ldrb	r0, [r3]	@ zero_extendqisi2
 143              	.LVL8:
 144              		.loc 1 422 8 view .LVU36
 145 0016 78B1     		cbz	r0, .L9
 423:Task/Task_Telemetry.c ****     {
 424:Task/Task_Telemetry.c ****         if (*gimbal_channel->channel_ptr < (gimbal_channel->mid + gimbal_channel->center_deadzone_s
 146              		.loc 1 424 9 is_stmt 1 view .LVU37
 147              		.loc 1 424 28 is_stmt 0 view .LVU38
 148 0018 D3F80900 		ldr	r0, [r3, #9]	@ unaligned
 149              		.loc 1 424 13 view .LVU39
 150 001c B0F800C0 		ldrh	ip, [r0]
ARM GAS  C:\Users\HUAV\AppData\Local\Temp\ccBqtc7a.s 			page 11


 151              		.loc 1 424 59 view .LVU40
 152 0020 B3F80500 		ldrh	r0, [r3, #5]	@ unaligned
 153              		.loc 1 424 81 view .LVU41
 154 0024 B3F801E0 		ldrh	lr, [r3, #1]	@ unaligned
 155              		.loc 1 424 65 view .LVU42
 156 0028 00EB0E04 		add	r4, r0, lr
 157              		.loc 1 424 12 view .LVU43
 158 002c A445     		cmp	ip, r4
 159 002e 23DB     		blt	.L13
 425:Task/Task_Telemetry.c ****             (*gimbal_channel->channel_ptr > (gimbal_channel->mid - gimbal_channel->center_deadzone_
 160              		.loc 1 425 66 discriminator 1 view .LVU44
 161 0030 A0EB0E00 		sub	r0, r0, lr
 424:Task/Task_Telemetry.c ****             (*gimbal_channel->channel_ptr > (gimbal_channel->mid - gimbal_channel->center_deadzone_
 162              		.loc 1 424 106 discriminator 1 view .LVU45
 163 0034 8445     		cmp	ip, r0
 164 0036 21DC     		bgt	.L14
 165              	.L9:
 426:Task/Task_Telemetry.c ****             return 50;
 427:Task/Task_Telemetry.c ****     }
 428:Task/Task_Telemetry.c **** 
 429:Task/Task_Telemetry.c ****     gimbal_range = gimbal_channel->max - gimbal_channel->min;
 166              		.loc 1 429 5 is_stmt 1 view .LVU46
 167              		.loc 1 429 18 is_stmt 0 view .LVU47
 168 0038 521A     		subs	r2, r2, r1
 169 003a 92B2     		uxth	r2, r2
 170              	.LVL9:
 430:Task/Task_Telemetry.c ****     percent = (float)(*gimbal_channel->channel_ptr - gimbal_channel->min) / gimbal_range;
 171              		.loc 1 430 5 is_stmt 1 view .LVU48
 172              		.loc 1 430 38 is_stmt 0 view .LVU49
 173 003c D3F80930 		ldr	r3, [r3, #9]	@ unaligned
 174              	.LVL10:
 175              		.loc 1 430 23 view .LVU50
 176 0040 1B88     		ldrh	r3, [r3]
 177              		.loc 1 430 52 view .LVU51
 178 0042 5B1A     		subs	r3, r3, r1
 179              		.loc 1 430 15 view .LVU52
 180 0044 07EE903A 		vmov	s15, r3	@ int
 181 0048 F8EEE76A 		vcvt.f32.s32	s13, s15
 182              		.loc 1 430 75 view .LVU53
 183 004c 07EE902A 		vmov	s15, r2	@ int
 184 0050 B8EEE77A 		vcvt.f32.s32	s14, s15
 185              		.loc 1 430 13 view .LVU54
 186 0054 C6EE877A 		vdiv.f32	s15, s13, s14
 187              	.LVL11:
 431:Task/Task_Telemetry.c ****     percent *= 100;
 188              		.loc 1 431 5 is_stmt 1 view .LVU55
 189              		.loc 1 431 13 is_stmt 0 view .LVU56
 190 0058 9FED097A 		vldr.32	s14, .L19
 191 005c 67EE877A 		vmul.f32	s15, s15, s14
 192              	.LVL12:
 432:Task/Task_Telemetry.c **** 
 433:Task/Task_Telemetry.c ****     return (uint16_t)percent;
 193              		.loc 1 433 5 is_stmt 1 view .LVU57
 194              		.loc 1 433 12 is_stmt 0 view .LVU58
 195 0060 FCEEE77A 		vcvt.u32.f32	s15, s15
 196              	.LVL13:
 197              		.loc 1 433 12 view .LVU59
ARM GAS  C:\Users\HUAV\AppData\Local\Temp\ccBqtc7a.s 			page 12


 198 0064 17EE903A 		vmov	r3, s15	@ int
 199 0068 98B2     		uxth	r0, r3
 200              	.LVL14:
 201              	.L8:
 434:Task/Task_Telemetry.c **** }
 202              		.loc 1 434 1 view .LVU60
 203 006a 10BD     		pop	{r4, pc}
 204              	.LVL15:
 205              	.L10:
 206              	.LCFI2:
 207              		.cfi_def_cfa_offset 0
 208              		.cfi_restore 4
 209              		.cfi_restore 14
 415:Task/Task_Telemetry.c **** 
 210              		.loc 1 415 16 view .LVU61
 211 006c 0020     		movs	r0, #0
 212              	.LVL16:
 415:Task/Task_Telemetry.c **** 
 213              		.loc 1 415 16 view .LVU62
 214 006e 7047     		bx	lr
 215              	.LVL17:
 216              	.L11:
 420:Task/Task_Telemetry.c **** 
 217              		.loc 1 420 16 view .LVU63
 218 0070 0020     		movs	r0, #0
 219              	.LVL18:
 420:Task/Task_Telemetry.c **** 
 220              		.loc 1 420 16 view .LVU64
 221 0072 7047     		bx	lr
 222              	.LVL19:
 223              	.L12:
 420:Task/Task_Telemetry.c **** 
 224              		.loc 1 420 16 view .LVU65
 225 0074 0020     		movs	r0, #0
 226              	.LVL20:
 227              		.loc 1 434 1 view .LVU66
 228 0076 7047     		bx	lr
 229              	.L13:
 230              	.LCFI3:
 231              		.cfi_def_cfa_offset 8
 232              		.cfi_offset 4, -8
 233              		.cfi_offset 14, -4
 426:Task/Task_Telemetry.c ****     }
 234              		.loc 1 426 20 view .LVU67
 235 0078 3220     		movs	r0, #50
 236 007a F6E7     		b	.L8
 237              	.L14:
 238 007c 3220     		movs	r0, #50
 239 007e F4E7     		b	.L8
 240              	.L20:
 241              		.align	2
 242              	.L19:
 243 0080 0000C842 		.word	1120403456
 244              		.cfi_endproc
 245              	.LFE2009:
 247              		.section	.text.Telemetry_RC_Sig_Init,"ax",%progbits
 248              		.align	1
ARM GAS  C:\Users\HUAV\AppData\Local\Temp\ccBqtc7a.s 			page 13


 249              		.syntax unified
 250              		.thumb
 251              		.thumb_func
 252              		.fpu fpv5-d16
 254              	Telemetry_RC_Sig_Init:
 255              	.LVL21:
 256              	.LFB2002:
 155:Task/Task_Telemetry.c ****     uint8_t *port_ptr = NULL;
 257              		.loc 1 155 1 is_stmt 1 view -0
 258              		.cfi_startproc
 259              		@ args = 0, pretend = 0, frame = 0
 260              		@ frame_needed = 0, uses_anonymous_args = 0
 155:Task/Task_Telemetry.c ****     uint8_t *port_ptr = NULL;
 261              		.loc 1 155 1 is_stmt 0 view .LVU69
 262 0000 2DE9F043 		push	{r4, r5, r6, r7, r8, r9, lr}
 263              	.LCFI4:
 264              		.cfi_def_cfa_offset 28
 265              		.cfi_offset 4, -28
 266              		.cfi_offset 5, -24
 267              		.cfi_offset 6, -20
 268              		.cfi_offset 7, -16
 269              		.cfi_offset 8, -12
 270              		.cfi_offset 9, -8
 271              		.cfi_offset 14, -4
 272 0004 89B0     		sub	sp, sp, #36
 273              	.LCFI5:
 274              		.cfi_def_cfa_offset 64
 275 0006 0546     		mov	r5, r0
 276 0008 0E46     		mov	r6, r1
 156:Task/Task_Telemetry.c **** 
 277              		.loc 1 156 5 is_stmt 1 view .LVU70
 278              	.LVL22:
 158:Task/Task_Telemetry.c **** 
 279              		.loc 1 158 5 view .LVU71
 280 000a 0024     		movs	r4, #0
 281 000c 0C60     		str	r4, [r1]	@ unaligned
 160:Task/Task_Telemetry.c ****     receiver_obj->Frame_type = Receiver_Type_CRSF;
 282              		.loc 1 160 5 view .LVU72
 160:Task/Task_Telemetry.c ****     receiver_obj->Frame_type = Receiver_Type_CRSF;
 283              		.loc 1 160 29 is_stmt 0 view .LVU73
 284 000e 4FF00109 		mov	r9, #1
 285 0012 81F80190 		strb	r9, [r1, #1]
 161:Task/Task_Telemetry.c ****     receiver_obj->OSDTune_TriggerMs = 0;
 286              		.loc 1 161 5 is_stmt 1 view .LVU74
 161:Task/Task_Telemetry.c ****     receiver_obj->OSDTune_TriggerMs = 0;
 287              		.loc 1 161 30 is_stmt 0 view .LVU75
 288 0016 0B46     		mov	r3, r1
 289 0018 03F82F9B 		strb	r9, [r3], #47
 162:Task/Task_Telemetry.c **** 
 290              		.loc 1 162 5 is_stmt 1 view .LVU76
 162:Task/Task_Telemetry.c **** 
 291              		.loc 1 162 37 is_stmt 0 view .LVU77
 292 001c 81F82F40 		strb	r4, [r1, #47]
 293 0020 5C70     		strb	r4, [r3, #1]
 294 0022 9C70     		strb	r4, [r3, #2]
 295 0024 DC70     		strb	r4, [r3, #3]
 296 0026 1C71     		strb	r4, [r3, #4]
ARM GAS  C:\Users\HUAV\AppData\Local\Temp\ccBqtc7a.s 			page 14


 297 0028 5C71     		strb	r4, [r3, #5]
 298 002a 9C71     		strb	r4, [r3, #6]
 299 002c DC71     		strb	r4, [r3, #7]
 165:Task/Task_Telemetry.c ****     {
 300              		.loc 1 165 5 is_stmt 1 view .LVU78
 168:Task/Task_Telemetry.c ****         {
 301              		.loc 1 168 9 view .LVU79
 170:Task/Task_Telemetry.c ****                                                      RECEIVER_CRSF_RX_DMA,
 302              		.loc 1 170 13 view .LVU80
 170:Task/Task_Telemetry.c ****                                                      RECEIVER_CRSF_RX_DMA,
 303              		.loc 1 170 35 is_stmt 0 view .LVU81
 304 002e DFF85880 		ldr	r8, .L23+12
 170:Task/Task_Telemetry.c ****                                                      RECEIVER_CRSF_RX_DMA,
 305              		.loc 1 170 24 view .LVU82
 306 0032 124A     		ldr	r2, .L23
 307 0034 05AB     		add	r3, sp, #20
 308 0036 07CA     		ldm	r2, {r0, r1, r2}
 309              	.LVL23:
 170:Task/Task_Telemetry.c ****                                                      RECEIVER_CRSF_RX_DMA,
 310              		.loc 1 170 24 view .LVU83
 311 0038 83E80700 		stm	r3, {r0, r1, r2}
 312 003c 104A     		ldr	r2, .L23+4
 313 003e 02AB     		add	r3, sp, #8
 314 0040 07CA     		ldm	r2, {r0, r1, r2}
 315 0042 83E80700 		stm	r3, {r0, r1, r2}
 316 0046 0194     		str	r4, [sp, #4]
 317 0048 4FF0FF31 		mov	r1, #-1
 318 004c 0091     		str	r1, [sp]
 319 004e 0B46     		mov	r3, r1
 320 0050 0A46     		mov	r2, r1
 321 0052 0C48     		ldr	r0, .L23+8
 322 0054 D8F80070 		ldr	r7, [r8]
 323 0058 B847     		blx	r7
 324              	.LVL24:
 325 005a 0146     		mov	r1, r0
 326              	.LVL25:
 204:Task/Task_Telemetry.c **** 
 327              		.loc 1 204 5 is_stmt 1 view .LVU84
 204:Task/Task_Telemetry.c **** 
 328              		.loc 1 204 43 is_stmt 0 view .LVU85
 329 005c D8F80830 		ldr	r3, [r8, #8]
 204:Task/Task_Telemetry.c **** 
 330              		.loc 1 204 32 view .LVU86
 331 0060 3046     		mov	r0, r6
 332              	.LVL26:
 204:Task/Task_Telemetry.c **** 
 333              		.loc 1 204 32 view .LVU87
 334 0062 9847     		blx	r3
 335              	.LVL27:
 204:Task/Task_Telemetry.c **** 
 336              		.loc 1 204 30 view .LVU88
 337 0064 2870     		strb	r0, [r5]
 206:Task/Task_Telemetry.c ****     RC_Input_obj->sig.buzz_state = false;
 338              		.loc 1 206 5 is_stmt 1 view .LVU89
 206:Task/Task_Telemetry.c ****     RC_Input_obj->sig.buzz_state = false;
 339              		.loc 1 206 33 is_stmt 0 view .LVU90
 340 0066 85F80990 		strb	r9, [r5, #9]
ARM GAS  C:\Users\HUAV\AppData\Local\Temp\ccBqtc7a.s 			page 15


 207:Task/Task_Telemetry.c ****     RC_Input_obj->sig.osd_tune_state = false;
 341              		.loc 1 207 5 is_stmt 1 view .LVU91
 207:Task/Task_Telemetry.c ****     RC_Input_obj->sig.osd_tune_state = false;
 342              		.loc 1 207 34 is_stmt 0 view .LVU92
 343 006a AC72     		strb	r4, [r5, #10]
 208:Task/Task_Telemetry.c ****     RC_Input_obj->sig.control_mode = Telemetry_Control_Mode_Default;
 344              		.loc 1 208 5 is_stmt 1 view .LVU93
 208:Task/Task_Telemetry.c ****     RC_Input_obj->sig.control_mode = Telemetry_Control_Mode_Default;
 345              		.loc 1 208 38 is_stmt 0 view .LVU94
 346 006c EC72     		strb	r4, [r5, #11]
 209:Task/Task_Telemetry.c ****     RC_Input_obj->sig.module_enable = TELEMETRY_DISABLE_ALL_MODULE;
 347              		.loc 1 209 5 is_stmt 1 view .LVU95
 209:Task/Task_Telemetry.c ****     RC_Input_obj->sig.module_enable = TELEMETRY_DISABLE_ALL_MODULE;
 348              		.loc 1 209 36 is_stmt 0 view .LVU96
 349 006e 85F81590 		strb	r9, [r5, #21]
 210:Task/Task_Telemetry.c **** 
 350              		.loc 1 210 5 is_stmt 1 view .LVU97
 210:Task/Task_Telemetry.c **** 
 351              		.loc 1 210 37 is_stmt 0 view .LVU98
 352 0072 AC75     		strb	r4, [r5, #22]
 353 0074 EC75     		strb	r4, [r5, #23]
 212:Task/Task_Telemetry.c **** }
 354              		.loc 1 212 5 is_stmt 1 view .LVU99
 213:Task/Task_Telemetry.c **** 
 355              		.loc 1 213 1 is_stmt 0 view .LVU100
 356 0076 09B0     		add	sp, sp, #36
 357              	.LCFI6:
 358              		.cfi_def_cfa_offset 28
 359              		@ sp needed
 360 0078 BDE8F083 		pop	{r4, r5, r6, r7, r8, r9, pc}
 361              	.LVL28:
 362              	.L24:
 213:Task/Task_Telemetry.c **** 
 363              		.loc 1 213 1 view .LVU101
 364              		.align	2
 365              	.L23:
 366 007c 00000000 		.word	Uart4_RxPin
 367 0080 00000000 		.word	Uart4_TxPin
 368 0084 004C0040 		.word	1073761280
 369 0088 00000000 		.word	SrvReceiver
 370              		.cfi_endproc
 371              	.LFE2002:
 373              		.section	.text.Telemetry_BindGimbalToChannel,"ax",%progbits
 374              		.align	1
 375              		.syntax unified
 376              		.thumb
 377              		.thumb_func
 378              		.fpu fpv5-d16
 380              	Telemetry_BindGimbalToChannel:
 381              	.LVL29:
 382              	.LFB2003:
 216:Task/Task_Telemetry.c ****     Telemetry_ChannelSet_TypeDef *channel_set = NULL;
 383              		.loc 1 216 1 is_stmt 1 view -0
 384              		.cfi_startproc
 385              		@ args = 8, pretend = 0, frame = 0
 386              		@ frame_needed = 0, uses_anonymous_args = 0
 216:Task/Task_Telemetry.c ****     Telemetry_ChannelSet_TypeDef *channel_set = NULL;
ARM GAS  C:\Users\HUAV\AppData\Local\Temp\ccBqtc7a.s 			page 16


 387              		.loc 1 216 1 is_stmt 0 view .LVU103
 388 0000 2DE9F843 		push	{r3, r4, r5, r6, r7, r8, r9, lr}
 389              	.LCFI7:
 390              		.cfi_def_cfa_offset 32
 391              		.cfi_offset 3, -32
 392              		.cfi_offset 4, -28
 393              		.cfi_offset 5, -24
 394              		.cfi_offset 6, -20
 395              		.cfi_offset 7, -16
 396              		.cfi_offset 8, -12
 397              		.cfi_offset 9, -8
 398              		.cfi_offset 14, -4
 399 0004 BDF82470 		ldrh	r7, [sp, #36]
 217:Task/Task_Telemetry.c **** 
 400              		.loc 1 217 5 is_stmt 1 view .LVU104
 401              	.LVL30:
 219:Task/Task_Telemetry.c ****         (!data_obj) ||
 402              		.loc 1 219 5 view .LVU105
 219:Task/Task_Telemetry.c ****         (!data_obj) ||
 403              		.loc 1 219 10 is_stmt 0 view .LVU106
 404 0008 8046     		mov	r8, r0
 219:Task/Task_Telemetry.c ****         (!data_obj) ||
 405              		.loc 1 219 8 view .LVU107
 406 000a 0029     		cmp	r1, #0
 407 000c 18BF     		it	ne
 408 000e 0028     		cmpne	r0, #0
 409 0010 0CBF     		ite	eq
 410 0012 0120     		moveq	r0, #1
 411              	.LVL31:
 219:Task/Task_Telemetry.c ****         (!data_obj) ||
 412              		.loc 1 219 8 view .LVU108
 413 0014 0020     		movne	r0, #0
 414 0016 34D0     		beq	.L28
 415 0018 1446     		mov	r4, r2
 416 001a 1E46     		mov	r6, r3
 417 001c 8946     		mov	r9, r1
 222:Task/Task_Telemetry.c ****         return false;
 418              		.loc 1 222 20 view .LVU109
 419 001e 40F26C75 		movw	r5, #1900
 420 0022 AF42     		cmp	r7, r5
 421 0024 94BF     		ite	ls
 422 0026 0025     		movls	r5, #0
 423 0028 0125     		movhi	r5, #1
 221:Task/Task_Telemetry.c ****         (max_range > TELEMETRY_RC_CHANNEL_RANGE_MAX))
 424              		.loc 1 221 54 view .LVU110
 425 002a 632B     		cmp	r3, #99
 426 002c 98BF     		it	ls
 427 002e 45F00105 		orrls	r5, r5, #1
 428 0032 3DBB     		cbnz	r5, .L26
 225:Task/Task_Telemetry.c **** 
 429              		.loc 1 225 5 is_stmt 1 view .LVU111
 225:Task/Task_Telemetry.c **** 
 430              		.loc 1 225 51 is_stmt 0 view .LVU112
 431 0034 0F20     		movs	r0, #15
 432 0036 FFF7FEFF 		bl	MMU_Malloc
 433              	.LVL32:
 227:Task/Task_Telemetry.c ****     {
ARM GAS  C:\Users\HUAV\AppData\Local\Temp\ccBqtc7a.s 			page 17


 434              		.loc 1 227 5 is_stmt 1 view .LVU113
 227:Task/Task_Telemetry.c ****     {
 435              		.loc 1 227 8 is_stmt 0 view .LVU114
 436 003a 0146     		mov	r1, r0
 437 003c 68B1     		cbz	r0, .L31
 233:Task/Task_Telemetry.c ****     channel_set->max = max_range;
 438              		.loc 1 233 5 is_stmt 1 view .LVU115
 233:Task/Task_Telemetry.c ****     channel_set->max = max_range;
 439              		.loc 1 233 30 is_stmt 0 view .LVU116
 440 003e C0F80990 		str	r9, [r0, #9]	@ unaligned
 234:Task/Task_Telemetry.c ****     channel_set->min = min_range;
 441              		.loc 1 234 5 is_stmt 1 view .LVU117
 234:Task/Task_Telemetry.c ****     channel_set->min = min_range;
 442              		.loc 1 234 22 is_stmt 0 view .LVU118
 443 0042 A0F80770 		strh	r7, [r0, #7]	@ unaligned
 235:Task/Task_Telemetry.c ****     channel_set->center_deadzone_scope = 0;
 444              		.loc 1 235 5 is_stmt 1 view .LVU119
 235:Task/Task_Telemetry.c ****     channel_set->center_deadzone_scope = 0;
 445              		.loc 1 235 22 is_stmt 0 view .LVU120
 446 0046 A0F80360 		strh	r6, [r0, #3]	@ unaligned
 236:Task/Task_Telemetry.c ****     channel_set->enable_deadzone = false;
 447              		.loc 1 236 5 is_stmt 1 view .LVU121
 236:Task/Task_Telemetry.c ****     channel_set->enable_deadzone = false;
 448              		.loc 1 236 40 is_stmt 0 view .LVU122
 449 004a 0023     		movs	r3, #0
 450 004c 4370     		strb	r3, [r0, #1]
 451 004e 8370     		strb	r3, [r0, #2]
 237:Task/Task_Telemetry.c **** 
 452              		.loc 1 237 5 is_stmt 1 view .LVU123
 237:Task/Task_Telemetry.c **** 
 453              		.loc 1 237 34 is_stmt 0 view .LVU124
 454 0050 0370     		strb	r3, [r0]
 239:Task/Task_Telemetry.c ****     {
 455              		.loc 1 239 5 is_stmt 1 view .LVU125
 456 0052 032C     		cmp	r4, #3
 457 0054 05D9     		bls	.L32
 250:Task/Task_Telemetry.c ****     }
 458              		.loc 1 250 16 is_stmt 0 view .LVU126
 459 0056 2846     		mov	r0, r5
 460              	.LVL33:
 250:Task/Task_Telemetry.c ****     }
 461              		.loc 1 250 16 view .LVU127
 462 0058 14E0     		b	.L26
 463              	.LVL34:
 464              	.L31:
 229:Task/Task_Telemetry.c ****         return false;
 465              		.loc 1 229 9 is_stmt 1 view .LVU128
 466 005a FFF7FEFF 		bl	MMU_Free
 467              	.LVL35:
 230:Task/Task_Telemetry.c ****     }
 468              		.loc 1 230 9 view .LVU129
 230:Task/Task_Telemetry.c ****     }
 469              		.loc 1 230 16 is_stmt 0 view .LVU130
 470 005e 2846     		mov	r0, r5
 471 0060 10E0     		b	.L26
 472              	.LVL36:
 473              	.L32:
ARM GAS  C:\Users\HUAV\AppData\Local\Temp\ccBqtc7a.s 			page 18


 245:Task/Task_Telemetry.c ****         List_ItemInit(&(RC_Input_obj->Gimbal[tag].combo_list), channel_set);
 474              		.loc 1 245 9 is_stmt 1 view .LVU131
 245:Task/Task_Telemetry.c ****         List_ItemInit(&(RC_Input_obj->Gimbal[tag].combo_list), channel_set);
 475              		.loc 1 245 45 is_stmt 0 view .LVU132
 476 0062 04EB4402 		add	r2, r4, r4, lsl #1
 477 0066 C2EBC202 		rsb	r2, r2, r2, lsl #3
 478 006a 08EB0203 		add	r3, r8, r2
 479 006e 0124     		movs	r4, #1
 480 0070 83F87D40 		strb	r4, [r3, #125]
 246:Task/Task_Telemetry.c ****         return true;
 481              		.loc 1 246 9 is_stmt 1 view .LVU133
 482 0074 6832     		adds	r2, r2, #104
 483 0076 4244     		add	r2, r2, r8
 484 0078 1019     		adds	r0, r2, r4
 485              	.LVL37:
 246:Task/Task_Telemetry.c ****         return true;
 486              		.loc 1 246 9 is_stmt 0 view .LVU134
 487 007a FFF7FEFF 		bl	List_ItemInit
 488              	.LVL38:
 247:Task/Task_Telemetry.c **** 
 489              		.loc 1 247 9 is_stmt 1 view .LVU135
 247:Task/Task_Telemetry.c **** 
 490              		.loc 1 247 16 is_stmt 0 view .LVU136
 491 007e 2046     		mov	r0, r4
 492 0080 00E0     		b	.L26
 493              	.LVL39:
 494              	.L28:
 223:Task/Task_Telemetry.c **** 
 495              		.loc 1 223 16 view .LVU137
 496 0082 0020     		movs	r0, #0
 497              	.LVL40:
 498              	.L26:
 252:Task/Task_Telemetry.c **** 
 499              		.loc 1 252 1 view .LVU138
 500 0084 BDE8F883 		pop	{r3, r4, r5, r6, r7, r8, r9, pc}
 252:Task/Task_Telemetry.c **** 
 501              		.loc 1 252 1 view .LVU139
 502              		.cfi_endproc
 503              	.LFE2003:
 505              		.section	.text.Telemetry_BindToggleToChannel,"ax",%progbits
 506              		.align	1
 507              		.syntax unified
 508              		.thumb
 509              		.thumb_func
 510              		.fpu fpv5-d16
 512              	Telemetry_BindToggleToChannel:
 513              	.LVL41:
 514              	.LFB2004:
 255:Task/Task_Telemetry.c ****     Telemetry_ChannelSet_TypeDef *channel_set = NULL;
 515              		.loc 1 255 1 is_stmt 1 view -0
 516              		.cfi_startproc
 517              		@ args = 4, pretend = 0, frame = 0
 518              		@ frame_needed = 0, uses_anonymous_args = 0
 255:Task/Task_Telemetry.c ****     Telemetry_ChannelSet_TypeDef *channel_set = NULL;
 519              		.loc 1 255 1 is_stmt 0 view .LVU141
 520 0000 2DE9F041 		push	{r4, r5, r6, r7, r8, lr}
 521              	.LCFI8:
ARM GAS  C:\Users\HUAV\AppData\Local\Temp\ccBqtc7a.s 			page 19


 522              		.cfi_def_cfa_offset 24
 523              		.cfi_offset 4, -24
 524              		.cfi_offset 5, -20
 525              		.cfi_offset 6, -16
 526              		.cfi_offset 7, -12
 527              		.cfi_offset 8, -8
 528              		.cfi_offset 14, -4
 529 0004 BDF81870 		ldrh	r7, [sp, #24]
 256:Task/Task_Telemetry.c **** 
 530              		.loc 1 256 5 is_stmt 1 view .LVU142
 531              	.LVL42:
 258:Task/Task_Telemetry.c ****         (!data_obj) ||
 532              		.loc 1 258 5 view .LVU143
 258:Task/Task_Telemetry.c ****         (!data_obj) ||
 533              		.loc 1 258 8 is_stmt 0 view .LVU144
 534 0008 0029     		cmp	r1, #0
 535 000a 18BF     		it	ne
 536 000c 0028     		cmpne	r0, #0
 537 000e 0CBF     		ite	eq
 538 0010 0120     		moveq	r0, #1
 539              	.LVL43:
 258:Task/Task_Telemetry.c ****         (!data_obj) ||
 540              		.loc 1 258 8 view .LVU145
 541 0012 0020     		movne	r0, #0
 542 0014 29D0     		beq	.L36
 543 0016 1546     		mov	r5, r2
 544 0018 1E46     		mov	r6, r3
 545 001a 8846     		mov	r8, r1
 261:Task/Task_Telemetry.c ****         return false;
 546              		.loc 1 261 20 view .LVU146
 547 001c 40F26C74 		movw	r4, #1900
 548 0020 A742     		cmp	r7, r4
 549 0022 94BF     		ite	ls
 550 0024 0024     		movls	r4, #0
 551 0026 0124     		movhi	r4, #1
 260:Task/Task_Telemetry.c ****         (max_range > TELEMETRY_RC_CHANNEL_RANGE_MAX))
 552              		.loc 1 260 54 view .LVU147
 553 0028 632B     		cmp	r3, #99
 554 002a 98BF     		it	ls
 555 002c 44F00104 		orrls	r4, r4, #1
 556 0030 E4B9     		cbnz	r4, .L34
 264:Task/Task_Telemetry.c **** 
 557              		.loc 1 264 5 is_stmt 1 view .LVU148
 264:Task/Task_Telemetry.c **** 
 558              		.loc 1 264 51 is_stmt 0 view .LVU149
 559 0032 0F20     		movs	r0, #15
 560 0034 FFF7FEFF 		bl	MMU_Malloc
 561              	.LVL44:
 266:Task/Task_Telemetry.c ****     {
 562              		.loc 1 266 5 is_stmt 1 view .LVU150
 266:Task/Task_Telemetry.c ****     {
 563              		.loc 1 266 8 is_stmt 0 view .LVU151
 564 0038 0146     		mov	r1, r0
 565 003a 90B1     		cbz	r0, .L38
 272:Task/Task_Telemetry.c ****     channel_set->max = max_range;
 566              		.loc 1 272 5 is_stmt 1 view .LVU152
 272:Task/Task_Telemetry.c ****     channel_set->max = max_range;
ARM GAS  C:\Users\HUAV\AppData\Local\Temp\ccBqtc7a.s 			page 20


 567              		.loc 1 272 30 is_stmt 0 view .LVU153
 568 003c C0F80980 		str	r8, [r0, #9]	@ unaligned
 273:Task/Task_Telemetry.c ****     channel_set->min = min_range;
 569              		.loc 1 273 5 is_stmt 1 view .LVU154
 273:Task/Task_Telemetry.c ****     channel_set->min = min_range;
 570              		.loc 1 273 22 is_stmt 0 view .LVU155
 571 0040 A0F80770 		strh	r7, [r0, #7]	@ unaligned
 274:Task/Task_Telemetry.c **** 
 572              		.loc 1 274 5 is_stmt 1 view .LVU156
 274:Task/Task_Telemetry.c **** 
 573              		.loc 1 274 22 is_stmt 0 view .LVU157
 574 0044 A0F80360 		strh	r6, [r0, #3]	@ unaligned
 276:Task/Task_Telemetry.c ****     toggle->combo_list.mode = by_order;
 575              		.loc 1 276 5 is_stmt 1 view .LVU158
 276:Task/Task_Telemetry.c ****     toggle->combo_list.mode = by_order;
 576              		.loc 1 276 23 is_stmt 0 view .LVU159
 577 0048 0124     		movs	r4, #1
 578 004a 2C75     		strb	r4, [r5, #20]
 277:Task/Task_Telemetry.c ****     toggle->combo_list.compare_callback = NULL;
 579              		.loc 1 277 5 is_stmt 1 view .LVU160
 277:Task/Task_Telemetry.c ****     toggle->combo_list.compare_callback = NULL;
 580              		.loc 1 277 29 is_stmt 0 view .LVU161
 581 004c 2C70     		strb	r4, [r5]
 278:Task/Task_Telemetry.c ****     List_ItemInit(&(toggle->combo_list), channel_set);
 582              		.loc 1 278 5 is_stmt 1 view .LVU162
 278:Task/Task_Telemetry.c ****     List_ItemInit(&(toggle->combo_list), channel_set);
 583              		.loc 1 278 41 is_stmt 0 view .LVU163
 584 004e 0023     		movs	r3, #0
 585 0050 2B71     		strb	r3, [r5, #4]
 586 0052 6B71     		strb	r3, [r5, #5]
 587 0054 AB71     		strb	r3, [r5, #6]
 588 0056 EB71     		strb	r3, [r5, #7]
 279:Task/Task_Telemetry.c **** 
 589              		.loc 1 279 5 is_stmt 1 view .LVU164
 590 0058 2846     		mov	r0, r5
 591              	.LVL45:
 279:Task/Task_Telemetry.c **** 
 592              		.loc 1 279 5 is_stmt 0 view .LVU165
 593 005a FFF7FEFF 		bl	List_ItemInit
 594              	.LVL46:
 281:Task/Task_Telemetry.c **** }
 595              		.loc 1 281 5 is_stmt 1 view .LVU166
 281:Task/Task_Telemetry.c **** }
 596              		.loc 1 281 12 is_stmt 0 view .LVU167
 597 005e 2046     		mov	r0, r4
 598 0060 04E0     		b	.L34
 599              	.LVL47:
 600              	.L38:
 268:Task/Task_Telemetry.c ****         return false;
 601              		.loc 1 268 9 is_stmt 1 view .LVU168
 602 0062 FFF7FEFF 		bl	MMU_Free
 603              	.LVL48:
 269:Task/Task_Telemetry.c ****     }
 604              		.loc 1 269 9 view .LVU169
 269:Task/Task_Telemetry.c ****     }
 605              		.loc 1 269 16 is_stmt 0 view .LVU170
 606 0066 2046     		mov	r0, r4
ARM GAS  C:\Users\HUAV\AppData\Local\Temp\ccBqtc7a.s 			page 21


 607 0068 00E0     		b	.L34
 608              	.LVL49:
 609              	.L36:
 262:Task/Task_Telemetry.c **** 
 610              		.loc 1 262 16 view .LVU171
 611 006a 0020     		movs	r0, #0
 612              	.LVL50:
 613              	.L34:
 282:Task/Task_Telemetry.c **** 
 614              		.loc 1 282 1 view .LVU172
 615 006c BDE8F081 		pop	{r4, r5, r6, r7, r8, pc}
 282:Task/Task_Telemetry.c **** 
 616              		.loc 1 282 1 view .LVU173
 617              		.cfi_endproc
 618              	.LFE2004:
 620              		.section	.text.Telemetry_AddToggleCombo,"ax",%progbits
 621              		.align	1
 622              		.syntax unified
 623              		.thumb
 624              		.thumb_func
 625              		.fpu fpv5-d16
 627              	Telemetry_AddToggleCombo:
 628              	.LVL51:
 629              	.LFB2005:
 285:Task/Task_Telemetry.c ****     Telemetry_ChannelSet_TypeDef *channel_set = NULL;
 630              		.loc 1 285 1 is_stmt 1 view -0
 631              		.cfi_startproc
 632              		@ args = 4, pretend = 0, frame = 0
 633              		@ frame_needed = 0, uses_anonymous_args = 0
 285:Task/Task_Telemetry.c ****     Telemetry_ChannelSet_TypeDef *channel_set = NULL;
 634              		.loc 1 285 1 is_stmt 0 view .LVU175
 635 0000 2DE9F047 		push	{r4, r5, r6, r7, r8, r9, r10, lr}
 636              	.LCFI9:
 637              		.cfi_def_cfa_offset 32
 638              		.cfi_offset 4, -32
 639              		.cfi_offset 5, -28
 640              		.cfi_offset 6, -24
 641              		.cfi_offset 7, -20
 642              		.cfi_offset 8, -16
 643              		.cfi_offset 9, -12
 644              		.cfi_offset 10, -8
 645              		.cfi_offset 14, -4
 646 0004 BDF82070 		ldrh	r7, [sp, #32]
 286:Task/Task_Telemetry.c ****     item_obj *item = NULL;
 647              		.loc 1 286 5 is_stmt 1 view .LVU176
 648              	.LVL52:
 287:Task/Task_Telemetry.c **** 
 649              		.loc 1 287 5 view .LVU177
 289:Task/Task_Telemetry.c ****         (!data_obj) ||
 650              		.loc 1 289 5 view .LVU178
 289:Task/Task_Telemetry.c ****         (!data_obj) ||
 651              		.loc 1 289 8 is_stmt 0 view .LVU179
 652 0008 0029     		cmp	r1, #0
 653 000a 18BF     		it	ne
 654 000c 0028     		cmpne	r0, #0
 655 000e 0CBF     		ite	eq
 656 0010 0120     		moveq	r0, #1
ARM GAS  C:\Users\HUAV\AppData\Local\Temp\ccBqtc7a.s 			page 22


 657              	.LVL53:
 289:Task/Task_Telemetry.c ****         (!data_obj) ||
 658              		.loc 1 289 8 view .LVU180
 659 0012 0020     		movne	r0, #0
 660 0014 31D0     		beq	.L43
 661 0016 1646     		mov	r6, r2
 662 0018 1D46     		mov	r5, r3
 663 001a 8846     		mov	r8, r1
 292:Task/Task_Telemetry.c ****         return false;
 664              		.loc 1 292 20 view .LVU181
 665 001c 40F26C74 		movw	r4, #1900
 666 0020 A742     		cmp	r7, r4
 667 0022 94BF     		ite	ls
 668 0024 0024     		movls	r4, #0
 669 0026 0124     		movhi	r4, #1
 291:Task/Task_Telemetry.c ****         (max_range > TELEMETRY_RC_CHANNEL_RANGE_MAX))
 670              		.loc 1 291 54 view .LVU182
 671 0028 632B     		cmp	r3, #99
 672 002a 98BF     		it	ls
 673 002c 44F00104 		orrls	r4, r4, #1
 674 0030 24BB     		cbnz	r4, .L40
 295:Task/Task_Telemetry.c **** 
 675              		.loc 1 295 5 is_stmt 1 view .LVU183
 295:Task/Task_Telemetry.c **** 
 676              		.loc 1 295 51 is_stmt 0 view .LVU184
 677 0032 0F20     		movs	r0, #15
 678 0034 FFF7FEFF 		bl	MMU_Malloc
 679              	.LVL54:
 297:Task/Task_Telemetry.c ****     {
 680              		.loc 1 297 5 is_stmt 1 view .LVU185
 297:Task/Task_Telemetry.c ****     {
 681              		.loc 1 297 8 is_stmt 0 view .LVU186
 682 0038 8146     		mov	r9, r0
 683 003a B0B1     		cbz	r0, .L45
 303:Task/Task_Telemetry.c **** 
 684              		.loc 1 303 5 is_stmt 1 view .LVU187
 303:Task/Task_Telemetry.c **** 
 685              		.loc 1 303 24 is_stmt 0 view .LVU188
 686 003c 1420     		movs	r0, #20
 687              	.LVL55:
 303:Task/Task_Telemetry.c **** 
 688              		.loc 1 303 24 view .LVU189
 689 003e FFF7FEFF 		bl	MMU_Malloc
 690              	.LVL56:
 305:Task/Task_Telemetry.c ****     {
 691              		.loc 1 305 5 is_stmt 1 view .LVU190
 305:Task/Task_Telemetry.c ****     {
 692              		.loc 1 305 8 is_stmt 0 view .LVU191
 693 0042 8246     		mov	r10, r0
 694 0044 A8B1     		cbz	r0, .L46
 311:Task/Task_Telemetry.c ****     channel_set->max = max_range;
 695              		.loc 1 311 5 is_stmt 1 view .LVU192
 311:Task/Task_Telemetry.c ****     channel_set->max = max_range;
 696              		.loc 1 311 30 is_stmt 0 view .LVU193
 697 0046 C9F80980 		str	r8, [r9, #9]	@ unaligned
 312:Task/Task_Telemetry.c ****     channel_set->min = min_range;
 698              		.loc 1 312 5 is_stmt 1 view .LVU194
ARM GAS  C:\Users\HUAV\AppData\Local\Temp\ccBqtc7a.s 			page 23


 312:Task/Task_Telemetry.c ****     channel_set->min = min_range;
 699              		.loc 1 312 22 is_stmt 0 view .LVU195
 700 004a A9F80770 		strh	r7, [r9, #7]	@ unaligned
 313:Task/Task_Telemetry.c **** 
 701              		.loc 1 313 5 is_stmt 1 view .LVU196
 313:Task/Task_Telemetry.c **** 
 702              		.loc 1 313 22 is_stmt 0 view .LVU197
 703 004e A9F80350 		strh	r5, [r9, #3]	@ unaligned
 315:Task/Task_Telemetry.c ****     List_ItemInit(item, channel_set);
 704              		.loc 1 315 5 is_stmt 1 view .LVU198
 315:Task/Task_Telemetry.c ****     List_ItemInit(item, channel_set);
 705              		.loc 1 315 11 is_stmt 0 view .LVU199
 706 0052 337D     		ldrb	r3, [r6, #20]	@ zero_extendqisi2
 315:Task/Task_Telemetry.c ****     List_ItemInit(item, channel_set);
 707              		.loc 1 315 22 view .LVU200
 708 0054 0133     		adds	r3, r3, #1
 709 0056 3375     		strb	r3, [r6, #20]
 316:Task/Task_Telemetry.c ****     List_Insert_Item(&toggle->combo_list, item);
 710              		.loc 1 316 5 is_stmt 1 view .LVU201
 711 0058 4946     		mov	r1, r9
 712 005a FFF7FEFF 		bl	List_ItemInit
 713              	.LVL57:
 317:Task/Task_Telemetry.c **** 
 714              		.loc 1 317 5 view .LVU202
 715 005e 5146     		mov	r1, r10
 716 0060 3046     		mov	r0, r6
 717 0062 FFF7FEFF 		bl	List_Insert_Item
 718              	.LVL58:
 319:Task/Task_Telemetry.c **** }
 719              		.loc 1 319 5 view .LVU203
 319:Task/Task_Telemetry.c **** }
 720              		.loc 1 319 12 is_stmt 0 view .LVU204
 721 0066 0120     		movs	r0, #1
 722 0068 08E0     		b	.L40
 723              	.LVL59:
 724              	.L45:
 299:Task/Task_Telemetry.c ****         return false;
 725              		.loc 1 299 9 is_stmt 1 view .LVU205
 726 006a FFF7FEFF 		bl	MMU_Free
 727              	.LVL60:
 300:Task/Task_Telemetry.c ****     }
 728              		.loc 1 300 9 view .LVU206
 300:Task/Task_Telemetry.c ****     }
 729              		.loc 1 300 16 is_stmt 0 view .LVU207
 730 006e 2046     		mov	r0, r4
 731 0070 04E0     		b	.L40
 732              	.LVL61:
 733              	.L46:
 307:Task/Task_Telemetry.c ****         return false;
 734              		.loc 1 307 9 is_stmt 1 view .LVU208
 735 0072 FFF7FEFF 		bl	MMU_Free
 736              	.LVL62:
 308:Task/Task_Telemetry.c ****     }
 737              		.loc 1 308 9 view .LVU209
 308:Task/Task_Telemetry.c ****     }
 738              		.loc 1 308 16 is_stmt 0 view .LVU210
 739 0076 2046     		mov	r0, r4
ARM GAS  C:\Users\HUAV\AppData\Local\Temp\ccBqtc7a.s 			page 24


 740 0078 00E0     		b	.L40
 741              	.LVL63:
 742              	.L43:
 293:Task/Task_Telemetry.c **** 
 743              		.loc 1 293 16 view .LVU211
 744 007a 0020     		movs	r0, #0
 745              	.LVL64:
 746              	.L40:
 320:Task/Task_Telemetry.c **** 
 747              		.loc 1 320 1 view .LVU212
 748 007c BDE8F087 		pop	{r4, r5, r6, r7, r8, r9, r10, pc}
 320:Task/Task_Telemetry.c **** 
 749              		.loc 1 320 1 view .LVU213
 750              		.cfi_endproc
 751              	.LFE2005:
 753              		.section	.text.Telemetry_Toggle_Check,"ax",%progbits
 754              		.align	1
 755              		.syntax unified
 756              		.thumb
 757              		.thumb_func
 758              		.fpu fpv5-d16
 760              	Telemetry_Toggle_Check:
 761              	.LVL65:
 762              	.LFB2006:
 323:Task/Task_Telemetry.c ****     Telemetry_ToggleData_TypeDef toggle_val;
 763              		.loc 1 323 1 is_stmt 1 view -0
 764              		.cfi_startproc
 765              		@ args = 0, pretend = 0, frame = 8
 766              		@ frame_needed = 0, uses_anonymous_args = 0
 323:Task/Task_Telemetry.c ****     Telemetry_ToggleData_TypeDef toggle_val;
 767              		.loc 1 323 1 is_stmt 0 view .LVU215
 768 0000 30B5     		push	{r4, r5, lr}
 769              	.LCFI10:
 770              		.cfi_def_cfa_offset 12
 771              		.cfi_offset 4, -12
 772              		.cfi_offset 5, -8
 773              		.cfi_offset 14, -4
 774 0002 83B0     		sub	sp, sp, #12
 775              	.LCFI11:
 776              		.cfi_def_cfa_offset 24
 324:Task/Task_Telemetry.c ****     uint8_t pos_reg = 0;
 777              		.loc 1 324 5 is_stmt 1 view .LVU216
 325:Task/Task_Telemetry.c **** 
 778              		.loc 1 325 5 view .LVU217
 779              	.LVL66:
 327:Task/Task_Telemetry.c ****     toggle_val.cnt = 0;
 780              		.loc 1 327 5 view .LVU218
 327:Task/Task_Telemetry.c ****     toggle_val.cnt = 0;
 781              		.loc 1 327 20 is_stmt 0 view .LVU219
 782 0004 0023     		movs	r3, #0
 783 0006 ADF80230 		strh	r3, [sp, #2]	@ movhi
 328:Task/Task_Telemetry.c ****     toggle_val.state = false;
 784              		.loc 1 328 5 is_stmt 1 view .LVU220
 328:Task/Task_Telemetry.c ****     toggle_val.state = false;
 785              		.loc 1 328 20 is_stmt 0 view .LVU221
 786 000a 8DF80030 		strb	r3, [sp]
 329:Task/Task_Telemetry.c ****     item_obj *nxt = &toggle->combo_list;
ARM GAS  C:\Users\HUAV\AppData\Local\Temp\ccBqtc7a.s 			page 25


 787              		.loc 1 329 5 is_stmt 1 view .LVU222
 329:Task/Task_Telemetry.c ****     item_obj *nxt = &toggle->combo_list;
 788              		.loc 1 329 22 is_stmt 0 view .LVU223
 789 000e 8DF80130 		strb	r3, [sp, #1]
 330:Task/Task_Telemetry.c ****     Telemetry_ChannelSet_TypeDef *channel_data = NULL;
 790              		.loc 1 330 5 is_stmt 1 view .LVU224
 791              	.LVL67:
 331:Task/Task_Telemetry.c **** 
 792              		.loc 1 331 5 view .LVU225
 333:Task/Task_Telemetry.c ****         return toggle_val;
 793              		.loc 1 333 5 view .LVU226
 333:Task/Task_Telemetry.c ****         return toggle_val;
 794              		.loc 1 333 8 is_stmt 0 view .LVU227
 795 0012 18B1     		cbz	r0, .L58
 796 0014 0446     		mov	r4, r0
 797 0016 0346     		mov	r3, r0
 325:Task/Task_Telemetry.c **** 
 798              		.loc 1 325 13 view .LVU228
 799 0018 0025     		movs	r5, #0
 800 001a 13E0     		b	.L48
 801              	.L58:
 334:Task/Task_Telemetry.c **** 
 802              		.loc 1 334 9 is_stmt 1 view .LVU229
 334:Task/Task_Telemetry.c **** 
 803              		.loc 1 334 16 is_stmt 0 view .LVU230
 804 001c 009B     		ldr	r3, [sp]
 805 001e 0193     		str	r3, [sp, #4]
 806 0020 2FE0     		b	.L49
 807              	.LVL68:
 808              	.L50:
 345:Task/Task_Telemetry.c ****             toggle_val.cnt++;
 809              		.loc 1 345 13 is_stmt 1 view .LVU231
 345:Task/Task_Telemetry.c ****             toggle_val.cnt++;
 810              		.loc 1 345 39 is_stmt 0 view .LVU232
 811 0022 BDF80210 		ldrh	r1, [sp, #2]
 345:Task/Task_Telemetry.c ****             toggle_val.cnt++;
 812              		.loc 1 345 26 view .LVU233
 813 0026 0122     		movs	r2, #1
 814 0028 8A40     		lsls	r2, r2, r1
 345:Task/Task_Telemetry.c ****             toggle_val.cnt++;
 815              		.loc 1 345 21 view .LVU234
 816 002a 2A43     		orrs	r2, r2, r5
 817 002c D5B2     		uxtb	r5, r2
 818              	.LVL69:
 346:Task/Task_Telemetry.c ****         }
 819              		.loc 1 346 13 is_stmt 1 view .LVU235
 346:Task/Task_Telemetry.c ****         }
 820              		.loc 1 346 23 is_stmt 0 view .LVU236
 821 002e 9DF80020 		ldrb	r2, [sp]	@ zero_extendqisi2
 346:Task/Task_Telemetry.c ****         }
 822              		.loc 1 346 27 view .LVU237
 823 0032 0132     		adds	r2, r2, #1
 824 0034 8DF80020 		strb	r2, [sp]
 825              	.L51:
 349:Task/Task_Telemetry.c ****         nxt = nxt->nxt;
 826              		.loc 1 349 9 is_stmt 1 view .LVU238
 349:Task/Task_Telemetry.c ****         nxt = nxt->nxt;
ARM GAS  C:\Users\HUAV\AppData\Local\Temp\ccBqtc7a.s 			page 26


 827              		.loc 1 349 19 is_stmt 0 view .LVU239
 828 0038 BDF80220 		ldrh	r2, [sp, #2]
 349:Task/Task_Telemetry.c ****         nxt = nxt->nxt;
 829              		.loc 1 349 23 view .LVU240
 830 003c 0132     		adds	r2, r2, #1
 831 003e ADF80220 		strh	r2, [sp, #2]	@ movhi
 350:Task/Task_Telemetry.c ****     }
 832              		.loc 1 350 9 is_stmt 1 view .LVU241
 350:Task/Task_Telemetry.c ****     }
 833              		.loc 1 350 13 is_stmt 0 view .LVU242
 834 0042 DB68     		ldr	r3, [r3, #12]
 835              	.LVL70:
 836              	.L48:
 337:Task/Task_Telemetry.c ****     {
 837              		.loc 1 337 11 is_stmt 1 view .LVU243
 838 0044 73B1     		cbz	r3, .L59
 339:Task/Task_Telemetry.c **** 
 839              		.loc 1 339 9 view .LVU244
 339:Task/Task_Telemetry.c **** 
 840              		.loc 1 339 22 is_stmt 0 view .LVU245
 841 0046 1A69     		ldr	r2, [r3, #16]
 842              	.LVL71:
 341:Task/Task_Telemetry.c ****             (((*(uint16_t *)channel_data->channel_ptr) < channel_data->max) &&
 843              		.loc 1 341 9 is_stmt 1 view .LVU246
 341:Task/Task_Telemetry.c ****             (((*(uint16_t *)channel_data->channel_ptr) < channel_data->max) &&
 844              		.loc 1 341 12 is_stmt 0 view .LVU247
 845 0048 002A     		cmp	r2, #0
 846 004a EAD0     		beq	.L50
 342:Task/Task_Telemetry.c ****              ((*(uint16_t *)channel_data->channel_ptr) > channel_data->min)))
 847              		.loc 1 342 41 discriminator 1 view .LVU248
 848 004c D2F80910 		ldr	r1, [r2, #9]	@ unaligned
 342:Task/Task_Telemetry.c ****              ((*(uint16_t *)channel_data->channel_ptr) > channel_data->min)))
 849              		.loc 1 342 16 discriminator 1 view .LVU249
 850 0050 0988     		ldrh	r1, [r1]
 342:Task/Task_Telemetry.c ****              ((*(uint16_t *)channel_data->channel_ptr) > channel_data->min)))
 851              		.loc 1 342 70 discriminator 1 view .LVU250
 852 0052 B2F80700 		ldrh	r0, [r2, #7]	@ unaligned
 341:Task/Task_Telemetry.c ****             (((*(uint16_t *)channel_data->channel_ptr) < channel_data->max) &&
 853              		.loc 1 341 27 discriminator 1 view .LVU251
 854 0056 8142     		cmp	r1, r0
 855 0058 EED2     		bcs	.L51
 343:Task/Task_Telemetry.c ****         {
 856              		.loc 1 343 70 view .LVU252
 857 005a B2F80320 		ldrh	r2, [r2, #3]	@ unaligned
 858              	.LVL72:
 342:Task/Task_Telemetry.c ****              ((*(uint16_t *)channel_data->channel_ptr) > channel_data->min)))
 859              		.loc 1 342 77 view .LVU253
 860 005e 9142     		cmp	r1, r2
 861 0060 EAD9     		bls	.L51
 862 0062 DEE7     		b	.L50
 863              	.LVL73:
 864              	.L59:
 354:Task/Task_Telemetry.c ****     {
 865              		.loc 1 354 5 is_stmt 1 view .LVU254
 354:Task/Task_Telemetry.c ****     {
 866              		.loc 1 354 9 is_stmt 0 view .LVU255
 867 0064 2846     		mov	r0, r5
ARM GAS  C:\Users\HUAV\AppData\Local\Temp\ccBqtc7a.s 			page 27


 868 0066 FFF7FEFF 		bl	Get_OnSet_Bit_Num
 869              	.LVL74:
 354:Task/Task_Telemetry.c ****     {
 870              		.loc 1 354 8 view .LVU256
 871 006a 0128     		cmp	r0, #1
 872 006c 1CD0     		beq	.L60
 362:Task/Task_Telemetry.c ****     }
 873              		.loc 1 362 9 is_stmt 1 view .LVU257
 362:Task/Task_Telemetry.c ****     }
 874              		.loc 1 362 24 is_stmt 0 view .LVU258
 875 006e 0023     		movs	r3, #0
 876 0070 ADF80230 		strh	r3, [sp, #2]	@ movhi
 877              	.L54:
 365:Task/Task_Telemetry.c ****         toggle_val.state = true;
 878              		.loc 1 365 5 is_stmt 1 view .LVU259
 365:Task/Task_Telemetry.c ****         toggle_val.state = true;
 879              		.loc 1 365 19 is_stmt 0 view .LVU260
 880 0074 9DF80020 		ldrb	r2, [sp]	@ zero_extendqisi2
 365:Task/Task_Telemetry.c ****         toggle_val.state = true;
 881              		.loc 1 365 33 view .LVU261
 882 0078 237D     		ldrb	r3, [r4, #20]	@ zero_extendqisi2
 365:Task/Task_Telemetry.c ****         toggle_val.state = true;
 883              		.loc 1 365 8 view .LVU262
 884 007a 9A42     		cmp	r2, r3
 885 007c 1AD0     		beq	.L61
 886              	.L55:
 368:Task/Task_Telemetry.c **** }
 887              		.loc 1 368 5 is_stmt 1 view .LVU263
 368:Task/Task_Telemetry.c **** }
 888              		.loc 1 368 12 is_stmt 0 view .LVU264
 889 007e 009B     		ldr	r3, [sp]
 890 0080 0193     		str	r3, [sp, #4]
 891              	.LVL75:
 892              	.L49:
 369:Task/Task_Telemetry.c **** 
 893              		.loc 1 369 1 view .LVU265
 894 0082 0020     		movs	r0, #0
 895 0084 9DF80430 		ldrb	r3, [sp, #4]	@ zero_extendqisi2
 896 0088 63F30700 		bfi	r0, r3, #0, #8
 897 008c 9DF80530 		ldrb	r3, [sp, #5]	@ zero_extendqisi2
 898 0090 63F30F20 		bfi	r0, r3, #8, #8
 899 0094 9DF80630 		ldrb	r3, [sp, #6]	@ zero_extendqisi2
 900 0098 63F31740 		bfi	r0, r3, #16, #8
 901 009c 9DF80730 		ldrb	r3, [sp, #7]	@ zero_extendqisi2
 902 00a0 63F31F60 		bfi	r0, r3, #24, #8
 903 00a4 03B0     		add	sp, sp, #12
 904              	.LCFI12:
 905              		.cfi_remember_state
 906              		.cfi_def_cfa_offset 12
 907              		@ sp needed
 908 00a6 30BD     		pop	{r4, r5, pc}
 909              	.LVL76:
 910              	.L60:
 911              	.LCFI13:
 912              		.cfi_restore_state
 357:Task/Task_Telemetry.c ****     }
 913              		.loc 1 357 9 is_stmt 1 view .LVU266
ARM GAS  C:\Users\HUAV\AppData\Local\Temp\ccBqtc7a.s 			page 28


 357:Task/Task_Telemetry.c ****     }
 914              		.loc 1 357 26 is_stmt 0 view .LVU267
 915 00a8 2846     		mov	r0, r5
 916 00aa FFF7FEFF 		bl	Get_Bit_Index
 917              	.LVL77:
 357:Task/Task_Telemetry.c ****     }
 918              		.loc 1 357 24 view .LVU268
 919 00ae ADF80200 		strh	r0, [sp, #2]	@ movhi
 920 00b2 DFE7     		b	.L54
 921              	.L61:
 366:Task/Task_Telemetry.c **** 
 922              		.loc 1 366 9 is_stmt 1 view .LVU269
 366:Task/Task_Telemetry.c **** 
 923              		.loc 1 366 26 is_stmt 0 view .LVU270
 924 00b4 0123     		movs	r3, #1
 925 00b6 8DF80130 		strb	r3, [sp, #1]
 926 00ba E0E7     		b	.L55
 927              		.cfi_endproc
 928              	.LFE2006:
 930              		.section	.text.Telemetry_RC_Sig_Update,"ax",%progbits
 931              		.align	1
 932              		.syntax unified
 933              		.thumb
 934              		.thumb_func
 935              		.fpu fpv5-d16
 937              	Telemetry_RC_Sig_Update:
 938              	.LVL78:
 939              	.LFB2010:
 435:Task/Task_Telemetry.c **** 
 436:Task/Task_Telemetry.c **** static Telemetry_RCSig_TypeDef Telemetry_RC_Sig_Update(Telemetry_RCInput_TypeDef *RC_Input_obj, Srv
 437:Task/Task_Telemetry.c **** {
 940              		.loc 1 437 1 is_stmt 1 view -0
 941              		.cfi_startproc
 942              		@ args = 0, pretend = 0, frame = 136
 943              		@ frame_needed = 0, uses_anonymous_args = 0
 944              		.loc 1 437 1 is_stmt 0 view .LVU272
 945 0000 F0B5     		push	{r4, r5, r6, r7, lr}
 946              	.LCFI14:
 947              		.cfi_def_cfa_offset 20
 948              		.cfi_offset 4, -20
 949              		.cfi_offset 5, -16
 950              		.cfi_offset 6, -12
 951              		.cfi_offset 7, -8
 952              		.cfi_offset 14, -4
 953 0002 A3B0     		sub	sp, sp, #140
 954              	.LCFI15:
 955              		.cfi_def_cfa_offset 160
 956 0004 0746     		mov	r7, r0
 957 0006 0D46     		mov	r5, r1
 958 0008 1646     		mov	r6, r2
 438:Task/Task_Telemetry.c ****     SrvReceiverData_TypeDef receiver_data;
 959              		.loc 1 438 5 is_stmt 1 view .LVU273
 439:Task/Task_Telemetry.c ****     Telemetry_RCSig_TypeDef sig_tmp;
 960              		.loc 1 439 5 view .LVU274
 440:Task/Task_Telemetry.c **** 
 441:Task/Task_Telemetry.c ****     memset(&receiver_data, 0, sizeof(receiver_data));
 961              		.loc 1 441 5 view .LVU275
ARM GAS  C:\Users\HUAV\AppData\Local\Temp\ccBqtc7a.s 			page 29


 962 000a 0021     		movs	r1, #0
 963              	.LVL79:
 964              		.loc 1 441 5 is_stmt 0 view .LVU276
 965 000c 1A91     		str	r1, [sp, #104]
 966 000e 1B91     		str	r1, [sp, #108]
 967 0010 1C91     		str	r1, [sp, #112]
 968 0012 ADF87410 		strh	r1, [sp, #116]	@ movhi
 442:Task/Task_Telemetry.c ****     memset(&sig_tmp, 0, sizeof(sig_tmp));
 969              		.loc 1 442 5 is_stmt 1 view .LVU277
 970 0016 5822     		movs	r2, #88
 971              	.LVL80:
 972              		.loc 1 442 5 is_stmt 0 view .LVU278
 973 0018 04A8     		add	r0, sp, #16
 974              	.LVL81:
 975              		.loc 1 442 5 view .LVU279
 976 001a FFF7FEFF 		bl	memset
 977              	.LVL82:
 443:Task/Task_Telemetry.c **** 
 444:Task/Task_Telemetry.c ****     sig_tmp.gimbal_percent[Telemetry_RC_Throttle] = 0;
 978              		.loc 1 444 5 is_stmt 1 view .LVU280
 445:Task/Task_Telemetry.c ****     sig_tmp.gimbal_percent[Telemetry_RC_Pitch] = 0;
 979              		.loc 1 445 5 view .LVU281
 446:Task/Task_Telemetry.c ****     sig_tmp.gimbal_percent[Telemetry_RC_Roll] = 0;
 980              		.loc 1 446 5 view .LVU282
 447:Task/Task_Telemetry.c ****     sig_tmp.gimbal_percent[Telemetry_RC_Yaw] = 0;
 981              		.loc 1 447 5 view .LVU283
 448:Task/Task_Telemetry.c **** 
 449:Task/Task_Telemetry.c ****     if ((!RC_Input_obj) || (!receiver_obj) || (!RC_Input_obj->init_state))
 982              		.loc 1 449 5 view .LVU284
 983              		.loc 1 449 8 is_stmt 0 view .LVU285
 984 001e 002E     		cmp	r6, #0
 985 0020 18BF     		it	ne
 986 0022 002D     		cmpne	r5, #0
 987 0024 2DD0     		beq	.L63
 988              		.loc 1 449 61 discriminator 1 view .LVU286
 989 0026 2B78     		ldrb	r3, [r5]	@ zero_extendqisi2
 990              		.loc 1 449 44 discriminator 1 view .LVU287
 991 0028 5BB3     		cbz	r3, .L63
 450:Task/Task_Telemetry.c ****         return sig_tmp;
 451:Task/Task_Telemetry.c **** 
 452:Task/Task_Telemetry.c ****     receiver_data = SrvReceiver.get(receiver_obj);
 992              		.loc 1 452 5 is_stmt 1 view .LVU288
 993              		.loc 1 452 32 is_stmt 0 view .LVU289
 994 002a 804B     		ldr	r3, .L87
 995 002c DB68     		ldr	r3, [r3, #12]
 996              		.loc 1 452 21 view .LVU290
 997 002e 3146     		mov	r1, r6
 998 0030 6846     		mov	r0, sp
 999 0032 9847     		blx	r3
 1000              	.LVL83:
 1001 0034 1AAB     		add	r3, sp, #104
 1002 0036 0098     		ldr	r0, [sp]	@ unaligned
 1003 0038 0199     		ldr	r1, [sp, #4]	@ unaligned
 1004 003a 029A     		ldr	r2, [sp, #8]	@ unaligned
 1005 003c 07C3     		stmia	r3!, {r0, r1, r2}
 1006 003e BDF80C20 		ldrh	r2, [sp, #12]	@ unaligned
 1007 0042 1A80     		strh	r2, [r3]	@ unaligned
ARM GAS  C:\Users\HUAV\AppData\Local\Temp\ccBqtc7a.s 			page 30


 453:Task/Task_Telemetry.c ****     RC_Input_obj->rssi = 0;
 1008              		.loc 1 453 5 is_stmt 1 view .LVU291
 1009              		.loc 1 453 24 is_stmt 0 view .LVU292
 1010 0044 0023     		movs	r3, #0
 1011 0046 85F86530 		strb	r3, [r5, #101]
 1012 004a 85F86630 		strb	r3, [r5, #102]
 454:Task/Task_Telemetry.c ****     RC_Input_obj->link_quality = 0;
 1013              		.loc 1 454 5 is_stmt 1 view .LVU293
 1014              		.loc 1 454 32 is_stmt 0 view .LVU294
 1015 004e 85F86730 		strb	r3, [r5, #103]
 1016 0052 85F86830 		strb	r3, [r5, #104]
 455:Task/Task_Telemetry.c **** 
 456:Task/Task_Telemetry.c ****     /* notic disarm and osd tune can not enable at the same time */
 457:Task/Task_Telemetry.c ****     /* when power on and arm toggle on remote is set on disarm we force it to arm */
 458:Task/Task_Telemetry.c **** 
 459:Task/Task_Telemetry.c ****     if (!receiver_data.failsafe)
 1017              		.loc 1 459 5 is_stmt 1 view .LVU295
 1018              		.loc 1 459 23 is_stmt 0 view .LVU296
 1019 0056 9DF87530 		ldrb	r3, [sp, #117]	@ zero_extendqisi2
 1020              		.loc 1 459 8 view .LVU297
 1021 005a 002B     		cmp	r3, #0
 1022 005c 40F0C480 		bne	.L66
 460:Task/Task_Telemetry.c ****     {
 461:Task/Task_Telemetry.c ****         RC_Input_obj->rssi = receiver_data.rssi;
 1023              		.loc 1 461 9 is_stmt 1 view .LVU298
 1024              		.loc 1 461 43 is_stmt 0 view .LVU299
 1025 0060 BDF87030 		ldrh	r3, [sp, #112]
 1026              		.loc 1 461 28 view .LVU300
 1027 0064 A5F86530 		strh	r3, [r5, #101]	@ unaligned
 462:Task/Task_Telemetry.c ****         RC_Input_obj->link_quality = receiver_data.link_quality;
 1028              		.loc 1 462 9 is_stmt 1 view .LVU301
 1029              		.loc 1 462 51 is_stmt 0 view .LVU302
 1030 0068 BDF87230 		ldrh	r3, [sp, #114]
 1031              		.loc 1 462 36 view .LVU303
 1032 006c A5F86730 		strh	r3, [r5, #103]	@ unaligned
 463:Task/Task_Telemetry.c ****         RC_Input_obj->sig.time_stamp = RC_Input_obj->update_rt;
 1033              		.loc 1 463 9 is_stmt 1 view .LVU304
 1034              		.loc 1 463 52 is_stmt 0 view .LVU305
 1035 0070 D5F80130 		ldr	r3, [r5, #1]	@ unaligned
 1036              		.loc 1 463 38 view .LVU306
 1037 0074 EB61     		str	r3, [r5, #28]	@ unaligned
 464:Task/Task_Telemetry.c **** 
 465:Task/Task_Telemetry.c ****         RC_Input_obj->sig.channel_sum = Receiver_Obj.channel_num;
 1038              		.loc 1 465 9 is_stmt 1 view .LVU307
 1039              		.loc 1 465 53 is_stmt 0 view .LVU308
 1040 0076 6E4B     		ldr	r3, .L87+4
 1041 0078 9B7B     		ldrb	r3, [r3, #14]	@ zero_extendqisi2
 1042              		.loc 1 465 39 view .LVU309
 1043 007a 85F82030 		strb	r3, [r5, #32]
 466:Task/Task_Telemetry.c **** 
 467:Task/Task_Telemetry.c ****         /* get gimbal channel */
 468:Task/Task_Telemetry.c ****         for (uint8_t i = 0; i < receiver_obj->channel_num; i++)
 1044              		.loc 1 468 9 is_stmt 1 view .LVU310
 1045              	.LBB4:
 1046              		.loc 1 468 14 view .LVU311
 1047              	.LVL84:
 1048              		.loc 1 468 22 is_stmt 0 view .LVU312
ARM GAS  C:\Users\HUAV\AppData\Local\Temp\ccBqtc7a.s 			page 31


 1049 007e 0024     		movs	r4, #0
 1050              		.loc 1 468 9 view .LVU313
 1051 0080 12E0     		b	.L67
 1052              	.LVL85:
 1053              	.L63:
 1054              		.loc 1 468 9 view .LVU314
 1055              	.LBE4:
 450:Task/Task_Telemetry.c **** 
 1056              		.loc 1 450 9 is_stmt 1 view .LVU315
 450:Task/Task_Telemetry.c **** 
 1057              		.loc 1 450 16 is_stmt 0 view .LVU316
 1058 0082 5822     		movs	r2, #88
 1059 0084 0021     		movs	r1, #0
 1060 0086 3846     		mov	r0, r7
 1061 0088 FFF7FEFF 		bl	memset
 1062              	.LVL86:
 1063              	.L62:
 469:Task/Task_Telemetry.c ****         {
 470:Task/Task_Telemetry.c ****             if (i < Telemetry_Gimbal_TagSum)
 471:Task/Task_Telemetry.c ****             {
 472:Task/Task_Telemetry.c ****                 Telemetry_Check_Gimbal(&RC_Input_obj->Gimbal[i]);
 473:Task/Task_Telemetry.c ****                 RC_Input_obj->sig.gimbal_percent[i] = Telemetry_GimbalToPercent(&RC_Input_obj->Gimb
 474:Task/Task_Telemetry.c ****             }
 475:Task/Task_Telemetry.c **** 
 476:Task/Task_Telemetry.c ****             RC_Input_obj->sig.channel[i] = receiver_data.val_list[i];
 477:Task/Task_Telemetry.c ****         }
 478:Task/Task_Telemetry.c **** 
 479:Task/Task_Telemetry.c ****         /* check buzzer toggle */
 480:Task/Task_Telemetry.c ****         RC_Input_obj->sig.buzz_state = Telemetry_Toggle_Check(&RC_Input_obj->Buzzer_Toggle).state;
 481:Task/Task_Telemetry.c **** 
 482:Task/Task_Telemetry.c ****         if (!RC_Input_obj->sig.osd_tune_state)
 483:Task/Task_Telemetry.c ****         {
 484:Task/Task_Telemetry.c ****             /* check arm & disarm */
 485:Task/Task_Telemetry.c ****             RC_Input_obj->sig.arm_state = Telemetry_Toggle_Check(&RC_Input_obj->ARM_Toggle).state;
 486:Task/Task_Telemetry.c **** 
 487:Task/Task_Telemetry.c ****             /* check control mode */
 488:Task/Task_Telemetry.c ****             RC_Input_obj->sig.control_mode = Telemetry_Toggle_Check(&RC_Input_obj->ControlMode_Togg
 489:Task/Task_Telemetry.c **** 
 490:Task/Task_Telemetry.c ****             /* check control mode inedx range */
 491:Task/Task_Telemetry.c ****             if ((RC_Input_obj->sig.control_mode > Telemetry_Control_Mode_AUTO) || (RC_Input_obj->si
 492:Task/Task_Telemetry.c ****                 RC_Input_obj->sig.control_mode = Telemetry_Control_Mode_Default;
 493:Task/Task_Telemetry.c ****         }
 494:Task/Task_Telemetry.c **** 
 495:Task/Task_Telemetry.c ****         if (RC_Input_obj->sig.arm_state)
 496:Task/Task_Telemetry.c ****         {
 497:Task/Task_Telemetry.c ****             /* check osd tune toggle */
 498:Task/Task_Telemetry.c ****             if (Telemetry_Toggle_Check(&RC_Input_obj->OSD_Toggle).state)
 499:Task/Task_Telemetry.c ****             {
 500:Task/Task_Telemetry.c ****                 if (Receiver_Obj.OSDTune_TriggerMs == 0)
 501:Task/Task_Telemetry.c ****                     Receiver_Obj.OSDTune_TriggerMs = Get_CurrentRunningMs();
 502:Task/Task_Telemetry.c **** 
 503:Task/Task_Telemetry.c ****                 if (Get_CurrentRunningMs() - Receiver_Obj.OSDTune_TriggerMs >= TELEMETRY_OSDTUNE_PO
 504:Task/Task_Telemetry.c ****                     RC_Input_obj->sig.osd_tune_state = true;
 505:Task/Task_Telemetry.c ****             }
 506:Task/Task_Telemetry.c ****             else
 507:Task/Task_Telemetry.c ****                 Receiver_Obj.OSDTune_TriggerMs = 0;
 508:Task/Task_Telemetry.c ****         }
ARM GAS  C:\Users\HUAV\AppData\Local\Temp\ccBqtc7a.s 			page 32


 509:Task/Task_Telemetry.c **** 
 510:Task/Task_Telemetry.c ****         RC_Input_obj->update_rt = receiver_data.time_stamp;
 511:Task/Task_Telemetry.c ****         RC_Input_obj->sig.update_interval = RC_Input_obj->update_rt - RC_Input_obj->lst_update_rt;
 512:Task/Task_Telemetry.c **** 
 513:Task/Task_Telemetry.c ****         RC_Input_obj->lst_update_rt = RC_Input_obj->update_rt;
 514:Task/Task_Telemetry.c ****         RC_Input_obj->sig.failsafe = false;
 515:Task/Task_Telemetry.c **** 
 516:Task/Task_Telemetry.c ****         /* is recover form failsafe */
 517:Task/Task_Telemetry.c ****         if (Telemetry_Monitor.recover_failsafe)
 518:Task/Task_Telemetry.c ****         {
 519:Task/Task_Telemetry.c ****             /* if current arm state equal to before fall into failsafe's
 520:Task/Task_Telemetry.c ****              * then sig is fine or else the arm signal has been change from recovered */
 521:Task/Task_Telemetry.c ****             if ((Telemetry_Monitor.lst_arm_state == TELEMETRY_SET_ARM) && (RC_Input_obj->sig.arm_st
 522:Task/Task_Telemetry.c ****             {
 523:Task/Task_Telemetry.c ****                 RC_Input_obj->sig.failsafe = true;
 524:Task/Task_Telemetry.c ****                 return;
 525:Task/Task_Telemetry.c ****             }
 526:Task/Task_Telemetry.c **** 
 527:Task/Task_Telemetry.c ****             Telemetry_Monitor.recover_failsafe = false;
 528:Task/Task_Telemetry.c ****         }
 529:Task/Task_Telemetry.c **** 
 530:Task/Task_Telemetry.c ****         /* if toggle switch into disarm but throttle currently is upper then 5% percent input
 531:Task/Task_Telemetry.c ****          * force throttle value to 0
 532:Task/Task_Telemetry.c ****          * only when physical throttle gimbal actually down to lowest so we update lst_arm_state */
 533:Task/Task_Telemetry.c ****         if ((RC_Input_obj->sig.arm_state == TELEMETRY_SET_DISARM) && (Telemetry_Monitor.lst_arm_sta
 534:Task/Task_Telemetry.c ****         {
 535:Task/Task_Telemetry.c ****             if (RC_Input_obj->sig.gimbal_percent[0] >= TELEMETRY_RC_THROTTLE_PERCENT_ALERT)
 536:Task/Task_Telemetry.c ****             {
 537:Task/Task_Telemetry.c ****                 RC_Input_obj->sig.gimbal_percent[0] = 0;
 538:Task/Task_Telemetry.c ****                 RC_Input_obj->sig.arm_state = TELEMETRY_SET_ARM;
 539:Task/Task_Telemetry.c ****             }
 540:Task/Task_Telemetry.c ****         }
 541:Task/Task_Telemetry.c **** 
 542:Task/Task_Telemetry.c ****         Telemetry_Monitor.lst_arm_state = RC_Input_obj->sig.arm_state;
 543:Task/Task_Telemetry.c **** 
 544:Task/Task_Telemetry.c ****         Telemetry_Led_Control(false);
 545:Task/Task_Telemetry.c ****     }
 546:Task/Task_Telemetry.c ****     else
 547:Task/Task_Telemetry.c ****     {
 548:Task/Task_Telemetry.c ****         RC_Input_obj->sig.failsafe = true;
 549:Task/Task_Telemetry.c ****         // RC_Input_obj->sig.arm_state = TELEMETRY_SET_ARM;
 550:Task/Task_Telemetry.c ****         RC_Input_obj->sig.osd_tune_state = false;
 551:Task/Task_Telemetry.c ****         RC_Input_obj->sig.buzz_state = false;
 552:Task/Task_Telemetry.c ****         // RC_Input_obj->sig.control_mode = Telemetry_Control_Mode_Default;
 553:Task/Task_Telemetry.c **** 
 554:Task/Task_Telemetry.c ****         for (uint8_t i = Telemetry_RC_Throttle; i < Telemetry_Gimbal_TagSum; i++)
 555:Task/Task_Telemetry.c ****             RC_Input_obj->sig.gimbal_percent[i] = 0;
 556:Task/Task_Telemetry.c **** 
 557:Task/Task_Telemetry.c ****         Telemetry_Monitor.recover_failsafe = true;
 558:Task/Task_Telemetry.c ****         Telemetry_Led_Control(true);
 559:Task/Task_Telemetry.c ****     }
 560:Task/Task_Telemetry.c **** 
 561:Task/Task_Telemetry.c ****     memcpy(&sig_tmp, &RC_Input_obj->sig, sizeof(Telemetry_RCSig_TypeDef));
 562:Task/Task_Telemetry.c **** 
 563:Task/Task_Telemetry.c ****     return sig_tmp;
 564:Task/Task_Telemetry.c **** }
 1064              		.loc 1 564 1 view .LVU317
ARM GAS  C:\Users\HUAV\AppData\Local\Temp\ccBqtc7a.s 			page 33


 1065 008c 3846     		mov	r0, r7
 1066 008e 23B0     		add	sp, sp, #140
 1067              	.LCFI16:
 1068              		.cfi_remember_state
 1069              		.cfi_def_cfa_offset 20
 1070              		@ sp needed
 1071 0090 F0BD     		pop	{r4, r5, r6, r7, pc}
 1072              	.LVL87:
 1073              	.L68:
 1074              	.LCFI17:
 1075              		.cfi_restore_state
 1076              	.LBB5:
 476:Task/Task_Telemetry.c ****         }
 1077              		.loc 1 476 13 is_stmt 1 discriminator 2 view .LVU318
 476:Task/Task_Telemetry.c ****         }
 1078              		.loc 1 476 57 is_stmt 0 discriminator 2 view .LVU319
 1079 0092 1B9B     		ldr	r3, [sp, #108]
 476:Task/Task_Telemetry.c ****         }
 1080              		.loc 1 476 66 discriminator 2 view .LVU320
 1081 0094 33F81420 		ldrh	r2, [r3, r4, lsl #1]
 476:Task/Task_Telemetry.c ****         }
 1082              		.loc 1 476 42 discriminator 2 view .LVU321
 1083 0098 04F11003 		add	r3, r4, #16
 1084 009c 05EB4303 		add	r3, r5, r3, lsl #1
 1085 00a0 A3F80120 		strh	r2, [r3, #1]	@ unaligned
 468:Task/Task_Telemetry.c ****         {
 1086              		.loc 1 468 60 is_stmt 1 discriminator 2 view .LVU322
 468:Task/Task_Telemetry.c ****         {
 1087              		.loc 1 468 61 is_stmt 0 discriminator 2 view .LVU323
 1088 00a4 0134     		adds	r4, r4, #1
 1089              	.LVL88:
 468:Task/Task_Telemetry.c ****         {
 1090              		.loc 1 468 61 discriminator 2 view .LVU324
 1091 00a6 E4B2     		uxtb	r4, r4
 1092              	.LVL89:
 1093              	.L67:
 468:Task/Task_Telemetry.c ****         {
 1094              		.loc 1 468 29 is_stmt 1 discriminator 1 view .LVU325
 468:Task/Task_Telemetry.c ****         {
 1095              		.loc 1 468 45 is_stmt 0 discriminator 1 view .LVU326
 1096 00a8 B37B     		ldrb	r3, [r6, #14]	@ zero_extendqisi2
 468:Task/Task_Telemetry.c ****         {
 1097              		.loc 1 468 9 discriminator 1 view .LVU327
 1098 00aa A342     		cmp	r3, r4
 1099 00ac 10D9     		bls	.L81
 470:Task/Task_Telemetry.c ****             {
 1100              		.loc 1 470 13 is_stmt 1 view .LVU328
 470:Task/Task_Telemetry.c ****             {
 1101              		.loc 1 470 16 is_stmt 0 view .LVU329
 1102 00ae 032C     		cmp	r4, #3
 1103 00b0 EFD8     		bhi	.L68
 472:Task/Task_Telemetry.c ****                 RC_Input_obj->sig.gimbal_percent[i] = Telemetry_GimbalToPercent(&RC_Input_obj->Gimb
 1104              		.loc 1 472 17 is_stmt 1 view .LVU330
 1105 00b2 04EB4403 		add	r3, r4, r4, lsl #1
 1106 00b6 C3EBC303 		rsb	r3, r3, r3, lsl #3
 1107 00ba 6833     		adds	r3, r3, #104
 1108 00bc 2B44     		add	r3, r3, r5
ARM GAS  C:\Users\HUAV\AppData\Local\Temp\ccBqtc7a.s 			page 34


 473:Task/Task_Telemetry.c ****             }
 1109              		.loc 1 473 17 view .LVU331
 473:Task/Task_Telemetry.c ****             }
 1110              		.loc 1 473 55 is_stmt 0 view .LVU332
 1111 00be 581C     		adds	r0, r3, #1
 1112 00c0 FFF7FEFF 		bl	Telemetry_GimbalToPercent
 1113              	.LVL90:
 473:Task/Task_Telemetry.c ****             }
 1114              		.loc 1 473 53 view .LVU333
 1115 00c4 231D     		adds	r3, r4, #4
 1116 00c6 05EB4303 		add	r3, r5, r3, lsl #1
 1117 00ca A3F80500 		strh	r0, [r3, #5]	@ unaligned
 1118 00ce E0E7     		b	.L68
 1119              	.L81:
 473:Task/Task_Telemetry.c ****             }
 1120              		.loc 1 473 53 view .LVU334
 1121              	.LBE5:
 480:Task/Task_Telemetry.c **** 
 1122              		.loc 1 480 9 is_stmt 1 view .LVU335
 480:Task/Task_Telemetry.c **** 
 1123              		.loc 1 480 40 is_stmt 0 view .LVU336
 1124 00d0 05F1E700 		add	r0, r5, #231
 1125 00d4 FFF7FEFF 		bl	Telemetry_Toggle_Check
 1126              	.LVL91:
 1127 00d8 1E90     		str	r0, [sp, #120]
 480:Task/Task_Telemetry.c **** 
 1128              		.loc 1 480 92 view .LVU337
 1129 00da 9DF87930 		ldrb	r3, [sp, #121]	@ zero_extendqisi2
 480:Task/Task_Telemetry.c **** 
 1130              		.loc 1 480 38 view .LVU338
 1131 00de AB72     		strb	r3, [r5, #10]
 482:Task/Task_Telemetry.c ****         {
 1132              		.loc 1 482 9 is_stmt 1 view .LVU339
 482:Task/Task_Telemetry.c ****         {
 1133              		.loc 1 482 31 is_stmt 0 view .LVU340
 1134 00e0 EB7A     		ldrb	r3, [r5, #11]	@ zero_extendqisi2
 482:Task/Task_Telemetry.c ****         {
 1135              		.loc 1 482 12 view .LVU341
 1136 00e2 73B3     		cbz	r3, .L82
 1137              	.L70:
 495:Task/Task_Telemetry.c ****         {
 1138              		.loc 1 495 9 is_stmt 1 view .LVU342
 495:Task/Task_Telemetry.c ****         {
 1139              		.loc 1 495 30 is_stmt 0 view .LVU343
 1140 00e4 6B7A     		ldrb	r3, [r5, #9]	@ zero_extendqisi2
 495:Task/Task_Telemetry.c ****         {
 1141              		.loc 1 495 12 view .LVU344
 1142 00e6 002B     		cmp	r3, #0
 1143 00e8 40D1     		bne	.L83
 1144              	.L71:
 510:Task/Task_Telemetry.c ****         RC_Input_obj->sig.update_interval = RC_Input_obj->update_rt - RC_Input_obj->lst_update_rt;
 1145              		.loc 1 510 9 is_stmt 1 view .LVU345
 510:Task/Task_Telemetry.c ****         RC_Input_obj->sig.update_interval = RC_Input_obj->update_rt - RC_Input_obj->lst_update_rt;
 1146              		.loc 1 510 48 is_stmt 0 view .LVU346
 1147 00ea 1A9B     		ldr	r3, [sp, #104]
 510:Task/Task_Telemetry.c ****         RC_Input_obj->sig.update_interval = RC_Input_obj->update_rt - RC_Input_obj->lst_update_rt;
 1148              		.loc 1 510 33 view .LVU347
ARM GAS  C:\Users\HUAV\AppData\Local\Temp\ccBqtc7a.s 			page 35


 1149 00ec C5F80130 		str	r3, [r5, #1]	@ unaligned
 511:Task/Task_Telemetry.c **** 
 1150              		.loc 1 511 9 is_stmt 1 view .LVU348
 511:Task/Task_Telemetry.c **** 
 1151              		.loc 1 511 83 is_stmt 0 view .LVU349
 1152 00f0 D5F80520 		ldr	r2, [r5, #5]	@ unaligned
 511:Task/Task_Telemetry.c **** 
 1153              		.loc 1 511 69 view .LVU350
 1154 00f4 9A1A     		subs	r2, r3, r2
 511:Task/Task_Telemetry.c **** 
 1155              		.loc 1 511 43 view .LVU351
 1156 00f6 AA61     		str	r2, [r5, #24]	@ unaligned
 513:Task/Task_Telemetry.c ****         RC_Input_obj->sig.failsafe = false;
 1157              		.loc 1 513 9 is_stmt 1 view .LVU352
 513:Task/Task_Telemetry.c ****         RC_Input_obj->sig.failsafe = false;
 1158              		.loc 1 513 37 is_stmt 0 view .LVU353
 1159 00f8 C5F80530 		str	r3, [r5, #5]	@ unaligned
 514:Task/Task_Telemetry.c **** 
 1160              		.loc 1 514 9 is_stmt 1 view .LVU354
 514:Task/Task_Telemetry.c **** 
 1161              		.loc 1 514 36 is_stmt 0 view .LVU355
 1162 00fc 0023     		movs	r3, #0
 1163 00fe 2B73     		strb	r3, [r5, #12]
 517:Task/Task_Telemetry.c ****         {
 1164              		.loc 1 517 9 is_stmt 1 view .LVU356
 517:Task/Task_Telemetry.c ****         {
 1165              		.loc 1 517 30 is_stmt 0 view .LVU357
 1166 0100 4C4B     		ldr	r3, .L87+8
 1167 0102 9B7C     		ldrb	r3, [r3, #18]	@ zero_extendqisi2
 517:Task/Task_Telemetry.c ****         {
 1168              		.loc 1 517 12 view .LVU358
 1169 0104 43B1     		cbz	r3, .L74
 521:Task/Task_Telemetry.c ****             {
 1170              		.loc 1 521 13 is_stmt 1 view .LVU359
 521:Task/Task_Telemetry.c ****             {
 1171              		.loc 1 521 35 is_stmt 0 view .LVU360
 1172 0106 4B4B     		ldr	r3, .L87+8
 1173 0108 DB7C     		ldrb	r3, [r3, #19]	@ zero_extendqisi2
 521:Task/Task_Telemetry.c ****             {
 1174              		.loc 1 521 16 view .LVU361
 1175 010a 13B1     		cbz	r3, .L75
 521:Task/Task_Telemetry.c ****             {
 1176              		.loc 1 521 93 discriminator 1 view .LVU362
 1177 010c 6B7A     		ldrb	r3, [r5, #9]	@ zero_extendqisi2
 521:Task/Task_Telemetry.c ****             {
 1178              		.loc 1 521 72 discriminator 1 view .LVU363
 1179 010e 002B     		cmp	r3, #0
 1180 0110 67D0     		beq	.L84
 1181              	.L75:
 527:Task/Task_Telemetry.c ****         }
 1182              		.loc 1 527 13 is_stmt 1 view .LVU364
 527:Task/Task_Telemetry.c ****         }
 1183              		.loc 1 527 48 is_stmt 0 view .LVU365
 1184 0112 484B     		ldr	r3, .L87+8
 1185 0114 0022     		movs	r2, #0
 1186 0116 9A74     		strb	r2, [r3, #18]
 1187              	.L74:
ARM GAS  C:\Users\HUAV\AppData\Local\Temp\ccBqtc7a.s 			page 36


 533:Task/Task_Telemetry.c ****         {
 1188              		.loc 1 533 9 is_stmt 1 view .LVU366
 533:Task/Task_Telemetry.c ****         {
 1189              		.loc 1 533 31 is_stmt 0 view .LVU367
 1190 0118 6B7A     		ldrb	r3, [r5, #9]	@ zero_extendqisi2
 533:Task/Task_Telemetry.c ****         {
 1191              		.loc 1 533 12 view .LVU368
 1192 011a 5BB9     		cbnz	r3, .L76
 533:Task/Task_Telemetry.c ****         {
 1193              		.loc 1 533 88 discriminator 1 view .LVU369
 1194 011c 454B     		ldr	r3, .L87+8
 1195 011e DB7C     		ldrb	r3, [r3, #19]	@ zero_extendqisi2
 533:Task/Task_Telemetry.c ****         {
 1196              		.loc 1 533 67 discriminator 1 view .LVU370
 1197 0120 43B1     		cbz	r3, .L76
 535:Task/Task_Telemetry.c ****             {
 1198              		.loc 1 535 13 is_stmt 1 view .LVU371
 535:Task/Task_Telemetry.c ****             {
 1199              		.loc 1 535 49 is_stmt 0 view .LVU372
 1200 0122 B5F80D30 		ldrh	r3, [r5, #13]	@ unaligned
 535:Task/Task_Telemetry.c ****             {
 1201              		.loc 1 535 16 view .LVU373
 1202 0126 042B     		cmp	r3, #4
 1203 0128 04D9     		bls	.L76
 537:Task/Task_Telemetry.c ****                 RC_Input_obj->sig.arm_state = TELEMETRY_SET_ARM;
 1204              		.loc 1 537 17 is_stmt 1 view .LVU374
 537:Task/Task_Telemetry.c ****                 RC_Input_obj->sig.arm_state = TELEMETRY_SET_ARM;
 1205              		.loc 1 537 53 is_stmt 0 view .LVU375
 1206 012a 0023     		movs	r3, #0
 1207 012c 6B73     		strb	r3, [r5, #13]
 1208 012e AB73     		strb	r3, [r5, #14]
 538:Task/Task_Telemetry.c ****             }
 1209              		.loc 1 538 17 is_stmt 1 view .LVU376
 538:Task/Task_Telemetry.c ****             }
 1210              		.loc 1 538 45 is_stmt 0 view .LVU377
 1211 0130 0123     		movs	r3, #1
 1212 0132 6B72     		strb	r3, [r5, #9]
 1213              	.L76:
 542:Task/Task_Telemetry.c **** 
 1214              		.loc 1 542 9 is_stmt 1 view .LVU378
 542:Task/Task_Telemetry.c **** 
 1215              		.loc 1 542 60 is_stmt 0 view .LVU379
 1216 0134 6A7A     		ldrb	r2, [r5, #9]	@ zero_extendqisi2
 542:Task/Task_Telemetry.c **** 
 1217              		.loc 1 542 41 view .LVU380
 1218 0136 3F4B     		ldr	r3, .L87+8
 1219 0138 DA74     		strb	r2, [r3, #19]
 544:Task/Task_Telemetry.c ****     }
 1220              		.loc 1 544 9 is_stmt 1 view .LVU381
 1221 013a 0020     		movs	r0, #0
 1222 013c FFF7FEFF 		bl	Telemetry_Led_Control
 1223              	.LVL92:
 1224 0140 67E0     		b	.L77
 1225              	.L82:
 485:Task/Task_Telemetry.c **** 
 1226              		.loc 1 485 13 view .LVU382
 485:Task/Task_Telemetry.c **** 
ARM GAS  C:\Users\HUAV\AppData\Local\Temp\ccBqtc7a.s 			page 37


 1227              		.loc 1 485 43 is_stmt 0 view .LVU383
 1228 0142 05F1BD00 		add	r0, r5, #189
 1229 0146 FFF7FEFF 		bl	Telemetry_Toggle_Check
 1230              	.LVL93:
 1231 014a 1F90     		str	r0, [sp, #124]
 485:Task/Task_Telemetry.c **** 
 1232              		.loc 1 485 92 view .LVU384
 1233 014c 9DF87D30 		ldrb	r3, [sp, #125]	@ zero_extendqisi2
 485:Task/Task_Telemetry.c **** 
 1234              		.loc 1 485 41 view .LVU385
 1235 0150 6B72     		strb	r3, [r5, #9]
 488:Task/Task_Telemetry.c **** 
 1236              		.loc 1 488 13 is_stmt 1 view .LVU386
 488:Task/Task_Telemetry.c **** 
 1237              		.loc 1 488 46 is_stmt 0 view .LVU387
 1238 0152 05F1D200 		add	r0, r5, #210
 1239 0156 FFF7FEFF 		bl	Telemetry_Toggle_Check
 1240              	.LVL94:
 1241 015a 2090     		str	r0, [sp, #128]
 488:Task/Task_Telemetry.c **** 
 1242              		.loc 1 488 44 view .LVU388
 1243 015c 9DF88230 		ldrb	r3, [sp, #130]	@ zero_extendqisi2
 1244 0160 6B75     		strb	r3, [r5, #21]
 491:Task/Task_Telemetry.c ****                 RC_Input_obj->sig.control_mode = Telemetry_Control_Mode_Default;
 1245              		.loc 1 491 13 is_stmt 1 view .LVU389
 491:Task/Task_Telemetry.c ****                 RC_Input_obj->sig.control_mode = Telemetry_Control_Mode_Default;
 1246              		.loc 1 491 16 is_stmt 0 view .LVU390
 1247 0162 022B     		cmp	r3, #2
 1248 0164 BED9     		bls	.L70
 492:Task/Task_Telemetry.c ****         }
 1249              		.loc 1 492 17 is_stmt 1 view .LVU391
 492:Task/Task_Telemetry.c ****         }
 1250              		.loc 1 492 48 is_stmt 0 view .LVU392
 1251 0166 0123     		movs	r3, #1
 1252 0168 6B75     		strb	r3, [r5, #21]
 1253 016a BBE7     		b	.L70
 1254              	.L83:
 498:Task/Task_Telemetry.c ****             {
 1255              		.loc 1 498 13 is_stmt 1 view .LVU393
 498:Task/Task_Telemetry.c ****             {
 1256              		.loc 1 498 17 is_stmt 0 view .LVU394
 1257 016c 05F21110 		addw	r0, r5, #273
 1258 0170 FFF7FEFF 		bl	Telemetry_Toggle_Check
 1259              	.LVL95:
 1260 0174 2190     		str	r0, [sp, #132]
 498:Task/Task_Telemetry.c ****             {
 1261              		.loc 1 498 66 view .LVU395
 1262 0176 9DF88530 		ldrb	r3, [sp, #133]	@ zero_extendqisi2
 498:Task/Task_Telemetry.c ****             {
 1263              		.loc 1 498 16 view .LVU396
 1264 017a FBB1     		cbz	r3, .L72
 500:Task/Task_Telemetry.c ****                     Receiver_Obj.OSDTune_TriggerMs = Get_CurrentRunningMs();
 1265              		.loc 1 500 17 is_stmt 1 view .LVU397
 500:Task/Task_Telemetry.c ****                     Receiver_Obj.OSDTune_TriggerMs = Get_CurrentRunningMs();
 1266              		.loc 1 500 33 is_stmt 0 view .LVU398
 1267 017c 2C4B     		ldr	r3, .L87+4
 1268 017e D3F82F20 		ldr	r2, [r3, #47]	@ unaligned
ARM GAS  C:\Users\HUAV\AppData\Local\Temp\ccBqtc7a.s 			page 38


 1269 0182 D3F83330 		ldr	r3, [r3, #51]	@ unaligned
 500:Task/Task_Telemetry.c ****                     Receiver_Obj.OSDTune_TriggerMs = Get_CurrentRunningMs();
 1270              		.loc 1 500 20 view .LVU399
 1271 0186 1343     		orrs	r3, r2, r3
 1272 0188 10D0     		beq	.L85
 1273              	.L73:
 503:Task/Task_Telemetry.c ****                     RC_Input_obj->sig.osd_tune_state = true;
 1274              		.loc 1 503 17 is_stmt 1 view .LVU400
 503:Task/Task_Telemetry.c ****                     RC_Input_obj->sig.osd_tune_state = true;
 1275              		.loc 1 503 21 is_stmt 0 view .LVU401
 1276 018a FFF7FEFF 		bl	Get_CurrentRunningMs
 1277              	.LVL96:
 503:Task/Task_Telemetry.c ****                     RC_Input_obj->sig.osd_tune_state = true;
 1278              		.loc 1 503 58 view .LVU402
 1279 018e 284A     		ldr	r2, .L87+4
 1280 0190 D2F82F30 		ldr	r3, [r2, #47]	@ unaligned
 1281 0194 D2F83320 		ldr	r2, [r2, #51]	@ unaligned
 503:Task/Task_Telemetry.c ****                     RC_Input_obj->sig.osd_tune_state = true;
 1282              		.loc 1 503 44 view .LVU403
 1283 0198 C01A     		subs	r0, r0, r3
 1284 019a 61EB0201 		sbc	r1, r1, r2
 503:Task/Task_Telemetry.c ****                     RC_Input_obj->sig.osd_tune_state = true;
 1285              		.loc 1 503 20 view .LVU404
 1286 019e 6428     		cmp	r0, #100
 1287 01a0 71F10003 		sbcs	r3, r1, #0
 1288 01a4 A1D3     		bcc	.L71
 504:Task/Task_Telemetry.c ****             }
 1289              		.loc 1 504 21 is_stmt 1 view .LVU405
 504:Task/Task_Telemetry.c ****             }
 1290              		.loc 1 504 54 is_stmt 0 view .LVU406
 1291 01a6 0123     		movs	r3, #1
 1292 01a8 EB72     		strb	r3, [r5, #11]
 1293 01aa 9EE7     		b	.L71
 1294              	.L85:
 501:Task/Task_Telemetry.c **** 
 1295              		.loc 1 501 21 is_stmt 1 view .LVU407
 501:Task/Task_Telemetry.c **** 
 1296              		.loc 1 501 54 is_stmt 0 view .LVU408
 1297 01ac FFF7FEFF 		bl	Get_CurrentRunningMs
 1298              	.LVL97:
 501:Task/Task_Telemetry.c **** 
 1299              		.loc 1 501 52 view .LVU409
 1300 01b0 1F4B     		ldr	r3, .L87+4
 1301 01b2 C3F82F00 		str	r0, [r3, #47]	@ unaligned
 1302 01b6 C3F83310 		str	r1, [r3, #51]	@ unaligned
 1303 01ba E6E7     		b	.L73
 1304              	.L72:
 507:Task/Task_Telemetry.c ****         }
 1305              		.loc 1 507 17 is_stmt 1 view .LVU410
 507:Task/Task_Telemetry.c ****         }
 1306              		.loc 1 507 48 is_stmt 0 view .LVU411
 1307 01bc 1C49     		ldr	r1, .L87+4
 1308 01be 0023     		movs	r3, #0
 1309 01c0 81F82F30 		strb	r3, [r1, #47]
 1310 01c4 81F83030 		strb	r3, [r1, #48]
 1311 01c8 81F83130 		strb	r3, [r1, #49]
 1312 01cc 81F83230 		strb	r3, [r1, #50]
ARM GAS  C:\Users\HUAV\AppData\Local\Temp\ccBqtc7a.s 			page 39


 1313 01d0 81F83330 		strb	r3, [r1, #51]
 1314 01d4 81F83430 		strb	r3, [r1, #52]
 1315 01d8 81F83530 		strb	r3, [r1, #53]
 1316 01dc 81F83630 		strb	r3, [r1, #54]
 1317 01e0 83E7     		b	.L71
 1318              	.L84:
 523:Task/Task_Telemetry.c ****                 return;
 1319              		.loc 1 523 17 is_stmt 1 view .LVU412
 523:Task/Task_Telemetry.c ****                 return;
 1320              		.loc 1 523 44 is_stmt 0 view .LVU413
 1321 01e2 0123     		movs	r3, #1
 1322 01e4 2B73     		strb	r3, [r5, #12]
 524:Task/Task_Telemetry.c ****             }
 1323              		.loc 1 524 17 is_stmt 1 view .LVU414
 1324 01e6 51E7     		b	.L62
 1325              	.LVL98:
 1326              	.L66:
 548:Task/Task_Telemetry.c ****         // RC_Input_obj->sig.arm_state = TELEMETRY_SET_ARM;
 1327              		.loc 1 548 9 view .LVU415
 548:Task/Task_Telemetry.c ****         // RC_Input_obj->sig.arm_state = TELEMETRY_SET_ARM;
 1328              		.loc 1 548 36 is_stmt 0 view .LVU416
 1329 01e8 0123     		movs	r3, #1
 1330 01ea 2B73     		strb	r3, [r5, #12]
 550:Task/Task_Telemetry.c ****         RC_Input_obj->sig.buzz_state = false;
 1331              		.loc 1 550 9 is_stmt 1 view .LVU417
 550:Task/Task_Telemetry.c ****         RC_Input_obj->sig.buzz_state = false;
 1332              		.loc 1 550 42 is_stmt 0 view .LVU418
 1333 01ec 0023     		movs	r3, #0
 1334 01ee EB72     		strb	r3, [r5, #11]
 551:Task/Task_Telemetry.c ****         // RC_Input_obj->sig.control_mode = Telemetry_Control_Mode_Default;
 1335              		.loc 1 551 9 is_stmt 1 view .LVU419
 551:Task/Task_Telemetry.c ****         // RC_Input_obj->sig.control_mode = Telemetry_Control_Mode_Default;
 1336              		.loc 1 551 38 is_stmt 0 view .LVU420
 1337 01f0 AB72     		strb	r3, [r5, #10]
 554:Task/Task_Telemetry.c ****             RC_Input_obj->sig.gimbal_percent[i] = 0;
 1338              		.loc 1 554 9 is_stmt 1 view .LVU421
 1339              	.LBB6:
 554:Task/Task_Telemetry.c ****             RC_Input_obj->sig.gimbal_percent[i] = 0;
 1340              		.loc 1 554 14 view .LVU422
 1341              	.LVL99:
 1342              	.L78:
 554:Task/Task_Telemetry.c ****             RC_Input_obj->sig.gimbal_percent[i] = 0;
 1343              		.loc 1 554 49 discriminator 1 view .LVU423
 554:Task/Task_Telemetry.c ****             RC_Input_obj->sig.gimbal_percent[i] = 0;
 1344              		.loc 1 554 9 is_stmt 0 discriminator 1 view .LVU424
 1345 01f2 032B     		cmp	r3, #3
 1346 01f4 08D8     		bhi	.L86
 555:Task/Task_Telemetry.c **** 
 1347              		.loc 1 555 13 is_stmt 1 discriminator 3 view .LVU425
 555:Task/Task_Telemetry.c **** 
 1348              		.loc 1 555 49 is_stmt 0 discriminator 3 view .LVU426
 1349 01f6 1A1D     		adds	r2, r3, #4
 1350 01f8 05EB4202 		add	r2, r5, r2, lsl #1
 1351 01fc 0021     		movs	r1, #0
 1352 01fe 5171     		strb	r1, [r2, #5]
 1353 0200 9171     		strb	r1, [r2, #6]
 554:Task/Task_Telemetry.c ****             RC_Input_obj->sig.gimbal_percent[i] = 0;
ARM GAS  C:\Users\HUAV\AppData\Local\Temp\ccBqtc7a.s 			page 40


 1354              		.loc 1 554 78 is_stmt 1 discriminator 3 view .LVU427
 554:Task/Task_Telemetry.c ****             RC_Input_obj->sig.gimbal_percent[i] = 0;
 1355              		.loc 1 554 79 is_stmt 0 discriminator 3 view .LVU428
 1356 0202 0133     		adds	r3, r3, #1
 1357              	.LVL100:
 554:Task/Task_Telemetry.c ****             RC_Input_obj->sig.gimbal_percent[i] = 0;
 1358              		.loc 1 554 79 discriminator 3 view .LVU429
 1359 0204 DBB2     		uxtb	r3, r3
 1360              	.LVL101:
 554:Task/Task_Telemetry.c ****             RC_Input_obj->sig.gimbal_percent[i] = 0;
 1361              		.loc 1 554 79 discriminator 3 view .LVU430
 1362 0206 F4E7     		b	.L78
 1363              	.L86:
 554:Task/Task_Telemetry.c ****             RC_Input_obj->sig.gimbal_percent[i] = 0;
 1364              		.loc 1 554 79 discriminator 3 view .LVU431
 1365              	.LBE6:
 557:Task/Task_Telemetry.c ****         Telemetry_Led_Control(true);
 1366              		.loc 1 557 9 is_stmt 1 view .LVU432
 557:Task/Task_Telemetry.c ****         Telemetry_Led_Control(true);
 1367              		.loc 1 557 44 is_stmt 0 view .LVU433
 1368 0208 0120     		movs	r0, #1
 1369 020a 0A4B     		ldr	r3, .L87+8
 1370              	.LVL102:
 557:Task/Task_Telemetry.c ****         Telemetry_Led_Control(true);
 1371              		.loc 1 557 44 view .LVU434
 1372 020c 9874     		strb	r0, [r3, #18]
 558:Task/Task_Telemetry.c ****     }
 1373              		.loc 1 558 9 is_stmt 1 view .LVU435
 1374 020e FFF7FEFF 		bl	Telemetry_Led_Control
 1375              	.LVL103:
 1376              	.L77:
 561:Task/Task_Telemetry.c **** 
 1377              		.loc 1 561 5 view .LVU436
 1378 0212 5824     		movs	r4, #88
 1379 0214 2246     		mov	r2, r4
 1380 0216 05F10901 		add	r1, r5, #9
 1381 021a 04A8     		add	r0, sp, #16
 1382 021c FFF7FEFF 		bl	memcpy
 1383              	.LVL104:
 563:Task/Task_Telemetry.c **** }
 1384              		.loc 1 563 5 view .LVU437
 563:Task/Task_Telemetry.c **** }
 1385              		.loc 1 563 12 is_stmt 0 view .LVU438
 1386 0220 2246     		mov	r2, r4
 1387 0222 04A9     		add	r1, sp, #16
 1388 0224 3846     		mov	r0, r7
 1389 0226 FFF7FEFF 		bl	memcpy
 1390              	.LVL105:
 1391 022a 2FE7     		b	.L62
 1392              	.L88:
 1393              		.align	2
 1394              	.L87:
 1395 022c 00000000 		.word	SrvReceiver
 1396 0230 00000000 		.word	.LANCHOR0
 1397 0234 00000000 		.word	.LANCHOR1
 1398              		.cfi_endproc
 1399              	.LFE2010:
ARM GAS  C:\Users\HUAV\AppData\Local\Temp\ccBqtc7a.s 			page 41


 1401              		.section	.text.TaskTelemetry_Set_DataIO_Enable,"ax",%progbits
 1402              		.align	1
 1403              		.global	TaskTelemetry_Set_DataIO_Enable
 1404              		.syntax unified
 1405              		.thumb
 1406              		.thumb_func
 1407              		.fpu fpv5-d16
 1409              	TaskTelemetry_Set_DataIO_Enable:
 1410              	.LVL106:
 1411              	.LFB1997:
  56:Task/Task_Telemetry.c ****     RCData_To_Configuretor = state;
 1412              		.loc 1 56 1 is_stmt 1 view -0
 1413              		.cfi_startproc
 1414              		@ args = 0, pretend = 0, frame = 0
 1415              		@ frame_needed = 0, uses_anonymous_args = 0
 1416              		@ link register save eliminated.
  57:Task/Task_Telemetry.c **** }
 1417              		.loc 1 57 5 view .LVU440
  57:Task/Task_Telemetry.c **** }
 1418              		.loc 1 57 28 is_stmt 0 view .LVU441
 1419 0000 014B     		ldr	r3, .L90
 1420 0002 1870     		strb	r0, [r3]
  58:Task/Task_Telemetry.c **** 
 1421              		.loc 1 58 1 view .LVU442
 1422 0004 7047     		bx	lr
 1423              	.L91:
 1424 0006 00BF     		.align	2
 1425              	.L90:
 1426 0008 00000000 		.word	.LANCHOR2
 1427              		.cfi_endproc
 1428              	.LFE1997:
 1430              		.section	.text.TaskTelemetry_Init,"ax",%progbits
 1431              		.align	1
 1432              		.global	TaskTelemetry_Init
 1433              		.syntax unified
 1434              		.thumb
 1435              		.thumb_func
 1436              		.fpu fpv5-d16
 1438              	TaskTelemetry_Init:
 1439              	.LFB1998:
  61:Task/Task_Telemetry.c ****     memset(&Telemetry_Monitor, 0, sizeof(Telemetry_Monitor));
 1440              		.loc 1 61 1 is_stmt 1 view -0
 1441              		.cfi_startproc
 1442              		@ args = 0, pretend = 0, frame = 0
 1443              		@ frame_needed = 0, uses_anonymous_args = 0
 1444 0000 70B5     		push	{r4, r5, r6, lr}
 1445              	.LCFI18:
 1446              		.cfi_def_cfa_offset 16
 1447              		.cfi_offset 4, -16
 1448              		.cfi_offset 5, -12
 1449              		.cfi_offset 6, -8
 1450              		.cfi_offset 14, -4
 1451 0002 82B0     		sub	sp, sp, #8
 1452              	.LCFI19:
 1453              		.cfi_def_cfa_offset 24
  62:Task/Task_Telemetry.c **** 
 1454              		.loc 1 62 5 view .LVU444
ARM GAS  C:\Users\HUAV\AppData\Local\Temp\ccBqtc7a.s 			page 42


 1455 0004 884D     		ldr	r5, .L97
 1456 0006 0024     		movs	r4, #0
 1457 0008 2C60     		str	r4, [r5]
 1458 000a 6C60     		str	r4, [r5, #4]
 1459 000c AC60     		str	r4, [r5, #8]
 1460 000e EC60     		str	r4, [r5, #12]
 1461 0010 2C61     		str	r4, [r5, #16]
  64:Task/Task_Telemetry.c ****     SrvComProto.init(SrvComProto_Type_MAV, NULL);
 1462              		.loc 1 64 5 view .LVU445
  64:Task/Task_Telemetry.c ****     SrvComProto.init(SrvComProto_Type_MAV, NULL);
 1463              		.loc 1 64 33 is_stmt 0 view .LVU446
 1464 0012 FFF7FEFF 		bl	Get_CurrentRunningMs
 1465              	.LVL107:
  64:Task/Task_Telemetry.c ****     SrvComProto.init(SrvComProto_Type_MAV, NULL);
 1466              		.loc 1 64 31 view .LVU447
 1467 0016 2860     		str	r0, [r5]
  65:Task/Task_Telemetry.c **** 
 1468              		.loc 1 65 5 is_stmt 1 view .LVU448
  65:Task/Task_Telemetry.c **** 
 1469              		.loc 1 65 16 is_stmt 0 view .LVU449
 1470 0018 844B     		ldr	r3, .L97+4
 1471 001a 1B68     		ldr	r3, [r3]
  65:Task/Task_Telemetry.c **** 
 1472              		.loc 1 65 5 view .LVU450
 1473 001c 2146     		mov	r1, r4
 1474 001e 0220     		movs	r0, #2
 1475 0020 9847     		blx	r3
 1476              	.LVL108:
  68:Task/Task_Telemetry.c ****     {
 1477              		.loc 1 68 5 is_stmt 1 view .LVU451
  68:Task/Task_Telemetry.c ****     {
 1478              		.loc 1 68 9 is_stmt 0 view .LVU452
 1479 0022 8349     		ldr	r1, .L97+8
 1480 0024 8348     		ldr	r0, .L97+12
 1481 0026 FFF7FEFF 		bl	Telemetry_RC_Sig_Init
 1482              	.LVL109:
  68:Task/Task_Telemetry.c ****     {
 1483              		.loc 1 68 8 view .LVU453
 1484 002a 30B1     		cbz	r0, .L92
  72:Task/Task_Telemetry.c ****         {
 1485              		.loc 1 72 9 is_stmt 1 view .LVU454
  72:Task/Task_Telemetry.c ****         {
 1486              		.loc 1 72 25 is_stmt 0 view .LVU455
 1487 002c 804B     		ldr	r3, .L97+8
 1488 002e 1B78     		ldrb	r3, [r3]	@ zero_extendqisi2
  72:Task/Task_Telemetry.c ****         {
 1489              		.loc 1 72 12 view .LVU456
 1490 0030 012B     		cmp	r3, #1
 1491 0032 04D0     		beq	.L96
 1492              	.L94:
 109:Task/Task_Telemetry.c **** 
 1493              		.loc 1 109 9 is_stmt 1 view .LVU457
 111:Task/Task_Telemetry.c ****     }
 1494              		.loc 1 111 9 view .LVU458
 111:Task/Task_Telemetry.c ****     }
 1495              		.loc 1 111 41 is_stmt 0 view .LVU459
 1496 0034 7C4B     		ldr	r3, .L97
ARM GAS  C:\Users\HUAV\AppData\Local\Temp\ccBqtc7a.s 			page 43


 1497 0036 0122     		movs	r2, #1
 1498 0038 DA74     		strb	r2, [r3, #19]
 1499              	.L92:
 115:Task/Task_Telemetry.c **** 
 1500              		.loc 1 115 1 view .LVU460
 1501 003a 02B0     		add	sp, sp, #8
 1502              	.LCFI20:
 1503              		.cfi_remember_state
 1504              		.cfi_def_cfa_offset 16
 1505              		@ sp needed
 1506 003c 70BD     		pop	{r4, r5, r6, pc}
 1507              	.L96:
 1508              	.LCFI21:
 1509              		.cfi_restore_state
  76:Task/Task_Telemetry.c ****                 Telemetry_BindGimbalToChannel(&RC_Setting, &Receiver_Obj.data.val_list[1], Telemetr
 1510              		.loc 1 76 13 is_stmt 1 view .LVU461
  76:Task/Task_Telemetry.c ****                 Telemetry_BindGimbalToChannel(&RC_Setting, &Receiver_Obj.data.val_list[1], Telemetr
 1511              		.loc 1 76 78 is_stmt 0 view .LVU462
 1512 003e 7C4B     		ldr	r3, .L97+8
 1513 0040 D3F81710 		ldr	r1, [r3, #23]	@ unaligned
  76:Task/Task_Telemetry.c ****                 Telemetry_BindGimbalToChannel(&RC_Setting, &Receiver_Obj.data.val_list[1], Telemetr
 1514              		.loc 1 76 17 view .LVU463
 1515 0044 40F26C73 		movw	r3, #1900
 1516 0048 0193     		str	r3, [sp, #4]
 1517 004a 4FF47A73 		mov	r3, #1000
 1518 004e 0093     		str	r3, [sp]
 1519 0050 6423     		movs	r3, #100
 1520 0052 2246     		mov	r2, r4
 1521 0054 0431     		adds	r1, r1, #4
 1522 0056 7748     		ldr	r0, .L97+12
 1523 0058 FFF7FEFF 		bl	Telemetry_BindGimbalToChannel
 1524              	.LVL110:
  76:Task/Task_Telemetry.c ****                 Telemetry_BindGimbalToChannel(&RC_Setting, &Receiver_Obj.data.val_list[1], Telemetr
 1525              		.loc 1 76 16 view .LVU464
 1526 005c 0028     		cmp	r0, #0
 1527 005e E9D0     		beq	.L94
  77:Task/Task_Telemetry.c ****                 Telemetry_BindGimbalToChannel(&RC_Setting, &Receiver_Obj.data.val_list[0], Telemetr
 1528              		.loc 1 77 78 discriminator 1 view .LVU465
 1529 0060 734B     		ldr	r3, .L97+8
 1530 0062 D3F81710 		ldr	r1, [r3, #23]	@ unaligned
  77:Task/Task_Telemetry.c ****                 Telemetry_BindGimbalToChannel(&RC_Setting, &Receiver_Obj.data.val_list[0], Telemetr
 1531              		.loc 1 77 17 discriminator 1 view .LVU466
 1532 0066 40F26C73 		movw	r3, #1900
 1533 006a 0193     		str	r3, [sp, #4]
 1534 006c 4FF47A73 		mov	r3, #1000
 1535 0070 0093     		str	r3, [sp]
 1536 0072 6423     		movs	r3, #100
 1537 0074 0122     		movs	r2, #1
 1538 0076 0231     		adds	r1, r1, #2
 1539 0078 6E48     		ldr	r0, .L97+12
 1540 007a FFF7FEFF 		bl	Telemetry_BindGimbalToChannel
 1541              	.LVL111:
  76:Task/Task_Telemetry.c ****                 Telemetry_BindGimbalToChannel(&RC_Setting, &Receiver_Obj.data.val_list[1], Telemetr
 1542              		.loc 1 76 211 discriminator 1 view .LVU467
 1543 007e 0028     		cmp	r0, #0
 1544 0080 D8D0     		beq	.L94
  78:Task/Task_Telemetry.c ****                 Telemetry_BindGimbalToChannel(&RC_Setting, &Receiver_Obj.data.val_list[3], Telemetr
ARM GAS  C:\Users\HUAV\AppData\Local\Temp\ccBqtc7a.s 			page 44


 1545              		.loc 1 78 17 view .LVU468
 1546 0082 40F26C73 		movw	r3, #1900
 1547 0086 0193     		str	r3, [sp, #4]
 1548 0088 4FF47A73 		mov	r3, #1000
 1549 008c 0093     		str	r3, [sp]
 1550 008e 6423     		movs	r3, #100
 1551 0090 0222     		movs	r2, #2
 1552 0092 6749     		ldr	r1, .L97+8
 1553 0094 D1F81710 		ldr	r1, [r1, #23]	@ unaligned
 1554 0098 6648     		ldr	r0, .L97+12
 1555 009a FFF7FEFF 		bl	Telemetry_BindGimbalToChannel
 1556              	.LVL112:
  77:Task/Task_Telemetry.c ****                 Telemetry_BindGimbalToChannel(&RC_Setting, &Receiver_Obj.data.val_list[0], Telemetr
 1557              		.loc 1 77 208 view .LVU469
 1558 009e 0028     		cmp	r0, #0
 1559 00a0 C8D0     		beq	.L94
  79:Task/Task_Telemetry.c ****                 Telemetry_BindToggleToChannel(&RC_Setting, &Receiver_Obj.data.val_list[4], &RC_Sett
 1560              		.loc 1 79 78 view .LVU470
 1561 00a2 634B     		ldr	r3, .L97+8
 1562 00a4 D3F81710 		ldr	r1, [r3, #23]	@ unaligned
  79:Task/Task_Telemetry.c ****                 Telemetry_BindToggleToChannel(&RC_Setting, &Receiver_Obj.data.val_list[4], &RC_Sett
 1563              		.loc 1 79 17 view .LVU471
 1564 00a8 40F26C73 		movw	r3, #1900
 1565 00ac 0193     		str	r3, [sp, #4]
 1566 00ae 4FF47A73 		mov	r3, #1000
 1567 00b2 0093     		str	r3, [sp]
 1568 00b4 6423     		movs	r3, #100
 1569 00b6 0322     		movs	r2, #3
 1570 00b8 0631     		adds	r1, r1, #6
 1571 00ba 5E48     		ldr	r0, .L97+12
 1572 00bc FFF7FEFF 		bl	Telemetry_BindGimbalToChannel
 1573              	.LVL113:
  78:Task/Task_Telemetry.c ****                 Telemetry_BindGimbalToChannel(&RC_Setting, &Receiver_Obj.data.val_list[3], Telemetr
 1574              		.loc 1 78 207 view .LVU472
 1575 00c0 0028     		cmp	r0, #0
 1576 00c2 B7D0     		beq	.L94
  80:Task/Task_Telemetry.c ****                 Telemetry_BindToggleToChannel(&RC_Setting, &Receiver_Obj.data.val_list[5], &RC_Sett
 1577              		.loc 1 80 78 view .LVU473
 1578 00c4 5A4B     		ldr	r3, .L97+8
 1579 00c6 D3F81710 		ldr	r1, [r3, #23]	@ unaligned
  80:Task/Task_Telemetry.c ****                 Telemetry_BindToggleToChannel(&RC_Setting, &Receiver_Obj.data.val_list[5], &RC_Sett
 1580              		.loc 1 80 17 view .LVU474
 1581 00ca 5A48     		ldr	r0, .L97+12
 1582 00cc 4FF47A73 		mov	r3, #1000
 1583 00d0 0093     		str	r3, [sp]
 1584 00d2 6423     		movs	r3, #100
 1585 00d4 00F1BD02 		add	r2, r0, #189
 1586 00d8 0831     		adds	r1, r1, #8
 1587 00da FFF7FEFF 		bl	Telemetry_BindToggleToChannel
 1588              	.LVL114:
  79:Task/Task_Telemetry.c ****                 Telemetry_BindToggleToChannel(&RC_Setting, &Receiver_Obj.data.val_list[4], &RC_Sett
 1589              		.loc 1 79 206 view .LVU475
 1590 00de 0028     		cmp	r0, #0
 1591 00e0 A8D0     		beq	.L94
  81:Task/Task_Telemetry.c ****                 Telemetry_BindToggleToChannel(&RC_Setting, &Receiver_Obj.data.val_list[6], &RC_Sett
 1592              		.loc 1 81 78 view .LVU476
 1593 00e2 534B     		ldr	r3, .L97+8
ARM GAS  C:\Users\HUAV\AppData\Local\Temp\ccBqtc7a.s 			page 45


 1594 00e4 D3F81710 		ldr	r1, [r3, #23]	@ unaligned
  81:Task/Task_Telemetry.c ****                 Telemetry_BindToggleToChannel(&RC_Setting, &Receiver_Obj.data.val_list[6], &RC_Sett
 1595              		.loc 1 81 17 view .LVU477
 1596 00e8 5248     		ldr	r0, .L97+12
 1597 00ea 4FF47A73 		mov	r3, #1000
 1598 00ee 0093     		str	r3, [sp]
 1599 00f0 6423     		movs	r3, #100
 1600 00f2 00F1E702 		add	r2, r0, #231
 1601 00f6 0A31     		adds	r1, r1, #10
 1602 00f8 FFF7FEFF 		bl	Telemetry_BindToggleToChannel
 1603              	.LVL115:
  80:Task/Task_Telemetry.c ****                 Telemetry_BindToggleToChannel(&RC_Setting, &Receiver_Obj.data.val_list[5], &RC_Sett
 1604              		.loc 1 80 180 view .LVU478
 1605 00fc 0028     		cmp	r0, #0
 1606 00fe 99D0     		beq	.L94
  82:Task/Task_Telemetry.c ****                 Telemetry_AddToggleCombo(&RC_Setting, &Receiver_Obj.data.val_list[6], &RC_Setting.C
 1607              		.loc 1 82 78 view .LVU479
 1608 0100 4B4B     		ldr	r3, .L97+8
 1609 0102 D3F81710 		ldr	r1, [r3, #23]	@ unaligned
  82:Task/Task_Telemetry.c ****                 Telemetry_AddToggleCombo(&RC_Setting, &Receiver_Obj.data.val_list[6], &RC_Setting.C
 1610              		.loc 1 82 17 view .LVU480
 1611 0106 4B48     		ldr	r0, .L97+12
 1612 0108 4FF49673 		mov	r3, #300
 1613 010c 0093     		str	r3, [sp]
 1614 010e 6423     		movs	r3, #100
 1615 0110 00F1D202 		add	r2, r0, #210
 1616 0114 0C31     		adds	r1, r1, #12
 1617 0116 FFF7FEFF 		bl	Telemetry_BindToggleToChannel
 1618              	.LVL116:
  81:Task/Task_Telemetry.c ****                 Telemetry_BindToggleToChannel(&RC_Setting, &Receiver_Obj.data.val_list[6], &RC_Sett
 1619              		.loc 1 81 183 view .LVU481
 1620 011a 0028     		cmp	r0, #0
 1621 011c 8AD0     		beq	.L94
  83:Task/Task_Telemetry.c ****                 Telemetry_AddToggleCombo(&RC_Setting, &Receiver_Obj.data.val_list[6], &RC_Setting.C
 1622              		.loc 1 83 73 view .LVU482
 1623 011e 444B     		ldr	r3, .L97+8
 1624 0120 D3F81710 		ldr	r1, [r3, #23]	@ unaligned
  83:Task/Task_Telemetry.c ****                 Telemetry_AddToggleCombo(&RC_Setting, &Receiver_Obj.data.val_list[6], &RC_Setting.C
 1625              		.loc 1 83 17 view .LVU483
 1626 0124 4348     		ldr	r0, .L97+12
 1627 0126 40F24C43 		movw	r3, #1100
 1628 012a 0093     		str	r3, [sp]
 1629 012c 4FF46173 		mov	r3, #900
 1630 0130 00F1D202 		add	r2, r0, #210
 1631 0134 0C31     		adds	r1, r1, #12
 1632 0136 FFF7FEFF 		bl	Telemetry_AddToggleCombo
 1633              	.LVL117:
  82:Task/Task_Telemetry.c ****                 Telemetry_AddToggleCombo(&RC_Setting, &Receiver_Obj.data.val_list[6], &RC_Setting.C
 1634              		.loc 1 82 161 view .LVU484
 1635 013a 0028     		cmp	r0, #0
 1636 013c 3FF47AAF 		beq	.L94
  84:Task/Task_Telemetry.c ****                 Telemetry_BindToggleToChannel(&RC_Setting, &Receiver_Obj.data.val_list[2], &RC_Sett
 1637              		.loc 1 84 73 view .LVU485
 1638 0140 3B4B     		ldr	r3, .L97+8
 1639 0142 D3F81710 		ldr	r1, [r3, #23]	@ unaligned
  84:Task/Task_Telemetry.c ****                 Telemetry_BindToggleToChannel(&RC_Setting, &Receiver_Obj.data.val_list[2], &RC_Sett
 1640              		.loc 1 84 17 view .LVU486
ARM GAS  C:\Users\HUAV\AppData\Local\Temp\ccBqtc7a.s 			page 46


 1641 0146 3B48     		ldr	r0, .L97+12
 1642 0148 40F26C73 		movw	r3, #1900
 1643 014c 0093     		str	r3, [sp]
 1644 014e 40F27263 		movw	r3, #1650
 1645 0152 00F1D202 		add	r2, r0, #210
 1646 0156 0C31     		adds	r1, r1, #12
 1647 0158 FFF7FEFF 		bl	Telemetry_AddToggleCombo
 1648              	.LVL118:
  83:Task/Task_Telemetry.c ****                 Telemetry_AddToggleCombo(&RC_Setting, &Receiver_Obj.data.val_list[6], &RC_Setting.C
 1649              		.loc 1 83 130 view .LVU487
 1650 015c 0028     		cmp	r0, #0
 1651 015e 3FF469AF 		beq	.L94
  85:Task/Task_Telemetry.c ****                 Telemetry_AddToggleCombo(&RC_Setting, &Receiver_Obj.data.val_list[1], &RC_Setting.O
 1652              		.loc 1 85 78 view .LVU488
 1653 0162 334B     		ldr	r3, .L97+8
 1654 0164 D3F81710 		ldr	r1, [r3, #23]	@ unaligned
  85:Task/Task_Telemetry.c ****                 Telemetry_AddToggleCombo(&RC_Setting, &Receiver_Obj.data.val_list[1], &RC_Setting.O
 1655              		.loc 1 85 17 view .LVU489
 1656 0168 3248     		ldr	r0, .L97+12
 1657 016a C823     		movs	r3, #200
 1658 016c 0093     		str	r3, [sp]
 1659 016e 6423     		movs	r3, #100
 1660 0170 00F21112 		addw	r2, r0, #273
 1661 0174 0431     		adds	r1, r1, #4
 1662 0176 FFF7FEFF 		bl	Telemetry_BindToggleToChannel
 1663              	.LVL119:
  84:Task/Task_Telemetry.c ****                 Telemetry_BindToggleToChannel(&RC_Setting, &Receiver_Obj.data.val_list[2], &RC_Sett
 1664              		.loc 1 84 157 view .LVU490
 1665 017a 0028     		cmp	r0, #0
 1666 017c 3FF45AAF 		beq	.L94
  86:Task/Task_Telemetry.c ****                 Telemetry_AddToggleCombo(&RC_Setting, &Receiver_Obj.data.val_list[3], &RC_Setting.O
 1667              		.loc 1 86 73 view .LVU491
 1668 0180 2B4B     		ldr	r3, .L97+8
 1669 0182 D3F81710 		ldr	r1, [r3, #23]	@ unaligned
  86:Task/Task_Telemetry.c ****                 Telemetry_AddToggleCombo(&RC_Setting, &Receiver_Obj.data.val_list[3], &RC_Setting.O
 1670              		.loc 1 86 17 view .LVU492
 1671 0186 2B48     		ldr	r0, .L97+12
 1672 0188 C823     		movs	r3, #200
 1673 018a 0093     		str	r3, [sp]
 1674 018c 6423     		movs	r3, #100
 1675 018e 00F21112 		addw	r2, r0, #273
 1676 0192 0231     		adds	r1, r1, #2
 1677 0194 FFF7FEFF 		bl	Telemetry_AddToggleCombo
 1678              	.LVL120:
  85:Task/Task_Telemetry.c ****                 Telemetry_AddToggleCombo(&RC_Setting, &Receiver_Obj.data.val_list[1], &RC_Setting.O
 1679              		.loc 1 85 186 view .LVU493
 1680 0198 0028     		cmp	r0, #0
 1681 019a 3FF44BAF 		beq	.L94
  87:Task/Task_Telemetry.c ****                 Telemetry_AddToggleCombo(&RC_Setting, &Receiver_Obj.data.val_list[0], &RC_Setting.O
 1682              		.loc 1 87 73 view .LVU494
 1683 019e 244B     		ldr	r3, .L97+8
 1684 01a0 D3F81710 		ldr	r1, [r3, #23]	@ unaligned
  87:Task/Task_Telemetry.c ****                 Telemetry_AddToggleCombo(&RC_Setting, &Receiver_Obj.data.val_list[0], &RC_Setting.O
 1685              		.loc 1 87 17 view .LVU495
 1686 01a4 2348     		ldr	r0, .L97+12
 1687 01a6 40F26C73 		movw	r3, #1900
 1688 01aa 0093     		str	r3, [sp]
ARM GAS  C:\Users\HUAV\AppData\Local\Temp\ccBqtc7a.s 			page 47


 1689 01ac 4FF4E163 		mov	r3, #1800
 1690 01b0 00F21112 		addw	r2, r0, #273
 1691 01b4 0631     		adds	r1, r1, #6
 1692 01b6 FFF7FEFF 		bl	Telemetry_AddToggleCombo
 1693              	.LVL121:
  86:Task/Task_Telemetry.c ****                 Telemetry_AddToggleCombo(&RC_Setting, &Receiver_Obj.data.val_list[3], &RC_Setting.O
 1694              		.loc 1 86 181 view .LVU496
 1695 01ba 0028     		cmp	r0, #0
 1696 01bc 3FF43AAF 		beq	.L94
  88:Task/Task_Telemetry.c ****             {
 1697              		.loc 1 88 17 view .LVU497
 1698 01c0 1C48     		ldr	r0, .L97+12
 1699 01c2 C823     		movs	r3, #200
 1700 01c4 0093     		str	r3, [sp]
 1701 01c6 6423     		movs	r3, #100
 1702 01c8 00F21112 		addw	r2, r0, #273
 1703 01cc 1849     		ldr	r1, .L97+8
 1704 01ce D1F81710 		ldr	r1, [r1, #23]	@ unaligned
 1705 01d2 FFF7FEFF 		bl	Telemetry_AddToggleCombo
 1706              	.LVL122:
  87:Task/Task_Telemetry.c ****                 Telemetry_AddToggleCombo(&RC_Setting, &Receiver_Obj.data.val_list[0], &RC_Setting.O
 1707              		.loc 1 87 181 view .LVU498
 1708 01d6 0028     		cmp	r0, #0
 1709 01d8 3FF42CAF 		beq	.L94
  90:Task/Task_Telemetry.c **** 
 1710              		.loc 1 90 17 is_stmt 1 view .LVU499
  90:Task/Task_Telemetry.c **** 
 1711              		.loc 1 90 42 is_stmt 0 view .LVU500
 1712 01dc 154C     		ldr	r4, .L97+12
 1713 01de 0125     		movs	r5, #1
 1714 01e0 6572     		strb	r5, [r4, #9]
  93:Task/Task_Telemetry.c ****                 Telemetry_Enable_GimbalDeadZone(&RC_Setting.Gimbal[Telemetry_RC_Roll], 50);
 1715              		.loc 1 93 17 is_stmt 1 view .LVU501
 1716 01e2 3221     		movs	r1, #50
 1717 01e4 04F17E00 		add	r0, r4, #126
 1718 01e8 FFF7FEFF 		bl	Telemetry_Enable_GimbalDeadZone
 1719              	.LVL123:
  94:Task/Task_Telemetry.c ****                 Telemetry_Enable_GimbalDeadZone(&RC_Setting.Gimbal[Telemetry_RC_Yaw], 50);
 1720              		.loc 1 94 17 view .LVU502
 1721 01ec 3221     		movs	r1, #50
 1722 01ee 04F19300 		add	r0, r4, #147
 1723 01f2 FFF7FEFF 		bl	Telemetry_Enable_GimbalDeadZone
 1724              	.LVL124:
  95:Task/Task_Telemetry.c **** 
 1725              		.loc 1 95 17 view .LVU503
 1726 01f6 3221     		movs	r1, #50
 1727 01f8 04F1A800 		add	r0, r4, #168
 1728 01fc FFF7FEFF 		bl	Telemetry_Enable_GimbalDeadZone
 1729              	.LVL125:
  98:Task/Task_Telemetry.c ****                 memset(DataPipe_DataObjAddr(Rc), 0, sizeof(Telemetry_RCSig_TypeDef));
 1730              		.loc 1 98 17 view .LVU504
 1731 0200 0D4C     		ldr	r4, .L97+16
 1732 0202 2B22     		movs	r2, #43
 1733 0204 0021     		movs	r1, #0
 1734 0206 2046     		mov	r0, r4
 1735 0208 FFF7FEFF 		bl	memset
 1736              	.LVL126:
ARM GAS  C:\Users\HUAV\AppData\Local\Temp\ccBqtc7a.s 			page 48


  99:Task/Task_Telemetry.c **** 
 1737              		.loc 1 99 17 view .LVU505
 1738 020c 0B4E     		ldr	r6, .L97+20
 1739 020e 5822     		movs	r2, #88
 1740 0210 0021     		movs	r1, #0
 1741 0212 3046     		mov	r0, r6
 1742 0214 FFF7FEFF 		bl	memset
 1743              	.LVL127:
 101:Task/Task_Telemetry.c ****                 Receiver_Smp_DataPipe.data_size = DataPipe_DataSize(Rc);
 1744              		.loc 1 101 17 view .LVU506
 101:Task/Task_Telemetry.c ****                 Receiver_Smp_DataPipe.data_size = DataPipe_DataSize(Rc);
 1745              		.loc 1 101 49 is_stmt 0 view .LVU507
 1746 0218 C4F81160 		str	r6, [r4, #17]	@ unaligned
 102:Task/Task_Telemetry.c **** 
 1747              		.loc 1 102 17 is_stmt 1 view .LVU508
 102:Task/Task_Telemetry.c **** 
 1748              		.loc 1 102 49 is_stmt 0 view .LVU509
 1749 021c 5823     		movs	r3, #88
 1750 021e 6375     		strb	r3, [r4, #21]
 1751 0220 0023     		movs	r3, #0
 1752 0222 A375     		strb	r3, [r4, #22]
 104:Task/Task_Telemetry.c ****             }
 1753              		.loc 1 104 17 is_stmt 1 view .LVU510
 1754              	.LVL128:
 1755              	.LBB7:
 1756              	.LBI7:
 1757              		.file 2 "System/DataPipe/DataPipe.h"
   1:System/DataPipe/DataPipe.h **** #ifndef __DATAPIPE_H
   2:System/DataPipe/DataPipe.h **** #define __DATAPIPE_H
   3:System/DataPipe/DataPipe.h **** 
   4:System/DataPipe/DataPipe.h **** #include <stdint.h>
   5:System/DataPipe/DataPipe.h **** #include <string.h>
   6:System/DataPipe/DataPipe.h **** #include <stdbool.h>
   7:System/DataPipe/DataPipe.h **** 
   8:System/DataPipe/DataPipe.h **** typedef void (*Pipe_TransFinish_Callback)(void *pipe_obj);
   9:System/DataPipe/DataPipe.h **** typedef void (*Pipe_TransError_Callback)(void *pipe_obj);
  10:System/DataPipe/DataPipe.h **** typedef void (*Pipe_TimeOutProc_Callback)(void *pipe_obj);
  11:System/DataPipe/DataPipe.h **** 
  12:System/DataPipe/DataPipe.h **** #define DataPipeHandleToObj(x) ((DataPipeObj_TypeDef *)x)
  13:System/DataPipe/DataPipe.h **** #define DataPipe_CreateDataObj(type, name) static type name##_##PipeDataObj __attribute__((section(
  14:System/DataPipe/DataPipe.h **** #define DataPipe_DataObjAddr(name) (&name##_##PipeDataObj)
  15:System/DataPipe/DataPipe.h **** #define DataPipe_DataObj(name) name##_##PipeDataObj
  16:System/DataPipe/DataPipe.h **** #define DataPipe_DataSize(name) sizeof(name##_##PipeDataObj)
  17:System/DataPipe/DataPipe.h **** 
  18:System/DataPipe/DataPipe.h **** typedef enum
  19:System/DataPipe/DataPipe.h **** {
  20:System/DataPipe/DataPipe.h ****     Pipe_UnReady = 0,
  21:System/DataPipe/DataPipe.h ****     Pipe_Ready,
  22:System/DataPipe/DataPipe.h ****     Pipe_Busy,
  23:System/DataPipe/DataPipe.h ****     Pipe_Error,
  24:System/DataPipe/DataPipe.h **** } DataPipe_State_List;
  25:System/DataPipe/DataPipe.h **** 
  26:System/DataPipe/DataPipe.h **** #pragma pack(1)
  27:System/DataPipe/DataPipe.h **** typedef struct
  28:System/DataPipe/DataPipe.h **** {
  29:System/DataPipe/DataPipe.h ****     uint32_t min_rx_interval;
  30:System/DataPipe/DataPipe.h ****     uint32_t detect_interval;
ARM GAS  C:\Users\HUAV\AppData\Local\Temp\ccBqtc7a.s 			page 49


  31:System/DataPipe/DataPipe.h ****     uint64_t rx_us_rt;
  32:System/DataPipe/DataPipe.h **** 
  33:System/DataPipe/DataPipe.h ****     bool enable;
  34:System/DataPipe/DataPipe.h **** 
  35:System/DataPipe/DataPipe.h ****     uint32_t data_addr;
  36:System/DataPipe/DataPipe.h ****     uint16_t data_size;
  37:System/DataPipe/DataPipe.h **** 
  38:System/DataPipe/DataPipe.h ****     Pipe_TransFinish_Callback trans_finish_cb;
  39:System/DataPipe/DataPipe.h ****     Pipe_TransError_Callback trans_error_cb;
  40:System/DataPipe/DataPipe.h **** 
  41:System/DataPipe/DataPipe.h ****     uint32_t tx_cnt;
  42:System/DataPipe/DataPipe.h ****     uint32_t rx_cnt;
  43:System/DataPipe/DataPipe.h ****     uint32_t er_cnt;
  44:System/DataPipe/DataPipe.h **** } DataPipeObj_TypeDef;
  45:System/DataPipe/DataPipe.h **** #pragma pack()
  46:System/DataPipe/DataPipe.h **** 
  47:System/DataPipe/DataPipe.h **** typedef struct
  48:System/DataPipe/DataPipe.h **** {
  49:System/DataPipe/DataPipe.h ****     DataPipeObj_TypeDef *org;
  50:System/DataPipe/DataPipe.h ****     DataPipeObj_TypeDef *dst;
  51:System/DataPipe/DataPipe.h **** } Data_PlugedPipeObj_TypeDef;
  52:System/DataPipe/DataPipe.h **** 
  53:System/DataPipe/DataPipe.h **** bool DataPipe_Init(void);
  54:System/DataPipe/DataPipe.h **** bool DataPipe_SendTo(DataPipeObj_TypeDef *p_org, DataPipeObj_TypeDef *p_dst);
  55:System/DataPipe/DataPipe.h **** bool DataPipe_DealError(void);
  56:System/DataPipe/DataPipe.h **** 
  57:System/DataPipe/DataPipe.h **** inline bool DataPipe_Enable(DataPipeObj_TypeDef *obj)
 1758              		.loc 2 57 13 view .LVU511
 1759              	.LBB8:
  58:System/DataPipe/DataPipe.h **** {
  59:System/DataPipe/DataPipe.h ****     if (obj == NULL)
 1760              		.loc 2 59 5 view .LVU512
  60:System/DataPipe/DataPipe.h ****         return false;
  61:System/DataPipe/DataPipe.h **** 
  62:System/DataPipe/DataPipe.h ****     obj->enable = true;
 1761              		.loc 2 62 5 view .LVU513
 1762              		.loc 2 62 17 is_stmt 0 view .LVU514
 1763 0224 2574     		strb	r5, [r4, #16]
  63:System/DataPipe/DataPipe.h **** 
  64:System/DataPipe/DataPipe.h ****     return true;
 1764              		.loc 2 64 5 is_stmt 1 view .LVU515
 1765 0226 05E7     		b	.L94
 1766              	.L98:
 1767              		.align	2
 1768              	.L97:
 1769 0228 00000000 		.word	.LANCHOR1
 1770 022c 00000000 		.word	SrvComProto
 1771 0230 00000000 		.word	.LANCHOR0
 1772 0234 00000000 		.word	.LANCHOR3
 1773 0238 00000000 		.word	Receiver_Smp_DataPipe
 1774 023c 00000000 		.word	.LANCHOR4
 1775              	.LBE8:
 1776              	.LBE7:
 1777              		.cfi_endproc
 1778              	.LFE1998:
 1780              		.global	__aeabi_uldivmod
 1781              		.section	.text.Telemetry_blink,"ax",%progbits
ARM GAS  C:\Users\HUAV\AppData\Local\Temp\ccBqtc7a.s 			page 50


 1782              		.align	1
 1783              		.global	Telemetry_blink
 1784              		.syntax unified
 1785              		.thumb
 1786              		.thumb_func
 1787              		.fpu fpv5-d16
 1789              	Telemetry_blink:
 1790              	.LFB1999:
 118:Task/Task_Telemetry.c ****     SYSTEM_RunTime Rt = 0;
 1791              		.loc 1 118 1 view -0
 1792              		.cfi_startproc
 1793              		@ args = 0, pretend = 0, frame = 0
 1794              		@ frame_needed = 0, uses_anonymous_args = 0
 1795 0000 38B5     		push	{r3, r4, r5, lr}
 1796              	.LCFI22:
 1797              		.cfi_def_cfa_offset 16
 1798              		.cfi_offset 3, -16
 1799              		.cfi_offset 4, -12
 1800              		.cfi_offset 5, -8
 1801              		.cfi_offset 14, -4
 119:Task/Task_Telemetry.c ****     static SYSTEM_RunTime Lst_Rt = 0;
 1802              		.loc 1 119 5 view .LVU517
 1803              	.LVL129:
 120:Task/Task_Telemetry.c ****     static bool led_state = false;
 1804              		.loc 1 120 5 view .LVU518
 121:Task/Task_Telemetry.c **** 
 1805              		.loc 1 121 5 view .LVU519
 126:Task/Task_Telemetry.c **** 
 1806              		.loc 1 126 5 view .LVU520
 126:Task/Task_Telemetry.c **** 
 1807              		.loc 1 126 10 is_stmt 0 view .LVU521
 1808 0002 FFF7FEFF 		bl	Get_CurrentRunningMs
 1809              	.LVL130:
 1810 0006 0546     		mov	r5, r0
 1811 0008 0C46     		mov	r4, r1
 1812              	.LVL131:
 128:Task/Task_Telemetry.c ****     {
 1813              		.loc 1 128 5 is_stmt 1 view .LVU522
 128:Task/Task_Telemetry.c ****     {
 1814              		.loc 1 128 13 is_stmt 0 view .LVU523
 1815 000a 6422     		movs	r2, #100
 1816 000c 0023     		movs	r3, #0
 1817 000e FFF7FEFF 		bl	__aeabi_uldivmod
 1818              	.LVL132:
 128:Task/Task_Telemetry.c ****     {
 1819              		.loc 1 128 8 view .LVU524
 1820 0012 1343     		orrs	r3, r3, r2
 1821 0014 0ED1     		bne	.L100
 128:Task/Task_Telemetry.c ****     {
 1822              		.loc 1 128 36 discriminator 1 view .LVU525
 1823 0016 0B4B     		ldr	r3, .L102
 1824 0018 1A68     		ldr	r2, [r3]
 1825 001a 5B68     		ldr	r3, [r3, #4]
 128:Task/Task_Telemetry.c ****     {
 1826              		.loc 1 128 25 discriminator 1 view .LVU526
 1827 001c A342     		cmp	r3, r4
 1828 001e 08BF     		it	eq
ARM GAS  C:\Users\HUAV\AppData\Local\Temp\ccBqtc7a.s 			page 51


 1829 0020 AA42     		cmpeq	r2, r5
 1830 0022 07D0     		beq	.L100
 130:Task/Task_Telemetry.c ****         Lst_Rt = Rt;
 1831              		.loc 1 130 9 is_stmt 1 view .LVU527
 1832 0024 084A     		ldr	r2, .L102+4
 1833 0026 1378     		ldrb	r3, [r2]	@ zero_extendqisi2
 1834 0028 83F00103 		eor	r3, r3, #1
 130:Task/Task_Telemetry.c ****         Lst_Rt = Rt;
 1835              		.loc 1 130 19 is_stmt 0 view .LVU528
 1836 002c 1370     		strb	r3, [r2]
 131:Task/Task_Telemetry.c ****     }
 1837              		.loc 1 131 9 is_stmt 1 view .LVU529
 131:Task/Task_Telemetry.c ****     }
 1838              		.loc 1 131 16 is_stmt 0 view .LVU530
 1839 002e 054B     		ldr	r3, .L102
 1840 0030 1D60     		str	r5, [r3]
 1841 0032 5C60     		str	r4, [r3, #4]
 1842              	.L100:
 134:Task/Task_Telemetry.c ****     // DevLED.ctl(Led3, led_state);
 1843              		.loc 1 134 5 is_stmt 1 view .LVU531
 134:Task/Task_Telemetry.c ****     // DevLED.ctl(Led3, led_state);
 1844              		.loc 1 134 11 is_stmt 0 view .LVU532
 1845 0034 054B     		ldr	r3, .L102+8
 1846 0036 5C68     		ldr	r4, [r3, #4]
 1847              	.LVL133:
 134:Task/Task_Telemetry.c ****     // DevLED.ctl(Led3, led_state);
 1848              		.loc 1 134 5 view .LVU533
 1849 0038 054A     		ldr	r2, .L102+12
 1850 003a 034B     		ldr	r3, .L102+4
 1851 003c 1B78     		ldrb	r3, [r3]	@ zero_extendqisi2
 1852 003e 07CA     		ldm	r2, {r0, r1, r2}
 1853 0040 A047     		blx	r4
 1854              	.LVL134:
 136:Task/Task_Telemetry.c **** 
 1855              		.loc 1 136 1 view .LVU534
 1856 0042 38BD     		pop	{r3, r4, r5, pc}
 1857              	.L103:
 136:Task/Task_Telemetry.c **** 
 1858              		.loc 1 136 1 view .LVU535
 1859              		.align	2
 1860              	.L102:
 1861 0044 00000000 		.word	.LANCHOR5
 1862 0048 00000000 		.word	.LANCHOR6
 1863 004c 00000000 		.word	DevLED
 1864 0050 00000000 		.word	Led1
 1865              		.cfi_endproc
 1866              	.LFE1999:
 1868              		.section	.text.TaskTelemetry_Core,"ax",%progbits
 1869              		.align	1
 1870              		.global	TaskTelemetry_Core
 1871              		.syntax unified
 1872              		.thumb
 1873              		.thumb_func
 1874              		.fpu fpv5-d16
 1876              	TaskTelemetry_Core:
 1877              	.LVL135:
 1878              	.LFB2001:
ARM GAS  C:\Users\HUAV\AppData\Local\Temp\ccBqtc7a.s 			page 52


 144:Task/Task_Telemetry.c ****     // Telemetry_blink();
 1879              		.loc 1 144 1 is_stmt 1 view -0
 1880              		.cfi_startproc
 1881              		@ args = 0, pretend = 0, frame = 88
 1882              		@ frame_needed = 0, uses_anonymous_args = 0
 144:Task/Task_Telemetry.c ****     // Telemetry_blink();
 1883              		.loc 1 144 1 is_stmt 0 view .LVU537
 1884 0000 00B5     		push	{lr}
 1885              	.LCFI23:
 1886              		.cfi_def_cfa_offset 4
 1887              		.cfi_offset 14, -4
 1888 0002 97B0     		sub	sp, sp, #92
 1889              	.LCFI24:
 1890              		.cfi_def_cfa_offset 96
 147:Task/Task_Telemetry.c **** 
 1891              		.loc 1 147 5 is_stmt 1 view .LVU538
 147:Task/Task_Telemetry.c **** 
 1892              		.loc 1 147 28 is_stmt 0 view .LVU539
 1893 0004 084A     		ldr	r2, .L106
 1894 0006 0949     		ldr	r1, .L106+4
 1895 0008 6846     		mov	r0, sp
 1896              	.LVL136:
 147:Task/Task_Telemetry.c **** 
 1897              		.loc 1 147 28 view .LVU540
 1898 000a FFF7FEFF 		bl	Telemetry_RC_Sig_Update
 1899              	.LVL137:
 1900 000e 5822     		movs	r2, #88
 1901 0010 6946     		mov	r1, sp
 1902 0012 0748     		ldr	r0, .L106+8
 1903 0014 FFF7FEFF 		bl	memcpy
 1904              	.LVL138:
 150:Task/Task_Telemetry.c **** }
 1905              		.loc 1 150 5 is_stmt 1 view .LVU541
 1906 0018 0649     		ldr	r1, .L106+12
 1907 001a 0748     		ldr	r0, .L106+16
 1908 001c FFF7FEFF 		bl	DataPipe_SendTo
 1909              	.LVL139:
 151:Task/Task_Telemetry.c **** 
 1910              		.loc 1 151 1 is_stmt 0 view .LVU542
 1911 0020 17B0     		add	sp, sp, #92
 1912              	.LCFI25:
 1913              		.cfi_def_cfa_offset 4
 1914              		@ sp needed
 1915 0022 5DF804FB 		ldr	pc, [sp], #4
 1916              	.L107:
 1917 0026 00BF     		.align	2
 1918              	.L106:
 1919 0028 00000000 		.word	.LANCHOR0
 1920 002c 00000000 		.word	.LANCHOR3
 1921 0030 00000000 		.word	.LANCHOR4
 1922 0034 00000000 		.word	Receiver_hub_DataPipe
 1923 0038 00000000 		.word	Receiver_Smp_DataPipe
 1924              		.cfi_endproc
 1925              	.LFE2001:
 1927              		.section	.Perph_Section,"aw"
 1928              		.align	2
 1929              		.set	.LANCHOR4,. + 0
ARM GAS  C:\Users\HUAV\AppData\Local\Temp\ccBqtc7a.s 			page 53


 1932              	Rc_PipeDataObj:
 1933 0000 00000000 		.space	88
 1933      00000000 
 1933      00000000 
 1933      00000000 
 1933      00000000 
 1934              		.section	.bss.Lst_Rt.1,"aw",%nobits
 1935              		.align	3
 1936              		.set	.LANCHOR5,. + 0
 1939              	Lst_Rt.1:
 1940 0000 00000000 		.space	8
 1940      00000000 
 1941              		.section	.bss.RCData_To_Configuretor,"aw",%nobits
 1942              		.set	.LANCHOR2,. + 0
 1945              	RCData_To_Configuretor:
 1946 0000 00       		.space	1
 1947              		.section	.bss.RC_Setting,"aw",%nobits
 1948              		.align	2
 1949              		.set	.LANCHOR3,. + 0
 1952              	RC_Setting:
 1953 0000 00000000 		.space	294
 1953      00000000 
 1953      00000000 
 1953      00000000 
 1953      00000000 
 1954              		.section	.bss.Receiver_Obj,"aw",%nobits
 1955              		.align	2
 1956              		.set	.LANCHOR0,. + 0
 1959              	Receiver_Obj:
 1960 0000 00000000 		.space	75
 1960      00000000 
 1960      00000000 
 1960      00000000 
 1960      00000000 
 1961              		.section	.bss.Telemetry_Monitor,"aw",%nobits
 1962              		.align	2
 1963              		.set	.LANCHOR1,. + 0
 1966              	Telemetry_Monitor:
 1967 0000 00000000 		.space	20
 1967      00000000 
 1967      00000000 
 1967      00000000 
 1967      00000000 
 1968              		.section	.bss.led_state.0,"aw",%nobits
 1969              		.set	.LANCHOR6,. + 0
 1972              	led_state.0:
 1973 0000 00       		.space	1
 1974              		.text
 1975              	.Letext0:
 1976              		.file 3 "d:\\software\\zephyr_env_gcc\\gcc-arm-none-eabi-10-2020-q4-major\\arm-none-eabi\\include\
 1977              		.file 4 "d:\\software\\zephyr_env_gcc\\gcc-arm-none-eabi-10-2020-q4-major\\arm-none-eabi\\include\
 1978              		.file 5 "System/runtime/runtime.h"
 1979              		.file 6 "DataStructure/linked_list.h"
 1980              		.file 7 "HAL_Lib/CMSIS/Device/ST/STM32H7xx/Include/stm32h743xx.h"
 1981              		.file 8 "HAL_Lib/STM32H7xx_HAL_Driver/Inc/stm32h7xx_hal_gpio.h"
 1982              		.file 9 "Task/../System/scheduler/scheduler.h"
 1983              		.file 10 "Bsp/Bsp_GPIO.h"
ARM GAS  C:\Users\HUAV\AppData\Local\Temp\ccBqtc7a.s 			page 54


 1984              		.file 11 "Bsp/Bsp_DMA.h"
 1985              		.file 12 "Service/Srv_Receiver.h"
 1986              		.file 13 "Task/Task_Telemetry.h"
 1987              		.file 14 "Device/Dev_Led.h"
 1988              		.file 15 "IO_Def/IO_Definition.h"
 1989              		.file 16 "Service/../MAVLink/common/../mavlink_types.h"
 1990              		.file 17 "Service/Srv_ComProto.h"
 1991              		.file 18 "<built-in>"
 1992              		.file 19 "Task/../common/util.h"
 1993              		.file 20 "System/mmu/mmu.h"
ARM GAS  C:\Users\HUAV\AppData\Local\Temp\ccBqtc7a.s 			page 55


DEFINED SYMBOLS
                            *ABS*:00000000 Task_Telemetry.c
C:\Users\HUAV\AppData\Local\Temp\ccBqtc7a.s:17     .text.Telemetry_Led_Control:00000000 $t
C:\Users\HUAV\AppData\Local\Temp\ccBqtc7a.s:24     .text.Telemetry_Led_Control:00000000 Telemetry_Led_Control
C:\Users\HUAV\AppData\Local\Temp\ccBqtc7a.s:55     .text.Telemetry_Led_Control:00000010 $d
C:\Users\HUAV\AppData\Local\Temp\ccBqtc7a.s:61     .text.Telemetry_Enable_GimbalDeadZone:00000000 $t
C:\Users\HUAV\AppData\Local\Temp\ccBqtc7a.s:67     .text.Telemetry_Enable_GimbalDeadZone:00000000 Telemetry_Enable_GimbalDeadZone
C:\Users\HUAV\AppData\Local\Temp\ccBqtc7a.s:101    .text.Telemetry_GimbalToPercent:00000000 $t
C:\Users\HUAV\AppData\Local\Temp\ccBqtc7a.s:107    .text.Telemetry_GimbalToPercent:00000000 Telemetry_GimbalToPercent
C:\Users\HUAV\AppData\Local\Temp\ccBqtc7a.s:243    .text.Telemetry_GimbalToPercent:00000080 $d
C:\Users\HUAV\AppData\Local\Temp\ccBqtc7a.s:248    .text.Telemetry_RC_Sig_Init:00000000 $t
C:\Users\HUAV\AppData\Local\Temp\ccBqtc7a.s:254    .text.Telemetry_RC_Sig_Init:00000000 Telemetry_RC_Sig_Init
C:\Users\HUAV\AppData\Local\Temp\ccBqtc7a.s:366    .text.Telemetry_RC_Sig_Init:0000007c $d
C:\Users\HUAV\AppData\Local\Temp\ccBqtc7a.s:374    .text.Telemetry_BindGimbalToChannel:00000000 $t
C:\Users\HUAV\AppData\Local\Temp\ccBqtc7a.s:380    .text.Telemetry_BindGimbalToChannel:00000000 Telemetry_BindGimbalToChannel
C:\Users\HUAV\AppData\Local\Temp\ccBqtc7a.s:506    .text.Telemetry_BindToggleToChannel:00000000 $t
C:\Users\HUAV\AppData\Local\Temp\ccBqtc7a.s:512    .text.Telemetry_BindToggleToChannel:00000000 Telemetry_BindToggleToChannel
C:\Users\HUAV\AppData\Local\Temp\ccBqtc7a.s:621    .text.Telemetry_AddToggleCombo:00000000 $t
C:\Users\HUAV\AppData\Local\Temp\ccBqtc7a.s:627    .text.Telemetry_AddToggleCombo:00000000 Telemetry_AddToggleCombo
C:\Users\HUAV\AppData\Local\Temp\ccBqtc7a.s:754    .text.Telemetry_Toggle_Check:00000000 $t
C:\Users\HUAV\AppData\Local\Temp\ccBqtc7a.s:760    .text.Telemetry_Toggle_Check:00000000 Telemetry_Toggle_Check
C:\Users\HUAV\AppData\Local\Temp\ccBqtc7a.s:931    .text.Telemetry_RC_Sig_Update:00000000 $t
C:\Users\HUAV\AppData\Local\Temp\ccBqtc7a.s:937    .text.Telemetry_RC_Sig_Update:00000000 Telemetry_RC_Sig_Update
C:\Users\HUAV\AppData\Local\Temp\ccBqtc7a.s:1395   .text.Telemetry_RC_Sig_Update:0000022c $d
C:\Users\HUAV\AppData\Local\Temp\ccBqtc7a.s:1402   .text.TaskTelemetry_Set_DataIO_Enable:00000000 $t
C:\Users\HUAV\AppData\Local\Temp\ccBqtc7a.s:1409   .text.TaskTelemetry_Set_DataIO_Enable:00000000 TaskTelemetry_Set_DataIO_Enable
C:\Users\HUAV\AppData\Local\Temp\ccBqtc7a.s:1426   .text.TaskTelemetry_Set_DataIO_Enable:00000008 $d
C:\Users\HUAV\AppData\Local\Temp\ccBqtc7a.s:1431   .text.TaskTelemetry_Init:00000000 $t
C:\Users\HUAV\AppData\Local\Temp\ccBqtc7a.s:1438   .text.TaskTelemetry_Init:00000000 TaskTelemetry_Init
C:\Users\HUAV\AppData\Local\Temp\ccBqtc7a.s:1769   .text.TaskTelemetry_Init:00000228 $d
C:\Users\HUAV\AppData\Local\Temp\ccBqtc7a.s:1782   .text.Telemetry_blink:00000000 $t
C:\Users\HUAV\AppData\Local\Temp\ccBqtc7a.s:1789   .text.Telemetry_blink:00000000 Telemetry_blink
C:\Users\HUAV\AppData\Local\Temp\ccBqtc7a.s:1861   .text.Telemetry_blink:00000044 $d
C:\Users\HUAV\AppData\Local\Temp\ccBqtc7a.s:1869   .text.TaskTelemetry_Core:00000000 $t
C:\Users\HUAV\AppData\Local\Temp\ccBqtc7a.s:1876   .text.TaskTelemetry_Core:00000000 TaskTelemetry_Core
C:\Users\HUAV\AppData\Local\Temp\ccBqtc7a.s:1919   .text.TaskTelemetry_Core:00000028 $d
C:\Users\HUAV\AppData\Local\Temp\ccBqtc7a.s:1928   .Perph_Section:00000000 $d
C:\Users\HUAV\AppData\Local\Temp\ccBqtc7a.s:1932   .Perph_Section:00000000 Rc_PipeDataObj
C:\Users\HUAV\AppData\Local\Temp\ccBqtc7a.s:1935   .bss.Lst_Rt.1:00000000 $d
C:\Users\HUAV\AppData\Local\Temp\ccBqtc7a.s:1939   .bss.Lst_Rt.1:00000000 Lst_Rt.1
C:\Users\HUAV\AppData\Local\Temp\ccBqtc7a.s:1945   .bss.RCData_To_Configuretor:00000000 RCData_To_Configuretor
C:\Users\HUAV\AppData\Local\Temp\ccBqtc7a.s:1946   .bss.RCData_To_Configuretor:00000000 $d
C:\Users\HUAV\AppData\Local\Temp\ccBqtc7a.s:1948   .bss.RC_Setting:00000000 $d
C:\Users\HUAV\AppData\Local\Temp\ccBqtc7a.s:1952   .bss.RC_Setting:00000000 RC_Setting
C:\Users\HUAV\AppData\Local\Temp\ccBqtc7a.s:1955   .bss.Receiver_Obj:00000000 $d
C:\Users\HUAV\AppData\Local\Temp\ccBqtc7a.s:1959   .bss.Receiver_Obj:00000000 Receiver_Obj
C:\Users\HUAV\AppData\Local\Temp\ccBqtc7a.s:1962   .bss.Telemetry_Monitor:00000000 $d
C:\Users\HUAV\AppData\Local\Temp\ccBqtc7a.s:1966   .bss.Telemetry_Monitor:00000000 Telemetry_Monitor
C:\Users\HUAV\AppData\Local\Temp\ccBqtc7a.s:1972   .bss.led_state.0:00000000 led_state.0
C:\Users\HUAV\AppData\Local\Temp\ccBqtc7a.s:1973   .bss.led_state.0:00000000 $d

UNDEFINED SYMBOLS
DevLED
Led1
Uart4_RxPin
Uart4_TxPin
SrvReceiver
ARM GAS  C:\Users\HUAV\AppData\Local\Temp\ccBqtc7a.s 			page 56


MMU_Malloc
MMU_Free
List_ItemInit
List_Insert_Item
Get_OnSet_Bit_Num
Get_Bit_Index
memset
Get_CurrentRunningMs
memcpy
SrvComProto
Receiver_Smp_DataPipe
__aeabi_uldivmod
DataPipe_SendTo
Receiver_hub_DataPipe
