ARM GAS  C:\Users\HUAV\AppData\Local\Temp\cc26OCJh.s 			page 1


   1              		.cpu cortex-m7
   2              		.eabi_attribute 28, 1
   3              		.eabi_attribute 20, 1
   4              		.eabi_attribute 21, 1
   5              		.eabi_attribute 23, 3
   6              		.eabi_attribute 24, 1
   7              		.eabi_attribute 25, 1
   8              		.eabi_attribute 26, 1
   9              		.eabi_attribute 30, 1
  10              		.eabi_attribute 34, 1
  11              		.eabi_attribute 18, 4
  12              		.file	"Task_Manager.c"
  13              		.text
  14              	.Ltext0:
  15              		.cfi_sections	.debug_frame
  16              		.section	.text.test_PC0_ctl,"ax",%progbits
  17              		.align	1
  18              		.global	test_PC0_ctl
  19              		.arch armv7e-m
  20              		.syntax unified
  21              		.thumb
  22              		.thumb_func
  23              		.fpu fpv5-d16
  25              	test_PC0_ctl:
  26              	.LFB151:
  27              		.file 1 "Task/Task_Manager.c"
   1:Task/Task_Manager.c **** #include "Task_Manager.h"
   2:Task/Task_Manager.c **** #include "Task_Log.h"
   3:Task/Task_Manager.c **** #include "Task_Protocol.h"
   4:Task/Task_Manager.c **** #include "Task_Control.h"
   5:Task/Task_Manager.c **** #include "Task_SensorInertial.h"
   6:Task/Task_Manager.c **** #include "Task_Telemetry.h"
   7:Task/Task_Manager.c **** #include "scheduler.h"
   8:Task/Task_Manager.c **** #include "debug_util.h"
   9:Task/Task_Manager.c **** #include "IO_Definition.h"
  10:Task/Task_Manager.c **** #include "runtime.h"
  11:Task/Task_Manager.c **** #include "Dev_Led.h"
  12:Task/Task_Manager.c **** #include "DiskIO.h"
  13:Task/Task_Manager.c **** #include "DataPipe/DataPipe.h"
  14:Task/Task_Manager.c **** 
  15:Task/Task_Manager.c **** Task_Handle TaskProtocol_Handle = NULL;
  16:Task/Task_Manager.c **** Task_Handle TaskInertial_Handle = NULL;
  17:Task/Task_Manager.c **** Task_Handle TaskControl_Handle = NULL;
  18:Task/Task_Manager.c **** Task_Handle TaskLog_Handle = NULL;
  19:Task/Task_Manager.c **** Task_Handle TaskTelemetry_Handle = NULL;
  20:Task/Task_Manager.c **** 
  21:Task/Task_Manager.c **** void Test2(Task_Handle handle);
  22:Task/Task_Manager.c **** 
  23:Task/Task_Manager.c **** void test_PC0_ctl(void)
  24:Task/Task_Manager.c **** {
  28              		.loc 1 24 1 view -0
  29              		.cfi_startproc
  30              		@ args = 0, pretend = 0, frame = 0
  31              		@ frame_needed = 0, uses_anonymous_args = 0
  32 0000 70B5     		push	{r4, r5, r6, lr}
  33              	.LCFI0:
  34              		.cfi_def_cfa_offset 16
ARM GAS  C:\Users\HUAV\AppData\Local\Temp\cc26OCJh.s 			page 2


  35              		.cfi_offset 4, -16
  36              		.cfi_offset 5, -12
  37              		.cfi_offset 6, -8
  38              		.cfi_offset 14, -4
  25:Task/Task_Manager.c ****     DebugPin.ctl(Debug_PC0, true);
  39              		.loc 1 25 5 view .LVU1
  40              		.loc 1 25 13 is_stmt 0 view .LVU2
  41 0002 064D     		ldr	r5, .L3
  42              		.loc 1 25 5 view .LVU3
  43 0004 064C     		ldr	r4, .L3+4
  44 0006 0123     		movs	r3, #1
  45 0008 94E80700 		ldm	r4, {r0, r1, r2}
  46 000c 6E68     		ldr	r6, [r5, #4]
  47 000e B047     		blx	r6
  48              	.LVL0:
  26:Task/Task_Manager.c ****     DebugPin.ctl(Debug_PC0, false);
  49              		.loc 1 26 5 is_stmt 1 view .LVU4
  50              		.loc 1 26 13 is_stmt 0 view .LVU5
  51 0010 6D68     		ldr	r5, [r5, #4]
  52              		.loc 1 26 5 view .LVU6
  53 0012 0023     		movs	r3, #0
  54 0014 94E80700 		ldm	r4, {r0, r1, r2}
  55 0018 A847     		blx	r5
  56              	.LVL1:
  27:Task/Task_Manager.c **** }
  57              		.loc 1 27 1 view .LVU7
  58 001a 70BD     		pop	{r4, r5, r6, pc}
  59              	.L4:
  60              		.align	2
  61              	.L3:
  62 001c 00000000 		.word	DebugPin
  63 0020 00000000 		.word	Debug_PC0
  64              		.cfi_endproc
  65              	.LFE151:
  67              		.section	.text.test_PC1_ctl,"ax",%progbits
  68              		.align	1
  69              		.global	test_PC1_ctl
  70              		.syntax unified
  71              		.thumb
  72              		.thumb_func
  73              		.fpu fpv5-d16
  75              	test_PC1_ctl:
  76              	.LFB152:
  28:Task/Task_Manager.c **** 
  29:Task/Task_Manager.c **** void test_PC1_ctl(void)
  30:Task/Task_Manager.c **** {
  77              		.loc 1 30 1 is_stmt 1 view -0
  78              		.cfi_startproc
  79              		@ args = 0, pretend = 0, frame = 0
  80              		@ frame_needed = 0, uses_anonymous_args = 0
  81 0000 70B5     		push	{r4, r5, r6, lr}
  82              	.LCFI1:
  83              		.cfi_def_cfa_offset 16
  84              		.cfi_offset 4, -16
  85              		.cfi_offset 5, -12
  86              		.cfi_offset 6, -8
  87              		.cfi_offset 14, -4
ARM GAS  C:\Users\HUAV\AppData\Local\Temp\cc26OCJh.s 			page 3


  31:Task/Task_Manager.c ****     DebugPin.ctl(Debug_PC1, true);
  88              		.loc 1 31 5 view .LVU9
  89              		.loc 1 31 13 is_stmt 0 view .LVU10
  90 0002 064D     		ldr	r5, .L7
  91              		.loc 1 31 5 view .LVU11
  92 0004 064C     		ldr	r4, .L7+4
  93 0006 0123     		movs	r3, #1
  94 0008 94E80700 		ldm	r4, {r0, r1, r2}
  95 000c 6E68     		ldr	r6, [r5, #4]
  96 000e B047     		blx	r6
  97              	.LVL2:
  32:Task/Task_Manager.c ****     DebugPin.ctl(Debug_PC1, false);
  98              		.loc 1 32 5 is_stmt 1 view .LVU12
  99              		.loc 1 32 13 is_stmt 0 view .LVU13
 100 0010 6D68     		ldr	r5, [r5, #4]
 101              		.loc 1 32 5 view .LVU14
 102 0012 0023     		movs	r3, #0
 103 0014 94E80700 		ldm	r4, {r0, r1, r2}
 104 0018 A847     		blx	r5
 105              	.LVL3:
  33:Task/Task_Manager.c **** }
 106              		.loc 1 33 1 view .LVU15
 107 001a 70BD     		pop	{r4, r5, r6, pc}
 108              	.L8:
 109              		.align	2
 110              	.L7:
 111 001c 00000000 		.word	DebugPin
 112 0020 00000000 		.word	Debug_PC1
 113              		.cfi_endproc
 114              	.LFE152:
 116              		.section	.text.test_PC2_ctl,"ax",%progbits
 117              		.align	1
 118              		.global	test_PC2_ctl
 119              		.syntax unified
 120              		.thumb
 121              		.thumb_func
 122              		.fpu fpv5-d16
 124              	test_PC2_ctl:
 125              	.LFB153:
  34:Task/Task_Manager.c **** 
  35:Task/Task_Manager.c **** void test_PC2_ctl(void)
  36:Task/Task_Manager.c **** {
 126              		.loc 1 36 1 is_stmt 1 view -0
 127              		.cfi_startproc
 128              		@ args = 0, pretend = 0, frame = 0
 129              		@ frame_needed = 0, uses_anonymous_args = 0
 130 0000 70B5     		push	{r4, r5, r6, lr}
 131              	.LCFI2:
 132              		.cfi_def_cfa_offset 16
 133              		.cfi_offset 4, -16
 134              		.cfi_offset 5, -12
 135              		.cfi_offset 6, -8
 136              		.cfi_offset 14, -4
  37:Task/Task_Manager.c ****     DebugPin.ctl(Debug_PC2, true);
 137              		.loc 1 37 5 view .LVU17
 138              		.loc 1 37 13 is_stmt 0 view .LVU18
 139 0002 064D     		ldr	r5, .L11
ARM GAS  C:\Users\HUAV\AppData\Local\Temp\cc26OCJh.s 			page 4


 140              		.loc 1 37 5 view .LVU19
 141 0004 064C     		ldr	r4, .L11+4
 142 0006 0123     		movs	r3, #1
 143 0008 94E80700 		ldm	r4, {r0, r1, r2}
 144 000c 6E68     		ldr	r6, [r5, #4]
 145 000e B047     		blx	r6
 146              	.LVL4:
  38:Task/Task_Manager.c ****     DebugPin.ctl(Debug_PC2, false);
 147              		.loc 1 38 5 is_stmt 1 view .LVU20
 148              		.loc 1 38 13 is_stmt 0 view .LVU21
 149 0010 6D68     		ldr	r5, [r5, #4]
 150              		.loc 1 38 5 view .LVU22
 151 0012 0023     		movs	r3, #0
 152 0014 94E80700 		ldm	r4, {r0, r1, r2}
 153 0018 A847     		blx	r5
 154              	.LVL5:
  39:Task/Task_Manager.c **** }
 155              		.loc 1 39 1 view .LVU23
 156 001a 70BD     		pop	{r4, r5, r6, pc}
 157              	.L12:
 158              		.align	2
 159              	.L11:
 160 001c 00000000 		.word	DebugPin
 161 0020 00000000 		.word	Debug_PC2
 162              		.cfi_endproc
 163              	.LFE153:
 165              		.section	.text.Task_Manager_Init,"ax",%progbits
 166              		.align	1
 167              		.global	Task_Manager_Init
 168              		.syntax unified
 169              		.thumb
 170              		.thumb_func
 171              		.fpu fpv5-d16
 173              	Task_Manager_Init:
 174              	.LFB154:
  40:Task/Task_Manager.c **** 
  41:Task/Task_Manager.c **** void Task_Manager_Init(void)
  42:Task/Task_Manager.c **** {
 175              		.loc 1 42 1 is_stmt 1 view -0
 176              		.cfi_startproc
 177              		@ args = 0, pretend = 0, frame = 0
 178              		@ frame_needed = 0, uses_anonymous_args = 0
 179 0000 10B5     		push	{r4, lr}
 180              	.LCFI3:
 181              		.cfi_def_cfa_offset 8
 182              		.cfi_offset 4, -8
 183              		.cfi_offset 14, -4
  43:Task/Task_Manager.c ****     DevLED.init(Led1);
 184              		.loc 1 43 5 view .LVU25
 185              		.loc 1 43 11 is_stmt 0 view .LVU26
 186 0002 254C     		ldr	r4, .L15
 187              		.loc 1 43 5 view .LVU27
 188 0004 254B     		ldr	r3, .L15+4
 189 0006 93E80700 		ldm	r3, {r0, r1, r2}
 190 000a 2368     		ldr	r3, [r4]
 191 000c 9847     		blx	r3
 192              	.LVL6:
ARM GAS  C:\Users\HUAV\AppData\Local\Temp\cc26OCJh.s 			page 5


  44:Task/Task_Manager.c ****     DevLED.init(Led2);
 193              		.loc 1 44 5 is_stmt 1 view .LVU28
 194 000e 244B     		ldr	r3, .L15+8
 195 0010 93E80700 		ldm	r3, {r0, r1, r2}
 196 0014 2368     		ldr	r3, [r4]
 197 0016 9847     		blx	r3
 198              	.LVL7:
  45:Task/Task_Manager.c ****     DevLED.init(Led3);
 199              		.loc 1 45 5 view .LVU29
 200              		.loc 1 45 11 is_stmt 0 view .LVU30
 201 0018 2468     		ldr	r4, [r4]
 202              		.loc 1 45 5 view .LVU31
 203 001a 224B     		ldr	r3, .L15+12
 204 001c 93E80700 		ldm	r3, {r0, r1, r2}
 205 0020 A047     		blx	r4
 206              	.LVL8:
  46:Task/Task_Manager.c **** 
  47:Task/Task_Manager.c ****     DebugPin.init(Debug_PC0);
 207              		.loc 1 47 5 is_stmt 1 view .LVU32
 208              		.loc 1 47 13 is_stmt 0 view .LVU33
 209 0022 214C     		ldr	r4, .L15+16
 210              		.loc 1 47 5 view .LVU34
 211 0024 214B     		ldr	r3, .L15+20
 212 0026 93E80700 		ldm	r3, {r0, r1, r2}
 213 002a 2368     		ldr	r3, [r4]
 214 002c 9847     		blx	r3
 215              	.LVL9:
  48:Task/Task_Manager.c ****     DebugPin.init(Debug_PC1);
 216              		.loc 1 48 5 is_stmt 1 view .LVU35
 217 002e 204B     		ldr	r3, .L15+24
 218 0030 93E80700 		ldm	r3, {r0, r1, r2}
 219 0034 2368     		ldr	r3, [r4]
 220 0036 9847     		blx	r3
 221              	.LVL10:
  49:Task/Task_Manager.c ****     DebugPin.init(Debug_PC2);
 222              		.loc 1 49 5 view .LVU36
 223 0038 1E4B     		ldr	r3, .L15+28
 224 003a 93E80700 		ldm	r3, {r0, r1, r2}
 225 003e 2368     		ldr	r3, [r4]
 226 0040 9847     		blx	r3
 227              	.LVL11:
  50:Task/Task_Manager.c ****     DebugPin.init(Debug_PC3);
 228              		.loc 1 50 5 view .LVU37
 229 0042 1D4B     		ldr	r3, .L15+32
 230 0044 93E80700 		ldm	r3, {r0, r1, r2}
 231 0048 2368     		ldr	r3, [r4]
 232 004a 9847     		blx	r3
 233              	.LVL12:
  51:Task/Task_Manager.c ****     DebugPin.init(Debug_PB3);
 234              		.loc 1 51 5 view .LVU38
 235 004c 1B4B     		ldr	r3, .L15+36
 236 004e 93E80700 		ldm	r3, {r0, r1, r2}
 237 0052 2368     		ldr	r3, [r4]
 238 0054 9847     		blx	r3
 239              	.LVL13:
  52:Task/Task_Manager.c ****     DebugPin.init(Debug_PB4);
 240              		.loc 1 52 5 view .LVU39
ARM GAS  C:\Users\HUAV\AppData\Local\Temp\cc26OCJh.s 			page 6


 241 0056 1A4B     		ldr	r3, .L15+40
 242 0058 93E80700 		ldm	r3, {r0, r1, r2}
 243 005c 2368     		ldr	r3, [r4]
 244 005e 9847     		blx	r3
 245              	.LVL14:
  53:Task/Task_Manager.c ****     DebugPin.init(Debug_PB5);
 246              		.loc 1 53 5 view .LVU40
 247 0060 184B     		ldr	r3, .L15+44
 248 0062 93E80700 		ldm	r3, {r0, r1, r2}
 249 0066 2368     		ldr	r3, [r4]
 250 0068 9847     		blx	r3
 251              	.LVL15:
  54:Task/Task_Manager.c ****     DebugPin.init(Debug_PB6);
 252              		.loc 1 54 5 view .LVU41
 253 006a 174B     		ldr	r3, .L15+48
 254 006c 93E80700 		ldm	r3, {r0, r1, r2}
 255 0070 2368     		ldr	r3, [r4]
 256 0072 9847     		blx	r3
 257              	.LVL16:
  55:Task/Task_Manager.c ****     DebugPin.init(Debug_PB10);
 258              		.loc 1 55 5 view .LVU42
 259              		.loc 1 55 13 is_stmt 0 view .LVU43
 260 0074 2468     		ldr	r4, [r4]
 261              		.loc 1 55 5 view .LVU44
 262 0076 154B     		ldr	r3, .L15+52
 263 0078 93E80700 		ldm	r3, {r0, r1, r2}
 264 007c A047     		blx	r4
 265              	.LVL17:
  56:Task/Task_Manager.c **** 
  57:Task/Task_Manager.c ****     /* vol ADC init */
  58:Task/Task_Manager.c **** 
  59:Task/Task_Manager.c ****     /* cur ADC init */
  60:Task/Task_Manager.c **** 
  61:Task/Task_Manager.c ****     DataPipe_Init();
 266              		.loc 1 61 5 is_stmt 1 view .LVU45
 267 007e FFF7FEFF 		bl	DataPipe_Init
 268              	.LVL18:
  62:Task/Task_Manager.c **** 
  63:Task/Task_Manager.c ****     TaskProtocol_Init();
 269              		.loc 1 63 5 view .LVU46
 270 0082 FFF7FEFF 		bl	TaskProtocol_Init
 271              	.LVL19:
  64:Task/Task_Manager.c ****     TaskInertial_Init();
 272              		.loc 1 64 5 view .LVU47
 273 0086 FFF7FEFF 		bl	TaskInertial_Init
 274              	.LVL20:
  65:Task/Task_Manager.c ****     TaskTelemetry_Init();
 275              		.loc 1 65 5 view .LVU48
 276 008a FFF7FEFF 		bl	TaskTelemetry_Init
 277              	.LVL21:
  66:Task/Task_Manager.c ****     TaskControl_Init();
 278              		.loc 1 66 5 view .LVU49
 279 008e FFF7FEFF 		bl	TaskControl_Init
 280              	.LVL22:
  67:Task/Task_Manager.c ****     TaskLog_Init();
 281              		.loc 1 67 5 view .LVU50
 282 0092 FFF7FEFF 		bl	TaskLog_Init
ARM GAS  C:\Users\HUAV\AppData\Local\Temp\cc26OCJh.s 			page 7


 283              	.LVL23:
  68:Task/Task_Manager.c **** }
 284              		.loc 1 68 1 is_stmt 0 view .LVU51
 285 0096 10BD     		pop	{r4, pc}
 286              	.L16:
 287              		.align	2
 288              	.L15:
 289 0098 00000000 		.word	DevLED
 290 009c 00000000 		.word	Led1
 291 00a0 00000000 		.word	Led2
 292 00a4 00000000 		.word	Led3
 293 00a8 00000000 		.word	DebugPin
 294 00ac 00000000 		.word	Debug_PC0
 295 00b0 00000000 		.word	Debug_PC1
 296 00b4 00000000 		.word	Debug_PC2
 297 00b8 00000000 		.word	Debug_PC3
 298 00bc 00000000 		.word	Debug_PB3
 299 00c0 00000000 		.word	Debug_PB4
 300 00c4 00000000 		.word	Debug_PB5
 301 00c8 00000000 		.word	Debug_PB6
 302 00cc 00000000 		.word	Debug_PB10
 303              		.cfi_endproc
 304              	.LFE154:
 306              		.section	.rodata.Task_Manager_CreateTask.str1.4,"aMS",%progbits,1
 307              		.align	2
 308              	.LC0:
 309 0000 496E6572 		.ascii	"Inertial Sample\000"
 309      7469616C 
 309      2053616D 
 309      706C6500 
 310              		.align	2
 311              	.LC1:
 312 0010 436F6E74 		.ascii	"Control\000"
 312      726F6C00 
 313              		.align	2
 314              	.LC2:
 315 0018 50726F74 		.ascii	"Protocl\000"
 315      6F636C00 
 316              		.align	2
 317              	.LC3:
 318 0020 44617461 		.ascii	"Data Log\000"
 318      204C6F67 
 318      00
 319 0029 000000   		.align	2
 320              	.LC4:
 321 002c 54656C65 		.ascii	"Telemetry\000"
 321      6D657472 
 321      7900
 322              		.section	.text.Task_Manager_CreateTask,"ax",%progbits
 323              		.align	1
 324              		.global	Task_Manager_CreateTask
 325              		.syntax unified
 326              		.thumb
 327              		.thumb_func
 328              		.fpu fpv5-d16
 330              	Task_Manager_CreateTask:
 331              	.LFB155:
ARM GAS  C:\Users\HUAV\AppData\Local\Temp\cc26OCJh.s 			page 8


  69:Task/Task_Manager.c **** 
  70:Task/Task_Manager.c **** void Task_Manager_CreateTask(void)
  71:Task/Task_Manager.c **** {
 332              		.loc 1 71 1 is_stmt 1 view -0
 333              		.cfi_startproc
 334              		@ args = 0, pretend = 0, frame = 0
 335              		@ frame_needed = 0, uses_anonymous_args = 0
 336 0000 10B5     		push	{r4, lr}
 337              	.LCFI4:
 338              		.cfi_def_cfa_offset 8
 339              		.cfi_offset 4, -8
 340              		.cfi_offset 14, -4
 341 0002 82B0     		sub	sp, sp, #8
 342              	.LCFI5:
 343              		.cfi_def_cfa_offset 16
  72:Task/Task_Manager.c ****     TaskInertial_Handle = Os_CreateTask("Inertial Sample", TASK_EXEC_2KHZ, Task_Group_0, Task_Prior
 344              		.loc 1 72 5 view .LVU53
 345              		.loc 1 72 27 is_stmt 0 view .LVU54
 346 0004 4FF48064 		mov	r4, #1024
 347 0008 0194     		str	r4, [sp, #4]
 348 000a 1E4B     		ldr	r3, .L19
 349 000c 0093     		str	r3, [sp]
 350 000e 0023     		movs	r3, #0
 351 0010 1A46     		mov	r2, r3
 352 0012 4FF4FA61 		mov	r1, #2000
 353 0016 1C48     		ldr	r0, .L19+4
 354 0018 FFF7FEFF 		bl	Os_CreateTask
 355              	.LVL24:
 356              		.loc 1 72 25 view .LVU55
 357 001c 1B4B     		ldr	r3, .L19+8
 358 001e 1860     		str	r0, [r3]
  73:Task/Task_Manager.c ****     TaskControl_Handle = Os_CreateTask("Control", TASK_EXEC_1KHZ, Task_Group_0, Task_Priority_1, Ta
 359              		.loc 1 73 5 is_stmt 1 view .LVU56
 360              		.loc 1 73 26 is_stmt 0 view .LVU57
 361 0020 0194     		str	r4, [sp, #4]
 362 0022 1B4B     		ldr	r3, .L19+12
 363 0024 0093     		str	r3, [sp]
 364 0026 0123     		movs	r3, #1
 365 0028 0022     		movs	r2, #0
 366 002a 4FF47A71 		mov	r1, #1000
 367 002e 1948     		ldr	r0, .L19+16
 368 0030 FFF7FEFF 		bl	Os_CreateTask
 369              	.LVL25:
 370              		.loc 1 73 24 view .LVU58
 371 0034 184B     		ldr	r3, .L19+20
 372 0036 1860     		str	r0, [r3]
  74:Task/Task_Manager.c ****     TaskProtocol_Handle = Os_CreateTask("Protocl", TASK_EXEC_100HZ, Task_Group_1, Task_Priority_0, 
 373              		.loc 1 74 5 is_stmt 1 view .LVU59
 374              		.loc 1 74 27 is_stmt 0 view .LVU60
 375 0038 0194     		str	r4, [sp, #4]
 376 003a 184B     		ldr	r3, .L19+24
 377 003c 0093     		str	r3, [sp]
 378 003e 0023     		movs	r3, #0
 379 0040 0122     		movs	r2, #1
 380 0042 6421     		movs	r1, #100
 381 0044 1648     		ldr	r0, .L19+28
 382 0046 FFF7FEFF 		bl	Os_CreateTask
ARM GAS  C:\Users\HUAV\AppData\Local\Temp\cc26OCJh.s 			page 9


 383              	.LVL26:
 384              		.loc 1 74 25 view .LVU61
 385 004a 164B     		ldr	r3, .L19+32
 386 004c 1860     		str	r0, [r3]
  75:Task/Task_Manager.c ****     TaskLog_Handle = Os_CreateTask("Data Log", TASK_EXEC_200HZ, Task_Group_2, Task_Priority_0, Task
 387              		.loc 1 75 5 is_stmt 1 view .LVU62
 388              		.loc 1 75 22 is_stmt 0 view .LVU63
 389 004e 0194     		str	r4, [sp, #4]
 390 0050 154B     		ldr	r3, .L19+36
 391 0052 0093     		str	r3, [sp]
 392 0054 0023     		movs	r3, #0
 393 0056 0222     		movs	r2, #2
 394 0058 C821     		movs	r1, #200
 395 005a 1448     		ldr	r0, .L19+40
 396 005c FFF7FEFF 		bl	Os_CreateTask
 397              	.LVL27:
 398              		.loc 1 75 20 view .LVU64
 399 0060 134B     		ldr	r3, .L19+44
 400 0062 1860     		str	r0, [r3]
  76:Task/Task_Manager.c ****     TaskTelemetry_Handle = Os_CreateTask("Telemetry", TASK_EXEC_100HZ, Task_Group_0, Task_Priority_
 401              		.loc 1 76 5 is_stmt 1 view .LVU65
 402              		.loc 1 76 28 is_stmt 0 view .LVU66
 403 0064 4FF40073 		mov	r3, #512
 404 0068 0193     		str	r3, [sp, #4]
 405 006a 124B     		ldr	r3, .L19+48
 406 006c 0093     		str	r3, [sp]
 407 006e 0223     		movs	r3, #2
 408 0070 0022     		movs	r2, #0
 409 0072 6421     		movs	r1, #100
 410 0074 1048     		ldr	r0, .L19+52
 411 0076 FFF7FEFF 		bl	Os_CreateTask
 412              	.LVL28:
 413              		.loc 1 76 26 view .LVU67
 414 007a 104B     		ldr	r3, .L19+56
 415 007c 1860     		str	r0, [r3]
  77:Task/Task_Manager.c **** }
 416              		.loc 1 77 1 view .LVU68
 417 007e 02B0     		add	sp, sp, #8
 418              	.LCFI6:
 419              		.cfi_def_cfa_offset 8
 420              		@ sp needed
 421 0080 10BD     		pop	{r4, pc}
 422              	.L20:
 423 0082 00BF     		.align	2
 424              	.L19:
 425 0084 00000000 		.word	TaskInertical_Core
 426 0088 00000000 		.word	.LC0
 427 008c 00000000 		.word	.LANCHOR0
 428 0090 00000000 		.word	TaskControl_Core
 429 0094 10000000 		.word	.LC1
 430 0098 00000000 		.word	.LANCHOR1
 431 009c 00000000 		.word	TaskProtocol_Core
 432 00a0 18000000 		.word	.LC2
 433 00a4 00000000 		.word	.LANCHOR2
 434 00a8 00000000 		.word	TaskLog_Core
 435 00ac 20000000 		.word	.LC3
 436 00b0 00000000 		.word	.LANCHOR3
ARM GAS  C:\Users\HUAV\AppData\Local\Temp\cc26OCJh.s 			page 10


 437 00b4 00000000 		.word	TaskTelemetry_Core
 438 00b8 2C000000 		.word	.LC4
 439 00bc 00000000 		.word	.LANCHOR4
 440              		.cfi_endproc
 441              	.LFE155:
 443              		.global	TaskTelemetry_Handle
 444              		.global	TaskLog_Handle
 445              		.global	TaskControl_Handle
 446              		.global	TaskInertial_Handle
 447              		.global	TaskProtocol_Handle
 448              		.section	.bss.TaskControl_Handle,"aw",%nobits
 449              		.align	2
 450              		.set	.LANCHOR1,. + 0
 453              	TaskControl_Handle:
 454 0000 00000000 		.space	4
 455              		.section	.bss.TaskInertial_Handle,"aw",%nobits
 456              		.align	2
 457              		.set	.LANCHOR0,. + 0
 460              	TaskInertial_Handle:
 461 0000 00000000 		.space	4
 462              		.section	.bss.TaskLog_Handle,"aw",%nobits
 463              		.align	2
 464              		.set	.LANCHOR3,. + 0
 467              	TaskLog_Handle:
 468 0000 00000000 		.space	4
 469              		.section	.bss.TaskProtocol_Handle,"aw",%nobits
 470              		.align	2
 471              		.set	.LANCHOR2,. + 0
 474              	TaskProtocol_Handle:
 475 0000 00000000 		.space	4
 476              		.section	.bss.TaskTelemetry_Handle,"aw",%nobits
 477              		.align	2
 478              		.set	.LANCHOR4,. + 0
 481              	TaskTelemetry_Handle:
 482 0000 00000000 		.space	4
 483              		.text
 484              	.Letext0:
 485              		.file 2 "d:\\software\\zephyr_env_gcc\\gcc-arm-none-eabi-10-2020-q4-major\\arm-none-eabi\\include\
 486              		.file 3 "d:\\software\\zephyr_env_gcc\\gcc-arm-none-eabi-10-2020-q4-major\\arm-none-eabi\\include\
 487              		.file 4 "HAL_Lib/CMSIS/Device/ST/STM32H7xx/Include/stm32h743xx.h"
 488              		.file 5 "HAL_Lib/STM32H7xx_HAL_Driver/Inc/stm32h7xx_hal_gpio.h"
 489              		.file 6 "System/scheduler/scheduler.h"
 490              		.file 7 "Service/imu_data.h"
 491              		.file 8 "Bsp/Bsp_GPIO.h"
 492              		.file 9 "Task/Task_Telemetry.h"
 493              		.file 10 "debug/debug_util.h"
 494              		.file 11 "Task/Task_Manager.h"
 495              		.file 12 "Device/Dev_Led.h"
 496              		.file 13 "IO_Def/IO_Definition.h"
 497              		.file 14 "System/DataPipe/DataPipe.h"
 498              		.file 15 "Task/Task_Protocol.h"
 499              		.file 16 "Task/Task_SensorInertial.h"
 500              		.file 17 "Task/Task_Control.h"
 501              		.file 18 "Task/Task_Log.h"
ARM GAS  C:\Users\HUAV\AppData\Local\Temp\cc26OCJh.s 			page 11


DEFINED SYMBOLS
                            *ABS*:00000000 Task_Manager.c
C:\Users\HUAV\AppData\Local\Temp\cc26OCJh.s:17     .text.test_PC0_ctl:00000000 $t
C:\Users\HUAV\AppData\Local\Temp\cc26OCJh.s:25     .text.test_PC0_ctl:00000000 test_PC0_ctl
C:\Users\HUAV\AppData\Local\Temp\cc26OCJh.s:62     .text.test_PC0_ctl:0000001c $d
C:\Users\HUAV\AppData\Local\Temp\cc26OCJh.s:68     .text.test_PC1_ctl:00000000 $t
C:\Users\HUAV\AppData\Local\Temp\cc26OCJh.s:75     .text.test_PC1_ctl:00000000 test_PC1_ctl
C:\Users\HUAV\AppData\Local\Temp\cc26OCJh.s:111    .text.test_PC1_ctl:0000001c $d
C:\Users\HUAV\AppData\Local\Temp\cc26OCJh.s:117    .text.test_PC2_ctl:00000000 $t
C:\Users\HUAV\AppData\Local\Temp\cc26OCJh.s:124    .text.test_PC2_ctl:00000000 test_PC2_ctl
C:\Users\HUAV\AppData\Local\Temp\cc26OCJh.s:160    .text.test_PC2_ctl:0000001c $d
C:\Users\HUAV\AppData\Local\Temp\cc26OCJh.s:166    .text.Task_Manager_Init:00000000 $t
C:\Users\HUAV\AppData\Local\Temp\cc26OCJh.s:173    .text.Task_Manager_Init:00000000 Task_Manager_Init
C:\Users\HUAV\AppData\Local\Temp\cc26OCJh.s:289    .text.Task_Manager_Init:00000098 $d
C:\Users\HUAV\AppData\Local\Temp\cc26OCJh.s:307    .rodata.Task_Manager_CreateTask.str1.4:00000000 $d
C:\Users\HUAV\AppData\Local\Temp\cc26OCJh.s:323    .text.Task_Manager_CreateTask:00000000 $t
C:\Users\HUAV\AppData\Local\Temp\cc26OCJh.s:330    .text.Task_Manager_CreateTask:00000000 Task_Manager_CreateTask
C:\Users\HUAV\AppData\Local\Temp\cc26OCJh.s:425    .text.Task_Manager_CreateTask:00000084 $d
C:\Users\HUAV\AppData\Local\Temp\cc26OCJh.s:481    .bss.TaskTelemetry_Handle:00000000 TaskTelemetry_Handle
C:\Users\HUAV\AppData\Local\Temp\cc26OCJh.s:467    .bss.TaskLog_Handle:00000000 TaskLog_Handle
C:\Users\HUAV\AppData\Local\Temp\cc26OCJh.s:453    .bss.TaskControl_Handle:00000000 TaskControl_Handle
C:\Users\HUAV\AppData\Local\Temp\cc26OCJh.s:460    .bss.TaskInertial_Handle:00000000 TaskInertial_Handle
C:\Users\HUAV\AppData\Local\Temp\cc26OCJh.s:474    .bss.TaskProtocol_Handle:00000000 TaskProtocol_Handle
C:\Users\HUAV\AppData\Local\Temp\cc26OCJh.s:449    .bss.TaskControl_Handle:00000000 $d
C:\Users\HUAV\AppData\Local\Temp\cc26OCJh.s:456    .bss.TaskInertial_Handle:00000000 $d
C:\Users\HUAV\AppData\Local\Temp\cc26OCJh.s:463    .bss.TaskLog_Handle:00000000 $d
C:\Users\HUAV\AppData\Local\Temp\cc26OCJh.s:470    .bss.TaskProtocol_Handle:00000000 $d
C:\Users\HUAV\AppData\Local\Temp\cc26OCJh.s:477    .bss.TaskTelemetry_Handle:00000000 $d

UNDEFINED SYMBOLS
DebugPin
Debug_PC0
Debug_PC1
Debug_PC2
DataPipe_Init
TaskProtocol_Init
TaskInertial_Init
TaskTelemetry_Init
TaskControl_Init
TaskLog_Init
DevLED
Led1
Led2
Led3
Debug_PC3
Debug_PB3
Debug_PB4
Debug_PB5
Debug_PB6
Debug_PB10
Os_CreateTask
TaskInertical_Core
TaskControl_Core
TaskProtocol_Core
TaskLog_Core
TaskTelemetry_Core
