ARM GAS  C:\Users\8bit\AppData\Local\Temp\ccdsu2xB.s 			page 1


   1              		.cpu cortex-m4
   2              		.arch armv7e-m
   3              		.fpu fpv4-sp-d16
   4              		.eabi_attribute 27, 1
   5              		.eabi_attribute 28, 1
   6              		.eabi_attribute 20, 1
   7              		.eabi_attribute 21, 1
   8              		.eabi_attribute 23, 3
   9              		.eabi_attribute 24, 1
  10              		.eabi_attribute 25, 1
  11              		.eabi_attribute 26, 1
  12              		.eabi_attribute 30, 1
  13              		.eabi_attribute 34, 1
  14              		.eabi_attribute 18, 4
  15              		.file	"Task_Telemetry.c"
  16              		.text
  17              	.Ltext0:
  18              		.cfi_sections	.debug_frame
  19              		.section	.text.Telemetry_blink,"ax",%progbits
  20              		.align	1
  21              		.syntax unified
  22              		.thumb
  23              		.thumb_func
  25              	Telemetry_blink:
  26              	.LVL0:
  27              	.LFB2075:
  28              		.file 1 "Task/Task_Telemetry.c"
   1:Task/Task_Telemetry.c **** /* code: 8_B!T0
   2:Task/Task_Telemetry.c ****  * Telemetry Task we use this task to get and process data from RC receiver and radio
   3:Task/Task_Telemetry.c ****  *
   4:Task/Task_Telemetry.c ****  * deflaut receiver list
   5:Task/Task_Telemetry.c ****  * channel 1  roll
   6:Task/Task_Telemetry.c ****  * channel 2  pitch
   7:Task/Task_Telemetry.c ****  * channel 3  throttle
   8:Task/Task_Telemetry.c ****  * channel 4  yaw
   9:Task/Task_Telemetry.c ****  * channel 5  arm toggle            two   pos : on/off
  10:Task/Task_Telemetry.c ****  * channel 6  buzzer toggle         two   pos : on/off
  11:Task/Task_Telemetry.c ****  * channel 7  control mode switch   three pos : pos 1/2/3
  12:Task/Task_Telemetry.c ****  * channel 8  blackbox              auto reset toggle
  13:Task/Task_Telemetry.c ****  * channel 9  flip over             two   pos : on/off
  14:Task/Task_Telemetry.c ****  * channel 10 aux6
  15:Task/Task_Telemetry.c ****  * channel 11 aux7
  16:Task/Task_Telemetry.c ****  * channel 12 aux8
  17:Task/Task_Telemetry.c ****  * channel 13 aux9
  18:Task/Task_Telemetry.c ****  * channel 14 aux10
  19:Task/Task_Telemetry.c ****  * channel 15 aux11
  20:Task/Task_Telemetry.c ****  * channel 16 aux12
  21:Task/Task_Telemetry.c ****  *
  22:Task/Task_Telemetry.c ****  */
  23:Task/Task_Telemetry.c **** #include "Task_Telemetry.h"
  24:Task/Task_Telemetry.c **** #include "Task_BlackBox.h"
  25:Task/Task_Telemetry.c **** #include "DataPipe.h"
  26:Task/Task_Telemetry.c **** #include "HW_Def.h"
  27:Task/Task_Telemetry.c **** #include "Srv_Receiver.h"
  28:Task/Task_Telemetry.c **** #include "Srv_OsCommon.h"
  29:Task/Task_Telemetry.c **** #include "util.h"
  30:Task/Task_Telemetry.c **** #include "Srv_ComProto.h"
ARM GAS  C:\Users\8bit\AppData\Local\Temp\ccdsu2xB.s 			page 2


  31:Task/Task_Telemetry.c **** #include "Storage.h"
  32:Task/Task_Telemetry.c **** 
  33:Task/Task_Telemetry.c **** static SrvReceiverObj_TypeDef Receiver_Obj;
  34:Task/Task_Telemetry.c **** static Telemetry_Monitor_TypeDef Telemetry_Monitor;
  35:Task/Task_Telemetry.c **** static uint32_t TaskTelemetry_Period = 0;
  36:Task/Task_Telemetry.c **** DataPipe_CreateDataObj(ControlData_TypeDef, Rc);
  37:Task/Task_Telemetry.c **** 
  38:Task/Task_Telemetry.c **** /* internal funciotn */
  39:Task/Task_Telemetry.c **** static Telemetry_RCSig_TypeDef Telemetry_RC_Sig_Update(Telemetry_RCInput_TypeDef *RC_Input_obj, Srv
  40:Task/Task_Telemetry.c **** static bool Telemetry_RC_Sig_Init(Telemetry_RCInput_TypeDef *RC_Input_obj, SrvReceiverObj_TypeDef *
  41:Task/Task_Telemetry.c **** static bool Telemetry_BindGimbalToChannel(Telemetry_RCInput_TypeDef *RC_Input_obj, uint16_t *data_o
  42:Task/Task_Telemetry.c **** static bool Telemetry_BindToggleToChannel(Telemetry_RCInput_TypeDef *RC_Input_obj, uint16_t *data_o
  43:Task/Task_Telemetry.c **** static bool Telemetry_AddToggleCombo(Telemetry_RCInput_TypeDef *RC_Input_obj, uint16_t *data_obj, T
  44:Task/Task_Telemetry.c **** static void Telemetry_Enable_GimbalDeadZone(Telemetry_RCFuncMap_TypeDef *gimbal, uint16_t scope);
  45:Task/Task_Telemetry.c **** static uint16_t Telemetry_SplitScopeValue_Into(uint8_t pcs);
  46:Task/Task_Telemetry.c **** static bool Telemetry_BlackBox_OnChange(Telemetry_RCSig_TypeDef RCSig);
  47:Task/Task_Telemetry.c **** static bool Telemetry_Bind_Gimbal(uint8_t throttle_ch, uint8_t pitch_ch, uint8_t roll_ch, uint8_t y
  48:Task/Task_Telemetry.c **** static bool Telemetry_Bind_Toggle(uint8_t arm_toggle_ch, uint8_t mode_toggle_ch, uint8_t buzzer_tog
  49:Task/Task_Telemetry.c **** static void Telemetry_ConvertRCData_To_ControlData(Telemetry_RCSig_TypeDef RCSig, ControlData_TypeD
  50:Task/Task_Telemetry.c **** static bool Telemetry_Bind_CalibCombo(void);
  51:Task/Task_Telemetry.c **** 
  52:Task/Task_Telemetry.c **** /* operating frequence at least at 100Hz */
  53:Task/Task_Telemetry.c **** void TaskTelemetry_Init(uint32_t period)
  54:Task/Task_Telemetry.c **** {
  55:Task/Task_Telemetry.c ****     memset(&Telemetry_Monitor, 0, sizeof(Telemetry_Monitor));
  56:Task/Task_Telemetry.c **** 
  57:Task/Task_Telemetry.c ****     Telemetry_Monitor.Init_Rt = SrvOsCommon.get_os_ms();
  58:Task/Task_Telemetry.c **** 
  59:Task/Task_Telemetry.c ****     /* gimbal channel definition */
  60:Task/Task_Telemetry.c ****     Telemetry_Monitor.throttle_ch = Channel_3;
  61:Task/Task_Telemetry.c ****     Telemetry_Monitor.pitch_ch = Channel_2;
  62:Task/Task_Telemetry.c ****     Telemetry_Monitor.roll_ch = Channel_1;
  63:Task/Task_Telemetry.c ****     Telemetry_Monitor.yaw_ch = Channel_4;
  64:Task/Task_Telemetry.c **** 
  65:Task/Task_Telemetry.c ****     /* toggle channel definition */
  66:Task/Task_Telemetry.c ****     Telemetry_Monitor.arm_toggle_ch = Channel_5;
  67:Task/Task_Telemetry.c ****     Telemetry_Monitor.buzzer_toggle_ch = Channel_6;
  68:Task/Task_Telemetry.c ****     Telemetry_Monitor.mode_switcher_ch = Channel_7;
  69:Task/Task_Telemetry.c ****     Telemetry_Monitor.blackbox_ch = Channel_8;
  70:Task/Task_Telemetry.c ****     Telemetry_Monitor.flip_over_ch = Channel_9;
  71:Task/Task_Telemetry.c **** 
  72:Task/Task_Telemetry.c ****     /* init receiver */
  73:Task/Task_Telemetry.c ****     if (Telemetry_RC_Sig_Init(&Telemetry_Monitor.RC_Setting, &Receiver_Obj))
  74:Task/Task_Telemetry.c ****     {
  75:Task/Task_Telemetry.c ****         /* for crsf frame channel 1 is throttle */
  76:Task/Task_Telemetry.c ****         /* for sbus frame channel 3 is throttle */
  77:Task/Task_Telemetry.c ****         if (Receiver_Obj.Frame_type == Receiver_Type_CRSF)
  78:Task/Task_Telemetry.c ****         {
  79:Task/Task_Telemetry.c ****             /* set crsf receiver map */
  80:Task/Task_Telemetry.c ****             /* bind to channel */
  81:Task/Task_Telemetry.c ****             if (Telemetry_Bind_Gimbal(Telemetry_Monitor.throttle_ch, \
  82:Task/Task_Telemetry.c ****                                       Telemetry_Monitor.pitch_ch, \
  83:Task/Task_Telemetry.c ****                                       Telemetry_Monitor.roll_ch, \
  84:Task/Task_Telemetry.c ****                                       Telemetry_Monitor.yaw_ch) && \
  85:Task/Task_Telemetry.c ****                 Telemetry_Bind_Toggle(Telemetry_Monitor.arm_toggle_ch, \
  86:Task/Task_Telemetry.c ****                                       Telemetry_Monitor.mode_switcher_ch, \
  87:Task/Task_Telemetry.c ****                                       Telemetry_Monitor.buzzer_toggle_ch, \
ARM GAS  C:\Users\8bit\AppData\Local\Temp\ccdsu2xB.s 			page 3


  88:Task/Task_Telemetry.c ****                                       Telemetry_Monitor.flip_over_ch, \
  89:Task/Task_Telemetry.c ****                                       Telemetry_Monitor.blackbox_ch) && \
  90:Task/Task_Telemetry.c ****                 Telemetry_Bind_CalibCombo())
  91:Task/Task_Telemetry.c ****             {
  92:Task/Task_Telemetry.c ****                 Telemetry_Monitor.RC_Setting.sig.arm_state = TELEMETRY_SET_ARM;
  93:Task/Task_Telemetry.c **** 
  94:Task/Task_Telemetry.c ****                 /* set gimbal center dead zone */
  95:Task/Task_Telemetry.c ****                 Telemetry_Enable_GimbalDeadZone(&Telemetry_Monitor.RC_Setting.Gimbal[Gimbal_Pitch],
  96:Task/Task_Telemetry.c ****                 Telemetry_Enable_GimbalDeadZone(&Telemetry_Monitor.RC_Setting.Gimbal[Gimbal_Roll], 
  97:Task/Task_Telemetry.c ****                 Telemetry_Enable_GimbalDeadZone(&Telemetry_Monitor.RC_Setting.Gimbal[Gimbal_Yaw], 1
  98:Task/Task_Telemetry.c **** 
  99:Task/Task_Telemetry.c ****                 /* set datapipe */
 100:Task/Task_Telemetry.c ****                 memset(&Receiver_Smp_DataPipe, 0, sizeof(Receiver_Smp_DataPipe));
 101:Task/Task_Telemetry.c ****                 memset(DataPipe_DataObjAddr(Rc), 0, DataPipe_DataSize(Rc));
 102:Task/Task_Telemetry.c **** 
 103:Task/Task_Telemetry.c ****                 Receiver_Smp_DataPipe.data_addr = (uint32_t)DataPipe_DataObjAddr(Rc);
 104:Task/Task_Telemetry.c ****                 Receiver_Smp_DataPipe.data_size = DataPipe_DataSize(Rc);
 105:Task/Task_Telemetry.c **** 
 106:Task/Task_Telemetry.c ****                 DataPipe_Enable(&Receiver_Smp_DataPipe);
 107:Task/Task_Telemetry.c ****             }
 108:Task/Task_Telemetry.c ****         }
 109:Task/Task_Telemetry.c ****         else if (Receiver_Obj.Frame_type == Receiver_Type_Sbus)
 110:Task/Task_Telemetry.c ****         {
 111:Task/Task_Telemetry.c ****             /* reserved */
 112:Task/Task_Telemetry.c ****         }
 113:Task/Task_Telemetry.c **** 
 114:Task/Task_Telemetry.c ****         Telemetry_Monitor.lst_arm_state = TELEMETRY_SET_ARM;
 115:Task/Task_Telemetry.c ****     }
 116:Task/Task_Telemetry.c ****     
 117:Task/Task_Telemetry.c ****     Telemetry_Monitor.poweron_arm_check = true;
 118:Task/Task_Telemetry.c **** 
 119:Task/Task_Telemetry.c ****     TaskTelemetry_Period = period;
 120:Task/Task_Telemetry.c **** }
 121:Task/Task_Telemetry.c **** 
 122:Task/Task_Telemetry.c **** static void Telemetry_blink(bool arm)
 123:Task/Task_Telemetry.c **** {
  29              		.loc 1 123 1 view -0
  30              		.cfi_startproc
  31              		@ args = 0, pretend = 0, frame = 16
  32              		@ frame_needed = 0, uses_anonymous_args = 0
  33              		.loc 1 123 1 is_stmt 0 view .LVU1
  34 0000 10B5     		push	{r4, lr}
  35              	.LCFI0:
  36              		.cfi_def_cfa_offset 8
  37              		.cfi_offset 4, -8
  38              		.cfi_offset 14, -4
  39 0002 84B0     		sub	sp, sp, #16
  40              	.LCFI1:
  41              		.cfi_def_cfa_offset 24
  42 0004 0446     		mov	r4, r0
 124:Task/Task_Telemetry.c ****     uint32_t Rt = 0;
  43              		.loc 1 124 5 is_stmt 1 view .LVU2
  44              	.LVL1:
 125:Task/Task_Telemetry.c ****     static uint32_t Lst_Rt = 0;
  45              		.loc 1 125 5 view .LVU3
 126:Task/Task_Telemetry.c ****     static bool led_state = false;
  46              		.loc 1 126 5 view .LVU4
ARM GAS  C:\Users\8bit\AppData\Local\Temp\ccdsu2xB.s 			page 4


 127:Task/Task_Telemetry.c ****     DevLedObj_TypeDef LedObj_tmp;
  47              		.loc 1 127 5 view .LVU5
 128:Task/Task_Telemetry.c ****     
 129:Task/Task_Telemetry.c ****     if (Noti_LED_Ptr == NULL)
  48              		.loc 1 129 5 view .LVU6
 130:Task/Task_Telemetry.c ****         return;
 131:Task/Task_Telemetry.c **** 
 132:Task/Task_Telemetry.c ****     memcpy(&LedObj_tmp, Noti_LED_Ptr, sizeof(LedObj_tmp));
  49              		.loc 1 132 5 view .LVU7
  50 0006 174B     		ldr	r3, .L7
  51 0008 93E80700 		ldm	r3, {r0, r1, r2}
  52              	.LVL2:
  53              		.loc 1 132 5 is_stmt 0 view .LVU8
  54 000c 04AB     		add	r3, sp, #16
  55 000e 03E90700 		stmdb	r3, {r0, r1, r2}
 133:Task/Task_Telemetry.c **** 
 134:Task/Task_Telemetry.c ****     /* disarm state */
 135:Task/Task_Telemetry.c ****     if (!arm)
  56              		.loc 1 135 5 is_stmt 1 view .LVU9
  57              		.loc 1 135 8 is_stmt 0 view .LVU10
  58 0012 FCB1     		cbz	r4, .L6
 136:Task/Task_Telemetry.c ****     {
 137:Task/Task_Telemetry.c ****         DevLED.ctl(LedObj_tmp, true);
 138:Task/Task_Telemetry.c ****         return;
 139:Task/Task_Telemetry.c ****     }
 140:Task/Task_Telemetry.c **** 
 141:Task/Task_Telemetry.c ****     Rt = SrvOsCommon.get_os_ms();
  59              		.loc 1 141 5 is_stmt 1 view .LVU11
  60              		.loc 1 141 21 is_stmt 0 view .LVU12
  61 0014 144B     		ldr	r3, .L7+4
  62 0016 5B68     		ldr	r3, [r3, #4]
  63              		.loc 1 141 10 view .LVU13
  64 0018 9847     		blx	r3
  65              	.LVL3:
 142:Task/Task_Telemetry.c ****     if ((Rt % 50 == 0) && (Lst_Rt != Rt))
  66              		.loc 1 142 5 is_stmt 1 view .LVU14
  67              		.loc 1 142 13 is_stmt 0 view .LVU15
  68 001a 144B     		ldr	r3, .L7+8
  69 001c A3FB0023 		umull	r2, r3, r3, r0
  70 0020 1B09     		lsrs	r3, r3, #4
  71 0022 3222     		movs	r2, #50
  72 0024 02FB1303 		mls	r3, r2, r3, r0
  73              		.loc 1 142 8 view .LVU16
  74 0028 53B9     		cbnz	r3, .L4
  75              		.loc 1 142 35 discriminator 1 view .LVU17
  76 002a 114B     		ldr	r3, .L7+12
  77 002c 1B68     		ldr	r3, [r3]
  78              		.loc 1 142 24 discriminator 1 view .LVU18
  79 002e 8342     		cmp	r3, r0
  80 0030 06D0     		beq	.L4
 143:Task/Task_Telemetry.c ****     {
 144:Task/Task_Telemetry.c ****         led_state = !led_state;
  81              		.loc 1 144 9 is_stmt 1 view .LVU19
  82 0032 104A     		ldr	r2, .L7+16
  83 0034 1378     		ldrb	r3, [r2]	@ zero_extendqisi2
  84 0036 83F00103 		eor	r3, r3, #1
  85              		.loc 1 144 19 is_stmt 0 view .LVU20
ARM GAS  C:\Users\8bit\AppData\Local\Temp\ccdsu2xB.s 			page 5


  86 003a 1370     		strb	r3, [r2]
 145:Task/Task_Telemetry.c ****         Lst_Rt = Rt;
  87              		.loc 1 145 9 is_stmt 1 view .LVU21
  88              		.loc 1 145 16 is_stmt 0 view .LVU22
  89 003c 0C4B     		ldr	r3, .L7+12
  90 003e 1860     		str	r0, [r3]
  91              	.L4:
 146:Task/Task_Telemetry.c ****     }
 147:Task/Task_Telemetry.c **** 
 148:Task/Task_Telemetry.c ****     DevLED.ctl(LedObj_tmp, led_state);
  92              		.loc 1 148 5 is_stmt 1 view .LVU23
  93              		.loc 1 148 11 is_stmt 0 view .LVU24
  94 0040 0D4B     		ldr	r3, .L7+20
  95 0042 5C68     		ldr	r4, [r3, #4]
  96              		.loc 1 148 5 view .LVU25
  97 0044 0B4B     		ldr	r3, .L7+16
  98 0046 1B78     		ldrb	r3, [r3]	@ zero_extendqisi2
  99 0048 04AA     		add	r2, sp, #16
 100 004a 12E90700 		ldmdb	r2, {r0, r1, r2}
 101              	.LVL4:
 102              		.loc 1 148 5 view .LVU26
 103 004e A047     		blx	r4
 104              	.LVL5:
 105              	.L1:
 149:Task/Task_Telemetry.c **** }
 106              		.loc 1 149 1 view .LVU27
 107 0050 04B0     		add	sp, sp, #16
 108              	.LCFI2:
 109              		.cfi_remember_state
 110              		.cfi_def_cfa_offset 8
 111              		@ sp needed
 112 0052 10BD     		pop	{r4, pc}
 113              	.LVL6:
 114              	.L6:
 115              	.LCFI3:
 116              		.cfi_restore_state
 137:Task/Task_Telemetry.c ****         return;
 117              		.loc 1 137 9 is_stmt 1 view .LVU28
 137:Task/Task_Telemetry.c ****         return;
 118              		.loc 1 137 15 is_stmt 0 view .LVU29
 119 0054 084B     		ldr	r3, .L7+20
 120 0056 5C68     		ldr	r4, [r3, #4]
 137:Task/Task_Telemetry.c ****         return;
 121              		.loc 1 137 9 view .LVU30
 122 0058 0123     		movs	r3, #1
 123 005a 04AA     		add	r2, sp, #16
 124 005c 12E90700 		ldmdb	r2, {r0, r1, r2}
 125 0060 A047     		blx	r4
 126              	.LVL7:
 138:Task/Task_Telemetry.c ****     }
 127              		.loc 1 138 9 is_stmt 1 view .LVU31
 128 0062 F5E7     		b	.L1
 129              	.L8:
 130              		.align	2
 131              	.L7:
 132 0064 00000000 		.word	Led2
 133 0068 00000000 		.word	SrvOsCommon
ARM GAS  C:\Users\8bit\AppData\Local\Temp\ccdsu2xB.s 			page 6


 134 006c 1F85EB51 		.word	1374389535
 135 0070 00000000 		.word	.LANCHOR0
 136 0074 00000000 		.word	.LANCHOR1
 137 0078 00000000 		.word	DevLED
 138              		.cfi_endproc
 139              	.LFE2075:
 141              		.section	.text.Telemetry_Enable_GimbalDeadZone,"ax",%progbits
 142              		.align	1
 143              		.syntax unified
 144              		.thumb
 145              		.thumb_func
 147              	Telemetry_Enable_GimbalDeadZone:
 148              	.LVL8:
 149              	.LFB2082:
 150:Task/Task_Telemetry.c **** 
 151:Task/Task_Telemetry.c **** void TaskTelemetry_Core(void const *arg)
 152:Task/Task_Telemetry.c **** {
 153:Task/Task_Telemetry.c ****     uint32_t sys_time = SrvOsCommon.get_os_ms();
 154:Task/Task_Telemetry.c ****     bool upgrade_state = false;
 155:Task/Task_Telemetry.c ****     Telemetry_RCSig_TypeDef RCSig;
 156:Task/Task_Telemetry.c ****     memset(&RCSig, 0, sizeof(Telemetry_RCSig_TypeDef));
 157:Task/Task_Telemetry.c **** 
 158:Task/Task_Telemetry.c ****     while(1)
 159:Task/Task_Telemetry.c ****     {
 160:Task/Task_Telemetry.c ****         if (SrvDataHub.get_upgrade_state(&upgrade_state) && !upgrade_state)
 161:Task/Task_Telemetry.c ****         {
 162:Task/Task_Telemetry.c ****             /* RC receiver process */
 163:Task/Task_Telemetry.c ****             RCSig = Telemetry_RC_Sig_Update(&Telemetry_Monitor.RC_Setting, &Receiver_Obj);
 164:Task/Task_Telemetry.c ****             Telemetry_ConvertRCData_To_ControlData(RCSig, DataPipe_DataObjAddr(Rc));
 165:Task/Task_Telemetry.c **** 
 166:Task/Task_Telemetry.c ****             if (Telemetry_BlackBox_OnChange(RCSig))
 167:Task/Task_Telemetry.c ****                 /* trigger blackbox */
 168:Task/Task_Telemetry.c ****                 TaskBlackBox_LogControl();
 169:Task/Task_Telemetry.c **** 
 170:Task/Task_Telemetry.c ****             /* pipe data out */
 171:Task/Task_Telemetry.c ****             DataPipe_SendTo(&Receiver_Smp_DataPipe, &Receiver_hub_DataPipe);
 172:Task/Task_Telemetry.c ****         }
 173:Task/Task_Telemetry.c ****         
 174:Task/Task_Telemetry.c ****         Telemetry_blink(RCSig.arm_state);
 175:Task/Task_Telemetry.c ****         SrvOsCommon.precise_delay(&sys_time, TaskTelemetry_Period);
 176:Task/Task_Telemetry.c ****     }
 177:Task/Task_Telemetry.c **** }
 178:Task/Task_Telemetry.c **** 
 179:Task/Task_Telemetry.c **** /************************************** telemetry receiver section ********************************
 180:Task/Task_Telemetry.c **** static bool Telemetry_RC_Sig_Init(Telemetry_RCInput_TypeDef *RC_Input_obj, SrvReceiverObj_TypeDef *
 181:Task/Task_Telemetry.c **** {
 182:Task/Task_Telemetry.c ****     uint8_t *port_ptr = NULL;
 183:Task/Task_Telemetry.c **** 
 184:Task/Task_Telemetry.c ****     memset(receiver_obj, 0, sizeof(SrvReceiverObj_TypeDef));
 185:Task/Task_Telemetry.c **** 
 186:Task/Task_Telemetry.c ****     receiver_obj->port_type = Receiver_Port_Serial;
 187:Task/Task_Telemetry.c ****     receiver_obj->Frame_type = Receiver_Type_CRSF;
 188:Task/Task_Telemetry.c **** 
 189:Task/Task_Telemetry.c ****     /* create receiver port */
 190:Task/Task_Telemetry.c ****     switch (receiver_obj->port_type)
 191:Task/Task_Telemetry.c ****     {
 192:Task/Task_Telemetry.c ****         case Receiver_Port_Serial:
ARM GAS  C:\Users\8bit\AppData\Local\Temp\ccdsu2xB.s 			page 7


 193:Task/Task_Telemetry.c ****             if (receiver_obj->Frame_type == Receiver_Type_CRSF)
 194:Task/Task_Telemetry.c ****             {
 195:Task/Task_Telemetry.c ****                 port_ptr = SrvReceiver.create_serial_obj(RECEIVER_PORT,
 196:Task/Task_Telemetry.c ****                                                         RECEIVER_CRSF_RX_DMA,
 197:Task/Task_Telemetry.c ****                                                         RECEIVER_CRSF_RX_DMA_STREAM,
 198:Task/Task_Telemetry.c ****                                                         RECEIVER_CRSF_TX_DMA,
 199:Task/Task_Telemetry.c ****                                                         RECEIVER_CRSF_TX_DMA_STREAM,
 200:Task/Task_Telemetry.c ****                                                         CRSF_PIN_SWAP,
 201:Task/Task_Telemetry.c ****                                                         CRSF_TX_PIN,
 202:Task/Task_Telemetry.c ****                                                         CRSF_RX_PIN);
 203:Task/Task_Telemetry.c ****             }
 204:Task/Task_Telemetry.c ****             else if (receiver_obj->Frame_type == Receiver_Type_Sbus)
 205:Task/Task_Telemetry.c ****             {
 206:Task/Task_Telemetry.c ****                 /* still in developing */
 207:Task/Task_Telemetry.c ****                 port_ptr = SrvReceiver.create_serial_obj(RECEIVER_PORT,
 208:Task/Task_Telemetry.c ****                                                         RECEIVER_SBUS_RX_DMA,
 209:Task/Task_Telemetry.c ****                                                         RECEIVER_SBUS_RX_DMA_STREAM,
 210:Task/Task_Telemetry.c ****                                                         RECEIVER_SBUS_TX_DMA,
 211:Task/Task_Telemetry.c ****                                                         RECEIVER_SBUS_TX_DMA_STREAM,
 212:Task/Task_Telemetry.c ****                                                         false,
 213:Task/Task_Telemetry.c ****                                                         SBUS_TX_PIN,
 214:Task/Task_Telemetry.c ****                                                         SBUS_RX_PIN);
 215:Task/Task_Telemetry.c **** 
 216:Task/Task_Telemetry.c ****                 /* set inverter pin */
 217:Task/Task_Telemetry.c ****             }
 218:Task/Task_Telemetry.c ****             break;
 219:Task/Task_Telemetry.c **** 
 220:Task/Task_Telemetry.c ****         case Receiver_Port_Spi:
 221:Task/Task_Telemetry.c ****             /* still in developing */
 222:Task/Task_Telemetry.c ****             port_ptr = SrvReceiver.create_spi_obj();
 223:Task/Task_Telemetry.c ****             if (port_ptr == NULL)
 224:Task/Task_Telemetry.c ****                 return false;
 225:Task/Task_Telemetry.c ****             break;
 226:Task/Task_Telemetry.c **** 
 227:Task/Task_Telemetry.c ****         default: return false;
 228:Task/Task_Telemetry.c ****     }
 229:Task/Task_Telemetry.c **** 
 230:Task/Task_Telemetry.c ****     /* init receiver object */
 231:Task/Task_Telemetry.c ****     RC_Input_obj->init_state = SrvReceiver.init(receiver_obj, port_ptr);
 232:Task/Task_Telemetry.c **** 
 233:Task/Task_Telemetry.c ****     RC_Input_obj->sig.arm_state = TELEMETRY_SET_ARM;
 234:Task/Task_Telemetry.c ****     RC_Input_obj->sig.buzz_state = false;
 235:Task/Task_Telemetry.c ****     RC_Input_obj->sig.control_mode = Telemetry_Control_Mode_Default;
 236:Task/Task_Telemetry.c ****     RC_Input_obj->sig.module_enable = TELEMETRY_DISABLE_ALL_MODULE;
 237:Task/Task_Telemetry.c **** 
 238:Task/Task_Telemetry.c ****     RC_Input_obj->init_state = SrvReceiver.get_scope(receiver_obj, \
 239:Task/Task_Telemetry.c ****                                                      &Telemetry_Monitor.receiver_value_max, \
 240:Task/Task_Telemetry.c ****                                                      &Telemetry_Monitor.receiver_value_mid, \
 241:Task/Task_Telemetry.c ****                                                      &Telemetry_Monitor.receiver_value_min);
 242:Task/Task_Telemetry.c **** 
 243:Task/Task_Telemetry.c ****     return RC_Input_obj->init_state;
 244:Task/Task_Telemetry.c **** }
 245:Task/Task_Telemetry.c **** 
 246:Task/Task_Telemetry.c **** static bool Telemetry_BindGimbalToChannel(Telemetry_RCInput_TypeDef *RC_Input_obj, uint16_t *data_o
 247:Task/Task_Telemetry.c **** {
 248:Task/Task_Telemetry.c ****     Telemetry_ChannelSet_TypeDef *channel_set = NULL;
 249:Task/Task_Telemetry.c **** 
ARM GAS  C:\Users\8bit\AppData\Local\Temp\ccdsu2xB.s 			page 8


 250:Task/Task_Telemetry.c ****     if ((!RC_Input_obj) ||
 251:Task/Task_Telemetry.c ****         (!data_obj) ||
 252:Task/Task_Telemetry.c ****         (min_range < Telemetry_Monitor.receiver_value_min) ||
 253:Task/Task_Telemetry.c ****         (max_range > Telemetry_Monitor.receiver_value_max))
 254:Task/Task_Telemetry.c ****         return false;
 255:Task/Task_Telemetry.c **** 
 256:Task/Task_Telemetry.c ****     channel_set = (Telemetry_ChannelSet_TypeDef *)SrvOsCommon.malloc(sizeof(Telemetry_ChannelSet_Ty
 257:Task/Task_Telemetry.c **** 
 258:Task/Task_Telemetry.c ****     if (!channel_set)
 259:Task/Task_Telemetry.c ****     {
 260:Task/Task_Telemetry.c ****         SrvOsCommon.free(channel_set);
 261:Task/Task_Telemetry.c ****         return false;
 262:Task/Task_Telemetry.c ****     }
 263:Task/Task_Telemetry.c **** 
 264:Task/Task_Telemetry.c ****     channel_set->channel_ptr = data_obj;
 265:Task/Task_Telemetry.c ****     channel_set->max = max_range;
 266:Task/Task_Telemetry.c ****     channel_set->mid = mid_val;
 267:Task/Task_Telemetry.c ****     channel_set->min = min_range;
 268:Task/Task_Telemetry.c ****     channel_set->center_deadzone_scope = 0;
 269:Task/Task_Telemetry.c ****     channel_set->enable_deadzone = false;
 270:Task/Task_Telemetry.c **** 
 271:Task/Task_Telemetry.c ****     switch (tag)
 272:Task/Task_Telemetry.c ****     {
 273:Task/Task_Telemetry.c ****         case Gimbal_Throttle:
 274:Task/Task_Telemetry.c ****         case Gimbal_Pitch:
 275:Task/Task_Telemetry.c ****         case Gimbal_Roll:
 276:Task/Task_Telemetry.c ****         case Gimbal_Yaw:
 277:Task/Task_Telemetry.c ****             RC_Input_obj->Gimbal[tag].combo_cnt = 1;
 278:Task/Task_Telemetry.c ****             List_ItemInit(&(RC_Input_obj->Gimbal[tag].combo_list), channel_set);
 279:Task/Task_Telemetry.c ****             return true;
 280:Task/Task_Telemetry.c **** 
 281:Task/Task_Telemetry.c ****         default:
 282:Task/Task_Telemetry.c ****             return false;
 283:Task/Task_Telemetry.c ****     }
 284:Task/Task_Telemetry.c **** }
 285:Task/Task_Telemetry.c **** 
 286:Task/Task_Telemetry.c **** static bool Telemetry_BindToggleToChannel(Telemetry_RCInput_TypeDef *RC_Input_obj, uint16_t *data_o
 287:Task/Task_Telemetry.c **** {
 288:Task/Task_Telemetry.c ****     Telemetry_ChannelSet_TypeDef *channel_set = NULL;
 289:Task/Task_Telemetry.c **** 
 290:Task/Task_Telemetry.c ****     if ((!RC_Input_obj) ||
 291:Task/Task_Telemetry.c ****         (!data_obj) ||
 292:Task/Task_Telemetry.c ****         (trigger_min_range < Telemetry_Monitor.receiver_value_min) ||
 293:Task/Task_Telemetry.c ****         (trigger_max_range > Telemetry_Monitor.receiver_value_max))
 294:Task/Task_Telemetry.c ****         return false;
 295:Task/Task_Telemetry.c **** 
 296:Task/Task_Telemetry.c ****     channel_set = (Telemetry_ChannelSet_TypeDef *)SrvOsCommon.malloc(sizeof(Telemetry_ChannelSet_Ty
 297:Task/Task_Telemetry.c **** 
 298:Task/Task_Telemetry.c ****     if (!channel_set)
 299:Task/Task_Telemetry.c ****     {
 300:Task/Task_Telemetry.c ****         SrvOsCommon.free(channel_set);
 301:Task/Task_Telemetry.c ****         return false;
 302:Task/Task_Telemetry.c ****     }
 303:Task/Task_Telemetry.c **** 
 304:Task/Task_Telemetry.c ****     channel_set->channel_ptr = data_obj;
 305:Task/Task_Telemetry.c ****     channel_set->max = trigger_max_range;
 306:Task/Task_Telemetry.c ****     channel_set->min = trigger_min_range;
ARM GAS  C:\Users\8bit\AppData\Local\Temp\ccdsu2xB.s 			page 9


 307:Task/Task_Telemetry.c **** 
 308:Task/Task_Telemetry.c ****     toggle->combo_cnt = 1;
 309:Task/Task_Telemetry.c ****     toggle->combo_list.mode = by_order;
 310:Task/Task_Telemetry.c ****     toggle->combo_list.compare_callback = NULL;
 311:Task/Task_Telemetry.c ****     List_ItemInit(&(toggle->combo_list), channel_set);
 312:Task/Task_Telemetry.c **** 
 313:Task/Task_Telemetry.c ****     return true;
 314:Task/Task_Telemetry.c **** }
 315:Task/Task_Telemetry.c **** 
 316:Task/Task_Telemetry.c **** static bool Telemetry_AddToggleCombo(Telemetry_RCInput_TypeDef *RC_Input_obj, uint16_t *data_obj, T
 317:Task/Task_Telemetry.c **** {
 318:Task/Task_Telemetry.c ****     Telemetry_ChannelSet_TypeDef *channel_set = NULL;
 319:Task/Task_Telemetry.c ****     item_obj *item = NULL;
 320:Task/Task_Telemetry.c **** 
 321:Task/Task_Telemetry.c ****     if ((!RC_Input_obj) ||
 322:Task/Task_Telemetry.c ****         (!data_obj) ||
 323:Task/Task_Telemetry.c ****         (trigger_min_range < Telemetry_Monitor.receiver_value_min) ||
 324:Task/Task_Telemetry.c ****         (trigger_max_range > Telemetry_Monitor.receiver_value_max))
 325:Task/Task_Telemetry.c ****         return false;
 326:Task/Task_Telemetry.c **** 
 327:Task/Task_Telemetry.c ****     channel_set = (Telemetry_ChannelSet_TypeDef *)SrvOsCommon.malloc(sizeof(Telemetry_ChannelSet_Ty
 328:Task/Task_Telemetry.c **** 
 329:Task/Task_Telemetry.c ****     if (!channel_set)
 330:Task/Task_Telemetry.c ****     {
 331:Task/Task_Telemetry.c ****         SrvOsCommon.free(channel_set);
 332:Task/Task_Telemetry.c ****         return false;
 333:Task/Task_Telemetry.c ****     }
 334:Task/Task_Telemetry.c **** 
 335:Task/Task_Telemetry.c ****     item = (item_obj *)SrvOsCommon.malloc(sizeof(item_obj));
 336:Task/Task_Telemetry.c **** 
 337:Task/Task_Telemetry.c ****     if (!item)
 338:Task/Task_Telemetry.c ****     {
 339:Task/Task_Telemetry.c ****         SrvOsCommon.free(item);
 340:Task/Task_Telemetry.c ****         return false;
 341:Task/Task_Telemetry.c ****     }
 342:Task/Task_Telemetry.c **** 
 343:Task/Task_Telemetry.c ****     channel_set->channel_ptr = data_obj;
 344:Task/Task_Telemetry.c ****     channel_set->max = trigger_max_range;
 345:Task/Task_Telemetry.c ****     channel_set->min = trigger_min_range;
 346:Task/Task_Telemetry.c **** 
 347:Task/Task_Telemetry.c ****     toggle->combo_cnt++;
 348:Task/Task_Telemetry.c ****     List_ItemInit(item, channel_set);
 349:Task/Task_Telemetry.c ****     List_Insert_Item(&toggle->combo_list, item);
 350:Task/Task_Telemetry.c **** 
 351:Task/Task_Telemetry.c ****     return true;
 352:Task/Task_Telemetry.c **** }
 353:Task/Task_Telemetry.c **** 
 354:Task/Task_Telemetry.c **** static Telemetry_ToggleData_TypeDef Telemetry_Toggle_Check(Telemetry_RCFuncMap_TypeDef *toggle)
 355:Task/Task_Telemetry.c **** {
 356:Task/Task_Telemetry.c ****     Telemetry_ToggleData_TypeDef toggle_val;
 357:Task/Task_Telemetry.c ****     uint8_t pos_reg = 0;
 358:Task/Task_Telemetry.c **** 
 359:Task/Task_Telemetry.c ****     toggle_val.pos = 0;
 360:Task/Task_Telemetry.c ****     toggle_val.cnt = 0;
 361:Task/Task_Telemetry.c ****     toggle_val.state = false;
 362:Task/Task_Telemetry.c ****     item_obj *nxt = &toggle->combo_list;
 363:Task/Task_Telemetry.c ****     Telemetry_ChannelSet_TypeDef *channel_data = NULL;
ARM GAS  C:\Users\8bit\AppData\Local\Temp\ccdsu2xB.s 			page 10


 364:Task/Task_Telemetry.c **** 
 365:Task/Task_Telemetry.c ****     if (!toggle)
 366:Task/Task_Telemetry.c ****         return toggle_val;
 367:Task/Task_Telemetry.c **** 
 368:Task/Task_Telemetry.c ****     /* do not use list traverse here */
 369:Task/Task_Telemetry.c ****     while (nxt)
 370:Task/Task_Telemetry.c ****     {
 371:Task/Task_Telemetry.c ****         channel_data = (Telemetry_ChannelSet_TypeDef *)nxt->data;
 372:Task/Task_Telemetry.c **** 
 373:Task/Task_Telemetry.c ****         if (!channel_data ||
 374:Task/Task_Telemetry.c ****             (((*(uint16_t *)channel_data->channel_ptr) <= channel_data->max) &&
 375:Task/Task_Telemetry.c ****              ((*(uint16_t *)channel_data->channel_ptr) >= channel_data->min)))
 376:Task/Task_Telemetry.c ****         {
 377:Task/Task_Telemetry.c ****             pos_reg |= 1 << toggle_val.pos;
 378:Task/Task_Telemetry.c ****             toggle_val.cnt++;
 379:Task/Task_Telemetry.c ****         }
 380:Task/Task_Telemetry.c **** 
 381:Task/Task_Telemetry.c ****         toggle_val.pos++;
 382:Task/Task_Telemetry.c ****         nxt = nxt->nxt;
 383:Task/Task_Telemetry.c ****     }
 384:Task/Task_Telemetry.c **** 
 385:Task/Task_Telemetry.c ****     /* get the number of the bit on set */
 386:Task/Task_Telemetry.c ****     if (Get_OnSet_Bit_Num(pos_reg) == 1)
 387:Task/Task_Telemetry.c ****     {
 388:Task/Task_Telemetry.c ****         /* only on bit been set */
 389:Task/Task_Telemetry.c ****         toggle_val.pos = Get_Bit_Index(pos_reg);
 390:Task/Task_Telemetry.c ****     }
 391:Task/Task_Telemetry.c ****     else
 392:Task/Task_Telemetry.c ****     {
 393:Task/Task_Telemetry.c ****         /* many bits been set on pos_reg */
 394:Task/Task_Telemetry.c ****         toggle_val.pos = 0;
 395:Task/Task_Telemetry.c ****     }
 396:Task/Task_Telemetry.c **** 
 397:Task/Task_Telemetry.c ****     if (toggle_val.cnt == toggle->combo_cnt)
 398:Task/Task_Telemetry.c ****         toggle_val.state = true;
 399:Task/Task_Telemetry.c **** 
 400:Task/Task_Telemetry.c ****     return toggle_val;
 401:Task/Task_Telemetry.c **** }
 402:Task/Task_Telemetry.c **** 
 403:Task/Task_Telemetry.c **** static void Telemetry_Enable_GimbalDeadZone(Telemetry_RCFuncMap_TypeDef *gimbal, uint16_t scope)
 404:Task/Task_Telemetry.c **** {
 150              		.loc 1 404 1 view -0
 151              		.cfi_startproc
 152              		@ args = 0, pretend = 0, frame = 0
 153              		@ frame_needed = 0, uses_anonymous_args = 0
 154              		@ link register save eliminated.
 405:Task/Task_Telemetry.c ****     Telemetry_ChannelSet_TypeDef *gimbal_channel = NULL;
 155              		.loc 1 405 5 view .LVU33
 406:Task/Task_Telemetry.c **** 
 407:Task/Task_Telemetry.c ****     if (gimbal)
 156              		.loc 1 407 5 view .LVU34
 157              		.loc 1 407 8 is_stmt 0 view .LVU35
 158 0000 08B1     		cbz	r0, .L9
 408:Task/Task_Telemetry.c ****     {
 409:Task/Task_Telemetry.c ****         gimbal_channel = gimbal->combo_list.data;
 159              		.loc 1 409 9 is_stmt 1 view .LVU36
 160              		.loc 1 409 24 is_stmt 0 view .LVU37
ARM GAS  C:\Users\8bit\AppData\Local\Temp\ccdsu2xB.s 			page 11


 161 0002 0369     		ldr	r3, [r0, #16]
 162              	.LVL9:
 410:Task/Task_Telemetry.c **** 
 411:Task/Task_Telemetry.c ****         if (gimbal_channel)
 163              		.loc 1 411 9 is_stmt 1 view .LVU38
 164              		.loc 1 411 12 is_stmt 0 view .LVU39
 165 0004 03B1     		cbz	r3, .L11
 166              	.LVL10:
 167              	.L9:
 412:Task/Task_Telemetry.c ****             return;
 413:Task/Task_Telemetry.c **** 
 414:Task/Task_Telemetry.c ****         gimbal_channel->center_deadzone_scope = scope;
 415:Task/Task_Telemetry.c ****         gimbal_channel->enable_deadzone = true;
 416:Task/Task_Telemetry.c ****     }
 417:Task/Task_Telemetry.c **** }
 168              		.loc 1 417 1 view .LVU40
 169 0006 7047     		bx	lr
 170              	.LVL11:
 171              	.L11:
 414:Task/Task_Telemetry.c ****         gimbal_channel->enable_deadzone = true;
 172              		.loc 1 414 9 is_stmt 1 view .LVU41
 414:Task/Task_Telemetry.c ****         gimbal_channel->enable_deadzone = true;
 173              		.loc 1 414 47 is_stmt 0 view .LVU42
 174 0008 5980     		strh	r1, [r3, #2]	@ movhi
 415:Task/Task_Telemetry.c ****     }
 175              		.loc 1 415 9 is_stmt 1 view .LVU43
 415:Task/Task_Telemetry.c ****     }
 176              		.loc 1 415 41 is_stmt 0 view .LVU44
 177 000a 0122     		movs	r2, #1
 178 000c 1A70     		strb	r2, [r3]
 179 000e FAE7     		b	.L9
 180              		.cfi_endproc
 181              	.LFE2082:
 183              		.section	.text.Telemetry_GimbalToPercent,"ax",%progbits
 184              		.align	1
 185              		.syntax unified
 186              		.thumb
 187              		.thumb_func
 189              	Telemetry_GimbalToPercent:
 190              	.LVL12:
 191              	.LFB2084:
 418:Task/Task_Telemetry.c **** 
 419:Task/Task_Telemetry.c **** static uint16_t Telemetry_Check_Gimbal(Telemetry_RCFuncMap_TypeDef *gimbal)
 420:Task/Task_Telemetry.c **** {
 421:Task/Task_Telemetry.c ****     Telemetry_ChannelSet_TypeDef *gimbal_channel = NULL;
 422:Task/Task_Telemetry.c **** 
 423:Task/Task_Telemetry.c ****     if (gimbal == NULL)
 424:Task/Task_Telemetry.c ****         return TELEMETRY_RC_CHANNEL_RANGE_MIN;
 425:Task/Task_Telemetry.c **** 
 426:Task/Task_Telemetry.c ****     gimbal_channel = gimbal->combo_list.data;
 427:Task/Task_Telemetry.c **** 
 428:Task/Task_Telemetry.c ****     if ((gimbal_channel == NULL) || (gimbal_channel->min >= gimbal_channel->max))
 429:Task/Task_Telemetry.c ****         return TELEMETRY_RC_CHANNEL_RANGE_MIN;
 430:Task/Task_Telemetry.c **** 
 431:Task/Task_Telemetry.c ****     if (*gimbal_channel->channel_ptr < gimbal_channel->min)
 432:Task/Task_Telemetry.c ****         return gimbal_channel->min;
 433:Task/Task_Telemetry.c **** 
ARM GAS  C:\Users\8bit\AppData\Local\Temp\ccdsu2xB.s 			page 12


 434:Task/Task_Telemetry.c ****     if (*gimbal_channel->channel_ptr > gimbal_channel->max)
 435:Task/Task_Telemetry.c ****         return gimbal_channel->max;
 436:Task/Task_Telemetry.c **** 
 437:Task/Task_Telemetry.c ****     return *gimbal_channel->channel_ptr;
 438:Task/Task_Telemetry.c **** }
 439:Task/Task_Telemetry.c **** 
 440:Task/Task_Telemetry.c **** static uint16_t Telemetry_GimbalToPercent(Telemetry_RCFuncMap_TypeDef *gimbal)
 441:Task/Task_Telemetry.c **** {
 192              		.loc 1 441 1 is_stmt 1 view -0
 193              		.cfi_startproc
 194              		@ args = 0, pretend = 0, frame = 0
 195              		@ frame_needed = 0, uses_anonymous_args = 0
 442:Task/Task_Telemetry.c ****     Telemetry_ChannelSet_TypeDef *gimbal_channel = NULL;
 196              		.loc 1 442 5 view .LVU46
 443:Task/Task_Telemetry.c ****     int16_t pos_range = 0;
 197              		.loc 1 443 5 view .LVU47
 444:Task/Task_Telemetry.c ****     int16_t neg_range = 0;
 198              		.loc 1 444 5 view .LVU48
 445:Task/Task_Telemetry.c ****     float percent = 50.0f;
 199              		.loc 1 445 5 view .LVU49
 446:Task/Task_Telemetry.c **** 
 447:Task/Task_Telemetry.c ****     if (gimbal == NULL)
 200              		.loc 1 447 5 view .LVU50
 201              		.loc 1 447 8 is_stmt 0 view .LVU51
 202 0000 0028     		cmp	r0, #0
 203 0002 66D0     		beq	.L17
 448:Task/Task_Telemetry.c ****         return 0;
 449:Task/Task_Telemetry.c **** 
 450:Task/Task_Telemetry.c ****     gimbal_channel = gimbal->combo_list.data;
 204              		.loc 1 450 5 is_stmt 1 view .LVU52
 205              		.loc 1 450 20 is_stmt 0 view .LVU53
 206 0004 0269     		ldr	r2, [r0, #16]
 207              	.LVL13:
 451:Task/Task_Telemetry.c **** 
 452:Task/Task_Telemetry.c ****     if ((gimbal_channel == NULL) || (gimbal_channel->min >= gimbal_channel->max))
 208              		.loc 1 452 5 is_stmt 1 view .LVU54
 209              		.loc 1 452 8 is_stmt 0 view .LVU55
 210 0006 002A     		cmp	r2, #0
 211 0008 65D0     		beq	.L18
 212              		.loc 1 452 52 discriminator 1 view .LVU56
 213 000a B2F804C0 		ldrh	ip, [r2, #4]
 214              		.loc 1 452 75 discriminator 1 view .LVU57
 215 000e 1389     		ldrh	r3, [r2, #8]
 216              		.loc 1 452 34 discriminator 1 view .LVU58
 217 0010 9C45     		cmp	ip, r3
 218 0012 62D2     		bcs	.L19
 441:Task/Task_Telemetry.c ****     Telemetry_ChannelSet_TypeDef *gimbal_channel = NULL;
 219              		.loc 1 441 1 view .LVU59
 220 0014 10B5     		push	{r4, lr}
 221              	.LCFI4:
 222              		.cfi_def_cfa_offset 8
 223              		.cfi_offset 4, -8
 224              		.cfi_offset 14, -4
 453:Task/Task_Telemetry.c ****         return 0;
 454:Task/Task_Telemetry.c **** 
 455:Task/Task_Telemetry.c ****     if (gimbal_channel->enable_deadzone)
 225              		.loc 1 455 5 is_stmt 1 view .LVU60
ARM GAS  C:\Users\8bit\AppData\Local\Temp\ccdsu2xB.s 			page 13


 226              		.loc 1 455 23 is_stmt 0 view .LVU61
 227 0016 1178     		ldrb	r1, [r2]	@ zero_extendqisi2
 228              		.loc 1 455 8 view .LVU62
 229 0018 51B1     		cbz	r1, .L14
 456:Task/Task_Telemetry.c ****     {
 457:Task/Task_Telemetry.c ****         if (*gimbal_channel->channel_ptr <= (gimbal_channel->mid + gimbal_channel->center_deadzone_
 230              		.loc 1 457 9 is_stmt 1 view .LVU63
 231              		.loc 1 457 28 is_stmt 0 view .LVU64
 232 001a D168     		ldr	r1, [r2, #12]
 233              		.loc 1 457 13 view .LVU65
 234 001c 0888     		ldrh	r0, [r1]
 235              	.LVL14:
 236              		.loc 1 457 60 view .LVU66
 237 001e D188     		ldrh	r1, [r2, #6]
 238              		.loc 1 457 82 view .LVU67
 239 0020 5488     		ldrh	r4, [r2, #2]
 240              		.loc 1 457 66 view .LVU68
 241 0022 01EB040E 		add	lr, r1, r4
 242              		.loc 1 457 12 view .LVU69
 243 0026 7045     		cmp	r0, lr
 244 0028 02DC     		bgt	.L14
 458:Task/Task_Telemetry.c ****             (*gimbal_channel->channel_ptr >= (gimbal_channel->mid - gimbal_channel->center_deadzone
 245              		.loc 1 458 67 discriminator 1 view .LVU70
 246 002a 091B     		subs	r1, r1, r4
 457:Task/Task_Telemetry.c ****             (*gimbal_channel->channel_ptr >= (gimbal_channel->mid - gimbal_channel->center_deadzone
 247              		.loc 1 457 107 discriminator 1 view .LVU71
 248 002c 8842     		cmp	r0, r1
 249 002e 56DA     		bge	.L20
 250              	.L14:
 459:Task/Task_Telemetry.c ****             return 50;
 460:Task/Task_Telemetry.c ****     }
 461:Task/Task_Telemetry.c **** 
 462:Task/Task_Telemetry.c ****     pos_range = (gimbal_channel->max - gimbal_channel->mid - gimbal_channel->center_deadzone_scope)
 251              		.loc 1 462 5 is_stmt 1 view .LVU72
 252              		.loc 1 462 54 is_stmt 0 view .LVU73
 253 0030 D088     		ldrh	r0, [r2, #6]
 254              		.loc 1 462 38 view .LVU74
 255 0032 1B1A     		subs	r3, r3, r0
 256 0034 9BB2     		uxth	r3, r3
 257              		.loc 1 462 76 view .LVU75
 258 0036 B2F802E0 		ldrh	lr, [r2, #2]
 259              		.loc 1 462 60 view .LVU76
 260 003a A3EB0E03 		sub	r3, r3, lr
 261              		.loc 1 462 15 view .LVU77
 262 003e 1BB2     		sxth	r3, r3
 263              	.LVL15:
 463:Task/Task_Telemetry.c ****     neg_range = (gimbal_channel->mid - gimbal_channel->min - gimbal_channel->center_deadzone_scope)
 264              		.loc 1 463 5 is_stmt 1 view .LVU78
 265              		.loc 1 463 38 is_stmt 0 view .LVU79
 266 0040 A0EB0C01 		sub	r1, r0, ip
 267 0044 89B2     		uxth	r1, r1
 268              		.loc 1 463 60 view .LVU80
 269 0046 A1EB0E01 		sub	r1, r1, lr
 270              		.loc 1 463 15 view .LVU81
 271 004a 09B2     		sxth	r1, r1
 272              	.LVL16:
 464:Task/Task_Telemetry.c **** 
ARM GAS  C:\Users\8bit\AppData\Local\Temp\ccdsu2xB.s 			page 14


 465:Task/Task_Telemetry.c ****     if((*gimbal_channel->channel_ptr - (gimbal_channel->mid + gimbal_channel->center_deadzone_scope
 273              		.loc 1 465 5 is_stmt 1 view .LVU82
 274              		.loc 1 465 24 is_stmt 0 view .LVU83
 275 004c D268     		ldr	r2, [r2, #12]
 276              	.LVL17:
 277              		.loc 1 465 9 view .LVU84
 278 004e 1288     		ldrh	r2, [r2]
 279              		.loc 1 465 61 view .LVU85
 280 0050 00EB0E04 		add	r4, r0, lr
 281              		.loc 1 465 38 view .LVU86
 282 0054 141B     		subs	r4, r2, r4
 283              		.loc 1 465 7 view .LVU87
 284 0056 002C     		cmp	r4, #0
 285 0058 1EDD     		ble	.L15
 466:Task/Task_Telemetry.c ****     {
 467:Task/Task_Telemetry.c ****         percent = (float)(*gimbal_channel->channel_ptr - gimbal_channel->center_deadzone_scope - gi
 286              		.loc 1 467 9 is_stmt 1 view .LVU88
 287              		.loc 1 467 56 is_stmt 0 view .LVU89
 288 005a A2EB0E02 		sub	r2, r2, lr
 289              		.loc 1 467 96 view .LVU90
 290 005e 121A     		subs	r2, r2, r0
 291              		.loc 1 467 19 view .LVU91
 292 0060 07EE902A 		vmov	s15, r2	@ int
 293 0064 F8EEE76A 		vcvt.f32.s32	s13, s15
 294              		.loc 1 467 119 view .LVU92
 295 0068 07EE903A 		vmov	s15, r3	@ int
 296 006c B8EEE77A 		vcvt.f32.s32	s14, s15
 297              		.loc 1 467 17 view .LVU93
 298 0070 C6EE877A 		vdiv.f32	s15, s13, s14
 299              	.LVL18:
 468:Task/Task_Telemetry.c ****         percent = (percent / 2) * 100 + 50;
 300              		.loc 1 468 9 is_stmt 1 view .LVU94
 301              		.loc 1 468 28 is_stmt 0 view .LVU95
 302 0074 B6EE007A 		vmov.f32	s14, #5.0e-1
 303 0078 67EE877A 		vmul.f32	s15, s15, s14
 304              	.LVL19:
 305              		.loc 1 468 33 view .LVU96
 306 007c 9FED197A 		vldr.32	s14, .L26
 307 0080 67EE877A 		vmul.f32	s15, s15, s14
 308              		.loc 1 468 17 view .LVU97
 309 0084 9FED187A 		vldr.32	s14, .L26+4
 310 0088 77EE877A 		vadd.f32	s15, s15, s14
 311              	.LVL20:
 312              	.L16:
 469:Task/Task_Telemetry.c ****     }
 470:Task/Task_Telemetry.c ****     else if((gimbal_channel->mid - gimbal_channel->center_deadzone_scope) - *gimbal_channel->channe
 471:Task/Task_Telemetry.c ****     {
 472:Task/Task_Telemetry.c ****         percent = (float)(*gimbal_channel->channel_ptr - gimbal_channel->min) / neg_range;
 473:Task/Task_Telemetry.c ****         percent = (percent / 2) * 100;
 474:Task/Task_Telemetry.c ****     }
 475:Task/Task_Telemetry.c ****     
 476:Task/Task_Telemetry.c ****     return (uint16_t)percent;
 313              		.loc 1 476 5 is_stmt 1 view .LVU98
 314              		.loc 1 476 12 is_stmt 0 view .LVU99
 315 008c FCEEE77A 		vcvt.u32.f32	s15, s15
 316              	.LVL21:
 317              		.loc 1 476 12 view .LVU100
ARM GAS  C:\Users\8bit\AppData\Local\Temp\ccdsu2xB.s 			page 15


 318 0090 17EE903A 		vmov	r3, s15	@ int
 319              	.LVL22:
 320              		.loc 1 476 12 view .LVU101
 321 0094 98B2     		uxth	r0, r3
 322              	.LVL23:
 323              	.L13:
 477:Task/Task_Telemetry.c **** }
 324              		.loc 1 477 1 view .LVU102
 325 0096 10BD     		pop	{r4, pc}
 326              	.LVL24:
 327              	.L15:
 470:Task/Task_Telemetry.c ****     {
 328              		.loc 1 470 10 is_stmt 1 view .LVU103
 470:Task/Task_Telemetry.c ****     {
 329              		.loc 1 470 34 is_stmt 0 view .LVU104
 330 0098 A0EB0E00 		sub	r0, r0, lr
 470:Task/Task_Telemetry.c ****     {
 331              		.loc 1 470 75 view .LVU105
 332 009c 801A     		subs	r0, r0, r2
 470:Task/Task_Telemetry.c ****     {
 333              		.loc 1 470 12 view .LVU106
 334 009e 0028     		cmp	r0, #0
 335 00a0 14DD     		ble	.L21
 472:Task/Task_Telemetry.c ****         percent = (percent / 2) * 100;
 336              		.loc 1 472 9 is_stmt 1 view .LVU107
 472:Task/Task_Telemetry.c ****         percent = (percent / 2) * 100;
 337              		.loc 1 472 56 is_stmt 0 view .LVU108
 338 00a2 A2EB0C02 		sub	r2, r2, ip
 472:Task/Task_Telemetry.c ****         percent = (percent / 2) * 100;
 339              		.loc 1 472 19 view .LVU109
 340 00a6 07EE902A 		vmov	s15, r2	@ int
 341 00aa B8EEE77A 		vcvt.f32.s32	s14, s15
 472:Task/Task_Telemetry.c ****         percent = (percent / 2) * 100;
 342              		.loc 1 472 79 view .LVU110
 343 00ae 07EE901A 		vmov	s15, r1	@ int
 344 00b2 F8EEE76A 		vcvt.f32.s32	s13, s15
 472:Task/Task_Telemetry.c ****         percent = (percent / 2) * 100;
 345              		.loc 1 472 17 view .LVU111
 346 00b6 C7EE267A 		vdiv.f32	s15, s14, s13
 347              	.LVL25:
 473:Task/Task_Telemetry.c ****     }
 348              		.loc 1 473 9 is_stmt 1 view .LVU112
 473:Task/Task_Telemetry.c ****     }
 349              		.loc 1 473 28 is_stmt 0 view .LVU113
 350 00ba B6EE007A 		vmov.f32	s14, #5.0e-1
 351 00be 67EE877A 		vmul.f32	s15, s15, s14
 352              	.LVL26:
 473:Task/Task_Telemetry.c ****     }
 353              		.loc 1 473 17 view .LVU114
 354 00c2 9FED087A 		vldr.32	s14, .L26
 355 00c6 67EE877A 		vmul.f32	s15, s15, s14
 356              	.LVL27:
 473:Task/Task_Telemetry.c ****     }
 357              		.loc 1 473 17 view .LVU115
 358 00ca DFE7     		b	.L16
 359              	.LVL28:
 360              	.L21:
ARM GAS  C:\Users\8bit\AppData\Local\Temp\ccdsu2xB.s 			page 16


 445:Task/Task_Telemetry.c **** 
 361              		.loc 1 445 11 view .LVU116
 362 00cc DFED067A 		vldr.32	s15, .L26+4
 363 00d0 DCE7     		b	.L16
 364              	.LVL29:
 365              	.L17:
 366              	.LCFI5:
 367              		.cfi_def_cfa_offset 0
 368              		.cfi_restore 4
 369              		.cfi_restore 14
 448:Task/Task_Telemetry.c **** 
 370              		.loc 1 448 16 view .LVU117
 371 00d2 0020     		movs	r0, #0
 372              	.LVL30:
 448:Task/Task_Telemetry.c **** 
 373              		.loc 1 448 16 view .LVU118
 374 00d4 7047     		bx	lr
 375              	.LVL31:
 376              	.L18:
 453:Task/Task_Telemetry.c **** 
 377              		.loc 1 453 16 view .LVU119
 378 00d6 0020     		movs	r0, #0
 379              	.LVL32:
 453:Task/Task_Telemetry.c **** 
 380              		.loc 1 453 16 view .LVU120
 381 00d8 7047     		bx	lr
 382              	.LVL33:
 383              	.L19:
 453:Task/Task_Telemetry.c **** 
 384              		.loc 1 453 16 view .LVU121
 385 00da 0020     		movs	r0, #0
 386              	.LVL34:
 387              		.loc 1 477 1 view .LVU122
 388 00dc 7047     		bx	lr
 389              	.L20:
 390              	.LCFI6:
 391              		.cfi_def_cfa_offset 8
 392              		.cfi_offset 4, -8
 393              		.cfi_offset 14, -4
 459:Task/Task_Telemetry.c ****     }
 394              		.loc 1 459 20 view .LVU123
 395 00de 3220     		movs	r0, #50
 396 00e0 D9E7     		b	.L13
 397              	.L27:
 398 00e2 00BF     		.align	2
 399              	.L26:
 400 00e4 0000C842 		.word	1120403456
 401 00e8 00004842 		.word	1112014848
 402              		.cfi_endproc
 403              	.LFE2084:
 405              		.section	.text.Telemetry_SplitScopeValue_Into,"ax",%progbits
 406              		.align	1
 407              		.syntax unified
 408              		.thumb
 409              		.thumb_func
 411              	Telemetry_SplitScopeValue_Into:
 412              	.LVL35:
ARM GAS  C:\Users\8bit\AppData\Local\Temp\ccdsu2xB.s 			page 17


 413              	.LFB2086:
 478:Task/Task_Telemetry.c **** 
 479:Task/Task_Telemetry.c **** static Telemetry_RCSig_TypeDef Telemetry_RC_Sig_Update(Telemetry_RCInput_TypeDef *RC_Input_obj, Srv
 480:Task/Task_Telemetry.c **** {
 481:Task/Task_Telemetry.c ****     SrvReceiverData_TypeDef receiver_data;
 482:Task/Task_Telemetry.c ****     Telemetry_RCSig_TypeDef sig_tmp;
 483:Task/Task_Telemetry.c ****     static bool throttle_warning = false;
 484:Task/Task_Telemetry.c **** 
 485:Task/Task_Telemetry.c ****     memset(&receiver_data, 0, sizeof(receiver_data));
 486:Task/Task_Telemetry.c ****     memset(&sig_tmp, 0, sizeof(sig_tmp));
 487:Task/Task_Telemetry.c **** 
 488:Task/Task_Telemetry.c ****     if ((!RC_Input_obj) || (!receiver_obj) || (!RC_Input_obj->init_state))
 489:Task/Task_Telemetry.c ****         return sig_tmp;
 490:Task/Task_Telemetry.c **** 
 491:Task/Task_Telemetry.c ****     receiver_data = SrvReceiver.get(receiver_obj);
 492:Task/Task_Telemetry.c **** 
 493:Task/Task_Telemetry.c ****     if (!receiver_data.failsafe)
 494:Task/Task_Telemetry.c ****     {
 495:Task/Task_Telemetry.c ****         RC_Input_obj->sig.rssi = receiver_data.rssi;
 496:Task/Task_Telemetry.c ****         RC_Input_obj->sig.link_quality = receiver_data.link_quality;
 497:Task/Task_Telemetry.c ****         RC_Input_obj->sig.time_stamp = RC_Input_obj->update_rt;
 498:Task/Task_Telemetry.c **** 
 499:Task/Task_Telemetry.c ****         RC_Input_obj->sig.channel_sum = Receiver_Obj.channel_num;
 500:Task/Task_Telemetry.c **** 
 501:Task/Task_Telemetry.c ****         /* get gimbal channel */
 502:Task/Task_Telemetry.c ****         for (uint8_t i = 0; i < receiver_obj->channel_num; i++)
 503:Task/Task_Telemetry.c ****         {
 504:Task/Task_Telemetry.c ****             if (i < Gimbal_Sum)
 505:Task/Task_Telemetry.c ****             {
 506:Task/Task_Telemetry.c ****                 Telemetry_Check_Gimbal(&RC_Input_obj->Gimbal[i]);
 507:Task/Task_Telemetry.c ****                 RC_Input_obj->sig.gimbal_percent[i] = Telemetry_GimbalToPercent(&RC_Input_obj->Gimb
 508:Task/Task_Telemetry.c ****             }
 509:Task/Task_Telemetry.c **** 
 510:Task/Task_Telemetry.c ****             RC_Input_obj->sig.channel[i] = receiver_data.val_list[i];
 511:Task/Task_Telemetry.c ****         }
 512:Task/Task_Telemetry.c **** 
 513:Task/Task_Telemetry.c ****         /* check blackbox toggle */
 514:Task/Task_Telemetry.c ****         RC_Input_obj->sig.blackbox = Telemetry_Toggle_Check(&RC_Input_obj->Blackbox_Toggle).state;
 515:Task/Task_Telemetry.c **** 
 516:Task/Task_Telemetry.c ****         /* check buzzer toggle */
 517:Task/Task_Telemetry.c ****         RC_Input_obj->sig.buzz_state = Telemetry_Toggle_Check(&RC_Input_obj->Buzzer_Toggle).state;
 518:Task/Task_Telemetry.c **** 
 519:Task/Task_Telemetry.c ****         /* check arm & disarm */
 520:Task/Task_Telemetry.c ****         RC_Input_obj->sig.arm_state = Telemetry_Toggle_Check(&RC_Input_obj->ARM_Toggle).state;
 521:Task/Task_Telemetry.c **** 
 522:Task/Task_Telemetry.c ****         /* check control mode */
 523:Task/Task_Telemetry.c ****         RC_Input_obj->sig.control_mode = Telemetry_Toggle_Check(&RC_Input_obj->ControlMode_Toggle).
 524:Task/Task_Telemetry.c **** 
 525:Task/Task_Telemetry.c ****         /* check control mode inedx range */
 526:Task/Task_Telemetry.c ****         if ((RC_Input_obj->sig.control_mode > Telemetry_Control_Mode_AUTO) || (RC_Input_obj->sig.co
 527:Task/Task_Telemetry.c ****             RC_Input_obj->sig.control_mode = Telemetry_Control_Mode_Default;
 528:Task/Task_Telemetry.c **** 
 529:Task/Task_Telemetry.c ****         if (RC_Input_obj->sig.arm_state == TELEMETRY_SET_ARM)
 530:Task/Task_Telemetry.c ****         {
 531:Task/Task_Telemetry.c ****             throttle_warning = false;
 532:Task/Task_Telemetry.c **** 
 533:Task/Task_Telemetry.c ****             /* check calibrate */
ARM GAS  C:\Users\8bit\AppData\Local\Temp\ccdsu2xB.s 			page 18


 534:Task/Task_Telemetry.c ****             RC_Input_obj->sig.cali_state = Telemetry_Toggle_Check(&RC_Input_obj->CLB_Toggle).state;
 535:Task/Task_Telemetry.c ****             
 536:Task/Task_Telemetry.c ****             /* check flip over toggle */
 537:Task/Task_Telemetry.c ****             RC_Input_obj->sig.flip_over = Telemetry_Toggle_Check(&RC_Input_obj->FlipOver_Toggle).st
 538:Task/Task_Telemetry.c ****         }
 539:Task/Task_Telemetry.c ****         else
 540:Task/Task_Telemetry.c ****         {
 541:Task/Task_Telemetry.c ****             RC_Input_obj->sig.cali_state = false;
 542:Task/Task_Telemetry.c ****             RC_Input_obj->sig.flip_over = false;
 543:Task/Task_Telemetry.c ****         }
 544:Task/Task_Telemetry.c **** 
 545:Task/Task_Telemetry.c ****         RC_Input_obj->update_rt = receiver_data.time_stamp;
 546:Task/Task_Telemetry.c ****         RC_Input_obj->sig.update_interval = RC_Input_obj->update_rt - RC_Input_obj->lst_update_rt;
 547:Task/Task_Telemetry.c **** 
 548:Task/Task_Telemetry.c ****         RC_Input_obj->lst_update_rt = RC_Input_obj->update_rt;
 549:Task/Task_Telemetry.c ****         RC_Input_obj->sig.failsafe = false;
 550:Task/Task_Telemetry.c **** 
 551:Task/Task_Telemetry.c ****         /* is recover form failsafe */
 552:Task/Task_Telemetry.c ****         if (Telemetry_Monitor.recover_failsafe)
 553:Task/Task_Telemetry.c ****         {
 554:Task/Task_Telemetry.c ****             /* if current arm state equal to before fall into failsafe's
 555:Task/Task_Telemetry.c ****              * then sig is fine or else the arm signal has been change from recovered */
 556:Task/Task_Telemetry.c ****             if ((Telemetry_Monitor.lst_arm_state == TELEMETRY_SET_ARM) && (RC_Input_obj->sig.arm_st
 557:Task/Task_Telemetry.c ****             {
 558:Task/Task_Telemetry.c ****                 RC_Input_obj->sig.failsafe = true;
 559:Task/Task_Telemetry.c ****                 return sig_tmp;
 560:Task/Task_Telemetry.c ****             }
 561:Task/Task_Telemetry.c **** 
 562:Task/Task_Telemetry.c ****             Telemetry_Monitor.recover_failsafe = false;
 563:Task/Task_Telemetry.c ****         }
 564:Task/Task_Telemetry.c ****     
 565:Task/Task_Telemetry.c ****         /* when power on and arm toggle on remote is set on disarm we force it to arm */
 566:Task/Task_Telemetry.c ****         if(Telemetry_Monitor.poweron_arm_check)
 567:Task/Task_Telemetry.c ****         {
 568:Task/Task_Telemetry.c ****             if(RC_Input_obj->sig.arm_state == TELEMETRY_SET_DISARM)
 569:Task/Task_Telemetry.c ****             {
 570:Task/Task_Telemetry.c ****                 RC_Input_obj->sig.arm_state = TELEMETRY_SET_ARM;
 571:Task/Task_Telemetry.c ****             }
 572:Task/Task_Telemetry.c ****             else
 573:Task/Task_Telemetry.c ****             {
 574:Task/Task_Telemetry.c ****                 Telemetry_Monitor.poweron_arm_check = false;
 575:Task/Task_Telemetry.c ****             }
 576:Task/Task_Telemetry.c ****         }
 577:Task/Task_Telemetry.c **** 
 578:Task/Task_Telemetry.c ****         /* if toggle switch into disarm but throttle currently is upper then 5% percent input
 579:Task/Task_Telemetry.c ****          * force throttle value to 0
 580:Task/Task_Telemetry.c ****          * only when physical throttle gimbal actually down to lowest so we update lst_arm_state */
 581:Task/Task_Telemetry.c ****         if ((RC_Input_obj->sig.arm_state == TELEMETRY_SET_DISARM) && (Telemetry_Monitor.lst_arm_sta
 582:Task/Task_Telemetry.c ****         {
 583:Task/Task_Telemetry.c ****             if (RC_Input_obj->sig.gimbal_percent[Gimbal_Throttle] >= TELEMETRY_RC_THROTTLE_PERCENT_
 584:Task/Task_Telemetry.c ****             {
 585:Task/Task_Telemetry.c ****                 RC_Input_obj->sig.gimbal_percent[Gimbal_Throttle] = 0;
 586:Task/Task_Telemetry.c ****                 throttle_warning = true;
 587:Task/Task_Telemetry.c ****             }
 588:Task/Task_Telemetry.c ****         }
 589:Task/Task_Telemetry.c **** 
 590:Task/Task_Telemetry.c ****         if (throttle_warning)
ARM GAS  C:\Users\8bit\AppData\Local\Temp\ccdsu2xB.s 			page 19


 591:Task/Task_Telemetry.c ****             RC_Input_obj->sig.arm_state = TELEMETRY_SET_ARM;
 592:Task/Task_Telemetry.c **** 
 593:Task/Task_Telemetry.c ****         Telemetry_Monitor.lst_arm_state = RC_Input_obj->sig.arm_state;
 594:Task/Task_Telemetry.c ****     }
 595:Task/Task_Telemetry.c ****     else
 596:Task/Task_Telemetry.c ****     {
 597:Task/Task_Telemetry.c ****         RC_Input_obj->sig.failsafe = true;
 598:Task/Task_Telemetry.c ****         RC_Input_obj->sig.arm_state = TELEMETRY_SET_ARM;
 599:Task/Task_Telemetry.c ****         RC_Input_obj->sig.buzz_state = false;
 600:Task/Task_Telemetry.c ****         // RC_Input_obj->sig.control_mode = Telemetry_Control_Mode_Default;
 601:Task/Task_Telemetry.c **** 
 602:Task/Task_Telemetry.c ****         for (uint8_t i = Gimbal_Throttle; i < Gimbal_Sum; i++)
 603:Task/Task_Telemetry.c ****             RC_Input_obj->sig.gimbal_percent[i] = 0;
 604:Task/Task_Telemetry.c **** 
 605:Task/Task_Telemetry.c ****         Telemetry_Monitor.recover_failsafe = true;
 606:Task/Task_Telemetry.c ****     }
 607:Task/Task_Telemetry.c **** 
 608:Task/Task_Telemetry.c ****     memcpy(&sig_tmp, &RC_Input_obj->sig, sizeof(Telemetry_RCSig_TypeDef));
 609:Task/Task_Telemetry.c **** 
 610:Task/Task_Telemetry.c ****     return sig_tmp;
 611:Task/Task_Telemetry.c **** }
 612:Task/Task_Telemetry.c **** 
 613:Task/Task_Telemetry.c **** static uint16_t Telemetry_SplitScopeValue_Into(uint8_t pcs)
 614:Task/Task_Telemetry.c **** {
 414              		.loc 1 614 1 is_stmt 1 view -0
 415              		.cfi_startproc
 416              		@ args = 0, pretend = 0, frame = 0
 417              		@ frame_needed = 0, uses_anonymous_args = 0
 418              		@ link register save eliminated.
 615:Task/Task_Telemetry.c ****     uint16_t range = Telemetry_Monitor.receiver_value_max - Telemetry_Monitor.receiver_value_min;
 419              		.loc 1 615 5 view .LVU125
 420              		.loc 1 615 39 is_stmt 0 view .LVU126
 421 0000 054A     		ldr	r2, .L32
 422 0002 9389     		ldrh	r3, [r2, #12]
 423              		.loc 1 615 78 view .LVU127
 424 0004 128A     		ldrh	r2, [r2, #16]
 425              		.loc 1 615 14 view .LVU128
 426 0006 9B1A     		subs	r3, r3, r2
 427 0008 9BB2     		uxth	r3, r3
 428              	.LVL36:
 616:Task/Task_Telemetry.c **** 
 617:Task/Task_Telemetry.c ****     if(pcs)
 429              		.loc 1 617 5 is_stmt 1 view .LVU129
 430              		.loc 1 617 7 is_stmt 0 view .LVU130
 431 000a 08B9     		cbnz	r0, .L31
 618:Task/Task_Telemetry.c ****         return range / pcs;
 619:Task/Task_Telemetry.c **** 
 620:Task/Task_Telemetry.c ****     return 0;
 432              		.loc 1 620 12 view .LVU131
 433 000c 0020     		movs	r0, #0
 434              	.LVL37:
 621:Task/Task_Telemetry.c **** }
 435              		.loc 1 621 1 view .LVU132
 436 000e 7047     		bx	lr
 437              	.LVL38:
 438              	.L31:
 618:Task/Task_Telemetry.c ****         return range / pcs;
ARM GAS  C:\Users\8bit\AppData\Local\Temp\ccdsu2xB.s 			page 20


 439              		.loc 1 618 9 is_stmt 1 view .LVU133
 618:Task/Task_Telemetry.c ****         return range / pcs;
 440              		.loc 1 618 22 is_stmt 0 view .LVU134
 441 0010 93FBF0F0 		sdiv	r0, r3, r0
 442              	.LVL39:
 618:Task/Task_Telemetry.c ****         return range / pcs;
 443              		.loc 1 618 22 view .LVU135
 444 0014 7047     		bx	lr
 445              	.L33:
 446 0016 00BF     		.align	2
 447              	.L32:
 448 0018 00000000 		.word	.LANCHOR2
 449              		.cfi_endproc
 450              	.LFE2086:
 452              		.section	.text.Telemetry_BlackBox_OnChange,"ax",%progbits
 453              		.align	1
 454              		.syntax unified
 455              		.thumb
 456              		.thumb_func
 458              	Telemetry_BlackBox_OnChange:
 459              	.LFB2091:
 622:Task/Task_Telemetry.c **** 
 623:Task/Task_Telemetry.c **** static bool Telemetry_Bind_Gimbal(uint8_t throttle_ch, uint8_t pitch_ch, uint8_t roll_ch, uint8_t y
 624:Task/Task_Telemetry.c **** {
 625:Task/Task_Telemetry.c ****     if((throttle_ch == pitch_ch) || \
 626:Task/Task_Telemetry.c ****        (throttle_ch == roll_ch) || \
 627:Task/Task_Telemetry.c ****        (throttle_ch == yaw_ch) || \
 628:Task/Task_Telemetry.c ****        (pitch_ch == roll_ch) || \
 629:Task/Task_Telemetry.c ****        (pitch_ch == yaw_ch) || \
 630:Task/Task_Telemetry.c ****        (roll_ch == yaw_ch))
 631:Task/Task_Telemetry.c ****         return false;
 632:Task/Task_Telemetry.c **** 
 633:Task/Task_Telemetry.c ****     if( !Telemetry_BindGimbalToChannel(&Telemetry_Monitor.RC_Setting, \
 634:Task/Task_Telemetry.c ****                                        &Receiver_Obj.data.val_list[throttle_ch], \
 635:Task/Task_Telemetry.c ****                                        Gimbal_Throttle, \
 636:Task/Task_Telemetry.c ****                                        Telemetry_Monitor.receiver_value_min, \
 637:Task/Task_Telemetry.c ****                                        Telemetry_Monitor.receiver_value_mid, \
 638:Task/Task_Telemetry.c ****                                        Telemetry_Monitor.receiver_value_max) ||
 639:Task/Task_Telemetry.c ****         !Telemetry_BindGimbalToChannel(&Telemetry_Monitor.RC_Setting, \
 640:Task/Task_Telemetry.c ****                                        &Receiver_Obj.data.val_list[pitch_ch], \
 641:Task/Task_Telemetry.c ****                                        Gimbal_Pitch, \
 642:Task/Task_Telemetry.c ****                                        Telemetry_Monitor.receiver_value_min, \
 643:Task/Task_Telemetry.c ****                                        Telemetry_Monitor.receiver_value_mid, \
 644:Task/Task_Telemetry.c ****                                        Telemetry_Monitor.receiver_value_max) ||
 645:Task/Task_Telemetry.c ****         !Telemetry_BindGimbalToChannel(&Telemetry_Monitor.RC_Setting, \
 646:Task/Task_Telemetry.c ****                                        &Receiver_Obj.data.val_list[roll_ch], \
 647:Task/Task_Telemetry.c ****                                        Gimbal_Roll, \
 648:Task/Task_Telemetry.c ****                                        Telemetry_Monitor.receiver_value_min, \
 649:Task/Task_Telemetry.c ****                                        Telemetry_Monitor.receiver_value_mid, \
 650:Task/Task_Telemetry.c ****                                        Telemetry_Monitor.receiver_value_max) ||
 651:Task/Task_Telemetry.c ****         !Telemetry_BindGimbalToChannel(&Telemetry_Monitor.RC_Setting, \
 652:Task/Task_Telemetry.c ****                                        &Receiver_Obj.data.val_list[yaw_ch], \
 653:Task/Task_Telemetry.c ****                                        Gimbal_Yaw, \
 654:Task/Task_Telemetry.c ****                                        Telemetry_Monitor.receiver_value_min, \
 655:Task/Task_Telemetry.c ****                                        Telemetry_Monitor.receiver_value_mid, \
 656:Task/Task_Telemetry.c ****                                        Telemetry_Monitor.receiver_value_max))
 657:Task/Task_Telemetry.c ****         return false;
ARM GAS  C:\Users\8bit\AppData\Local\Temp\ccdsu2xB.s 			page 21


 658:Task/Task_Telemetry.c **** 
 659:Task/Task_Telemetry.c ****     return true;
 660:Task/Task_Telemetry.c **** }
 661:Task/Task_Telemetry.c **** 
 662:Task/Task_Telemetry.c **** static bool Telemetry_Bind_Toggle(uint8_t arm_toggle_ch, uint8_t mode_toggle_ch, uint8_t buzzer_tog
 663:Task/Task_Telemetry.c **** {
 664:Task/Task_Telemetry.c ****     int16_t start = 0;
 665:Task/Task_Telemetry.c ****     int16_t end = 0;
 666:Task/Task_Telemetry.c ****     
 667:Task/Task_Telemetry.c ****     /* bind arm toggle */
 668:Task/Task_Telemetry.c ****     if(!Telemetry_BindToggleToChannel(&Telemetry_Monitor.RC_Setting, \
 669:Task/Task_Telemetry.c ****                                       &Receiver_Obj.data.val_list[arm_toggle_ch], \
 670:Task/Task_Telemetry.c ****                                       &Telemetry_Monitor.RC_Setting.ARM_Toggle, \
 671:Task/Task_Telemetry.c ****                                       Telemetry_Monitor.receiver_value_min, \
 672:Task/Task_Telemetry.c ****                                       Telemetry_Monitor.receiver_value_mid))
 673:Task/Task_Telemetry.c ****         return false;
 674:Task/Task_Telemetry.c **** 
 675:Task/Task_Telemetry.c ****     /* bind buzzer toggle */
 676:Task/Task_Telemetry.c ****     if(!Telemetry_BindToggleToChannel(&Telemetry_Monitor.RC_Setting, \
 677:Task/Task_Telemetry.c ****                                       &Receiver_Obj.data.val_list[buzzer_toggle_ch], \
 678:Task/Task_Telemetry.c ****                                       &Telemetry_Monitor.RC_Setting.Buzzer_Toggle, \
 679:Task/Task_Telemetry.c ****                                       Telemetry_Monitor.receiver_value_mid, \
 680:Task/Task_Telemetry.c ****                                       Telemetry_Monitor.receiver_value_max))
 681:Task/Task_Telemetry.c ****         return false;
 682:Task/Task_Telemetry.c ****     
 683:Task/Task_Telemetry.c ****     /* bind control mode switcher toggle */ 
 684:Task/Task_Telemetry.c ****     uint16_t split_val = Telemetry_SplitScopeValue_Into(3);
 685:Task/Task_Telemetry.c ****     start = Telemetry_Monitor.receiver_value_min;
 686:Task/Task_Telemetry.c ****     end = Telemetry_Monitor.receiver_value_min + split_val;
 687:Task/Task_Telemetry.c ****     if(!Telemetry_BindToggleToChannel(&Telemetry_Monitor.RC_Setting, \
 688:Task/Task_Telemetry.c ****                                       &Receiver_Obj.data.val_list[mode_toggle_ch], \
 689:Task/Task_Telemetry.c ****                                       &Telemetry_Monitor.RC_Setting.ControlMode_Toggle, \
 690:Task/Task_Telemetry.c ****                                       start, \
 691:Task/Task_Telemetry.c ****                                       end))
 692:Task/Task_Telemetry.c ****         return false;
 693:Task/Task_Telemetry.c **** 
 694:Task/Task_Telemetry.c ****     start = end;
 695:Task/Task_Telemetry.c ****     end += split_val;
 696:Task/Task_Telemetry.c ****     if(!Telemetry_AddToggleCombo(&Telemetry_Monitor.RC_Setting, \
 697:Task/Task_Telemetry.c ****                                  &Receiver_Obj.data.val_list[mode_toggle_ch], \
 698:Task/Task_Telemetry.c ****                                  &Telemetry_Monitor.RC_Setting.ControlMode_Toggle, \
 699:Task/Task_Telemetry.c ****                                  start, \
 700:Task/Task_Telemetry.c ****                                  end))
 701:Task/Task_Telemetry.c ****         return false;
 702:Task/Task_Telemetry.c **** 
 703:Task/Task_Telemetry.c ****     start = end;
 704:Task/Task_Telemetry.c ****     end = Telemetry_Monitor.receiver_value_max;
 705:Task/Task_Telemetry.c ****     if(!Telemetry_AddToggleCombo(&Telemetry_Monitor.RC_Setting, \
 706:Task/Task_Telemetry.c ****                                  &Receiver_Obj.data.val_list[mode_toggle_ch], \
 707:Task/Task_Telemetry.c ****                                  &Telemetry_Monitor.RC_Setting.ControlMode_Toggle, \
 708:Task/Task_Telemetry.c ****                                  start, \
 709:Task/Task_Telemetry.c ****                                  end))
 710:Task/Task_Telemetry.c ****        return false;
 711:Task/Task_Telemetry.c **** 
 712:Task/Task_Telemetry.c ****     /* bind control BlackBox toggle (toggle must can auto reset) */
 713:Task/Task_Telemetry.c ****     if(!Telemetry_BindToggleToChannel(&Telemetry_Monitor.RC_Setting, \
 714:Task/Task_Telemetry.c ****                                       &Receiver_Obj.data.val_list[blackbox_toggle_ch], \
ARM GAS  C:\Users\8bit\AppData\Local\Temp\ccdsu2xB.s 			page 22


 715:Task/Task_Telemetry.c ****                                       &Telemetry_Monitor.RC_Setting.Blackbox_Toggle, \
 716:Task/Task_Telemetry.c ****                                       Telemetry_Monitor.receiver_value_mid, \
 717:Task/Task_Telemetry.c ****                                       Telemetry_Monitor.receiver_value_max))
 718:Task/Task_Telemetry.c ****         return false;
 719:Task/Task_Telemetry.c **** 
 720:Task/Task_Telemetry.c ****     if(!Telemetry_BindToggleToChannel(&Telemetry_Monitor.RC_Setting, \
 721:Task/Task_Telemetry.c ****                                       &Receiver_Obj.data.val_list[flipover_toggle_ch], \
 722:Task/Task_Telemetry.c ****                                       &Telemetry_Monitor.RC_Setting.FlipOver_Toggle, \
 723:Task/Task_Telemetry.c ****                                       Telemetry_Monitor.receiver_value_mid, \
 724:Task/Task_Telemetry.c ****                                       Telemetry_Monitor.receiver_value_max))
 725:Task/Task_Telemetry.c ****         return false;
 726:Task/Task_Telemetry.c **** 
 727:Task/Task_Telemetry.c ****     return true;
 728:Task/Task_Telemetry.c **** }
 729:Task/Task_Telemetry.c **** 
 730:Task/Task_Telemetry.c **** /* const gimbal position */
 731:Task/Task_Telemetry.c **** static bool Telemetry_Bind_CalibCombo(void)
 732:Task/Task_Telemetry.c **** {
 733:Task/Task_Telemetry.c ****     int16_t start = Telemetry_Monitor.receiver_value_min;
 734:Task/Task_Telemetry.c ****     int16_t end = start + 100;
 735:Task/Task_Telemetry.c **** 
 736:Task/Task_Telemetry.c ****     if(!Telemetry_AddToggleCombo(&Telemetry_Monitor.RC_Setting, &Receiver_Obj.data.val_list[2], &Te
 737:Task/Task_Telemetry.c ****        !Telemetry_AddToggleCombo(&Telemetry_Monitor.RC_Setting, &Receiver_Obj.data.val_list[1], &Te
 738:Task/Task_Telemetry.c ****        !Telemetry_AddToggleCombo(&Telemetry_Monitor.RC_Setting, &Receiver_Obj.data.val_list[0], &Te
 739:Task/Task_Telemetry.c ****        !Telemetry_AddToggleCombo(&Telemetry_Monitor.RC_Setting, &Receiver_Obj.data.val_list[3], &Te
 740:Task/Task_Telemetry.c ****        return false;
 741:Task/Task_Telemetry.c **** 
 742:Task/Task_Telemetry.c ****     return true;
 743:Task/Task_Telemetry.c **** }
 744:Task/Task_Telemetry.c **** 
 745:Task/Task_Telemetry.c **** static void Telemetry_ConvertRCData_To_ControlData(Telemetry_RCSig_TypeDef RCSig, ControlData_TypeD
 746:Task/Task_Telemetry.c **** {
 747:Task/Task_Telemetry.c ****     if(CTLSig)
 748:Task/Task_Telemetry.c ****     {
 749:Task/Task_Telemetry.c ****         memset(CTLSig, 0, sizeof(ControlData_TypeDef));
 750:Task/Task_Telemetry.c **** 
 751:Task/Task_Telemetry.c ****         CTLSig->update_time_stamp = RCSig.time_stamp;
 752:Task/Task_Telemetry.c ****         CTLSig->arm_state = RCSig.arm_state;
 753:Task/Task_Telemetry.c ****         CTLSig->fail_safe = RCSig.failsafe;
 754:Task/Task_Telemetry.c **** 
 755:Task/Task_Telemetry.c ****         if(!RCSig.failsafe)
 756:Task/Task_Telemetry.c ****         {
 757:Task/Task_Telemetry.c ****             CTLSig->channel_sum = RCSig.channel_sum;
 758:Task/Task_Telemetry.c ****             for(uint8_t ch_index = Channel_1; ch_index < Channel_Max; ch_index ++)
 759:Task/Task_Telemetry.c ****             {
 760:Task/Task_Telemetry.c ****                 CTLSig->all_ch[ch_index] = RCSig.channel[ch_index];
 761:Task/Task_Telemetry.c ****             }
 762:Task/Task_Telemetry.c **** 
 763:Task/Task_Telemetry.c ****             CTLSig->gimbal[Gimbal_Throttle] = RCSig.channel[Telemetry_Monitor.throttle_ch];
 764:Task/Task_Telemetry.c ****             CTLSig->gimbal[Gimbal_Pitch] = RCSig.channel[Telemetry_Monitor.pitch_ch];
 765:Task/Task_Telemetry.c ****             CTLSig->gimbal[Gimbal_Roll] = RCSig.channel[Telemetry_Monitor.roll_ch];
 766:Task/Task_Telemetry.c ****             CTLSig->gimbal[Gimbal_Yaw] = RCSig.channel[Telemetry_Monitor.yaw_ch];
 767:Task/Task_Telemetry.c ****                 
 768:Task/Task_Telemetry.c ****             CTLSig->throttle_percent = RCSig.gimbal_percent[Gimbal_Throttle];
 769:Task/Task_Telemetry.c ****             CTLSig->pitch_percent = RCSig.gimbal_percent[Gimbal_Pitch];
 770:Task/Task_Telemetry.c ****             CTLSig->roll_percent = RCSig.gimbal_percent[Gimbal_Roll];
 771:Task/Task_Telemetry.c ****             CTLSig->yaw_percent = RCSig.gimbal_percent[Gimbal_Yaw];
ARM GAS  C:\Users\8bit\AppData\Local\Temp\ccdsu2xB.s 			page 23


 772:Task/Task_Telemetry.c **** 
 773:Task/Task_Telemetry.c ****             CTLSig->gimbal_max = Telemetry_Monitor.receiver_value_max;
 774:Task/Task_Telemetry.c ****             CTLSig->gimbal_mid = Telemetry_Monitor.receiver_value_mid;
 775:Task/Task_Telemetry.c ****             CTLSig->gimbal_min = Telemetry_Monitor.receiver_value_min;
 776:Task/Task_Telemetry.c **** 
 777:Task/Task_Telemetry.c ****             CTLSig->aux.bit.blackbox = RCSig.blackbox;
 778:Task/Task_Telemetry.c **** 
 779:Task/Task_Telemetry.c ****             if(RCSig.arm_state == TELEMETRY_SET_ARM)
 780:Task/Task_Telemetry.c ****             {
 781:Task/Task_Telemetry.c ****                 CTLSig->aux.bit.calib = RCSig.cali_state;
 782:Task/Task_Telemetry.c ****                 CTLSig->aux.bit.flip_over = RCSig.flip_over;
 783:Task/Task_Telemetry.c ****             }
 784:Task/Task_Telemetry.c ****             else
 785:Task/Task_Telemetry.c ****                 CTLSig->aux.bit.calib = false;
 786:Task/Task_Telemetry.c ****         }
 787:Task/Task_Telemetry.c ****         else
 788:Task/Task_Telemetry.c ****         {
 789:Task/Task_Telemetry.c ****             CTLSig->arm_state = TELEMETRY_SET_ARM;
 790:Task/Task_Telemetry.c ****         }
 791:Task/Task_Telemetry.c **** 
 792:Task/Task_Telemetry.c ****         CTLSig->aux.bit.buzzer = RCSig.buzz_state;
 793:Task/Task_Telemetry.c ****         CTLSig->control_mode = RCSig.control_mode;
 794:Task/Task_Telemetry.c ****         CTLSig->aux.bit.hover_pos_hold = true;
 795:Task/Task_Telemetry.c ****         CTLSig->rssi = RCSig.link_quality;
 796:Task/Task_Telemetry.c ****     }
 797:Task/Task_Telemetry.c **** }
 798:Task/Task_Telemetry.c **** 
 799:Task/Task_Telemetry.c **** static bool Telemetry_BlackBox_OnChange(Telemetry_RCSig_TypeDef RCSig)
 800:Task/Task_Telemetry.c **** {
 460              		.loc 1 800 1 is_stmt 1 view -0
 461              		.cfi_startproc
 462              		@ args = 68, pretend = 16, frame = 0
 463              		@ frame_needed = 0, uses_anonymous_args = 0
 464              		@ link register save eliminated.
 465 0000 84B0     		sub	sp, sp, #16
 466              	.LCFI7:
 467              		.cfi_def_cfa_offset 16
 468 0002 8DE80F00 		stm	sp, {r0, r1, r2, r3}
 801:Task/Task_Telemetry.c ****     static bool first_trigger = true;
 469              		.loc 1 801 5 view .LVU137
 802:Task/Task_Telemetry.c ****     static bool lst_blackbox_state = false;
 470              		.loc 1 802 5 view .LVU138
 803:Task/Task_Telemetry.c ****     bool state = false;
 471              		.loc 1 803 5 view .LVU139
 472              	.LVL40:
 804:Task/Task_Telemetry.c **** 
 805:Task/Task_Telemetry.c ****     if (RCSig.failsafe)
 473              		.loc 1 805 5 view .LVU140
 474              		.loc 1 805 14 is_stmt 0 view .LVU141
 475 0006 9DF80500 		ldrb	r0, [sp, #5]	@ zero_extendqisi2
 476              		.loc 1 805 8 view .LVU142
 477 000a F0B9     		cbnz	r0, .L39
 806:Task/Task_Telemetry.c ****         return false;
 807:Task/Task_Telemetry.c **** 
 808:Task/Task_Telemetry.c ****     /* when on power and blackbox toggle is on */
 809:Task/Task_Telemetry.c ****     if (first_trigger)
 478              		.loc 1 809 5 is_stmt 1 view .LVU143
ARM GAS  C:\Users\8bit\AppData\Local\Temp\ccdsu2xB.s 			page 24


 479              		.loc 1 809 9 is_stmt 0 view .LVU144
 480 000c 104B     		ldr	r3, .L44
 481 000e 1B78     		ldrb	r3, [r3]	@ zero_extendqisi2
 482              		.loc 1 809 8 view .LVU145
 483 0010 53B9     		cbnz	r3, .L42
 810:Task/Task_Telemetry.c ****     {    
 811:Task/Task_Telemetry.c ****         lst_blackbox_state = RCSig.blackbox;
 812:Task/Task_Telemetry.c ****         
 813:Task/Task_Telemetry.c ****         first_trigger = false;
 814:Task/Task_Telemetry.c ****         if (RCSig.blackbox)
 815:Task/Task_Telemetry.c ****         {
 816:Task/Task_Telemetry.c ****             lst_blackbox_state = false;
 817:Task/Task_Telemetry.c ****             first_trigger = true;
 818:Task/Task_Telemetry.c ****         }
 819:Task/Task_Telemetry.c **** 
 820:Task/Task_Telemetry.c ****         return false;
 821:Task/Task_Telemetry.c ****     }
 822:Task/Task_Telemetry.c ****     
 823:Task/Task_Telemetry.c ****     if (lst_blackbox_state != RCSig.blackbox)
 484              		.loc 1 823 5 is_stmt 1 view .LVU146
 485              		.loc 1 823 36 is_stmt 0 view .LVU147
 486 0012 9DF80420 		ldrb	r2, [sp, #4]	@ zero_extendqisi2
 487              		.loc 1 823 28 view .LVU148
 488 0016 0F49     		ldr	r1, .L44+4
 489 0018 0978     		ldrb	r1, [r1]	@ zero_extendqisi2
 490              		.loc 1 823 8 view .LVU149
 491 001a 8A42     		cmp	r2, r1
 492 001c 13D0     		beq	.L43
 824:Task/Task_Telemetry.c ****         state = true;
 493              		.loc 1 824 15 view .LVU150
 494 001e 0120     		movs	r0, #1
 495              	.L38:
 496              	.LVL41:
 825:Task/Task_Telemetry.c **** 
 826:Task/Task_Telemetry.c ****     lst_blackbox_state = RCSig.blackbox;
 497              		.loc 1 826 5 is_stmt 1 view .LVU151
 498              		.loc 1 826 24 is_stmt 0 view .LVU152
 499 0020 0C4B     		ldr	r3, .L44+4
 500 0022 1A70     		strb	r2, [r3]
 827:Task/Task_Telemetry.c ****     return state;
 501              		.loc 1 827 5 is_stmt 1 view .LVU153
 502              	.LVL42:
 503              	.L35:
 828:Task/Task_Telemetry.c **** }
 504              		.loc 1 828 1 is_stmt 0 view .LVU154
 505 0024 04B0     		add	sp, sp, #16
 506              	.LCFI8:
 507              		.cfi_remember_state
 508              		.cfi_def_cfa_offset 0
 509 0026 7047     		bx	lr
 510              	.LVL43:
 511              	.L42:
 512              	.LCFI9:
 513              		.cfi_restore_state
 811:Task/Task_Telemetry.c ****         
 514              		.loc 1 811 9 is_stmt 1 view .LVU155
 811:Task/Task_Telemetry.c ****         
ARM GAS  C:\Users\8bit\AppData\Local\Temp\ccdsu2xB.s 			page 25


 515              		.loc 1 811 35 is_stmt 0 view .LVU156
 516 0028 9DF80430 		ldrb	r3, [sp, #4]	@ zero_extendqisi2
 811:Task/Task_Telemetry.c ****         
 517              		.loc 1 811 28 view .LVU157
 518 002c 094A     		ldr	r2, .L44+4
 519 002e 1370     		strb	r3, [r2]
 813:Task/Task_Telemetry.c ****         if (RCSig.blackbox)
 520              		.loc 1 813 9 is_stmt 1 view .LVU158
 813:Task/Task_Telemetry.c ****         if (RCSig.blackbox)
 521              		.loc 1 813 23 is_stmt 0 view .LVU159
 522 0030 074A     		ldr	r2, .L44
 523 0032 0021     		movs	r1, #0
 524 0034 1170     		strb	r1, [r2]
 814:Task/Task_Telemetry.c ****         {
 525              		.loc 1 814 9 is_stmt 1 view .LVU160
 814:Task/Task_Telemetry.c ****         {
 526              		.loc 1 814 12 is_stmt 0 view .LVU161
 527 0036 002B     		cmp	r3, #0
 528 0038 F4D0     		beq	.L35
 816:Task/Task_Telemetry.c ****             first_trigger = true;
 529              		.loc 1 816 13 is_stmt 1 view .LVU162
 816:Task/Task_Telemetry.c ****             first_trigger = true;
 530              		.loc 1 816 32 is_stmt 0 view .LVU163
 531 003a 064B     		ldr	r3, .L44+4
 532 003c 1970     		strb	r1, [r3]
 817:Task/Task_Telemetry.c ****         }
 533              		.loc 1 817 13 is_stmt 1 view .LVU164
 817:Task/Task_Telemetry.c ****         }
 534              		.loc 1 817 27 is_stmt 0 view .LVU165
 535 003e 044B     		ldr	r3, .L44
 536 0040 0122     		movs	r2, #1
 537 0042 1A70     		strb	r2, [r3]
 820:Task/Task_Telemetry.c ****     }
 538              		.loc 1 820 9 is_stmt 1 view .LVU166
 820:Task/Task_Telemetry.c ****     }
 539              		.loc 1 820 16 is_stmt 0 view .LVU167
 540 0044 EEE7     		b	.L35
 541              	.L43:
 803:Task/Task_Telemetry.c **** 
 542              		.loc 1 803 10 view .LVU168
 543 0046 1846     		mov	r0, r3
 544 0048 EAE7     		b	.L38
 545              	.L39:
 806:Task/Task_Telemetry.c **** 
 546              		.loc 1 806 16 view .LVU169
 547 004a 0020     		movs	r0, #0
 548 004c EAE7     		b	.L35
 549              	.L45:
 550 004e 00BF     		.align	2
 551              	.L44:
 552 0050 00000000 		.word	.LANCHOR3
 553 0054 00000000 		.word	.LANCHOR4
 554              		.cfi_endproc
 555              	.LFE2091:
 557              		.section	.text.Telemetry_RC_Sig_Init,"ax",%progbits
 558              		.align	1
 559              		.syntax unified
ARM GAS  C:\Users\8bit\AppData\Local\Temp\ccdsu2xB.s 			page 26


 560              		.thumb
 561              		.thumb_func
 563              	Telemetry_RC_Sig_Init:
 564              	.LVL44:
 565              	.LFB2077:
 181:Task/Task_Telemetry.c ****     uint8_t *port_ptr = NULL;
 566              		.loc 1 181 1 is_stmt 1 view -0
 567              		.cfi_startproc
 568              		@ args = 0, pretend = 0, frame = 0
 569              		@ frame_needed = 0, uses_anonymous_args = 0
 181:Task/Task_Telemetry.c ****     uint8_t *port_ptr = NULL;
 570              		.loc 1 181 1 is_stmt 0 view .LVU171
 571 0000 2DE9F043 		push	{r4, r5, r6, r7, r8, r9, lr}
 572              	.LCFI10:
 573              		.cfi_def_cfa_offset 28
 574              		.cfi_offset 4, -28
 575              		.cfi_offset 5, -24
 576              		.cfi_offset 6, -20
 577              		.cfi_offset 7, -16
 578              		.cfi_offset 8, -12
 579              		.cfi_offset 9, -8
 580              		.cfi_offset 14, -4
 581 0004 89B0     		sub	sp, sp, #36
 582              	.LCFI11:
 583              		.cfi_def_cfa_offset 64
 584 0006 0446     		mov	r4, r0
 585 0008 0D46     		mov	r5, r1
 182:Task/Task_Telemetry.c **** 
 586              		.loc 1 182 5 is_stmt 1 view .LVU172
 587              	.LVL45:
 184:Task/Task_Telemetry.c **** 
 588              		.loc 1 184 5 view .LVU173
 589 000a 3C22     		movs	r2, #60
 590 000c 0021     		movs	r1, #0
 591              	.LVL46:
 184:Task/Task_Telemetry.c **** 
 592              		.loc 1 184 5 is_stmt 0 view .LVU174
 593 000e 2846     		mov	r0, r5
 594              	.LVL47:
 184:Task/Task_Telemetry.c **** 
 595              		.loc 1 184 5 view .LVU175
 596 0010 FFF7FEFF 		bl	memset
 597              	.LVL48:
 186:Task/Task_Telemetry.c ****     receiver_obj->Frame_type = Receiver_Type_CRSF;
 598              		.loc 1 186 5 is_stmt 1 view .LVU176
 186:Task/Task_Telemetry.c ****     receiver_obj->Frame_type = Receiver_Type_CRSF;
 599              		.loc 1 186 29 is_stmt 0 view .LVU177
 600 0014 4FF00109 		mov	r9, #1
 601 0018 85F80190 		strb	r9, [r5, #1]
 187:Task/Task_Telemetry.c **** 
 602              		.loc 1 187 5 is_stmt 1 view .LVU178
 187:Task/Task_Telemetry.c **** 
 603              		.loc 1 187 30 is_stmt 0 view .LVU179
 604 001c 85F80090 		strb	r9, [r5]
 190:Task/Task_Telemetry.c ****     {
 605              		.loc 1 190 5 is_stmt 1 view .LVU180
 193:Task/Task_Telemetry.c ****             {
ARM GAS  C:\Users\8bit\AppData\Local\Temp\ccdsu2xB.s 			page 27


 606              		.loc 1 193 13 view .LVU181
 195:Task/Task_Telemetry.c ****                                                         RECEIVER_CRSF_RX_DMA,
 607              		.loc 1 195 17 view .LVU182
 195:Task/Task_Telemetry.c ****                                                         RECEIVER_CRSF_RX_DMA,
 608              		.loc 1 195 39 is_stmt 0 view .LVU183
 609 0020 DFF87080 		ldr	r8, .L48+16
 195:Task/Task_Telemetry.c ****                                                         RECEIVER_CRSF_RX_DMA,
 610              		.loc 1 195 28 view .LVU184
 611 0024 174A     		ldr	r2, .L48
 612 0026 05AB     		add	r3, sp, #20
 613 0028 07CA     		ldm	r2, {r0, r1, r2}
 614 002a 83E80700 		stm	r3, {r0, r1, r2}
 615 002e 164A     		ldr	r2, .L48+4
 616 0030 02AB     		add	r3, sp, #8
 617 0032 07CA     		ldm	r2, {r0, r1, r2}
 618 0034 83E80700 		stm	r3, {r0, r1, r2}
 619 0038 0026     		movs	r6, #0
 620 003a 0196     		str	r6, [sp, #4]
 621 003c 0523     		movs	r3, #5
 622 003e 0093     		str	r3, [sp]
 623 0040 3346     		mov	r3, r6
 624 0042 0422     		movs	r2, #4
 625 0044 3146     		mov	r1, r6
 626 0046 1148     		ldr	r0, .L48+8
 627 0048 D8F80070 		ldr	r7, [r8]
 628 004c B847     		blx	r7
 629              	.LVL49:
 630 004e 0146     		mov	r1, r0
 631              	.LVL50:
 231:Task/Task_Telemetry.c **** 
 632              		.loc 1 231 5 is_stmt 1 view .LVU185
 231:Task/Task_Telemetry.c **** 
 633              		.loc 1 231 43 is_stmt 0 view .LVU186
 634 0050 D8F80830 		ldr	r3, [r8, #8]
 231:Task/Task_Telemetry.c **** 
 635              		.loc 1 231 32 view .LVU187
 636 0054 2846     		mov	r0, r5
 637              	.LVL51:
 231:Task/Task_Telemetry.c **** 
 638              		.loc 1 231 32 view .LVU188
 639 0056 9847     		blx	r3
 640              	.LVL52:
 231:Task/Task_Telemetry.c **** 
 641              		.loc 1 231 30 view .LVU189
 642 0058 2070     		strb	r0, [r4]
 233:Task/Task_Telemetry.c ****     RC_Input_obj->sig.buzz_state = false;
 643              		.loc 1 233 5 is_stmt 1 view .LVU190
 233:Task/Task_Telemetry.c ****     RC_Input_obj->sig.buzz_state = false;
 644              		.loc 1 233 33 is_stmt 0 view .LVU191
 645 005a 84F80C90 		strb	r9, [r4, #12]
 234:Task/Task_Telemetry.c ****     RC_Input_obj->sig.control_mode = Telemetry_Control_Mode_Default;
 646              		.loc 1 234 5 is_stmt 1 view .LVU192
 234:Task/Task_Telemetry.c ****     RC_Input_obj->sig.control_mode = Telemetry_Control_Mode_Default;
 647              		.loc 1 234 34 is_stmt 0 view .LVU193
 648 005e 6673     		strb	r6, [r4, #13]
 235:Task/Task_Telemetry.c ****     RC_Input_obj->sig.module_enable = TELEMETRY_DISABLE_ALL_MODULE;
 649              		.loc 1 235 5 is_stmt 1 view .LVU194
ARM GAS  C:\Users\8bit\AppData\Local\Temp\ccdsu2xB.s 			page 28


 235:Task/Task_Telemetry.c ****     RC_Input_obj->sig.module_enable = TELEMETRY_DISABLE_ALL_MODULE;
 650              		.loc 1 235 36 is_stmt 0 view .LVU195
 651 0060 84F81E90 		strb	r9, [r4, #30]
 236:Task/Task_Telemetry.c **** 
 652              		.loc 1 236 5 is_stmt 1 view .LVU196
 236:Task/Task_Telemetry.c **** 
 653              		.loc 1 236 37 is_stmt 0 view .LVU197
 654 0064 2684     		strh	r6, [r4, #32]	@ movhi
 238:Task/Task_Telemetry.c ****                                                      &Telemetry_Monitor.receiver_value_max, \
 655              		.loc 1 238 5 is_stmt 1 view .LVU198
 238:Task/Task_Telemetry.c ****                                                      &Telemetry_Monitor.receiver_value_max, \
 656              		.loc 1 238 43 is_stmt 0 view .LVU199
 657 0066 D8F81460 		ldr	r6, [r8, #20]
 238:Task/Task_Telemetry.c ****                                                      &Telemetry_Monitor.receiver_value_max, \
 658              		.loc 1 238 32 view .LVU200
 659 006a 0949     		ldr	r1, .L48+12
 660 006c 01F11003 		add	r3, r1, #16
 661 0070 01F10E02 		add	r2, r1, #14
 662 0074 0C31     		adds	r1, r1, #12
 663 0076 2846     		mov	r0, r5
 664 0078 B047     		blx	r6
 665              	.LVL53:
 238:Task/Task_Telemetry.c ****                                                      &Telemetry_Monitor.receiver_value_max, \
 666              		.loc 1 238 30 view .LVU201
 667 007a 2070     		strb	r0, [r4]
 243:Task/Task_Telemetry.c **** }
 668              		.loc 1 243 5 is_stmt 1 view .LVU202
 244:Task/Task_Telemetry.c **** 
 669              		.loc 1 244 1 is_stmt 0 view .LVU203
 670 007c 09B0     		add	sp, sp, #36
 671              	.LCFI12:
 672              		.cfi_def_cfa_offset 28
 673              		@ sp needed
 674 007e BDE8F083 		pop	{r4, r5, r6, r7, r8, r9, pc}
 675              	.LVL54:
 676              	.L49:
 244:Task/Task_Telemetry.c **** 
 677              		.loc 1 244 1 view .LVU204
 678 0082 00BF     		.align	2
 679              	.L48:
 680 0084 00000000 		.word	Uart3_RxPin
 681 0088 00000000 		.word	Uart3_TxPin
 682 008c 00480040 		.word	1073760256
 683 0090 00000000 		.word	.LANCHOR2
 684 0094 00000000 		.word	SrvReceiver
 685              		.cfi_endproc
 686              	.LFE2077:
 688              		.section	.text.Telemetry_ConvertRCData_To_ControlData,"ax",%progbits
 689              		.align	1
 690              		.syntax unified
 691              		.thumb
 692              		.thumb_func
 694              	Telemetry_ConvertRCData_To_ControlData:
 695              	.LVL55:
 696              	.LFB2090:
 746:Task/Task_Telemetry.c ****     if(CTLSig)
 697              		.loc 1 746 1 is_stmt 1 view -0
ARM GAS  C:\Users\8bit\AppData\Local\Temp\ccdsu2xB.s 			page 29


 698              		.cfi_startproc
 699              		@ args = 72, pretend = 16, frame = 0
 700              		@ frame_needed = 0, uses_anonymous_args = 0
 746:Task/Task_Telemetry.c ****     if(CTLSig)
 701              		.loc 1 746 1 is_stmt 0 view .LVU206
 702 0000 84B0     		sub	sp, sp, #16
 703              	.LCFI13:
 704              		.cfi_def_cfa_offset 16
 705 0002 10B5     		push	{r4, lr}
 706              	.LCFI14:
 707              		.cfi_def_cfa_offset 24
 708              		.cfi_offset 4, -24
 709              		.cfi_offset 14, -20
 710 0004 02AC     		add	r4, sp, #8
 711 0006 84E80F00 		stm	r4, {r0, r1, r2, r3}
 712 000a 139C     		ldr	r4, [sp, #76]
 747:Task/Task_Telemetry.c ****     {
 713              		.loc 1 747 5 is_stmt 1 view .LVU207
 747:Task/Task_Telemetry.c ****     {
 714              		.loc 1 747 7 is_stmt 0 view .LVU208
 715 000c 002C     		cmp	r4, #0
 716 000e 00F09280 		beq	.L50
 749:Task/Task_Telemetry.c **** 
 717              		.loc 1 749 9 is_stmt 1 view .LVU209
 718 0012 6422     		movs	r2, #100
 719 0014 0021     		movs	r1, #0
 720 0016 2046     		mov	r0, r4
 721 0018 FFF7FEFF 		bl	memset
 722              	.LVL56:
 751:Task/Task_Telemetry.c ****         CTLSig->arm_state = RCSig.arm_state;
 723              		.loc 1 751 9 view .LVU210
 751:Task/Task_Telemetry.c ****         CTLSig->arm_state = RCSig.arm_state;
 724              		.loc 1 751 42 is_stmt 0 view .LVU211
 725 001c 099B     		ldr	r3, [sp, #36]
 751:Task/Task_Telemetry.c ****         CTLSig->arm_state = RCSig.arm_state;
 726              		.loc 1 751 35 view .LVU212
 727 001e 2360     		str	r3, [r4]
 752:Task/Task_Telemetry.c ****         CTLSig->fail_safe = RCSig.failsafe;
 728              		.loc 1 752 9 is_stmt 1 view .LVU213
 752:Task/Task_Telemetry.c ****         CTLSig->fail_safe = RCSig.failsafe;
 729              		.loc 1 752 34 is_stmt 0 view .LVU214
 730 0020 9DF80800 		ldrb	r0, [sp, #8]	@ zero_extendqisi2
 752:Task/Task_Telemetry.c ****         CTLSig->fail_safe = RCSig.failsafe;
 731              		.loc 1 752 27 view .LVU215
 732 0024 84F85E00 		strb	r0, [r4, #94]
 753:Task/Task_Telemetry.c **** 
 733              		.loc 1 753 9 is_stmt 1 view .LVU216
 753:Task/Task_Telemetry.c **** 
 734              		.loc 1 753 34 is_stmt 0 view .LVU217
 735 0028 9DF80D30 		ldrb	r3, [sp, #13]	@ zero_extendqisi2
 753:Task/Task_Telemetry.c **** 
 736              		.loc 1 753 27 view .LVU218
 737 002c 84F85F30 		strb	r3, [r4, #95]
 755:Task/Task_Telemetry.c ****         {
 738              		.loc 1 755 9 is_stmt 1 view .LVU219
 755:Task/Task_Telemetry.c ****         {
 739              		.loc 1 755 11 is_stmt 0 view .LVU220
ARM GAS  C:\Users\8bit\AppData\Local\Temp\ccdsu2xB.s 			page 30


 740 0030 002B     		cmp	r3, #0
 741 0032 67D1     		bne	.L52
 757:Task/Task_Telemetry.c ****             for(uint8_t ch_index = Channel_1; ch_index < Channel_Max; ch_index ++)
 742              		.loc 1 757 13 is_stmt 1 view .LVU221
 757:Task/Task_Telemetry.c ****             for(uint8_t ch_index = Channel_1; ch_index < Channel_Max; ch_index ++)
 743              		.loc 1 757 40 is_stmt 0 view .LVU222
 744 0034 9DF82830 		ldrb	r3, [sp, #40]	@ zero_extendqisi2
 757:Task/Task_Telemetry.c ****             for(uint8_t ch_index = Channel_1; ch_index < Channel_Max; ch_index ++)
 745              		.loc 1 757 33 view .LVU223
 746 0038 2371     		strb	r3, [r4, #4]
 758:Task/Task_Telemetry.c ****             {
 747              		.loc 1 758 13 is_stmt 1 view .LVU224
 748              	.LBB4:
 758:Task/Task_Telemetry.c ****             {
 749              		.loc 1 758 17 view .LVU225
 750              	.LVL57:
 758:Task/Task_Telemetry.c ****             {
 751              		.loc 1 758 25 is_stmt 0 view .LVU226
 752 003a 0023     		movs	r3, #0
 758:Task/Task_Telemetry.c ****             {
 753              		.loc 1 758 13 view .LVU227
 754 003c 0AE0     		b	.L53
 755              	.LVL58:
 756              	.L54:
 760:Task/Task_Telemetry.c ****             }
 757              		.loc 1 760 17 is_stmt 1 discriminator 3 view .LVU228
 760:Task/Task_Telemetry.c ****             }
 758              		.loc 1 760 57 is_stmt 0 discriminator 3 view .LVU229
 759 003e 03F11002 		add	r2, r3, #16
 760 0042 02A9     		add	r1, sp, #8
 761 0044 01EB4202 		add	r2, r1, r2, lsl #1
 762 0048 5188     		ldrh	r1, [r2, #2]
 760:Task/Task_Telemetry.c ****             }
 763              		.loc 1 760 42 discriminator 3 view .LVU230
 764 004a 04EB4302 		add	r2, r4, r3, lsl #1
 765 004e D180     		strh	r1, [r2, #6]	@ movhi
 758:Task/Task_Telemetry.c ****             {
 766              		.loc 1 758 71 is_stmt 1 discriminator 3 view .LVU231
 758:Task/Task_Telemetry.c ****             {
 767              		.loc 1 758 80 is_stmt 0 discriminator 3 view .LVU232
 768 0050 0133     		adds	r3, r3, #1
 769              	.LVL59:
 758:Task/Task_Telemetry.c ****             {
 770              		.loc 1 758 80 discriminator 3 view .LVU233
 771 0052 DBB2     		uxtb	r3, r3
 772              	.LVL60:
 773              	.L53:
 758:Task/Task_Telemetry.c ****             {
 774              		.loc 1 758 47 is_stmt 1 discriminator 1 view .LVU234
 758:Task/Task_Telemetry.c ****             {
 775              		.loc 1 758 13 is_stmt 0 discriminator 1 view .LVU235
 776 0054 0F2B     		cmp	r3, #15
 777 0056 F2D9     		bls	.L54
 778              	.LBE4:
 763:Task/Task_Telemetry.c ****             CTLSig->gimbal[Gimbal_Pitch] = RCSig.channel[Telemetry_Monitor.pitch_ch];
 779              		.loc 1 763 13 is_stmt 1 view .LVU236
 763:Task/Task_Telemetry.c ****             CTLSig->gimbal[Gimbal_Pitch] = RCSig.channel[Telemetry_Monitor.pitch_ch];
ARM GAS  C:\Users\8bit\AppData\Local\Temp\ccdsu2xB.s 			page 31


 780              		.loc 1 763 78 is_stmt 0 view .LVU237
 781 0058 394B     		ldr	r3, .L57
 782              	.LVL61:
 763:Task/Task_Telemetry.c ****             CTLSig->gimbal[Gimbal_Pitch] = RCSig.channel[Telemetry_Monitor.pitch_ch];
 783              		.loc 1 763 78 view .LVU238
 784 005a 9A7C     		ldrb	r2, [r3, #18]	@ zero_extendqisi2
 763:Task/Task_Telemetry.c ****             CTLSig->gimbal[Gimbal_Pitch] = RCSig.channel[Telemetry_Monitor.pitch_ch];
 785              		.loc 1 763 60 view .LVU239
 786 005c 1032     		adds	r2, r2, #16
 787 005e 02A9     		add	r1, sp, #8
 788 0060 01EB4202 		add	r2, r1, r2, lsl #1
 789 0064 B2F90220 		ldrsh	r2, [r2, #2]
 763:Task/Task_Telemetry.c ****             CTLSig->gimbal[Gimbal_Pitch] = RCSig.channel[Telemetry_Monitor.pitch_ch];
 790              		.loc 1 763 45 view .LVU240
 791 0068 A4F84620 		strh	r2, [r4, #70]	@ movhi
 764:Task/Task_Telemetry.c ****             CTLSig->gimbal[Gimbal_Roll] = RCSig.channel[Telemetry_Monitor.roll_ch];
 792              		.loc 1 764 13 is_stmt 1 view .LVU241
 764:Task/Task_Telemetry.c ****             CTLSig->gimbal[Gimbal_Roll] = RCSig.channel[Telemetry_Monitor.roll_ch];
 793              		.loc 1 764 75 is_stmt 0 view .LVU242
 794 006c DA7C     		ldrb	r2, [r3, #19]	@ zero_extendqisi2
 764:Task/Task_Telemetry.c ****             CTLSig->gimbal[Gimbal_Roll] = RCSig.channel[Telemetry_Monitor.roll_ch];
 795              		.loc 1 764 57 view .LVU243
 796 006e 1032     		adds	r2, r2, #16
 797 0070 01EB4202 		add	r2, r1, r2, lsl #1
 798 0074 B2F90220 		ldrsh	r2, [r2, #2]
 764:Task/Task_Telemetry.c ****             CTLSig->gimbal[Gimbal_Roll] = RCSig.channel[Telemetry_Monitor.roll_ch];
 799              		.loc 1 764 42 view .LVU244
 800 0078 A4F84820 		strh	r2, [r4, #72]	@ movhi
 765:Task/Task_Telemetry.c ****             CTLSig->gimbal[Gimbal_Yaw] = RCSig.channel[Telemetry_Monitor.yaw_ch];
 801              		.loc 1 765 13 is_stmt 1 view .LVU245
 765:Task/Task_Telemetry.c ****             CTLSig->gimbal[Gimbal_Yaw] = RCSig.channel[Telemetry_Monitor.yaw_ch];
 802              		.loc 1 765 74 is_stmt 0 view .LVU246
 803 007c 1A7D     		ldrb	r2, [r3, #20]	@ zero_extendqisi2
 765:Task/Task_Telemetry.c ****             CTLSig->gimbal[Gimbal_Yaw] = RCSig.channel[Telemetry_Monitor.yaw_ch];
 804              		.loc 1 765 56 view .LVU247
 805 007e 1032     		adds	r2, r2, #16
 806 0080 01EB4202 		add	r2, r1, r2, lsl #1
 807 0084 B2F90220 		ldrsh	r2, [r2, #2]
 765:Task/Task_Telemetry.c ****             CTLSig->gimbal[Gimbal_Yaw] = RCSig.channel[Telemetry_Monitor.yaw_ch];
 808              		.loc 1 765 41 view .LVU248
 809 0088 A4F84A20 		strh	r2, [r4, #74]	@ movhi
 766:Task/Task_Telemetry.c ****                 
 810              		.loc 1 766 13 is_stmt 1 view .LVU249
 766:Task/Task_Telemetry.c ****                 
 811              		.loc 1 766 73 is_stmt 0 view .LVU250
 812 008c 5A7D     		ldrb	r2, [r3, #21]	@ zero_extendqisi2
 766:Task/Task_Telemetry.c ****                 
 813              		.loc 1 766 55 view .LVU251
 814 008e 1032     		adds	r2, r2, #16
 815 0090 01EB4202 		add	r2, r1, r2, lsl #1
 816 0094 B2F90220 		ldrsh	r2, [r2, #2]
 766:Task/Task_Telemetry.c ****                 
 817              		.loc 1 766 40 view .LVU252
 818 0098 A4F84C20 		strh	r2, [r4, #76]	@ movhi
 768:Task/Task_Telemetry.c ****             CTLSig->pitch_percent = RCSig.gimbal_percent[Gimbal_Pitch];
 819              		.loc 1 768 13 is_stmt 1 view .LVU253
 768:Task/Task_Telemetry.c ****             CTLSig->pitch_percent = RCSig.gimbal_percent[Gimbal_Pitch];
ARM GAS  C:\Users\8bit\AppData\Local\Temp\ccdsu2xB.s 			page 32


 820              		.loc 1 768 60 is_stmt 0 view .LVU254
 821 009c BDF81220 		ldrh	r2, [sp, #18]
 768:Task/Task_Telemetry.c ****             CTLSig->pitch_percent = RCSig.gimbal_percent[Gimbal_Pitch];
 822              		.loc 1 768 38 view .LVU255
 823 00a0 84F84E20 		strb	r2, [r4, #78]
 769:Task/Task_Telemetry.c ****             CTLSig->roll_percent = RCSig.gimbal_percent[Gimbal_Roll];
 824              		.loc 1 769 13 is_stmt 1 view .LVU256
 769:Task/Task_Telemetry.c ****             CTLSig->roll_percent = RCSig.gimbal_percent[Gimbal_Roll];
 825              		.loc 1 769 57 is_stmt 0 view .LVU257
 826 00a4 BDF81420 		ldrh	r2, [sp, #20]
 769:Task/Task_Telemetry.c ****             CTLSig->roll_percent = RCSig.gimbal_percent[Gimbal_Roll];
 827              		.loc 1 769 35 view .LVU258
 828 00a8 84F84F20 		strb	r2, [r4, #79]
 770:Task/Task_Telemetry.c ****             CTLSig->yaw_percent = RCSig.gimbal_percent[Gimbal_Yaw];
 829              		.loc 1 770 13 is_stmt 1 view .LVU259
 770:Task/Task_Telemetry.c ****             CTLSig->yaw_percent = RCSig.gimbal_percent[Gimbal_Yaw];
 830              		.loc 1 770 56 is_stmt 0 view .LVU260
 831 00ac BDF81620 		ldrh	r2, [sp, #22]
 770:Task/Task_Telemetry.c ****             CTLSig->yaw_percent = RCSig.gimbal_percent[Gimbal_Yaw];
 832              		.loc 1 770 34 view .LVU261
 833 00b0 84F85020 		strb	r2, [r4, #80]
 771:Task/Task_Telemetry.c **** 
 834              		.loc 1 771 13 is_stmt 1 view .LVU262
 771:Task/Task_Telemetry.c **** 
 835              		.loc 1 771 55 is_stmt 0 view .LVU263
 836 00b4 BDF81820 		ldrh	r2, [sp, #24]
 771:Task/Task_Telemetry.c **** 
 837              		.loc 1 771 33 view .LVU264
 838 00b8 84F85120 		strb	r2, [r4, #81]
 773:Task/Task_Telemetry.c ****             CTLSig->gimbal_mid = Telemetry_Monitor.receiver_value_mid;
 839              		.loc 1 773 13 is_stmt 1 view .LVU265
 773:Task/Task_Telemetry.c ****             CTLSig->gimbal_mid = Telemetry_Monitor.receiver_value_mid;
 840              		.loc 1 773 51 is_stmt 0 view .LVU266
 841 00bc B3F90C20 		ldrsh	r2, [r3, #12]
 773:Task/Task_Telemetry.c ****             CTLSig->gimbal_mid = Telemetry_Monitor.receiver_value_mid;
 842              		.loc 1 773 32 view .LVU267
 843 00c0 A4F85220 		strh	r2, [r4, #82]	@ movhi
 774:Task/Task_Telemetry.c ****             CTLSig->gimbal_min = Telemetry_Monitor.receiver_value_min;
 844              		.loc 1 774 13 is_stmt 1 view .LVU268
 774:Task/Task_Telemetry.c ****             CTLSig->gimbal_min = Telemetry_Monitor.receiver_value_min;
 845              		.loc 1 774 51 is_stmt 0 view .LVU269
 846 00c4 B3F90E20 		ldrsh	r2, [r3, #14]
 774:Task/Task_Telemetry.c ****             CTLSig->gimbal_min = Telemetry_Monitor.receiver_value_min;
 847              		.loc 1 774 32 view .LVU270
 848 00c8 A4F85420 		strh	r2, [r4, #84]	@ movhi
 775:Task/Task_Telemetry.c **** 
 849              		.loc 1 775 13 is_stmt 1 view .LVU271
 775:Task/Task_Telemetry.c **** 
 850              		.loc 1 775 51 is_stmt 0 view .LVU272
 851 00cc B3F91030 		ldrsh	r3, [r3, #16]
 775:Task/Task_Telemetry.c **** 
 852              		.loc 1 775 32 view .LVU273
 853 00d0 A4F85630 		strh	r3, [r4, #86]	@ movhi
 777:Task/Task_Telemetry.c **** 
 854              		.loc 1 777 13 is_stmt 1 view .LVU274
 777:Task/Task_Telemetry.c **** 
 855              		.loc 1 777 45 is_stmt 0 view .LVU275
ARM GAS  C:\Users\8bit\AppData\Local\Temp\ccdsu2xB.s 			page 33


 856 00d4 9DF80C20 		ldrb	r2, [sp, #12]	@ zero_extendqisi2
 777:Task/Task_Telemetry.c **** 
 857              		.loc 1 777 38 view .LVU276
 858 00d8 94F85A30 		ldrb	r3, [r4, #90]	@ zero_extendqisi2
 859 00dc 62F30413 		bfi	r3, r2, #4, #1
 860 00e0 84F85A30 		strb	r3, [r4, #90]
 779:Task/Task_Telemetry.c ****             {
 861              		.loc 1 779 13 is_stmt 1 view .LVU277
 779:Task/Task_Telemetry.c ****             {
 862              		.loc 1 779 15 is_stmt 0 view .LVU278
 863 00e4 88B1     		cbz	r0, .L55
 781:Task/Task_Telemetry.c ****                 CTLSig->aux.bit.flip_over = RCSig.flip_over;
 864              		.loc 1 781 17 is_stmt 1 view .LVU279
 781:Task/Task_Telemetry.c ****                 CTLSig->aux.bit.flip_over = RCSig.flip_over;
 865              		.loc 1 781 46 is_stmt 0 view .LVU280
 866 00e6 9DF80A20 		ldrb	r2, [sp, #10]	@ zero_extendqisi2
 781:Task/Task_Telemetry.c ****                 CTLSig->aux.bit.flip_over = RCSig.flip_over;
 867              		.loc 1 781 39 view .LVU281
 868 00ea DBB2     		uxtb	r3, r3
 869 00ec 62F3C303 		bfi	r3, r2, #3, #1
 870 00f0 84F85A30 		strb	r3, [r4, #90]
 782:Task/Task_Telemetry.c ****             }
 871              		.loc 1 782 17 is_stmt 1 view .LVU282
 782:Task/Task_Telemetry.c ****             }
 872              		.loc 1 782 50 is_stmt 0 view .LVU283
 873 00f4 9DF80B20 		ldrb	r2, [sp, #11]	@ zero_extendqisi2
 782:Task/Task_Telemetry.c ****             }
 874              		.loc 1 782 43 view .LVU284
 875 00f8 DBB2     		uxtb	r3, r3
 876 00fa 62F38203 		bfi	r3, r2, #2, #1
 877 00fe 84F85A30 		strb	r3, [r4, #90]
 878 0102 02E0     		b	.L55
 879              	.L52:
 789:Task/Task_Telemetry.c ****         }
 880              		.loc 1 789 13 is_stmt 1 view .LVU285
 789:Task/Task_Telemetry.c ****         }
 881              		.loc 1 789 31 is_stmt 0 view .LVU286
 882 0104 0123     		movs	r3, #1
 883 0106 84F85E30 		strb	r3, [r4, #94]
 884              	.L55:
 792:Task/Task_Telemetry.c ****         CTLSig->control_mode = RCSig.control_mode;
 885              		.loc 1 792 9 is_stmt 1 view .LVU287
 792:Task/Task_Telemetry.c ****         CTLSig->control_mode = RCSig.control_mode;
 886              		.loc 1 792 39 is_stmt 0 view .LVU288
 887 010a 9DF80920 		ldrb	r2, [sp, #9]	@ zero_extendqisi2
 792:Task/Task_Telemetry.c ****         CTLSig->control_mode = RCSig.control_mode;
 888              		.loc 1 792 32 view .LVU289
 889 010e 94F85A30 		ldrb	r3, [r4, #90]	@ zero_extendqisi2
 890 0112 62F34103 		bfi	r3, r2, #1, #1
 891 0116 84F85A30 		strb	r3, [r4, #90]
 793:Task/Task_Telemetry.c ****         CTLSig->aux.bit.hover_pos_hold = true;
 892              		.loc 1 793 9 is_stmt 1 view .LVU290
 793:Task/Task_Telemetry.c ****         CTLSig->aux.bit.hover_pos_hold = true;
 893              		.loc 1 793 37 is_stmt 0 view .LVU291
 894 011a 9DF81A30 		ldrb	r3, [sp, #26]	@ zero_extendqisi2
 793:Task/Task_Telemetry.c ****         CTLSig->aux.bit.hover_pos_hold = true;
 895              		.loc 1 793 30 view .LVU292
ARM GAS  C:\Users\8bit\AppData\Local\Temp\ccdsu2xB.s 			page 34


 896 011e 84F85830 		strb	r3, [r4, #88]
 794:Task/Task_Telemetry.c ****         CTLSig->rssi = RCSig.link_quality;
 897              		.loc 1 794 9 is_stmt 1 view .LVU293
 794:Task/Task_Telemetry.c ****         CTLSig->rssi = RCSig.link_quality;
 898              		.loc 1 794 40 is_stmt 0 view .LVU294
 899 0122 94F85A30 		ldrb	r3, [r4, #90]	@ zero_extendqisi2
 900 0126 43F00103 		orr	r3, r3, #1
 901 012a 84F85A30 		strb	r3, [r4, #90]
 795:Task/Task_Telemetry.c ****     }
 902              		.loc 1 795 9 is_stmt 1 view .LVU295
 795:Task/Task_Telemetry.c ****     }
 903              		.loc 1 795 29 is_stmt 0 view .LVU296
 904 012e BDF81030 		ldrh	r3, [sp, #16]
 795:Task/Task_Telemetry.c ****     }
 905              		.loc 1 795 22 view .LVU297
 906 0132 A4F86030 		strh	r3, [r4, #96]	@ movhi
 907              	.L50:
 797:Task/Task_Telemetry.c **** 
 908              		.loc 1 797 1 view .LVU298
 909 0136 BDE81040 		pop	{r4, lr}
 910              	.LCFI15:
 911              		.cfi_restore 14
 912              		.cfi_restore 4
 913              		.cfi_def_cfa_offset 16
 914 013a 04B0     		add	sp, sp, #16
 915              	.LCFI16:
 916              		.cfi_def_cfa_offset 0
 917 013c 7047     		bx	lr
 918              	.L58:
 919 013e 00BF     		.align	2
 920              	.L57:
 921 0140 00000000 		.word	.LANCHOR2
 922              		.cfi_endproc
 923              	.LFE2090:
 925              		.section	.text.Telemetry_BindGimbalToChannel,"ax",%progbits
 926              		.align	1
 927              		.syntax unified
 928              		.thumb
 929              		.thumb_func
 931              	Telemetry_BindGimbalToChannel:
 932              	.LVL62:
 933              	.LFB2078:
 247:Task/Task_Telemetry.c ****     Telemetry_ChannelSet_TypeDef *channel_set = NULL;
 934              		.loc 1 247 1 is_stmt 1 view -0
 935              		.cfi_startproc
 936              		@ args = 8, pretend = 0, frame = 0
 937              		@ frame_needed = 0, uses_anonymous_args = 0
 247:Task/Task_Telemetry.c ****     Telemetry_ChannelSet_TypeDef *channel_set = NULL;
 938              		.loc 1 247 1 is_stmt 0 view .LVU300
 939 0000 2DE9F041 		push	{r4, r5, r6, r7, r8, lr}
 940              	.LCFI17:
 941              		.cfi_def_cfa_offset 24
 942              		.cfi_offset 4, -24
 943              		.cfi_offset 5, -20
 944              		.cfi_offset 6, -16
 945              		.cfi_offset 7, -12
 946              		.cfi_offset 8, -8
ARM GAS  C:\Users\8bit\AppData\Local\Temp\ccdsu2xB.s 			page 35


 947              		.cfi_offset 14, -4
 948 0004 BDF81C80 		ldrh	r8, [sp, #28]
 248:Task/Task_Telemetry.c **** 
 949              		.loc 1 248 5 is_stmt 1 view .LVU301
 950              	.LVL63:
 250:Task/Task_Telemetry.c ****         (!data_obj) ||
 951              		.loc 1 250 5 view .LVU302
 250:Task/Task_Telemetry.c ****         (!data_obj) ||
 952              		.loc 1 250 8 is_stmt 0 view .LVU303
 953 0008 0028     		cmp	r0, #0
 954 000a 38D0     		beq	.L62
 955 000c 0C46     		mov	r4, r1
 956 000e 1746     		mov	r7, r2
 957 0010 1D46     		mov	r5, r3
 958 0012 0646     		mov	r6, r0
 250:Task/Task_Telemetry.c ****         (!data_obj) ||
 959              		.loc 1 250 25 discriminator 1 view .LVU304
 960 0014 0029     		cmp	r1, #0
 961 0016 34D0     		beq	.L63
 252:Task/Task_Telemetry.c ****         (max_range > Telemetry_Monitor.receiver_value_max))
 962              		.loc 1 252 39 view .LVU305
 963 0018 1D4B     		ldr	r3, .L70
 964              	.LVL64:
 252:Task/Task_Telemetry.c ****         (max_range > Telemetry_Monitor.receiver_value_max))
 965              		.loc 1 252 39 view .LVU306
 966 001a B3F91030 		ldrsh	r3, [r3, #16]
 251:Task/Task_Telemetry.c ****         (min_range < Telemetry_Monitor.receiver_value_min) ||
 967              		.loc 1 251 21 view .LVU307
 968 001e 9D42     		cmp	r5, r3
 969 0020 31DB     		blt	.L64
 253:Task/Task_Telemetry.c ****         return false;
 970              		.loc 1 253 39 view .LVU308
 971 0022 1B4B     		ldr	r3, .L70
 972 0024 B3F90C30 		ldrsh	r3, [r3, #12]
 252:Task/Task_Telemetry.c ****         (max_range > Telemetry_Monitor.receiver_value_max))
 973              		.loc 1 252 60 view .LVU309
 974 0028 9845     		cmp	r8, r3
 975 002a 2FDC     		bgt	.L65
 256:Task/Task_Telemetry.c **** 
 976              		.loc 1 256 5 is_stmt 1 view .LVU310
 256:Task/Task_Telemetry.c **** 
 977              		.loc 1 256 62 is_stmt 0 view .LVU311
 978 002c 194B     		ldr	r3, .L70+4
 979 002e DB6A     		ldr	r3, [r3, #44]
 256:Task/Task_Telemetry.c **** 
 980              		.loc 1 256 51 view .LVU312
 981 0030 1420     		movs	r0, #20
 982              	.LVL65:
 256:Task/Task_Telemetry.c **** 
 983              		.loc 1 256 51 view .LVU313
 984 0032 9847     		blx	r3
 985              	.LVL66:
 258:Task/Task_Telemetry.c ****     {
 986              		.loc 1 258 5 is_stmt 1 view .LVU314
 258:Task/Task_Telemetry.c ****     {
 987              		.loc 1 258 8 is_stmt 0 view .LVU315
 988 0034 0146     		mov	r1, r0
ARM GAS  C:\Users\8bit\AppData\Local\Temp\ccdsu2xB.s 			page 36


 989 0036 68B1     		cbz	r0, .L68
 264:Task/Task_Telemetry.c ****     channel_set->max = max_range;
 990              		.loc 1 264 5 is_stmt 1 view .LVU316
 264:Task/Task_Telemetry.c ****     channel_set->max = max_range;
 991              		.loc 1 264 30 is_stmt 0 view .LVU317
 992 0038 C460     		str	r4, [r0, #12]
 265:Task/Task_Telemetry.c ****     channel_set->mid = mid_val;
 993              		.loc 1 265 5 is_stmt 1 view .LVU318
 265:Task/Task_Telemetry.c ****     channel_set->mid = mid_val;
 994              		.loc 1 265 22 is_stmt 0 view .LVU319
 995 003a A0F80880 		strh	r8, [r0, #8]	@ movhi
 266:Task/Task_Telemetry.c ****     channel_set->min = min_range;
 996              		.loc 1 266 5 is_stmt 1 view .LVU320
 266:Task/Task_Telemetry.c ****     channel_set->min = min_range;
 997              		.loc 1 266 22 is_stmt 0 view .LVU321
 998 003e BDF81830 		ldrh	r3, [sp, #24]
 999 0042 C380     		strh	r3, [r0, #6]	@ movhi
 267:Task/Task_Telemetry.c ****     channel_set->center_deadzone_scope = 0;
 1000              		.loc 1 267 5 is_stmt 1 view .LVU322
 267:Task/Task_Telemetry.c ****     channel_set->center_deadzone_scope = 0;
 1001              		.loc 1 267 22 is_stmt 0 view .LVU323
 1002 0044 8580     		strh	r5, [r0, #4]	@ movhi
 268:Task/Task_Telemetry.c ****     channel_set->enable_deadzone = false;
 1003              		.loc 1 268 5 is_stmt 1 view .LVU324
 268:Task/Task_Telemetry.c ****     channel_set->enable_deadzone = false;
 1004              		.loc 1 268 40 is_stmt 0 view .LVU325
 1005 0046 0023     		movs	r3, #0
 1006 0048 4380     		strh	r3, [r0, #2]	@ movhi
 269:Task/Task_Telemetry.c **** 
 1007              		.loc 1 269 5 is_stmt 1 view .LVU326
 269:Task/Task_Telemetry.c **** 
 1008              		.loc 1 269 34 is_stmt 0 view .LVU327
 1009 004a 0370     		strb	r3, [r0]
 271:Task/Task_Telemetry.c ****     {
 1010              		.loc 1 271 5 is_stmt 1 view .LVU328
 1011 004c 032F     		cmp	r7, #3
 1012 004e 06D9     		bls	.L69
 282:Task/Task_Telemetry.c ****     }
 1013              		.loc 1 282 20 is_stmt 0 view .LVU329
 1014 0050 0020     		movs	r0, #0
 1015              	.LVL67:
 282:Task/Task_Telemetry.c ****     }
 1016              		.loc 1 282 20 view .LVU330
 1017 0052 19E0     		b	.L60
 1018              	.LVL68:
 1019              	.L68:
 260:Task/Task_Telemetry.c ****         return false;
 1020              		.loc 1 260 9 is_stmt 1 view .LVU331
 260:Task/Task_Telemetry.c ****         return false;
 1021              		.loc 1 260 20 is_stmt 0 view .LVU332
 1022 0054 0F4B     		ldr	r3, .L70+4
 1023 0056 1B6B     		ldr	r3, [r3, #48]
 260:Task/Task_Telemetry.c ****         return false;
 1024              		.loc 1 260 9 view .LVU333
 1025 0058 9847     		blx	r3
 1026              	.LVL69:
 261:Task/Task_Telemetry.c ****     }
ARM GAS  C:\Users\8bit\AppData\Local\Temp\ccdsu2xB.s 			page 37


 1027              		.loc 1 261 9 is_stmt 1 view .LVU334
 261:Task/Task_Telemetry.c ****     }
 1028              		.loc 1 261 16 is_stmt 0 view .LVU335
 1029 005a 0020     		movs	r0, #0
 1030 005c 14E0     		b	.L60
 1031              	.LVL70:
 1032              	.L69:
 277:Task/Task_Telemetry.c ****             List_ItemInit(&(RC_Input_obj->Gimbal[tag].combo_list), channel_set);
 1033              		.loc 1 277 13 is_stmt 1 view .LVU336
 277:Task/Task_Telemetry.c ****             List_ItemInit(&(RC_Input_obj->Gimbal[tag].combo_list), channel_set);
 1034              		.loc 1 277 49 is_stmt 0 view .LVU337
 1035 005e 07EB4703 		add	r3, r7, r7, lsl #1
 1036 0062 06EBC303 		add	r3, r6, r3, lsl #3
 1037 0066 0124     		movs	r4, #1
 1038              	.LVL71:
 277:Task/Task_Telemetry.c ****             List_ItemInit(&(RC_Input_obj->Gimbal[tag].combo_list), channel_set);
 1039              		.loc 1 277 49 view .LVU338
 1040 0068 83F86440 		strb	r4, [r3, #100]
 1041              	.LVL72:
 278:Task/Task_Telemetry.c ****             return true;
 1042              		.loc 1 278 13 is_stmt 1 view .LVU339
 1043 006c 07EB4703 		add	r3, r7, r7, lsl #1
 1044 0070 DB00     		lsls	r3, r3, #3
 1045 0072 5033     		adds	r3, r3, #80
 1046 0074 F018     		adds	r0, r6, r3
 1047              	.LVL73:
 278:Task/Task_Telemetry.c ****             return true;
 1048              		.loc 1 278 13 is_stmt 0 view .LVU340
 1049 0076 FFF7FEFF 		bl	List_ItemInit
 1050              	.LVL74:
 279:Task/Task_Telemetry.c **** 
 1051              		.loc 1 279 13 is_stmt 1 view .LVU341
 279:Task/Task_Telemetry.c **** 
 1052              		.loc 1 279 20 is_stmt 0 view .LVU342
 1053 007a 2046     		mov	r0, r4
 1054 007c 04E0     		b	.L60
 1055              	.LVL75:
 1056              	.L62:
 254:Task/Task_Telemetry.c **** 
 1057              		.loc 1 254 16 view .LVU343
 1058 007e 0020     		movs	r0, #0
 1059              	.LVL76:
 254:Task/Task_Telemetry.c **** 
 1060              		.loc 1 254 16 view .LVU344
 1061 0080 02E0     		b	.L60
 1062              	.LVL77:
 1063              	.L63:
 254:Task/Task_Telemetry.c **** 
 1064              		.loc 1 254 16 view .LVU345
 1065 0082 0020     		movs	r0, #0
 1066              	.LVL78:
 254:Task/Task_Telemetry.c **** 
 1067              		.loc 1 254 16 view .LVU346
 1068 0084 00E0     		b	.L60
 1069              	.LVL79:
 1070              	.L64:
 254:Task/Task_Telemetry.c **** 
ARM GAS  C:\Users\8bit\AppData\Local\Temp\ccdsu2xB.s 			page 38


 1071              		.loc 1 254 16 view .LVU347
 1072 0086 0020     		movs	r0, #0
 1073              	.LVL80:
 1074              	.L60:
 284:Task/Task_Telemetry.c **** 
 1075              		.loc 1 284 1 view .LVU348
 1076 0088 BDE8F081 		pop	{r4, r5, r6, r7, r8, pc}
 1077              	.LVL81:
 1078              	.L65:
 254:Task/Task_Telemetry.c **** 
 1079              		.loc 1 254 16 view .LVU349
 1080 008c 0020     		movs	r0, #0
 1081              	.LVL82:
 254:Task/Task_Telemetry.c **** 
 1082              		.loc 1 254 16 view .LVU350
 1083 008e FBE7     		b	.L60
 1084              	.L71:
 1085              		.align	2
 1086              	.L70:
 1087 0090 00000000 		.word	.LANCHOR2
 1088 0094 00000000 		.word	SrvOsCommon
 1089              		.cfi_endproc
 1090              	.LFE2078:
 1092              		.section	.text.Telemetry_Bind_Gimbal,"ax",%progbits
 1093              		.align	1
 1094              		.syntax unified
 1095              		.thumb
 1096              		.thumb_func
 1098              	Telemetry_Bind_Gimbal:
 1099              	.LVL83:
 1100              	.LFB2087:
 624:Task/Task_Telemetry.c ****     if((throttle_ch == pitch_ch) || \
 1101              		.loc 1 624 1 is_stmt 1 view -0
 1102              		.cfi_startproc
 1103              		@ args = 0, pretend = 0, frame = 0
 1104              		@ frame_needed = 0, uses_anonymous_args = 0
 625:Task/Task_Telemetry.c ****        (throttle_ch == roll_ch) || \
 1105              		.loc 1 625 5 view .LVU352
 625:Task/Task_Telemetry.c ****        (throttle_ch == roll_ch) || \
 1106              		.loc 1 625 7 is_stmt 0 view .LVU353
 1107 0000 8842     		cmp	r0, r1
 1108 0002 6BD0     		beq	.L75
 624:Task/Task_Telemetry.c ****     if((throttle_ch == pitch_ch) || \
 1109              		.loc 1 624 1 discriminator 1 view .LVU354
 1110 0004 F0B5     		push	{r4, r5, r6, r7, lr}
 1111              	.LCFI18:
 1112              		.cfi_def_cfa_offset 20
 1113              		.cfi_offset 4, -20
 1114              		.cfi_offset 5, -16
 1115              		.cfi_offset 6, -12
 1116              		.cfi_offset 7, -8
 1117              		.cfi_offset 14, -4
 1118 0006 83B0     		sub	sp, sp, #12
 1119              	.LCFI19:
 1120              		.cfi_def_cfa_offset 32
 1121 0008 0D46     		mov	r5, r1
 1122 000a 1646     		mov	r6, r2
ARM GAS  C:\Users\8bit\AppData\Local\Temp\ccdsu2xB.s 			page 39


 1123 000c 1C46     		mov	r4, r3
 625:Task/Task_Telemetry.c ****        (throttle_ch == roll_ch) || \
 1124              		.loc 1 625 34 discriminator 1 view .LVU355
 1125 000e 9042     		cmp	r0, r2
 1126 0010 66D0     		beq	.L76
 626:Task/Task_Telemetry.c ****        (throttle_ch == yaw_ch) || \
 1127              		.loc 1 626 33 view .LVU356
 1128 0012 9842     		cmp	r0, r3
 1129 0014 66D0     		beq	.L77
 627:Task/Task_Telemetry.c ****        (pitch_ch == roll_ch) || \
 1130              		.loc 1 627 32 view .LVU357
 1131 0016 9142     		cmp	r1, r2
 1132 0018 66D0     		beq	.L78
 628:Task/Task_Telemetry.c ****        (pitch_ch == yaw_ch) || \
 1133              		.loc 1 628 30 view .LVU358
 1134 001a 9942     		cmp	r1, r3
 1135 001c 66D0     		beq	.L79
 629:Task/Task_Telemetry.c ****        (roll_ch == yaw_ch))
 1136              		.loc 1 629 29 view .LVU359
 1137 001e 9A42     		cmp	r2, r3
 1138 0020 66D0     		beq	.L80
 633:Task/Task_Telemetry.c ****                                        &Receiver_Obj.data.val_list[throttle_ch], \
 1139              		.loc 1 633 5 is_stmt 1 view .LVU360
 634:Task/Task_Telemetry.c ****                                        Gimbal_Throttle, \
 1140              		.loc 1 634 58 is_stmt 0 view .LVU361
 1141 0022 344B     		ldr	r3, .L86
 1142              	.LVL84:
 634:Task/Task_Telemetry.c ****                                        Gimbal_Throttle, \
 1143              		.loc 1 634 58 view .LVU362
 1144 0024 D968     		ldr	r1, [r3, #12]
 1145              	.LVL85:
 636:Task/Task_Telemetry.c ****                                        Telemetry_Monitor.receiver_value_mid, \
 1146              		.loc 1 636 57 view .LVU363
 1147 0026 344F     		ldr	r7, .L86+4
 1148 0028 B7F910C0 		ldrsh	ip, [r7, #16]
 637:Task/Task_Telemetry.c ****                                        Telemetry_Monitor.receiver_value_max) ||
 1149              		.loc 1 637 57 view .LVU364
 1150 002c B7F90E20 		ldrsh	r2, [r7, #14]
 1151              	.LVL86:
 638:Task/Task_Telemetry.c ****         !Telemetry_BindGimbalToChannel(&Telemetry_Monitor.RC_Setting, \
 1152              		.loc 1 638 57 view .LVU365
 1153 0030 B7F90C30 		ldrsh	r3, [r7, #12]
 633:Task/Task_Telemetry.c ****                                        &Receiver_Obj.data.val_list[throttle_ch], \
 1154              		.loc 1 633 10 view .LVU366
 1155 0034 9BB2     		uxth	r3, r3
 1156 0036 0193     		str	r3, [sp, #4]
 1157 0038 92B2     		uxth	r2, r2
 1158 003a 0092     		str	r2, [sp]
 1159 003c 1FFA8CF3 		uxth	r3, ip
 1160 0040 0022     		movs	r2, #0
 1161 0042 01EB4001 		add	r1, r1, r0, lsl #1
 1162 0046 07F12400 		add	r0, r7, #36
 1163              	.LVL87:
 633:Task/Task_Telemetry.c ****                                        &Receiver_Obj.data.val_list[throttle_ch], \
 1164              		.loc 1 633 10 view .LVU367
 1165 004a FFF7FEFF 		bl	Telemetry_BindGimbalToChannel
 1166              	.LVL88:
ARM GAS  C:\Users\8bit\AppData\Local\Temp\ccdsu2xB.s 			page 40


 633:Task/Task_Telemetry.c ****                                        &Receiver_Obj.data.val_list[throttle_ch], \
 1167              		.loc 1 633 7 view .LVU368
 1168 004e 10B9     		cbnz	r0, .L85
 1169              	.L74:
 657:Task/Task_Telemetry.c **** 
 1170              		.loc 1 657 9 is_stmt 1 view .LVU369
 657:Task/Task_Telemetry.c **** 
 1171              		.loc 1 657 16 is_stmt 0 view .LVU370
 1172 0050 0020     		movs	r0, #0
 1173              	.L73:
 660:Task/Task_Telemetry.c **** 
 1174              		.loc 1 660 1 view .LVU371
 1175 0052 03B0     		add	sp, sp, #12
 1176              	.LCFI20:
 1177              		.cfi_remember_state
 1178              		.cfi_def_cfa_offset 20
 1179              		@ sp needed
 1180 0054 F0BD     		pop	{r4, r5, r6, r7, pc}
 1181              	.L85:
 1182              	.LCFI21:
 1183              		.cfi_restore_state
 640:Task/Task_Telemetry.c ****                                        Gimbal_Pitch, \
 1184              		.loc 1 640 58 view .LVU372
 1185 0056 274B     		ldr	r3, .L86
 1186 0058 D968     		ldr	r1, [r3, #12]
 642:Task/Task_Telemetry.c ****                                        Telemetry_Monitor.receiver_value_mid, \
 1187              		.loc 1 642 57 view .LVU373
 1188 005a 3846     		mov	r0, r7
 1189 005c B7F91030 		ldrsh	r3, [r7, #16]
 643:Task/Task_Telemetry.c ****                                        Telemetry_Monitor.receiver_value_max) ||
 1190              		.loc 1 643 57 view .LVU374
 1191 0060 B7F90E20 		ldrsh	r2, [r7, #14]
 644:Task/Task_Telemetry.c ****         !Telemetry_BindGimbalToChannel(&Telemetry_Monitor.RC_Setting, \
 1192              		.loc 1 644 57 view .LVU375
 1193 0064 B7F90C70 		ldrsh	r7, [r7, #12]
 639:Task/Task_Telemetry.c ****                                        &Receiver_Obj.data.val_list[pitch_ch], \
 1194              		.loc 1 639 10 view .LVU376
 1195 0068 BFB2     		uxth	r7, r7
 1196 006a 0197     		str	r7, [sp, #4]
 1197 006c 92B2     		uxth	r2, r2
 1198 006e 0092     		str	r2, [sp]
 1199 0070 9BB2     		uxth	r3, r3
 1200 0072 0122     		movs	r2, #1
 1201 0074 01EB4501 		add	r1, r1, r5, lsl #1
 1202 0078 2430     		adds	r0, r0, #36
 1203 007a FFF7FEFF 		bl	Telemetry_BindGimbalToChannel
 1204              	.LVL89:
 638:Task/Task_Telemetry.c ****         !Telemetry_BindGimbalToChannel(&Telemetry_Monitor.RC_Setting, \
 1205              		.loc 1 638 78 view .LVU377
 1206 007e 0028     		cmp	r0, #0
 1207 0080 E6D0     		beq	.L74
 646:Task/Task_Telemetry.c ****                                        Gimbal_Roll, \
 1208              		.loc 1 646 58 view .LVU378
 1209 0082 1C4B     		ldr	r3, .L86
 1210 0084 D968     		ldr	r1, [r3, #12]
 648:Task/Task_Telemetry.c ****                                        Telemetry_Monitor.receiver_value_mid, \
 1211              		.loc 1 648 57 view .LVU379
ARM GAS  C:\Users\8bit\AppData\Local\Temp\ccdsu2xB.s 			page 41


 1212 0086 1C48     		ldr	r0, .L86+4
 1213 0088 B0F91030 		ldrsh	r3, [r0, #16]
 649:Task/Task_Telemetry.c ****                                        Telemetry_Monitor.receiver_value_max) ||
 1214              		.loc 1 649 57 view .LVU380
 1215 008c B0F90E20 		ldrsh	r2, [r0, #14]
 650:Task/Task_Telemetry.c ****         !Telemetry_BindGimbalToChannel(&Telemetry_Monitor.RC_Setting, \
 1216              		.loc 1 650 57 view .LVU381
 1217 0090 B0F90C50 		ldrsh	r5, [r0, #12]
 645:Task/Task_Telemetry.c ****                                        &Receiver_Obj.data.val_list[roll_ch], \
 1218              		.loc 1 645 10 view .LVU382
 1219 0094 ADB2     		uxth	r5, r5
 1220 0096 0195     		str	r5, [sp, #4]
 1221 0098 92B2     		uxth	r2, r2
 1222 009a 0092     		str	r2, [sp]
 1223 009c 9BB2     		uxth	r3, r3
 1224 009e 0222     		movs	r2, #2
 1225 00a0 01EB4601 		add	r1, r1, r6, lsl #1
 1226 00a4 2430     		adds	r0, r0, #36
 1227 00a6 FFF7FEFF 		bl	Telemetry_BindGimbalToChannel
 1228              	.LVL90:
 644:Task/Task_Telemetry.c ****         !Telemetry_BindGimbalToChannel(&Telemetry_Monitor.RC_Setting, \
 1229              		.loc 1 644 78 view .LVU383
 1230 00aa 0028     		cmp	r0, #0
 1231 00ac D0D0     		beq	.L74
 652:Task/Task_Telemetry.c ****                                        Gimbal_Yaw, \
 1232              		.loc 1 652 58 view .LVU384
 1233 00ae 114B     		ldr	r3, .L86
 1234 00b0 D968     		ldr	r1, [r3, #12]
 654:Task/Task_Telemetry.c ****                                        Telemetry_Monitor.receiver_value_mid, \
 1235              		.loc 1 654 57 view .LVU385
 1236 00b2 1148     		ldr	r0, .L86+4
 1237 00b4 B0F91030 		ldrsh	r3, [r0, #16]
 655:Task/Task_Telemetry.c ****                                        Telemetry_Monitor.receiver_value_max))
 1238              		.loc 1 655 57 view .LVU386
 1239 00b8 B0F90E20 		ldrsh	r2, [r0, #14]
 656:Task/Task_Telemetry.c ****         return false;
 1240              		.loc 1 656 57 view .LVU387
 1241 00bc B0F90C50 		ldrsh	r5, [r0, #12]
 651:Task/Task_Telemetry.c ****                                        &Receiver_Obj.data.val_list[yaw_ch], \
 1242              		.loc 1 651 10 view .LVU388
 1243 00c0 ADB2     		uxth	r5, r5
 1244 00c2 0195     		str	r5, [sp, #4]
 1245 00c4 92B2     		uxth	r2, r2
 1246 00c6 0092     		str	r2, [sp]
 1247 00c8 9BB2     		uxth	r3, r3
 1248 00ca 0322     		movs	r2, #3
 1249 00cc 01EB4401 		add	r1, r1, r4, lsl #1
 1250 00d0 2430     		adds	r0, r0, #36
 1251 00d2 FFF7FEFF 		bl	Telemetry_BindGimbalToChannel
 1252              	.LVL91:
 650:Task/Task_Telemetry.c ****         !Telemetry_BindGimbalToChannel(&Telemetry_Monitor.RC_Setting, \
 1253              		.loc 1 650 78 view .LVU389
 1254 00d6 0028     		cmp	r0, #0
 1255 00d8 BBD1     		bne	.L73
 1256 00da B9E7     		b	.L74
 1257              	.LVL92:
 1258              	.L75:
ARM GAS  C:\Users\8bit\AppData\Local\Temp\ccdsu2xB.s 			page 42


 1259              	.LCFI22:
 1260              		.cfi_def_cfa_offset 0
 1261              		.cfi_restore 4
 1262              		.cfi_restore 5
 1263              		.cfi_restore 6
 1264              		.cfi_restore 7
 1265              		.cfi_restore 14
 631:Task/Task_Telemetry.c **** 
 1266              		.loc 1 631 16 view .LVU390
 1267 00dc 0020     		movs	r0, #0
 1268              	.LVL93:
 660:Task/Task_Telemetry.c **** 
 1269              		.loc 1 660 1 view .LVU391
 1270 00de 7047     		bx	lr
 1271              	.LVL94:
 1272              	.L76:
 1273              	.LCFI23:
 1274              		.cfi_def_cfa_offset 32
 1275              		.cfi_offset 4, -20
 1276              		.cfi_offset 5, -16
 1277              		.cfi_offset 6, -12
 1278              		.cfi_offset 7, -8
 1279              		.cfi_offset 14, -4
 631:Task/Task_Telemetry.c **** 
 1280              		.loc 1 631 16 view .LVU392
 1281 00e0 0020     		movs	r0, #0
 1282              	.LVL95:
 631:Task/Task_Telemetry.c **** 
 1283              		.loc 1 631 16 view .LVU393
 1284 00e2 B6E7     		b	.L73
 1285              	.LVL96:
 1286              	.L77:
 631:Task/Task_Telemetry.c **** 
 1287              		.loc 1 631 16 view .LVU394
 1288 00e4 0020     		movs	r0, #0
 1289              	.LVL97:
 631:Task/Task_Telemetry.c **** 
 1290              		.loc 1 631 16 view .LVU395
 1291 00e6 B4E7     		b	.L73
 1292              	.LVL98:
 1293              	.L78:
 631:Task/Task_Telemetry.c **** 
 1294              		.loc 1 631 16 view .LVU396
 1295 00e8 0020     		movs	r0, #0
 1296              	.LVL99:
 631:Task/Task_Telemetry.c **** 
 1297              		.loc 1 631 16 view .LVU397
 1298 00ea B2E7     		b	.L73
 1299              	.LVL100:
 1300              	.L79:
 631:Task/Task_Telemetry.c **** 
 1301              		.loc 1 631 16 view .LVU398
 1302 00ec 0020     		movs	r0, #0
 1303              	.LVL101:
 631:Task/Task_Telemetry.c **** 
 1304              		.loc 1 631 16 view .LVU399
 1305 00ee B0E7     		b	.L73
ARM GAS  C:\Users\8bit\AppData\Local\Temp\ccdsu2xB.s 			page 43


 1306              	.LVL102:
 1307              	.L80:
 631:Task/Task_Telemetry.c **** 
 1308              		.loc 1 631 16 view .LVU400
 1309 00f0 0020     		movs	r0, #0
 1310              	.LVL103:
 631:Task/Task_Telemetry.c **** 
 1311              		.loc 1 631 16 view .LVU401
 1312 00f2 AEE7     		b	.L73
 1313              	.L87:
 1314              		.align	2
 1315              	.L86:
 1316 00f4 00000000 		.word	.LANCHOR5
 1317 00f8 00000000 		.word	.LANCHOR2
 1318              		.cfi_endproc
 1319              	.LFE2087:
 1321              		.section	.text.Telemetry_BindToggleToChannel,"ax",%progbits
 1322              		.align	1
 1323              		.syntax unified
 1324              		.thumb
 1325              		.thumb_func
 1327              	Telemetry_BindToggleToChannel:
 1328              	.LVL104:
 1329              	.LFB2079:
 287:Task/Task_Telemetry.c ****     Telemetry_ChannelSet_TypeDef *channel_set = NULL;
 1330              		.loc 1 287 1 is_stmt 1 view -0
 1331              		.cfi_startproc
 1332              		@ args = 4, pretend = 0, frame = 0
 1333              		@ frame_needed = 0, uses_anonymous_args = 0
 287:Task/Task_Telemetry.c ****     Telemetry_ChannelSet_TypeDef *channel_set = NULL;
 1334              		.loc 1 287 1 is_stmt 0 view .LVU403
 1335 0000 F8B5     		push	{r3, r4, r5, r6, r7, lr}
 1336              	.LCFI24:
 1337              		.cfi_def_cfa_offset 24
 1338              		.cfi_offset 3, -24
 1339              		.cfi_offset 4, -20
 1340              		.cfi_offset 5, -16
 1341              		.cfi_offset 6, -12
 1342              		.cfi_offset 7, -8
 1343              		.cfi_offset 14, -4
 1344 0002 BDF81870 		ldrh	r7, [sp, #24]
 288:Task/Task_Telemetry.c **** 
 1345              		.loc 1 288 5 is_stmt 1 view .LVU404
 1346              	.LVL105:
 290:Task/Task_Telemetry.c ****         (!data_obj) ||
 1347              		.loc 1 290 5 view .LVU405
 290:Task/Task_Telemetry.c ****         (!data_obj) ||
 1348              		.loc 1 290 8 is_stmt 0 view .LVU406
 1349 0006 28B3     		cbz	r0, .L91
 1350 0008 0C46     		mov	r4, r1
 1351 000a 1646     		mov	r6, r2
 1352 000c 1D46     		mov	r5, r3
 290:Task/Task_Telemetry.c ****         (!data_obj) ||
 1353              		.loc 1 290 25 discriminator 1 view .LVU407
 1354 000e 19B3     		cbz	r1, .L92
 292:Task/Task_Telemetry.c ****         (trigger_max_range > Telemetry_Monitor.receiver_value_max))
 1355              		.loc 1 292 47 view .LVU408
ARM GAS  C:\Users\8bit\AppData\Local\Temp\ccdsu2xB.s 			page 44


 1356 0010 144B     		ldr	r3, .L97
 1357              	.LVL106:
 292:Task/Task_Telemetry.c ****         (trigger_max_range > Telemetry_Monitor.receiver_value_max))
 1358              		.loc 1 292 47 view .LVU409
 1359 0012 B3F91030 		ldrsh	r3, [r3, #16]
 291:Task/Task_Telemetry.c ****         (trigger_min_range < Telemetry_Monitor.receiver_value_min) ||
 1360              		.loc 1 291 21 view .LVU410
 1361 0016 9D42     		cmp	r5, r3
 1362 0018 20DB     		blt	.L93
 293:Task/Task_Telemetry.c ****         return false;
 1363              		.loc 1 293 47 view .LVU411
 1364 001a 124B     		ldr	r3, .L97
 1365 001c B3F90C30 		ldrsh	r3, [r3, #12]
 292:Task/Task_Telemetry.c ****         (trigger_max_range > Telemetry_Monitor.receiver_value_max))
 1366              		.loc 1 292 68 view .LVU412
 1367 0020 9F42     		cmp	r7, r3
 1368 0022 1DDC     		bgt	.L94
 296:Task/Task_Telemetry.c **** 
 1369              		.loc 1 296 5 is_stmt 1 view .LVU413
 296:Task/Task_Telemetry.c **** 
 1370              		.loc 1 296 62 is_stmt 0 view .LVU414
 1371 0024 104B     		ldr	r3, .L97+4
 1372 0026 DB6A     		ldr	r3, [r3, #44]
 296:Task/Task_Telemetry.c **** 
 1373              		.loc 1 296 51 view .LVU415
 1374 0028 1420     		movs	r0, #20
 1375              	.LVL107:
 296:Task/Task_Telemetry.c **** 
 1376              		.loc 1 296 51 view .LVU416
 1377 002a 9847     		blx	r3
 1378              	.LVL108:
 298:Task/Task_Telemetry.c ****     {
 1379              		.loc 1 298 5 is_stmt 1 view .LVU417
 298:Task/Task_Telemetry.c ****     {
 1380              		.loc 1 298 8 is_stmt 0 view .LVU418
 1381 002c 0146     		mov	r1, r0
 1382 002e 60B1     		cbz	r0, .L96
 304:Task/Task_Telemetry.c ****     channel_set->max = trigger_max_range;
 1383              		.loc 1 304 5 is_stmt 1 view .LVU419
 304:Task/Task_Telemetry.c ****     channel_set->max = trigger_max_range;
 1384              		.loc 1 304 30 is_stmt 0 view .LVU420
 1385 0030 C460     		str	r4, [r0, #12]
 305:Task/Task_Telemetry.c ****     channel_set->min = trigger_min_range;
 1386              		.loc 1 305 5 is_stmt 1 view .LVU421
 305:Task/Task_Telemetry.c ****     channel_set->min = trigger_min_range;
 1387              		.loc 1 305 22 is_stmt 0 view .LVU422
 1388 0032 0781     		strh	r7, [r0, #8]	@ movhi
 306:Task/Task_Telemetry.c **** 
 1389              		.loc 1 306 5 is_stmt 1 view .LVU423
 306:Task/Task_Telemetry.c **** 
 1390              		.loc 1 306 22 is_stmt 0 view .LVU424
 1391 0034 8580     		strh	r5, [r0, #4]	@ movhi
 308:Task/Task_Telemetry.c ****     toggle->combo_list.mode = by_order;
 1392              		.loc 1 308 5 is_stmt 1 view .LVU425
 308:Task/Task_Telemetry.c ****     toggle->combo_list.mode = by_order;
 1393              		.loc 1 308 23 is_stmt 0 view .LVU426
 1394 0036 0124     		movs	r4, #1
ARM GAS  C:\Users\8bit\AppData\Local\Temp\ccdsu2xB.s 			page 45


 1395              	.LVL109:
 308:Task/Task_Telemetry.c ****     toggle->combo_list.mode = by_order;
 1396              		.loc 1 308 23 view .LVU427
 1397 0038 3475     		strb	r4, [r6, #20]
 1398              	.LVL110:
 309:Task/Task_Telemetry.c ****     toggle->combo_list.compare_callback = NULL;
 1399              		.loc 1 309 5 is_stmt 1 view .LVU428
 309:Task/Task_Telemetry.c ****     toggle->combo_list.compare_callback = NULL;
 1400              		.loc 1 309 29 is_stmt 0 view .LVU429
 1401 003a 3470     		strb	r4, [r6]
 310:Task/Task_Telemetry.c ****     List_ItemInit(&(toggle->combo_list), channel_set);
 1402              		.loc 1 310 5 is_stmt 1 view .LVU430
 310:Task/Task_Telemetry.c ****     List_ItemInit(&(toggle->combo_list), channel_set);
 1403              		.loc 1 310 41 is_stmt 0 view .LVU431
 1404 003c 0023     		movs	r3, #0
 1405 003e 7360     		str	r3, [r6, #4]
 311:Task/Task_Telemetry.c **** 
 1406              		.loc 1 311 5 is_stmt 1 view .LVU432
 1407 0040 3046     		mov	r0, r6
 1408              	.LVL111:
 311:Task/Task_Telemetry.c **** 
 1409              		.loc 1 311 5 is_stmt 0 view .LVU433
 1410 0042 FFF7FEFF 		bl	List_ItemInit
 1411              	.LVL112:
 313:Task/Task_Telemetry.c **** }
 1412              		.loc 1 313 5 is_stmt 1 view .LVU434
 313:Task/Task_Telemetry.c **** }
 1413              		.loc 1 313 12 is_stmt 0 view .LVU435
 1414 0046 2046     		mov	r0, r4
 1415 0048 09E0     		b	.L89
 1416              	.LVL113:
 1417              	.L96:
 300:Task/Task_Telemetry.c ****         return false;
 1418              		.loc 1 300 9 is_stmt 1 view .LVU436
 300:Task/Task_Telemetry.c ****         return false;
 1419              		.loc 1 300 20 is_stmt 0 view .LVU437
 1420 004a 074B     		ldr	r3, .L97+4
 1421 004c 1B6B     		ldr	r3, [r3, #48]
 300:Task/Task_Telemetry.c ****         return false;
 1422              		.loc 1 300 9 view .LVU438
 1423 004e 9847     		blx	r3
 1424              	.LVL114:
 301:Task/Task_Telemetry.c ****     }
 1425              		.loc 1 301 9 is_stmt 1 view .LVU439
 301:Task/Task_Telemetry.c ****     }
 1426              		.loc 1 301 16 is_stmt 0 view .LVU440
 1427 0050 0020     		movs	r0, #0
 1428 0052 04E0     		b	.L89
 1429              	.LVL115:
 1430              	.L91:
 294:Task/Task_Telemetry.c **** 
 1431              		.loc 1 294 16 view .LVU441
 1432 0054 0020     		movs	r0, #0
 1433              	.LVL116:
 294:Task/Task_Telemetry.c **** 
 1434              		.loc 1 294 16 view .LVU442
 1435 0056 02E0     		b	.L89
ARM GAS  C:\Users\8bit\AppData\Local\Temp\ccdsu2xB.s 			page 46


 1436              	.LVL117:
 1437              	.L92:
 294:Task/Task_Telemetry.c **** 
 1438              		.loc 1 294 16 view .LVU443
 1439 0058 0020     		movs	r0, #0
 1440              	.LVL118:
 294:Task/Task_Telemetry.c **** 
 1441              		.loc 1 294 16 view .LVU444
 1442 005a 00E0     		b	.L89
 1443              	.LVL119:
 1444              	.L93:
 294:Task/Task_Telemetry.c **** 
 1445              		.loc 1 294 16 view .LVU445
 1446 005c 0020     		movs	r0, #0
 1447              	.LVL120:
 1448              	.L89:
 314:Task/Task_Telemetry.c **** 
 1449              		.loc 1 314 1 view .LVU446
 1450 005e F8BD     		pop	{r3, r4, r5, r6, r7, pc}
 1451              	.LVL121:
 1452              	.L94:
 294:Task/Task_Telemetry.c **** 
 1453              		.loc 1 294 16 view .LVU447
 1454 0060 0020     		movs	r0, #0
 1455              	.LVL122:
 294:Task/Task_Telemetry.c **** 
 1456              		.loc 1 294 16 view .LVU448
 1457 0062 FCE7     		b	.L89
 1458              	.L98:
 1459              		.align	2
 1460              	.L97:
 1461 0064 00000000 		.word	.LANCHOR2
 1462 0068 00000000 		.word	SrvOsCommon
 1463              		.cfi_endproc
 1464              	.LFE2079:
 1466              		.section	.text.Telemetry_AddToggleCombo,"ax",%progbits
 1467              		.align	1
 1468              		.syntax unified
 1469              		.thumb
 1470              		.thumb_func
 1472              	Telemetry_AddToggleCombo:
 1473              	.LVL123:
 1474              	.LFB2080:
 317:Task/Task_Telemetry.c ****     Telemetry_ChannelSet_TypeDef *channel_set = NULL;
 1475              		.loc 1 317 1 is_stmt 1 view -0
 1476              		.cfi_startproc
 1477              		@ args = 4, pretend = 0, frame = 0
 1478              		@ frame_needed = 0, uses_anonymous_args = 0
 317:Task/Task_Telemetry.c ****     Telemetry_ChannelSet_TypeDef *channel_set = NULL;
 1479              		.loc 1 317 1 is_stmt 0 view .LVU450
 1480 0000 2DE9F843 		push	{r3, r4, r5, r6, r7, r8, r9, lr}
 1481              	.LCFI25:
 1482              		.cfi_def_cfa_offset 32
 1483              		.cfi_offset 3, -32
 1484              		.cfi_offset 4, -28
 1485              		.cfi_offset 5, -24
 1486              		.cfi_offset 6, -20
ARM GAS  C:\Users\8bit\AppData\Local\Temp\ccdsu2xB.s 			page 47


 1487              		.cfi_offset 7, -16
 1488              		.cfi_offset 8, -12
 1489              		.cfi_offset 9, -8
 1490              		.cfi_offset 14, -4
 1491 0004 BDF82070 		ldrh	r7, [sp, #32]
 318:Task/Task_Telemetry.c ****     item_obj *item = NULL;
 1492              		.loc 1 318 5 is_stmt 1 view .LVU451
 1493              	.LVL124:
 319:Task/Task_Telemetry.c **** 
 1494              		.loc 1 319 5 view .LVU452
 321:Task/Task_Telemetry.c ****         (!data_obj) ||
 1495              		.loc 1 321 5 view .LVU453
 321:Task/Task_Telemetry.c ****         (!data_obj) ||
 1496              		.loc 1 321 8 is_stmt 0 view .LVU454
 1497 0008 0028     		cmp	r0, #0
 1498 000a 36D0     		beq	.L103
 1499 000c 0E46     		mov	r6, r1
 1500 000e 1546     		mov	r5, r2
 1501 0010 1C46     		mov	r4, r3
 321:Task/Task_Telemetry.c ****         (!data_obj) ||
 1502              		.loc 1 321 25 discriminator 1 view .LVU455
 1503 0012 0029     		cmp	r1, #0
 1504 0014 33D0     		beq	.L104
 323:Task/Task_Telemetry.c ****         (trigger_max_range > Telemetry_Monitor.receiver_value_max))
 1505              		.loc 1 323 47 view .LVU456
 1506 0016 1D4B     		ldr	r3, .L110
 1507              	.LVL125:
 323:Task/Task_Telemetry.c ****         (trigger_max_range > Telemetry_Monitor.receiver_value_max))
 1508              		.loc 1 323 47 view .LVU457
 1509 0018 B3F91030 		ldrsh	r3, [r3, #16]
 322:Task/Task_Telemetry.c ****         (trigger_min_range < Telemetry_Monitor.receiver_value_min) ||
 1510              		.loc 1 322 21 view .LVU458
 1511 001c 9C42     		cmp	r4, r3
 1512 001e 30DB     		blt	.L105
 324:Task/Task_Telemetry.c ****         return false;
 1513              		.loc 1 324 47 view .LVU459
 1514 0020 1A4B     		ldr	r3, .L110
 1515 0022 B3F90C30 		ldrsh	r3, [r3, #12]
 323:Task/Task_Telemetry.c ****         (trigger_max_range > Telemetry_Monitor.receiver_value_max))
 1516              		.loc 1 323 68 view .LVU460
 1517 0026 9F42     		cmp	r7, r3
 1518 0028 2EDC     		bgt	.L106
 327:Task/Task_Telemetry.c **** 
 1519              		.loc 1 327 5 is_stmt 1 view .LVU461
 327:Task/Task_Telemetry.c **** 
 1520              		.loc 1 327 62 is_stmt 0 view .LVU462
 1521 002a 194B     		ldr	r3, .L110+4
 1522 002c DB6A     		ldr	r3, [r3, #44]
 327:Task/Task_Telemetry.c **** 
 1523              		.loc 1 327 51 view .LVU463
 1524 002e 1420     		movs	r0, #20
 1525              	.LVL126:
 327:Task/Task_Telemetry.c **** 
 1526              		.loc 1 327 51 view .LVU464
 1527 0030 9847     		blx	r3
 1528              	.LVL127:
 329:Task/Task_Telemetry.c ****     {
ARM GAS  C:\Users\8bit\AppData\Local\Temp\ccdsu2xB.s 			page 48


 1529              		.loc 1 329 5 is_stmt 1 view .LVU465
 329:Task/Task_Telemetry.c ****     {
 1530              		.loc 1 329 8 is_stmt 0 view .LVU466
 1531 0032 8046     		mov	r8, r0
 1532 0034 B8B1     		cbz	r0, .L108
 335:Task/Task_Telemetry.c **** 
 1533              		.loc 1 335 5 is_stmt 1 view .LVU467
 335:Task/Task_Telemetry.c **** 
 1534              		.loc 1 335 35 is_stmt 0 view .LVU468
 1535 0036 164B     		ldr	r3, .L110+4
 1536 0038 DB6A     		ldr	r3, [r3, #44]
 335:Task/Task_Telemetry.c **** 
 1537              		.loc 1 335 24 view .LVU469
 1538 003a 1420     		movs	r0, #20
 1539              	.LVL128:
 335:Task/Task_Telemetry.c **** 
 1540              		.loc 1 335 24 view .LVU470
 1541 003c 9847     		blx	r3
 1542              	.LVL129:
 337:Task/Task_Telemetry.c ****     {
 1543              		.loc 1 337 5 is_stmt 1 view .LVU471
 337:Task/Task_Telemetry.c ****     {
 1544              		.loc 1 337 8 is_stmt 0 view .LVU472
 1545 003e 8146     		mov	r9, r0
 1546 0040 B0B1     		cbz	r0, .L109
 343:Task/Task_Telemetry.c ****     channel_set->max = trigger_max_range;
 1547              		.loc 1 343 5 is_stmt 1 view .LVU473
 343:Task/Task_Telemetry.c ****     channel_set->max = trigger_max_range;
 1548              		.loc 1 343 30 is_stmt 0 view .LVU474
 1549 0042 C8F80C60 		str	r6, [r8, #12]
 344:Task/Task_Telemetry.c ****     channel_set->min = trigger_min_range;
 1550              		.loc 1 344 5 is_stmt 1 view .LVU475
 344:Task/Task_Telemetry.c ****     channel_set->min = trigger_min_range;
 1551              		.loc 1 344 22 is_stmt 0 view .LVU476
 1552 0046 A8F80870 		strh	r7, [r8, #8]	@ movhi
 345:Task/Task_Telemetry.c **** 
 1553              		.loc 1 345 5 is_stmt 1 view .LVU477
 345:Task/Task_Telemetry.c **** 
 1554              		.loc 1 345 22 is_stmt 0 view .LVU478
 1555 004a A8F80440 		strh	r4, [r8, #4]	@ movhi
 347:Task/Task_Telemetry.c ****     List_ItemInit(item, channel_set);
 1556              		.loc 1 347 5 is_stmt 1 view .LVU479
 347:Task/Task_Telemetry.c ****     List_ItemInit(item, channel_set);
 1557              		.loc 1 347 11 is_stmt 0 view .LVU480
 1558 004e 2B7D     		ldrb	r3, [r5, #20]	@ zero_extendqisi2
 347:Task/Task_Telemetry.c ****     List_ItemInit(item, channel_set);
 1559              		.loc 1 347 22 view .LVU481
 1560 0050 0133     		adds	r3, r3, #1
 1561 0052 2B75     		strb	r3, [r5, #20]
 348:Task/Task_Telemetry.c ****     List_Insert_Item(&toggle->combo_list, item);
 1562              		.loc 1 348 5 is_stmt 1 view .LVU482
 1563 0054 4146     		mov	r1, r8
 1564 0056 FFF7FEFF 		bl	List_ItemInit
 1565              	.LVL130:
 349:Task/Task_Telemetry.c **** 
 1566              		.loc 1 349 5 view .LVU483
 1567 005a 4946     		mov	r1, r9
ARM GAS  C:\Users\8bit\AppData\Local\Temp\ccdsu2xB.s 			page 49


 1568 005c 2846     		mov	r0, r5
 1569 005e FFF7FEFF 		bl	List_Insert_Item
 1570              	.LVL131:
 351:Task/Task_Telemetry.c **** }
 1571              		.loc 1 351 5 view .LVU484
 351:Task/Task_Telemetry.c **** }
 1572              		.loc 1 351 12 is_stmt 0 view .LVU485
 1573 0062 0120     		movs	r0, #1
 1574 0064 0EE0     		b	.L100
 1575              	.LVL132:
 1576              	.L108:
 331:Task/Task_Telemetry.c ****         return false;
 1577              		.loc 1 331 9 is_stmt 1 view .LVU486
 331:Task/Task_Telemetry.c ****         return false;
 1578              		.loc 1 331 20 is_stmt 0 view .LVU487
 1579 0066 0A4B     		ldr	r3, .L110+4
 1580 0068 1B6B     		ldr	r3, [r3, #48]
 331:Task/Task_Telemetry.c ****         return false;
 1581              		.loc 1 331 9 view .LVU488
 1582 006a 9847     		blx	r3
 1583              	.LVL133:
 332:Task/Task_Telemetry.c ****     }
 1584              		.loc 1 332 9 is_stmt 1 view .LVU489
 332:Task/Task_Telemetry.c ****     }
 1585              		.loc 1 332 16 is_stmt 0 view .LVU490
 1586 006c 0020     		movs	r0, #0
 1587 006e 09E0     		b	.L100
 1588              	.LVL134:
 1589              	.L109:
 339:Task/Task_Telemetry.c ****         return false;
 1590              		.loc 1 339 9 is_stmt 1 view .LVU491
 339:Task/Task_Telemetry.c ****         return false;
 1591              		.loc 1 339 20 is_stmt 0 view .LVU492
 1592 0070 074B     		ldr	r3, .L110+4
 1593 0072 1B6B     		ldr	r3, [r3, #48]
 339:Task/Task_Telemetry.c ****         return false;
 1594              		.loc 1 339 9 view .LVU493
 1595 0074 9847     		blx	r3
 1596              	.LVL135:
 340:Task/Task_Telemetry.c ****     }
 1597              		.loc 1 340 9 is_stmt 1 view .LVU494
 340:Task/Task_Telemetry.c ****     }
 1598              		.loc 1 340 16 is_stmt 0 view .LVU495
 1599 0076 0020     		movs	r0, #0
 1600 0078 04E0     		b	.L100
 1601              	.LVL136:
 1602              	.L103:
 325:Task/Task_Telemetry.c **** 
 1603              		.loc 1 325 16 view .LVU496
 1604 007a 0020     		movs	r0, #0
 1605              	.LVL137:
 325:Task/Task_Telemetry.c **** 
 1606              		.loc 1 325 16 view .LVU497
 1607 007c 02E0     		b	.L100
 1608              	.LVL138:
 1609              	.L104:
 325:Task/Task_Telemetry.c **** 
ARM GAS  C:\Users\8bit\AppData\Local\Temp\ccdsu2xB.s 			page 50


 1610              		.loc 1 325 16 view .LVU498
 1611 007e 0020     		movs	r0, #0
 1612              	.LVL139:
 325:Task/Task_Telemetry.c **** 
 1613              		.loc 1 325 16 view .LVU499
 1614 0080 00E0     		b	.L100
 1615              	.LVL140:
 1616              	.L105:
 325:Task/Task_Telemetry.c **** 
 1617              		.loc 1 325 16 view .LVU500
 1618 0082 0020     		movs	r0, #0
 1619              	.LVL141:
 1620              	.L100:
 352:Task/Task_Telemetry.c **** 
 1621              		.loc 1 352 1 view .LVU501
 1622 0084 BDE8F883 		pop	{r3, r4, r5, r6, r7, r8, r9, pc}
 1623              	.LVL142:
 1624              	.L106:
 325:Task/Task_Telemetry.c **** 
 1625              		.loc 1 325 16 view .LVU502
 1626 0088 0020     		movs	r0, #0
 1627              	.LVL143:
 325:Task/Task_Telemetry.c **** 
 1628              		.loc 1 325 16 view .LVU503
 1629 008a FBE7     		b	.L100
 1630              	.L111:
 1631              		.align	2
 1632              	.L110:
 1633 008c 00000000 		.word	.LANCHOR2
 1634 0090 00000000 		.word	SrvOsCommon
 1635              		.cfi_endproc
 1636              	.LFE2080:
 1638              		.section	.text.Telemetry_Bind_Toggle,"ax",%progbits
 1639              		.align	1
 1640              		.syntax unified
 1641              		.thumb
 1642              		.thumb_func
 1644              	Telemetry_Bind_Toggle:
 1645              	.LVL144:
 1646              	.LFB2088:
 663:Task/Task_Telemetry.c ****     int16_t start = 0;
 1647              		.loc 1 663 1 is_stmt 1 view -0
 1648              		.cfi_startproc
 1649              		@ args = 4, pretend = 0, frame = 0
 1650              		@ frame_needed = 0, uses_anonymous_args = 0
 663:Task/Task_Telemetry.c ****     int16_t start = 0;
 1651              		.loc 1 663 1 is_stmt 0 view .LVU505
 1652 0000 2DE9F041 		push	{r4, r5, r6, r7, r8, lr}
 1653              	.LCFI26:
 1654              		.cfi_def_cfa_offset 24
 1655              		.cfi_offset 4, -24
 1656              		.cfi_offset 5, -20
 1657              		.cfi_offset 6, -16
 1658              		.cfi_offset 7, -12
 1659              		.cfi_offset 8, -8
 1660              		.cfi_offset 14, -4
 1661 0004 82B0     		sub	sp, sp, #8
ARM GAS  C:\Users\8bit\AppData\Local\Temp\ccdsu2xB.s 			page 51


 1662              	.LCFI27:
 1663              		.cfi_def_cfa_offset 32
 1664 0006 0F46     		mov	r7, r1
 1665 0008 1646     		mov	r6, r2
 1666 000a 9846     		mov	r8, r3
 664:Task/Task_Telemetry.c ****     int16_t end = 0;
 1667              		.loc 1 664 5 is_stmt 1 view .LVU506
 1668              	.LVL145:
 665:Task/Task_Telemetry.c ****     
 1669              		.loc 1 665 5 view .LVU507
 668:Task/Task_Telemetry.c ****                                       &Receiver_Obj.data.val_list[arm_toggle_ch], \
 1670              		.loc 1 668 5 view .LVU508
 669:Task/Task_Telemetry.c ****                                       &Telemetry_Monitor.RC_Setting.ARM_Toggle, \
 1671              		.loc 1 669 57 is_stmt 0 view .LVU509
 1672 000c 424B     		ldr	r3, .L116
 1673              	.LVL146:
 669:Task/Task_Telemetry.c ****                                       &Telemetry_Monitor.RC_Setting.ARM_Toggle, \
 1674              		.loc 1 669 57 view .LVU510
 1675 000e D968     		ldr	r1, [r3, #12]
 1676              	.LVL147:
 671:Task/Task_Telemetry.c ****                                       Telemetry_Monitor.receiver_value_mid))
 1677              		.loc 1 671 56 view .LVU511
 1678 0010 424C     		ldr	r4, .L116+4
 1679 0012 B4F91030 		ldrsh	r3, [r4, #16]
 672:Task/Task_Telemetry.c ****         return false;
 1680              		.loc 1 672 56 view .LVU512
 1681 0016 B4F90E50 		ldrsh	r5, [r4, #14]
 668:Task/Task_Telemetry.c ****                                       &Receiver_Obj.data.val_list[arm_toggle_ch], \
 1682              		.loc 1 668 9 view .LVU513
 1683 001a ADB2     		uxth	r5, r5
 1684 001c 0095     		str	r5, [sp]
 1685 001e 9BB2     		uxth	r3, r3
 1686 0020 04F1D402 		add	r2, r4, #212
 1687              	.LVL148:
 668:Task/Task_Telemetry.c ****                                       &Receiver_Obj.data.val_list[arm_toggle_ch], \
 1688              		.loc 1 668 9 view .LVU514
 1689 0024 01EB4001 		add	r1, r1, r0, lsl #1
 1690 0028 04F12400 		add	r0, r4, #36
 1691              	.LVL149:
 668:Task/Task_Telemetry.c ****                                       &Receiver_Obj.data.val_list[arm_toggle_ch], \
 1692              		.loc 1 668 9 view .LVU515
 1693 002c FFF7FEFF 		bl	Telemetry_BindToggleToChannel
 1694              	.LVL150:
 668:Task/Task_Telemetry.c ****                                       &Receiver_Obj.data.val_list[arm_toggle_ch], \
 1695              		.loc 1 668 7 view .LVU516
 1696 0030 10B9     		cbnz	r0, .L115
 1697              	.LVL151:
 1698              	.L113:
 728:Task/Task_Telemetry.c **** 
 1699              		.loc 1 728 1 view .LVU517
 1700 0032 02B0     		add	sp, sp, #8
 1701              	.LCFI28:
 1702              		.cfi_remember_state
 1703              		.cfi_def_cfa_offset 24
 1704              		@ sp needed
 1705 0034 BDE8F081 		pop	{r4, r5, r6, r7, r8, pc}
 1706              	.LVL152:
ARM GAS  C:\Users\8bit\AppData\Local\Temp\ccdsu2xB.s 			page 52


 1707              	.L115:
 1708              	.LCFI29:
 1709              		.cfi_restore_state
 676:Task/Task_Telemetry.c ****                                       &Receiver_Obj.data.val_list[buzzer_toggle_ch], \
 1710              		.loc 1 676 5 is_stmt 1 view .LVU518
 677:Task/Task_Telemetry.c ****                                       &Telemetry_Monitor.RC_Setting.Buzzer_Toggle, \
 1711              		.loc 1 677 57 is_stmt 0 view .LVU519
 1712 0038 374B     		ldr	r3, .L116
 1713 003a D968     		ldr	r1, [r3, #12]
 679:Task/Task_Telemetry.c ****                                       Telemetry_Monitor.receiver_value_max))
 1714              		.loc 1 679 56 view .LVU520
 1715 003c 2046     		mov	r0, r4
 1716 003e B4F90E30 		ldrsh	r3, [r4, #14]
 680:Task/Task_Telemetry.c ****         return false;
 1717              		.loc 1 680 56 view .LVU521
 1718 0042 B4F90C20 		ldrsh	r2, [r4, #12]
 676:Task/Task_Telemetry.c ****                                       &Receiver_Obj.data.val_list[buzzer_toggle_ch], \
 1719              		.loc 1 676 9 view .LVU522
 1720 0046 92B2     		uxth	r2, r2
 1721 0048 0092     		str	r2, [sp]
 1722 004a 9BB2     		uxth	r3, r3
 1723 004c 04F58272 		add	r2, r4, #260
 1724 0050 01EB4601 		add	r1, r1, r6, lsl #1
 1725 0054 2430     		adds	r0, r0, #36
 1726 0056 FFF7FEFF 		bl	Telemetry_BindToggleToChannel
 1727              	.LVL153:
 676:Task/Task_Telemetry.c ****                                       &Receiver_Obj.data.val_list[buzzer_toggle_ch], \
 1728              		.loc 1 676 7 view .LVU523
 1729 005a 0028     		cmp	r0, #0
 1730 005c E9D0     		beq	.L113
 684:Task/Task_Telemetry.c ****     start = Telemetry_Monitor.receiver_value_min;
 1731              		.loc 1 684 5 is_stmt 1 view .LVU524
 684:Task/Task_Telemetry.c ****     start = Telemetry_Monitor.receiver_value_min;
 1732              		.loc 1 684 26 is_stmt 0 view .LVU525
 1733 005e 0320     		movs	r0, #3
 1734 0060 FFF7FEFF 		bl	Telemetry_SplitScopeValue_Into
 1735              	.LVL154:
 1736 0064 0446     		mov	r4, r0
 1737              	.LVL155:
 685:Task/Task_Telemetry.c ****     end = Telemetry_Monitor.receiver_value_min + split_val;
 1738              		.loc 1 685 5 is_stmt 1 view .LVU526
 685:Task/Task_Telemetry.c ****     end = Telemetry_Monitor.receiver_value_min + split_val;
 1739              		.loc 1 685 11 is_stmt 0 view .LVU527
 1740 0066 2D48     		ldr	r0, .L116+4
 1741 0068 B0F91030 		ldrsh	r3, [r0, #16]
 1742              	.LVL156:
 686:Task/Task_Telemetry.c ****     if(!Telemetry_BindToggleToChannel(&Telemetry_Monitor.RC_Setting, \
 1743              		.loc 1 686 5 is_stmt 1 view .LVU528
 686:Task/Task_Telemetry.c ****     if(!Telemetry_BindToggleToChannel(&Telemetry_Monitor.RC_Setting, \
 1744              		.loc 1 686 28 is_stmt 0 view .LVU529
 1745 006c 9BB2     		uxth	r3, r3
 686:Task/Task_Telemetry.c ****     if(!Telemetry_BindToggleToChannel(&Telemetry_Monitor.RC_Setting, \
 1746              		.loc 1 686 48 view .LVU530
 1747 006e 1D19     		adds	r5, r3, r4
 1748 0070 ADB2     		uxth	r5, r5
 1749              	.LVL157:
 687:Task/Task_Telemetry.c ****                                       &Receiver_Obj.data.val_list[mode_toggle_ch], \
ARM GAS  C:\Users\8bit\AppData\Local\Temp\ccdsu2xB.s 			page 53


 1750              		.loc 1 687 5 is_stmt 1 view .LVU531
 688:Task/Task_Telemetry.c ****                                       &Telemetry_Monitor.RC_Setting.ControlMode_Toggle, \
 1751              		.loc 1 688 57 is_stmt 0 view .LVU532
 1752 0072 294A     		ldr	r2, .L116
 1753 0074 D168     		ldr	r1, [r2, #12]
 688:Task/Task_Telemetry.c ****                                       &Telemetry_Monitor.RC_Setting.ControlMode_Toggle, \
 1754              		.loc 1 688 66 view .LVU533
 1755 0076 7E00     		lsls	r6, r7, #1
 687:Task/Task_Telemetry.c ****                                       &Receiver_Obj.data.val_list[mode_toggle_ch], \
 1756              		.loc 1 687 9 view .LVU534
 1757 0078 0095     		str	r5, [sp]
 1758 007a 00F1EC02 		add	r2, r0, #236
 1759 007e 01EB4701 		add	r1, r1, r7, lsl #1
 1760 0082 2430     		adds	r0, r0, #36
 1761 0084 FFF7FEFF 		bl	Telemetry_BindToggleToChannel
 1762              	.LVL158:
 687:Task/Task_Telemetry.c ****                                       &Receiver_Obj.data.val_list[mode_toggle_ch], \
 1763              		.loc 1 687 7 view .LVU535
 1764 0088 0028     		cmp	r0, #0
 1765 008a D2D0     		beq	.L113
 694:Task/Task_Telemetry.c ****     end += split_val;
 1766              		.loc 1 694 5 is_stmt 1 view .LVU536
 1767              	.LVL159:
 695:Task/Task_Telemetry.c ****     if(!Telemetry_AddToggleCombo(&Telemetry_Monitor.RC_Setting, \
 1768              		.loc 1 695 5 view .LVU537
 695:Task/Task_Telemetry.c ****     if(!Telemetry_AddToggleCombo(&Telemetry_Monitor.RC_Setting, \
 1769              		.loc 1 695 9 is_stmt 0 view .LVU538
 1770 008c 2C44     		add	r4, r4, r5
 1771              	.LVL160:
 695:Task/Task_Telemetry.c ****     if(!Telemetry_AddToggleCombo(&Telemetry_Monitor.RC_Setting, \
 1772              		.loc 1 695 9 view .LVU539
 1773 008e A4B2     		uxth	r4, r4
 1774              	.LVL161:
 696:Task/Task_Telemetry.c ****                                  &Receiver_Obj.data.val_list[mode_toggle_ch], \
 1775              		.loc 1 696 5 is_stmt 1 view .LVU540
 697:Task/Task_Telemetry.c ****                                  &Telemetry_Monitor.RC_Setting.ControlMode_Toggle, \
 1776              		.loc 1 697 52 is_stmt 0 view .LVU541
 1777 0090 214B     		ldr	r3, .L116
 1778 0092 D968     		ldr	r1, [r3, #12]
 696:Task/Task_Telemetry.c ****                                  &Receiver_Obj.data.val_list[mode_toggle_ch], \
 1779              		.loc 1 696 9 view .LVU542
 1780 0094 2148     		ldr	r0, .L116+4
 1781 0096 0094     		str	r4, [sp]
 1782 0098 2B46     		mov	r3, r5
 1783 009a 00F1EC02 		add	r2, r0, #236
 1784 009e 3144     		add	r1, r1, r6
 1785 00a0 2430     		adds	r0, r0, #36
 1786 00a2 FFF7FEFF 		bl	Telemetry_AddToggleCombo
 1787              	.LVL162:
 696:Task/Task_Telemetry.c ****                                  &Receiver_Obj.data.val_list[mode_toggle_ch], \
 1788              		.loc 1 696 7 view .LVU543
 1789 00a6 0028     		cmp	r0, #0
 1790 00a8 C3D0     		beq	.L113
 703:Task/Task_Telemetry.c ****     end = Telemetry_Monitor.receiver_value_max;
 1791              		.loc 1 703 5 is_stmt 1 view .LVU544
 1792              	.LVL163:
 704:Task/Task_Telemetry.c ****     if(!Telemetry_AddToggleCombo(&Telemetry_Monitor.RC_Setting, \
ARM GAS  C:\Users\8bit\AppData\Local\Temp\ccdsu2xB.s 			page 54


 1793              		.loc 1 704 5 view .LVU545
 704:Task/Task_Telemetry.c ****     if(!Telemetry_AddToggleCombo(&Telemetry_Monitor.RC_Setting, \
 1794              		.loc 1 704 9 is_stmt 0 view .LVU546
 1795 00aa 1C48     		ldr	r0, .L116+4
 1796 00ac B0F90C30 		ldrsh	r3, [r0, #12]
 1797              	.LVL164:
 705:Task/Task_Telemetry.c ****                                  &Receiver_Obj.data.val_list[mode_toggle_ch], \
 1798              		.loc 1 705 5 is_stmt 1 view .LVU547
 706:Task/Task_Telemetry.c ****                                  &Telemetry_Monitor.RC_Setting.ControlMode_Toggle, \
 1799              		.loc 1 706 52 is_stmt 0 view .LVU548
 1800 00b0 194A     		ldr	r2, .L116
 1801 00b2 D168     		ldr	r1, [r2, #12]
 705:Task/Task_Telemetry.c ****                                  &Receiver_Obj.data.val_list[mode_toggle_ch], \
 1802              		.loc 1 705 9 view .LVU549
 1803 00b4 9BB2     		uxth	r3, r3
 705:Task/Task_Telemetry.c ****                                  &Receiver_Obj.data.val_list[mode_toggle_ch], \
 1804              		.loc 1 705 9 view .LVU550
 1805 00b6 0093     		str	r3, [sp]
 1806 00b8 2346     		mov	r3, r4
 1807              	.LVL165:
 705:Task/Task_Telemetry.c ****                                  &Receiver_Obj.data.val_list[mode_toggle_ch], \
 1808              		.loc 1 705 9 view .LVU551
 1809 00ba 00F1EC02 		add	r2, r0, #236
 1810 00be 3144     		add	r1, r1, r6
 1811 00c0 2430     		adds	r0, r0, #36
 1812 00c2 FFF7FEFF 		bl	Telemetry_AddToggleCombo
 1813              	.LVL166:
 705:Task/Task_Telemetry.c ****                                  &Receiver_Obj.data.val_list[mode_toggle_ch], \
 1814              		.loc 1 705 7 view .LVU552
 1815 00c6 0028     		cmp	r0, #0
 1816 00c8 B3D0     		beq	.L113
 713:Task/Task_Telemetry.c ****                                       &Receiver_Obj.data.val_list[blackbox_toggle_ch], \
 1817              		.loc 1 713 5 is_stmt 1 view .LVU553
 714:Task/Task_Telemetry.c ****                                       &Telemetry_Monitor.RC_Setting.Blackbox_Toggle, \
 1818              		.loc 1 714 57 is_stmt 0 view .LVU554
 1819 00ca 134B     		ldr	r3, .L116
 1820 00cc D968     		ldr	r1, [r3, #12]
 716:Task/Task_Telemetry.c ****                                       Telemetry_Monitor.receiver_value_max))
 1821              		.loc 1 716 56 view .LVU555
 1822 00ce 1348     		ldr	r0, .L116+4
 1823 00d0 B0F90E30 		ldrsh	r3, [r0, #14]
 717:Task/Task_Telemetry.c ****         return false;
 1824              		.loc 1 717 56 view .LVU556
 1825 00d4 B0F90C20 		ldrsh	r2, [r0, #12]
 713:Task/Task_Telemetry.c ****                                       &Receiver_Obj.data.val_list[blackbox_toggle_ch], \
 1826              		.loc 1 713 9 view .LVU557
 1827 00d8 92B2     		uxth	r2, r2
 1828 00da 0092     		str	r2, [sp]
 1829 00dc 9BB2     		uxth	r3, r3
 1830 00de 00F58E72 		add	r2, r0, #284
 1831 00e2 9DF82040 		ldrb	r4, [sp, #32]	@ zero_extendqisi2
 1832              	.LVL167:
 713:Task/Task_Telemetry.c ****                                       &Receiver_Obj.data.val_list[blackbox_toggle_ch], \
 1833              		.loc 1 713 9 view .LVU558
 1834 00e6 01EB4401 		add	r1, r1, r4, lsl #1
 1835 00ea 2430     		adds	r0, r0, #36
 1836 00ec FFF7FEFF 		bl	Telemetry_BindToggleToChannel
ARM GAS  C:\Users\8bit\AppData\Local\Temp\ccdsu2xB.s 			page 55


 1837              	.LVL168:
 713:Task/Task_Telemetry.c ****                                       &Receiver_Obj.data.val_list[blackbox_toggle_ch], \
 1838              		.loc 1 713 7 view .LVU559
 1839 00f0 0028     		cmp	r0, #0
 1840 00f2 9ED0     		beq	.L113
 720:Task/Task_Telemetry.c ****                                       &Receiver_Obj.data.val_list[flipover_toggle_ch], \
 1841              		.loc 1 720 5 is_stmt 1 view .LVU560
 721:Task/Task_Telemetry.c ****                                       &Telemetry_Monitor.RC_Setting.FlipOver_Toggle, \
 1842              		.loc 1 721 57 is_stmt 0 view .LVU561
 1843 00f4 084B     		ldr	r3, .L116
 1844 00f6 D968     		ldr	r1, [r3, #12]
 723:Task/Task_Telemetry.c ****                                       Telemetry_Monitor.receiver_value_max))
 1845              		.loc 1 723 56 view .LVU562
 1846 00f8 0848     		ldr	r0, .L116+4
 1847 00fa B0F90E30 		ldrsh	r3, [r0, #14]
 724:Task/Task_Telemetry.c ****         return false;
 1848              		.loc 1 724 56 view .LVU563
 1849 00fe B0F90C20 		ldrsh	r2, [r0, #12]
 720:Task/Task_Telemetry.c ****                                       &Receiver_Obj.data.val_list[flipover_toggle_ch], \
 1850              		.loc 1 720 9 view .LVU564
 1851 0102 92B2     		uxth	r2, r2
 1852 0104 0092     		str	r2, [sp]
 1853 0106 9BB2     		uxth	r3, r3
 1854 0108 00F59A72 		add	r2, r0, #308
 1855 010c 01EB4801 		add	r1, r1, r8, lsl #1
 1856 0110 2430     		adds	r0, r0, #36
 1857 0112 FFF7FEFF 		bl	Telemetry_BindToggleToChannel
 1858              	.LVL169:
 1859 0116 8CE7     		b	.L113
 1860              	.L117:
 1861              		.align	2
 1862              	.L116:
 1863 0118 00000000 		.word	.LANCHOR5
 1864 011c 00000000 		.word	.LANCHOR2
 1865              		.cfi_endproc
 1866              	.LFE2088:
 1868              		.section	.text.Telemetry_Bind_CalibCombo,"ax",%progbits
 1869              		.align	1
 1870              		.syntax unified
 1871              		.thumb
 1872              		.thumb_func
 1874              	Telemetry_Bind_CalibCombo:
 1875              	.LFB2089:
 732:Task/Task_Telemetry.c ****     int16_t start = Telemetry_Monitor.receiver_value_min;
 1876              		.loc 1 732 1 is_stmt 1 view -0
 1877              		.cfi_startproc
 1878              		@ args = 0, pretend = 0, frame = 0
 1879              		@ frame_needed = 0, uses_anonymous_args = 0
 1880 0000 30B5     		push	{r4, r5, lr}
 1881              	.LCFI30:
 1882              		.cfi_def_cfa_offset 12
 1883              		.cfi_offset 4, -12
 1884              		.cfi_offset 5, -8
 1885              		.cfi_offset 14, -4
 1886 0002 83B0     		sub	sp, sp, #12
 1887              	.LCFI31:
 1888              		.cfi_def_cfa_offset 24
ARM GAS  C:\Users\8bit\AppData\Local\Temp\ccdsu2xB.s 			page 56


 733:Task/Task_Telemetry.c ****     int16_t end = start + 100;
 1889              		.loc 1 733 5 view .LVU566
 733:Task/Task_Telemetry.c ****     int16_t end = start + 100;
 1890              		.loc 1 733 13 is_stmt 0 view .LVU567
 1891 0004 1D48     		ldr	r0, .L123
 1892 0006 B0F91040 		ldrsh	r4, [r0, #16]
 1893              	.LVL170:
 734:Task/Task_Telemetry.c **** 
 1894              		.loc 1 734 5 is_stmt 1 view .LVU568
 734:Task/Task_Telemetry.c **** 
 1895              		.loc 1 734 25 is_stmt 0 view .LVU569
 1896 000a A4B2     		uxth	r4, r4
 734:Task/Task_Telemetry.c **** 
 1897              		.loc 1 734 25 view .LVU570
 1898 000c 04F16405 		add	r5, r4, #100
 1899 0010 ADB2     		uxth	r5, r5
 1900              	.LVL171:
 736:Task/Task_Telemetry.c ****        !Telemetry_AddToggleCombo(&Telemetry_Monitor.RC_Setting, &Receiver_Obj.data.val_list[1], &Te
 1901              		.loc 1 736 5 is_stmt 1 view .LVU571
 736:Task/Task_Telemetry.c ****        !Telemetry_AddToggleCombo(&Telemetry_Monitor.RC_Setting, &Receiver_Obj.data.val_list[1], &Te
 1902              		.loc 1 736 83 is_stmt 0 view .LVU572
 1903 0012 1B4B     		ldr	r3, .L123+4
 1904 0014 D968     		ldr	r1, [r3, #12]
 736:Task/Task_Telemetry.c ****        !Telemetry_AddToggleCombo(&Telemetry_Monitor.RC_Setting, &Receiver_Obj.data.val_list[1], &Te
 1905              		.loc 1 736 9 view .LVU573
 1906 0016 0095     		str	r5, [sp]
 1907 0018 2346     		mov	r3, r4
 1908 001a 00F5B272 		add	r2, r0, #356
 1909 001e 0431     		adds	r1, r1, #4
 1910 0020 2430     		adds	r0, r0, #36
 1911 0022 FFF7FEFF 		bl	Telemetry_AddToggleCombo
 1912              	.LVL172:
 736:Task/Task_Telemetry.c ****        !Telemetry_AddToggleCombo(&Telemetry_Monitor.RC_Setting, &Receiver_Obj.data.val_list[1], &Te
 1913              		.loc 1 736 7 view .LVU574
 1914 0026 10B9     		cbnz	r0, .L122
 1915              	.L119:
 740:Task/Task_Telemetry.c **** 
 1916              		.loc 1 740 8 is_stmt 1 view .LVU575
 740:Task/Task_Telemetry.c **** 
 1917              		.loc 1 740 15 is_stmt 0 view .LVU576
 1918 0028 0020     		movs	r0, #0
 1919              	.L120:
 743:Task/Task_Telemetry.c **** 
 1920              		.loc 1 743 1 view .LVU577
 1921 002a 03B0     		add	sp, sp, #12
 1922              	.LCFI32:
 1923              		.cfi_remember_state
 1924              		.cfi_def_cfa_offset 12
 1925              		@ sp needed
 1926 002c 30BD     		pop	{r4, r5, pc}
 1927              	.LVL173:
 1928              	.L122:
 1929              	.LCFI33:
 1930              		.cfi_restore_state
 737:Task/Task_Telemetry.c ****        !Telemetry_AddToggleCombo(&Telemetry_Monitor.RC_Setting, &Receiver_Obj.data.val_list[0], &Te
 1931              		.loc 1 737 83 discriminator 1 view .LVU578
 1932 002e 144B     		ldr	r3, .L123+4
ARM GAS  C:\Users\8bit\AppData\Local\Temp\ccdsu2xB.s 			page 57


 1933 0030 D968     		ldr	r1, [r3, #12]
 737:Task/Task_Telemetry.c ****        !Telemetry_AddToggleCombo(&Telemetry_Monitor.RC_Setting, &Receiver_Obj.data.val_list[0], &Te
 1934              		.loc 1 737 9 discriminator 1 view .LVU579
 1935 0032 1248     		ldr	r0, .L123
 1936 0034 0095     		str	r5, [sp]
 1937 0036 2346     		mov	r3, r4
 1938 0038 00F5B272 		add	r2, r0, #356
 1939 003c 0231     		adds	r1, r1, #2
 1940 003e 2430     		adds	r0, r0, #36
 1941 0040 FFF7FEFF 		bl	Telemetry_AddToggleCombo
 1942              	.LVL174:
 736:Task/Task_Telemetry.c ****        !Telemetry_AddToggleCombo(&Telemetry_Monitor.RC_Setting, &Receiver_Obj.data.val_list[1], &Te
 1943              		.loc 1 736 151 discriminator 1 view .LVU580
 1944 0044 0028     		cmp	r0, #0
 1945 0046 EFD0     		beq	.L119
 738:Task/Task_Telemetry.c ****        !Telemetry_AddToggleCombo(&Telemetry_Monitor.RC_Setting, &Receiver_Obj.data.val_list[3], &Te
 1946              		.loc 1 738 9 view .LVU581
 1947 0048 0C48     		ldr	r0, .L123
 1948 004a 0095     		str	r5, [sp]
 1949 004c 2346     		mov	r3, r4
 1950 004e 00F5B272 		add	r2, r0, #356
 1951 0052 0B49     		ldr	r1, .L123+4
 1952 0054 C968     		ldr	r1, [r1, #12]
 1953 0056 2430     		adds	r0, r0, #36
 1954 0058 FFF7FEFF 		bl	Telemetry_AddToggleCombo
 1955              	.LVL175:
 737:Task/Task_Telemetry.c ****        !Telemetry_AddToggleCombo(&Telemetry_Monitor.RC_Setting, &Receiver_Obj.data.val_list[0], &Te
 1956              		.loc 1 737 151 view .LVU582
 1957 005c 0028     		cmp	r0, #0
 1958 005e E3D0     		beq	.L119
 739:Task/Task_Telemetry.c ****        return false;
 1959              		.loc 1 739 83 view .LVU583
 1960 0060 074B     		ldr	r3, .L123+4
 1961 0062 D968     		ldr	r1, [r3, #12]
 739:Task/Task_Telemetry.c ****        return false;
 1962              		.loc 1 739 9 view .LVU584
 1963 0064 0548     		ldr	r0, .L123
 1964 0066 0095     		str	r5, [sp]
 1965 0068 2346     		mov	r3, r4
 1966 006a 00F5B272 		add	r2, r0, #356
 1967 006e 0631     		adds	r1, r1, #6
 1968 0070 2430     		adds	r0, r0, #36
 1969 0072 FFF7FEFF 		bl	Telemetry_AddToggleCombo
 1970              	.LVL176:
 738:Task/Task_Telemetry.c ****        !Telemetry_AddToggleCombo(&Telemetry_Monitor.RC_Setting, &Receiver_Obj.data.val_list[3], &Te
 1971              		.loc 1 738 151 view .LVU585
 1972 0076 0028     		cmp	r0, #0
 1973 0078 D7D1     		bne	.L120
 1974 007a D5E7     		b	.L119
 1975              	.L124:
 1976              		.align	2
 1977              	.L123:
 1978 007c 00000000 		.word	.LANCHOR2
 1979 0080 00000000 		.word	.LANCHOR5
 1980              		.cfi_endproc
 1981              	.LFE2089:
 1983              		.section	.text.Telemetry_Toggle_Check,"ax",%progbits
ARM GAS  C:\Users\8bit\AppData\Local\Temp\ccdsu2xB.s 			page 58


 1984              		.align	1
 1985              		.syntax unified
 1986              		.thumb
 1987              		.thumb_func
 1989              	Telemetry_Toggle_Check:
 1990              	.LVL177:
 1991              	.LFB2081:
 355:Task/Task_Telemetry.c ****     Telemetry_ToggleData_TypeDef toggle_val;
 1992              		.loc 1 355 1 is_stmt 1 view -0
 1993              		.cfi_startproc
 1994              		@ args = 0, pretend = 0, frame = 8
 1995              		@ frame_needed = 0, uses_anonymous_args = 0
 355:Task/Task_Telemetry.c ****     Telemetry_ToggleData_TypeDef toggle_val;
 1996              		.loc 1 355 1 is_stmt 0 view .LVU587
 1997 0000 30B5     		push	{r4, r5, lr}
 1998              	.LCFI34:
 1999              		.cfi_def_cfa_offset 12
 2000              		.cfi_offset 4, -12
 2001              		.cfi_offset 5, -8
 2002              		.cfi_offset 14, -4
 2003 0002 83B0     		sub	sp, sp, #12
 2004              	.LCFI35:
 2005              		.cfi_def_cfa_offset 24
 356:Task/Task_Telemetry.c ****     uint8_t pos_reg = 0;
 2006              		.loc 1 356 5 is_stmt 1 view .LVU588
 357:Task/Task_Telemetry.c **** 
 2007              		.loc 1 357 5 view .LVU589
 2008              	.LVL178:
 359:Task/Task_Telemetry.c ****     toggle_val.cnt = 0;
 2009              		.loc 1 359 5 view .LVU590
 359:Task/Task_Telemetry.c ****     toggle_val.cnt = 0;
 2010              		.loc 1 359 20 is_stmt 0 view .LVU591
 2011 0004 0023     		movs	r3, #0
 2012 0006 ADF80230 		strh	r3, [sp, #2]	@ movhi
 360:Task/Task_Telemetry.c ****     toggle_val.state = false;
 2013              		.loc 1 360 5 is_stmt 1 view .LVU592
 360:Task/Task_Telemetry.c ****     toggle_val.state = false;
 2014              		.loc 1 360 20 is_stmt 0 view .LVU593
 2015 000a 8DF80030 		strb	r3, [sp]
 361:Task/Task_Telemetry.c ****     item_obj *nxt = &toggle->combo_list;
 2016              		.loc 1 361 5 is_stmt 1 view .LVU594
 361:Task/Task_Telemetry.c ****     item_obj *nxt = &toggle->combo_list;
 2017              		.loc 1 361 22 is_stmt 0 view .LVU595
 2018 000e 8DF80130 		strb	r3, [sp, #1]
 362:Task/Task_Telemetry.c ****     Telemetry_ChannelSet_TypeDef *channel_data = NULL;
 2019              		.loc 1 362 5 is_stmt 1 view .LVU596
 2020              	.LVL179:
 363:Task/Task_Telemetry.c **** 
 2021              		.loc 1 363 5 view .LVU597
 365:Task/Task_Telemetry.c ****         return toggle_val;
 2022              		.loc 1 365 5 view .LVU598
 365:Task/Task_Telemetry.c ****         return toggle_val;
 2023              		.loc 1 365 8 is_stmt 0 view .LVU599
 2024 0012 18B1     		cbz	r0, .L136
 2025 0014 0446     		mov	r4, r0
 2026 0016 0346     		mov	r3, r0
 357:Task/Task_Telemetry.c **** 
ARM GAS  C:\Users\8bit\AppData\Local\Temp\ccdsu2xB.s 			page 59


 2027              		.loc 1 357 13 view .LVU600
 2028 0018 0025     		movs	r5, #0
 2029 001a 13E0     		b	.L126
 2030              	.L136:
 366:Task/Task_Telemetry.c **** 
 2031              		.loc 1 366 9 is_stmt 1 view .LVU601
 366:Task/Task_Telemetry.c **** 
 2032              		.loc 1 366 16 is_stmt 0 view .LVU602
 2033 001c 009B     		ldr	r3, [sp]
 2034 001e 0193     		str	r3, [sp, #4]
 2035 0020 2CE0     		b	.L127
 2036              	.LVL180:
 2037              	.L128:
 377:Task/Task_Telemetry.c ****             toggle_val.cnt++;
 2038              		.loc 1 377 13 is_stmt 1 view .LVU603
 377:Task/Task_Telemetry.c ****             toggle_val.cnt++;
 2039              		.loc 1 377 39 is_stmt 0 view .LVU604
 2040 0022 BDF80210 		ldrh	r1, [sp, #2]
 377:Task/Task_Telemetry.c ****             toggle_val.cnt++;
 2041              		.loc 1 377 26 view .LVU605
 2042 0026 0122     		movs	r2, #1
 2043 0028 8A40     		lsls	r2, r2, r1
 377:Task/Task_Telemetry.c ****             toggle_val.cnt++;
 2044              		.loc 1 377 21 view .LVU606
 2045 002a 2A43     		orrs	r2, r2, r5
 2046 002c D5B2     		uxtb	r5, r2
 2047              	.LVL181:
 378:Task/Task_Telemetry.c ****         }
 2048              		.loc 1 378 13 is_stmt 1 view .LVU607
 378:Task/Task_Telemetry.c ****         }
 2049              		.loc 1 378 23 is_stmt 0 view .LVU608
 2050 002e 9DF80020 		ldrb	r2, [sp]	@ zero_extendqisi2
 378:Task/Task_Telemetry.c ****         }
 2051              		.loc 1 378 27 view .LVU609
 2052 0032 0132     		adds	r2, r2, #1
 2053 0034 8DF80020 		strb	r2, [sp]
 2054              	.L129:
 381:Task/Task_Telemetry.c ****         nxt = nxt->nxt;
 2055              		.loc 1 381 9 is_stmt 1 view .LVU610
 381:Task/Task_Telemetry.c ****         nxt = nxt->nxt;
 2056              		.loc 1 381 19 is_stmt 0 view .LVU611
 2057 0038 BDF80220 		ldrh	r2, [sp, #2]
 381:Task/Task_Telemetry.c ****         nxt = nxt->nxt;
 2058              		.loc 1 381 23 view .LVU612
 2059 003c 0132     		adds	r2, r2, #1
 2060 003e ADF80220 		strh	r2, [sp, #2]	@ movhi
 382:Task/Task_Telemetry.c ****     }
 2061              		.loc 1 382 9 is_stmt 1 view .LVU613
 382:Task/Task_Telemetry.c ****     }
 2062              		.loc 1 382 13 is_stmt 0 view .LVU614
 2063 0042 DB68     		ldr	r3, [r3, #12]
 2064              	.LVL182:
 2065              	.L126:
 369:Task/Task_Telemetry.c ****     {
 2066              		.loc 1 369 11 is_stmt 1 view .LVU615
 2067 0044 5BB1     		cbz	r3, .L137
 371:Task/Task_Telemetry.c **** 
ARM GAS  C:\Users\8bit\AppData\Local\Temp\ccdsu2xB.s 			page 60


 2068              		.loc 1 371 9 view .LVU616
 371:Task/Task_Telemetry.c **** 
 2069              		.loc 1 371 22 is_stmt 0 view .LVU617
 2070 0046 1A69     		ldr	r2, [r3, #16]
 2071              	.LVL183:
 373:Task/Task_Telemetry.c ****             (((*(uint16_t *)channel_data->channel_ptr) <= channel_data->max) &&
 2072              		.loc 1 373 9 is_stmt 1 view .LVU618
 373:Task/Task_Telemetry.c ****             (((*(uint16_t *)channel_data->channel_ptr) <= channel_data->max) &&
 2073              		.loc 1 373 12 is_stmt 0 view .LVU619
 2074 0048 002A     		cmp	r2, #0
 2075 004a EAD0     		beq	.L128
 374:Task/Task_Telemetry.c ****              ((*(uint16_t *)channel_data->channel_ptr) >= channel_data->min)))
 2076              		.loc 1 374 41 discriminator 1 view .LVU620
 2077 004c D168     		ldr	r1, [r2, #12]
 374:Task/Task_Telemetry.c ****              ((*(uint16_t *)channel_data->channel_ptr) >= channel_data->min)))
 2078              		.loc 1 374 16 discriminator 1 view .LVU621
 2079 004e 0988     		ldrh	r1, [r1]
 374:Task/Task_Telemetry.c ****              ((*(uint16_t *)channel_data->channel_ptr) >= channel_data->min)))
 2080              		.loc 1 374 71 discriminator 1 view .LVU622
 2081 0050 1089     		ldrh	r0, [r2, #8]
 373:Task/Task_Telemetry.c ****             (((*(uint16_t *)channel_data->channel_ptr) <= channel_data->max) &&
 2082              		.loc 1 373 27 discriminator 1 view .LVU623
 2083 0052 8142     		cmp	r1, r0
 2084 0054 F0D8     		bhi	.L129
 375:Task/Task_Telemetry.c ****         {
 2085              		.loc 1 375 71 view .LVU624
 2086 0056 9288     		ldrh	r2, [r2, #4]
 2087              	.LVL184:
 374:Task/Task_Telemetry.c ****              ((*(uint16_t *)channel_data->channel_ptr) >= channel_data->min)))
 2088              		.loc 1 374 78 view .LVU625
 2089 0058 9142     		cmp	r1, r2
 2090 005a EDD3     		bcc	.L129
 2091 005c E1E7     		b	.L128
 2092              	.LVL185:
 2093              	.L137:
 386:Task/Task_Telemetry.c ****     {
 2094              		.loc 1 386 5 is_stmt 1 view .LVU626
 386:Task/Task_Telemetry.c ****     {
 2095              		.loc 1 386 9 is_stmt 0 view .LVU627
 2096 005e 2846     		mov	r0, r5
 2097 0060 FFF7FEFF 		bl	Get_OnSet_Bit_Num
 2098              	.LVL186:
 386:Task/Task_Telemetry.c ****     {
 2099              		.loc 1 386 8 view .LVU628
 2100 0064 0128     		cmp	r0, #1
 2101 0066 14D0     		beq	.L138
 394:Task/Task_Telemetry.c ****     }
 2102              		.loc 1 394 9 is_stmt 1 view .LVU629
 394:Task/Task_Telemetry.c ****     }
 2103              		.loc 1 394 24 is_stmt 0 view .LVU630
 2104 0068 0023     		movs	r3, #0
 2105 006a ADF80230 		strh	r3, [sp, #2]	@ movhi
 2106              	.L132:
 397:Task/Task_Telemetry.c ****         toggle_val.state = true;
 2107              		.loc 1 397 5 is_stmt 1 view .LVU631
 397:Task/Task_Telemetry.c ****         toggle_val.state = true;
 2108              		.loc 1 397 19 is_stmt 0 view .LVU632
ARM GAS  C:\Users\8bit\AppData\Local\Temp\ccdsu2xB.s 			page 61


 2109 006e 9DF80020 		ldrb	r2, [sp]	@ zero_extendqisi2
 397:Task/Task_Telemetry.c ****         toggle_val.state = true;
 2110              		.loc 1 397 33 view .LVU633
 2111 0072 237D     		ldrb	r3, [r4, #20]	@ zero_extendqisi2
 397:Task/Task_Telemetry.c ****         toggle_val.state = true;
 2112              		.loc 1 397 8 view .LVU634
 2113 0074 9A42     		cmp	r2, r3
 2114 0076 12D0     		beq	.L139
 2115              	.L133:
 400:Task/Task_Telemetry.c **** }
 2116              		.loc 1 400 5 is_stmt 1 view .LVU635
 400:Task/Task_Telemetry.c **** }
 2117              		.loc 1 400 12 is_stmt 0 view .LVU636
 2118 0078 009B     		ldr	r3, [sp]
 2119 007a 0193     		str	r3, [sp, #4]
 2120              	.LVL187:
 2121              	.L127:
 401:Task/Task_Telemetry.c **** 
 2122              		.loc 1 401 1 view .LVU637
 2123 007c 0020     		movs	r0, #0
 2124 007e BDF80430 		ldrh	r3, [sp, #4]
 2125 0082 63F30F00 		bfi	r0, r3, #0, #16
 2126 0086 BDF80630 		ldrh	r3, [sp, #6]
 2127 008a 63F31F40 		bfi	r0, r3, #16, #16
 2128 008e 03B0     		add	sp, sp, #12
 2129              	.LCFI36:
 2130              		.cfi_remember_state
 2131              		.cfi_def_cfa_offset 12
 2132              		@ sp needed
 2133 0090 30BD     		pop	{r4, r5, pc}
 2134              	.LVL188:
 2135              	.L138:
 2136              	.LCFI37:
 2137              		.cfi_restore_state
 389:Task/Task_Telemetry.c ****     }
 2138              		.loc 1 389 9 is_stmt 1 view .LVU638
 389:Task/Task_Telemetry.c ****     }
 2139              		.loc 1 389 26 is_stmt 0 view .LVU639
 2140 0092 2846     		mov	r0, r5
 2141 0094 FFF7FEFF 		bl	Get_Bit_Index
 2142              	.LVL189:
 389:Task/Task_Telemetry.c ****     }
 2143              		.loc 1 389 24 view .LVU640
 2144 0098 ADF80200 		strh	r0, [sp, #2]	@ movhi
 2145 009c E7E7     		b	.L132
 2146              	.L139:
 398:Task/Task_Telemetry.c **** 
 2147              		.loc 1 398 9 is_stmt 1 view .LVU641
 398:Task/Task_Telemetry.c **** 
 2148              		.loc 1 398 26 is_stmt 0 view .LVU642
 2149 009e 0123     		movs	r3, #1
 2150 00a0 8DF80130 		strb	r3, [sp, #1]
 2151 00a4 E8E7     		b	.L133
 2152              		.cfi_endproc
 2153              	.LFE2081:
 2155              		.section	.text.Telemetry_RC_Sig_Update,"ax",%progbits
 2156              		.align	1
ARM GAS  C:\Users\8bit\AppData\Local\Temp\ccdsu2xB.s 			page 62


 2157              		.syntax unified
 2158              		.thumb
 2159              		.thumb_func
 2161              	Telemetry_RC_Sig_Update:
 2162              	.LVL190:
 2163              	.LFB2085:
 480:Task/Task_Telemetry.c ****     SrvReceiverData_TypeDef receiver_data;
 2164              		.loc 1 480 1 is_stmt 1 view -0
 2165              		.cfi_startproc
 2166              		@ args = 0, pretend = 0, frame = 128
 2167              		@ frame_needed = 0, uses_anonymous_args = 0
 480:Task/Task_Telemetry.c ****     SrvReceiverData_TypeDef receiver_data;
 2168              		.loc 1 480 1 is_stmt 0 view .LVU644
 2169 0000 F0B5     		push	{r4, r5, r6, r7, lr}
 2170              	.LCFI38:
 2171              		.cfi_def_cfa_offset 20
 2172              		.cfi_offset 4, -20
 2173              		.cfi_offset 5, -16
 2174              		.cfi_offset 6, -12
 2175              		.cfi_offset 7, -8
 2176              		.cfi_offset 14, -4
 2177 0002 A1B0     		sub	sp, sp, #132
 2178              	.LCFI39:
 2179              		.cfi_def_cfa_offset 152
 2180 0004 0646     		mov	r6, r0
 2181 0006 0D46     		mov	r5, r1
 2182 0008 1746     		mov	r7, r2
 481:Task/Task_Telemetry.c ****     Telemetry_RCSig_TypeDef sig_tmp;
 2183              		.loc 1 481 5 is_stmt 1 view .LVU645
 482:Task/Task_Telemetry.c ****     static bool throttle_warning = false;
 2184              		.loc 1 482 5 view .LVU646
 483:Task/Task_Telemetry.c **** 
 2185              		.loc 1 483 5 view .LVU647
 485:Task/Task_Telemetry.c ****     memset(&sig_tmp, 0, sizeof(sig_tmp));
 2186              		.loc 1 485 5 view .LVU648
 2187 000a 0021     		movs	r1, #0
 2188              	.LVL191:
 485:Task/Task_Telemetry.c ****     memset(&sig_tmp, 0, sizeof(sig_tmp));
 2189              		.loc 1 485 5 is_stmt 0 view .LVU649
 2190 000c 1691     		str	r1, [sp, #88]
 2191 000e 1791     		str	r1, [sp, #92]
 2192 0010 1891     		str	r1, [sp, #96]
 2193 0012 1991     		str	r1, [sp, #100]
 486:Task/Task_Telemetry.c **** 
 2194              		.loc 1 486 5 is_stmt 1 view .LVU650
 2195 0014 4422     		movs	r2, #68
 2196              	.LVL192:
 486:Task/Task_Telemetry.c **** 
 2197              		.loc 1 486 5 is_stmt 0 view .LVU651
 2198 0016 05A8     		add	r0, sp, #20
 2199              	.LVL193:
 486:Task/Task_Telemetry.c **** 
 2200              		.loc 1 486 5 view .LVU652
 2201 0018 FFF7FEFF 		bl	memset
 2202              	.LVL194:
 488:Task/Task_Telemetry.c ****         return sig_tmp;
 2203              		.loc 1 488 5 is_stmt 1 view .LVU653
ARM GAS  C:\Users\8bit\AppData\Local\Temp\ccdsu2xB.s 			page 63


 488:Task/Task_Telemetry.c ****         return sig_tmp;
 2204              		.loc 1 488 8 is_stmt 0 view .LVU654
 2205 001c 0DB3     		cbz	r5, .L141
 488:Task/Task_Telemetry.c ****         return sig_tmp;
 2206              		.loc 1 488 25 discriminator 1 view .LVU655
 2207 001e 07B3     		cbz	r7, .L141
 488:Task/Task_Telemetry.c ****         return sig_tmp;
 2208              		.loc 1 488 61 discriminator 2 view .LVU656
 2209 0020 2B78     		ldrb	r3, [r5]	@ zero_extendqisi2
 488:Task/Task_Telemetry.c ****         return sig_tmp;
 2210              		.loc 1 488 44 discriminator 2 view .LVU657
 2211 0022 F3B1     		cbz	r3, .L141
 491:Task/Task_Telemetry.c **** 
 2212              		.loc 1 491 5 is_stmt 1 view .LVU658
 491:Task/Task_Telemetry.c **** 
 2213              		.loc 1 491 32 is_stmt 0 view .LVU659
 2214 0024 724B     		ldr	r3, .L164
 2215 0026 DB68     		ldr	r3, [r3, #12]
 491:Task/Task_Telemetry.c **** 
 2216              		.loc 1 491 21 view .LVU660
 2217 0028 6C46     		mov	r4, sp
 2218 002a 3946     		mov	r1, r7
 2219 002c 2046     		mov	r0, r4
 2220 002e 9847     		blx	r3
 2221              	.LVL195:
 2222 0030 0DF1580C 		add	ip, sp, #88
 2223 0034 94E80F00 		ldm	r4, {r0, r1, r2, r3}
 2224 0038 8CE80F00 		stm	ip, {r0, r1, r2, r3}
 493:Task/Task_Telemetry.c ****     {
 2225              		.loc 1 493 5 is_stmt 1 view .LVU661
 493:Task/Task_Telemetry.c ****     {
 2226              		.loc 1 493 23 is_stmt 0 view .LVU662
 2227 003c 9DF86530 		ldrb	r3, [sp, #101]	@ zero_extendqisi2
 493:Task/Task_Telemetry.c ****     {
 2228              		.loc 1 493 8 view .LVU663
 2229 0040 002B     		cmp	r3, #0
 2230 0042 40F0B380 		bne	.L144
 495:Task/Task_Telemetry.c ****         RC_Input_obj->sig.link_quality = receiver_data.link_quality;
 2231              		.loc 1 495 9 is_stmt 1 view .LVU664
 495:Task/Task_Telemetry.c ****         RC_Input_obj->sig.link_quality = receiver_data.link_quality;
 2232              		.loc 1 495 47 is_stmt 0 view .LVU665
 2233 0046 BDF86030 		ldrh	r3, [sp, #96]
 495:Task/Task_Telemetry.c ****         RC_Input_obj->sig.link_quality = receiver_data.link_quality;
 2234              		.loc 1 495 32 view .LVU666
 2235 004a 6B82     		strh	r3, [r5, #18]	@ movhi
 496:Task/Task_Telemetry.c ****         RC_Input_obj->sig.time_stamp = RC_Input_obj->update_rt;
 2236              		.loc 1 496 9 is_stmt 1 view .LVU667
 496:Task/Task_Telemetry.c ****         RC_Input_obj->sig.time_stamp = RC_Input_obj->update_rt;
 2237              		.loc 1 496 55 is_stmt 0 view .LVU668
 2238 004c BDF86230 		ldrh	r3, [sp, #98]
 496:Task/Task_Telemetry.c ****         RC_Input_obj->sig.time_stamp = RC_Input_obj->update_rt;
 2239              		.loc 1 496 40 view .LVU669
 2240 0050 AB82     		strh	r3, [r5, #20]	@ movhi
 497:Task/Task_Telemetry.c **** 
 2241              		.loc 1 497 9 is_stmt 1 view .LVU670
 497:Task/Task_Telemetry.c **** 
 2242              		.loc 1 497 52 is_stmt 0 view .LVU671
ARM GAS  C:\Users\8bit\AppData\Local\Temp\ccdsu2xB.s 			page 64


 2243 0052 6B68     		ldr	r3, [r5, #4]
 497:Task/Task_Telemetry.c **** 
 2244              		.loc 1 497 38 view .LVU672
 2245 0054 AB62     		str	r3, [r5, #40]
 499:Task/Task_Telemetry.c **** 
 2246              		.loc 1 499 9 is_stmt 1 view .LVU673
 499:Task/Task_Telemetry.c **** 
 2247              		.loc 1 499 53 is_stmt 0 view .LVU674
 2248 0056 674B     		ldr	r3, .L164+4
 2249 0058 9B78     		ldrb	r3, [r3, #2]	@ zero_extendqisi2
 499:Task/Task_Telemetry.c **** 
 2250              		.loc 1 499 39 view .LVU675
 2251 005a 85F82C30 		strb	r3, [r5, #44]
 502:Task/Task_Telemetry.c ****         {
 2252              		.loc 1 502 9 is_stmt 1 view .LVU676
 2253              	.LBB5:
 502:Task/Task_Telemetry.c ****         {
 2254              		.loc 1 502 14 view .LVU677
 2255              	.LVL196:
 502:Task/Task_Telemetry.c ****         {
 2256              		.loc 1 502 22 is_stmt 0 view .LVU678
 2257 005e 0024     		movs	r4, #0
 502:Task/Task_Telemetry.c ****         {
 2258              		.loc 1 502 9 view .LVU679
 2259 0060 11E0     		b	.L145
 2260              	.LVL197:
 2261              	.L141:
 502:Task/Task_Telemetry.c ****         {
 2262              		.loc 1 502 9 view .LVU680
 2263              	.LBE5:
 489:Task/Task_Telemetry.c **** 
 2264              		.loc 1 489 9 is_stmt 1 view .LVU681
 489:Task/Task_Telemetry.c **** 
 2265              		.loc 1 489 16 is_stmt 0 view .LVU682
 2266 0062 4422     		movs	r2, #68
 2267 0064 0021     		movs	r1, #0
 2268 0066 3046     		mov	r0, r6
 2269 0068 FFF7FEFF 		bl	memset
 2270              	.LVL198:
 2271              	.L140:
 611:Task/Task_Telemetry.c **** 
 2272              		.loc 1 611 1 view .LVU683
 2273 006c 3046     		mov	r0, r6
 2274 006e 21B0     		add	sp, sp, #132
 2275              	.LCFI40:
 2276              		.cfi_remember_state
 2277              		.cfi_def_cfa_offset 20
 2278              		@ sp needed
 2279 0070 F0BD     		pop	{r4, r5, r6, r7, pc}
 2280              	.LVL199:
 2281              	.L146:
 2282              	.LCFI41:
 2283              		.cfi_restore_state
 2284              	.LBB6:
 510:Task/Task_Telemetry.c ****         }
 2285              		.loc 1 510 13 is_stmt 1 discriminator 2 view .LVU684
 510:Task/Task_Telemetry.c ****         }
ARM GAS  C:\Users\8bit\AppData\Local\Temp\ccdsu2xB.s 			page 65


 2286              		.loc 1 510 57 is_stmt 0 discriminator 2 view .LVU685
 2287 0072 179B     		ldr	r3, [sp, #92]
 510:Task/Task_Telemetry.c ****         }
 2288              		.loc 1 510 66 discriminator 2 view .LVU686
 2289 0074 33F91420 		ldrsh	r2, [r3, r4, lsl #1]
 510:Task/Task_Telemetry.c ****         }
 2290              		.loc 1 510 42 discriminator 2 view .LVU687
 2291 0078 04F11403 		add	r3, r4, #20
 2292 007c 05EB4303 		add	r3, r5, r3, lsl #1
 2293 0080 DA80     		strh	r2, [r3, #6]	@ movhi
 502:Task/Task_Telemetry.c ****         {
 2294              		.loc 1 502 60 is_stmt 1 discriminator 2 view .LVU688
 502:Task/Task_Telemetry.c ****         {
 2295              		.loc 1 502 61 is_stmt 0 discriminator 2 view .LVU689
 2296 0082 0134     		adds	r4, r4, #1
 2297              	.LVL200:
 502:Task/Task_Telemetry.c ****         {
 2298              		.loc 1 502 61 discriminator 2 view .LVU690
 2299 0084 E4B2     		uxtb	r4, r4
 2300              	.LVL201:
 2301              	.L145:
 502:Task/Task_Telemetry.c ****         {
 2302              		.loc 1 502 29 is_stmt 1 discriminator 1 view .LVU691
 502:Task/Task_Telemetry.c ****         {
 2303              		.loc 1 502 45 is_stmt 0 discriminator 1 view .LVU692
 2304 0086 BB78     		ldrb	r3, [r7, #2]	@ zero_extendqisi2
 502:Task/Task_Telemetry.c ****         {
 2305              		.loc 1 502 9 discriminator 1 view .LVU693
 2306 0088 A342     		cmp	r3, r4
 2307 008a 0ED9     		bls	.L161
 504:Task/Task_Telemetry.c ****             {
 2308              		.loc 1 504 13 is_stmt 1 view .LVU694
 504:Task/Task_Telemetry.c ****             {
 2309              		.loc 1 504 16 is_stmt 0 view .LVU695
 2310 008c 032C     		cmp	r4, #3
 2311 008e F0D8     		bhi	.L146
 506:Task/Task_Telemetry.c ****                 RC_Input_obj->sig.gimbal_percent[i] = Telemetry_GimbalToPercent(&RC_Input_obj->Gimb
 2312              		.loc 1 506 17 is_stmt 1 view .LVU696
 2313 0090 04EB4400 		add	r0, r4, r4, lsl #1
 2314 0094 C000     		lsls	r0, r0, #3
 2315 0096 5030     		adds	r0, r0, #80
 507:Task/Task_Telemetry.c ****             }
 2316              		.loc 1 507 17 view .LVU697
 507:Task/Task_Telemetry.c ****             }
 2317              		.loc 1 507 55 is_stmt 0 view .LVU698
 2318 0098 2844     		add	r0, r0, r5
 2319 009a FFF7FEFF 		bl	Telemetry_GimbalToPercent
 2320              	.LVL202:
 507:Task/Task_Telemetry.c ****             }
 2321              		.loc 1 507 53 view .LVU699
 2322 009e 04F10803 		add	r3, r4, #8
 2323 00a2 05EB4303 		add	r3, r5, r3, lsl #1
 2324 00a6 D880     		strh	r0, [r3, #6]	@ movhi
 2325 00a8 E3E7     		b	.L146
 2326              	.L161:
 507:Task/Task_Telemetry.c ****             }
 2327              		.loc 1 507 53 view .LVU700
ARM GAS  C:\Users\8bit\AppData\Local\Temp\ccdsu2xB.s 			page 66


 2328              	.LBE6:
 514:Task/Task_Telemetry.c **** 
 2329              		.loc 1 514 9 is_stmt 1 view .LVU701
 514:Task/Task_Telemetry.c **** 
 2330              		.loc 1 514 38 is_stmt 0 view .LVU702
 2331 00aa 05F1F800 		add	r0, r5, #248
 2332 00ae FFF7FEFF 		bl	Telemetry_Toggle_Check
 2333              	.LVL203:
 2334 00b2 1A90     		str	r0, [sp, #104]
 514:Task/Task_Telemetry.c **** 
 2335              		.loc 1 514 92 view .LVU703
 2336 00b4 9DF86930 		ldrb	r3, [sp, #105]	@ zero_extendqisi2
 514:Task/Task_Telemetry.c **** 
 2337              		.loc 1 514 36 view .LVU704
 2338 00b8 2B74     		strb	r3, [r5, #16]
 517:Task/Task_Telemetry.c **** 
 2339              		.loc 1 517 9 is_stmt 1 view .LVU705
 517:Task/Task_Telemetry.c **** 
 2340              		.loc 1 517 40 is_stmt 0 view .LVU706
 2341 00ba 05F1E000 		add	r0, r5, #224
 2342 00be FFF7FEFF 		bl	Telemetry_Toggle_Check
 2343              	.LVL204:
 2344 00c2 1B90     		str	r0, [sp, #108]
 517:Task/Task_Telemetry.c **** 
 2345              		.loc 1 517 92 view .LVU707
 2346 00c4 9DF86D30 		ldrb	r3, [sp, #109]	@ zero_extendqisi2
 517:Task/Task_Telemetry.c **** 
 2347              		.loc 1 517 38 view .LVU708
 2348 00c8 6B73     		strb	r3, [r5, #13]
 520:Task/Task_Telemetry.c **** 
 2349              		.loc 1 520 9 is_stmt 1 view .LVU709
 520:Task/Task_Telemetry.c **** 
 2350              		.loc 1 520 39 is_stmt 0 view .LVU710
 2351 00ca 05F1B000 		add	r0, r5, #176
 2352 00ce FFF7FEFF 		bl	Telemetry_Toggle_Check
 2353              	.LVL205:
 2354 00d2 1C90     		str	r0, [sp, #112]
 520:Task/Task_Telemetry.c **** 
 2355              		.loc 1 520 88 view .LVU711
 2356 00d4 9DF87130 		ldrb	r3, [sp, #113]	@ zero_extendqisi2
 520:Task/Task_Telemetry.c **** 
 2357              		.loc 1 520 37 view .LVU712
 2358 00d8 2B73     		strb	r3, [r5, #12]
 523:Task/Task_Telemetry.c **** 
 2359              		.loc 1 523 9 is_stmt 1 view .LVU713
 523:Task/Task_Telemetry.c **** 
 2360              		.loc 1 523 42 is_stmt 0 view .LVU714
 2361 00da 05F1C800 		add	r0, r5, #200
 2362 00de FFF7FEFF 		bl	Telemetry_Toggle_Check
 2363              	.LVL206:
 2364 00e2 1D90     		str	r0, [sp, #116]
 523:Task/Task_Telemetry.c **** 
 2365              		.loc 1 523 40 view .LVU715
 2366 00e4 9DF87630 		ldrb	r3, [sp, #118]	@ zero_extendqisi2
 2367 00e8 AB77     		strb	r3, [r5, #30]
 526:Task/Task_Telemetry.c ****             RC_Input_obj->sig.control_mode = Telemetry_Control_Mode_Default;
 2368              		.loc 1 526 9 is_stmt 1 view .LVU716
ARM GAS  C:\Users\8bit\AppData\Local\Temp\ccdsu2xB.s 			page 67


 526:Task/Task_Telemetry.c ****             RC_Input_obj->sig.control_mode = Telemetry_Control_Mode_Default;
 2369              		.loc 1 526 12 is_stmt 0 view .LVU717
 2370 00ea 022B     		cmp	r3, #2
 2371 00ec 01D9     		bls	.L148
 527:Task/Task_Telemetry.c **** 
 2372              		.loc 1 527 13 is_stmt 1 view .LVU718
 527:Task/Task_Telemetry.c **** 
 2373              		.loc 1 527 44 is_stmt 0 view .LVU719
 2374 00ee 0123     		movs	r3, #1
 2375 00f0 AB77     		strb	r3, [r5, #30]
 2376              	.L148:
 529:Task/Task_Telemetry.c ****         {
 2377              		.loc 1 529 9 is_stmt 1 view .LVU720
 529:Task/Task_Telemetry.c ****         {
 2378              		.loc 1 529 30 is_stmt 0 view .LVU721
 2379 00f2 2B7B     		ldrb	r3, [r5, #12]	@ zero_extendqisi2
 529:Task/Task_Telemetry.c ****         {
 2380              		.loc 1 529 12 view .LVU722
 2381 00f4 002B     		cmp	r3, #0
 2382 00f6 39D1     		bne	.L162
 541:Task/Task_Telemetry.c ****             RC_Input_obj->sig.flip_over = false;
 2383              		.loc 1 541 13 is_stmt 1 view .LVU723
 541:Task/Task_Telemetry.c ****             RC_Input_obj->sig.flip_over = false;
 2384              		.loc 1 541 42 is_stmt 0 view .LVU724
 2385 00f8 0023     		movs	r3, #0
 2386 00fa AB73     		strb	r3, [r5, #14]
 542:Task/Task_Telemetry.c ****         }
 2387              		.loc 1 542 13 is_stmt 1 view .LVU725
 542:Task/Task_Telemetry.c ****         }
 2388              		.loc 1 542 41 is_stmt 0 view .LVU726
 2389 00fc EB73     		strb	r3, [r5, #15]
 2390              	.L150:
 545:Task/Task_Telemetry.c ****         RC_Input_obj->sig.update_interval = RC_Input_obj->update_rt - RC_Input_obj->lst_update_rt;
 2391              		.loc 1 545 9 is_stmt 1 view .LVU727
 545:Task/Task_Telemetry.c ****         RC_Input_obj->sig.update_interval = RC_Input_obj->update_rt - RC_Input_obj->lst_update_rt;
 2392              		.loc 1 545 48 is_stmt 0 view .LVU728
 2393 00fe 169B     		ldr	r3, [sp, #88]
 545:Task/Task_Telemetry.c ****         RC_Input_obj->sig.update_interval = RC_Input_obj->update_rt - RC_Input_obj->lst_update_rt;
 2394              		.loc 1 545 33 view .LVU729
 2395 0100 6B60     		str	r3, [r5, #4]
 546:Task/Task_Telemetry.c **** 
 2396              		.loc 1 546 9 is_stmt 1 view .LVU730
 546:Task/Task_Telemetry.c **** 
 2397              		.loc 1 546 83 is_stmt 0 view .LVU731
 2398 0102 AA68     		ldr	r2, [r5, #8]
 546:Task/Task_Telemetry.c **** 
 2399              		.loc 1 546 69 view .LVU732
 2400 0104 9A1A     		subs	r2, r3, r2
 546:Task/Task_Telemetry.c **** 
 2401              		.loc 1 546 43 view .LVU733
 2402 0106 6A62     		str	r2, [r5, #36]
 548:Task/Task_Telemetry.c ****         RC_Input_obj->sig.failsafe = false;
 2403              		.loc 1 548 9 is_stmt 1 view .LVU734
 548:Task/Task_Telemetry.c ****         RC_Input_obj->sig.failsafe = false;
 2404              		.loc 1 548 37 is_stmt 0 view .LVU735
 2405 0108 AB60     		str	r3, [r5, #8]
 549:Task/Task_Telemetry.c **** 
ARM GAS  C:\Users\8bit\AppData\Local\Temp\ccdsu2xB.s 			page 68


 2406              		.loc 1 549 9 is_stmt 1 view .LVU736
 549:Task/Task_Telemetry.c **** 
 2407              		.loc 1 549 36 is_stmt 0 view .LVU737
 2408 010a 0023     		movs	r3, #0
 2409 010c 6B74     		strb	r3, [r5, #17]
 552:Task/Task_Telemetry.c ****         {
 2410              		.loc 1 552 9 is_stmt 1 view .LVU738
 552:Task/Task_Telemetry.c ****         {
 2411              		.loc 1 552 30 is_stmt 0 view .LVU739
 2412 010e 3A4B     		ldr	r3, .L164+8
 2413 0110 93F82030 		ldrb	r3, [r3, #32]	@ zero_extendqisi2
 552:Task/Task_Telemetry.c ****         {
 2414              		.loc 1 552 12 view .LVU740
 2415 0114 53B1     		cbz	r3, .L151
 556:Task/Task_Telemetry.c ****             {
 2416              		.loc 1 556 13 is_stmt 1 view .LVU741
 556:Task/Task_Telemetry.c ****             {
 2417              		.loc 1 556 35 is_stmt 0 view .LVU742
 2418 0116 384B     		ldr	r3, .L164+8
 2419 0118 93F82130 		ldrb	r3, [r3, #33]	@ zero_extendqisi2
 556:Task/Task_Telemetry.c ****             {
 2420              		.loc 1 556 16 view .LVU743
 2421 011c 13B1     		cbz	r3, .L152
 556:Task/Task_Telemetry.c ****             {
 2422              		.loc 1 556 93 discriminator 1 view .LVU744
 2423 011e 2B7B     		ldrb	r3, [r5, #12]	@ zero_extendqisi2
 556:Task/Task_Telemetry.c ****             {
 2424              		.loc 1 556 72 discriminator 1 view .LVU745
 2425 0120 002B     		cmp	r3, #0
 2426 0122 37D0     		beq	.L163
 2427              	.L152:
 562:Task/Task_Telemetry.c ****         }
 2428              		.loc 1 562 13 is_stmt 1 view .LVU746
 562:Task/Task_Telemetry.c ****         }
 2429              		.loc 1 562 48 is_stmt 0 view .LVU747
 2430 0124 344B     		ldr	r3, .L164+8
 2431 0126 0022     		movs	r2, #0
 2432 0128 83F82020 		strb	r2, [r3, #32]
 2433              	.L151:
 566:Task/Task_Telemetry.c ****         {
 2434              		.loc 1 566 9 is_stmt 1 view .LVU748
 566:Task/Task_Telemetry.c ****         {
 2435              		.loc 1 566 29 is_stmt 0 view .LVU749
 2436 012c 324B     		ldr	r3, .L164+8
 2437 012e DB7E     		ldrb	r3, [r3, #27]	@ zero_extendqisi2
 566:Task/Task_Telemetry.c ****         {
 2438              		.loc 1 566 11 view .LVU750
 2439 0130 23B1     		cbz	r3, .L153
 568:Task/Task_Telemetry.c ****             {
 2440              		.loc 1 568 13 is_stmt 1 view .LVU751
 568:Task/Task_Telemetry.c ****             {
 2441              		.loc 1 568 33 is_stmt 0 view .LVU752
 2442 0132 2B7B     		ldrb	r3, [r5, #12]	@ zero_extendqisi2
 568:Task/Task_Telemetry.c ****             {
 2443              		.loc 1 568 15 view .LVU753
 2444 0134 002B     		cmp	r3, #0
 2445 0136 35D1     		bne	.L154
ARM GAS  C:\Users\8bit\AppData\Local\Temp\ccdsu2xB.s 			page 69


 570:Task/Task_Telemetry.c ****             }
 2446              		.loc 1 570 17 is_stmt 1 view .LVU754
 570:Task/Task_Telemetry.c ****             }
 2447              		.loc 1 570 45 is_stmt 0 view .LVU755
 2448 0138 0123     		movs	r3, #1
 2449 013a 2B73     		strb	r3, [r5, #12]
 2450              	.L153:
 581:Task/Task_Telemetry.c ****         {
 2451              		.loc 1 581 9 is_stmt 1 view .LVU756
 581:Task/Task_Telemetry.c ****         {
 2452              		.loc 1 581 31 is_stmt 0 view .LVU757
 2453 013c 2B7B     		ldrb	r3, [r5, #12]	@ zero_extendqisi2
 581:Task/Task_Telemetry.c ****         {
 2454              		.loc 1 581 12 view .LVU758
 2455 013e 5BB9     		cbnz	r3, .L155
 581:Task/Task_Telemetry.c ****         {
 2456              		.loc 1 581 88 discriminator 1 view .LVU759
 2457 0140 2D4B     		ldr	r3, .L164+8
 2458 0142 93F82130 		ldrb	r3, [r3, #33]	@ zero_extendqisi2
 581:Task/Task_Telemetry.c ****         {
 2459              		.loc 1 581 67 discriminator 1 view .LVU760
 2460 0146 3BB1     		cbz	r3, .L155
 583:Task/Task_Telemetry.c ****             {
 2461              		.loc 1 583 13 is_stmt 1 view .LVU761
 583:Task/Task_Telemetry.c ****             {
 2462              		.loc 1 583 49 is_stmt 0 view .LVU762
 2463 0148 EB8A     		ldrh	r3, [r5, #22]
 583:Task/Task_Telemetry.c ****             {
 2464              		.loc 1 583 16 view .LVU763
 2465 014a 042B     		cmp	r3, #4
 2466 014c 04D9     		bls	.L155
 585:Task/Task_Telemetry.c ****                 throttle_warning = true;
 2467              		.loc 1 585 17 is_stmt 1 view .LVU764
 585:Task/Task_Telemetry.c ****                 throttle_warning = true;
 2468              		.loc 1 585 67 is_stmt 0 view .LVU765
 2469 014e 0023     		movs	r3, #0
 2470 0150 EB82     		strh	r3, [r5, #22]	@ movhi
 586:Task/Task_Telemetry.c ****             }
 2471              		.loc 1 586 17 is_stmt 1 view .LVU766
 586:Task/Task_Telemetry.c ****             }
 2472              		.loc 1 586 34 is_stmt 0 view .LVU767
 2473 0152 2A4B     		ldr	r3, .L164+12
 2474 0154 0122     		movs	r2, #1
 2475 0156 1A70     		strb	r2, [r3]
 2476              	.L155:
 590:Task/Task_Telemetry.c ****             RC_Input_obj->sig.arm_state = TELEMETRY_SET_ARM;
 2477              		.loc 1 590 9 is_stmt 1 view .LVU768
 590:Task/Task_Telemetry.c ****             RC_Input_obj->sig.arm_state = TELEMETRY_SET_ARM;
 2478              		.loc 1 590 13 is_stmt 0 view .LVU769
 2479 0158 284B     		ldr	r3, .L164+12
 2480 015a 1B78     		ldrb	r3, [r3]	@ zero_extendqisi2
 590:Task/Task_Telemetry.c ****             RC_Input_obj->sig.arm_state = TELEMETRY_SET_ARM;
 2481              		.loc 1 590 12 view .LVU770
 2482 015c 0BB1     		cbz	r3, .L156
 591:Task/Task_Telemetry.c **** 
 2483              		.loc 1 591 13 is_stmt 1 view .LVU771
 591:Task/Task_Telemetry.c **** 
ARM GAS  C:\Users\8bit\AppData\Local\Temp\ccdsu2xB.s 			page 70


 2484              		.loc 1 591 41 is_stmt 0 view .LVU772
 2485 015e 0123     		movs	r3, #1
 2486 0160 2B73     		strb	r3, [r5, #12]
 2487              	.L156:
 593:Task/Task_Telemetry.c ****     }
 2488              		.loc 1 593 9 is_stmt 1 view .LVU773
 593:Task/Task_Telemetry.c ****     }
 2489              		.loc 1 593 60 is_stmt 0 view .LVU774
 2490 0162 2A7B     		ldrb	r2, [r5, #12]	@ zero_extendqisi2
 593:Task/Task_Telemetry.c ****     }
 2491              		.loc 1 593 41 view .LVU775
 2492 0164 244B     		ldr	r3, .L164+8
 2493 0166 83F82120 		strb	r2, [r3, #33]
 2494 016a 33E0     		b	.L157
 2495              	.L162:
 531:Task/Task_Telemetry.c **** 
 2496              		.loc 1 531 13 is_stmt 1 view .LVU776
 531:Task/Task_Telemetry.c **** 
 2497              		.loc 1 531 30 is_stmt 0 view .LVU777
 2498 016c 234B     		ldr	r3, .L164+12
 2499 016e 0022     		movs	r2, #0
 2500 0170 1A70     		strb	r2, [r3]
 534:Task/Task_Telemetry.c ****             
 2501              		.loc 1 534 13 is_stmt 1 view .LVU778
 534:Task/Task_Telemetry.c ****             
 2502              		.loc 1 534 44 is_stmt 0 view .LVU779
 2503 0172 05F5A070 		add	r0, r5, #320
 2504 0176 FFF7FEFF 		bl	Telemetry_Toggle_Check
 2505              	.LVL207:
 2506 017a 1E90     		str	r0, [sp, #120]
 534:Task/Task_Telemetry.c ****             
 2507              		.loc 1 534 93 view .LVU780
 2508 017c 9DF87930 		ldrb	r3, [sp, #121]	@ zero_extendqisi2
 534:Task/Task_Telemetry.c ****             
 2509              		.loc 1 534 42 view .LVU781
 2510 0180 AB73     		strb	r3, [r5, #14]
 537:Task/Task_Telemetry.c ****         }
 2511              		.loc 1 537 13 is_stmt 1 view .LVU782
 537:Task/Task_Telemetry.c ****         }
 2512              		.loc 1 537 43 is_stmt 0 view .LVU783
 2513 0182 05F58870 		add	r0, r5, #272
 2514 0186 FFF7FEFF 		bl	Telemetry_Toggle_Check
 2515              	.LVL208:
 2516 018a 1F90     		str	r0, [sp, #124]
 537:Task/Task_Telemetry.c ****         }
 2517              		.loc 1 537 97 view .LVU784
 2518 018c 9DF87D30 		ldrb	r3, [sp, #125]	@ zero_extendqisi2
 537:Task/Task_Telemetry.c ****         }
 2519              		.loc 1 537 41 view .LVU785
 2520 0190 EB73     		strb	r3, [r5, #15]
 2521 0192 B4E7     		b	.L150
 2522              	.L163:
 558:Task/Task_Telemetry.c ****                 return sig_tmp;
 2523              		.loc 1 558 17 is_stmt 1 view .LVU786
 558:Task/Task_Telemetry.c ****                 return sig_tmp;
 2524              		.loc 1 558 44 is_stmt 0 view .LVU787
 2525 0194 0123     		movs	r3, #1
ARM GAS  C:\Users\8bit\AppData\Local\Temp\ccdsu2xB.s 			page 71


 2526 0196 6B74     		strb	r3, [r5, #17]
 559:Task/Task_Telemetry.c ****             }
 2527              		.loc 1 559 17 is_stmt 1 view .LVU788
 559:Task/Task_Telemetry.c ****             }
 2528              		.loc 1 559 24 is_stmt 0 view .LVU789
 2529 0198 4422     		movs	r2, #68
 2530 019a 05A9     		add	r1, sp, #20
 2531 019c 3046     		mov	r0, r6
 2532 019e FFF7FEFF 		bl	memcpy
 2533              	.LVL209:
 2534 01a2 63E7     		b	.L140
 2535              	.L154:
 574:Task/Task_Telemetry.c ****             }
 2536              		.loc 1 574 17 is_stmt 1 view .LVU790
 574:Task/Task_Telemetry.c ****             }
 2537              		.loc 1 574 53 is_stmt 0 view .LVU791
 2538 01a4 144B     		ldr	r3, .L164+8
 2539 01a6 0022     		movs	r2, #0
 2540 01a8 DA76     		strb	r2, [r3, #27]
 2541 01aa C7E7     		b	.L153
 2542              	.LVL210:
 2543              	.L144:
 597:Task/Task_Telemetry.c ****         RC_Input_obj->sig.arm_state = TELEMETRY_SET_ARM;
 2544              		.loc 1 597 9 is_stmt 1 view .LVU792
 597:Task/Task_Telemetry.c ****         RC_Input_obj->sig.arm_state = TELEMETRY_SET_ARM;
 2545              		.loc 1 597 36 is_stmt 0 view .LVU793
 2546 01ac 0123     		movs	r3, #1
 2547 01ae 6B74     		strb	r3, [r5, #17]
 598:Task/Task_Telemetry.c ****         RC_Input_obj->sig.buzz_state = false;
 2548              		.loc 1 598 9 is_stmt 1 view .LVU794
 598:Task/Task_Telemetry.c ****         RC_Input_obj->sig.buzz_state = false;
 2549              		.loc 1 598 37 is_stmt 0 view .LVU795
 2550 01b0 2B73     		strb	r3, [r5, #12]
 599:Task/Task_Telemetry.c ****         // RC_Input_obj->sig.control_mode = Telemetry_Control_Mode_Default;
 2551              		.loc 1 599 9 is_stmt 1 view .LVU796
 599:Task/Task_Telemetry.c ****         // RC_Input_obj->sig.control_mode = Telemetry_Control_Mode_Default;
 2552              		.loc 1 599 38 is_stmt 0 view .LVU797
 2553 01b2 0023     		movs	r3, #0
 2554 01b4 6B73     		strb	r3, [r5, #13]
 602:Task/Task_Telemetry.c ****             RC_Input_obj->sig.gimbal_percent[i] = 0;
 2555              		.loc 1 602 9 is_stmt 1 view .LVU798
 2556              	.LBB7:
 602:Task/Task_Telemetry.c ****             RC_Input_obj->sig.gimbal_percent[i] = 0;
 2557              		.loc 1 602 14 view .LVU799
 2558              	.LVL211:
 602:Task/Task_Telemetry.c ****             RC_Input_obj->sig.gimbal_percent[i] = 0;
 2559              		.loc 1 602 9 is_stmt 0 view .LVU800
 2560 01b6 07E0     		b	.L158
 2561              	.LVL212:
 2562              	.L159:
 603:Task/Task_Telemetry.c **** 
 2563              		.loc 1 603 13 is_stmt 1 discriminator 3 view .LVU801
 603:Task/Task_Telemetry.c **** 
 2564              		.loc 1 603 49 is_stmt 0 discriminator 3 view .LVU802
 2565 01b8 03F10802 		add	r2, r3, #8
 2566 01bc 05EB4202 		add	r2, r5, r2, lsl #1
 2567 01c0 0021     		movs	r1, #0
ARM GAS  C:\Users\8bit\AppData\Local\Temp\ccdsu2xB.s 			page 72


 2568 01c2 D180     		strh	r1, [r2, #6]	@ movhi
 602:Task/Task_Telemetry.c ****             RC_Input_obj->sig.gimbal_percent[i] = 0;
 2569              		.loc 1 602 59 is_stmt 1 discriminator 3 view .LVU803
 602:Task/Task_Telemetry.c ****             RC_Input_obj->sig.gimbal_percent[i] = 0;
 2570              		.loc 1 602 60 is_stmt 0 discriminator 3 view .LVU804
 2571 01c4 0133     		adds	r3, r3, #1
 2572              	.LVL213:
 602:Task/Task_Telemetry.c ****             RC_Input_obj->sig.gimbal_percent[i] = 0;
 2573              		.loc 1 602 60 discriminator 3 view .LVU805
 2574 01c6 DBB2     		uxtb	r3, r3
 2575              	.LVL214:
 2576              	.L158:
 602:Task/Task_Telemetry.c ****             RC_Input_obj->sig.gimbal_percent[i] = 0;
 2577              		.loc 1 602 43 is_stmt 1 discriminator 1 view .LVU806
 602:Task/Task_Telemetry.c ****             RC_Input_obj->sig.gimbal_percent[i] = 0;
 2578              		.loc 1 602 9 is_stmt 0 discriminator 1 view .LVU807
 2579 01c8 032B     		cmp	r3, #3
 2580 01ca F5D9     		bls	.L159
 2581              	.LBE7:
 605:Task/Task_Telemetry.c ****     }
 2582              		.loc 1 605 9 is_stmt 1 view .LVU808
 605:Task/Task_Telemetry.c ****     }
 2583              		.loc 1 605 44 is_stmt 0 view .LVU809
 2584 01cc 0A4B     		ldr	r3, .L164+8
 2585              	.LVL215:
 605:Task/Task_Telemetry.c ****     }
 2586              		.loc 1 605 44 view .LVU810
 2587 01ce 0122     		movs	r2, #1
 2588 01d0 83F82020 		strb	r2, [r3, #32]
 2589              	.L157:
 608:Task/Task_Telemetry.c **** 
 2590              		.loc 1 608 5 is_stmt 1 view .LVU811
 2591 01d4 4424     		movs	r4, #68
 2592 01d6 2246     		mov	r2, r4
 2593 01d8 05F10C01 		add	r1, r5, #12
 2594 01dc 05A8     		add	r0, sp, #20
 2595 01de FFF7FEFF 		bl	memcpy
 2596              	.LVL216:
 610:Task/Task_Telemetry.c **** }
 2597              		.loc 1 610 5 view .LVU812
 610:Task/Task_Telemetry.c **** }
 2598              		.loc 1 610 12 is_stmt 0 view .LVU813
 2599 01e2 2246     		mov	r2, r4
 2600 01e4 05A9     		add	r1, sp, #20
 2601 01e6 3046     		mov	r0, r6
 2602 01e8 FFF7FEFF 		bl	memcpy
 2603              	.LVL217:
 2604 01ec 3EE7     		b	.L140
 2605              	.L165:
 2606 01ee 00BF     		.align	2
 2607              	.L164:
 2608 01f0 00000000 		.word	SrvReceiver
 2609 01f4 00000000 		.word	.LANCHOR5
 2610 01f8 00000000 		.word	.LANCHOR2
 2611 01fc 00000000 		.word	.LANCHOR6
 2612              		.cfi_endproc
 2613              	.LFE2085:
ARM GAS  C:\Users\8bit\AppData\Local\Temp\ccdsu2xB.s 			page 73


 2615              		.section	.text.TaskTelemetry_Init,"ax",%progbits
 2616              		.align	1
 2617              		.global	TaskTelemetry_Init
 2618              		.syntax unified
 2619              		.thumb
 2620              		.thumb_func
 2622              	TaskTelemetry_Init:
 2623              	.LVL218:
 2624              	.LFB2074:
  54:Task/Task_Telemetry.c ****     memset(&Telemetry_Monitor, 0, sizeof(Telemetry_Monitor));
 2625              		.loc 1 54 1 is_stmt 1 view -0
 2626              		.cfi_startproc
 2627              		@ args = 0, pretend = 0, frame = 0
 2628              		@ frame_needed = 0, uses_anonymous_args = 0
  54:Task/Task_Telemetry.c ****     memset(&Telemetry_Monitor, 0, sizeof(Telemetry_Monitor));
 2629              		.loc 1 54 1 is_stmt 0 view .LVU815
 2630 0000 F0B5     		push	{r4, r5, r6, r7, lr}
 2631              	.LCFI42:
 2632              		.cfi_def_cfa_offset 20
 2633              		.cfi_offset 4, -20
 2634              		.cfi_offset 5, -16
 2635              		.cfi_offset 6, -12
 2636              		.cfi_offset 7, -8
 2637              		.cfi_offset 14, -4
 2638 0002 83B0     		sub	sp, sp, #12
 2639              	.LCFI43:
 2640              		.cfi_def_cfa_offset 32
 2641 0004 0546     		mov	r5, r0
  55:Task/Task_Telemetry.c **** 
 2642              		.loc 1 55 5 is_stmt 1 view .LVU816
 2643 0006 374C     		ldr	r4, .L171
 2644 0008 4FF4BE72 		mov	r2, #380
 2645 000c 0021     		movs	r1, #0
 2646 000e 2046     		mov	r0, r4
 2647              	.LVL219:
  55:Task/Task_Telemetry.c **** 
 2648              		.loc 1 55 5 is_stmt 0 view .LVU817
 2649 0010 FFF7FEFF 		bl	memset
 2650              	.LVL220:
  57:Task/Task_Telemetry.c **** 
 2651              		.loc 1 57 5 is_stmt 1 view .LVU818
  57:Task/Task_Telemetry.c **** 
 2652              		.loc 1 57 44 is_stmt 0 view .LVU819
 2653 0014 344B     		ldr	r3, .L171+4
 2654 0016 5B68     		ldr	r3, [r3, #4]
  57:Task/Task_Telemetry.c **** 
 2655              		.loc 1 57 33 view .LVU820
 2656 0018 9847     		blx	r3
 2657              	.LVL221:
  57:Task/Task_Telemetry.c **** 
 2658              		.loc 1 57 31 view .LVU821
 2659 001a 2060     		str	r0, [r4]
  60:Task/Task_Telemetry.c ****     Telemetry_Monitor.pitch_ch = Channel_2;
 2660              		.loc 1 60 5 is_stmt 1 view .LVU822
  60:Task/Task_Telemetry.c ****     Telemetry_Monitor.pitch_ch = Channel_2;
 2661              		.loc 1 60 35 is_stmt 0 view .LVU823
 2662 001c 0223     		movs	r3, #2
ARM GAS  C:\Users\8bit\AppData\Local\Temp\ccdsu2xB.s 			page 74


 2663 001e A374     		strb	r3, [r4, #18]
  61:Task/Task_Telemetry.c ****     Telemetry_Monitor.roll_ch = Channel_1;
 2664              		.loc 1 61 5 is_stmt 1 view .LVU824
  61:Task/Task_Telemetry.c ****     Telemetry_Monitor.roll_ch = Channel_1;
 2665              		.loc 1 61 32 is_stmt 0 view .LVU825
 2666 0020 0123     		movs	r3, #1
 2667 0022 E374     		strb	r3, [r4, #19]
  62:Task/Task_Telemetry.c ****     Telemetry_Monitor.yaw_ch = Channel_4;
 2668              		.loc 1 62 5 is_stmt 1 view .LVU826
  62:Task/Task_Telemetry.c ****     Telemetry_Monitor.yaw_ch = Channel_4;
 2669              		.loc 1 62 31 is_stmt 0 view .LVU827
 2670 0024 0023     		movs	r3, #0
 2671 0026 2375     		strb	r3, [r4, #20]
  63:Task/Task_Telemetry.c **** 
 2672              		.loc 1 63 5 is_stmt 1 view .LVU828
  63:Task/Task_Telemetry.c **** 
 2673              		.loc 1 63 30 is_stmt 0 view .LVU829
 2674 0028 0323     		movs	r3, #3
 2675 002a 6375     		strb	r3, [r4, #21]
  66:Task/Task_Telemetry.c ****     Telemetry_Monitor.buzzer_toggle_ch = Channel_6;
 2676              		.loc 1 66 5 is_stmt 1 view .LVU830
  66:Task/Task_Telemetry.c ****     Telemetry_Monitor.buzzer_toggle_ch = Channel_6;
 2677              		.loc 1 66 37 is_stmt 0 view .LVU831
 2678 002c 0423     		movs	r3, #4
 2679 002e A375     		strb	r3, [r4, #22]
  67:Task/Task_Telemetry.c ****     Telemetry_Monitor.mode_switcher_ch = Channel_7;
 2680              		.loc 1 67 5 is_stmt 1 view .LVU832
  67:Task/Task_Telemetry.c ****     Telemetry_Monitor.mode_switcher_ch = Channel_7;
 2681              		.loc 1 67 40 is_stmt 0 view .LVU833
 2682 0030 0523     		movs	r3, #5
 2683 0032 E375     		strb	r3, [r4, #23]
  68:Task/Task_Telemetry.c ****     Telemetry_Monitor.blackbox_ch = Channel_8;
 2684              		.loc 1 68 5 is_stmt 1 view .LVU834
  68:Task/Task_Telemetry.c ****     Telemetry_Monitor.blackbox_ch = Channel_8;
 2685              		.loc 1 68 40 is_stmt 0 view .LVU835
 2686 0034 0623     		movs	r3, #6
 2687 0036 2376     		strb	r3, [r4, #24]
  69:Task/Task_Telemetry.c ****     Telemetry_Monitor.flip_over_ch = Channel_9;
 2688              		.loc 1 69 5 is_stmt 1 view .LVU836
  69:Task/Task_Telemetry.c ****     Telemetry_Monitor.flip_over_ch = Channel_9;
 2689              		.loc 1 69 35 is_stmt 0 view .LVU837
 2690 0038 0723     		movs	r3, #7
 2691 003a 6376     		strb	r3, [r4, #25]
  70:Task/Task_Telemetry.c **** 
 2692              		.loc 1 70 5 is_stmt 1 view .LVU838
  70:Task/Task_Telemetry.c **** 
 2693              		.loc 1 70 36 is_stmt 0 view .LVU839
 2694 003c 0823     		movs	r3, #8
 2695 003e A376     		strb	r3, [r4, #26]
  73:Task/Task_Telemetry.c ****     {
 2696              		.loc 1 73 5 is_stmt 1 view .LVU840
  73:Task/Task_Telemetry.c ****     {
 2697              		.loc 1 73 9 is_stmt 0 view .LVU841
 2698 0040 2A49     		ldr	r1, .L171+8
 2699 0042 04F12400 		add	r0, r4, #36
 2700 0046 FFF7FEFF 		bl	Telemetry_RC_Sig_Init
 2701              	.LVL222:
ARM GAS  C:\Users\8bit\AppData\Local\Temp\ccdsu2xB.s 			page 75


  73:Task/Task_Telemetry.c ****     {
 2702              		.loc 1 73 8 view .LVU842
 2703 004a 38B1     		cbz	r0, .L167
  77:Task/Task_Telemetry.c ****         {
 2704              		.loc 1 77 9 is_stmt 1 view .LVU843
  77:Task/Task_Telemetry.c ****         {
 2705              		.loc 1 77 25 is_stmt 0 view .LVU844
 2706 004c 274B     		ldr	r3, .L171+8
 2707 004e 1B78     		ldrb	r3, [r3]	@ zero_extendqisi2
  77:Task/Task_Telemetry.c ****         {
 2708              		.loc 1 77 12 view .LVU845
 2709 0050 012B     		cmp	r3, #1
 2710 0052 0AD0     		beq	.L170
 2711              	.L168:
 112:Task/Task_Telemetry.c **** 
 2712              		.loc 1 112 9 is_stmt 1 view .LVU846
 114:Task/Task_Telemetry.c ****     }
 2713              		.loc 1 114 9 view .LVU847
 114:Task/Task_Telemetry.c ****     }
 2714              		.loc 1 114 41 is_stmt 0 view .LVU848
 2715 0054 234B     		ldr	r3, .L171
 2716 0056 0122     		movs	r2, #1
 2717 0058 83F82120 		strb	r2, [r3, #33]
 2718              	.L167:
 117:Task/Task_Telemetry.c **** 
 2719              		.loc 1 117 5 is_stmt 1 view .LVU849
 117:Task/Task_Telemetry.c **** 
 2720              		.loc 1 117 41 is_stmt 0 view .LVU850
 2721 005c 214B     		ldr	r3, .L171
 2722 005e 0122     		movs	r2, #1
 2723 0060 DA76     		strb	r2, [r3, #27]
 119:Task/Task_Telemetry.c **** }
 2724              		.loc 1 119 5 is_stmt 1 view .LVU851
 119:Task/Task_Telemetry.c **** }
 2725              		.loc 1 119 26 is_stmt 0 view .LVU852
 2726 0062 234B     		ldr	r3, .L171+12
 2727 0064 1D60     		str	r5, [r3]
 120:Task/Task_Telemetry.c **** 
 2728              		.loc 1 120 1 view .LVU853
 2729 0066 03B0     		add	sp, sp, #12
 2730              	.LCFI44:
 2731              		.cfi_remember_state
 2732              		.cfi_def_cfa_offset 20
 2733              		@ sp needed
 2734 0068 F0BD     		pop	{r4, r5, r6, r7, pc}
 2735              	.LVL223:
 2736              	.L170:
 2737              	.LCFI45:
 2738              		.cfi_restore_state
  81:Task/Task_Telemetry.c ****                                       Telemetry_Monitor.pitch_ch, \
 2739              		.loc 1 81 13 is_stmt 1 view .LVU854
  81:Task/Task_Telemetry.c ****                                       Telemetry_Monitor.pitch_ch, \
 2740              		.loc 1 81 17 is_stmt 0 view .LVU855
 2741 006a 637D     		ldrb	r3, [r4, #21]	@ zero_extendqisi2
 2742 006c 227D     		ldrb	r2, [r4, #20]	@ zero_extendqisi2
 2743 006e E17C     		ldrb	r1, [r4, #19]	@ zero_extendqisi2
 2744 0070 A07C     		ldrb	r0, [r4, #18]	@ zero_extendqisi2
ARM GAS  C:\Users\8bit\AppData\Local\Temp\ccdsu2xB.s 			page 76


 2745 0072 FFF7FEFF 		bl	Telemetry_Bind_Gimbal
 2746              	.LVL224:
  81:Task/Task_Telemetry.c ****                                       Telemetry_Monitor.pitch_ch, \
 2747              		.loc 1 81 16 view .LVU856
 2748 0076 0028     		cmp	r0, #0
 2749 0078 ECD0     		beq	.L168
  85:Task/Task_Telemetry.c ****                                       Telemetry_Monitor.mode_switcher_ch, \
 2750              		.loc 1 85 17 view .LVU857
 2751 007a 637E     		ldrb	r3, [r4, #25]	@ zero_extendqisi2
 2752 007c 0093     		str	r3, [sp]
 2753 007e A37E     		ldrb	r3, [r4, #26]	@ zero_extendqisi2
 2754 0080 E27D     		ldrb	r2, [r4, #23]	@ zero_extendqisi2
 2755 0082 217E     		ldrb	r1, [r4, #24]	@ zero_extendqisi2
 2756 0084 A07D     		ldrb	r0, [r4, #22]	@ zero_extendqisi2
 2757 0086 FFF7FEFF 		bl	Telemetry_Bind_Toggle
 2758              	.LVL225:
  84:Task/Task_Telemetry.c ****                 Telemetry_Bind_Toggle(Telemetry_Monitor.arm_toggle_ch, \
 2759              		.loc 1 84 65 view .LVU858
 2760 008a 0028     		cmp	r0, #0
 2761 008c E2D0     		beq	.L168
  90:Task/Task_Telemetry.c ****             {
 2762              		.loc 1 90 17 view .LVU859
 2763 008e FFF7FEFF 		bl	Telemetry_Bind_CalibCombo
 2764              	.LVL226:
  89:Task/Task_Telemetry.c ****                 Telemetry_Bind_CalibCombo())
 2765              		.loc 1 89 70 view .LVU860
 2766 0092 0028     		cmp	r0, #0
 2767 0094 DED0     		beq	.L168
  92:Task/Task_Telemetry.c **** 
 2768              		.loc 1 92 17 is_stmt 1 view .LVU861
  92:Task/Task_Telemetry.c **** 
 2769              		.loc 1 92 60 is_stmt 0 view .LVU862
 2770 0096 0126     		movs	r6, #1
 2771 0098 84F83060 		strb	r6, [r4, #48]
  95:Task/Task_Telemetry.c ****                 Telemetry_Enable_GimbalDeadZone(&Telemetry_Monitor.RC_Setting.Gimbal[Gimbal_Roll], 
 2772              		.loc 1 95 17 is_stmt 1 view .LVU863
 2773 009c 6421     		movs	r1, #100
 2774 009e 04F18C00 		add	r0, r4, #140
 2775 00a2 FFF7FEFF 		bl	Telemetry_Enable_GimbalDeadZone
 2776              	.LVL227:
  96:Task/Task_Telemetry.c ****                 Telemetry_Enable_GimbalDeadZone(&Telemetry_Monitor.RC_Setting.Gimbal[Gimbal_Yaw], 1
 2777              		.loc 1 96 17 view .LVU864
 2778 00a6 6421     		movs	r1, #100
 2779 00a8 04F1A400 		add	r0, r4, #164
 2780 00ac FFF7FEFF 		bl	Telemetry_Enable_GimbalDeadZone
 2781              	.LVL228:
  97:Task/Task_Telemetry.c **** 
 2782              		.loc 1 97 17 view .LVU865
 2783 00b0 6421     		movs	r1, #100
 2784 00b2 04F1BC00 		add	r0, r4, #188
 2785 00b6 FFF7FEFF 		bl	Telemetry_Enable_GimbalDeadZone
 2786              	.LVL229:
 100:Task/Task_Telemetry.c ****                 memset(DataPipe_DataObjAddr(Rc), 0, DataPipe_DataSize(Rc));
 2787              		.loc 1 100 17 view .LVU866
 2788 00ba 0E4C     		ldr	r4, .L171+16
 2789 00bc 2722     		movs	r2, #39
 2790 00be 0021     		movs	r1, #0
ARM GAS  C:\Users\8bit\AppData\Local\Temp\ccdsu2xB.s 			page 77


 2791 00c0 2046     		mov	r0, r4
 2792 00c2 FFF7FEFF 		bl	memset
 2793              	.LVL230:
 101:Task/Task_Telemetry.c **** 
 2794              		.loc 1 101 17 view .LVU867
 2795 00c6 0C4F     		ldr	r7, .L171+20
 2796 00c8 6422     		movs	r2, #100
 2797 00ca 0021     		movs	r1, #0
 2798 00cc 3846     		mov	r0, r7
 2799 00ce FFF7FEFF 		bl	memset
 2800              	.LVL231:
 103:Task/Task_Telemetry.c ****                 Receiver_Smp_DataPipe.data_size = DataPipe_DataSize(Rc);
 2801              		.loc 1 103 17 view .LVU868
 103:Task/Task_Telemetry.c ****                 Receiver_Smp_DataPipe.data_size = DataPipe_DataSize(Rc);
 2802              		.loc 1 103 49 is_stmt 0 view .LVU869
 2803 00d2 C4F80D70 		str	r7, [r4, #13]	@ unaligned
 104:Task/Task_Telemetry.c **** 
 2804              		.loc 1 104 17 is_stmt 1 view .LVU870
 104:Task/Task_Telemetry.c **** 
 2805              		.loc 1 104 49 is_stmt 0 view .LVU871
 2806 00d6 6423     		movs	r3, #100
 2807 00d8 6374     		strb	r3, [r4, #17]
 2808 00da 0023     		movs	r3, #0
 2809 00dc A374     		strb	r3, [r4, #18]
 106:Task/Task_Telemetry.c ****             }
 2810              		.loc 1 106 17 is_stmt 1 view .LVU872
 2811              	.LVL232:
 2812              	.LBB8:
 2813              	.LBI8:
 2814              		.file 2 "System/DataPipe/DataPipe.h"
   1:System/DataPipe/DataPipe.h **** #ifndef __DATAPIPE_H
   2:System/DataPipe/DataPipe.h **** #define __DATAPIPE_H
   3:System/DataPipe/DataPipe.h **** 
   4:System/DataPipe/DataPipe.h **** #ifdef __cplusplus
   5:System/DataPipe/DataPipe.h **** extern "C" {
   6:System/DataPipe/DataPipe.h **** #endif
   7:System/DataPipe/DataPipe.h **** 
   8:System/DataPipe/DataPipe.h **** #include <stdint.h>
   9:System/DataPipe/DataPipe.h **** #include <string.h>
  10:System/DataPipe/DataPipe.h **** #include <stdbool.h>
  11:System/DataPipe/DataPipe.h **** #include "../../FCHW_Config.h"
  12:System/DataPipe/DataPipe.h **** 
  13:System/DataPipe/DataPipe.h **** typedef void (*Pipe_TransFinish_Callback)(void *pipe_obj);
  14:System/DataPipe/DataPipe.h **** typedef void (*Pipe_TransError_Callback)(void *pipe_obj);
  15:System/DataPipe/DataPipe.h **** typedef void (*Pipe_TimeOutProc_Callback)(void *pipe_obj);
  16:System/DataPipe/DataPipe.h **** 
  17:System/DataPipe/DataPipe.h **** #define DataPipeHandleToObj(x) ((DataPipeObj_TypeDef *)x)
  18:System/DataPipe/DataPipe.h **** #define DataPipe_CreateDataObj(type, name) static type name##_##PipeDataObj __attribute__((section(
  19:System/DataPipe/DataPipe.h **** #define DataPipe_DataObjAddr(name) (&name##_##PipeDataObj)
  20:System/DataPipe/DataPipe.h **** #define DataPipe_DataObj(name) name##_##PipeDataObj
  21:System/DataPipe/DataPipe.h **** #define DataPipe_DataSize(name) sizeof(name##_##PipeDataObj)
  22:System/DataPipe/DataPipe.h **** 
  23:System/DataPipe/DataPipe.h **** typedef enum
  24:System/DataPipe/DataPipe.h **** {
  25:System/DataPipe/DataPipe.h ****     Pipe_UnReady = 0,
  26:System/DataPipe/DataPipe.h ****     Pipe_Ready,
  27:System/DataPipe/DataPipe.h ****     Pipe_Busy,
ARM GAS  C:\Users\8bit\AppData\Local\Temp\ccdsu2xB.s 			page 78


  28:System/DataPipe/DataPipe.h ****     Pipe_Error,
  29:System/DataPipe/DataPipe.h **** } DataPipe_State_List;
  30:System/DataPipe/DataPipe.h **** 
  31:System/DataPipe/DataPipe.h **** #pragma pack(1)
  32:System/DataPipe/DataPipe.h **** typedef struct
  33:System/DataPipe/DataPipe.h **** {
  34:System/DataPipe/DataPipe.h ****     uint32_t min_rx_interval;
  35:System/DataPipe/DataPipe.h ****     uint32_t detect_interval;
  36:System/DataPipe/DataPipe.h ****     uint32_t rx_ms_rt;
  37:System/DataPipe/DataPipe.h **** 
  38:System/DataPipe/DataPipe.h ****     bool enable;
  39:System/DataPipe/DataPipe.h **** 
  40:System/DataPipe/DataPipe.h ****     uint32_t data_addr;
  41:System/DataPipe/DataPipe.h ****     uint16_t data_size;
  42:System/DataPipe/DataPipe.h **** 
  43:System/DataPipe/DataPipe.h ****     Pipe_TransFinish_Callback trans_finish_cb;
  44:System/DataPipe/DataPipe.h ****     Pipe_TransError_Callback trans_error_cb;
  45:System/DataPipe/DataPipe.h **** 
  46:System/DataPipe/DataPipe.h ****     uint32_t tx_cnt;
  47:System/DataPipe/DataPipe.h ****     uint32_t rx_cnt;
  48:System/DataPipe/DataPipe.h ****     uint32_t er_cnt;
  49:System/DataPipe/DataPipe.h **** } DataPipeObj_TypeDef;
  50:System/DataPipe/DataPipe.h **** #pragma pack()
  51:System/DataPipe/DataPipe.h **** 
  52:System/DataPipe/DataPipe.h **** typedef struct
  53:System/DataPipe/DataPipe.h **** {
  54:System/DataPipe/DataPipe.h ****     DataPipeObj_TypeDef *org;
  55:System/DataPipe/DataPipe.h ****     DataPipeObj_TypeDef *dst;
  56:System/DataPipe/DataPipe.h **** } Data_PlugedPipeObj_TypeDef;
  57:System/DataPipe/DataPipe.h **** 
  58:System/DataPipe/DataPipe.h **** bool DataPipe_Init(void);
  59:System/DataPipe/DataPipe.h **** bool DataPipe_DeInit(void);
  60:System/DataPipe/DataPipe.h **** bool DataPipe_SendTo(DataPipeObj_TypeDef *p_org, DataPipeObj_TypeDef *p_dst);
  61:System/DataPipe/DataPipe.h **** bool DataPipe_DealError(void);
  62:System/DataPipe/DataPipe.h **** 
  63:System/DataPipe/DataPipe.h **** inline bool DataPipe_Enable(DataPipeObj_TypeDef *obj)
 2815              		.loc 2 63 13 view .LVU873
 2816              	.LBB9:
  64:System/DataPipe/DataPipe.h **** {
  65:System/DataPipe/DataPipe.h ****     if (obj == NULL)
 2817              		.loc 2 65 5 view .LVU874
  66:System/DataPipe/DataPipe.h ****         return false;
  67:System/DataPipe/DataPipe.h **** 
  68:System/DataPipe/DataPipe.h ****     obj->enable = true;
 2818              		.loc 2 68 5 view .LVU875
 2819              		.loc 2 68 17 is_stmt 0 view .LVU876
 2820 00de 2673     		strb	r6, [r4, #12]
  69:System/DataPipe/DataPipe.h **** 
  70:System/DataPipe/DataPipe.h ****     return true;
 2821              		.loc 2 70 5 is_stmt 1 view .LVU877
 2822 00e0 B8E7     		b	.L168
 2823              	.L172:
 2824 00e2 00BF     		.align	2
 2825              	.L171:
 2826 00e4 00000000 		.word	.LANCHOR2
 2827 00e8 00000000 		.word	SrvOsCommon
 2828 00ec 00000000 		.word	.LANCHOR5
ARM GAS  C:\Users\8bit\AppData\Local\Temp\ccdsu2xB.s 			page 79


 2829 00f0 00000000 		.word	.LANCHOR8
 2830 00f4 00000000 		.word	Receiver_Smp_DataPipe
 2831 00f8 00000000 		.word	.LANCHOR7
 2832              	.LBE9:
 2833              	.LBE8:
 2834              		.cfi_endproc
 2835              	.LFE2074:
 2837              		.section	.text.TaskTelemetry_Core,"ax",%progbits
 2838              		.align	1
 2839              		.global	TaskTelemetry_Core
 2840              		.syntax unified
 2841              		.thumb
 2842              		.thumb_func
 2844              	TaskTelemetry_Core:
 2845              	.LVL233:
 2846              	.LFB2076:
 152:Task/Task_Telemetry.c ****     uint32_t sys_time = SrvOsCommon.get_os_ms();
 2847              		.loc 1 152 1 view -0
 2848              		.cfi_startproc
 2849              		@ Volatile: function does not return.
 2850              		@ args = 0, pretend = 0, frame = 152
 2851              		@ frame_needed = 0, uses_anonymous_args = 0
 152:Task/Task_Telemetry.c ****     uint32_t sys_time = SrvOsCommon.get_os_ms();
 2852              		.loc 1 152 1 is_stmt 0 view .LVU879
 2853 0000 00B5     		push	{lr}
 2854              	.LCFI46:
 2855              		.cfi_def_cfa_offset 4
 2856              		.cfi_offset 14, -4
 2857 0002 B5B0     		sub	sp, sp, #212
 2858              	.LCFI47:
 2859              		.cfi_def_cfa_offset 216
 153:Task/Task_Telemetry.c ****     bool upgrade_state = false;
 2860              		.loc 1 153 5 is_stmt 1 view .LVU880
 153:Task/Task_Telemetry.c ****     bool upgrade_state = false;
 2861              		.loc 1 153 36 is_stmt 0 view .LVU881
 2862 0004 324B     		ldr	r3, .L178
 2863 0006 5B68     		ldr	r3, [r3, #4]
 153:Task/Task_Telemetry.c ****     bool upgrade_state = false;
 2864              		.loc 1 153 25 view .LVU882
 2865 0008 9847     		blx	r3
 2866              	.LVL234:
 153:Task/Task_Telemetry.c ****     bool upgrade_state = false;
 2867              		.loc 1 153 14 view .LVU883
 2868 000a 3390     		str	r0, [sp, #204]
 154:Task/Task_Telemetry.c ****     Telemetry_RCSig_TypeDef RCSig;
 2869              		.loc 1 154 5 is_stmt 1 view .LVU884
 154:Task/Task_Telemetry.c ****     Telemetry_RCSig_TypeDef RCSig;
 2870              		.loc 1 154 10 is_stmt 0 view .LVU885
 2871 000c 0021     		movs	r1, #0
 2872 000e 8DF8CB10 		strb	r1, [sp, #203]
 155:Task/Task_Telemetry.c ****     memset(&RCSig, 0, sizeof(Telemetry_RCSig_TypeDef));
 2873              		.loc 1 155 5 is_stmt 1 view .LVU886
 156:Task/Task_Telemetry.c **** 
 2874              		.loc 1 156 5 view .LVU887
 2875 0012 4422     		movs	r2, #68
 2876 0014 21A8     		add	r0, sp, #132
 2877 0016 FFF7FEFF 		bl	memset
ARM GAS  C:\Users\8bit\AppData\Local\Temp\ccdsu2xB.s 			page 80


 2878              	.LVL235:
 2879 001a 0DE0     		b	.L176
 2880              	.L175:
 171:Task/Task_Telemetry.c ****         }
 2881              		.loc 1 171 13 view .LVU888
 2882 001c 2D49     		ldr	r1, .L178+4
 2883 001e 2E48     		ldr	r0, .L178+8
 2884 0020 FFF7FEFF 		bl	DataPipe_SendTo
 2885              	.LVL236:
 2886              	.L174:
 174:Task/Task_Telemetry.c ****         SrvOsCommon.precise_delay(&sys_time, TaskTelemetry_Period);
 2887              		.loc 1 174 9 view .LVU889
 2888 0024 9DF88400 		ldrb	r0, [sp, #132]	@ zero_extendqisi2
 2889 0028 FFF7FEFF 		bl	Telemetry_blink
 2890              	.LVL237:
 175:Task/Task_Telemetry.c ****     }
 2891              		.loc 1 175 9 view .LVU890
 175:Task/Task_Telemetry.c ****     }
 2892              		.loc 1 175 20 is_stmt 0 view .LVU891
 2893 002c 284B     		ldr	r3, .L178
 2894 002e DB68     		ldr	r3, [r3, #12]
 175:Task/Task_Telemetry.c ****     }
 2895              		.loc 1 175 9 view .LVU892
 2896 0030 2A4A     		ldr	r2, .L178+12
 2897 0032 1168     		ldr	r1, [r2]
 2898 0034 33A8     		add	r0, sp, #204
 2899 0036 9847     		blx	r3
 2900              	.LVL238:
 158:Task/Task_Telemetry.c ****     {
 2901              		.loc 1 158 10 is_stmt 1 view .LVU893
 2902              	.L176:
 158:Task/Task_Telemetry.c ****     {
 2903              		.loc 1 158 5 view .LVU894
 160:Task/Task_Telemetry.c ****         {
 2904              		.loc 1 160 9 view .LVU895
 160:Task/Task_Telemetry.c ****         {
 2905              		.loc 1 160 23 is_stmt 0 view .LVU896
 2906 0038 294B     		ldr	r3, .L178+16
 2907 003a 1B69     		ldr	r3, [r3, #16]
 160:Task/Task_Telemetry.c ****         {
 2908              		.loc 1 160 13 view .LVU897
 2909 003c 0DF1CB00 		add	r0, sp, #203
 2910 0040 9847     		blx	r3
 2911              	.LVL239:
 160:Task/Task_Telemetry.c ****         {
 2912              		.loc 1 160 12 view .LVU898
 2913 0042 0028     		cmp	r0, #0
 2914 0044 EED0     		beq	.L174
 160:Task/Task_Telemetry.c ****         {
 2915              		.loc 1 160 61 discriminator 1 view .LVU899
 2916 0046 9DF8CB30 		ldrb	r3, [sp, #203]	@ zero_extendqisi2
 160:Task/Task_Telemetry.c ****         {
 2917              		.loc 1 160 58 discriminator 1 view .LVU900
 2918 004a 002B     		cmp	r3, #0
 2919 004c EAD1     		bne	.L174
 163:Task/Task_Telemetry.c ****             Telemetry_ConvertRCData_To_ControlData(RCSig, DataPipe_DataObjAddr(Rc));
 2920              		.loc 1 163 13 is_stmt 1 view .LVU901
ARM GAS  C:\Users\8bit\AppData\Local\Temp\ccdsu2xB.s 			page 81


 163:Task/Task_Telemetry.c ****             Telemetry_ConvertRCData_To_ControlData(RCSig, DataPipe_DataObjAddr(Rc));
 2921              		.loc 1 163 21 is_stmt 0 view .LVU902
 2922 004e 254A     		ldr	r2, .L178+20
 2923 0050 2549     		ldr	r1, .L178+24
 2924 0052 0EA8     		add	r0, sp, #56
 2925 0054 FFF7FEFF 		bl	Telemetry_RC_Sig_Update
 2926              	.LVL240:
 2927 0058 21AC     		add	r4, sp, #132
 2928 005a 4422     		movs	r2, #68
 2929 005c 0EA9     		add	r1, sp, #56
 2930 005e 2046     		mov	r0, r4
 2931 0060 FFF7FEFF 		bl	memcpy
 2932              	.LVL241:
 164:Task/Task_Telemetry.c **** 
 2933              		.loc 1 164 13 is_stmt 1 view .LVU903
 2934 0064 214B     		ldr	r3, .L178+28
 2935 0066 0D93     		str	r3, [sp, #52]
 2936 0068 EC46     		mov	ip, sp
 2937 006a 0DF1940E 		add	lr, sp, #148
 2938 006e BEE80F00 		ldmia	lr!, {r0, r1, r2, r3}
 2939 0072 ACE80F00 		stmia	ip!, {r0, r1, r2, r3}
 2940 0076 BEE80F00 		ldmia	lr!, {r0, r1, r2, r3}
 2941 007a ACE80F00 		stmia	ip!, {r0, r1, r2, r3}
 2942 007e BEE80F00 		ldmia	lr!, {r0, r1, r2, r3}
 2943 0082 ACE80F00 		stmia	ip!, {r0, r1, r2, r3}
 2944 0086 DEF80030 		ldr	r3, [lr]
 2945 008a CCF80030 		str	r3, [ip]
 2946 008e 94E80F00 		ldm	r4, {r0, r1, r2, r3}
 2947 0092 FFF7FEFF 		bl	Telemetry_ConvertRCData_To_ControlData
 2948              	.LVL242:
 166:Task/Task_Telemetry.c ****                 /* trigger blackbox */
 2949              		.loc 1 166 13 view .LVU904
 166:Task/Task_Telemetry.c ****                 /* trigger blackbox */
 2950              		.loc 1 166 17 is_stmt 0 view .LVU905
 2951 0096 EC46     		mov	ip, sp
 2952 0098 0DF1940E 		add	lr, sp, #148
 2953 009c BEE80F00 		ldmia	lr!, {r0, r1, r2, r3}
 2954 00a0 ACE80F00 		stmia	ip!, {r0, r1, r2, r3}
 2955 00a4 BEE80F00 		ldmia	lr!, {r0, r1, r2, r3}
 2956 00a8 ACE80F00 		stmia	ip!, {r0, r1, r2, r3}
 2957 00ac BEE80F00 		ldmia	lr!, {r0, r1, r2, r3}
 2958 00b0 ACE80F00 		stmia	ip!, {r0, r1, r2, r3}
 2959 00b4 DEF80030 		ldr	r3, [lr]
 2960 00b8 CCF80030 		str	r3, [ip]
 2961 00bc 94E80F00 		ldm	r4, {r0, r1, r2, r3}
 2962 00c0 FFF7FEFF 		bl	Telemetry_BlackBox_OnChange
 2963              	.LVL243:
 166:Task/Task_Telemetry.c ****                 /* trigger blackbox */
 2964              		.loc 1 166 16 view .LVU906
 2965 00c4 0028     		cmp	r0, #0
 2966 00c6 A9D0     		beq	.L175
 168:Task/Task_Telemetry.c **** 
 2967              		.loc 1 168 17 is_stmt 1 view .LVU907
 2968 00c8 FFF7FEFF 		bl	TaskBlackBox_LogControl
 2969              	.LVL244:
 2970 00cc A6E7     		b	.L175
 2971              	.L179:
ARM GAS  C:\Users\8bit\AppData\Local\Temp\ccdsu2xB.s 			page 82


 2972 00ce 00BF     		.align	2
 2973              	.L178:
 2974 00d0 00000000 		.word	SrvOsCommon
 2975 00d4 00000000 		.word	Receiver_hub_DataPipe
 2976 00d8 00000000 		.word	Receiver_Smp_DataPipe
 2977 00dc 00000000 		.word	.LANCHOR8
 2978 00e0 00000000 		.word	SrvDataHub
 2979 00e4 00000000 		.word	.LANCHOR5
 2980 00e8 24000000 		.word	.LANCHOR2+36
 2981 00ec 00000000 		.word	.LANCHOR7
 2982              		.cfi_endproc
 2983              	.LFE2076:
 2985              		.section	.Perph_Section,"aw"
 2986              		.align	2
 2987              		.set	.LANCHOR7,. + 0
 2990              	Rc_PipeDataObj:
 2991 0000 00000000 		.space	100
 2991      00000000 
 2991      00000000 
 2991      00000000 
 2991      00000000 
 2992              		.section	.bss.Lst_Rt.1,"aw",%nobits
 2993              		.align	2
 2994              		.set	.LANCHOR0,. + 0
 2997              	Lst_Rt.1:
 2998 0000 00000000 		.space	4
 2999              		.section	.bss.Receiver_Obj,"aw",%nobits
 3000              		.align	2
 3001              		.set	.LANCHOR5,. + 0
 3004              	Receiver_Obj:
 3005 0000 00000000 		.space	60
 3005      00000000 
 3005      00000000 
 3005      00000000 
 3005      00000000 
 3006              		.section	.bss.TaskTelemetry_Period,"aw",%nobits
 3007              		.align	2
 3008              		.set	.LANCHOR8,. + 0
 3011              	TaskTelemetry_Period:
 3012 0000 00000000 		.space	4
 3013              		.section	.bss.Telemetry_Monitor,"aw",%nobits
 3014              		.align	2
 3015              		.set	.LANCHOR2,. + 0
 3018              	Telemetry_Monitor:
 3019 0000 00000000 		.space	380
 3019      00000000 
 3019      00000000 
 3019      00000000 
 3019      00000000 
 3020              		.section	.bss.led_state.0,"aw",%nobits
 3021              		.set	.LANCHOR1,. + 0
 3024              	led_state.0:
 3025 0000 00       		.space	1
 3026              		.section	.bss.lst_blackbox_state.2,"aw",%nobits
 3027              		.set	.LANCHOR4,. + 0
 3030              	lst_blackbox_state.2:
 3031 0000 00       		.space	1
ARM GAS  C:\Users\8bit\AppData\Local\Temp\ccdsu2xB.s 			page 83


 3032              		.section	.bss.throttle_warning.4,"aw",%nobits
 3033              		.set	.LANCHOR6,. + 0
 3036              	throttle_warning.4:
 3037 0000 00       		.space	1
 3038              		.section	.data.first_trigger.3,"aw"
 3039              		.set	.LANCHOR3,. + 0
 3042              	first_trigger.3:
 3043 0000 01       		.byte	1
 3044              		.text
 3045              	.Letext0:
 3046              		.file 3 "c:\\program files (x86)\\gnu arm embedded toolchain\\10 2021.10\\lib\\gcc\\arm-none-eabi\
 3047              		.file 4 "c:\\program files (x86)\\gnu arm embedded toolchain\\10 2021.10\\arm-none-eabi\\include\\
 3048              		.file 5 "c:\\program files (x86)\\gnu arm embedded toolchain\\10 2021.10\\arm-none-eabi\\include\\
 3049              		.file 6 "System/FreeRTOS/include/portable.h"
 3050              		.file 7 "Service/Srv_OsCommon.h"
 3051              		.file 8 "HW_Lib/AT32F435/drivers/inc/at32f435_437_tmr.h"
 3052              		.file 9 "HW_Lib/AT32F435/drivers/inc/at32f435_437_usart.h"
 3053              		.file 10 "HW_Lib/PortApi_Def/Bsp_GPIO_Port_Def.h"
 3054              		.file 11 "Service/control_data.h"
 3055              		.file 12 "Service/Srv_Receiver.h"
 3056              		.file 13 "DataStructure/linked_list.h"
 3057              		.file 14 "HW_Lib/AT32F435/bsp/Bsp_DMA.h"
 3058              		.file 15 "Device/Dev_Led.h"
 3059              		.file 16 "common/Error_Log/../../common/gen_physic_def/imu_data.h"
 3060              		.file 17 "HW_Lib/AT32F435/PinPort_Def/CCRC_AT32_20/HW_Def.h"
 3061              		.file 18 "Device/Dev_Dshot.h"
 3062              		.file 19 "Service/Srv_DataHub.h"
 3063              		.file 20 "Task/Task_Telemetry.h"
 3064              		.file 21 "<built-in>"
 3065              		.file 22 "Task/../common/util.h"
 3066              		.file 23 "Task/Task_BlackBox.h"
ARM GAS  C:\Users\8bit\AppData\Local\Temp\ccdsu2xB.s 			page 84


DEFINED SYMBOLS
                            *ABS*:00000000 Task_Telemetry.c
C:\Users\8bit\AppData\Local\Temp\ccdsu2xB.s:20     .text.Telemetry_blink:00000000 $t
C:\Users\8bit\AppData\Local\Temp\ccdsu2xB.s:25     .text.Telemetry_blink:00000000 Telemetry_blink
C:\Users\8bit\AppData\Local\Temp\ccdsu2xB.s:132    .text.Telemetry_blink:00000064 $d
C:\Users\8bit\AppData\Local\Temp\ccdsu2xB.s:142    .text.Telemetry_Enable_GimbalDeadZone:00000000 $t
C:\Users\8bit\AppData\Local\Temp\ccdsu2xB.s:147    .text.Telemetry_Enable_GimbalDeadZone:00000000 Telemetry_Enable_GimbalDeadZone
C:\Users\8bit\AppData\Local\Temp\ccdsu2xB.s:184    .text.Telemetry_GimbalToPercent:00000000 $t
C:\Users\8bit\AppData\Local\Temp\ccdsu2xB.s:189    .text.Telemetry_GimbalToPercent:00000000 Telemetry_GimbalToPercent
C:\Users\8bit\AppData\Local\Temp\ccdsu2xB.s:400    .text.Telemetry_GimbalToPercent:000000e4 $d
C:\Users\8bit\AppData\Local\Temp\ccdsu2xB.s:406    .text.Telemetry_SplitScopeValue_Into:00000000 $t
C:\Users\8bit\AppData\Local\Temp\ccdsu2xB.s:411    .text.Telemetry_SplitScopeValue_Into:00000000 Telemetry_SplitScopeValue_Into
C:\Users\8bit\AppData\Local\Temp\ccdsu2xB.s:448    .text.Telemetry_SplitScopeValue_Into:00000018 $d
C:\Users\8bit\AppData\Local\Temp\ccdsu2xB.s:453    .text.Telemetry_BlackBox_OnChange:00000000 $t
C:\Users\8bit\AppData\Local\Temp\ccdsu2xB.s:458    .text.Telemetry_BlackBox_OnChange:00000000 Telemetry_BlackBox_OnChange
C:\Users\8bit\AppData\Local\Temp\ccdsu2xB.s:552    .text.Telemetry_BlackBox_OnChange:00000050 $d
C:\Users\8bit\AppData\Local\Temp\ccdsu2xB.s:558    .text.Telemetry_RC_Sig_Init:00000000 $t
C:\Users\8bit\AppData\Local\Temp\ccdsu2xB.s:563    .text.Telemetry_RC_Sig_Init:00000000 Telemetry_RC_Sig_Init
C:\Users\8bit\AppData\Local\Temp\ccdsu2xB.s:680    .text.Telemetry_RC_Sig_Init:00000084 $d
C:\Users\8bit\AppData\Local\Temp\ccdsu2xB.s:689    .text.Telemetry_ConvertRCData_To_ControlData:00000000 $t
C:\Users\8bit\AppData\Local\Temp\ccdsu2xB.s:694    .text.Telemetry_ConvertRCData_To_ControlData:00000000 Telemetry_ConvertRCData_To_ControlData
C:\Users\8bit\AppData\Local\Temp\ccdsu2xB.s:921    .text.Telemetry_ConvertRCData_To_ControlData:00000140 $d
C:\Users\8bit\AppData\Local\Temp\ccdsu2xB.s:926    .text.Telemetry_BindGimbalToChannel:00000000 $t
C:\Users\8bit\AppData\Local\Temp\ccdsu2xB.s:931    .text.Telemetry_BindGimbalToChannel:00000000 Telemetry_BindGimbalToChannel
C:\Users\8bit\AppData\Local\Temp\ccdsu2xB.s:1087   .text.Telemetry_BindGimbalToChannel:00000090 $d
C:\Users\8bit\AppData\Local\Temp\ccdsu2xB.s:1093   .text.Telemetry_Bind_Gimbal:00000000 $t
C:\Users\8bit\AppData\Local\Temp\ccdsu2xB.s:1098   .text.Telemetry_Bind_Gimbal:00000000 Telemetry_Bind_Gimbal
C:\Users\8bit\AppData\Local\Temp\ccdsu2xB.s:1316   .text.Telemetry_Bind_Gimbal:000000f4 $d
C:\Users\8bit\AppData\Local\Temp\ccdsu2xB.s:1322   .text.Telemetry_BindToggleToChannel:00000000 $t
C:\Users\8bit\AppData\Local\Temp\ccdsu2xB.s:1327   .text.Telemetry_BindToggleToChannel:00000000 Telemetry_BindToggleToChannel
C:\Users\8bit\AppData\Local\Temp\ccdsu2xB.s:1461   .text.Telemetry_BindToggleToChannel:00000064 $d
C:\Users\8bit\AppData\Local\Temp\ccdsu2xB.s:1467   .text.Telemetry_AddToggleCombo:00000000 $t
C:\Users\8bit\AppData\Local\Temp\ccdsu2xB.s:1472   .text.Telemetry_AddToggleCombo:00000000 Telemetry_AddToggleCombo
C:\Users\8bit\AppData\Local\Temp\ccdsu2xB.s:1633   .text.Telemetry_AddToggleCombo:0000008c $d
C:\Users\8bit\AppData\Local\Temp\ccdsu2xB.s:1639   .text.Telemetry_Bind_Toggle:00000000 $t
C:\Users\8bit\AppData\Local\Temp\ccdsu2xB.s:1644   .text.Telemetry_Bind_Toggle:00000000 Telemetry_Bind_Toggle
C:\Users\8bit\AppData\Local\Temp\ccdsu2xB.s:1863   .text.Telemetry_Bind_Toggle:00000118 $d
C:\Users\8bit\AppData\Local\Temp\ccdsu2xB.s:1869   .text.Telemetry_Bind_CalibCombo:00000000 $t
C:\Users\8bit\AppData\Local\Temp\ccdsu2xB.s:1874   .text.Telemetry_Bind_CalibCombo:00000000 Telemetry_Bind_CalibCombo
C:\Users\8bit\AppData\Local\Temp\ccdsu2xB.s:1978   .text.Telemetry_Bind_CalibCombo:0000007c $d
C:\Users\8bit\AppData\Local\Temp\ccdsu2xB.s:1984   .text.Telemetry_Toggle_Check:00000000 $t
C:\Users\8bit\AppData\Local\Temp\ccdsu2xB.s:1989   .text.Telemetry_Toggle_Check:00000000 Telemetry_Toggle_Check
C:\Users\8bit\AppData\Local\Temp\ccdsu2xB.s:2156   .text.Telemetry_RC_Sig_Update:00000000 $t
C:\Users\8bit\AppData\Local\Temp\ccdsu2xB.s:2161   .text.Telemetry_RC_Sig_Update:00000000 Telemetry_RC_Sig_Update
C:\Users\8bit\AppData\Local\Temp\ccdsu2xB.s:2608   .text.Telemetry_RC_Sig_Update:000001f0 $d
C:\Users\8bit\AppData\Local\Temp\ccdsu2xB.s:2616   .text.TaskTelemetry_Init:00000000 $t
C:\Users\8bit\AppData\Local\Temp\ccdsu2xB.s:2622   .text.TaskTelemetry_Init:00000000 TaskTelemetry_Init
C:\Users\8bit\AppData\Local\Temp\ccdsu2xB.s:2826   .text.TaskTelemetry_Init:000000e4 $d
C:\Users\8bit\AppData\Local\Temp\ccdsu2xB.s:2838   .text.TaskTelemetry_Core:00000000 $t
C:\Users\8bit\AppData\Local\Temp\ccdsu2xB.s:2844   .text.TaskTelemetry_Core:00000000 TaskTelemetry_Core
C:\Users\8bit\AppData\Local\Temp\ccdsu2xB.s:2974   .text.TaskTelemetry_Core:000000d0 $d
C:\Users\8bit\AppData\Local\Temp\ccdsu2xB.s:2986   .Perph_Section:00000000 $d
C:\Users\8bit\AppData\Local\Temp\ccdsu2xB.s:2990   .Perph_Section:00000000 Rc_PipeDataObj
C:\Users\8bit\AppData\Local\Temp\ccdsu2xB.s:2993   .bss.Lst_Rt.1:00000000 $d
C:\Users\8bit\AppData\Local\Temp\ccdsu2xB.s:2997   .bss.Lst_Rt.1:00000000 Lst_Rt.1
C:\Users\8bit\AppData\Local\Temp\ccdsu2xB.s:3000   .bss.Receiver_Obj:00000000 $d
C:\Users\8bit\AppData\Local\Temp\ccdsu2xB.s:3004   .bss.Receiver_Obj:00000000 Receiver_Obj
ARM GAS  C:\Users\8bit\AppData\Local\Temp\ccdsu2xB.s 			page 85


C:\Users\8bit\AppData\Local\Temp\ccdsu2xB.s:3007   .bss.TaskTelemetry_Period:00000000 $d
C:\Users\8bit\AppData\Local\Temp\ccdsu2xB.s:3011   .bss.TaskTelemetry_Period:00000000 TaskTelemetry_Period
C:\Users\8bit\AppData\Local\Temp\ccdsu2xB.s:3014   .bss.Telemetry_Monitor:00000000 $d
C:\Users\8bit\AppData\Local\Temp\ccdsu2xB.s:3018   .bss.Telemetry_Monitor:00000000 Telemetry_Monitor
C:\Users\8bit\AppData\Local\Temp\ccdsu2xB.s:3024   .bss.led_state.0:00000000 led_state.0
C:\Users\8bit\AppData\Local\Temp\ccdsu2xB.s:3025   .bss.led_state.0:00000000 $d
C:\Users\8bit\AppData\Local\Temp\ccdsu2xB.s:3030   .bss.lst_blackbox_state.2:00000000 lst_blackbox_state.2
C:\Users\8bit\AppData\Local\Temp\ccdsu2xB.s:3031   .bss.lst_blackbox_state.2:00000000 $d
C:\Users\8bit\AppData\Local\Temp\ccdsu2xB.s:3036   .bss.throttle_warning.4:00000000 throttle_warning.4
C:\Users\8bit\AppData\Local\Temp\ccdsu2xB.s:3037   .bss.throttle_warning.4:00000000 $d
C:\Users\8bit\AppData\Local\Temp\ccdsu2xB.s:3042   .data.first_trigger.3:00000000 first_trigger.3

UNDEFINED SYMBOLS
Led2
SrvOsCommon
DevLED
memset
Uart3_RxPin
Uart3_TxPin
SrvReceiver
List_ItemInit
List_Insert_Item
Get_OnSet_Bit_Num
Get_Bit_Index
memcpy
Receiver_Smp_DataPipe
DataPipe_SendTo
TaskBlackBox_LogControl
Receiver_hub_DataPipe
SrvDataHub
