ARM GAS  /var/folders/lx/hc4sn_b53233_zkc9xbbl97r0000gp/T//cc3oeBLw.s 			page 1


   1              		.cpu cortex-m7
   2              		.eabi_attribute 28, 1
   3              		.eabi_attribute 20, 1
   4              		.eabi_attribute 21, 1
   5              		.eabi_attribute 23, 3
   6              		.eabi_attribute 24, 1
   7              		.eabi_attribute 25, 1
   8              		.eabi_attribute 26, 1
   9              		.eabi_attribute 30, 1
  10              		.eabi_attribute 34, 1
  11              		.eabi_attribute 18, 4
  12              		.file	"Task_Manager.c"
  13              		.text
  14              	.Ltext0:
  15              		.cfi_sections	.debug_frame
  16              		.global	__aeabi_uldivmod
  17              		.section	.text.Test2,"ax",%progbits
  18              		.align	1
  19              		.global	Test2
  20              		.arch armv7e-m
  21              		.syntax unified
  22              		.thumb
  23              		.thumb_func
  24              		.fpu fpv5-d16
  26              	Test2:
  27              	.LVL0:
  28              	.LFB152:
  29              		.file 1 "Task/Task_Manager.c"
   1:Task/Task_Manager.c **** #include "Task_Manager.h"
   2:Task/Task_Manager.c **** #include "Task_Log.h"
   3:Task/Task_Manager.c **** #include "Task_Protocol.h"
   4:Task/Task_Manager.c **** #include "Task_SensorInertial.h"
   5:Task/Task_Manager.c **** #include "scheduler.h"
   6:Task/Task_Manager.c **** #include "debug_util.h"
   7:Task/Task_Manager.c **** #include "IO_Definition.h"
   8:Task/Task_Manager.c **** #include "runtime.h"
   9:Task/Task_Manager.c **** #include "Dev_Led.h"
  10:Task/Task_Manager.c **** #include "DiskIO.h"
  11:Task/Task_Manager.c **** #include "DataPipe/DataPipe.h"
  12:Task/Task_Manager.c **** 
  13:Task/Task_Manager.c **** Task_Handle TaskProtocol_Handle = NULL;
  14:Task/Task_Manager.c **** Task_Handle TaskInertial_Handle = NULL;
  15:Task/Task_Manager.c **** Task_Handle TaskLog_Handle = NULL;
  16:Task/Task_Manager.c **** Task_Handle Test_Task = NULL;
  17:Task/Task_Manager.c **** Task_Handle Test2_Task = NULL;
  18:Task/Task_Manager.c **** 
  19:Task/Task_Manager.c **** void Test2(Task_Handle handle);
  20:Task/Task_Manager.c **** 
  21:Task/Task_Manager.c **** void test_PC0_ctl(void)
  22:Task/Task_Manager.c **** {
  23:Task/Task_Manager.c ****     DebugPin.ctl(Debug_PC0, true);
  24:Task/Task_Manager.c ****     DebugPin.ctl(Debug_PC0, false);
  25:Task/Task_Manager.c **** }
  26:Task/Task_Manager.c **** 
  27:Task/Task_Manager.c **** void test_PC1_ctl(void)
  28:Task/Task_Manager.c **** {
  29:Task/Task_Manager.c ****     DebugPin.ctl(Debug_PC1, true);
ARM GAS  /var/folders/lx/hc4sn_b53233_zkc9xbbl97r0000gp/T//cc3oeBLw.s 			page 2


  30:Task/Task_Manager.c ****     DebugPin.ctl(Debug_PC1, false);
  31:Task/Task_Manager.c **** }
  32:Task/Task_Manager.c **** 
  33:Task/Task_Manager.c **** void test_PC2_ctl(void)
  34:Task/Task_Manager.c **** {
  35:Task/Task_Manager.c ****     DebugPin.ctl(Debug_PC2, true);
  36:Task/Task_Manager.c ****     DebugPin.ctl(Debug_PC2, false);
  37:Task/Task_Manager.c **** }
  38:Task/Task_Manager.c **** 
  39:Task/Task_Manager.c **** void Task_Manager_Init(void)
  40:Task/Task_Manager.c **** {
  41:Task/Task_Manager.c ****     DevLED.init(Led1);
  42:Task/Task_Manager.c ****     DevLED.init(Led2);
  43:Task/Task_Manager.c ****     DevLED.init(Led3);
  44:Task/Task_Manager.c **** 
  45:Task/Task_Manager.c ****     DebugPin.init(Debug_PC0);
  46:Task/Task_Manager.c ****     DebugPin.init(Debug_PC1);
  47:Task/Task_Manager.c ****     DebugPin.init(Debug_PC2);
  48:Task/Task_Manager.c ****     DebugPin.init(Debug_PC3);
  49:Task/Task_Manager.c ****     DebugPin.init(Debug_PB3);
  50:Task/Task_Manager.c ****     DebugPin.init(Debug_PB4);
  51:Task/Task_Manager.c ****     DebugPin.init(Debug_PB5);
  52:Task/Task_Manager.c ****     DebugPin.init(Debug_PB6);
  53:Task/Task_Manager.c ****     DebugPin.init(Debug_PB10);
  54:Task/Task_Manager.c **** 
  55:Task/Task_Manager.c ****     /* receiver port init */
  56:Task/Task_Manager.c **** 
  57:Task/Task_Manager.c ****     /* ESC port init */
  58:Task/Task_Manager.c **** 
  59:Task/Task_Manager.c ****     /* vol ADC init */
  60:Task/Task_Manager.c **** 
  61:Task/Task_Manager.c ****     /* cur ADC init */
  62:Task/Task_Manager.c **** 
  63:Task/Task_Manager.c ****     DataPipe_Init();
  64:Task/Task_Manager.c **** 
  65:Task/Task_Manager.c ****     TaskProtocol_Init();
  66:Task/Task_Manager.c ****     TaskInertial_Init();
  67:Task/Task_Manager.c ****     TaskLog_Init();
  68:Task/Task_Manager.c **** }
  69:Task/Task_Manager.c **** 
  70:Task/Task_Manager.c **** void Task_Manager_CreateTask(void)
  71:Task/Task_Manager.c **** {
  72:Task/Task_Manager.c ****     TaskInertial_Handle = Os_CreateTask("Inertial Sample", TASK_EXEC_2KHZ, Task_Group_0, Task_Prior
  73:Task/Task_Manager.c ****     TaskProtocol_Handle = Os_CreateTask("Protocl", TASK_EXEC_20HZ, Task_Group_1, Task_Priority_0, T
  74:Task/Task_Manager.c ****     TaskLog_Handle = Os_CreateTask("Data Log", TASK_EXEC_200HZ, Task_Group_2, Task_Priority_0, Task
  75:Task/Task_Manager.c ****     Test2_Task = Os_CreateTask("test2", TASK_EXEC_1KHZ, Task_Group_0, Task_Priority_2, Test2, 256);
  76:Task/Task_Manager.c **** }
  77:Task/Task_Manager.c **** 
  78:Task/Task_Manager.c **** void Test2(Task_Handle handle)
  79:Task/Task_Manager.c **** {
  30              		.loc 1 79 1 view -0
  31              		.cfi_startproc
  32              		@ args = 0, pretend = 0, frame = 0
  33              		@ frame_needed = 0, uses_anonymous_args = 0
  34              		.loc 1 79 1 is_stmt 0 view .LVU1
  35 0000 38B5     		push	{r3, r4, r5, lr}
  36              	.LCFI0:
ARM GAS  /var/folders/lx/hc4sn_b53233_zkc9xbbl97r0000gp/T//cc3oeBLw.s 			page 3


  37              		.cfi_def_cfa_offset 16
  38              		.cfi_offset 3, -16
  39              		.cfi_offset 4, -12
  40              		.cfi_offset 5, -8
  41              		.cfi_offset 14, -4
  80:Task/Task_Manager.c ****     SYSTEM_RunTime Rt = 0;
  42              		.loc 1 80 5 is_stmt 1 view .LVU2
  43              	.LVL1:
  81:Task/Task_Manager.c ****     static SYSTEM_RunTime Lst_Rt = 0;
  44              		.loc 1 81 5 view .LVU3
  82:Task/Task_Manager.c ****     static bool led_state = false;
  45              		.loc 1 82 5 view .LVU4
  83:Task/Task_Manager.c **** 
  84:Task/Task_Manager.c ****     // DebugPin.ctl(Debug_PB4, true);
  85:Task/Task_Manager.c ****     // DebugPin.ctl(Debug_PB4, false);
  86:Task/Task_Manager.c **** 
  87:Task/Task_Manager.c ****     Rt = Get_CurrentRunningMs();
  46              		.loc 1 87 5 view .LVU5
  47              		.loc 1 87 10 is_stmt 0 view .LVU6
  48 0002 FFF7FEFF 		bl	Get_CurrentRunningMs
  49              	.LVL2:
  50              		.loc 1 87 10 view .LVU7
  51 0006 0546     		mov	r5, r0
  52 0008 0C46     		mov	r4, r1
  53              	.LVL3:
  88:Task/Task_Manager.c **** 
  89:Task/Task_Manager.c ****     if ((Rt % 100 == 0) && (Lst_Rt != Rt))
  54              		.loc 1 89 5 is_stmt 1 view .LVU8
  55              		.loc 1 89 13 is_stmt 0 view .LVU9
  56 000a 6422     		movs	r2, #100
  57 000c 0023     		movs	r3, #0
  58 000e FFF7FEFF 		bl	__aeabi_uldivmod
  59              	.LVL4:
  60              		.loc 1 89 8 view .LVU10
  61 0012 1343     		orrs	r3, r3, r2
  62 0014 0ED1     		bne	.L2
  63              		.loc 1 89 36 discriminator 1 view .LVU11
  64 0016 0C4B     		ldr	r3, .L4
  65 0018 1A68     		ldr	r2, [r3]
  66 001a 5B68     		ldr	r3, [r3, #4]
  67              		.loc 1 89 25 discriminator 1 view .LVU12
  68 001c A342     		cmp	r3, r4
  69 001e 08BF     		it	eq
  70 0020 AA42     		cmpeq	r2, r5
  71 0022 07D0     		beq	.L2
  90:Task/Task_Manager.c ****     {
  91:Task/Task_Manager.c ****         led_state = !led_state;
  72              		.loc 1 91 9 is_stmt 1 view .LVU13
  73 0024 094A     		ldr	r2, .L4+4
  74 0026 1378     		ldrb	r3, [r2]	@ zero_extendqisi2
  75 0028 83F00103 		eor	r3, r3, #1
  76              		.loc 1 91 19 is_stmt 0 view .LVU14
  77 002c 1370     		strb	r3, [r2]
  92:Task/Task_Manager.c ****         Lst_Rt = Rt;
  78              		.loc 1 92 9 is_stmt 1 view .LVU15
  79              		.loc 1 92 16 is_stmt 0 view .LVU16
  80 002e 064B     		ldr	r3, .L4
ARM GAS  /var/folders/lx/hc4sn_b53233_zkc9xbbl97r0000gp/T//cc3oeBLw.s 			page 4


  81 0030 1D60     		str	r5, [r3]
  82 0032 5C60     		str	r4, [r3, #4]
  83              	.L2:
  93:Task/Task_Manager.c ****     }
  94:Task/Task_Manager.c **** 
  95:Task/Task_Manager.c ****     DevLED.ctl(Led1, led_state);
  84              		.loc 1 95 5 is_stmt 1 view .LVU17
  85              		.loc 1 95 11 is_stmt 0 view .LVU18
  86 0034 064B     		ldr	r3, .L4+8
  87 0036 5C68     		ldr	r4, [r3, #4]
  88              	.LVL5:
  89              		.loc 1 95 5 view .LVU19
  90 0038 064B     		ldr	r3, .L4+12
  91 003a 044A     		ldr	r2, .L4+4
  92 003c 1278     		ldrb	r2, [r2]	@ zero_extendqisi2
  93 003e 93E80300 		ldm	r3, {r0, r1}
  94 0042 A047     		blx	r4
  95              	.LVL6:
  96:Task/Task_Manager.c ****     // DevLED.ctl(Led3, led_state);
  97:Task/Task_Manager.c **** }
  96              		.loc 1 97 1 view .LVU20
  97 0044 38BD     		pop	{r3, r4, r5, pc}
  98              	.L5:
  99              		.loc 1 97 1 view .LVU21
 100 0046 00BF     		.align	2
 101              	.L4:
 102 0048 00000000 		.word	.LANCHOR0
 103 004c 00000000 		.word	.LANCHOR1
 104 0050 00000000 		.word	DevLED
 105 0054 00000000 		.word	Led1
 106              		.cfi_endproc
 107              	.LFE152:
 109              		.section	.text.test_PC0_ctl,"ax",%progbits
 110              		.align	1
 111              		.global	test_PC0_ctl
 112              		.syntax unified
 113              		.thumb
 114              		.thumb_func
 115              		.fpu fpv5-d16
 117              	test_PC0_ctl:
 118              	.LFB147:
  22:Task/Task_Manager.c ****     DebugPin.ctl(Debug_PC0, true);
 119              		.loc 1 22 1 is_stmt 1 view -0
 120              		.cfi_startproc
 121              		@ args = 0, pretend = 0, frame = 0
 122              		@ frame_needed = 0, uses_anonymous_args = 0
 123 0000 38B5     		push	{r3, r4, r5, lr}
 124              	.LCFI1:
 125              		.cfi_def_cfa_offset 16
 126              		.cfi_offset 3, -16
 127              		.cfi_offset 4, -12
 128              		.cfi_offset 5, -8
 129              		.cfi_offset 14, -4
  23:Task/Task_Manager.c ****     DebugPin.ctl(Debug_PC0, false);
 130              		.loc 1 23 5 view .LVU23
  23:Task/Task_Manager.c ****     DebugPin.ctl(Debug_PC0, false);
 131              		.loc 1 23 13 is_stmt 0 view .LVU24
ARM GAS  /var/folders/lx/hc4sn_b53233_zkc9xbbl97r0000gp/T//cc3oeBLw.s 			page 5


 132 0002 064D     		ldr	r5, .L8
 133 0004 6B68     		ldr	r3, [r5, #4]
  23:Task/Task_Manager.c ****     DebugPin.ctl(Debug_PC0, false);
 134              		.loc 1 23 5 view .LVU25
 135 0006 064C     		ldr	r4, .L8+4
 136 0008 0122     		movs	r2, #1
 137 000a 94E80300 		ldm	r4, {r0, r1}
 138 000e 9847     		blx	r3
 139              	.LVL7:
  24:Task/Task_Manager.c **** }
 140              		.loc 1 24 5 is_stmt 1 view .LVU26
  24:Task/Task_Manager.c **** }
 141              		.loc 1 24 13 is_stmt 0 view .LVU27
 142 0010 6B68     		ldr	r3, [r5, #4]
  24:Task/Task_Manager.c **** }
 143              		.loc 1 24 5 view .LVU28
 144 0012 0022     		movs	r2, #0
 145 0014 94E80300 		ldm	r4, {r0, r1}
 146 0018 9847     		blx	r3
 147              	.LVL8:
  25:Task/Task_Manager.c **** 
 148              		.loc 1 25 1 view .LVU29
 149 001a 38BD     		pop	{r3, r4, r5, pc}
 150              	.L9:
 151              		.align	2
 152              	.L8:
 153 001c 00000000 		.word	DebugPin
 154 0020 00000000 		.word	Debug_PC0
 155              		.cfi_endproc
 156              	.LFE147:
 158              		.section	.text.test_PC1_ctl,"ax",%progbits
 159              		.align	1
 160              		.global	test_PC1_ctl
 161              		.syntax unified
 162              		.thumb
 163              		.thumb_func
 164              		.fpu fpv5-d16
 166              	test_PC1_ctl:
 167              	.LFB148:
  28:Task/Task_Manager.c ****     DebugPin.ctl(Debug_PC1, true);
 168              		.loc 1 28 1 is_stmt 1 view -0
 169              		.cfi_startproc
 170              		@ args = 0, pretend = 0, frame = 0
 171              		@ frame_needed = 0, uses_anonymous_args = 0
 172 0000 38B5     		push	{r3, r4, r5, lr}
 173              	.LCFI2:
 174              		.cfi_def_cfa_offset 16
 175              		.cfi_offset 3, -16
 176              		.cfi_offset 4, -12
 177              		.cfi_offset 5, -8
 178              		.cfi_offset 14, -4
  29:Task/Task_Manager.c ****     DebugPin.ctl(Debug_PC1, false);
 179              		.loc 1 29 5 view .LVU31
  29:Task/Task_Manager.c ****     DebugPin.ctl(Debug_PC1, false);
 180              		.loc 1 29 13 is_stmt 0 view .LVU32
 181 0002 064D     		ldr	r5, .L12
 182 0004 6B68     		ldr	r3, [r5, #4]
ARM GAS  /var/folders/lx/hc4sn_b53233_zkc9xbbl97r0000gp/T//cc3oeBLw.s 			page 6


  29:Task/Task_Manager.c ****     DebugPin.ctl(Debug_PC1, false);
 183              		.loc 1 29 5 view .LVU33
 184 0006 064C     		ldr	r4, .L12+4
 185 0008 0122     		movs	r2, #1
 186 000a 94E80300 		ldm	r4, {r0, r1}
 187 000e 9847     		blx	r3
 188              	.LVL9:
  30:Task/Task_Manager.c **** }
 189              		.loc 1 30 5 is_stmt 1 view .LVU34
  30:Task/Task_Manager.c **** }
 190              		.loc 1 30 13 is_stmt 0 view .LVU35
 191 0010 6B68     		ldr	r3, [r5, #4]
  30:Task/Task_Manager.c **** }
 192              		.loc 1 30 5 view .LVU36
 193 0012 0022     		movs	r2, #0
 194 0014 94E80300 		ldm	r4, {r0, r1}
 195 0018 9847     		blx	r3
 196              	.LVL10:
  31:Task/Task_Manager.c **** 
 197              		.loc 1 31 1 view .LVU37
 198 001a 38BD     		pop	{r3, r4, r5, pc}
 199              	.L13:
 200              		.align	2
 201              	.L12:
 202 001c 00000000 		.word	DebugPin
 203 0020 00000000 		.word	Debug_PC1
 204              		.cfi_endproc
 205              	.LFE148:
 207              		.section	.text.test_PC2_ctl,"ax",%progbits
 208              		.align	1
 209              		.global	test_PC2_ctl
 210              		.syntax unified
 211              		.thumb
 212              		.thumb_func
 213              		.fpu fpv5-d16
 215              	test_PC2_ctl:
 216              	.LFB149:
  34:Task/Task_Manager.c ****     DebugPin.ctl(Debug_PC2, true);
 217              		.loc 1 34 1 is_stmt 1 view -0
 218              		.cfi_startproc
 219              		@ args = 0, pretend = 0, frame = 0
 220              		@ frame_needed = 0, uses_anonymous_args = 0
 221 0000 38B5     		push	{r3, r4, r5, lr}
 222              	.LCFI3:
 223              		.cfi_def_cfa_offset 16
 224              		.cfi_offset 3, -16
 225              		.cfi_offset 4, -12
 226              		.cfi_offset 5, -8
 227              		.cfi_offset 14, -4
  35:Task/Task_Manager.c ****     DebugPin.ctl(Debug_PC2, false);
 228              		.loc 1 35 5 view .LVU39
  35:Task/Task_Manager.c ****     DebugPin.ctl(Debug_PC2, false);
 229              		.loc 1 35 13 is_stmt 0 view .LVU40
 230 0002 064D     		ldr	r5, .L16
 231 0004 6B68     		ldr	r3, [r5, #4]
  35:Task/Task_Manager.c ****     DebugPin.ctl(Debug_PC2, false);
 232              		.loc 1 35 5 view .LVU41
ARM GAS  /var/folders/lx/hc4sn_b53233_zkc9xbbl97r0000gp/T//cc3oeBLw.s 			page 7


 233 0006 064C     		ldr	r4, .L16+4
 234 0008 0122     		movs	r2, #1
 235 000a 94E80300 		ldm	r4, {r0, r1}
 236 000e 9847     		blx	r3
 237              	.LVL11:
  36:Task/Task_Manager.c **** }
 238              		.loc 1 36 5 is_stmt 1 view .LVU42
  36:Task/Task_Manager.c **** }
 239              		.loc 1 36 13 is_stmt 0 view .LVU43
 240 0010 6B68     		ldr	r3, [r5, #4]
  36:Task/Task_Manager.c **** }
 241              		.loc 1 36 5 view .LVU44
 242 0012 0022     		movs	r2, #0
 243 0014 94E80300 		ldm	r4, {r0, r1}
 244 0018 9847     		blx	r3
 245              	.LVL12:
  37:Task/Task_Manager.c **** 
 246              		.loc 1 37 1 view .LVU45
 247 001a 38BD     		pop	{r3, r4, r5, pc}
 248              	.L17:
 249              		.align	2
 250              	.L16:
 251 001c 00000000 		.word	DebugPin
 252 0020 00000000 		.word	Debug_PC2
 253              		.cfi_endproc
 254              	.LFE149:
 256              		.section	.text.Task_Manager_Init,"ax",%progbits
 257              		.align	1
 258              		.global	Task_Manager_Init
 259              		.syntax unified
 260              		.thumb
 261              		.thumb_func
 262              		.fpu fpv5-d16
 264              	Task_Manager_Init:
 265              	.LFB150:
  40:Task/Task_Manager.c ****     DevLED.init(Led1);
 266              		.loc 1 40 1 is_stmt 1 view -0
 267              		.cfi_startproc
 268              		@ args = 0, pretend = 0, frame = 0
 269              		@ frame_needed = 0, uses_anonymous_args = 0
 270 0000 10B5     		push	{r4, lr}
 271              	.LCFI4:
 272              		.cfi_def_cfa_offset 8
 273              		.cfi_offset 4, -8
 274              		.cfi_offset 14, -4
  41:Task/Task_Manager.c ****     DevLED.init(Led2);
 275              		.loc 1 41 5 view .LVU47
  41:Task/Task_Manager.c ****     DevLED.init(Led2);
 276              		.loc 1 41 11 is_stmt 0 view .LVU48
 277 0002 234C     		ldr	r4, .L20
 278 0004 2268     		ldr	r2, [r4]
  41:Task/Task_Manager.c ****     DevLED.init(Led2);
 279              		.loc 1 41 5 view .LVU49
 280 0006 234B     		ldr	r3, .L20+4
 281 0008 93E80300 		ldm	r3, {r0, r1}
 282 000c 9047     		blx	r2
 283              	.LVL13:
ARM GAS  /var/folders/lx/hc4sn_b53233_zkc9xbbl97r0000gp/T//cc3oeBLw.s 			page 8


  42:Task/Task_Manager.c ****     DevLED.init(Led3);
 284              		.loc 1 42 5 is_stmt 1 view .LVU50
  42:Task/Task_Manager.c ****     DevLED.init(Led3);
 285              		.loc 1 42 11 is_stmt 0 view .LVU51
 286 000e 2268     		ldr	r2, [r4]
  42:Task/Task_Manager.c ****     DevLED.init(Led3);
 287              		.loc 1 42 5 view .LVU52
 288 0010 214B     		ldr	r3, .L20+8
 289 0012 93E80300 		ldm	r3, {r0, r1}
 290 0016 9047     		blx	r2
 291              	.LVL14:
  43:Task/Task_Manager.c **** 
 292              		.loc 1 43 5 is_stmt 1 view .LVU53
  43:Task/Task_Manager.c **** 
 293              		.loc 1 43 11 is_stmt 0 view .LVU54
 294 0018 2268     		ldr	r2, [r4]
  43:Task/Task_Manager.c **** 
 295              		.loc 1 43 5 view .LVU55
 296 001a 204B     		ldr	r3, .L20+12
 297 001c 93E80300 		ldm	r3, {r0, r1}
 298 0020 9047     		blx	r2
 299              	.LVL15:
  45:Task/Task_Manager.c ****     DebugPin.init(Debug_PC1);
 300              		.loc 1 45 5 is_stmt 1 view .LVU56
  45:Task/Task_Manager.c ****     DebugPin.init(Debug_PC1);
 301              		.loc 1 45 13 is_stmt 0 view .LVU57
 302 0022 1F4C     		ldr	r4, .L20+16
 303 0024 2268     		ldr	r2, [r4]
  45:Task/Task_Manager.c ****     DebugPin.init(Debug_PC1);
 304              		.loc 1 45 5 view .LVU58
 305 0026 1F4B     		ldr	r3, .L20+20
 306 0028 93E80300 		ldm	r3, {r0, r1}
 307 002c 9047     		blx	r2
 308              	.LVL16:
  46:Task/Task_Manager.c ****     DebugPin.init(Debug_PC2);
 309              		.loc 1 46 5 is_stmt 1 view .LVU59
  46:Task/Task_Manager.c ****     DebugPin.init(Debug_PC2);
 310              		.loc 1 46 13 is_stmt 0 view .LVU60
 311 002e 2268     		ldr	r2, [r4]
  46:Task/Task_Manager.c ****     DebugPin.init(Debug_PC2);
 312              		.loc 1 46 5 view .LVU61
 313 0030 1D4B     		ldr	r3, .L20+24
 314 0032 93E80300 		ldm	r3, {r0, r1}
 315 0036 9047     		blx	r2
 316              	.LVL17:
  47:Task/Task_Manager.c ****     DebugPin.init(Debug_PC3);
 317              		.loc 1 47 5 is_stmt 1 view .LVU62
  47:Task/Task_Manager.c ****     DebugPin.init(Debug_PC3);
 318              		.loc 1 47 13 is_stmt 0 view .LVU63
 319 0038 2268     		ldr	r2, [r4]
  47:Task/Task_Manager.c ****     DebugPin.init(Debug_PC3);
 320              		.loc 1 47 5 view .LVU64
 321 003a 1C4B     		ldr	r3, .L20+28
 322 003c 93E80300 		ldm	r3, {r0, r1}
 323 0040 9047     		blx	r2
 324              	.LVL18:
  48:Task/Task_Manager.c ****     DebugPin.init(Debug_PB3);
ARM GAS  /var/folders/lx/hc4sn_b53233_zkc9xbbl97r0000gp/T//cc3oeBLw.s 			page 9


 325              		.loc 1 48 5 is_stmt 1 view .LVU65
  48:Task/Task_Manager.c ****     DebugPin.init(Debug_PB3);
 326              		.loc 1 48 13 is_stmt 0 view .LVU66
 327 0042 2268     		ldr	r2, [r4]
  48:Task/Task_Manager.c ****     DebugPin.init(Debug_PB3);
 328              		.loc 1 48 5 view .LVU67
 329 0044 1A4B     		ldr	r3, .L20+32
 330 0046 93E80300 		ldm	r3, {r0, r1}
 331 004a 9047     		blx	r2
 332              	.LVL19:
  49:Task/Task_Manager.c ****     DebugPin.init(Debug_PB4);
 333              		.loc 1 49 5 is_stmt 1 view .LVU68
  49:Task/Task_Manager.c ****     DebugPin.init(Debug_PB4);
 334              		.loc 1 49 13 is_stmt 0 view .LVU69
 335 004c 2268     		ldr	r2, [r4]
  49:Task/Task_Manager.c ****     DebugPin.init(Debug_PB4);
 336              		.loc 1 49 5 view .LVU70
 337 004e 194B     		ldr	r3, .L20+36
 338 0050 93E80300 		ldm	r3, {r0, r1}
 339 0054 9047     		blx	r2
 340              	.LVL20:
  50:Task/Task_Manager.c ****     DebugPin.init(Debug_PB5);
 341              		.loc 1 50 5 is_stmt 1 view .LVU71
  50:Task/Task_Manager.c ****     DebugPin.init(Debug_PB5);
 342              		.loc 1 50 13 is_stmt 0 view .LVU72
 343 0056 2268     		ldr	r2, [r4]
  50:Task/Task_Manager.c ****     DebugPin.init(Debug_PB5);
 344              		.loc 1 50 5 view .LVU73
 345 0058 174B     		ldr	r3, .L20+40
 346 005a 93E80300 		ldm	r3, {r0, r1}
 347 005e 9047     		blx	r2
 348              	.LVL21:
  51:Task/Task_Manager.c ****     DebugPin.init(Debug_PB6);
 349              		.loc 1 51 5 is_stmt 1 view .LVU74
  51:Task/Task_Manager.c ****     DebugPin.init(Debug_PB6);
 350              		.loc 1 51 13 is_stmt 0 view .LVU75
 351 0060 2268     		ldr	r2, [r4]
  51:Task/Task_Manager.c ****     DebugPin.init(Debug_PB6);
 352              		.loc 1 51 5 view .LVU76
 353 0062 164B     		ldr	r3, .L20+44
 354 0064 93E80300 		ldm	r3, {r0, r1}
 355 0068 9047     		blx	r2
 356              	.LVL22:
  52:Task/Task_Manager.c ****     DebugPin.init(Debug_PB10);
 357              		.loc 1 52 5 is_stmt 1 view .LVU77
  52:Task/Task_Manager.c ****     DebugPin.init(Debug_PB10);
 358              		.loc 1 52 13 is_stmt 0 view .LVU78
 359 006a 2268     		ldr	r2, [r4]
  52:Task/Task_Manager.c ****     DebugPin.init(Debug_PB10);
 360              		.loc 1 52 5 view .LVU79
 361 006c 144B     		ldr	r3, .L20+48
 362 006e 93E80300 		ldm	r3, {r0, r1}
 363 0072 9047     		blx	r2
 364              	.LVL23:
  53:Task/Task_Manager.c **** 
 365              		.loc 1 53 5 is_stmt 1 view .LVU80
  53:Task/Task_Manager.c **** 
ARM GAS  /var/folders/lx/hc4sn_b53233_zkc9xbbl97r0000gp/T//cc3oeBLw.s 			page 10


 366              		.loc 1 53 13 is_stmt 0 view .LVU81
 367 0074 2268     		ldr	r2, [r4]
  53:Task/Task_Manager.c **** 
 368              		.loc 1 53 5 view .LVU82
 369 0076 134B     		ldr	r3, .L20+52
 370 0078 93E80300 		ldm	r3, {r0, r1}
 371 007c 9047     		blx	r2
 372              	.LVL24:
  63:Task/Task_Manager.c **** 
 373              		.loc 1 63 5 is_stmt 1 view .LVU83
 374 007e FFF7FEFF 		bl	DataPipe_Init
 375              	.LVL25:
  65:Task/Task_Manager.c ****     TaskInertial_Init();
 376              		.loc 1 65 5 view .LVU84
 377 0082 FFF7FEFF 		bl	TaskProtocol_Init
 378              	.LVL26:
  66:Task/Task_Manager.c ****     TaskLog_Init();
 379              		.loc 1 66 5 view .LVU85
 380 0086 FFF7FEFF 		bl	TaskInertial_Init
 381              	.LVL27:
  67:Task/Task_Manager.c **** }
 382              		.loc 1 67 5 view .LVU86
 383 008a FFF7FEFF 		bl	TaskLog_Init
 384              	.LVL28:
  68:Task/Task_Manager.c **** 
 385              		.loc 1 68 1 is_stmt 0 view .LVU87
 386 008e 10BD     		pop	{r4, pc}
 387              	.L21:
 388              		.align	2
 389              	.L20:
 390 0090 00000000 		.word	DevLED
 391 0094 00000000 		.word	Led1
 392 0098 00000000 		.word	Led2
 393 009c 00000000 		.word	Led3
 394 00a0 00000000 		.word	DebugPin
 395 00a4 00000000 		.word	Debug_PC0
 396 00a8 00000000 		.word	Debug_PC1
 397 00ac 00000000 		.word	Debug_PC2
 398 00b0 00000000 		.word	Debug_PC3
 399 00b4 00000000 		.word	Debug_PB3
 400 00b8 00000000 		.word	Debug_PB4
 401 00bc 00000000 		.word	Debug_PB5
 402 00c0 00000000 		.word	Debug_PB6
 403 00c4 00000000 		.word	Debug_PB10
 404              		.cfi_endproc
 405              	.LFE150:
 407              		.section	.rodata.Task_Manager_CreateTask.str1.4,"aMS",%progbits,1
 408              		.align	2
 409              	.LC0:
 410 0000 496E6572 		.ascii	"Inertial Sample\000"
 410      7469616C 
 410      2053616D 
 410      706C6500 
 411              		.align	2
 412              	.LC1:
 413 0010 50726F74 		.ascii	"Protocl\000"
 413      6F636C00 
ARM GAS  /var/folders/lx/hc4sn_b53233_zkc9xbbl97r0000gp/T//cc3oeBLw.s 			page 11


 414              		.align	2
 415              	.LC2:
 416 0018 44617461 		.ascii	"Data Log\000"
 416      204C6F67 
 416      00
 417 0021 000000   		.align	2
 418              	.LC3:
 419 0024 74657374 		.ascii	"test2\000"
 419      3200
 420              		.section	.text.Task_Manager_CreateTask,"ax",%progbits
 421              		.align	1
 422              		.global	Task_Manager_CreateTask
 423              		.syntax unified
 424              		.thumb
 425              		.thumb_func
 426              		.fpu fpv5-d16
 428              	Task_Manager_CreateTask:
 429              	.LFB151:
  71:Task/Task_Manager.c ****     TaskInertial_Handle = Os_CreateTask("Inertial Sample", TASK_EXEC_2KHZ, Task_Group_0, Task_Prior
 430              		.loc 1 71 1 is_stmt 1 view -0
 431              		.cfi_startproc
 432              		@ args = 0, pretend = 0, frame = 0
 433              		@ frame_needed = 0, uses_anonymous_args = 0
 434 0000 10B5     		push	{r4, lr}
 435              	.LCFI5:
 436              		.cfi_def_cfa_offset 8
 437              		.cfi_offset 4, -8
 438              		.cfi_offset 14, -4
 439 0002 82B0     		sub	sp, sp, #8
 440              	.LCFI6:
 441              		.cfi_def_cfa_offset 16
  72:Task/Task_Manager.c ****     TaskProtocol_Handle = Os_CreateTask("Protocl", TASK_EXEC_20HZ, Task_Group_1, Task_Priority_0, T
 442              		.loc 1 72 5 view .LVU89
  72:Task/Task_Manager.c ****     TaskProtocol_Handle = Os_CreateTask("Protocl", TASK_EXEC_20HZ, Task_Group_1, Task_Priority_0, T
 443              		.loc 1 72 27 is_stmt 0 view .LVU90
 444 0004 4FF48064 		mov	r4, #1024
 445 0008 0194     		str	r4, [sp, #4]
 446 000a 184B     		ldr	r3, .L24
 447 000c 0093     		str	r3, [sp]
 448 000e 0023     		movs	r3, #0
 449 0010 1A46     		mov	r2, r3
 450 0012 4FF4FA61 		mov	r1, #2000
 451 0016 1648     		ldr	r0, .L24+4
 452 0018 FFF7FEFF 		bl	Os_CreateTask
 453              	.LVL29:
  72:Task/Task_Manager.c ****     TaskProtocol_Handle = Os_CreateTask("Protocl", TASK_EXEC_20HZ, Task_Group_1, Task_Priority_0, T
 454              		.loc 1 72 25 view .LVU91
 455 001c 154B     		ldr	r3, .L24+8
 456 001e 1860     		str	r0, [r3]
  73:Task/Task_Manager.c ****     TaskLog_Handle = Os_CreateTask("Data Log", TASK_EXEC_200HZ, Task_Group_2, Task_Priority_0, Task
 457              		.loc 1 73 5 is_stmt 1 view .LVU92
  73:Task/Task_Manager.c ****     TaskLog_Handle = Os_CreateTask("Data Log", TASK_EXEC_200HZ, Task_Group_2, Task_Priority_0, Task
 458              		.loc 1 73 27 is_stmt 0 view .LVU93
 459 0020 0194     		str	r4, [sp, #4]
 460 0022 154B     		ldr	r3, .L24+12
 461 0024 0093     		str	r3, [sp]
 462 0026 0023     		movs	r3, #0
ARM GAS  /var/folders/lx/hc4sn_b53233_zkc9xbbl97r0000gp/T//cc3oeBLw.s 			page 12


 463 0028 0122     		movs	r2, #1
 464 002a 1421     		movs	r1, #20
 465 002c 1348     		ldr	r0, .L24+16
 466 002e FFF7FEFF 		bl	Os_CreateTask
 467              	.LVL30:
  73:Task/Task_Manager.c ****     TaskLog_Handle = Os_CreateTask("Data Log", TASK_EXEC_200HZ, Task_Group_2, Task_Priority_0, Task
 468              		.loc 1 73 25 view .LVU94
 469 0032 134B     		ldr	r3, .L24+20
 470 0034 1860     		str	r0, [r3]
  74:Task/Task_Manager.c ****     Test2_Task = Os_CreateTask("test2", TASK_EXEC_1KHZ, Task_Group_0, Task_Priority_2, Test2, 256);
 471              		.loc 1 74 5 is_stmt 1 view .LVU95
  74:Task/Task_Manager.c ****     Test2_Task = Os_CreateTask("test2", TASK_EXEC_1KHZ, Task_Group_0, Task_Priority_2, Test2, 256);
 472              		.loc 1 74 22 is_stmt 0 view .LVU96
 473 0036 0194     		str	r4, [sp, #4]
 474 0038 124B     		ldr	r3, .L24+24
 475 003a 0093     		str	r3, [sp]
 476 003c 0023     		movs	r3, #0
 477 003e 0222     		movs	r2, #2
 478 0040 C821     		movs	r1, #200
 479 0042 1148     		ldr	r0, .L24+28
 480 0044 FFF7FEFF 		bl	Os_CreateTask
 481              	.LVL31:
  74:Task/Task_Manager.c ****     Test2_Task = Os_CreateTask("test2", TASK_EXEC_1KHZ, Task_Group_0, Task_Priority_2, Test2, 256);
 482              		.loc 1 74 20 view .LVU97
 483 0048 104B     		ldr	r3, .L24+32
 484 004a 1860     		str	r0, [r3]
  75:Task/Task_Manager.c **** }
 485              		.loc 1 75 5 is_stmt 1 view .LVU98
  75:Task/Task_Manager.c **** }
 486              		.loc 1 75 18 is_stmt 0 view .LVU99
 487 004c 4FF48073 		mov	r3, #256
 488 0050 0193     		str	r3, [sp, #4]
 489 0052 0F4B     		ldr	r3, .L24+36
 490 0054 0093     		str	r3, [sp]
 491 0056 0223     		movs	r3, #2
 492 0058 0022     		movs	r2, #0
 493 005a 4FF47A71 		mov	r1, #1000
 494 005e 0D48     		ldr	r0, .L24+40
 495 0060 FFF7FEFF 		bl	Os_CreateTask
 496              	.LVL32:
  75:Task/Task_Manager.c **** }
 497              		.loc 1 75 16 view .LVU100
 498 0064 0C4B     		ldr	r3, .L24+44
 499 0066 1860     		str	r0, [r3]
  76:Task/Task_Manager.c **** 
 500              		.loc 1 76 1 view .LVU101
 501 0068 02B0     		add	sp, sp, #8
 502              	.LCFI7:
 503              		.cfi_def_cfa_offset 8
 504              		@ sp needed
 505 006a 10BD     		pop	{r4, pc}
 506              	.L25:
 507              		.align	2
 508              	.L24:
 509 006c 00000000 		.word	TaskInertical_Core
 510 0070 00000000 		.word	.LC0
 511 0074 00000000 		.word	.LANCHOR2
ARM GAS  /var/folders/lx/hc4sn_b53233_zkc9xbbl97r0000gp/T//cc3oeBLw.s 			page 13


 512 0078 00000000 		.word	TaskProtocol_Core
 513 007c 10000000 		.word	.LC1
 514 0080 00000000 		.word	.LANCHOR3
 515 0084 00000000 		.word	TaskLog_Core
 516 0088 18000000 		.word	.LC2
 517 008c 00000000 		.word	.LANCHOR4
 518 0090 00000000 		.word	Test2
 519 0094 24000000 		.word	.LC3
 520 0098 00000000 		.word	.LANCHOR5
 521              		.cfi_endproc
 522              	.LFE151:
 524              		.global	Test2_Task
 525              		.global	Test_Task
 526              		.global	TaskLog_Handle
 527              		.global	TaskInertial_Handle
 528              		.global	TaskProtocol_Handle
 529              		.section	.bss.Lst_Rt.1,"aw",%nobits
 530              		.align	3
 531              		.set	.LANCHOR0,. + 0
 534              	Lst_Rt.1:
 535 0000 00000000 		.space	8
 535      00000000 
 536              		.section	.bss.TaskInertial_Handle,"aw",%nobits
 537              		.align	2
 538              		.set	.LANCHOR2,. + 0
 541              	TaskInertial_Handle:
 542 0000 00000000 		.space	4
 543              		.section	.bss.TaskLog_Handle,"aw",%nobits
 544              		.align	2
 545              		.set	.LANCHOR4,. + 0
 548              	TaskLog_Handle:
 549 0000 00000000 		.space	4
 550              		.section	.bss.TaskProtocol_Handle,"aw",%nobits
 551              		.align	2
 552              		.set	.LANCHOR3,. + 0
 555              	TaskProtocol_Handle:
 556 0000 00000000 		.space	4
 557              		.section	.bss.Test2_Task,"aw",%nobits
 558              		.align	2
 559              		.set	.LANCHOR5,. + 0
 562              	Test2_Task:
 563 0000 00000000 		.space	4
 564              		.section	.bss.Test_Task,"aw",%nobits
 565              		.align	2
 568              	Test_Task:
 569 0000 00000000 		.space	4
 570              		.section	.bss.led_state.0,"aw",%nobits
 571              		.set	.LANCHOR1,. + 0
 574              	led_state.0:
 575 0000 00       		.space	1
 576              		.text
 577              	.Letext0:
 578              		.file 2 "/usr/local/arm-none-eabi-gcc/gcc-arm-none-eabi-10-2020-q4-major/arm-none-eabi/include/mac
 579              		.file 3 "/usr/local/arm-none-eabi-gcc/gcc-arm-none-eabi-10-2020-q4-major/arm-none-eabi/include/sys
 580              		.file 4 "System/runtime/runtime.h"
 581              		.file 5 "HAL_Lib/CMSIS/Device/ST/STM32H7xx/Include/stm32h743xx.h"
 582              		.file 6 "HAL_Lib/STM32H7xx_HAL_Driver/Inc/stm32h7xx_hal_gpio.h"
ARM GAS  /var/folders/lx/hc4sn_b53233_zkc9xbbl97r0000gp/T//cc3oeBLw.s 			page 14


 583              		.file 7 "System/scheduler/scheduler.h"
 584              		.file 8 "Service/imu_data.h"
 585              		.file 9 "Bsp/Bsp_GPIO.h"
 586              		.file 10 "debug/debug_util.h"
 587              		.file 11 "Task/Task_Manager.h"
 588              		.file 12 "Device/Dev_Led.h"
 589              		.file 13 "IO_Def/IO_Definition.h"
 590              		.file 14 "System/DataPipe/DataPipe.h"
 591              		.file 15 "Task/Task_Protocol.h"
 592              		.file 16 "Task/Task_SensorInertial.h"
 593              		.file 17 "Task/Task_Log.h"
ARM GAS  /var/folders/lx/hc4sn_b53233_zkc9xbbl97r0000gp/T//cc3oeBLw.s 			page 15


DEFINED SYMBOLS
                            *ABS*:0000000000000000 Task_Manager.c
/var/folders/lx/hc4sn_b53233_zkc9xbbl97r0000gp/T//cc3oeBLw.s:18     .text.Test2:0000000000000000 $t
/var/folders/lx/hc4sn_b53233_zkc9xbbl97r0000gp/T//cc3oeBLw.s:26     .text.Test2:0000000000000000 Test2
/var/folders/lx/hc4sn_b53233_zkc9xbbl97r0000gp/T//cc3oeBLw.s:102    .text.Test2:0000000000000048 $d
/var/folders/lx/hc4sn_b53233_zkc9xbbl97r0000gp/T//cc3oeBLw.s:110    .text.test_PC0_ctl:0000000000000000 $t
/var/folders/lx/hc4sn_b53233_zkc9xbbl97r0000gp/T//cc3oeBLw.s:117    .text.test_PC0_ctl:0000000000000000 test_PC0_ctl
/var/folders/lx/hc4sn_b53233_zkc9xbbl97r0000gp/T//cc3oeBLw.s:153    .text.test_PC0_ctl:000000000000001c $d
/var/folders/lx/hc4sn_b53233_zkc9xbbl97r0000gp/T//cc3oeBLw.s:159    .text.test_PC1_ctl:0000000000000000 $t
/var/folders/lx/hc4sn_b53233_zkc9xbbl97r0000gp/T//cc3oeBLw.s:166    .text.test_PC1_ctl:0000000000000000 test_PC1_ctl
/var/folders/lx/hc4sn_b53233_zkc9xbbl97r0000gp/T//cc3oeBLw.s:202    .text.test_PC1_ctl:000000000000001c $d
/var/folders/lx/hc4sn_b53233_zkc9xbbl97r0000gp/T//cc3oeBLw.s:208    .text.test_PC2_ctl:0000000000000000 $t
/var/folders/lx/hc4sn_b53233_zkc9xbbl97r0000gp/T//cc3oeBLw.s:215    .text.test_PC2_ctl:0000000000000000 test_PC2_ctl
/var/folders/lx/hc4sn_b53233_zkc9xbbl97r0000gp/T//cc3oeBLw.s:251    .text.test_PC2_ctl:000000000000001c $d
/var/folders/lx/hc4sn_b53233_zkc9xbbl97r0000gp/T//cc3oeBLw.s:257    .text.Task_Manager_Init:0000000000000000 $t
/var/folders/lx/hc4sn_b53233_zkc9xbbl97r0000gp/T//cc3oeBLw.s:264    .text.Task_Manager_Init:0000000000000000 Task_Manager_Init
/var/folders/lx/hc4sn_b53233_zkc9xbbl97r0000gp/T//cc3oeBLw.s:390    .text.Task_Manager_Init:0000000000000090 $d
/var/folders/lx/hc4sn_b53233_zkc9xbbl97r0000gp/T//cc3oeBLw.s:408    .rodata.Task_Manager_CreateTask.str1.4:0000000000000000 $d
/var/folders/lx/hc4sn_b53233_zkc9xbbl97r0000gp/T//cc3oeBLw.s:421    .text.Task_Manager_CreateTask:0000000000000000 $t
/var/folders/lx/hc4sn_b53233_zkc9xbbl97r0000gp/T//cc3oeBLw.s:428    .text.Task_Manager_CreateTask:0000000000000000 Task_Manager_CreateTask
/var/folders/lx/hc4sn_b53233_zkc9xbbl97r0000gp/T//cc3oeBLw.s:509    .text.Task_Manager_CreateTask:000000000000006c $d
/var/folders/lx/hc4sn_b53233_zkc9xbbl97r0000gp/T//cc3oeBLw.s:562    .bss.Test2_Task:0000000000000000 Test2_Task
/var/folders/lx/hc4sn_b53233_zkc9xbbl97r0000gp/T//cc3oeBLw.s:568    .bss.Test_Task:0000000000000000 Test_Task
/var/folders/lx/hc4sn_b53233_zkc9xbbl97r0000gp/T//cc3oeBLw.s:548    .bss.TaskLog_Handle:0000000000000000 TaskLog_Handle
/var/folders/lx/hc4sn_b53233_zkc9xbbl97r0000gp/T//cc3oeBLw.s:541    .bss.TaskInertial_Handle:0000000000000000 TaskInertial_Handle
/var/folders/lx/hc4sn_b53233_zkc9xbbl97r0000gp/T//cc3oeBLw.s:555    .bss.TaskProtocol_Handle:0000000000000000 TaskProtocol_Handle
/var/folders/lx/hc4sn_b53233_zkc9xbbl97r0000gp/T//cc3oeBLw.s:530    .bss.Lst_Rt.1:0000000000000000 $d
/var/folders/lx/hc4sn_b53233_zkc9xbbl97r0000gp/T//cc3oeBLw.s:534    .bss.Lst_Rt.1:0000000000000000 Lst_Rt.1
/var/folders/lx/hc4sn_b53233_zkc9xbbl97r0000gp/T//cc3oeBLw.s:537    .bss.TaskInertial_Handle:0000000000000000 $d
/var/folders/lx/hc4sn_b53233_zkc9xbbl97r0000gp/T//cc3oeBLw.s:544    .bss.TaskLog_Handle:0000000000000000 $d
/var/folders/lx/hc4sn_b53233_zkc9xbbl97r0000gp/T//cc3oeBLw.s:551    .bss.TaskProtocol_Handle:0000000000000000 $d
/var/folders/lx/hc4sn_b53233_zkc9xbbl97r0000gp/T//cc3oeBLw.s:558    .bss.Test2_Task:0000000000000000 $d
/var/folders/lx/hc4sn_b53233_zkc9xbbl97r0000gp/T//cc3oeBLw.s:565    .bss.Test_Task:0000000000000000 $d
/var/folders/lx/hc4sn_b53233_zkc9xbbl97r0000gp/T//cc3oeBLw.s:574    .bss.led_state.0:0000000000000000 led_state.0
/var/folders/lx/hc4sn_b53233_zkc9xbbl97r0000gp/T//cc3oeBLw.s:575    .bss.led_state.0:0000000000000000 $d

UNDEFINED SYMBOLS
__aeabi_uldivmod
Get_CurrentRunningMs
DevLED
Led1
DebugPin
Debug_PC0
Debug_PC1
Debug_PC2
DataPipe_Init
TaskProtocol_Init
TaskInertial_Init
TaskLog_Init
Led2
Led3
Debug_PC3
Debug_PB3
Debug_PB4
Debug_PB5
Debug_PB6
Debug_PB10
ARM GAS  /var/folders/lx/hc4sn_b53233_zkc9xbbl97r0000gp/T//cc3oeBLw.s 			page 16


Os_CreateTask
TaskInertical_Core
TaskProtocol_Core
TaskLog_Core
