ARM GAS  C:\Users\8bit\AppData\Local\Temp\ccdInZoL.s 			page 1


   1              		.cpu cortex-m4
   2              		.arch armv7e-m
   3              		.fpu fpv4-sp-d16
   4              		.eabi_attribute 27, 1
   5              		.eabi_attribute 28, 1
   6              		.eabi_attribute 20, 1
   7              		.eabi_attribute 21, 1
   8              		.eabi_attribute 23, 3
   9              		.eabi_attribute 24, 1
  10              		.eabi_attribute 25, 1
  11              		.eabi_attribute 26, 1
  12              		.eabi_attribute 30, 1
  13              		.eabi_attribute 34, 1
  14              		.eabi_attribute 18, 4
  15              		.file	"Task_BlackBox.c"
  16              		.text
  17              	.Ltext0:
  18              		.cfi_sections	.debug_frame
  19              		.section	.text.TaskBlackBox_Get_CheckSum,"ax",%progbits
  20              		.align	1
  21              		.syntax unified
  22              		.thumb
  23              		.thumb_func
  25              	TaskBlackBox_Get_CheckSum:
  26              	.LVL0:
  27              	.LFB2073:
  28              		.file 1 "Task/Task_BlackBox.c"
   1:Task/Task_BlackBox.c **** /*
   2:Task/Task_BlackBox.c ****  * Auther: 8_B!T0
   3:Task/Task_BlackBox.c ****  * this file will replace task_log
   4:Task/Task_BlackBox.c ****  * drone black box task
   5:Task/Task_BlackBox.c ****  */
   6:Task/Task_BlackBox.c **** #include "FreeRTOS.h"
   7:Task/Task_BlackBox.c **** #include "task.h"
   8:Task/Task_BlackBox.c **** #include "Task_BlackBox.h"
   9:Task/Task_BlackBox.c **** #include "shell.h"
  10:Task/Task_BlackBox.c **** #include "debug_util.h"
  11:Task/Task_BlackBox.c **** #include "../DataStructure/CusQueue.h"
  12:Task/Task_BlackBox.c **** #include "error_log.h"
  13:Task/Task_BlackBox.c **** #include "../DataPipe/DataPipe.h"
  14:Task/Task_BlackBox.c **** #include "../System/storage/Storage.h"
  15:Task/Task_BlackBox.c **** #include "Task_Telemetry.h"
  16:Task/Task_BlackBox.c **** #include "Task_Sample.h"
  17:Task/Task_BlackBox.c **** #include "HW_Def.h"
  18:Task/Task_BlackBox.c **** #include "minilzo.h"
  19:Task/Task_BlackBox.c **** #include "Srv_OsCommon.h"
  20:Task/Task_BlackBox.c **** #include "Srv_BlackBox_Def.h"
  21:Task/Task_BlackBox.c **** 
  22:Task/Task_BlackBox.c **** #define PeriphSec __attribute__((section(".Perph_Section")))
  23:Task/Task_BlackBox.c **** #define BlackBox_Buff_Size (8 Kb)
  24:Task/Task_BlackBox.c **** #define BlackBox_Storage_Name "BlackBox"
  25:Task/Task_BlackBox.c **** 
  26:Task/Task_BlackBox.c **** typedef enum
  27:Task/Task_BlackBox.c **** {
  28:Task/Task_BlackBox.c ****     BlackBox_Log_Idle = 0,
  29:Task/Task_BlackBox.c ****     BlackBox_Log_Enable,
  30:Task/Task_BlackBox.c ****     BlackBox_Log_Disable,
ARM GAS  C:\Users\8bit\AppData\Local\Temp\ccdInZoL.s 			page 2


  31:Task/Task_BlackBox.c **** } BlackBox_LogState_List;
  32:Task/Task_BlackBox.c **** 
  33:Task/Task_BlackBox.c **** typedef enum
  34:Task/Task_BlackBox.c **** {
  35:Task/Task_BlackBox.c ****     BlackBox_Cnv_None_Error = 0,
  36:Task/Task_BlackBox.c ****     BlackBox_Cnv_Para_Error,
  37:Task/Task_BlackBox.c ****     BlackBox_Cnv_Size_Error,
  38:Task/Task_BlackBox.c ****     BlackBox_Cnv_Type_Error,
  39:Task/Task_BlackBox.c ****     BlackBox_Cnv_Header_Error,
  40:Task/Task_BlackBox.c ****     BlackBox_Cnv_Ender_Error,
  41:Task/Task_BlackBox.c **** } BlackBox_ConvertError_List;
  42:Task/Task_BlackBox.c **** 
  43:Task/Task_BlackBox.c **** typedef struct
  44:Task/Task_BlackBox.c **** {
  45:Task/Task_BlackBox.c ****     uint32_t cnt;
  46:Task/Task_BlackBox.c ****     uint32_t byte_size;
  47:Task/Task_BlackBox.c **** } BlackBox_LogStatistic_TypeDef;
  48:Task/Task_BlackBox.c **** 
  49:Task/Task_BlackBox.c **** #pragma pack(1)
  50:Task/Task_BlackBox.c **** typedef struct
  51:Task/Task_BlackBox.c **** {
  52:Task/Task_BlackBox.c ****     BlackBox_MediumType_List medium;
  53:Task/Task_BlackBox.c ****     BlackBox_LogType_List log_type;
  54:Task/Task_BlackBox.c ****     uint32_t log_size;
  55:Task/Task_BlackBox.c **** } BlackBox_LogInfo_TypeDef;
  56:Task/Task_BlackBox.c **** #pragma pack()
  57:Task/Task_BlackBox.c **** 
  58:Task/Task_BlackBox.c **** typedef struct
  59:Task/Task_BlackBox.c **** {
  60:Task/Task_BlackBox.c ****     BlackBox_LogState_List state;
  61:Task/Task_BlackBox.c ****     bool write_thread_state;
  62:Task/Task_BlackBox.c ****     
  63:Task/Task_BlackBox.c ****     Storage_ItemSearchOut_TypeDef storage_search;
  64:Task/Task_BlackBox.c ****     BlackBox_MediumType_List medium;
  65:Task/Task_BlackBox.c ****     BlackBox_LogType_List log_type;
  66:Task/Task_BlackBox.c ****     uint32_t expection_log_size;
  67:Task/Task_BlackBox.c **** 
  68:Task/Task_BlackBox.c ****     uint32_t log_unit;
  69:Task/Task_BlackBox.c ****     uint8_t *p_log_buf;
  70:Task/Task_BlackBox.c ****     uint32_t log_byte_size;
  71:Task/Task_BlackBox.c ****     uint32_t log_cnt;
  72:Task/Task_BlackBox.c ****     BlackBox_LogStatistic_TypeDef imu_log;
  73:Task/Task_BlackBox.c ****     BlackBox_LogStatistic_TypeDef alt_att_log; 
  74:Task/Task_BlackBox.c ****     BlackBox_LogStatistic_TypeDef ctl_ang_log;
  75:Task/Task_BlackBox.c ****     BlackBox_LogStatistic_TypeDef ctl_att_log;
  76:Task/Task_BlackBox.c **** } BlackBox_Monitor_TypeDef;
  77:Task/Task_BlackBox.c **** 
  78:Task/Task_BlackBox.c **** /* internal vriable */
  79:Task/Task_BlackBox.c **** static uint8_t BlackBox_Buff[BlackBox_Buff_Size] PeriphSec;
  80:Task/Task_BlackBox.c **** static QueueObj_TypeDef BlackBox_Queue;
  81:Task/Task_BlackBox.c **** static BlackBox_Monitor_TypeDef Monitor;
  82:Task/Task_BlackBox.c **** static osSemaphoreId BlackBox_Sem = 0;
  83:Task/Task_BlackBox.c **** static SrvBlackBox_TypeDef *p_blackbox = NULL;
  84:Task/Task_BlackBox.c **** DataPipe_CreateDataObj(SrvIMU_UnionData_TypeDef,  LogImu_Data);
  85:Task/Task_BlackBox.c **** DataPipe_CreateDataObj(SrvBaro_UnionData_TypeDef, LogBaro_Data);
  86:Task/Task_BlackBox.c **** DataPipe_CreateDataObj(IMUAtt_TypeDef,            LogAtt_Data);
  87:Task/Task_BlackBox.c **** DataPipe_CreateDataObj(AltData_TypeDef,           LogAlt_Data);
ARM GAS  C:\Users\8bit\AppData\Local\Temp\ccdInZoL.s 			page 3


  88:Task/Task_BlackBox.c **** DataPipe_CreateDataObj(ExpControlData_TypeDef,    LogCtl_Data);
  89:Task/Task_BlackBox.c **** 
  90:Task/Task_BlackBox.c **** /* internal function */
  91:Task/Task_BlackBox.c **** static void TaskBlackBox_PipeTransFinish_Callback(DataPipeObj_TypeDef *obj);
  92:Task/Task_BlackBox.c **** static void TaskBlackBox_Write_Core(void const *arg);
  93:Task/Task_BlackBox.c **** static void TaskBlackBox_PushFinish_Callback(void);
  94:Task/Task_BlackBox.c **** 
  95:Task/Task_BlackBox.c **** void TaskBlackBox_Init(void)
  96:Task/Task_BlackBox.c **** {
  97:Task/Task_BlackBox.c ****     uint32_t unit = 0;
  98:Task/Task_BlackBox.c ****     BlackBox_LogInfo_TypeDef BlackBoxInfo;
  99:Task/Task_BlackBox.c ****     /* medium init */
 100:Task/Task_BlackBox.c ****     /* medium auto detect */
 101:Task/Task_BlackBox.c ****     /*
 102:Task/Task_BlackBox.c ****         --- TF Card
 103:Task/Task_BlackBox.c ****         --- W25Qxx Storage Chip
 104:Task/Task_BlackBox.c ****         --- Com Output
 105:Task/Task_BlackBox.c ****      */
 106:Task/Task_BlackBox.c ****     memset(&BlackBoxInfo, 0, sizeof(BlackBox_LogInfo_TypeDef));
 107:Task/Task_BlackBox.c ****     memset(&Monitor, 0, sizeof(BlackBox_Monitor_TypeDef));
 108:Task/Task_BlackBox.c ****     Monitor.state = BlackBox_Log_Idle;
 109:Task/Task_BlackBox.c **** 
 110:Task/Task_BlackBox.c ****     /* read blackbox info from storage */
 111:Task/Task_BlackBox.c ****     Monitor.storage_search = Storage.search(Para_User, BlackBox_Storage_Name);
 112:Task/Task_BlackBox.c ****     if (Monitor.storage_search.item_addr == 0)
 113:Task/Task_BlackBox.c ****     {
 114:Task/Task_BlackBox.c ****         BlackBoxInfo.log_size = 0;
 115:Task/Task_BlackBox.c ****         BlackBoxInfo.medium = BlackBox_Medium_None;
 116:Task/Task_BlackBox.c ****         BlackBoxInfo.log_type = BlackBox_Log_None;
 117:Task/Task_BlackBox.c ****         if (Storage.create(Para_User, BlackBox_Storage_Name, &BlackBoxInfo, sizeof(BlackBox_LogInfo
 118:Task/Task_BlackBox.c ****             return;
 119:Task/Task_BlackBox.c ****     }
 120:Task/Task_BlackBox.c ****     else
 121:Task/Task_BlackBox.c ****     {
 122:Task/Task_BlackBox.c ****         if (Storage.get(Para_User, Monitor.storage_search.item, &BlackBoxInfo, sizeof(BlackBox_LogI
 123:Task/Task_BlackBox.c ****             return;
 124:Task/Task_BlackBox.c **** 
 125:Task/Task_BlackBox.c ****         Monitor.medium = BlackBoxInfo.medium;
 126:Task/Task_BlackBox.c ****         Monitor.log_type = BlackBoxInfo.log_type;
 127:Task/Task_BlackBox.c ****         Monitor.expection_log_size = BlackBoxInfo.log_size;
 128:Task/Task_BlackBox.c ****     }
 129:Task/Task_BlackBox.c **** 
 130:Task/Task_BlackBox.c ****     Monitor.write_thread_state = false;
 131:Task/Task_BlackBox.c ****     switch ((uint8_t)Monitor.medium)
 132:Task/Task_BlackBox.c ****     {
 133:Task/Task_BlackBox.c ****         case BlackBox_Medium_Com:
 134:Task/Task_BlackBox.c ****             unit = SrvCom_BlackBox.init(TaskBlackBox_PushFinish_Callback);
 135:Task/Task_BlackBox.c ****             p_blackbox = &SrvCom_BlackBox;
 136:Task/Task_BlackBox.c ****             break;
 137:Task/Task_BlackBox.c **** 
 138:Task/Task_BlackBox.c ****         case BlackBox_Medium_Chip:
 139:Task/Task_BlackBox.c ****             unit = SrvChip_BlackBox.init(TaskBlackBox_PushFinish_Callback);
 140:Task/Task_BlackBox.c ****             p_blackbox = &SrvChip_BlackBox;
 141:Task/Task_BlackBox.c ****             break;
 142:Task/Task_BlackBox.c **** 
 143:Task/Task_BlackBox.c ****         case BlackBox_Medium_Card:
 144:Task/Task_BlackBox.c ****             unit = SrvCard_BlackBox.init(TaskBlackBox_PushFinish_Callback);
ARM GAS  C:\Users\8bit\AppData\Local\Temp\ccdInZoL.s 			page 4


 145:Task/Task_BlackBox.c ****             p_blackbox = &SrvCard_BlackBox;
 146:Task/Task_BlackBox.c ****             break;
 147:Task/Task_BlackBox.c **** 
 148:Task/Task_BlackBox.c ****         default: return;
 149:Task/Task_BlackBox.c ****     }
 150:Task/Task_BlackBox.c ****     
 151:Task/Task_BlackBox.c ****     if (unit == 0)
 152:Task/Task_BlackBox.c ****     {
 153:Task/Task_BlackBox.c ****         p_blackbox = NULL;
 154:Task/Task_BlackBox.c ****         return;
 155:Task/Task_BlackBox.c ****     }
 156:Task/Task_BlackBox.c **** 
 157:Task/Task_BlackBox.c ****     switch ((uint8_t) Monitor.log_type)
 158:Task/Task_BlackBox.c ****     {
 159:Task/Task_BlackBox.c ****         case BlackBox_Imu_Filted:
 160:Task/Task_BlackBox.c ****         case BlackBox_Log_Alt_Att:
 161:Task/Task_BlackBox.c ****         case BlackBox_AngularPID_Tune:
 162:Task/Task_BlackBox.c ****         case BlackBox_AttitudePID_Tune:
 163:Task/Task_BlackBox.c ****             break;
 164:Task/Task_BlackBox.c **** 
 165:Task/Task_BlackBox.c ****         case BlackBox_Log_None:
 166:Task/Task_BlackBox.c ****         default: return;
 167:Task/Task_BlackBox.c ****     }
 168:Task/Task_BlackBox.c **** 
 169:Task/Task_BlackBox.c ****     Monitor.p_log_buf = SrvOsCommon.malloc(unit);
 170:Task/Task_BlackBox.c ****     if (Monitor.p_log_buf == NULL)
 171:Task/Task_BlackBox.c ****     {
 172:Task/Task_BlackBox.c ****         SrvOsCommon.free(Monitor.p_log_buf);
 173:Task/Task_BlackBox.c ****         return;
 174:Task/Task_BlackBox.c ****     }
 175:Task/Task_BlackBox.c **** 
 176:Task/Task_BlackBox.c ****     Monitor.log_unit = unit;
 177:Task/Task_BlackBox.c ****     memset(&IMU_Log_DataPipe,      0, sizeof(DataPipeObj_TypeDef));
 178:Task/Task_BlackBox.c ****     memset(&Baro_Log_DataPipe,     0, sizeof(DataPipeObj_TypeDef));
 179:Task/Task_BlackBox.c ****     memset(&Attitude_Log_DataPipe, 0, sizeof(DataPipeObj_TypeDef));
 180:Task/Task_BlackBox.c ****     memset(&Altitude_Log_DataPipe, 0, sizeof(DataPipeObj_TypeDef));
 181:Task/Task_BlackBox.c ****     memset(&CtlData_Log_DataPipe,  0, sizeof(DataPipeObj_TypeDef));
 182:Task/Task_BlackBox.c **** 
 183:Task/Task_BlackBox.c ****     memset(DataPipe_DataObjAddr(LogImu_Data),     0, DataPipe_DataSize(LogImu_Data));
 184:Task/Task_BlackBox.c ****     memset(DataPipe_DataObjAddr(LogBaro_Data),    0, DataPipe_DataSize(LogBaro_Data));
 185:Task/Task_BlackBox.c ****     memset(DataPipe_DataObjAddr(LogAtt_Data),     0, DataPipe_DataSize(LogAtt_Data));
 186:Task/Task_BlackBox.c ****     memset(DataPipe_DataObjAddr(LogAlt_Data),     0, DataPipe_DataSize(LogAlt_Data));
 187:Task/Task_BlackBox.c ****     memset(DataPipe_DataObjAddr(LogCtl_Data),     0, DataPipe_DataSize(LogCtl_Data));
 188:Task/Task_BlackBox.c **** 
 189:Task/Task_BlackBox.c ****     if (!Queue.create_with_buf(&BlackBox_Queue, "BlackBox_Queue", BlackBox_Buff, BlackBox_Buff_Size
 190:Task/Task_BlackBox.c ****         return;
 191:Task/Task_BlackBox.c **** 
 192:Task/Task_BlackBox.c ****     osSemaphoreDef(Log);
 193:Task/Task_BlackBox.c ****     BlackBox_Sem = osSemaphoreCreate(osSemaphore(Log), 32);
 194:Task/Task_BlackBox.c **** 
 195:Task/Task_BlackBox.c ****     if (BlackBox_Sem == 0)
 196:Task/Task_BlackBox.c ****         return;
 197:Task/Task_BlackBox.c **** 
 198:Task/Task_BlackBox.c ****     /* pipe object init */
 199:Task/Task_BlackBox.c ****     IMU_Log_DataPipe.data_addr = (uint32_t)DataPipe_DataObjAddr(LogImu_Data);
 200:Task/Task_BlackBox.c ****     IMU_Log_DataPipe.data_size = DataPipe_DataSize(LogImu_Data);
 201:Task/Task_BlackBox.c ****     IMU_Log_DataPipe.trans_finish_cb = TaskBlackBox_PipeTransFinish_Callback;
ARM GAS  C:\Users\8bit\AppData\Local\Temp\ccdInZoL.s 			page 5


 202:Task/Task_BlackBox.c ****     
 203:Task/Task_BlackBox.c ****     Baro_Log_DataPipe.data_addr = (uint32_t)DataPipe_DataObjAddr(LogBaro_Data);
 204:Task/Task_BlackBox.c ****     Baro_Log_DataPipe.data_size = DataPipe_DataSize(LogBaro_Data);
 205:Task/Task_BlackBox.c ****     Baro_Log_DataPipe.trans_finish_cb = TaskBlackBox_PipeTransFinish_Callback;
 206:Task/Task_BlackBox.c **** 
 207:Task/Task_BlackBox.c ****     CtlData_Log_DataPipe.data_addr = (uint32_t)DataPipe_DataObjAddr(LogCtl_Data);
 208:Task/Task_BlackBox.c ****     CtlData_Log_DataPipe.data_size = DataPipe_DataSize(LogCtl_Data);
 209:Task/Task_BlackBox.c ****     CtlData_Log_DataPipe.trans_finish_cb = TaskBlackBox_PipeTransFinish_Callback;
 210:Task/Task_BlackBox.c **** 
 211:Task/Task_BlackBox.c ****     Attitude_Log_DataPipe.data_addr = (uint32_t)DataPipe_DataObjAddr(LogAtt_Data);
 212:Task/Task_BlackBox.c ****     Attitude_Log_DataPipe.data_size = DataPipe_DataSize(LogAtt_Data);
 213:Task/Task_BlackBox.c ****     Attitude_Log_DataPipe.trans_finish_cb = TaskBlackBox_PipeTransFinish_Callback;
 214:Task/Task_BlackBox.c **** 
 215:Task/Task_BlackBox.c ****     Altitude_Log_DataPipe.data_addr = (uint32_t)DataPipe_DataObjAddr(LogAlt_Data);
 216:Task/Task_BlackBox.c ****     Altitude_Log_DataPipe.data_size = DataPipe_DataSize(LogAlt_Data);
 217:Task/Task_BlackBox.c ****     Altitude_Log_DataPipe.trans_finish_cb = TaskBlackBox_PipeTransFinish_Callback;
 218:Task/Task_BlackBox.c **** 
 219:Task/Task_BlackBox.c ****     DataPipe_Enable(&IMU_Log_DataPipe);
 220:Task/Task_BlackBox.c ****     DataPipe_Enable(&Baro_Log_DataPipe);
 221:Task/Task_BlackBox.c ****     DataPipe_Enable(&CtlData_Log_DataPipe);
 222:Task/Task_BlackBox.c ****     DataPipe_Enable(&Attitude_Log_DataPipe);
 223:Task/Task_BlackBox.c ****     DataPipe_Enable(&Altitude_Log_DataPipe);
 224:Task/Task_BlackBox.c **** 
 225:Task/Task_BlackBox.c ****     /* disable log first */
 226:Task/Task_BlackBox.c ****     Monitor.state = BlackBox_Log_Idle;
 227:Task/Task_BlackBox.c **** }
 228:Task/Task_BlackBox.c **** 
 229:Task/Task_BlackBox.c **** void TaskBlackBox_Core(void const *arg)
 230:Task/Task_BlackBox.c **** {
 231:Task/Task_BlackBox.c ****     Monitor.write_thread_state = true;
 232:Task/Task_BlackBox.c **** 
 233:Task/Task_BlackBox.c ****     while (true)
 234:Task/Task_BlackBox.c ****     {
 235:Task/Task_BlackBox.c ****         /* task create failed */
 236:Task/Task_BlackBox.c ****         if ((BlackBox_Sem == NULL) || (p_blackbox == NULL))
 237:Task/Task_BlackBox.c ****             vTaskDelete(NULL);
 238:Task/Task_BlackBox.c **** 
 239:Task/Task_BlackBox.c ****         osSemaphoreWait(BlackBox_Sem, osWaitForever);
 240:Task/Task_BlackBox.c ****         if ((Monitor.state == BlackBox_Log_Disable) && p_blackbox->disable && p_blackbox->disable()
 241:Task/Task_BlackBox.c ****         {
 242:Task/Task_BlackBox.c ****             Monitor.state = BlackBox_Log_Idle;
 243:Task/Task_BlackBox.c ****             Queue.reset(&BlackBox_Queue);
 244:Task/Task_BlackBox.c ****         }
 245:Task/Task_BlackBox.c ****         else if (p_blackbox->push && Monitor.log_unit)
 246:Task/Task_BlackBox.c ****         {
 247:Task/Task_BlackBox.c ****             if(p_blackbox->push(Monitor.p_log_buf, Monitor.log_unit))
 248:Task/Task_BlackBox.c ****             {
 249:Task/Task_BlackBox.c ****                 Monitor.log_cnt ++;
 250:Task/Task_BlackBox.c ****                 Monitor.log_byte_size += Monitor.log_unit;
 251:Task/Task_BlackBox.c ****             }
 252:Task/Task_BlackBox.c ****         }
 253:Task/Task_BlackBox.c ****     }
 254:Task/Task_BlackBox.c **** }
 255:Task/Task_BlackBox.c **** 
 256:Task/Task_BlackBox.c **** static uint8_t TaskBlackBox_Get_CheckSum(uint8_t *p_data, uint16_t len)
 257:Task/Task_BlackBox.c **** {
  29              		.loc 1 257 1 view -0
ARM GAS  C:\Users\8bit\AppData\Local\Temp\ccdInZoL.s 			page 6


  30              		.cfi_startproc
  31              		@ args = 0, pretend = 0, frame = 0
  32              		@ frame_needed = 0, uses_anonymous_args = 0
  33              		@ link register save eliminated.
 258:Task/Task_BlackBox.c ****     uint8_t check_sum = 0;
  34              		.loc 1 258 5 view .LVU1
 259:Task/Task_BlackBox.c **** 
 260:Task/Task_BlackBox.c ****     if (p_data && len)
  35              		.loc 1 260 5 view .LVU2
  36              		.loc 1 260 8 is_stmt 0 view .LVU3
  37 0000 8446     		mov	ip, r0
  38 0002 70B1     		cbz	r0, .L5
  39              		.loc 1 260 16 discriminator 1 view .LVU4
  40 0004 51B9     		cbnz	r1, .L6
 258:Task/Task_BlackBox.c ****     uint8_t check_sum = 0;
  41              		.loc 1 258 13 view .LVU5
  42 0006 0020     		movs	r0, #0
  43              	.LVL1:
 258:Task/Task_BlackBox.c ****     uint8_t check_sum = 0;
  44              		.loc 1 258 13 view .LVU6
  45 0008 7047     		bx	lr
  46              	.LVL2:
  47              	.L4:
  48              	.LBB12:
 261:Task/Task_BlackBox.c ****         for (uint16_t i = 0; i < len; i++)
 262:Task/Task_BlackBox.c ****             check_sum += p_data[i];
  49              		.loc 1 262 13 is_stmt 1 discriminator 3 view .LVU7
  50              		.loc 1 262 32 is_stmt 0 discriminator 3 view .LVU8
  51 000a 1CF80320 		ldrb	r2, [ip, r3]	@ zero_extendqisi2
  52              		.loc 1 262 23 discriminator 3 view .LVU9
  53 000e 1044     		add	r0, r0, r2
  54              	.LVL3:
  55              		.loc 1 262 23 discriminator 3 view .LVU10
  56 0010 C0B2     		uxtb	r0, r0
  57              	.LVL4:
 261:Task/Task_BlackBox.c ****         for (uint16_t i = 0; i < len; i++)
  58              		.loc 1 261 39 is_stmt 1 discriminator 3 view .LVU11
 261:Task/Task_BlackBox.c ****         for (uint16_t i = 0; i < len; i++)
  59              		.loc 1 261 40 is_stmt 0 discriminator 3 view .LVU12
  60 0012 0133     		adds	r3, r3, #1
  61              	.LVL5:
 261:Task/Task_BlackBox.c ****         for (uint16_t i = 0; i < len; i++)
  62              		.loc 1 261 40 discriminator 3 view .LVU13
  63 0014 9BB2     		uxth	r3, r3
  64              	.LVL6:
  65              	.L3:
 261:Task/Task_BlackBox.c ****         for (uint16_t i = 0; i < len; i++)
  66              		.loc 1 261 30 is_stmt 1 discriminator 1 view .LVU14
 261:Task/Task_BlackBox.c ****         for (uint16_t i = 0; i < len; i++)
  67              		.loc 1 261 9 is_stmt 0 discriminator 1 view .LVU15
  68 0016 8B42     		cmp	r3, r1
  69 0018 F7D3     		bcc	.L4
  70 001a 7047     		bx	lr
  71              	.LVL7:
  72              	.L6:
 261:Task/Task_BlackBox.c ****         for (uint16_t i = 0; i < len; i++)
  73              		.loc 1 261 23 view .LVU16
ARM GAS  C:\Users\8bit\AppData\Local\Temp\ccdInZoL.s 			page 7


  74 001c 0023     		movs	r3, #0
  75              	.LBE12:
 258:Task/Task_BlackBox.c **** 
  76              		.loc 1 258 13 view .LVU17
  77 001e 1846     		mov	r0, r3
  78              	.LVL8:
 258:Task/Task_BlackBox.c **** 
  79              		.loc 1 258 13 view .LVU18
  80 0020 F9E7     		b	.L3
  81              	.LVL9:
  82              	.L5:
 258:Task/Task_BlackBox.c **** 
  83              		.loc 1 258 13 view .LVU19
  84 0022 0020     		movs	r0, #0
  85              	.LVL10:
 263:Task/Task_BlackBox.c **** 
 264:Task/Task_BlackBox.c ****     return check_sum;
  86              		.loc 1 264 5 is_stmt 1 view .LVU20
 265:Task/Task_BlackBox.c **** }
  87              		.loc 1 265 1 is_stmt 0 view .LVU21
  88 0024 7047     		bx	lr
  89              		.cfi_endproc
  90              	.LFE2073:
  92              		.section	.text.TaskBlackBox_PushFinish_Callback,"ax",%progbits
  93              		.align	1
  94              		.syntax unified
  95              		.thumb
  96              		.thumb_func
  98              	TaskBlackBox_PushFinish_Callback:
  99              	.LFB2074:
 266:Task/Task_BlackBox.c **** 
 267:Task/Task_BlackBox.c **** /* BlackBox Tansmit Finished Callback */
 268:Task/Task_BlackBox.c **** static void TaskBlackBox_PushFinish_Callback(void)
 269:Task/Task_BlackBox.c **** {
 100              		.loc 1 269 1 is_stmt 1 view -0
 101              		.cfi_startproc
 102              		@ args = 0, pretend = 0, frame = 0
 103              		@ frame_needed = 0, uses_anonymous_args = 0
 104              		@ link register save eliminated.
 270:Task/Task_BlackBox.c **** 
 271:Task/Task_BlackBox.c **** }
 105              		.loc 1 271 1 view .LVU23
 106 0000 7047     		bx	lr
 107              		.cfi_endproc
 108              	.LFE2074:
 110              		.section	.text.TaskBlackBox_UpdateQueue,"ax",%progbits
 111              		.align	1
 112              		.syntax unified
 113              		.thumb
 114              		.thumb_func
 116              	TaskBlackBox_UpdateQueue:
 117              	.LVL11:
 118              	.LFB2075:
 272:Task/Task_BlackBox.c **** 
 273:Task/Task_BlackBox.c **** /* PIPE Callback */
 274:Task/Task_BlackBox.c **** static void TaskBlackBox_UpdateQueue(uint8_t *p_data, uint16_t size)
 275:Task/Task_BlackBox.c **** {
ARM GAS  C:\Users\8bit\AppData\Local\Temp\ccdInZoL.s 			page 8


 119              		.loc 1 275 1 view -0
 120              		.cfi_startproc
 121              		@ args = 0, pretend = 0, frame = 0
 122              		@ frame_needed = 0, uses_anonymous_args = 0
 123              		.loc 1 275 1 is_stmt 0 view .LVU25
 124 0000 F0B5     		push	{r4, r5, r6, r7, lr}
 125              	.LCFI0:
 126              		.cfi_def_cfa_offset 20
 127              		.cfi_offset 4, -20
 128              		.cfi_offset 5, -16
 129              		.cfi_offset 6, -12
 130              		.cfi_offset 7, -8
 131              		.cfi_offset 14, -4
 132 0002 83B0     		sub	sp, sp, #12
 133              	.LCFI1:
 134              		.cfi_def_cfa_offset 32
 135 0004 0546     		mov	r5, r0
 136 0006 0C46     		mov	r4, r1
 276:Task/Task_BlackBox.c ****     uint32_t offset = 0;
 137              		.loc 1 276 5 is_stmt 1 view .LVU26
 138              	.LVL12:
 277:Task/Task_BlackBox.c ****     uint32_t Queue_remain = Queue.remain(BlackBox_Queue);
 139              		.loc 1 277 5 view .LVU27
 140              		.loc 1 277 34 is_stmt 0 view .LVU28
 141 0008 1C4B     		ldr	r3, .L14
 142 000a 5E68     		ldr	r6, [r3, #4]
 143              		.loc 1 277 29 view .LVU29
 144 000c 1C4B     		ldr	r3, .L14+4
 145 000e 1A7C     		ldrb	r2, [r3, #16]	@ zero_extendqisi2
 146 0010 8DF80020 		strb	r2, [sp]
 147 0014 0FCB     		ldm	r3, {r0, r1, r2, r3}
 148              	.LVL13:
 149              		.loc 1 277 29 view .LVU30
 150 0016 B047     		blx	r6
 151              	.LVL14:
 278:Task/Task_BlackBox.c ****     
 279:Task/Task_BlackBox.c ****     if (size > Queue_remain)
 152              		.loc 1 279 5 is_stmt 1 view .LVU31
 153              		.loc 1 279 8 is_stmt 0 view .LVU32
 154 0018 A042     		cmp	r0, r4
 155 001a 27D2     		bcs	.L9
 156 001c 0246     		mov	r2, r0
 157 001e 0646     		mov	r6, r0
 280:Task/Task_BlackBox.c ****     {
 281:Task/Task_BlackBox.c ****         offset = Queue_remain;
 158              		.loc 1 281 9 is_stmt 1 view .LVU33
 159              	.LVL15:
 282:Task/Task_BlackBox.c ****         Queue.push(&BlackBox_Queue, p_data, Queue_remain);
 160              		.loc 1 282 9 view .LVU34
 161              		.loc 1 282 14 is_stmt 0 view .LVU35
 162 0020 164B     		ldr	r3, .L14
 163 0022 9B69     		ldr	r3, [r3, #24]
 164              		.loc 1 282 9 view .LVU36
 165 0024 2946     		mov	r1, r5
 166 0026 1648     		ldr	r0, .L14+4
 167              	.LVL16:
 168              		.loc 1 282 9 view .LVU37
ARM GAS  C:\Users\8bit\AppData\Local\Temp\ccdInZoL.s 			page 9


 169 0028 9847     		blx	r3
 170              	.LVL17:
 171              	.L10:
 283:Task/Task_BlackBox.c ****     }
 284:Task/Task_BlackBox.c ****     else
 285:Task/Task_BlackBox.c ****         Queue.push(&BlackBox_Queue, p_data, size);
 286:Task/Task_BlackBox.c **** 
 287:Task/Task_BlackBox.c ****     if (Queue.size(BlackBox_Queue) >= Monitor.log_unit)
 172              		.loc 1 287 5 is_stmt 1 view .LVU38
 173              		.loc 1 287 14 is_stmt 0 view .LVU39
 174 002a 144B     		ldr	r3, .L14
 175 002c 1F68     		ldr	r7, [r3]
 176              		.loc 1 287 9 view .LVU40
 177 002e 144B     		ldr	r3, .L14+4
 178 0030 1A7C     		ldrb	r2, [r3, #16]	@ zero_extendqisi2
 179 0032 8DF80020 		strb	r2, [sp]
 180 0036 0FCB     		ldm	r3, {r0, r1, r2, r3}
 181 0038 B847     		blx	r7
 182              	.LVL18:
 183              		.loc 1 287 46 view .LVU41
 184 003a 124B     		ldr	r3, .L14+8
 185 003c 1A6D     		ldr	r2, [r3, #80]
 186              		.loc 1 287 8 view .LVU42
 187 003e 9042     		cmp	r0, r2
 188 0040 0AD3     		bcc	.L11
 288:Task/Task_BlackBox.c ****     {
 289:Task/Task_BlackBox.c ****         Queue.pop(&BlackBox_Queue, Monitor.p_log_buf, Monitor.log_unit);
 189              		.loc 1 289 9 is_stmt 1 view .LVU43
 190              		.loc 1 289 14 is_stmt 0 view .LVU44
 191 0042 0E4B     		ldr	r3, .L14
 192 0044 DB69     		ldr	r3, [r3, #28]
 193              		.loc 1 289 9 view .LVU45
 194 0046 92B2     		uxth	r2, r2
 195 0048 0E49     		ldr	r1, .L14+8
 196 004a 496D     		ldr	r1, [r1, #84]
 197 004c 0C48     		ldr	r0, .L14+4
 198 004e 9847     		blx	r3
 199              	.LVL19:
 290:Task/Task_BlackBox.c ****         osSemaphoreRelease(BlackBox_Sem);
 200              		.loc 1 290 9 is_stmt 1 view .LVU46
 201 0050 0D4B     		ldr	r3, .L14+12
 202 0052 1868     		ldr	r0, [r3]
 203 0054 FFF7FEFF 		bl	osSemaphoreRelease
 204              	.LVL20:
 205              	.L11:
 291:Task/Task_BlackBox.c ****     }
 292:Task/Task_BlackBox.c **** 
 293:Task/Task_BlackBox.c ****     if (offset)
 206              		.loc 1 293 5 view .LVU47
 207              		.loc 1 293 8 is_stmt 0 view .LVU48
 208 0058 36B1     		cbz	r6, .L8
 294:Task/Task_BlackBox.c ****         Queue.push(&BlackBox_Queue, p_data + offset, size - offset);
 209              		.loc 1 294 9 is_stmt 1 view .LVU49
 210              		.loc 1 294 14 is_stmt 0 view .LVU50
 211 005a 084B     		ldr	r3, .L14
 212 005c 9B69     		ldr	r3, [r3, #24]
 213              		.loc 1 294 9 view .LVU51
ARM GAS  C:\Users\8bit\AppData\Local\Temp\ccdInZoL.s 			page 10


 214 005e A21B     		subs	r2, r4, r6
 215 0060 92B2     		uxth	r2, r2
 216 0062 A919     		adds	r1, r5, r6
 217 0064 0648     		ldr	r0, .L14+4
 218 0066 9847     		blx	r3
 219              	.LVL21:
 220              	.L8:
 295:Task/Task_BlackBox.c **** }
 221              		.loc 1 295 1 view .LVU52
 222 0068 03B0     		add	sp, sp, #12
 223              	.LCFI2:
 224              		.cfi_remember_state
 225              		.cfi_def_cfa_offset 20
 226              		@ sp needed
 227 006a F0BD     		pop	{r4, r5, r6, r7, pc}
 228              	.LVL22:
 229              	.L9:
 230              	.LCFI3:
 231              		.cfi_restore_state
 285:Task/Task_BlackBox.c **** 
 232              		.loc 1 285 9 is_stmt 1 view .LVU53
 285:Task/Task_BlackBox.c **** 
 233              		.loc 1 285 14 is_stmt 0 view .LVU54
 234 006c 034B     		ldr	r3, .L14
 235 006e 9B69     		ldr	r3, [r3, #24]
 285:Task/Task_BlackBox.c **** 
 236              		.loc 1 285 9 view .LVU55
 237 0070 2246     		mov	r2, r4
 238 0072 2946     		mov	r1, r5
 239 0074 0248     		ldr	r0, .L14+4
 240              	.LVL23:
 285:Task/Task_BlackBox.c **** 
 241              		.loc 1 285 9 view .LVU56
 242 0076 9847     		blx	r3
 243              	.LVL24:
 276:Task/Task_BlackBox.c ****     uint32_t Queue_remain = Queue.remain(BlackBox_Queue);
 244              		.loc 1 276 14 view .LVU57
 245 0078 0026     		movs	r6, #0
 246 007a D6E7     		b	.L10
 247              	.L15:
 248              		.align	2
 249              	.L14:
 250 007c 00000000 		.word	Queue
 251 0080 00000000 		.word	.LANCHOR0
 252 0084 00000000 		.word	.LANCHOR1
 253 0088 00000000 		.word	.LANCHOR2
 254              		.cfi_endproc
 255              	.LFE2075:
 257              		.section	.text.TaskBlackBox_PipeTransFinish_Callback,"ax",%progbits
 258              		.align	1
 259              		.syntax unified
 260              		.thumb
 261              		.thumb_func
 263              	TaskBlackBox_PipeTransFinish_Callback:
 264              	.LVL25:
 265              	.LFB2076:
 296:Task/Task_BlackBox.c **** 
ARM GAS  C:\Users\8bit\AppData\Local\Temp\ccdInZoL.s 			page 11


 297:Task/Task_BlackBox.c **** static void TaskBlackBox_PipeTransFinish_Callback(DataPipeObj_TypeDef *obj)
 298:Task/Task_BlackBox.c **** {
 266              		.loc 1 298 1 is_stmt 1 view -0
 267              		.cfi_startproc
 268              		@ args = 0, pretend = 0, frame = 8
 269              		@ frame_needed = 0, uses_anonymous_args = 0
 270              		.loc 1 298 1 is_stmt 0 view .LVU59
 271 0000 2DE9F041 		push	{r4, r5, r6, r7, r8, lr}
 272              	.LCFI4:
 273              		.cfi_def_cfa_offset 24
 274              		.cfi_offset 4, -24
 275              		.cfi_offset 5, -20
 276              		.cfi_offset 6, -16
 277              		.cfi_offset 7, -12
 278              		.cfi_offset 8, -8
 279              		.cfi_offset 14, -4
 280 0004 82B0     		sub	sp, sp, #8
 281              	.LCFI5:
 282              		.cfi_def_cfa_offset 32
 299:Task/Task_BlackBox.c ****     static BlackBox_IMUData_TypeDef  imu_data;
 283              		.loc 1 299 5 is_stmt 1 view .LVU60
 300:Task/Task_BlackBox.c ****     static BlackBox_BaroData_TypeDef baro_data;
 284              		.loc 1 300 5 view .LVU61
 301:Task/Task_BlackBox.c ****     static BlackBox_AttAltData_TypeDef att_alt_data;
 285              		.loc 1 301 5 view .LVU62
 302:Task/Task_BlackBox.c ****     static BlackBox_AngCtlData_TypeDef ang_ctl_data;
 286              		.loc 1 302 5 view .LVU63
 303:Task/Task_BlackBox.c ****     static BlackBox_AttCtlData_TypeDef att_ctl_data;
 287              		.loc 1 303 5 view .LVU64
 304:Task/Task_BlackBox.c ****     static BlackBox_LogState_List lst_state;
 288              		.loc 1 304 5 view .LVU65
 305:Task/Task_BlackBox.c ****     static bool alt_update = false;
 289              		.loc 1 305 5 view .LVU66
 306:Task/Task_BlackBox.c ****     static bool att_update = false;
 290              		.loc 1 306 5 view .LVU67
 307:Task/Task_BlackBox.c ****     BlackBox_DataHeader_TypeDef blackbox_header;
 291              		.loc 1 307 5 view .LVU68
 308:Task/Task_BlackBox.c ****     BlackBox_DataEnder_TypeDef blackbox_ender;
 292              		.loc 1 308 5 view .LVU69
 309:Task/Task_BlackBox.c ****     uint8_t check_sum = 0;
 293              		.loc 1 309 5 view .LVU70
 294              	.LVL26:
 310:Task/Task_BlackBox.c ****     uint8_t i = 0;
 295              		.loc 1 310 5 view .LVU71
 311:Task/Task_BlackBox.c ****     bool imu_update = false;
 296              		.loc 1 311 5 view .LVU72
 312:Task/Task_BlackBox.c ****     bool ctl_update = false;
 297              		.loc 1 312 5 view .LVU73
 313:Task/Task_BlackBox.c **** 
 314:Task/Task_BlackBox.c ****     memset(&blackbox_header, 0, BLACKBOX_HEADER_SIZE);
 298              		.loc 1 314 5 view .LVU74
 299 0006 0023     		movs	r3, #0
 300 0008 0193     		str	r3, [sp, #4]
 315:Task/Task_BlackBox.c ****     memset(&blackbox_ender,  0, BLACKBOX_ENDER_SIZE);
 301              		.loc 1 315 5 view .LVU75
 302 000a ADF80030 		strh	r3, [sp]	@ movhi
 303 000e 8DF80230 		strb	r3, [sp, #2]
ARM GAS  C:\Users\8bit\AppData\Local\Temp\ccdInZoL.s 			page 12


 316:Task/Task_BlackBox.c **** 
 317:Task/Task_BlackBox.c ****     blackbox_header.header = BLACKBOX_LOG_HEADER;
 304              		.loc 1 317 5 view .LVU76
 305              		.loc 1 317 28 is_stmt 0 view .LVU77
 306 0012 4EF21E13 		movw	r3, #57630
 307 0016 ADF80430 		strh	r3, [sp, #4]	@ movhi
 318:Task/Task_BlackBox.c ****     blackbox_ender.ender   = BLACKBOX_LOG_ENDER;
 308              		.loc 1 318 5 is_stmt 1 view .LVU78
 309              		.loc 1 318 28 is_stmt 0 view .LVU79
 310 001a 2F23     		movs	r3, #47
 311 001c 8DF80130 		strb	r3, [sp, #1]
 312 0020 6FF00D03 		mvn	r3, #13
 313 0024 8DF80230 		strb	r3, [sp, #2]
 319:Task/Task_BlackBox.c **** 
 320:Task/Task_BlackBox.c ****     if ((Monitor.log_type == BlackBox_Log_None) || !Monitor.write_thread_state)
 314              		.loc 1 320 5 is_stmt 1 view .LVU80
 315              		.loc 1 320 17 is_stmt 0 view .LVU81
 316 0028 BA4B     		ldr	r3, .L47
 317 002a 93F84830 		ldrb	r3, [r3, #72]	@ zero_extendqisi2
 318              		.loc 1 320 8 view .LVU82
 319 002e 83B1     		cbz	r3, .L16
 320 0030 0246     		mov	r2, r0
 321              		.loc 1 320 60 discriminator 1 view .LVU83
 322 0032 B849     		ldr	r1, .L47
 323 0034 4978     		ldrb	r1, [r1, #1]	@ zero_extendqisi2
 324              		.loc 1 320 49 discriminator 1 view .LVU84
 325 0036 61B1     		cbz	r1, .L16
 321:Task/Task_BlackBox.c ****         return;
 322:Task/Task_BlackBox.c **** 
 323:Task/Task_BlackBox.c ****     if (lst_state == BlackBox_Log_Enable)
 326              		.loc 1 323 5 is_stmt 1 view .LVU85
 327              		.loc 1 323 19 is_stmt 0 view .LVU86
 328 0038 B748     		ldr	r0, .L47+4
 329              	.LVL27:
 330              		.loc 1 323 19 view .LVU87
 331 003a 0078     		ldrb	r0, [r0]	@ zero_extendqisi2
 332              		.loc 1 323 8 view .LVU88
 333 003c 0128     		cmp	r0, #1
 334 003e 0BD0     		beq	.L37
 324:Task/Task_BlackBox.c ****     {
 325:Task/Task_BlackBox.c ****         /* pipe data update */
 326:Task/Task_BlackBox.c ****         if (obj == &IMU_Log_DataPipe)
 327:Task/Task_BlackBox.c ****         {
 328:Task/Task_BlackBox.c ****             imu_data.acc_scale = DataPipe_DataObj(LogImu_Data).data.acc_scale;
 329:Task/Task_BlackBox.c ****             imu_data.gyr_scale = DataPipe_DataObj(LogImu_Data).data.gyr_scale;
 330:Task/Task_BlackBox.c ****             for (i = Axis_X; i < Axis_Sum; i++)
 331:Task/Task_BlackBox.c ****             {
 332:Task/Task_BlackBox.c ****                 imu_data.flt_gyr[i] = (int16_t)(DataPipe_DataObj(LogImu_Data).data.flt_gyr[i] * imu
 333:Task/Task_BlackBox.c ****                 imu_data.org_gyr[i] = (int16_t)(DataPipe_DataObj(LogImu_Data).data.org_gyr[i] * imu
 334:Task/Task_BlackBox.c ****             
 335:Task/Task_BlackBox.c ****                 imu_data.flt_acc[i] = (int16_t)(DataPipe_DataObj(LogImu_Data).data.flt_acc[i] * imu
 336:Task/Task_BlackBox.c ****                 imu_data.org_acc[i] = (int16_t)(DataPipe_DataObj(LogImu_Data).data.org_acc[i] * imu
 337:Task/Task_BlackBox.c ****             }
 338:Task/Task_BlackBox.c ****             imu_data.time = DataPipe_DataObj(LogImu_Data).data.time_stamp;
 339:Task/Task_BlackBox.c ****             imu_data.cyc  = DataPipe_DataObj(LogImu_Data).data.cycle_cnt;
 340:Task/Task_BlackBox.c ****             imu_update = true;
 341:Task/Task_BlackBox.c ****         }
ARM GAS  C:\Users\8bit\AppData\Local\Temp\ccdInZoL.s 			page 13


 342:Task/Task_BlackBox.c ****         else if (obj == &Baro_Log_DataPipe)
 343:Task/Task_BlackBox.c ****         {
 344:Task/Task_BlackBox.c ****             baro_data.time = DataPipe_DataObj(LogBaro_Data).data.time_stamp;
 345:Task/Task_BlackBox.c ****             baro_data.cyc = DataPipe_DataObj(LogBaro_Data).data.cyc;
 346:Task/Task_BlackBox.c ****             baro_data.press = DataPipe_DataObj(LogBaro_Data).data.pressure;
 347:Task/Task_BlackBox.c ****         }
 348:Task/Task_BlackBox.c ****         else if ((obj == &Attitude_Log_DataPipe) || (obj == &Altitude_Log_DataPipe))
 349:Task/Task_BlackBox.c ****         {
 350:Task/Task_BlackBox.c ****             /* set imu data */
 351:Task/Task_BlackBox.c ****             att_alt_data.gyr_scale = imu_data.gyr_scale;
 352:Task/Task_BlackBox.c ****             att_alt_data.acc_scale = imu_data.acc_scale;
 353:Task/Task_BlackBox.c ****             memcpy(att_alt_data.acc, imu_data.flt_acc, sizeof(imu_data.flt_acc));
 354:Task/Task_BlackBox.c ****             memcpy(att_alt_data.gyr, imu_data.flt_gyr, sizeof(imu_data.flt_gyr));
 355:Task/Task_BlackBox.c **** 
 356:Task/Task_BlackBox.c ****             /* set baro data */
 357:Task/Task_BlackBox.c ****             att_alt_data.baro = baro_data.press;
 358:Task/Task_BlackBox.c **** 
 359:Task/Task_BlackBox.c ****             /* log data when attitude update */
 360:Task/Task_BlackBox.c ****             if (obj == &Attitude_Log_DataPipe)
 361:Task/Task_BlackBox.c ****             {
 362:Task/Task_BlackBox.c ****                 /* set attitude */
 363:Task/Task_BlackBox.c ****                 att_alt_data.time = DataPipe_DataObj(LogAtt_Data).time_stamp;
 364:Task/Task_BlackBox.c ****                 att_alt_data.pitch = DataPipe_DataObj(LogAtt_Data).pitch;
 365:Task/Task_BlackBox.c ****                 att_alt_data.roll = DataPipe_DataObj(LogAtt_Data).roll;
 366:Task/Task_BlackBox.c ****                 att_alt_data.yaw = DataPipe_DataObj(LogAtt_Data).yaw;
 367:Task/Task_BlackBox.c ****                 att_update = true;
 368:Task/Task_BlackBox.c ****             }
 369:Task/Task_BlackBox.c ****             else if (obj == &Altitude_Log_DataPipe)
 370:Task/Task_BlackBox.c ****             {
 371:Task/Task_BlackBox.c ****                 /* set altitude */
 372:Task/Task_BlackBox.c ****                 att_alt_data.alt = DataPipe_DataObj(LogAlt_Data).alt;
 373:Task/Task_BlackBox.c ****                 alt_update = true;
 374:Task/Task_BlackBox.c ****             }
 375:Task/Task_BlackBox.c ****         }
 376:Task/Task_BlackBox.c ****         else if (obj == &CtlData_Log_DataPipe)
 377:Task/Task_BlackBox.c ****         {
 378:Task/Task_BlackBox.c ****             imu_data.throttle_percent = DataPipe_DataObj(LogCtl_Data).throttle_percent;
 379:Task/Task_BlackBox.c ****             baro_data.throttle_percent = DataPipe_DataObj(LogCtl_Data).throttle_percent;
 380:Task/Task_BlackBox.c **** 
 381:Task/Task_BlackBox.c ****             if (DataPipe_DataObj(LogCtl_Data).control_mode == Attitude_Control)
 382:Task/Task_BlackBox.c ****             {
 383:Task/Task_BlackBox.c ****                 att_ctl_data.time = DataPipe_DataObj(LogCtl_Data).time_stamp;
 384:Task/Task_BlackBox.c ****                 att_ctl_data.throttle_percent = DataPipe_DataObj(LogCtl_Data).throttle_percent;
 385:Task/Task_BlackBox.c ****                 att_ctl_data.exp_pitch = DataPipe_DataObj(LogCtl_Data).pitch;
 386:Task/Task_BlackBox.c ****                 att_ctl_data.exp_roll = DataPipe_DataObj(LogCtl_Data).roll;
 387:Task/Task_BlackBox.c ****                 att_ctl_data.exp_gyr_z = DataPipe_DataObj(LogCtl_Data).gyr_z;
 388:Task/Task_BlackBox.c ****                 att_ctl_data.pitch = att_alt_data.pitch;
 389:Task/Task_BlackBox.c ****                 att_ctl_data.roll = att_alt_data.roll;
 390:Task/Task_BlackBox.c ****                 att_ctl_data.gyr_z = imu_data.flt_gyr[Axis_Z];
 391:Task/Task_BlackBox.c ****             }
 392:Task/Task_BlackBox.c ****             else
 393:Task/Task_BlackBox.c ****             {
 394:Task/Task_BlackBox.c ****                 ang_ctl_data.time = DataPipe_DataObj(LogCtl_Data).time_stamp;
 395:Task/Task_BlackBox.c ****                 ang_ctl_data.throttle_percent = DataPipe_DataObj(LogCtl_Data).throttle_percent;
 396:Task/Task_BlackBox.c ****                 ang_ctl_data.exp_gyr[Axis_X] = DataPipe_DataObj(LogCtl_Data).gyr_x;
 397:Task/Task_BlackBox.c ****                 ang_ctl_data.exp_gyr[Axis_Y] = DataPipe_DataObj(LogCtl_Data).gyr_y;
 398:Task/Task_BlackBox.c ****                 ang_ctl_data.exp_gyr[Axis_Z] = DataPipe_DataObj(LogCtl_Data).gyr_z;
ARM GAS  C:\Users\8bit\AppData\Local\Temp\ccdInZoL.s 			page 14


 399:Task/Task_BlackBox.c ****                 ang_ctl_data.gyr[Axis_X] = imu_data.flt_gyr[Axis_X];
 400:Task/Task_BlackBox.c ****                 ang_ctl_data.gyr[Axis_Y] = imu_data.flt_gyr[Axis_Y];
 401:Task/Task_BlackBox.c ****                 ang_ctl_data.gyr[Axis_Z] = imu_data.flt_gyr[Axis_Z];
 402:Task/Task_BlackBox.c ****             }
 403:Task/Task_BlackBox.c **** 
 404:Task/Task_BlackBox.c ****             ctl_update = true;
 405:Task/Task_BlackBox.c ****         }
 406:Task/Task_BlackBox.c **** 
 407:Task/Task_BlackBox.c ****         /* blackbox log control */
 408:Task/Task_BlackBox.c ****         if ((Monitor.log_type == BlackBox_Imu_Filted) && imu_update)
 409:Task/Task_BlackBox.c ****         {
 410:Task/Task_BlackBox.c ****             /* log data when imu update */
 411:Task/Task_BlackBox.c ****             Monitor.imu_log.cnt ++;
 412:Task/Task_BlackBox.c ****             Monitor.imu_log.byte_size += BLACKBOX_HEADER_SIZE;
 413:Task/Task_BlackBox.c ****             blackbox_header.type = BlackBox_Imu_Filted;
 414:Task/Task_BlackBox.c ****             blackbox_header.size = sizeof(BlackBox_IMUData_TypeDef);
 415:Task/Task_BlackBox.c ****             TaskBlackBox_UpdateQueue((uint8_t *)&blackbox_header, BLACKBOX_HEADER_SIZE);
 416:Task/Task_BlackBox.c ****             
 417:Task/Task_BlackBox.c ****             TaskBlackBox_UpdateQueue((uint8_t *)&imu_data, sizeof(BlackBox_IMUData_TypeDef));
 418:Task/Task_BlackBox.c ****             Monitor.imu_log.byte_size += sizeof(BlackBox_IMUData_TypeDef);
 419:Task/Task_BlackBox.c **** 
 420:Task/Task_BlackBox.c ****             check_sum = TaskBlackBox_Get_CheckSum((uint8_t *)&imu_data, sizeof(BlackBox_IMUData_Typ
 421:Task/Task_BlackBox.c ****             blackbox_ender.check_sum = check_sum;
 422:Task/Task_BlackBox.c ****             Monitor.imu_log.byte_size += BLACKBOX_ENDER_SIZE;
 423:Task/Task_BlackBox.c ****             TaskBlackBox_UpdateQueue((uint8_t *)&blackbox_ender, BLACKBOX_ENDER_SIZE);
 424:Task/Task_BlackBox.c ****             imu_update = false;
 425:Task/Task_BlackBox.c ****         }
 426:Task/Task_BlackBox.c ****         else if ((Monitor.log_type == BlackBox_Log_Alt_Att) && (alt_update & att_update & imu_updat
 427:Task/Task_BlackBox.c ****         {
 428:Task/Task_BlackBox.c ****             Monitor.alt_att_log.cnt ++;
 429:Task/Task_BlackBox.c ****             Monitor.alt_att_log.byte_size += BLACKBOX_HEADER_SIZE;
 430:Task/Task_BlackBox.c ****             blackbox_header.type = BlackBox_Log_Alt_Att;
 431:Task/Task_BlackBox.c ****             blackbox_header.size = sizeof(BlackBox_AttAltData_TypeDef);
 432:Task/Task_BlackBox.c ****             TaskBlackBox_UpdateQueue((uint8_t *)&blackbox_header, BLACKBOX_HEADER_SIZE);
 433:Task/Task_BlackBox.c ****             
 434:Task/Task_BlackBox.c ****             TaskBlackBox_UpdateQueue((uint8_t *)&att_alt_data, sizeof(BlackBox_AttAltData_TypeDef))
 435:Task/Task_BlackBox.c ****             Monitor.alt_att_log.byte_size += sizeof(BlackBox_AttAltData_TypeDef);
 436:Task/Task_BlackBox.c **** 
 437:Task/Task_BlackBox.c ****             check_sum = TaskBlackBox_Get_CheckSum((uint8_t *)&att_alt_data, sizeof(BlackBox_AttAltD
 438:Task/Task_BlackBox.c ****             blackbox_ender.check_sum = check_sum;
 439:Task/Task_BlackBox.c ****             Monitor.imu_log.byte_size += BLACKBOX_ENDER_SIZE;
 440:Task/Task_BlackBox.c ****             TaskBlackBox_UpdateQueue((uint8_t *)&blackbox_ender, BLACKBOX_ENDER_SIZE);
 441:Task/Task_BlackBox.c ****             alt_update = false;
 442:Task/Task_BlackBox.c ****             att_update = false;
 443:Task/Task_BlackBox.c ****             imu_update = false;
 444:Task/Task_BlackBox.c ****         }
 445:Task/Task_BlackBox.c ****         else if ((Monitor.log_type == BlackBox_AngularPID_Tune) && (imu_update & ctl_update))
 446:Task/Task_BlackBox.c ****         {
 447:Task/Task_BlackBox.c ****             Monitor.ctl_ang_log.cnt ++;
 448:Task/Task_BlackBox.c ****             Monitor.ctl_ang_log.byte_size += BLACKBOX_HEADER_SIZE;
 449:Task/Task_BlackBox.c ****             blackbox_header.type = BlackBox_AngularPID_Tune;
 450:Task/Task_BlackBox.c ****             blackbox_header.size = sizeof(BlackBox_AngCtlData_TypeDef);
 451:Task/Task_BlackBox.c ****             TaskBlackBox_UpdateQueue((uint8_t *)&blackbox_header, BLACKBOX_HEADER_SIZE);
 452:Task/Task_BlackBox.c **** 
 453:Task/Task_BlackBox.c ****             TaskBlackBox_UpdateQueue((uint8_t *)&ang_ctl_data, sizeof(BlackBox_AngCtlData_TypeDef))
 454:Task/Task_BlackBox.c ****             Monitor.ctl_ang_log.byte_size += sizeof(BlackBox_AngCtlData_TypeDef);
 455:Task/Task_BlackBox.c ****         
ARM GAS  C:\Users\8bit\AppData\Local\Temp\ccdInZoL.s 			page 15


 456:Task/Task_BlackBox.c ****             check_sum = TaskBlackBox_Get_CheckSum((uint8_t *)&ang_ctl_data, sizeof(BlackBox_AngCtlD
 457:Task/Task_BlackBox.c ****             blackbox_ender.check_sum = check_sum;
 458:Task/Task_BlackBox.c ****             Monitor.ctl_ang_log.byte_size += BLACKBOX_ENDER_SIZE;
 459:Task/Task_BlackBox.c ****             TaskBlackBox_UpdateQueue((uint8_t *)&blackbox_ender, BLACKBOX_ENDER_SIZE);
 460:Task/Task_BlackBox.c ****             imu_update = false;
 461:Task/Task_BlackBox.c ****             ctl_update = false;
 462:Task/Task_BlackBox.c ****         }
 463:Task/Task_BlackBox.c ****         else if ((Monitor.log_type == BlackBox_AttitudePID_Tune) && (imu_update & ctl_update & att_
 464:Task/Task_BlackBox.c ****         {
 465:Task/Task_BlackBox.c ****             Monitor.ctl_att_log.cnt ++;
 466:Task/Task_BlackBox.c ****             Monitor.ctl_att_log.byte_size += BLACKBOX_HEADER_SIZE;
 467:Task/Task_BlackBox.c ****             blackbox_header.type = BlackBox_AttitudePID_Tune;
 468:Task/Task_BlackBox.c ****             blackbox_header.size = sizeof(BlackBox_AttCtlData_TypeDef);
 469:Task/Task_BlackBox.c ****             TaskBlackBox_UpdateQueue((uint8_t *)&blackbox_header, BLACKBOX_HEADER_SIZE);
 470:Task/Task_BlackBox.c **** 
 471:Task/Task_BlackBox.c ****             TaskBlackBox_UpdateQueue((uint8_t *)&att_ctl_data, sizeof(BlackBox_AttCtlData_TypeDef))
 472:Task/Task_BlackBox.c ****             Monitor.ctl_att_log.byte_size += sizeof(BlackBox_AttCtlData_TypeDef);
 473:Task/Task_BlackBox.c **** 
 474:Task/Task_BlackBox.c ****             check_sum = TaskBlackBox_Get_CheckSum((uint8_t *)&att_ctl_data, sizeof(BlackBox_AttCtlD
 475:Task/Task_BlackBox.c ****             blackbox_ender.check_sum = check_sum;
 476:Task/Task_BlackBox.c ****             Monitor.ctl_att_log.byte_size += BLACKBOX_ENDER_SIZE;
 477:Task/Task_BlackBox.c ****             TaskBlackBox_UpdateQueue((uint8_t *)&blackbox_ender, BLACKBOX_ENDER_SIZE);
 478:Task/Task_BlackBox.c ****             imu_update = false;
 479:Task/Task_BlackBox.c ****             ctl_update = false;
 480:Task/Task_BlackBox.c ****             att_update = false;
 481:Task/Task_BlackBox.c ****         }
 482:Task/Task_BlackBox.c ****         /* use minilzo compress data if have to */
 483:Task/Task_BlackBox.c ****     }
 484:Task/Task_BlackBox.c ****     else
 485:Task/Task_BlackBox.c ****     {
 486:Task/Task_BlackBox.c ****         /* log disable */
 487:Task/Task_BlackBox.c ****         if (Monitor.state == BlackBox_Log_Disable)
 335              		.loc 1 487 9 is_stmt 1 view .LVU89
 336              		.loc 1 487 20 is_stmt 0 view .LVU90
 337 0040 B44B     		ldr	r3, .L47
 338 0042 1B78     		ldrb	r3, [r3]	@ zero_extendqisi2
 339              		.loc 1 487 12 view .LVU91
 340 0044 022B     		cmp	r3, #2
 341 0046 00F01282 		beq	.L38
 342              	.LVL28:
 343              	.L31:
 488:Task/Task_BlackBox.c ****             osSemaphoreRelease(BlackBox_Sem);
 489:Task/Task_BlackBox.c ****     }
 490:Task/Task_BlackBox.c **** 
 491:Task/Task_BlackBox.c ****     lst_state = Monitor.state;
 344              		.loc 1 491 5 is_stmt 1 discriminator 1 view .LVU92
 345              		.loc 1 491 24 is_stmt 0 discriminator 1 view .LVU93
 346 004a B24B     		ldr	r3, .L47
 347 004c 1A78     		ldrb	r2, [r3]	@ zero_extendqisi2
 348              		.loc 1 491 15 discriminator 1 view .LVU94
 349 004e B24B     		ldr	r3, .L47+4
 350 0050 1A70     		strb	r2, [r3]
 351              	.L16:
 492:Task/Task_BlackBox.c **** }
 352              		.loc 1 492 1 view .LVU95
 353 0052 02B0     		add	sp, sp, #8
 354              	.LCFI6:
ARM GAS  C:\Users\8bit\AppData\Local\Temp\ccdInZoL.s 			page 16


 355              		.cfi_remember_state
 356              		.cfi_def_cfa_offset 24
 357              		@ sp needed
 358 0054 BDE8F081 		pop	{r4, r5, r6, r7, r8, pc}
 359              	.LVL29:
 360              	.L37:
 361              	.LCFI7:
 362              		.cfi_restore_state
 326:Task/Task_BlackBox.c ****         {
 363              		.loc 1 326 9 is_stmt 1 view .LVU96
 326:Task/Task_BlackBox.c ****         {
 364              		.loc 1 326 12 is_stmt 0 view .LVU97
 365 0058 B048     		ldr	r0, .L47+8
 366 005a 8242     		cmp	r2, r0
 367 005c 12D0     		beq	.L39
 342:Task/Task_BlackBox.c ****         {
 368              		.loc 1 342 14 is_stmt 1 view .LVU98
 342:Task/Task_BlackBox.c ****         {
 369              		.loc 1 342 17 is_stmt 0 view .LVU99
 370 005e B048     		ldr	r0, .L47+12
 371 0060 8242     		cmp	r2, r0
 372 0062 00F0A980 		beq	.L40
 348:Task/Task_BlackBox.c ****         {
 373              		.loc 1 348 14 is_stmt 1 view .LVU100
 348:Task/Task_BlackBox.c ****         {
 374              		.loc 1 348 17 is_stmt 0 view .LVU101
 375 0066 AF48     		ldr	r0, .L47+16
 376 0068 8242     		cmp	r2, r0
 377 006a 00F0B180 		beq	.L26
 348:Task/Task_BlackBox.c ****         {
 378              		.loc 1 348 50 discriminator 1 view .LVU102
 379 006e AE48     		ldr	r0, .L47+20
 380 0070 8242     		cmp	r2, r0
 381 0072 00F0AD80 		beq	.L26
 376:Task/Task_BlackBox.c ****         {
 382              		.loc 1 376 14 is_stmt 1 view .LVU103
 376:Task/Task_BlackBox.c ****         {
 383              		.loc 1 376 17 is_stmt 0 view .LVU104
 384 0076 AD48     		ldr	r0, .L47+24
 385 0078 8242     		cmp	r2, r0
 386 007a 00F0E580 		beq	.L41
 312:Task/Task_BlackBox.c **** 
 387              		.loc 1 312 10 view .LVU105
 388 007e 0022     		movs	r2, #0
 389              	.LVL30:
 311:Task/Task_BlackBox.c ****     bool ctl_update = false;
 390              		.loc 1 311 10 view .LVU106
 391 0080 1146     		mov	r1, r2
 392 0082 5CE0     		b	.L24
 393              	.LVL31:
 394              	.L39:
 328:Task/Task_BlackBox.c ****             imu_data.gyr_scale = DataPipe_DataObj(LogImu_Data).data.gyr_scale;
 395              		.loc 1 328 13 is_stmt 1 view .LVU107
 328:Task/Task_BlackBox.c ****             imu_data.gyr_scale = DataPipe_DataObj(LogImu_Data).data.gyr_scale;
 396              		.loc 1 328 68 is_stmt 0 view .LVU108
 397 0084 AA48     		ldr	r0, .L47+28
 398 0086 D0ED126A 		vldr.32	s13, [r0, #72]
ARM GAS  C:\Users\8bit\AppData\Local\Temp\ccdInZoL.s 			page 17


 328:Task/Task_BlackBox.c ****             imu_data.gyr_scale = DataPipe_DataObj(LogImu_Data).data.gyr_scale;
 399              		.loc 1 328 32 view .LVU109
 400 008a AA4A     		ldr	r2, .L47+32
 401              	.LVL32:
 328:Task/Task_BlackBox.c ****             imu_data.gyr_scale = DataPipe_DataObj(LogImu_Data).data.gyr_scale;
 402              		.loc 1 328 32 view .LVU110
 403 008c 16EE904A 		vmov	r4, s13
 404 0090 C2F80540 		str	r4, [r2, #5]	@ unaligned
 329:Task/Task_BlackBox.c ****             for (i = Axis_X; i < Axis_Sum; i++)
 405              		.loc 1 329 13 is_stmt 1 view .LVU111
 329:Task/Task_BlackBox.c ****             for (i = Axis_X; i < Axis_Sum; i++)
 406              		.loc 1 329 68 is_stmt 0 view .LVU112
 407 0094 90ED137A 		vldr.32	s14, [r0, #76]
 329:Task/Task_BlackBox.c ****             for (i = Axis_X; i < Axis_Sum; i++)
 408              		.loc 1 329 32 view .LVU113
 409 0098 17EE100A 		vmov	r0, s14
 410 009c C2F80900 		str	r0, [r2, #9]	@ unaligned
 330:Task/Task_BlackBox.c ****             {
 411              		.loc 1 330 13 is_stmt 1 view .LVU114
 330:Task/Task_BlackBox.c ****             {
 412              		.loc 1 330 20 is_stmt 0 view .LVU115
 413 00a0 0022     		movs	r2, #0
 330:Task/Task_BlackBox.c ****             {
 414              		.loc 1 330 13 view .LVU116
 415 00a2 43E0     		b	.L22
 416              	.LVL33:
 417              	.L23:
 332:Task/Task_BlackBox.c ****                 imu_data.org_gyr[i] = (int16_t)(DataPipe_DataObj(LogImu_Data).data.org_gyr[i] * imu
 418              		.loc 1 332 17 is_stmt 1 discriminator 3 view .LVU117
 332:Task/Task_BlackBox.c ****                 imu_data.org_gyr[i] = (int16_t)(DataPipe_DataObj(LogImu_Data).data.org_gyr[i] * imu
 419              		.loc 1 332 91 is_stmt 0 discriminator 3 view .LVU118
 420 00a4 A248     		ldr	r0, .L47+28
 421 00a6 02F1040E 		add	lr, r2, #4
 422 00aa 00EB8E04 		add	r4, r0, lr, lsl #2
 423 00ae D4ED007A 		vldr.32	s15, [r4]
 332:Task/Task_BlackBox.c ****                 imu_data.org_gyr[i] = (int16_t)(DataPipe_DataObj(LogImu_Data).data.org_gyr[i] * imu
 424              		.loc 1 332 95 discriminator 3 view .LVU119
 425 00b2 67EE277A 		vmul.f32	s15, s14, s15
 332:Task/Task_BlackBox.c ****                 imu_data.org_gyr[i] = (int16_t)(DataPipe_DataObj(LogImu_Data).data.org_gyr[i] * imu
 426              		.loc 1 332 39 discriminator 3 view .LVU120
 427 00b6 FDEEE77A 		vcvt.s32.f32	s15, s15
 332:Task/Task_BlackBox.c ****                 imu_data.org_gyr[i] = (int16_t)(DataPipe_DataObj(LogImu_Data).data.org_gyr[i] * imu
 428              		.loc 1 332 37 discriminator 3 view .LVU121
 429 00ba 9E4C     		ldr	r4, .L47+32
 430 00bc 02F10C05 		add	r5, r2, #12
 431 00c0 04EB4506 		add	r6, r4, r5, lsl #1
 432 00c4 17EE907A 		vmov	r7, s15	@ int
 433 00c8 A6F80770 		strh	r7, [r6, #7]	@ unaligned
 333:Task/Task_BlackBox.c ****             
 434              		.loc 1 333 17 is_stmt 1 discriminator 3 view .LVU122
 333:Task/Task_BlackBox.c ****             
 435              		.loc 1 333 91 is_stmt 0 discriminator 3 view .LVU123
 436 00cc 02F10A0C 		add	ip, r2, #10
 437 00d0 00EB8C0C 		add	ip, r0, ip, lsl #2
 438 00d4 DCED007A 		vldr.32	s15, [ip]
 333:Task/Task_BlackBox.c ****             
 439              		.loc 1 333 95 discriminator 3 view .LVU124
ARM GAS  C:\Users\8bit\AppData\Local\Temp\ccdInZoL.s 			page 18


 440 00d8 67EE277A 		vmul.f32	s15, s14, s15
 333:Task/Task_BlackBox.c ****             
 441              		.loc 1 333 39 discriminator 3 view .LVU125
 442 00dc FDEEE77A 		vcvt.s32.f32	s15, s15
 333:Task/Task_BlackBox.c ****             
 443              		.loc 1 333 37 discriminator 3 view .LVU126
 444 00e0 02F1080C 		add	ip, r2, #8
 445 00e4 04EB4C0C 		add	ip, r4, ip, lsl #1
 446 00e8 17EE907A 		vmov	r7, s15	@ int
 447 00ec ACF80370 		strh	r7, [ip, #3]	@ unaligned
 335:Task/Task_BlackBox.c ****                 imu_data.org_acc[i] = (int16_t)(DataPipe_DataObj(LogImu_Data).data.org_acc[i] * imu
 448              		.loc 1 335 17 is_stmt 1 discriminator 3 view .LVU127
 335:Task/Task_BlackBox.c ****                 imu_data.org_acc[i] = (int16_t)(DataPipe_DataObj(LogImu_Data).data.org_acc[i] * imu
 449              		.loc 1 335 91 is_stmt 0 discriminator 3 view .LVU128
 450 00f0 02F1060C 		add	ip, r2, #6
 451 00f4 00EB8C0C 		add	ip, r0, ip, lsl #2
 452 00f8 DCED017A 		vldr.32	s15, [ip, #4]
 335:Task/Task_BlackBox.c ****                 imu_data.org_acc[i] = (int16_t)(DataPipe_DataObj(LogImu_Data).data.org_acc[i] * imu
 453              		.loc 1 335 95 discriminator 3 view .LVU129
 454 00fc 66EEA77A 		vmul.f32	s15, s13, s15
 335:Task/Task_BlackBox.c ****                 imu_data.org_acc[i] = (int16_t)(DataPipe_DataObj(LogImu_Data).data.org_acc[i] * imu
 455              		.loc 1 335 39 discriminator 3 view .LVU130
 456 0100 FDEEE77A 		vcvt.s32.f32	s15, s15
 335:Task/Task_BlackBox.c ****                 imu_data.org_acc[i] = (int16_t)(DataPipe_DataObj(LogImu_Data).data.org_acc[i] * imu
 457              		.loc 1 335 37 discriminator 3 view .LVU131
 458 0104 17EE907A 		vmov	r7, s15	@ int
 459 0108 A6F80170 		strh	r7, [r6, #1]	@ unaligned
 336:Task/Task_BlackBox.c ****             }
 460              		.loc 1 336 17 is_stmt 1 discriminator 3 view .LVU132
 336:Task/Task_BlackBox.c ****             }
 461              		.loc 1 336 91 is_stmt 0 discriminator 3 view .LVU133
 462 010c 00EB8500 		add	r0, r0, r5, lsl #2
 463 0110 D0ED017A 		vldr.32	s15, [r0, #4]
 336:Task/Task_BlackBox.c ****             }
 464              		.loc 1 336 95 discriminator 3 view .LVU134
 465 0114 66EEA77A 		vmul.f32	s15, s13, s15
 336:Task/Task_BlackBox.c ****             }
 466              		.loc 1 336 39 discriminator 3 view .LVU135
 467 0118 FDEEE77A 		vcvt.s32.f32	s15, s15
 336:Task/Task_BlackBox.c ****             }
 468              		.loc 1 336 37 discriminator 3 view .LVU136
 469 011c 04EB4E04 		add	r4, r4, lr, lsl #1
 470 0120 17EE900A 		vmov	r0, s15	@ int
 471 0124 A4F80500 		strh	r0, [r4, #5]	@ unaligned
 330:Task/Task_BlackBox.c ****             {
 472              		.loc 1 330 44 is_stmt 1 discriminator 3 view .LVU137
 330:Task/Task_BlackBox.c ****             {
 473              		.loc 1 330 45 is_stmt 0 discriminator 3 view .LVU138
 474 0128 0132     		adds	r2, r2, #1
 475              	.LVL34:
 330:Task/Task_BlackBox.c ****             {
 476              		.loc 1 330 45 discriminator 3 view .LVU139
 477 012a D2B2     		uxtb	r2, r2
 478              	.LVL35:
 479              	.L22:
 330:Task/Task_BlackBox.c ****             {
 480              		.loc 1 330 30 is_stmt 1 discriminator 1 view .LVU140
ARM GAS  C:\Users\8bit\AppData\Local\Temp\ccdInZoL.s 			page 19


 330:Task/Task_BlackBox.c ****             {
 481              		.loc 1 330 13 is_stmt 0 discriminator 1 view .LVU141
 482 012c 022A     		cmp	r2, #2
 483 012e B9D9     		bls	.L23
 338:Task/Task_BlackBox.c ****             imu_data.cyc  = DataPipe_DataObj(LogImu_Data).data.cycle_cnt;
 484              		.loc 1 338 13 is_stmt 1 view .LVU142
 338:Task/Task_BlackBox.c ****             imu_data.cyc  = DataPipe_DataObj(LogImu_Data).data.cycle_cnt;
 485              		.loc 1 338 63 is_stmt 0 view .LVU143
 486 0130 7F48     		ldr	r0, .L47+28
 487 0132 0468     		ldr	r4, [r0]
 338:Task/Task_BlackBox.c ****             imu_data.cyc  = DataPipe_DataObj(LogImu_Data).data.cycle_cnt;
 488              		.loc 1 338 27 view .LVU144
 489 0134 7F4A     		ldr	r2, .L47+32
 490              	.LVL36:
 338:Task/Task_BlackBox.c ****             imu_data.cyc  = DataPipe_DataObj(LogImu_Data).data.cycle_cnt;
 491              		.loc 1 338 27 view .LVU145
 492 0136 1460     		str	r4, [r2]
 339:Task/Task_BlackBox.c ****             imu_update = true;
 493              		.loc 1 339 13 is_stmt 1 view .LVU146
 339:Task/Task_BlackBox.c ****             imu_update = true;
 494              		.loc 1 339 63 is_stmt 0 view .LVU147
 495 0138 4068     		ldr	r0, [r0, #4]
 339:Task/Task_BlackBox.c ****             imu_update = true;
 496              		.loc 1 339 27 view .LVU148
 497 013a 1071     		strb	r0, [r2, #4]
 340:Task/Task_BlackBox.c ****         }
 498              		.loc 1 340 13 is_stmt 1 view .LVU149
 499              	.LVL37:
 312:Task/Task_BlackBox.c **** 
 500              		.loc 1 312 10 is_stmt 0 view .LVU150
 501 013c 0022     		movs	r2, #0
 502              	.LVL38:
 503              	.L24:
 408:Task/Task_BlackBox.c ****         {
 504              		.loc 1 408 9 is_stmt 1 view .LVU151
 408:Task/Task_BlackBox.c ****         {
 505              		.loc 1 408 12 is_stmt 0 view .LVU152
 506 013e 012B     		cmp	r3, #1
 507 0140 00F00681 		beq	.L42
 508              	.L30:
 426:Task/Task_BlackBox.c ****         {
 509              		.loc 1 426 14 is_stmt 1 view .LVU153
 426:Task/Task_BlackBox.c ****         {
 510              		.loc 1 426 17 is_stmt 0 view .LVU154
 511 0144 022B     		cmp	r3, #2
 512 0146 00F02D81 		beq	.L43
 513              	.L32:
 445:Task/Task_BlackBox.c ****         {
 514              		.loc 1 445 14 is_stmt 1 view .LVU155
 445:Task/Task_BlackBox.c ****         {
 515              		.loc 1 445 17 is_stmt 0 view .LVU156
 516 014a 032B     		cmp	r3, #3
 517 014c 00F06181 		beq	.L44
 518              	.L33:
 463:Task/Task_BlackBox.c ****         {
 519              		.loc 1 463 14 is_stmt 1 view .LVU157
 463:Task/Task_BlackBox.c ****         {
ARM GAS  C:\Users\8bit\AppData\Local\Temp\ccdInZoL.s 			page 20


 520              		.loc 1 463 17 is_stmt 0 view .LVU158
 521 0150 042B     		cmp	r3, #4
 522 0152 7FF47AAF 		bne	.L31
 463:Task/Task_BlackBox.c ****         {
 523              		.loc 1 463 94 discriminator 1 view .LVU159
 524 0156 784B     		ldr	r3, .L47+36
 525 0158 1B78     		ldrb	r3, [r3]	@ zero_extendqisi2
 463:Task/Task_BlackBox.c ****         {
 526              		.loc 1 463 66 discriminator 1 view .LVU160
 527 015a 1142     		tst	r1, r2
 528 015c 3FF475AF 		beq	.L31
 529 0160 002B     		cmp	r3, #0
 530 0162 3FF472AF 		beq	.L31
 465:Task/Task_BlackBox.c ****             Monitor.ctl_att_log.byte_size += BLACKBOX_HEADER_SIZE;
 531              		.loc 1 465 13 is_stmt 1 view .LVU161
 465:Task/Task_BlackBox.c ****             Monitor.ctl_att_log.byte_size += BLACKBOX_HEADER_SIZE;
 532              		.loc 1 465 32 is_stmt 0 view .LVU162
 533 0166 6B4C     		ldr	r4, .L47
 534 0168 A36F     		ldr	r3, [r4, #120]
 465:Task/Task_BlackBox.c ****             Monitor.ctl_att_log.byte_size += BLACKBOX_HEADER_SIZE;
 535              		.loc 1 465 37 view .LVU163
 536 016a 0133     		adds	r3, r3, #1
 537 016c A367     		str	r3, [r4, #120]
 466:Task/Task_BlackBox.c ****             blackbox_header.type = BlackBox_AttitudePID_Tune;
 538              		.loc 1 466 13 is_stmt 1 view .LVU164
 466:Task/Task_BlackBox.c ****             blackbox_header.type = BlackBox_AttitudePID_Tune;
 539              		.loc 1 466 43 is_stmt 0 view .LVU165
 540 016e E36F     		ldr	r3, [r4, #124]
 541 0170 0433     		adds	r3, r3, #4
 542 0172 E367     		str	r3, [r4, #124]
 467:Task/Task_BlackBox.c ****             blackbox_header.size = sizeof(BlackBox_AttCtlData_TypeDef);
 543              		.loc 1 467 13 is_stmt 1 view .LVU166
 467:Task/Task_BlackBox.c ****             blackbox_header.size = sizeof(BlackBox_AttCtlData_TypeDef);
 544              		.loc 1 467 34 is_stmt 0 view .LVU167
 545 0174 0421     		movs	r1, #4
 546              	.LVL39:
 467:Task/Task_BlackBox.c ****             blackbox_header.size = sizeof(BlackBox_AttCtlData_TypeDef);
 547              		.loc 1 467 34 view .LVU168
 548 0176 8DF80610 		strb	r1, [sp, #6]
 468:Task/Task_BlackBox.c ****             TaskBlackBox_UpdateQueue((uint8_t *)&blackbox_header, BLACKBOX_HEADER_SIZE);
 549              		.loc 1 468 13 is_stmt 1 view .LVU169
 468:Task/Task_BlackBox.c ****             TaskBlackBox_UpdateQueue((uint8_t *)&blackbox_header, BLACKBOX_HEADER_SIZE);
 550              		.loc 1 468 34 is_stmt 0 view .LVU170
 551 017a 1D26     		movs	r6, #29
 552 017c 8DF80760 		strb	r6, [sp, #7]
 469:Task/Task_BlackBox.c **** 
 553              		.loc 1 469 13 is_stmt 1 view .LVU171
 554 0180 0DEB0100 		add	r0, sp, r1
 555 0184 FFF7FEFF 		bl	TaskBlackBox_UpdateQueue
 556              	.LVL40:
 471:Task/Task_BlackBox.c ****             Monitor.ctl_att_log.byte_size += sizeof(BlackBox_AttCtlData_TypeDef);
 557              		.loc 1 471 13 view .LVU172
 558 0188 6C4F     		ldr	r7, .L47+40
 559 018a 3146     		mov	r1, r6
 560 018c 3846     		mov	r0, r7
 561 018e FFF7FEFF 		bl	TaskBlackBox_UpdateQueue
 562              	.LVL41:
ARM GAS  C:\Users\8bit\AppData\Local\Temp\ccdInZoL.s 			page 21


 472:Task/Task_BlackBox.c **** 
 563              		.loc 1 472 13 view .LVU173
 472:Task/Task_BlackBox.c **** 
 564              		.loc 1 472 43 is_stmt 0 view .LVU174
 565 0192 E56F     		ldr	r5, [r4, #124]
 566 0194 AB19     		adds	r3, r5, r6
 567 0196 E367     		str	r3, [r4, #124]
 474:Task/Task_BlackBox.c ****             blackbox_ender.check_sum = check_sum;
 568              		.loc 1 474 13 is_stmt 1 view .LVU175
 474:Task/Task_BlackBox.c ****             blackbox_ender.check_sum = check_sum;
 569              		.loc 1 474 25 is_stmt 0 view .LVU176
 570 0198 3146     		mov	r1, r6
 571 019a 3846     		mov	r0, r7
 572 019c FFF7FEFF 		bl	TaskBlackBox_Get_CheckSum
 573              	.LVL42:
 475:Task/Task_BlackBox.c ****             Monitor.ctl_att_log.byte_size += BLACKBOX_ENDER_SIZE;
 574              		.loc 1 475 13 is_stmt 1 view .LVU177
 475:Task/Task_BlackBox.c ****             Monitor.ctl_att_log.byte_size += BLACKBOX_ENDER_SIZE;
 575              		.loc 1 475 38 is_stmt 0 view .LVU178
 576 01a0 8DF80000 		strb	r0, [sp]
 476:Task/Task_BlackBox.c ****             TaskBlackBox_UpdateQueue((uint8_t *)&blackbox_ender, BLACKBOX_ENDER_SIZE);
 577              		.loc 1 476 13 is_stmt 1 view .LVU179
 476:Task/Task_BlackBox.c ****             TaskBlackBox_UpdateQueue((uint8_t *)&blackbox_ender, BLACKBOX_ENDER_SIZE);
 578              		.loc 1 476 43 is_stmt 0 view .LVU180
 579 01a4 2035     		adds	r5, r5, #32
 580 01a6 E567     		str	r5, [r4, #124]
 477:Task/Task_BlackBox.c ****             imu_update = false;
 581              		.loc 1 477 13 is_stmt 1 view .LVU181
 582 01a8 0321     		movs	r1, #3
 583 01aa 6846     		mov	r0, sp
 584              	.LVL43:
 477:Task/Task_BlackBox.c ****             imu_update = false;
 585              		.loc 1 477 13 is_stmt 0 view .LVU182
 586 01ac FFF7FEFF 		bl	TaskBlackBox_UpdateQueue
 587              	.LVL44:
 478:Task/Task_BlackBox.c ****             ctl_update = false;
 588              		.loc 1 478 13 is_stmt 1 view .LVU183
 479:Task/Task_BlackBox.c ****             att_update = false;
 589              		.loc 1 479 13 view .LVU184
 480:Task/Task_BlackBox.c ****         }
 590              		.loc 1 480 13 view .LVU185
 480:Task/Task_BlackBox.c ****         }
 591              		.loc 1 480 24 is_stmt 0 view .LVU186
 592 01b0 614B     		ldr	r3, .L47+36
 593 01b2 0022     		movs	r2, #0
 594 01b4 1A70     		strb	r2, [r3]
 595 01b6 48E7     		b	.L31
 596              	.LVL45:
 597              	.L40:
 344:Task/Task_BlackBox.c ****             baro_data.cyc = DataPipe_DataObj(LogBaro_Data).data.cyc;
 598              		.loc 1 344 13 is_stmt 1 view .LVU187
 344:Task/Task_BlackBox.c ****             baro_data.cyc = DataPipe_DataObj(LogBaro_Data).data.cyc;
 599              		.loc 1 344 65 is_stmt 0 view .LVU188
 600 01b8 5D49     		ldr	r1, .L47+28
 601 01ba 486D     		ldr	r0, [r1, #84]
 344:Task/Task_BlackBox.c ****             baro_data.cyc = DataPipe_DataObj(LogBaro_Data).data.cyc;
 602              		.loc 1 344 28 view .LVU189
ARM GAS  C:\Users\8bit\AppData\Local\Temp\ccdInZoL.s 			page 22


 603 01bc 604A     		ldr	r2, .L47+44
 604              	.LVL46:
 344:Task/Task_BlackBox.c ****             baro_data.cyc = DataPipe_DataObj(LogBaro_Data).data.cyc;
 605              		.loc 1 344 28 view .LVU190
 606 01be 1060     		str	r0, [r2]
 345:Task/Task_BlackBox.c ****             baro_data.press = DataPipe_DataObj(LogBaro_Data).data.pressure;
 607              		.loc 1 345 13 is_stmt 1 view .LVU191
 345:Task/Task_BlackBox.c ****             baro_data.press = DataPipe_DataObj(LogBaro_Data).data.pressure;
 608              		.loc 1 345 64 is_stmt 0 view .LVU192
 609 01c0 91F85800 		ldrb	r0, [r1, #88]	@ zero_extendqisi2
 345:Task/Task_BlackBox.c ****             baro_data.press = DataPipe_DataObj(LogBaro_Data).data.pressure;
 610              		.loc 1 345 27 view .LVU193
 611 01c4 1071     		strb	r0, [r2, #4]
 346:Task/Task_BlackBox.c ****         }
 612              		.loc 1 346 13 is_stmt 1 view .LVU194
 346:Task/Task_BlackBox.c ****         }
 613              		.loc 1 346 66 is_stmt 0 view .LVU195
 614 01c6 096E     		ldr	r1, [r1, #96]	@ float
 346:Task/Task_BlackBox.c ****         }
 615              		.loc 1 346 29 view .LVU196
 616 01c8 9160     		str	r1, [r2, #8]	@ float
 312:Task/Task_BlackBox.c **** 
 617              		.loc 1 312 10 view .LVU197
 618 01ca 0022     		movs	r2, #0
 311:Task/Task_BlackBox.c ****     bool ctl_update = false;
 619              		.loc 1 311 10 view .LVU198
 620 01cc 1146     		mov	r1, r2
 621 01ce B6E7     		b	.L24
 622              	.LVL47:
 623              	.L26:
 351:Task/Task_BlackBox.c ****             att_alt_data.acc_scale = imu_data.acc_scale;
 624              		.loc 1 351 13 is_stmt 1 view .LVU199
 351:Task/Task_BlackBox.c ****             att_alt_data.acc_scale = imu_data.acc_scale;
 625              		.loc 1 351 46 is_stmt 0 view .LVU200
 626 01d0 584C     		ldr	r4, .L47+32
 627 01d2 D4F80900 		ldr	r0, [r4, #9]	@ unaligned
 351:Task/Task_BlackBox.c ****             att_alt_data.acc_scale = imu_data.acc_scale;
 628              		.loc 1 351 36 view .LVU201
 629 01d6 5B49     		ldr	r1, .L47+48
 630 01d8 C860     		str	r0, [r1, #12]	@ float
 352:Task/Task_BlackBox.c ****             memcpy(att_alt_data.acc, imu_data.flt_acc, sizeof(imu_data.flt_acc));
 631              		.loc 1 352 13 is_stmt 1 view .LVU202
 352:Task/Task_BlackBox.c ****             memcpy(att_alt_data.acc, imu_data.flt_acc, sizeof(imu_data.flt_acc));
 632              		.loc 1 352 46 is_stmt 0 view .LVU203
 633 01da D4F80500 		ldr	r0, [r4, #5]	@ unaligned
 352:Task/Task_BlackBox.c ****             memcpy(att_alt_data.acc, imu_data.flt_acc, sizeof(imu_data.flt_acc));
 634              		.loc 1 352 36 view .LVU204
 635 01de 8860     		str	r0, [r1, #8]	@ float
 353:Task/Task_BlackBox.c ****             memcpy(att_alt_data.gyr, imu_data.flt_gyr, sizeof(imu_data.flt_gyr));
 636              		.loc 1 353 13 is_stmt 1 view .LVU205
 637 01e0 D4F81900 		ldr	r0, [r4, #25]	@ unaligned
 638 01e4 0861     		str	r0, [r1, #16]
 639 01e6 B4F81D00 		ldrh	r0, [r4, #29]	@ unaligned
 640 01ea 8882     		strh	r0, [r1, #20]	@ unaligned
 354:Task/Task_BlackBox.c **** 
 641              		.loc 1 354 13 view .LVU206
 642 01ec D4F81F00 		ldr	r0, [r4, #31]	@ unaligned
ARM GAS  C:\Users\8bit\AppData\Local\Temp\ccdInZoL.s 			page 23


 643 01f0 C1F81600 		str	r0, [r1, #22]	@ unaligned
 644 01f4 B4F82300 		ldrh	r0, [r4, #35]	@ unaligned
 645 01f8 4883     		strh	r0, [r1, #26]	@ unaligned
 357:Task/Task_BlackBox.c **** 
 646              		.loc 1 357 13 view .LVU207
 357:Task/Task_BlackBox.c **** 
 647              		.loc 1 357 42 is_stmt 0 view .LVU208
 648 01fa 5148     		ldr	r0, .L47+44
 649 01fc 8068     		ldr	r0, [r0, #8]	@ float
 357:Task/Task_BlackBox.c **** 
 650              		.loc 1 357 31 view .LVU209
 651 01fe 4860     		str	r0, [r1, #4]	@ float
 360:Task/Task_BlackBox.c ****             {
 652              		.loc 1 360 13 is_stmt 1 view .LVU210
 360:Task/Task_BlackBox.c ****             {
 653              		.loc 1 360 16 is_stmt 0 view .LVU211
 654 0200 4849     		ldr	r1, .L47+16
 655 0202 8A42     		cmp	r2, r1
 656 0204 05D0     		beq	.L45
 369:Task/Task_BlackBox.c ****             {
 657              		.loc 1 369 18 is_stmt 1 view .LVU212
 369:Task/Task_BlackBox.c ****             {
 658              		.loc 1 369 21 is_stmt 0 view .LVU213
 659 0206 4849     		ldr	r1, .L47+20
 660 0208 8A42     		cmp	r2, r1
 661 020a 12D0     		beq	.L46
 312:Task/Task_BlackBox.c **** 
 662              		.loc 1 312 10 view .LVU214
 663 020c 0022     		movs	r2, #0
 664              	.LVL48:
 311:Task/Task_BlackBox.c ****     bool ctl_update = false;
 665              		.loc 1 311 10 view .LVU215
 666 020e 1146     		mov	r1, r2
 667 0210 95E7     		b	.L24
 668              	.LVL49:
 669              	.L45:
 363:Task/Task_BlackBox.c ****                 att_alt_data.pitch = DataPipe_DataObj(LogAtt_Data).pitch;
 670              		.loc 1 363 17 is_stmt 1 view .LVU216
 363:Task/Task_BlackBox.c ****                 att_alt_data.pitch = DataPipe_DataObj(LogAtt_Data).pitch;
 671              		.loc 1 363 66 is_stmt 0 view .LVU217
 672 0212 4749     		ldr	r1, .L47+28
 673 0214 086F     		ldr	r0, [r1, #112]
 363:Task/Task_BlackBox.c ****                 att_alt_data.pitch = DataPipe_DataObj(LogAtt_Data).pitch;
 674              		.loc 1 363 35 view .LVU218
 675 0216 4B4A     		ldr	r2, .L47+48
 676              	.LVL50:
 363:Task/Task_BlackBox.c ****                 att_alt_data.pitch = DataPipe_DataObj(LogAtt_Data).pitch;
 677              		.loc 1 363 35 view .LVU219
 678 0218 1060     		str	r0, [r2]
 364:Task/Task_BlackBox.c ****                 att_alt_data.roll = DataPipe_DataObj(LogAtt_Data).roll;
 679              		.loc 1 364 17 is_stmt 1 view .LVU220
 364:Task/Task_BlackBox.c ****                 att_alt_data.roll = DataPipe_DataObj(LogAtt_Data).roll;
 680              		.loc 1 364 67 is_stmt 0 view .LVU221
 681 021a 486F     		ldr	r0, [r1, #116]	@ float
 364:Task/Task_BlackBox.c ****                 att_alt_data.roll = DataPipe_DataObj(LogAtt_Data).roll;
 682              		.loc 1 364 36 view .LVU222
 683 021c D061     		str	r0, [r2, #28]	@ float
ARM GAS  C:\Users\8bit\AppData\Local\Temp\ccdInZoL.s 			page 24


 365:Task/Task_BlackBox.c ****                 att_alt_data.yaw = DataPipe_DataObj(LogAtt_Data).yaw;
 684              		.loc 1 365 17 is_stmt 1 view .LVU223
 365:Task/Task_BlackBox.c ****                 att_alt_data.yaw = DataPipe_DataObj(LogAtt_Data).yaw;
 685              		.loc 1 365 66 is_stmt 0 view .LVU224
 686 021e 886F     		ldr	r0, [r1, #120]	@ float
 365:Task/Task_BlackBox.c ****                 att_alt_data.yaw = DataPipe_DataObj(LogAtt_Data).yaw;
 687              		.loc 1 365 35 view .LVU225
 688 0220 1062     		str	r0, [r2, #32]	@ float
 366:Task/Task_BlackBox.c ****                 att_update = true;
 689              		.loc 1 366 17 is_stmt 1 view .LVU226
 366:Task/Task_BlackBox.c ****                 att_update = true;
 690              		.loc 1 366 65 is_stmt 0 view .LVU227
 691 0222 C96F     		ldr	r1, [r1, #124]	@ float
 366:Task/Task_BlackBox.c ****                 att_update = true;
 692              		.loc 1 366 34 view .LVU228
 693 0224 5162     		str	r1, [r2, #36]	@ float
 367:Task/Task_BlackBox.c ****             }
 694              		.loc 1 367 17 is_stmt 1 view .LVU229
 367:Task/Task_BlackBox.c ****             }
 695              		.loc 1 367 28 is_stmt 0 view .LVU230
 696 0226 444A     		ldr	r2, .L47+36
 697 0228 0121     		movs	r1, #1
 698 022a 1170     		strb	r1, [r2]
 312:Task/Task_BlackBox.c **** 
 699              		.loc 1 312 10 view .LVU231
 700 022c 0022     		movs	r2, #0
 311:Task/Task_BlackBox.c ****     bool ctl_update = false;
 701              		.loc 1 311 10 view .LVU232
 702 022e 1146     		mov	r1, r2
 703 0230 85E7     		b	.L24
 704              	.LVL51:
 705              	.L46:
 372:Task/Task_BlackBox.c ****                 alt_update = true;
 706              		.loc 1 372 17 is_stmt 1 view .LVU233
 372:Task/Task_BlackBox.c ****                 alt_update = true;
 707              		.loc 1 372 65 is_stmt 0 view .LVU234
 708 0232 3F4A     		ldr	r2, .L47+28
 709              	.LVL52:
 372:Task/Task_BlackBox.c ****                 alt_update = true;
 710              		.loc 1 372 65 view .LVU235
 711 0234 D2F89810 		ldr	r1, [r2, #152]	@ float
 372:Task/Task_BlackBox.c ****                 alt_update = true;
 712              		.loc 1 372 34 view .LVU236
 713 0238 424A     		ldr	r2, .L47+48
 714 023a 9162     		str	r1, [r2, #40]	@ float
 373:Task/Task_BlackBox.c ****             }
 715              		.loc 1 373 17 is_stmt 1 view .LVU237
 373:Task/Task_BlackBox.c ****             }
 716              		.loc 1 373 28 is_stmt 0 view .LVU238
 717 023c 424A     		ldr	r2, .L47+52
 718 023e 0121     		movs	r1, #1
 719 0240 1170     		strb	r1, [r2]
 312:Task/Task_BlackBox.c **** 
 720              		.loc 1 312 10 view .LVU239
 721 0242 0022     		movs	r2, #0
 311:Task/Task_BlackBox.c ****     bool ctl_update = false;
 722              		.loc 1 311 10 view .LVU240
ARM GAS  C:\Users\8bit\AppData\Local\Temp\ccdInZoL.s 			page 25


 723 0244 1146     		mov	r1, r2
 724 0246 7AE7     		b	.L24
 725              	.LVL53:
 726              	.L41:
 378:Task/Task_BlackBox.c ****             baro_data.throttle_percent = DataPipe_DataObj(LogCtl_Data).throttle_percent;
 727              		.loc 1 378 13 is_stmt 1 view .LVU241
 378:Task/Task_BlackBox.c ****             baro_data.throttle_percent = DataPipe_DataObj(LogCtl_Data).throttle_percent;
 728              		.loc 1 378 70 is_stmt 0 view .LVU242
 729 0248 394A     		ldr	r2, .L47+28
 730              	.LVL54:
 378:Task/Task_BlackBox.c ****             baro_data.throttle_percent = DataPipe_DataObj(LogCtl_Data).throttle_percent;
 731              		.loc 1 378 70 view .LVU243
 732 024a 92F8A300 		ldrb	r0, [r2, #163]	@ zero_extendqisi2
 378:Task/Task_BlackBox.c ****             baro_data.throttle_percent = DataPipe_DataObj(LogCtl_Data).throttle_percent;
 733              		.loc 1 378 39 view .LVU244
 734 024e 394C     		ldr	r4, .L47+32
 735 0250 84F82500 		strb	r0, [r4, #37]
 379:Task/Task_BlackBox.c **** 
 736              		.loc 1 379 13 is_stmt 1 view .LVU245
 379:Task/Task_BlackBox.c **** 
 737              		.loc 1 379 40 is_stmt 0 view .LVU246
 738 0254 3A4C     		ldr	r4, .L47+44
 739 0256 2073     		strb	r0, [r4, #12]
 381:Task/Task_BlackBox.c ****             {
 740              		.loc 1 381 13 is_stmt 1 view .LVU247
 381:Task/Task_BlackBox.c ****             {
 741              		.loc 1 381 46 is_stmt 0 view .LVU248
 742 0258 92F8A220 		ldrb	r2, [r2, #162]	@ zero_extendqisi2
 381:Task/Task_BlackBox.c ****             {
 743              		.loc 1 381 16 view .LVU249
 744 025c 32BB     		cbnz	r2, .L29
 383:Task/Task_BlackBox.c ****                 att_ctl_data.throttle_percent = DataPipe_DataObj(LogCtl_Data).throttle_percent;
 745              		.loc 1 383 17 is_stmt 1 view .LVU250
 383:Task/Task_BlackBox.c ****                 att_ctl_data.throttle_percent = DataPipe_DataObj(LogCtl_Data).throttle_percent;
 746              		.loc 1 383 66 is_stmt 0 view .LVU251
 747 025e 344C     		ldr	r4, .L47+28
 748 0260 D4F89C50 		ldr	r5, [r4, #156]
 383:Task/Task_BlackBox.c ****                 att_ctl_data.throttle_percent = DataPipe_DataObj(LogCtl_Data).throttle_percent;
 749              		.loc 1 383 35 view .LVU252
 750 0264 354A     		ldr	r2, .L47+40
 751 0266 1560     		str	r5, [r2]
 384:Task/Task_BlackBox.c ****                 att_ctl_data.exp_pitch = DataPipe_DataObj(LogCtl_Data).pitch;
 752              		.loc 1 384 17 is_stmt 1 view .LVU253
 384:Task/Task_BlackBox.c ****                 att_ctl_data.exp_pitch = DataPipe_DataObj(LogCtl_Data).pitch;
 753              		.loc 1 384 47 is_stmt 0 view .LVU254
 754 0268 1071     		strb	r0, [r2, #4]
 385:Task/Task_BlackBox.c ****                 att_ctl_data.exp_roll = DataPipe_DataObj(LogCtl_Data).roll;
 755              		.loc 1 385 17 is_stmt 1 view .LVU255
 385:Task/Task_BlackBox.c ****                 att_ctl_data.exp_roll = DataPipe_DataObj(LogCtl_Data).roll;
 756              		.loc 1 385 40 is_stmt 0 view .LVU256
 757 026a D4F8A400 		ldr	r0, [r4, #164]	@ float
 758 026e C2F81100 		str	r0, [r2, #17]	@ unaligned
 386:Task/Task_BlackBox.c ****                 att_ctl_data.exp_gyr_z = DataPipe_DataObj(LogCtl_Data).gyr_z;
 759              		.loc 1 386 17 is_stmt 1 view .LVU257
 386:Task/Task_BlackBox.c ****                 att_ctl_data.exp_gyr_z = DataPipe_DataObj(LogCtl_Data).gyr_z;
 760              		.loc 1 386 39 is_stmt 0 view .LVU258
 761 0272 D4F8A800 		ldr	r0, [r4, #168]	@ float
ARM GAS  C:\Users\8bit\AppData\Local\Temp\ccdInZoL.s 			page 26


 762 0276 C2F81500 		str	r0, [r2, #21]	@ unaligned
 387:Task/Task_BlackBox.c ****                 att_ctl_data.pitch = att_alt_data.pitch;
 763              		.loc 1 387 17 is_stmt 1 view .LVU259
 387:Task/Task_BlackBox.c ****                 att_ctl_data.pitch = att_alt_data.pitch;
 764              		.loc 1 387 40 is_stmt 0 view .LVU260
 765 027a D4F8B400 		ldr	r0, [r4, #180]	@ float
 766 027e C2F81900 		str	r0, [r2, #25]	@ unaligned
 388:Task/Task_BlackBox.c ****                 att_ctl_data.roll = att_alt_data.roll;
 767              		.loc 1 388 17 is_stmt 1 view .LVU261
 388:Task/Task_BlackBox.c ****                 att_ctl_data.roll = att_alt_data.roll;
 768              		.loc 1 388 50 is_stmt 0 view .LVU262
 769 0282 3048     		ldr	r0, .L47+48
 388:Task/Task_BlackBox.c ****                 att_ctl_data.roll = att_alt_data.roll;
 770              		.loc 1 388 36 view .LVU263
 771 0284 C469     		ldr	r4, [r0, #28]	@ float
 772 0286 C2F80540 		str	r4, [r2, #5]	@ unaligned
 389:Task/Task_BlackBox.c ****                 att_ctl_data.gyr_z = imu_data.flt_gyr[Axis_Z];
 773              		.loc 1 389 17 is_stmt 1 view .LVU264
 389:Task/Task_BlackBox.c ****                 att_ctl_data.gyr_z = imu_data.flt_gyr[Axis_Z];
 774              		.loc 1 389 35 is_stmt 0 view .LVU265
 775 028a 006A     		ldr	r0, [r0, #32]	@ float
 776 028c C2F80900 		str	r0, [r2, #9]	@ unaligned
 390:Task/Task_BlackBox.c ****             }
 777              		.loc 1 390 17 is_stmt 1 view .LVU266
 390:Task/Task_BlackBox.c ****             }
 778              		.loc 1 390 54 is_stmt 0 view .LVU267
 779 0290 2848     		ldr	r0, .L47+32
 780 0292 B0F92300 		ldrsh	r0, [r0, #35]	@ unaligned
 390:Task/Task_BlackBox.c ****             }
 781              		.loc 1 390 36 view .LVU268
 782 0296 07EE900A 		vmov	s15, r0	@ int
 783 029a F8EEE77A 		vcvt.f32.s32	s15, s15
 784 029e 17EE900A 		vmov	r0, s15
 785 02a2 C2F80D00 		str	r0, [r2, #13]	@ unaligned
 404:Task/Task_BlackBox.c ****         }
 786              		.loc 1 404 24 view .LVU269
 787 02a6 0A46     		mov	r2, r1
 311:Task/Task_BlackBox.c ****     bool ctl_update = false;
 788              		.loc 1 311 10 view .LVU270
 789 02a8 0021     		movs	r1, #0
 790 02aa 48E7     		b	.L24
 791              	.L29:
 394:Task/Task_BlackBox.c ****                 ang_ctl_data.throttle_percent = DataPipe_DataObj(LogCtl_Data).throttle_percent;
 792              		.loc 1 394 17 is_stmt 1 view .LVU271
 394:Task/Task_BlackBox.c ****                 ang_ctl_data.throttle_percent = DataPipe_DataObj(LogCtl_Data).throttle_percent;
 793              		.loc 1 394 66 is_stmt 0 view .LVU272
 794 02ac 204C     		ldr	r4, .L47+28
 795 02ae D4F89C50 		ldr	r5, [r4, #156]
 394:Task/Task_BlackBox.c ****                 ang_ctl_data.throttle_percent = DataPipe_DataObj(LogCtl_Data).throttle_percent;
 796              		.loc 1 394 35 view .LVU273
 797 02b2 264A     		ldr	r2, .L47+56
 798 02b4 1560     		str	r5, [r2]
 395:Task/Task_BlackBox.c ****                 ang_ctl_data.exp_gyr[Axis_X] = DataPipe_DataObj(LogCtl_Data).gyr_x;
 799              		.loc 1 395 17 is_stmt 1 view .LVU274
 395:Task/Task_BlackBox.c ****                 ang_ctl_data.exp_gyr[Axis_X] = DataPipe_DataObj(LogCtl_Data).gyr_x;
 800              		.loc 1 395 47 is_stmt 0 view .LVU275
 801 02b6 1071     		strb	r0, [r2, #4]
ARM GAS  C:\Users\8bit\AppData\Local\Temp\ccdInZoL.s 			page 27


 396:Task/Task_BlackBox.c ****                 ang_ctl_data.exp_gyr[Axis_Y] = DataPipe_DataObj(LogCtl_Data).gyr_y;
 802              		.loc 1 396 17 is_stmt 1 view .LVU276
 396:Task/Task_BlackBox.c ****                 ang_ctl_data.exp_gyr[Axis_Y] = DataPipe_DataObj(LogCtl_Data).gyr_y;
 803              		.loc 1 396 46 is_stmt 0 view .LVU277
 804 02b8 D4F8AC00 		ldr	r0, [r4, #172]	@ float
 805 02bc C2F81100 		str	r0, [r2, #17]	@ unaligned
 397:Task/Task_BlackBox.c ****                 ang_ctl_data.exp_gyr[Axis_Z] = DataPipe_DataObj(LogCtl_Data).gyr_z;
 806              		.loc 1 397 17 is_stmt 1 view .LVU278
 397:Task/Task_BlackBox.c ****                 ang_ctl_data.exp_gyr[Axis_Z] = DataPipe_DataObj(LogCtl_Data).gyr_z;
 807              		.loc 1 397 46 is_stmt 0 view .LVU279
 808 02c0 D4F8B000 		ldr	r0, [r4, #176]	@ float
 809 02c4 C2F81500 		str	r0, [r2, #21]	@ unaligned
 398:Task/Task_BlackBox.c ****                 ang_ctl_data.gyr[Axis_X] = imu_data.flt_gyr[Axis_X];
 810              		.loc 1 398 17 is_stmt 1 view .LVU280
 398:Task/Task_BlackBox.c ****                 ang_ctl_data.gyr[Axis_X] = imu_data.flt_gyr[Axis_X];
 811              		.loc 1 398 46 is_stmt 0 view .LVU281
 812 02c8 D4F8B400 		ldr	r0, [r4, #180]	@ float
 813 02cc C2F81900 		str	r0, [r2, #25]	@ unaligned
 399:Task/Task_BlackBox.c ****                 ang_ctl_data.gyr[Axis_Y] = imu_data.flt_gyr[Axis_Y];
 814              		.loc 1 399 17 is_stmt 1 view .LVU282
 399:Task/Task_BlackBox.c ****                 ang_ctl_data.gyr[Axis_Y] = imu_data.flt_gyr[Axis_Y];
 815              		.loc 1 399 60 is_stmt 0 view .LVU283
 816 02d0 1848     		ldr	r0, .L47+32
 817 02d2 B0F91F40 		ldrsh	r4, [r0, #31]	@ unaligned
 399:Task/Task_BlackBox.c ****                 ang_ctl_data.gyr[Axis_Y] = imu_data.flt_gyr[Axis_Y];
 818              		.loc 1 399 42 view .LVU284
 819 02d6 07EE904A 		vmov	s15, r4	@ int
 820 02da F8EEE77A 		vcvt.f32.s32	s15, s15
 821 02de 17EE904A 		vmov	r4, s15
 822 02e2 C2F80540 		str	r4, [r2, #5]	@ unaligned
 400:Task/Task_BlackBox.c ****                 ang_ctl_data.gyr[Axis_Z] = imu_data.flt_gyr[Axis_Z];
 823              		.loc 1 400 17 is_stmt 1 view .LVU285
 400:Task/Task_BlackBox.c ****                 ang_ctl_data.gyr[Axis_Z] = imu_data.flt_gyr[Axis_Z];
 824              		.loc 1 400 60 is_stmt 0 view .LVU286
 825 02e6 B0F92140 		ldrsh	r4, [r0, #33]	@ unaligned
 400:Task/Task_BlackBox.c ****                 ang_ctl_data.gyr[Axis_Z] = imu_data.flt_gyr[Axis_Z];
 826              		.loc 1 400 42 view .LVU287
 827 02ea 07EE904A 		vmov	s15, r4	@ int
 828 02ee F8EEE77A 		vcvt.f32.s32	s15, s15
 829 02f2 17EE904A 		vmov	r4, s15
 830 02f6 C2F80940 		str	r4, [r2, #9]	@ unaligned
 401:Task/Task_BlackBox.c ****             }
 831              		.loc 1 401 17 is_stmt 1 view .LVU288
 401:Task/Task_BlackBox.c ****             }
 832              		.loc 1 401 60 is_stmt 0 view .LVU289
 833 02fa B0F92300 		ldrsh	r0, [r0, #35]	@ unaligned
 401:Task/Task_BlackBox.c ****             }
 834              		.loc 1 401 42 view .LVU290
 835 02fe 07EE900A 		vmov	s15, r0	@ int
 836 0302 F8EEE77A 		vcvt.f32.s32	s15, s15
 837 0306 17EE900A 		vmov	r0, s15
 838 030a C2F80D00 		str	r0, [r2, #13]	@ unaligned
 404:Task/Task_BlackBox.c ****         }
 839              		.loc 1 404 24 view .LVU291
 840 030e 0A46     		mov	r2, r1
 311:Task/Task_BlackBox.c ****     bool ctl_update = false;
 841              		.loc 1 311 10 view .LVU292
ARM GAS  C:\Users\8bit\AppData\Local\Temp\ccdInZoL.s 			page 28


 842 0310 0021     		movs	r1, #0
 843 0312 14E7     		b	.L24
 844              	.L48:
 845              		.align	2
 846              	.L47:
 847 0314 00000000 		.word	.LANCHOR1
 848 0318 00000000 		.word	.LANCHOR3
 849 031c 00000000 		.word	IMU_Log_DataPipe
 850 0320 00000000 		.word	Baro_Log_DataPipe
 851 0324 00000000 		.word	Attitude_Log_DataPipe
 852 0328 00000000 		.word	Altitude_Log_DataPipe
 853 032c 00000000 		.word	CtlData_Log_DataPipe
 854 0330 00000000 		.word	.LANCHOR4
 855 0334 00000000 		.word	.LANCHOR5
 856 0338 00000000 		.word	.LANCHOR8
 857 033c 00000000 		.word	.LANCHOR10
 858 0340 00000000 		.word	.LANCHOR6
 859 0344 00000000 		.word	.LANCHOR7
 860 0348 00000000 		.word	.LANCHOR9
 861 034c 00000000 		.word	.LANCHOR11
 862              	.LVL55:
 863              	.L42:
 408:Task/Task_BlackBox.c ****         {
 864              		.loc 1 408 55 discriminator 1 view .LVU293
 865 0350 0029     		cmp	r1, #0
 866 0352 3FF4F7AE 		beq	.L30
 411:Task/Task_BlackBox.c ****             Monitor.imu_log.byte_size += BLACKBOX_HEADER_SIZE;
 867              		.loc 1 411 13 is_stmt 1 view .LVU294
 411:Task/Task_BlackBox.c ****             Monitor.imu_log.byte_size += BLACKBOX_HEADER_SIZE;
 868              		.loc 1 411 28 is_stmt 0 view .LVU295
 869 0356 484C     		ldr	r4, .L49
 870 0358 236E     		ldr	r3, [r4, #96]
 411:Task/Task_BlackBox.c ****             Monitor.imu_log.byte_size += BLACKBOX_HEADER_SIZE;
 871              		.loc 1 411 33 view .LVU296
 872 035a 0133     		adds	r3, r3, #1
 873 035c 2366     		str	r3, [r4, #96]
 412:Task/Task_BlackBox.c ****             blackbox_header.type = BlackBox_Imu_Filted;
 874              		.loc 1 412 13 is_stmt 1 view .LVU297
 412:Task/Task_BlackBox.c ****             blackbox_header.type = BlackBox_Imu_Filted;
 875              		.loc 1 412 39 is_stmt 0 view .LVU298
 876 035e 636E     		ldr	r3, [r4, #100]
 877 0360 0433     		adds	r3, r3, #4
 878 0362 6366     		str	r3, [r4, #100]
 413:Task/Task_BlackBox.c ****             blackbox_header.size = sizeof(BlackBox_IMUData_TypeDef);
 879              		.loc 1 413 13 is_stmt 1 view .LVU299
 413:Task/Task_BlackBox.c ****             blackbox_header.size = sizeof(BlackBox_IMUData_TypeDef);
 880              		.loc 1 413 34 is_stmt 0 view .LVU300
 881 0364 0123     		movs	r3, #1
 882 0366 8DF80630 		strb	r3, [sp, #6]
 414:Task/Task_BlackBox.c ****             TaskBlackBox_UpdateQueue((uint8_t *)&blackbox_header, BLACKBOX_HEADER_SIZE);
 883              		.loc 1 414 13 is_stmt 1 view .LVU301
 414:Task/Task_BlackBox.c ****             TaskBlackBox_UpdateQueue((uint8_t *)&blackbox_header, BLACKBOX_HEADER_SIZE);
 884              		.loc 1 414 34 is_stmt 0 view .LVU302
 885 036a 2626     		movs	r6, #38
 886 036c 8DF80760 		strb	r6, [sp, #7]
 415:Task/Task_BlackBox.c ****             
 887              		.loc 1 415 13 is_stmt 1 view .LVU303
ARM GAS  C:\Users\8bit\AppData\Local\Temp\ccdInZoL.s 			page 29


 888 0370 0421     		movs	r1, #4
 889              	.LVL56:
 415:Task/Task_BlackBox.c ****             
 890              		.loc 1 415 13 is_stmt 0 view .LVU304
 891 0372 0DEB0100 		add	r0, sp, r1
 892 0376 FFF7FEFF 		bl	TaskBlackBox_UpdateQueue
 893              	.LVL57:
 417:Task/Task_BlackBox.c ****             Monitor.imu_log.byte_size += sizeof(BlackBox_IMUData_TypeDef);
 894              		.loc 1 417 13 is_stmt 1 view .LVU305
 895 037a 404F     		ldr	r7, .L49+4
 896 037c 3146     		mov	r1, r6
 897 037e 3846     		mov	r0, r7
 898 0380 FFF7FEFF 		bl	TaskBlackBox_UpdateQueue
 899              	.LVL58:
 418:Task/Task_BlackBox.c **** 
 900              		.loc 1 418 13 view .LVU306
 418:Task/Task_BlackBox.c **** 
 901              		.loc 1 418 39 is_stmt 0 view .LVU307
 902 0384 656E     		ldr	r5, [r4, #100]
 903 0386 AB19     		adds	r3, r5, r6
 904 0388 6366     		str	r3, [r4, #100]
 420:Task/Task_BlackBox.c ****             blackbox_ender.check_sum = check_sum;
 905              		.loc 1 420 13 is_stmt 1 view .LVU308
 420:Task/Task_BlackBox.c ****             blackbox_ender.check_sum = check_sum;
 906              		.loc 1 420 25 is_stmt 0 view .LVU309
 907 038a 3146     		mov	r1, r6
 908 038c 3846     		mov	r0, r7
 909 038e FFF7FEFF 		bl	TaskBlackBox_Get_CheckSum
 910              	.LVL59:
 421:Task/Task_BlackBox.c ****             Monitor.imu_log.byte_size += BLACKBOX_ENDER_SIZE;
 911              		.loc 1 421 13 is_stmt 1 view .LVU310
 421:Task/Task_BlackBox.c ****             Monitor.imu_log.byte_size += BLACKBOX_ENDER_SIZE;
 912              		.loc 1 421 38 is_stmt 0 view .LVU311
 913 0392 8DF80000 		strb	r0, [sp]
 422:Task/Task_BlackBox.c ****             TaskBlackBox_UpdateQueue((uint8_t *)&blackbox_ender, BLACKBOX_ENDER_SIZE);
 914              		.loc 1 422 13 is_stmt 1 view .LVU312
 422:Task/Task_BlackBox.c ****             TaskBlackBox_UpdateQueue((uint8_t *)&blackbox_ender, BLACKBOX_ENDER_SIZE);
 915              		.loc 1 422 39 is_stmt 0 view .LVU313
 916 0396 2935     		adds	r5, r5, #41
 917 0398 6566     		str	r5, [r4, #100]
 423:Task/Task_BlackBox.c ****             imu_update = false;
 918              		.loc 1 423 13 is_stmt 1 view .LVU314
 919 039a 0321     		movs	r1, #3
 920 039c 6846     		mov	r0, sp
 921              	.LVL60:
 423:Task/Task_BlackBox.c ****             imu_update = false;
 922              		.loc 1 423 13 is_stmt 0 view .LVU315
 923 039e FFF7FEFF 		bl	TaskBlackBox_UpdateQueue
 924              	.LVL61:
 424:Task/Task_BlackBox.c ****         }
 925              		.loc 1 424 13 is_stmt 1 view .LVU316
 424:Task/Task_BlackBox.c ****         }
 926              		.loc 1 424 24 is_stmt 0 view .LVU317
 927 03a2 52E6     		b	.L31
 928              	.LVL62:
 929              	.L43:
 426:Task/Task_BlackBox.c ****         {
ARM GAS  C:\Users\8bit\AppData\Local\Temp\ccdInZoL.s 			page 30


 930              		.loc 1 426 76 discriminator 1 view .LVU318
 931 03a4 3648     		ldr	r0, .L49+8
 932 03a6 0478     		ldrb	r4, [r0]	@ zero_extendqisi2
 933 03a8 3648     		ldr	r0, .L49+12
 934 03aa 0078     		ldrb	r0, [r0]	@ zero_extendqisi2
 426:Task/Task_BlackBox.c ****         {
 935              		.loc 1 426 61 discriminator 1 view .LVU319
 936 03ac 0442     		tst	r4, r0
 937 03ae 3FF4CCAE 		beq	.L32
 938 03b2 0029     		cmp	r1, #0
 939 03b4 3FF4C9AE 		beq	.L32
 428:Task/Task_BlackBox.c ****             Monitor.alt_att_log.byte_size += BLACKBOX_HEADER_SIZE;
 940              		.loc 1 428 13 is_stmt 1 view .LVU320
 428:Task/Task_BlackBox.c ****             Monitor.alt_att_log.byte_size += BLACKBOX_HEADER_SIZE;
 941              		.loc 1 428 32 is_stmt 0 view .LVU321
 942 03b8 2F4C     		ldr	r4, .L49
 943 03ba A36E     		ldr	r3, [r4, #104]
 428:Task/Task_BlackBox.c ****             Monitor.alt_att_log.byte_size += BLACKBOX_HEADER_SIZE;
 944              		.loc 1 428 37 view .LVU322
 945 03bc 0133     		adds	r3, r3, #1
 946 03be A366     		str	r3, [r4, #104]
 429:Task/Task_BlackBox.c ****             blackbox_header.type = BlackBox_Log_Alt_Att;
 947              		.loc 1 429 13 is_stmt 1 view .LVU323
 429:Task/Task_BlackBox.c ****             blackbox_header.type = BlackBox_Log_Alt_Att;
 948              		.loc 1 429 43 is_stmt 0 view .LVU324
 949 03c0 E36E     		ldr	r3, [r4, #108]
 950 03c2 0433     		adds	r3, r3, #4
 951 03c4 E366     		str	r3, [r4, #108]
 430:Task/Task_BlackBox.c ****             blackbox_header.size = sizeof(BlackBox_AttAltData_TypeDef);
 952              		.loc 1 430 13 is_stmt 1 view .LVU325
 430:Task/Task_BlackBox.c ****             blackbox_header.size = sizeof(BlackBox_AttAltData_TypeDef);
 953              		.loc 1 430 34 is_stmt 0 view .LVU326
 954 03c6 0223     		movs	r3, #2
 955 03c8 8DF80630 		strb	r3, [sp, #6]
 431:Task/Task_BlackBox.c ****             TaskBlackBox_UpdateQueue((uint8_t *)&blackbox_header, BLACKBOX_HEADER_SIZE);
 956              		.loc 1 431 13 is_stmt 1 view .LVU327
 431:Task/Task_BlackBox.c ****             TaskBlackBox_UpdateQueue((uint8_t *)&blackbox_header, BLACKBOX_HEADER_SIZE);
 957              		.loc 1 431 34 is_stmt 0 view .LVU328
 958 03cc 2C25     		movs	r5, #44
 959 03ce 8DF80750 		strb	r5, [sp, #7]
 432:Task/Task_BlackBox.c ****             
 960              		.loc 1 432 13 is_stmt 1 view .LVU329
 961 03d2 0421     		movs	r1, #4
 962              	.LVL63:
 432:Task/Task_BlackBox.c ****             
 963              		.loc 1 432 13 is_stmt 0 view .LVU330
 964 03d4 0DEB0100 		add	r0, sp, r1
 965 03d8 FFF7FEFF 		bl	TaskBlackBox_UpdateQueue
 966              	.LVL64:
 434:Task/Task_BlackBox.c ****             Monitor.alt_att_log.byte_size += sizeof(BlackBox_AttAltData_TypeDef);
 967              		.loc 1 434 13 is_stmt 1 view .LVU331
 968 03dc 2A4E     		ldr	r6, .L49+16
 969 03de 2946     		mov	r1, r5
 970 03e0 3046     		mov	r0, r6
 971 03e2 FFF7FEFF 		bl	TaskBlackBox_UpdateQueue
 972              	.LVL65:
 435:Task/Task_BlackBox.c **** 
ARM GAS  C:\Users\8bit\AppData\Local\Temp\ccdInZoL.s 			page 31


 973              		.loc 1 435 13 view .LVU332
 435:Task/Task_BlackBox.c **** 
 974              		.loc 1 435 43 is_stmt 0 view .LVU333
 975 03e6 E36E     		ldr	r3, [r4, #108]
 976 03e8 2B44     		add	r3, r3, r5
 977 03ea E366     		str	r3, [r4, #108]
 437:Task/Task_BlackBox.c ****             blackbox_ender.check_sum = check_sum;
 978              		.loc 1 437 13 is_stmt 1 view .LVU334
 437:Task/Task_BlackBox.c ****             blackbox_ender.check_sum = check_sum;
 979              		.loc 1 437 25 is_stmt 0 view .LVU335
 980 03ec 2946     		mov	r1, r5
 981 03ee 3046     		mov	r0, r6
 982 03f0 FFF7FEFF 		bl	TaskBlackBox_Get_CheckSum
 983              	.LVL66:
 438:Task/Task_BlackBox.c ****             Monitor.imu_log.byte_size += BLACKBOX_ENDER_SIZE;
 984              		.loc 1 438 13 is_stmt 1 view .LVU336
 438:Task/Task_BlackBox.c ****             Monitor.imu_log.byte_size += BLACKBOX_ENDER_SIZE;
 985              		.loc 1 438 38 is_stmt 0 view .LVU337
 986 03f4 8DF80000 		strb	r0, [sp]
 439:Task/Task_BlackBox.c ****             TaskBlackBox_UpdateQueue((uint8_t *)&blackbox_ender, BLACKBOX_ENDER_SIZE);
 987              		.loc 1 439 13 is_stmt 1 view .LVU338
 439:Task/Task_BlackBox.c ****             TaskBlackBox_UpdateQueue((uint8_t *)&blackbox_ender, BLACKBOX_ENDER_SIZE);
 988              		.loc 1 439 39 is_stmt 0 view .LVU339
 989 03f8 636E     		ldr	r3, [r4, #100]
 990 03fa 0333     		adds	r3, r3, #3
 991 03fc 6366     		str	r3, [r4, #100]
 440:Task/Task_BlackBox.c ****             alt_update = false;
 992              		.loc 1 440 13 is_stmt 1 view .LVU340
 993 03fe 0321     		movs	r1, #3
 994 0400 6846     		mov	r0, sp
 995              	.LVL67:
 440:Task/Task_BlackBox.c ****             alt_update = false;
 996              		.loc 1 440 13 is_stmt 0 view .LVU341
 997 0402 FFF7FEFF 		bl	TaskBlackBox_UpdateQueue
 998              	.LVL68:
 441:Task/Task_BlackBox.c ****             att_update = false;
 999              		.loc 1 441 13 is_stmt 1 view .LVU342
 441:Task/Task_BlackBox.c ****             att_update = false;
 1000              		.loc 1 441 24 is_stmt 0 view .LVU343
 1001 0406 0023     		movs	r3, #0
 1002 0408 1D4A     		ldr	r2, .L49+8
 1003 040a 1370     		strb	r3, [r2]
 442:Task/Task_BlackBox.c ****             imu_update = false;
 1004              		.loc 1 442 13 is_stmt 1 view .LVU344
 442:Task/Task_BlackBox.c ****             imu_update = false;
 1005              		.loc 1 442 24 is_stmt 0 view .LVU345
 1006 040c 1D4A     		ldr	r2, .L49+12
 1007 040e 1370     		strb	r3, [r2]
 443:Task/Task_BlackBox.c ****         }
 1008              		.loc 1 443 13 is_stmt 1 view .LVU346
 1009              	.LVL69:
 443:Task/Task_BlackBox.c ****         }
 1010              		.loc 1 443 24 is_stmt 0 view .LVU347
 1011 0410 1BE6     		b	.L31
 1012              	.LVL70:
 1013              	.L44:
 445:Task/Task_BlackBox.c ****         {
ARM GAS  C:\Users\8bit\AppData\Local\Temp\ccdInZoL.s 			page 32


 1014              		.loc 1 445 65 discriminator 1 view .LVU348
 1015 0412 0029     		cmp	r1, #0
 1016 0414 3FF49CAE 		beq	.L33
 1017 0418 002A     		cmp	r2, #0
 1018 041a 3FF499AE 		beq	.L33
 447:Task/Task_BlackBox.c ****             Monitor.ctl_ang_log.byte_size += BLACKBOX_HEADER_SIZE;
 1019              		.loc 1 447 13 is_stmt 1 view .LVU349
 447:Task/Task_BlackBox.c ****             Monitor.ctl_ang_log.byte_size += BLACKBOX_HEADER_SIZE;
 1020              		.loc 1 447 32 is_stmt 0 view .LVU350
 1021 041e 164C     		ldr	r4, .L49
 1022 0420 236F     		ldr	r3, [r4, #112]
 447:Task/Task_BlackBox.c ****             Monitor.ctl_ang_log.byte_size += BLACKBOX_HEADER_SIZE;
 1023              		.loc 1 447 37 view .LVU351
 1024 0422 0133     		adds	r3, r3, #1
 1025 0424 2367     		str	r3, [r4, #112]
 448:Task/Task_BlackBox.c ****             blackbox_header.type = BlackBox_AngularPID_Tune;
 1026              		.loc 1 448 13 is_stmt 1 view .LVU352
 448:Task/Task_BlackBox.c ****             blackbox_header.type = BlackBox_AngularPID_Tune;
 1027              		.loc 1 448 43 is_stmt 0 view .LVU353
 1028 0426 636F     		ldr	r3, [r4, #116]
 1029 0428 0433     		adds	r3, r3, #4
 1030 042a 6367     		str	r3, [r4, #116]
 449:Task/Task_BlackBox.c ****             blackbox_header.size = sizeof(BlackBox_AngCtlData_TypeDef);
 1031              		.loc 1 449 13 is_stmt 1 view .LVU354
 449:Task/Task_BlackBox.c ****             blackbox_header.size = sizeof(BlackBox_AngCtlData_TypeDef);
 1032              		.loc 1 449 34 is_stmt 0 view .LVU355
 1033 042c 0327     		movs	r7, #3
 1034 042e 8DF80670 		strb	r7, [sp, #6]
 450:Task/Task_BlackBox.c ****             TaskBlackBox_UpdateQueue((uint8_t *)&blackbox_header, BLACKBOX_HEADER_SIZE);
 1035              		.loc 1 450 13 is_stmt 1 view .LVU356
 450:Task/Task_BlackBox.c ****             TaskBlackBox_UpdateQueue((uint8_t *)&blackbox_header, BLACKBOX_HEADER_SIZE);
 1036              		.loc 1 450 34 is_stmt 0 view .LVU357
 1037 0432 1D26     		movs	r6, #29
 1038 0434 8DF80760 		strb	r6, [sp, #7]
 451:Task/Task_BlackBox.c **** 
 1039              		.loc 1 451 13 is_stmt 1 view .LVU358
 1040 0438 0421     		movs	r1, #4
 1041              	.LVL71:
 451:Task/Task_BlackBox.c **** 
 1042              		.loc 1 451 13 is_stmt 0 view .LVU359
 1043 043a 0DEB0100 		add	r0, sp, r1
 1044 043e FFF7FEFF 		bl	TaskBlackBox_UpdateQueue
 1045              	.LVL72:
 453:Task/Task_BlackBox.c ****             Monitor.ctl_ang_log.byte_size += sizeof(BlackBox_AngCtlData_TypeDef);
 1046              		.loc 1 453 13 is_stmt 1 view .LVU360
 1047 0442 DFF84C80 		ldr	r8, .L49+24
 1048 0446 3146     		mov	r1, r6
 1049 0448 4046     		mov	r0, r8
 1050 044a FFF7FEFF 		bl	TaskBlackBox_UpdateQueue
 1051              	.LVL73:
 454:Task/Task_BlackBox.c ****         
 1052              		.loc 1 454 13 view .LVU361
 454:Task/Task_BlackBox.c ****         
 1053              		.loc 1 454 43 is_stmt 0 view .LVU362
 1054 044e 656F     		ldr	r5, [r4, #116]
 1055 0450 AB19     		adds	r3, r5, r6
 1056 0452 6367     		str	r3, [r4, #116]
ARM GAS  C:\Users\8bit\AppData\Local\Temp\ccdInZoL.s 			page 33


 456:Task/Task_BlackBox.c ****             blackbox_ender.check_sum = check_sum;
 1057              		.loc 1 456 13 is_stmt 1 view .LVU363
 456:Task/Task_BlackBox.c ****             blackbox_ender.check_sum = check_sum;
 1058              		.loc 1 456 25 is_stmt 0 view .LVU364
 1059 0454 3146     		mov	r1, r6
 1060 0456 4046     		mov	r0, r8
 1061 0458 FFF7FEFF 		bl	TaskBlackBox_Get_CheckSum
 1062              	.LVL74:
 457:Task/Task_BlackBox.c ****             Monitor.ctl_ang_log.byte_size += BLACKBOX_ENDER_SIZE;
 1063              		.loc 1 457 13 is_stmt 1 view .LVU365
 457:Task/Task_BlackBox.c ****             Monitor.ctl_ang_log.byte_size += BLACKBOX_ENDER_SIZE;
 1064              		.loc 1 457 38 is_stmt 0 view .LVU366
 1065 045c 8DF80000 		strb	r0, [sp]
 458:Task/Task_BlackBox.c ****             TaskBlackBox_UpdateQueue((uint8_t *)&blackbox_ender, BLACKBOX_ENDER_SIZE);
 1066              		.loc 1 458 13 is_stmt 1 view .LVU367
 458:Task/Task_BlackBox.c ****             TaskBlackBox_UpdateQueue((uint8_t *)&blackbox_ender, BLACKBOX_ENDER_SIZE);
 1067              		.loc 1 458 43 is_stmt 0 view .LVU368
 1068 0460 2035     		adds	r5, r5, #32
 1069 0462 6567     		str	r5, [r4, #116]
 459:Task/Task_BlackBox.c ****             imu_update = false;
 1070              		.loc 1 459 13 is_stmt 1 view .LVU369
 1071 0464 3946     		mov	r1, r7
 1072 0466 6846     		mov	r0, sp
 1073              	.LVL75:
 459:Task/Task_BlackBox.c ****             imu_update = false;
 1074              		.loc 1 459 13 is_stmt 0 view .LVU370
 1075 0468 FFF7FEFF 		bl	TaskBlackBox_UpdateQueue
 1076              	.LVL76:
 460:Task/Task_BlackBox.c ****             ctl_update = false;
 1077              		.loc 1 460 13 is_stmt 1 view .LVU371
 461:Task/Task_BlackBox.c ****         }
 1078              		.loc 1 461 13 view .LVU372
 461:Task/Task_BlackBox.c ****         }
 1079              		.loc 1 461 24 is_stmt 0 view .LVU373
 1080 046c EDE5     		b	.L31
 1081              	.LVL77:
 1082              	.L38:
 488:Task/Task_BlackBox.c ****     }
 1083              		.loc 1 488 13 is_stmt 1 view .LVU374
 1084 046e 074B     		ldr	r3, .L49+20
 1085 0470 1868     		ldr	r0, [r3]
 1086 0472 FFF7FEFF 		bl	osSemaphoreRelease
 1087              	.LVL78:
 488:Task/Task_BlackBox.c ****     }
 1088              		.loc 1 488 13 is_stmt 0 view .LVU375
 1089 0476 E8E5     		b	.L31
 1090              	.L50:
 1091              		.align	2
 1092              	.L49:
 1093 0478 00000000 		.word	.LANCHOR1
 1094 047c 00000000 		.word	.LANCHOR5
 1095 0480 00000000 		.word	.LANCHOR9
 1096 0484 00000000 		.word	.LANCHOR8
 1097 0488 00000000 		.word	.LANCHOR7
 1098 048c 00000000 		.word	.LANCHOR2
 1099 0490 00000000 		.word	.LANCHOR11
 1100              		.cfi_endproc
ARM GAS  C:\Users\8bit\AppData\Local\Temp\ccdInZoL.s 			page 34


 1101              	.LFE2076:
 1103              		.section	.rodata.TaskBlackBox_Set_Log.str1.4,"aMS",%progbits,1
 1104              		.align	2
 1105              	.LC0:
 1106 0000 5B20426C 		.ascii	"[ BlackBox ] ----- Medium List\015\012\000"
 1106      61636B42 
 1106      6F78205D 
 1106      202D2D2D 
 1106      2D2D204D 
 1107 0021 000000   		.align	2
 1108              	.LC1:
 1109 0024 094E6F6E 		.ascii	"\011None ------------- 0\015\012\000"
 1109      65202D2D 
 1109      2D2D2D2D 
 1109      2D2D2D2D 
 1109      2D2D2D20 
 1110              		.align	2
 1111              	.LC2:
 1112 003c 09436172 		.ascii	"\011Card ------------- 1\015\012\000"
 1112      64202D2D 
 1112      2D2D2D2D 
 1112      2D2D2D2D 
 1112      2D2D2D20 
 1113              		.align	2
 1114              	.LC3:
 1115 0054 09436869 		.ascii	"\011Chip ------------- 2\015\012\000"
 1115      70202D2D 
 1115      2D2D2D2D 
 1115      2D2D2D2D 
 1115      2D2D2D20 
 1116              		.align	2
 1117              	.LC4:
 1118 006c 09436F6D 		.ascii	"\011Com -------------- 3\015\012\000"
 1118      202D2D2D 
 1118      2D2D2D2D 
 1118      2D2D2D2D 
 1118      2D2D2D20 
 1119              		.align	2
 1120              	.LC5:
 1121 0084 0D0A00   		.ascii	"\015\012\000"
 1122 0087 00       		.align	2
 1123              	.LC6:
 1124 0088 5B20426C 		.ascii	"[ BlackBox ] ----- Log Type List\015\012\000"
 1124      61636B42 
 1124      6F78205D 
 1124      202D2D2D 
 1124      2D2D204C 
 1125 00ab 00       		.align	2
 1126              	.LC7:
 1127 00ac 094C6F67 		.ascii	"\011Log None --------- 0\015\012\000"
 1127      204E6F6E 
 1127      65202D2D 
 1127      2D2D2D2D 
 1127      2D2D2D20 
 1128              		.align	2
 1129              	.LC8:
 1130 00c4 094C6F67 		.ascii	"\011Log Imu Only ----- 1\015\012\000"
ARM GAS  C:\Users\8bit\AppData\Local\Temp\ccdInZoL.s 			page 35


 1130      20496D75 
 1130      204F6E6C 
 1130      79202D2D 
 1130      2D2D2D20 
 1131              		.align	2
 1132              	.LC9:
 1133 00dc 094C6F67 		.ascii	"\011Log Att & Alt ---- 2\015\012\000"
 1133      20417474 
 1133      20262041 
 1133      6C74202D 
 1133      2D2D2D20 
 1134              		.align	2
 1135              	.LC10:
 1136 00f4 094C6F67 		.ascii	"\011Log PID Angular -- 3\015\012\000"
 1136      20504944 
 1136      20416E67 
 1136      756C6172 
 1136      202D2D20 
 1137              		.align	2
 1138              	.LC11:
 1139 010c 094C6F67 		.ascii	"\011Log PID Attitude - 4\015\012\000"
 1139      20504944 
 1139      20417474 
 1139      69747564 
 1139      65202D20 
 1140              		.align	2
 1141              	.LC12:
 1142 0124 09424144 		.ascii	"\011BAD MEDIUM TYPE INPUT\015\012\000"
 1142      204D4544 
 1142      49554D20 
 1142      54595045 
 1142      20494E50 
 1143 013d 000000   		.align	2
 1144              	.LC13:
 1145 0140 09424144 		.ascii	"\011BAD LOG DATA TYPE INPUT\015\012\000"
 1145      204C4F47 
 1145      20444154 
 1145      41205459 
 1145      50452049 
 1146 015b 00       		.align	2
 1147              	.LC14:
 1148 015c 094F6E6C 		.ascii	"\011Only support storage chip modlue currently\015\012"
 1148      79207375 
 1148      70706F72 
 1148      74207374 
 1148      6F726167 
 1149 0189 00       		.ascii	"\000"
 1150 018a 0000     		.align	2
 1151              	.LC15:
 1152 018c 094E6F74 		.ascii	"\011Not support currently\015\012\000"
 1152      20737570 
 1152      706F7274 
 1152      20637572 
 1152      72656E74 
 1153 01a5 000000   		.align	2
 1154              	.LC16:
 1155 01a8 426C6163 		.ascii	"BlackBox\000"
ARM GAS  C:\Users\8bit\AppData\Local\Temp\ccdInZoL.s 			page 36


 1155      6B426F78 
 1155      00
 1156 01b1 000000   		.align	2
 1157              	.LC17:
 1158 01b4 094C6F67 		.ascii	"\011Log info storage failed\015\012\000"
 1158      20696E66 
 1158      6F207374 
 1158      6F726167 
 1158      65206661 
 1159 01cf 00       		.align	2
 1160              	.LC18:
 1161 01d0 094C6F67 		.ascii	"\011Log info storage saved\015\012\000"
 1161      20696E66 
 1161      6F207374 
 1161      6F726167 
 1161      65207361 
 1162 01ea 0000     		.align	2
 1163              	.LC19:
 1164 01ec 09726562 		.ascii	"\011reboot is required\015\012\000"
 1164      6F6F7420 
 1164      69732072 
 1164      65717569 
 1164      7265640D 
 1165              		.section	.text.TaskBlackBox_Set_Log,"ax",%progbits
 1166              		.align	1
 1167              		.syntax unified
 1168              		.thumb
 1169              		.thumb_func
 1171              	TaskBlackBox_Set_Log:
 1172              	.LVL79:
 1173              	.LFB2079:
 493:Task/Task_BlackBox.c **** 
 494:Task/Task_BlackBox.c **** void TaskBlackBox_LogControl(void)
 495:Task/Task_BlackBox.c **** {
 496:Task/Task_BlackBox.c ****     if (Monitor.state != BlackBox_Log_Enable)
 497:Task/Task_BlackBox.c ****     {
 498:Task/Task_BlackBox.c ****         Monitor.log_cnt = 0;
 499:Task/Task_BlackBox.c ****         Monitor.log_byte_size = 0;
 500:Task/Task_BlackBox.c ****         Queue.reset(&BlackBox_Queue);
 501:Task/Task_BlackBox.c **** 
 502:Task/Task_BlackBox.c ****         if (p_blackbox->enable && p_blackbox->enable())
 503:Task/Task_BlackBox.c ****             Monitor.state = BlackBox_Log_Enable;
 504:Task/Task_BlackBox.c ****     }
 505:Task/Task_BlackBox.c ****     else
 506:Task/Task_BlackBox.c ****         Monitor.state = BlackBox_Log_Disable;
 507:Task/Task_BlackBox.c **** }
 508:Task/Task_BlackBox.c **** 
 509:Task/Task_BlackBox.c **** bool TaskBlackBox_Set_LogInfo(BlackBox_MediumType_List medium, BlackBox_LogType_List type, uint32_t
 510:Task/Task_BlackBox.c **** {
 511:Task/Task_BlackBox.c ****     BlackBox_LogInfo_TypeDef info;
 512:Task/Task_BlackBox.c ****     Storage_ItemSearchOut_TypeDef search_out;
 513:Task/Task_BlackBox.c **** 
 514:Task/Task_BlackBox.c ****     memset(&search_out, 0, sizeof(Storage_ItemSearchOut_TypeDef));
 515:Task/Task_BlackBox.c ****     memset(&info, 0, sizeof(BlackBox_LogInfo_TypeDef));
 516:Task/Task_BlackBox.c **** 
 517:Task/Task_BlackBox.c ****     switch ((uint8_t) medium)
 518:Task/Task_BlackBox.c ****     {
ARM GAS  C:\Users\8bit\AppData\Local\Temp\ccdInZoL.s 			page 37


 519:Task/Task_BlackBox.c ****         case BlackBox_Medium_Card:
 520:Task/Task_BlackBox.c ****         case BlackBox_Medium_Chip:
 521:Task/Task_BlackBox.c ****         case BlackBox_Medium_Com:
 522:Task/Task_BlackBox.c ****             break;
 523:Task/Task_BlackBox.c ****         default: return false;
 524:Task/Task_BlackBox.c ****     }
 525:Task/Task_BlackBox.c **** 
 526:Task/Task_BlackBox.c ****     switch ((uint8_t) type)
 527:Task/Task_BlackBox.c ****     {
 528:Task/Task_BlackBox.c ****         case BlackBox_Log_None:
 529:Task/Task_BlackBox.c ****         case BlackBox_Imu_Filted:
 530:Task/Task_BlackBox.c ****         case BlackBox_Log_Alt_Att:
 531:Task/Task_BlackBox.c ****         case BlackBox_AngularPID_Tune:
 532:Task/Task_BlackBox.c ****         case BlackBox_AttitudePID_Tune:
 533:Task/Task_BlackBox.c ****             break;
 534:Task/Task_BlackBox.c ****         default: return false;
 535:Task/Task_BlackBox.c ****     }
 536:Task/Task_BlackBox.c **** 
 537:Task/Task_BlackBox.c ****     info.medium = medium;
 538:Task/Task_BlackBox.c ****     info.log_type = type;
 539:Task/Task_BlackBox.c ****     info.log_size = size;
 540:Task/Task_BlackBox.c **** 
 541:Task/Task_BlackBox.c ****     search_out = Storage.search(Para_User, BlackBox_Storage_Name);
 542:Task/Task_BlackBox.c ****     if (search_out.item_addr == 0)
 543:Task/Task_BlackBox.c ****     {
 544:Task/Task_BlackBox.c ****         /* create storage section */
 545:Task/Task_BlackBox.c ****         if (Storage.create(Para_User, BlackBox_Storage_Name, (uint8_t *)&info, sizeof(BlackBox_LogI
 546:Task/Task_BlackBox.c ****             return false;
 547:Task/Task_BlackBox.c ****     }
 548:Task/Task_BlackBox.c **** 
 549:Task/Task_BlackBox.c ****     if (Storage.update(Para_User, search_out.item.data_addr, (uint8_t *)&info, sizeof(BlackBox_LogI
 550:Task/Task_BlackBox.c ****         return false;
 551:Task/Task_BlackBox.c **** 
 552:Task/Task_BlackBox.c ****     return true;
 553:Task/Task_BlackBox.c **** }
 554:Task/Task_BlackBox.c **** 
 555:Task/Task_BlackBox.c **** /****************************************************************** shell api implement ***********
 556:Task/Task_BlackBox.c **** static void TaskBlackBox_Set_Log(uint8_t medium, uint8_t type, uint32_t size)
 557:Task/Task_BlackBox.c **** {
 1174              		.loc 1 557 1 is_stmt 1 view -0
 1175              		.cfi_startproc
 1176              		@ args = 0, pretend = 0, frame = 80
 1177              		@ frame_needed = 0, uses_anonymous_args = 0
 1178              		.loc 1 557 1 is_stmt 0 view .LVU377
 1179 0000 2DE9F041 		push	{r4, r5, r6, r7, r8, lr}
 1180              	.LCFI8:
 1181              		.cfi_def_cfa_offset 24
 1182              		.cfi_offset 4, -24
 1183              		.cfi_offset 5, -20
 1184              		.cfi_offset 6, -16
 1185              		.cfi_offset 7, -12
 1186              		.cfi_offset 8, -8
 1187              		.cfi_offset 14, -4
 1188 0004 94B0     		sub	sp, sp, #80
 1189              	.LCFI9:
 1190              		.cfi_def_cfa_offset 104
 1191 0006 0546     		mov	r5, r0
ARM GAS  C:\Users\8bit\AppData\Local\Temp\ccdInZoL.s 			page 38


 1192 0008 0E46     		mov	r6, r1
 1193 000a 1746     		mov	r7, r2
 558:Task/Task_BlackBox.c ****     Shell *shell_obj = Shell_GetInstence();
 1194              		.loc 1 558 5 is_stmt 1 view .LVU378
 1195              		.loc 1 558 24 is_stmt 0 view .LVU379
 1196 000c FFF7FEFF 		bl	Shell_GetInstence
 1197              	.LVL80:
 559:Task/Task_BlackBox.c ****     Storage_ItemSearchOut_TypeDef search_out;
 1198              		.loc 1 559 5 is_stmt 1 view .LVU380
 560:Task/Task_BlackBox.c ****     BlackBox_LogInfo_TypeDef info;
 1199              		.loc 1 560 5 view .LVU381
 561:Task/Task_BlackBox.c **** 
 562:Task/Task_BlackBox.c ****     if (shell_obj == NULL)
 1200              		.loc 1 562 5 view .LVU382
 1201              		.loc 1 562 8 is_stmt 0 view .LVU383
 1202 0010 10B9     		cbnz	r0, .L65
 1203              	.LVL81:
 1204              	.L51:
 563:Task/Task_BlackBox.c ****         return;
 564:Task/Task_BlackBox.c ****     
 565:Task/Task_BlackBox.c ****     shellPrint(shell_obj, "[ BlackBox ] ----- Medium List\r\n");
 566:Task/Task_BlackBox.c ****     shellPrint(shell_obj, "\tNone ------------- 0\r\n");
 567:Task/Task_BlackBox.c ****     shellPrint(shell_obj, "\tCard ------------- 1\r\n");
 568:Task/Task_BlackBox.c ****     shellPrint(shell_obj, "\tChip ------------- 2\r\n");
 569:Task/Task_BlackBox.c ****     shellPrint(shell_obj, "\tCom -------------- 3\r\n");
 570:Task/Task_BlackBox.c ****     shellPrint(shell_obj, "\r\n");
 571:Task/Task_BlackBox.c ****     shellPrint(shell_obj, "[ BlackBox ] ----- Log Type List\r\n");
 572:Task/Task_BlackBox.c ****     shellPrint(shell_obj, "\tLog None --------- 0\r\n");
 573:Task/Task_BlackBox.c ****     shellPrint(shell_obj, "\tLog Imu Only ----- 1\r\n");
 574:Task/Task_BlackBox.c ****     shellPrint(shell_obj, "\tLog Att & Alt ---- 2\r\n");
 575:Task/Task_BlackBox.c ****     shellPrint(shell_obj, "\tLog PID Angular -- 3\r\n");
 576:Task/Task_BlackBox.c ****     shellPrint(shell_obj, "\tLog PID Attitude - 4\r\n");
 577:Task/Task_BlackBox.c ****     shellPrint(shell_obj, "\r\n");
 578:Task/Task_BlackBox.c **** 
 579:Task/Task_BlackBox.c ****     if ((medium > (uint8_t)BlackBox_Medium_Com) || (type > (uint8_t)BlackBox_AttitudePID_Tune))
 580:Task/Task_BlackBox.c ****     {
 581:Task/Task_BlackBox.c ****         if (medium > (uint8_t)BlackBox_Medium_Com)
 582:Task/Task_BlackBox.c ****             shellPrint(shell_obj, "\tBAD MEDIUM TYPE INPUT\r\n");
 583:Task/Task_BlackBox.c **** 
 584:Task/Task_BlackBox.c ****         if (type > (uint8_t)BlackBox_AttitudePID_Tune)
 585:Task/Task_BlackBox.c ****             shellPrint(shell_obj, "\tBAD LOG DATA TYPE INPUT\r\n");
 586:Task/Task_BlackBox.c **** 
 587:Task/Task_BlackBox.c ****         return;
 588:Task/Task_BlackBox.c ****     }
 589:Task/Task_BlackBox.c **** 
 590:Task/Task_BlackBox.c ****     /* for currently */
 591:Task/Task_BlackBox.c ****     if ((medium != (uint8_t)BlackBox_Medium_Chip) || \
 592:Task/Task_BlackBox.c ****         (type == (uint8_t)BlackBox_AttitudePID_Tune))
 593:Task/Task_BlackBox.c ****     {
 594:Task/Task_BlackBox.c ****         if (medium != (uint8_t)BlackBox_Medium_Chip)
 595:Task/Task_BlackBox.c ****             shellPrint(shell_obj, "\tOnly support storage chip modlue currently\r\n");
 596:Task/Task_BlackBox.c ****         
 597:Task/Task_BlackBox.c ****         if (type == (uint8_t)BlackBox_AttitudePID_Tune)
 598:Task/Task_BlackBox.c ****             shellPrint(shell_obj, "\tNot support currently\r\n");
 599:Task/Task_BlackBox.c **** 
 600:Task/Task_BlackBox.c ****         return;
 601:Task/Task_BlackBox.c ****     }
ARM GAS  C:\Users\8bit\AppData\Local\Temp\ccdInZoL.s 			page 39


 602:Task/Task_BlackBox.c **** 
 603:Task/Task_BlackBox.c ****     info.medium = medium;
 604:Task/Task_BlackBox.c ****     info.log_type = type;
 605:Task/Task_BlackBox.c ****     info.log_size = size;
 606:Task/Task_BlackBox.c **** 
 607:Task/Task_BlackBox.c ****     search_out = Storage.search(Para_User, BlackBox_Storage_Name);
 608:Task/Task_BlackBox.c ****     if ((search_out.item_addr == 0) || \
 609:Task/Task_BlackBox.c ****         (Storage.update(Para_User, search_out.item.data_addr, (uint32_t)&info, sizeof(BlackBox_LogI
 610:Task/Task_BlackBox.c ****     {
 611:Task/Task_BlackBox.c ****         shellPrint(shell_obj, "\tLog info storage failed\r\n");
 612:Task/Task_BlackBox.c ****         return;
 613:Task/Task_BlackBox.c ****     }
 614:Task/Task_BlackBox.c **** 
 615:Task/Task_BlackBox.c ****     shellPrint(shell_obj, "\tLog info storage saved\r\n");
 616:Task/Task_BlackBox.c ****     shellPrint(shell_obj, "\treboot is required\r\n");
 617:Task/Task_BlackBox.c **** }
 1205              		.loc 1 617 1 view .LVU384
 1206 0012 14B0     		add	sp, sp, #80
 1207              	.LCFI10:
 1208              		.cfi_remember_state
 1209              		.cfi_def_cfa_offset 24
 1210              		@ sp needed
 1211 0014 BDE8F081 		pop	{r4, r5, r6, r7, r8, pc}
 1212              	.LVL82:
 1213              	.L65:
 1214              	.LCFI11:
 1215              		.cfi_restore_state
 1216              		.loc 1 617 1 view .LVU385
 1217 0018 0446     		mov	r4, r0
 565:Task/Task_BlackBox.c ****     shellPrint(shell_obj, "\tNone ------------- 0\r\n");
 1218              		.loc 1 565 5 is_stmt 1 view .LVU386
 1219 001a 3E49     		ldr	r1, .L68
 1220 001c FFF7FEFF 		bl	shellPrint
 1221              	.LVL83:
 566:Task/Task_BlackBox.c ****     shellPrint(shell_obj, "\tCard ------------- 1\r\n");
 1222              		.loc 1 566 5 view .LVU387
 1223 0020 3D49     		ldr	r1, .L68+4
 1224 0022 2046     		mov	r0, r4
 1225 0024 FFF7FEFF 		bl	shellPrint
 1226              	.LVL84:
 567:Task/Task_BlackBox.c ****     shellPrint(shell_obj, "\tChip ------------- 2\r\n");
 1227              		.loc 1 567 5 view .LVU388
 1228 0028 3C49     		ldr	r1, .L68+8
 1229 002a 2046     		mov	r0, r4
 1230 002c FFF7FEFF 		bl	shellPrint
 1231              	.LVL85:
 568:Task/Task_BlackBox.c ****     shellPrint(shell_obj, "\tCom -------------- 3\r\n");
 1232              		.loc 1 568 5 view .LVU389
 1233 0030 3B49     		ldr	r1, .L68+12
 1234 0032 2046     		mov	r0, r4
 1235 0034 FFF7FEFF 		bl	shellPrint
 1236              	.LVL86:
 569:Task/Task_BlackBox.c ****     shellPrint(shell_obj, "\r\n");
 1237              		.loc 1 569 5 view .LVU390
 1238 0038 3A49     		ldr	r1, .L68+16
 1239 003a 2046     		mov	r0, r4
 1240 003c FFF7FEFF 		bl	shellPrint
ARM GAS  C:\Users\8bit\AppData\Local\Temp\ccdInZoL.s 			page 40


 1241              	.LVL87:
 570:Task/Task_BlackBox.c ****     shellPrint(shell_obj, "[ BlackBox ] ----- Log Type List\r\n");
 1242              		.loc 1 570 5 view .LVU391
 1243 0040 DFF82081 		ldr	r8, .L68+80
 1244 0044 4146     		mov	r1, r8
 1245 0046 2046     		mov	r0, r4
 1246 0048 FFF7FEFF 		bl	shellPrint
 1247              	.LVL88:
 571:Task/Task_BlackBox.c ****     shellPrint(shell_obj, "\tLog None --------- 0\r\n");
 1248              		.loc 1 571 5 view .LVU392
 1249 004c 3649     		ldr	r1, .L68+20
 1250 004e 2046     		mov	r0, r4
 1251 0050 FFF7FEFF 		bl	shellPrint
 1252              	.LVL89:
 572:Task/Task_BlackBox.c ****     shellPrint(shell_obj, "\tLog Imu Only ----- 1\r\n");
 1253              		.loc 1 572 5 view .LVU393
 1254 0054 3549     		ldr	r1, .L68+24
 1255 0056 2046     		mov	r0, r4
 1256 0058 FFF7FEFF 		bl	shellPrint
 1257              	.LVL90:
 573:Task/Task_BlackBox.c ****     shellPrint(shell_obj, "\tLog Att & Alt ---- 2\r\n");
 1258              		.loc 1 573 5 view .LVU394
 1259 005c 3449     		ldr	r1, .L68+28
 1260 005e 2046     		mov	r0, r4
 1261 0060 FFF7FEFF 		bl	shellPrint
 1262              	.LVL91:
 574:Task/Task_BlackBox.c ****     shellPrint(shell_obj, "\tLog PID Angular -- 3\r\n");
 1263              		.loc 1 574 5 view .LVU395
 1264 0064 3349     		ldr	r1, .L68+32
 1265 0066 2046     		mov	r0, r4
 1266 0068 FFF7FEFF 		bl	shellPrint
 1267              	.LVL92:
 575:Task/Task_BlackBox.c ****     shellPrint(shell_obj, "\tLog PID Attitude - 4\r\n");
 1268              		.loc 1 575 5 view .LVU396
 1269 006c 3249     		ldr	r1, .L68+36
 1270 006e 2046     		mov	r0, r4
 1271 0070 FFF7FEFF 		bl	shellPrint
 1272              	.LVL93:
 576:Task/Task_BlackBox.c ****     shellPrint(shell_obj, "\r\n");
 1273              		.loc 1 576 5 view .LVU397
 1274 0074 3149     		ldr	r1, .L68+40
 1275 0076 2046     		mov	r0, r4
 1276 0078 FFF7FEFF 		bl	shellPrint
 1277              	.LVL94:
 577:Task/Task_BlackBox.c **** 
 1278              		.loc 1 577 5 view .LVU398
 1279 007c 4146     		mov	r1, r8
 1280 007e 2046     		mov	r0, r4
 1281 0080 FFF7FEFF 		bl	shellPrint
 1282              	.LVL95:
 579:Task/Task_BlackBox.c ****     {
 1283              		.loc 1 579 5 view .LVU399
 579:Task/Task_BlackBox.c ****     {
 1284              		.loc 1 579 8 is_stmt 0 view .LVU400
 1285 0084 032D     		cmp	r5, #3
 1286 0086 20D8     		bhi	.L53
 579:Task/Task_BlackBox.c ****     {
ARM GAS  C:\Users\8bit\AppData\Local\Temp\ccdInZoL.s 			page 41


 1287              		.loc 1 579 49 discriminator 1 view .LVU401
 1288 0088 042E     		cmp	r6, #4
 1289 008a 1ED8     		bhi	.L53
 591:Task/Task_BlackBox.c ****         (type == (uint8_t)BlackBox_AttitudePID_Tune))
 1290              		.loc 1 591 5 is_stmt 1 view .LVU402
 591:Task/Task_BlackBox.c ****         (type == (uint8_t)BlackBox_AttitudePID_Tune))
 1291              		.loc 1 591 8 is_stmt 0 view .LVU403
 1292 008c 022D     		cmp	r5, #2
 1293 008e 2AD1     		bne	.L57
 591:Task/Task_BlackBox.c ****         (type == (uint8_t)BlackBox_AttitudePID_Tune))
 1294              		.loc 1 591 51 discriminator 1 view .LVU404
 1295 0090 042E     		cmp	r6, #4
 1296 0092 28D0     		beq	.L57
 603:Task/Task_BlackBox.c ****     info.log_type = type;
 1297              		.loc 1 603 5 is_stmt 1 view .LVU405
 603:Task/Task_BlackBox.c ****     info.log_type = type;
 1298              		.loc 1 603 17 is_stmt 0 view .LVU406
 1299 0094 8DF80050 		strb	r5, [sp]
 604:Task/Task_BlackBox.c ****     info.log_size = size;
 1300              		.loc 1 604 5 is_stmt 1 view .LVU407
 604:Task/Task_BlackBox.c ****     info.log_size = size;
 1301              		.loc 1 604 19 is_stmt 0 view .LVU408
 1302 0098 8DF80160 		strb	r6, [sp, #1]
 605:Task/Task_BlackBox.c **** 
 1303              		.loc 1 605 5 is_stmt 1 view .LVU409
 605:Task/Task_BlackBox.c **** 
 1304              		.loc 1 605 19 is_stmt 0 view .LVU410
 1305 009c CDF80270 		str	r7, [sp, #2]	@ unaligned
 607:Task/Task_BlackBox.c ****     if ((search_out.item_addr == 0) || \
 1306              		.loc 1 607 5 is_stmt 1 view .LVU411
 607:Task/Task_BlackBox.c ****     if ((search_out.item_addr == 0) || \
 1307              		.loc 1 607 25 is_stmt 0 view .LVU412
 1308 00a0 274B     		ldr	r3, .L68+44
 1309 00a2 5B68     		ldr	r3, [r3, #4]
 607:Task/Task_BlackBox.c ****     if ((search_out.item_addr == 0) || \
 1310              		.loc 1 607 18 view .LVU413
 1311 00a4 274A     		ldr	r2, .L68+48
 1312 00a6 0221     		movs	r1, #2
 1313 00a8 02A8     		add	r0, sp, #8
 1314 00aa 9847     		blx	r3
 1315              	.LVL96:
 608:Task/Task_BlackBox.c ****         (Storage.update(Para_User, search_out.item.data_addr, (uint32_t)&info, sizeof(BlackBox_LogI
 1316              		.loc 1 608 5 is_stmt 1 view .LVU414
 608:Task/Task_BlackBox.c ****         (Storage.update(Para_User, search_out.item.data_addr, (uint32_t)&info, sizeof(BlackBox_LogI
 1317              		.loc 1 608 20 is_stmt 0 view .LVU415
 1318 00ac 029B     		ldr	r3, [sp, #8]
 608:Task/Task_BlackBox.c ****         (Storage.update(Para_User, search_out.item.data_addr, (uint32_t)&info, sizeof(BlackBox_LogI
 1319              		.loc 1 608 8 view .LVU416
 1320 00ae 3BB1     		cbz	r3, .L61
 609:Task/Task_BlackBox.c ****     {
 1321              		.loc 1 609 17 discriminator 1 view .LVU417
 1322 00b0 234B     		ldr	r3, .L68+44
 1323 00b2 DD68     		ldr	r5, [r3, #12]
 609:Task/Task_BlackBox.c ****     {
 1324              		.loc 1 609 10 discriminator 1 view .LVU418
 1325 00b4 0623     		movs	r3, #6
 1326 00b6 6A46     		mov	r2, sp
ARM GAS  C:\Users\8bit\AppData\Local\Temp\ccdInZoL.s 			page 42


 1327 00b8 0E99     		ldr	r1, [sp, #56]
 1328 00ba 0220     		movs	r0, #2
 1329 00bc A847     		blx	r5
 1330              	.LVL97:
 608:Task/Task_BlackBox.c ****         (Storage.update(Para_User, search_out.item.data_addr, (uint32_t)&info, sizeof(BlackBox_LogI
 1331              		.loc 1 608 37 discriminator 1 view .LVU419
 1332 00be 00B3     		cbz	r0, .L62
 1333              	.L61:
 611:Task/Task_BlackBox.c ****         return;
 1334              		.loc 1 611 9 is_stmt 1 view .LVU420
 1335 00c0 2149     		ldr	r1, .L68+52
 1336 00c2 2046     		mov	r0, r4
 1337 00c4 FFF7FEFF 		bl	shellPrint
 1338              	.LVL98:
 612:Task/Task_BlackBox.c ****     }
 1339              		.loc 1 612 9 view .LVU421
 1340 00c8 A3E7     		b	.L51
 1341              	.L53:
 581:Task/Task_BlackBox.c ****             shellPrint(shell_obj, "\tBAD MEDIUM TYPE INPUT\r\n");
 1342              		.loc 1 581 9 view .LVU422
 581:Task/Task_BlackBox.c ****             shellPrint(shell_obj, "\tBAD MEDIUM TYPE INPUT\r\n");
 1343              		.loc 1 581 12 is_stmt 0 view .LVU423
 1344 00ca 032D     		cmp	r5, #3
 1345 00cc 06D8     		bhi	.L66
 1346              	.L55:
 584:Task/Task_BlackBox.c ****             shellPrint(shell_obj, "\tBAD LOG DATA TYPE INPUT\r\n");
 1347              		.loc 1 584 9 is_stmt 1 view .LVU424
 584:Task/Task_BlackBox.c ****             shellPrint(shell_obj, "\tBAD LOG DATA TYPE INPUT\r\n");
 1348              		.loc 1 584 12 is_stmt 0 view .LVU425
 1349 00ce 042E     		cmp	r6, #4
 1350 00d0 9FD9     		bls	.L51
 585:Task/Task_BlackBox.c **** 
 1351              		.loc 1 585 13 is_stmt 1 view .LVU426
 1352 00d2 1E49     		ldr	r1, .L68+56
 1353 00d4 2046     		mov	r0, r4
 1354 00d6 FFF7FEFF 		bl	shellPrint
 1355              	.LVL99:
 587:Task/Task_BlackBox.c ****     }
 1356              		.loc 1 587 9 view .LVU427
 1357 00da 9AE7     		b	.L51
 1358              	.L66:
 582:Task/Task_BlackBox.c **** 
 1359              		.loc 1 582 13 view .LVU428
 1360 00dc 1C49     		ldr	r1, .L68+60
 1361 00de 2046     		mov	r0, r4
 1362 00e0 FFF7FEFF 		bl	shellPrint
 1363              	.LVL100:
 1364 00e4 F3E7     		b	.L55
 1365              	.L57:
 594:Task/Task_BlackBox.c ****             shellPrint(shell_obj, "\tOnly support storage chip modlue currently\r\n");
 1366              		.loc 1 594 9 view .LVU429
 594:Task/Task_BlackBox.c ****             shellPrint(shell_obj, "\tOnly support storage chip modlue currently\r\n");
 1367              		.loc 1 594 12 is_stmt 0 view .LVU430
 1368 00e6 022D     		cmp	r5, #2
 1369 00e8 06D1     		bne	.L67
 1370              	.L59:
 597:Task/Task_BlackBox.c ****             shellPrint(shell_obj, "\tNot support currently\r\n");
ARM GAS  C:\Users\8bit\AppData\Local\Temp\ccdInZoL.s 			page 43


 1371              		.loc 1 597 9 is_stmt 1 view .LVU431
 597:Task/Task_BlackBox.c ****             shellPrint(shell_obj, "\tNot support currently\r\n");
 1372              		.loc 1 597 12 is_stmt 0 view .LVU432
 1373 00ea 042E     		cmp	r6, #4
 1374 00ec 91D1     		bne	.L51
 598:Task/Task_BlackBox.c **** 
 1375              		.loc 1 598 13 is_stmt 1 view .LVU433
 1376 00ee 1949     		ldr	r1, .L68+64
 1377 00f0 2046     		mov	r0, r4
 1378 00f2 FFF7FEFF 		bl	shellPrint
 1379              	.LVL101:
 600:Task/Task_BlackBox.c ****     }
 1380              		.loc 1 600 9 view .LVU434
 1381 00f6 8CE7     		b	.L51
 1382              	.L67:
 595:Task/Task_BlackBox.c ****         
 1383              		.loc 1 595 13 view .LVU435
 1384 00f8 1749     		ldr	r1, .L68+68
 1385 00fa 2046     		mov	r0, r4
 1386 00fc FFF7FEFF 		bl	shellPrint
 1387              	.LVL102:
 1388 0100 F3E7     		b	.L59
 1389              	.L62:
 615:Task/Task_BlackBox.c ****     shellPrint(shell_obj, "\treboot is required\r\n");
 1390              		.loc 1 615 5 view .LVU436
 1391 0102 1649     		ldr	r1, .L68+72
 1392 0104 2046     		mov	r0, r4
 1393 0106 FFF7FEFF 		bl	shellPrint
 1394              	.LVL103:
 616:Task/Task_BlackBox.c **** }
 1395              		.loc 1 616 5 view .LVU437
 1396 010a 1549     		ldr	r1, .L68+76
 1397 010c 2046     		mov	r0, r4
 1398 010e FFF7FEFF 		bl	shellPrint
 1399              	.LVL104:
 1400 0112 7EE7     		b	.L51
 1401              	.L69:
 1402              		.align	2
 1403              	.L68:
 1404 0114 00000000 		.word	.LC0
 1405 0118 24000000 		.word	.LC1
 1406 011c 3C000000 		.word	.LC2
 1407 0120 54000000 		.word	.LC3
 1408 0124 6C000000 		.word	.LC4
 1409 0128 88000000 		.word	.LC6
 1410 012c AC000000 		.word	.LC7
 1411 0130 C4000000 		.word	.LC8
 1412 0134 DC000000 		.word	.LC9
 1413 0138 F4000000 		.word	.LC10
 1414 013c 0C010000 		.word	.LC11
 1415 0140 00000000 		.word	Storage
 1416 0144 A8010000 		.word	.LC16
 1417 0148 B4010000 		.word	.LC17
 1418 014c 40010000 		.word	.LC13
 1419 0150 24010000 		.word	.LC12
 1420 0154 8C010000 		.word	.LC15
 1421 0158 5C010000 		.word	.LC14
ARM GAS  C:\Users\8bit\AppData\Local\Temp\ccdInZoL.s 			page 44


 1422 015c D0010000 		.word	.LC18
 1423 0160 EC010000 		.word	.LC19
 1424 0164 84000000 		.word	.LC5
 1425              		.cfi_endproc
 1426              	.LFE2079:
 1428              		.section	.rodata.TaskBlackBox_EnableLog.str1.4,"aMS",%progbits,1
 1429              		.align	2
 1430              	.LC20:
 1431 0000 5B204261 		.ascii	"[ BalckBox ] Enable\015\015\000"
 1431      6C636B42 
 1431      6F78205D 
 1431      20456E61 
 1431      626C650D 
 1432 0016 0000     		.align	2
 1433              	.LC21:
 1434 0018 5B20426C 		.ascii	"[ BlackBox ] Enable Failed\015\012\000"
 1434      61636B42 
 1434      6F78205D 
 1434      20456E61 
 1434      626C6520 
 1435              		.section	.text.TaskBlackBox_EnableLog,"ax",%progbits
 1436              		.align	1
 1437              		.syntax unified
 1438              		.thumb
 1439              		.thumb_func
 1441              	TaskBlackBox_EnableLog:
 1442              	.LFB2080:
 618:Task/Task_BlackBox.c **** SHELL_EXPORT_CMD(SHELL_CMD_PERMISSION(0) | SHELL_CMD_TYPE(SHELL_TYPE_CMD_FUNC) | SHELL_CMD_DISABLE_
 619:Task/Task_BlackBox.c **** 
 620:Task/Task_BlackBox.c **** static void TaskBlackBox_EnableLog(void)
 621:Task/Task_BlackBox.c **** {
 1443              		.loc 1 621 1 view -0
 1444              		.cfi_startproc
 1445              		@ args = 0, pretend = 0, frame = 0
 1446              		@ frame_needed = 0, uses_anonymous_args = 0
 1447 0000 10B5     		push	{r4, lr}
 1448              	.LCFI12:
 1449              		.cfi_def_cfa_offset 8
 1450              		.cfi_offset 4, -8
 1451              		.cfi_offset 14, -4
 622:Task/Task_BlackBox.c ****     Shell *shell_obj = Shell_GetInstence();
 1452              		.loc 1 622 5 view .LVU439
 1453              		.loc 1 622 24 is_stmt 0 view .LVU440
 1454 0002 FFF7FEFF 		bl	Shell_GetInstence
 1455              	.LVL105:
 623:Task/Task_BlackBox.c **** 
 624:Task/Task_BlackBox.c ****     if ((shell_obj == NULL) || (p_blackbox == NULL))
 1456              		.loc 1 624 5 is_stmt 1 view .LVU441
 1457              		.loc 1 624 8 is_stmt 0 view .LVU442
 1458 0006 58B1     		cbz	r0, .L70
 1459 0008 0446     		mov	r4, r0
 1460              		.loc 1 624 44 discriminator 1 view .LVU443
 1461 000a 0D4B     		ldr	r3, .L75
 1462 000c 1B68     		ldr	r3, [r3]
 1463              		.loc 1 624 29 discriminator 1 view .LVU444
 1464 000e 3BB1     		cbz	r3, .L70
 625:Task/Task_BlackBox.c ****         return;
ARM GAS  C:\Users\8bit\AppData\Local\Temp\ccdInZoL.s 			page 45


 626:Task/Task_BlackBox.c **** 
 627:Task/Task_BlackBox.c ****     if (p_blackbox->enable && p_blackbox->enable())
 1465              		.loc 1 627 5 is_stmt 1 view .LVU445
 1466              		.loc 1 627 19 is_stmt 0 view .LVU446
 1467 0010 5B68     		ldr	r3, [r3, #4]
 1468              		.loc 1 627 8 view .LVU447
 1469 0012 0BB1     		cbz	r3, .L72
 1470              		.loc 1 627 31 discriminator 1 view .LVU448
 1471 0014 9847     		blx	r3
 1472              	.LVL106:
 1473              		.loc 1 627 28 discriminator 1 view .LVU449
 1474 0016 20B9     		cbnz	r0, .L74
 1475              	.L72:
 628:Task/Task_BlackBox.c ****     {
 629:Task/Task_BlackBox.c ****         shellPrint(shell_obj, "[ BalckBox ] Enable\r\r");
 630:Task/Task_BlackBox.c ****         Monitor.state = BlackBox_Log_Enable;
 631:Task/Task_BlackBox.c ****         Monitor.log_cnt = 0;
 632:Task/Task_BlackBox.c ****         Monitor.log_byte_size = 0;
 633:Task/Task_BlackBox.c ****         Queue.reset(&BlackBox_Queue);
 634:Task/Task_BlackBox.c ****     }
 635:Task/Task_BlackBox.c ****     else
 636:Task/Task_BlackBox.c ****         shellPrint(shell_obj, "[ BlackBox ] Enable Failed\r\n");
 1476              		.loc 1 636 9 is_stmt 1 view .LVU450
 1477 0018 0A49     		ldr	r1, .L75+4
 1478 001a 2046     		mov	r0, r4
 1479 001c FFF7FEFF 		bl	shellPrint
 1480              	.LVL107:
 1481              	.L70:
 637:Task/Task_BlackBox.c **** }
 1482              		.loc 1 637 1 is_stmt 0 view .LVU451
 1483 0020 10BD     		pop	{r4, pc}
 1484              	.LVL108:
 1485              	.L74:
 629:Task/Task_BlackBox.c ****         Monitor.state = BlackBox_Log_Enable;
 1486              		.loc 1 629 9 is_stmt 1 view .LVU452
 1487 0022 0949     		ldr	r1, .L75+8
 1488 0024 2046     		mov	r0, r4
 1489 0026 FFF7FEFF 		bl	shellPrint
 1490              	.LVL109:
 630:Task/Task_BlackBox.c ****         Monitor.log_cnt = 0;
 1491              		.loc 1 630 9 view .LVU453
 630:Task/Task_BlackBox.c ****         Monitor.log_cnt = 0;
 1492              		.loc 1 630 23 is_stmt 0 view .LVU454
 1493 002a 084B     		ldr	r3, .L75+12
 1494 002c 0122     		movs	r2, #1
 1495 002e 1A70     		strb	r2, [r3]
 631:Task/Task_BlackBox.c ****         Monitor.log_byte_size = 0;
 1496              		.loc 1 631 9 is_stmt 1 view .LVU455
 631:Task/Task_BlackBox.c ****         Monitor.log_byte_size = 0;
 1497              		.loc 1 631 25 is_stmt 0 view .LVU456
 1498 0030 0022     		movs	r2, #0
 1499 0032 DA65     		str	r2, [r3, #92]
 632:Task/Task_BlackBox.c ****         Queue.reset(&BlackBox_Queue);
 1500              		.loc 1 632 9 is_stmt 1 view .LVU457
 632:Task/Task_BlackBox.c ****         Queue.reset(&BlackBox_Queue);
 1501              		.loc 1 632 31 is_stmt 0 view .LVU458
 1502 0034 9A65     		str	r2, [r3, #88]
ARM GAS  C:\Users\8bit\AppData\Local\Temp\ccdInZoL.s 			page 46


 633:Task/Task_BlackBox.c ****     }
 1503              		.loc 1 633 9 is_stmt 1 view .LVU459
 633:Task/Task_BlackBox.c ****     }
 1504              		.loc 1 633 14 is_stmt 0 view .LVU460
 1505 0036 064B     		ldr	r3, .L75+16
 1506 0038 1B69     		ldr	r3, [r3, #16]
 633:Task/Task_BlackBox.c ****     }
 1507              		.loc 1 633 9 view .LVU461
 1508 003a 0648     		ldr	r0, .L75+20
 1509 003c 9847     		blx	r3
 1510              	.LVL110:
 1511 003e EFE7     		b	.L70
 1512              	.L76:
 1513              		.align	2
 1514              	.L75:
 1515 0040 00000000 		.word	.LANCHOR12
 1516 0044 18000000 		.word	.LC21
 1517 0048 00000000 		.word	.LC20
 1518 004c 00000000 		.word	.LANCHOR1
 1519 0050 00000000 		.word	Queue
 1520 0054 00000000 		.word	.LANCHOR0
 1521              		.cfi_endproc
 1522              	.LFE2080:
 1524              		.section	.rodata.TaskBlackBox_DisableLog.str1.4,"aMS",%progbits,1
 1525              		.align	2
 1526              	.LC22:
 1527 0000 5B204261 		.ascii	"[ BalckBox ] Disable\015\015\000"
 1527      6C636B42 
 1527      6F78205D 
 1527      20446973 
 1527      61626C65 
 1528              		.section	.text.TaskBlackBox_DisableLog,"ax",%progbits
 1529              		.align	1
 1530              		.syntax unified
 1531              		.thumb
 1532              		.thumb_func
 1534              	TaskBlackBox_DisableLog:
 1535              	.LFB2081:
 638:Task/Task_BlackBox.c **** SHELL_EXPORT_CMD(SHELL_CMD_PERMISSION(0) | SHELL_CMD_TYPE(SHELL_TYPE_CMD_FUNC) | SHELL_CMD_DISABLE_
 639:Task/Task_BlackBox.c **** 
 640:Task/Task_BlackBox.c **** static void TaskBlackBox_DisableLog(void)
 641:Task/Task_BlackBox.c **** {
 1536              		.loc 1 641 1 is_stmt 1 view -0
 1537              		.cfi_startproc
 1538              		@ args = 0, pretend = 0, frame = 0
 1539              		@ frame_needed = 0, uses_anonymous_args = 0
 1540 0000 08B5     		push	{r3, lr}
 1541              	.LCFI13:
 1542              		.cfi_def_cfa_offset 8
 1543              		.cfi_offset 3, -8
 1544              		.cfi_offset 14, -4
 642:Task/Task_BlackBox.c ****     Shell *shell_obj = Shell_GetInstence();
 1545              		.loc 1 642 5 view .LVU463
 1546              		.loc 1 642 24 is_stmt 0 view .LVU464
 1547 0002 FFF7FEFF 		bl	Shell_GetInstence
 1548              	.LVL111:
 643:Task/Task_BlackBox.c **** 
ARM GAS  C:\Users\8bit\AppData\Local\Temp\ccdInZoL.s 			page 47


 644:Task/Task_BlackBox.c ****     if ((shell_obj == NULL) || (p_blackbox == NULL))
 1549              		.loc 1 644 5 is_stmt 1 view .LVU465
 1550              		.loc 1 644 8 is_stmt 0 view .LVU466
 1551 0006 40B1     		cbz	r0, .L77
 1552              		.loc 1 644 44 discriminator 1 view .LVU467
 1553 0008 044A     		ldr	r2, .L80
 1554 000a 1268     		ldr	r2, [r2]
 1555              		.loc 1 644 29 discriminator 1 view .LVU468
 1556 000c 2AB1     		cbz	r2, .L77
 645:Task/Task_BlackBox.c ****         return;
 646:Task/Task_BlackBox.c **** 
 647:Task/Task_BlackBox.c ****     Monitor.state = BlackBox_Log_Disable;
 1557              		.loc 1 647 5 is_stmt 1 view .LVU469
 1558              		.loc 1 647 19 is_stmt 0 view .LVU470
 1559 000e 044A     		ldr	r2, .L80+4
 1560 0010 0221     		movs	r1, #2
 1561 0012 1170     		strb	r1, [r2]
 648:Task/Task_BlackBox.c ****     shellPrint(shell_obj, "[ BalckBox ] Disable\r\r");
 1562              		.loc 1 648 5 is_stmt 1 view .LVU471
 1563 0014 0349     		ldr	r1, .L80+8
 1564 0016 FFF7FEFF 		bl	shellPrint
 1565              	.LVL112:
 1566              	.L77:
 649:Task/Task_BlackBox.c **** }
 1567              		.loc 1 649 1 is_stmt 0 view .LVU472
 1568 001a 08BD     		pop	{r3, pc}
 1569              	.L81:
 1570              		.align	2
 1571              	.L80:
 1572 001c 00000000 		.word	.LANCHOR12
 1573 0020 00000000 		.word	.LANCHOR1
 1574 0024 00000000 		.word	.LC22
 1575              		.cfi_endproc
 1576              	.LFE2081:
 1578              		.section	.rodata.TaskBlackBox_ConvertLogData_To_Header.str1.4,"aMS",%progbits,1
 1579              		.align	2
 1580              	.LC23:
 1581 0000 5B20426C 		.ascii	"[ BlackBox ] header tag error\015\012\000"
 1581      61636B42 
 1581      6F78205D 
 1581      20686561 
 1581      64657220 
 1582              		.align	2
 1583              	.LC24:
 1584 0020 5B20426C 		.ascii	"[ BlackBox ] type error\015\012\000"
 1584      61636B42 
 1584      6F78205D 
 1584      20747970 
 1584      65206572 
 1585              		.section	.text.TaskBlackBox_ConvertLogData_To_Header,"ax",%progbits
 1586              		.align	1
 1587              		.syntax unified
 1588              		.thumb
 1589              		.thumb_func
 1591              	TaskBlackBox_ConvertLogData_To_Header:
 1592              	.LVL113:
 1593              	.LFB2082:
ARM GAS  C:\Users\8bit\AppData\Local\Temp\ccdInZoL.s 			page 48


 650:Task/Task_BlackBox.c **** SHELL_EXPORT_CMD(SHELL_CMD_PERMISSION(0) | SHELL_CMD_TYPE(SHELL_TYPE_CMD_FUNC) | SHELL_CMD_DISABLE_
 651:Task/Task_BlackBox.c **** 
 652:Task/Task_BlackBox.c **** static BlackBox_ConvertError_List TaskBlackBox_ConvertLogData_To_Header(Shell *p_shell, BlackBox_Da
 653:Task/Task_BlackBox.c **** {
 1594              		.loc 1 653 1 is_stmt 1 view -0
 1595              		.cfi_startproc
 1596              		@ args = 0, pretend = 0, frame = 0
 1597              		@ frame_needed = 0, uses_anonymous_args = 0
 654:Task/Task_BlackBox.c ****     if ((p_header == NULL) || \
 1598              		.loc 1 654 5 view .LVU474
 1599              		.loc 1 654 8 is_stmt 0 view .LVU475
 1600 0000 A9B3     		cbz	r1, .L89
 653:Task/Task_BlackBox.c ****     if ((p_header == NULL) || \
 1601              		.loc 1 653 1 discriminator 1 view .LVU476
 1602 0002 38B5     		push	{r3, r4, r5, lr}
 1603              	.LCFI14:
 1604              		.cfi_def_cfa_offset 16
 1605              		.cfi_offset 3, -16
 1606              		.cfi_offset 4, -12
 1607              		.cfi_offset 5, -8
 1608              		.cfi_offset 14, -4
 1609 0004 0446     		mov	r4, r0
 1610 0006 0846     		mov	r0, r1
 1611              	.LVL114:
 1612              		.loc 1 654 28 discriminator 1 view .LVU477
 1613 0008 9AB3     		cbz	r2, .L90
 655:Task/Task_BlackBox.c ****         (p_data == NULL) || \
 1614              		.loc 1 655 26 view .LVU478
 1615 000a A3B3     		cbz	r3, .L91
 656:Task/Task_BlackBox.c ****         (len == NULL) || \
 657:Task/Task_BlackBox.c ****         (*p_data == NULL))
 1616              		.loc 1 657 10 view .LVU479
 1617 000c 1168     		ldr	r1, [r2]
 1618              	.LVL115:
 656:Task/Task_BlackBox.c ****         (len == NULL) || \
 1619              		.loc 1 656 23 view .LVU480
 1620 000e A1B3     		cbz	r1, .L92
 658:Task/Task_BlackBox.c ****         return BlackBox_Cnv_Para_Error;
 659:Task/Task_BlackBox.c ****     
 660:Task/Task_BlackBox.c ****     if (*len <= BLACKBOX_HEADER_SIZE)
 1621              		.loc 1 660 5 is_stmt 1 view .LVU481
 1622              		.loc 1 660 8 is_stmt 0 view .LVU482
 1623 0010 1D68     		ldr	r5, [r3]
 1624 0012 042D     		cmp	r5, #4
 1625 0014 33D9     		bls	.L93
 661:Task/Task_BlackBox.c ****         return BlackBox_Cnv_Size_Error;
 662:Task/Task_BlackBox.c **** 
 663:Task/Task_BlackBox.c ****     memcpy(p_header, *p_data, BLACKBOX_HEADER_SIZE);
 1626              		.loc 1 663 5 is_stmt 1 view .LVU483
 1627 0016 0968     		ldr	r1, [r1]	@ unaligned
 1628 0018 0160     		str	r1, [r0]	@ unaligned
 664:Task/Task_BlackBox.c ****     if (p_header->header != BLACKBOX_LOG_HEADER)
 1629              		.loc 1 664 5 view .LVU484
 1630              		.loc 1 664 8 is_stmt 0 view .LVU485
 1631 001a 1FFA81FE 		uxth	lr, r1
 1632 001e 4EF21E1C 		movw	ip, #57630
 1633 0022 E645     		cmp	lr, ip
ARM GAS  C:\Users\8bit\AppData\Local\Temp\ccdInZoL.s 			page 49


 1634 0024 0CD1     		bne	.L101
 665:Task/Task_BlackBox.c ****     {
 666:Task/Task_BlackBox.c ****         memset(p_header, 0, BLACKBOX_HEADER_SIZE);
 667:Task/Task_BlackBox.c ****         shellPrint(p_shell, "[ BlackBox ] header tag error\r\n");
 668:Task/Task_BlackBox.c ****         return BlackBox_Cnv_Header_Error;
 669:Task/Task_BlackBox.c ****     }
 670:Task/Task_BlackBox.c **** 
 671:Task/Task_BlackBox.c ****     switch ((uint8_t) p_header->type)
 1635              		.loc 1 671 5 is_stmt 1 view .LVU486
 1636 0026 C1F30740 		ubfx	r0, r1, #16, #8
 1637              	.LVL116:
 1638              		.loc 1 671 5 is_stmt 0 view .LVU487
 1639 002a 0128     		cmp	r0, #1
 1640 002c 10D0     		beq	.L85
 1641 002e 0228     		cmp	r0, #2
 1642 0030 19D0     		beq	.L86
 672:Task/Task_BlackBox.c ****     {
 673:Task/Task_BlackBox.c ****         case BlackBox_Imu_Filted:
 674:Task/Task_BlackBox.c ****             if (*len < (BLACKBOX_HEADER_SIZE + BLACKBOX_ENDER_SIZE + sizeof(BlackBox_IMUData_TypeDe
 675:Task/Task_BlackBox.c ****                 return BlackBox_Cnv_Size_Error;
 676:Task/Task_BlackBox.c ****             break;
 677:Task/Task_BlackBox.c **** 
 678:Task/Task_BlackBox.c ****         case BlackBox_Log_Alt_Att:
 679:Task/Task_BlackBox.c ****             if (*len < (BLACKBOX_HEADER_SIZE + BLACKBOX_ENDER_SIZE + sizeof(BlackBox_AttAltData_Typ
 680:Task/Task_BlackBox.c ****                 return BlackBox_Cnv_Size_Error;
 681:Task/Task_BlackBox.c ****             break;
 682:Task/Task_BlackBox.c **** 
 683:Task/Task_BlackBox.c ****         default:
 684:Task/Task_BlackBox.c ****             if (p_shell)
 1643              		.loc 1 684 13 is_stmt 1 view .LVU488
 1644              		.loc 1 684 16 is_stmt 0 view .LVU489
 1645 0032 44B3     		cbz	r4, .L95
 685:Task/Task_BlackBox.c ****                 shellPrint(p_shell, "[ BlackBox ] type error\r\n");
 1646              		.loc 1 685 17 is_stmt 1 view .LVU490
 1647 0034 1549     		ldr	r1, .L103
 1648 0036 2046     		mov	r0, r4
 1649 0038 FFF7FEFF 		bl	shellPrint
 1650              	.LVL117:
 686:Task/Task_BlackBox.c ****             return BlackBox_Cnv_Type_Error;
 1651              		.loc 1 686 20 is_stmt 0 view .LVU491
 1652 003c 0320     		movs	r0, #3
 1653 003e 19E0     		b	.L83
 1654              	.LVL118:
 1655              	.L101:
 666:Task/Task_BlackBox.c ****         shellPrint(p_shell, "[ BlackBox ] header tag error\r\n");
 1656              		.loc 1 666 9 is_stmt 1 view .LVU492
 1657 0040 0023     		movs	r3, #0
 1658              	.LVL119:
 666:Task/Task_BlackBox.c ****         shellPrint(p_shell, "[ BlackBox ] header tag error\r\n");
 1659              		.loc 1 666 9 is_stmt 0 view .LVU493
 1660 0042 0360     		str	r3, [r0]	@ unaligned
 667:Task/Task_BlackBox.c ****         return BlackBox_Cnv_Header_Error;
 1661              		.loc 1 667 9 is_stmt 1 view .LVU494
 1662 0044 1249     		ldr	r1, .L103+4
 1663 0046 2046     		mov	r0, r4
 1664              	.LVL120:
 667:Task/Task_BlackBox.c ****         return BlackBox_Cnv_Header_Error;
ARM GAS  C:\Users\8bit\AppData\Local\Temp\ccdInZoL.s 			page 50


 1665              		.loc 1 667 9 is_stmt 0 view .LVU495
 1666 0048 FFF7FEFF 		bl	shellPrint
 1667              	.LVL121:
 668:Task/Task_BlackBox.c ****     }
 1668              		.loc 1 668 9 is_stmt 1 view .LVU496
 668:Task/Task_BlackBox.c ****     }
 1669              		.loc 1 668 16 is_stmt 0 view .LVU497
 1670 004c 0420     		movs	r0, #4
 1671 004e 11E0     		b	.L83
 1672              	.LVL122:
 1673              	.L85:
 674:Task/Task_BlackBox.c ****                 return BlackBox_Cnv_Size_Error;
 1674              		.loc 1 674 13 is_stmt 1 view .LVU498
 674:Task/Task_BlackBox.c ****                 return BlackBox_Cnv_Size_Error;
 1675              		.loc 1 674 17 is_stmt 0 view .LVU499
 1676 0050 1968     		ldr	r1, [r3]
 674:Task/Task_BlackBox.c ****                 return BlackBox_Cnv_Size_Error;
 1677              		.loc 1 674 16 view .LVU500
 1678 0052 2C29     		cmp	r1, #44
 1679 0054 15D9     		bls	.L102
 1680              	.L88:
 687:Task/Task_BlackBox.c ****     }
 688:Task/Task_BlackBox.c **** 
 689:Task/Task_BlackBox.c ****     *len -= BLACKBOX_HEADER_SIZE;
 1681              		.loc 1 689 5 is_stmt 1 view .LVU501
 1682              		.loc 1 689 10 is_stmt 0 view .LVU502
 1683 0056 1968     		ldr	r1, [r3]
 1684 0058 0439     		subs	r1, r1, #4
 1685 005a 1960     		str	r1, [r3]
 690:Task/Task_BlackBox.c ****     *p_data += BLACKBOX_HEADER_SIZE;
 1686              		.loc 1 690 5 is_stmt 1 view .LVU503
 1687              		.loc 1 690 13 is_stmt 0 view .LVU504
 1688 005c 1368     		ldr	r3, [r2]
 1689              	.LVL123:
 1690              		.loc 1 690 13 view .LVU505
 1691 005e 0433     		adds	r3, r3, #4
 1692 0060 1360     		str	r3, [r2]
 691:Task/Task_BlackBox.c **** 
 692:Task/Task_BlackBox.c ****     return BlackBox_Cnv_None_Error;
 1693              		.loc 1 692 5 is_stmt 1 view .LVU506
 1694              		.loc 1 692 12 is_stmt 0 view .LVU507
 1695 0062 0020     		movs	r0, #0
 1696 0064 06E0     		b	.L83
 1697              	.LVL124:
 1698              	.L86:
 679:Task/Task_BlackBox.c ****                 return BlackBox_Cnv_Size_Error;
 1699              		.loc 1 679 13 is_stmt 1 view .LVU508
 679:Task/Task_BlackBox.c ****                 return BlackBox_Cnv_Size_Error;
 1700              		.loc 1 679 17 is_stmt 0 view .LVU509
 1701 0066 1968     		ldr	r1, [r3]
 679:Task/Task_BlackBox.c ****                 return BlackBox_Cnv_Size_Error;
 1702              		.loc 1 679 16 view .LVU510
 1703 0068 3229     		cmp	r1, #50
 1704 006a F4D8     		bhi	.L88
 1705 006c 02E0     		b	.L83
 1706              	.LVL125:
 1707              	.L89:
ARM GAS  C:\Users\8bit\AppData\Local\Temp\ccdInZoL.s 			page 51


 1708              	.LCFI15:
 1709              		.cfi_def_cfa_offset 0
 1710              		.cfi_restore 3
 1711              		.cfi_restore 4
 1712              		.cfi_restore 5
 1713              		.cfi_restore 14
 658:Task/Task_BlackBox.c ****     
 1714              		.loc 1 658 16 view .LVU511
 1715 006e 0120     		movs	r0, #1
 1716              	.LVL126:
 693:Task/Task_BlackBox.c **** }
 1717              		.loc 1 693 1 view .LVU512
 1718 0070 7047     		bx	lr
 1719              	.LVL127:
 1720              	.L90:
 1721              	.LCFI16:
 1722              		.cfi_def_cfa_offset 16
 1723              		.cfi_offset 3, -16
 1724              		.cfi_offset 4, -12
 1725              		.cfi_offset 5, -8
 1726              		.cfi_offset 14, -4
 658:Task/Task_BlackBox.c ****     
 1727              		.loc 1 658 16 view .LVU513
 1728 0072 0120     		movs	r0, #1
 1729              	.LVL128:
 1730              	.L83:
 1731              		.loc 1 693 1 view .LVU514
 1732 0074 38BD     		pop	{r3, r4, r5, pc}
 1733              	.LVL129:
 1734              	.L91:
 658:Task/Task_BlackBox.c ****     
 1735              		.loc 1 658 16 view .LVU515
 1736 0076 0120     		movs	r0, #1
 1737              	.LVL130:
 658:Task/Task_BlackBox.c ****     
 1738              		.loc 1 658 16 view .LVU516
 1739 0078 FCE7     		b	.L83
 1740              	.LVL131:
 1741              	.L92:
 658:Task/Task_BlackBox.c ****     
 1742              		.loc 1 658 16 view .LVU517
 1743 007a 0120     		movs	r0, #1
 1744              	.LVL132:
 658:Task/Task_BlackBox.c ****     
 1745              		.loc 1 658 16 view .LVU518
 1746 007c FAE7     		b	.L83
 1747              	.LVL133:
 1748              	.L93:
 661:Task/Task_BlackBox.c **** 
 1749              		.loc 1 661 16 view .LVU519
 1750 007e 0220     		movs	r0, #2
 1751              	.LVL134:
 661:Task/Task_BlackBox.c **** 
 1752              		.loc 1 661 16 view .LVU520
 1753 0080 F8E7     		b	.L83
 1754              	.L102:
 675:Task/Task_BlackBox.c ****             break;
ARM GAS  C:\Users\8bit\AppData\Local\Temp\ccdInZoL.s 			page 52


 1755              		.loc 1 675 24 view .LVU521
 1756 0082 0220     		movs	r0, #2
 1757 0084 F6E7     		b	.L83
 1758              	.L95:
 686:Task/Task_BlackBox.c ****     }
 1759              		.loc 1 686 20 view .LVU522
 1760 0086 0320     		movs	r0, #3
 1761 0088 F4E7     		b	.L83
 1762              	.L104:
 1763 008a 00BF     		.align	2
 1764              	.L103:
 1765 008c 20000000 		.word	.LC24
 1766 0090 00000000 		.word	.LC23
 1767              		.cfi_endproc
 1768              	.LFE2082:
 1770              		.section	.rodata.TaskBlackBox_ConvertLogData_To_IMU.str1.4,"aMS",%progbits,1
 1771              		.align	2
 1772              	.LC25:
 1773 0000 25642000 		.ascii	"%d \000"
 1774              		.global	__aeabi_f2d
 1775              		.align	2
 1776              	.LC26:
 1777 0004 25662000 		.ascii	"%f \000"
 1778              		.align	2
 1779              	.LC27:
 1780 0008 25660D0A 		.ascii	"%f\015\012\000"
 1780      00
 1781              		.section	.text.TaskBlackBox_ConvertLogData_To_IMU,"ax",%progbits
 1782              		.align	1
 1783              		.syntax unified
 1784              		.thumb
 1785              		.thumb_func
 1787              	TaskBlackBox_ConvertLogData_To_IMU:
 1788              	.LVL135:
 1789              	.LFB2084:
 694:Task/Task_BlackBox.c **** 
 695:Task/Task_BlackBox.c **** static BlackBox_ConvertError_List TaskBlackBox_ConvertLogData_To_Ender(Shell *p_shell, BlackBox_Dat
 696:Task/Task_BlackBox.c **** {
 697:Task/Task_BlackBox.c ****     if ((p_ender == NULL) || \
 698:Task/Task_BlackBox.c ****         (p_data == NULL) || \
 699:Task/Task_BlackBox.c ****         (*p_data == NULL) || \
 700:Task/Task_BlackBox.c ****         (len == NULL) || \
 701:Task/Task_BlackBox.c ****         (*len < BLACKBOX_ENDER_SIZE))
 702:Task/Task_BlackBox.c ****         return BlackBox_Cnv_Para_Error;
 703:Task/Task_BlackBox.c **** 
 704:Task/Task_BlackBox.c ****     memcpy(p_ender, *p_data, BLACKBOX_ENDER_SIZE);
 705:Task/Task_BlackBox.c ****     if (p_ender->ender != BLACKBOX_LOG_ENDER)
 706:Task/Task_BlackBox.c ****     {
 707:Task/Task_BlackBox.c ****         memset(p_ender, 0, BLACKBOX_ENDER_SIZE);
 708:Task/Task_BlackBox.c ****         if (p_shell)
 709:Task/Task_BlackBox.c ****             shellPrint(p_shell, "[ BlackBox ] ender error\r\n");
 710:Task/Task_BlackBox.c ****         return BlackBox_Cnv_Ender_Error;
 711:Task/Task_BlackBox.c ****     }
 712:Task/Task_BlackBox.c **** 
 713:Task/Task_BlackBox.c ****     *p_data += BLACKBOX_ENDER_SIZE;
 714:Task/Task_BlackBox.c ****     *len -= BLACKBOX_ENDER_SIZE;
 715:Task/Task_BlackBox.c **** 
ARM GAS  C:\Users\8bit\AppData\Local\Temp\ccdInZoL.s 			page 53


 716:Task/Task_BlackBox.c ****     return BlackBox_Cnv_None_Error;
 717:Task/Task_BlackBox.c **** }
 718:Task/Task_BlackBox.c **** 
 719:Task/Task_BlackBox.c **** /* filted imu data log */
 720:Task/Task_BlackBox.c **** static BlackBox_ConvertError_List TaskBlackBox_ConvertLogData_To_IMU(Shell *p_shell, BlackBox_IMUDa
 721:Task/Task_BlackBox.c **** {
 1790              		.loc 1 721 1 is_stmt 1 view -0
 1791              		.cfi_startproc
 1792              		@ args = 0, pretend = 0, frame = 0
 1793              		@ frame_needed = 0, uses_anonymous_args = 0
 722:Task/Task_BlackBox.c ****     if ((p_imu == NULL) || \
 1794              		.loc 1 722 5 view .LVU524
 1795              		.loc 1 722 8 is_stmt 0 view .LVU525
 1796 0000 0029     		cmp	r1, #0
 1797 0002 00F05881 		beq	.L109
 721:Task/Task_BlackBox.c ****     if ((p_imu == NULL) || \
 1798              		.loc 1 721 1 discriminator 1 view .LVU526
 1799 0006 2DE9F041 		push	{r4, r5, r6, r7, r8, lr}
 1800              	.LCFI17:
 1801              		.cfi_def_cfa_offset 24
 1802              		.cfi_offset 4, -24
 1803              		.cfi_offset 5, -20
 1804              		.cfi_offset 6, -16
 1805              		.cfi_offset 7, -12
 1806              		.cfi_offset 8, -8
 1807              		.cfi_offset 14, -4
 1808 000a 0546     		mov	r5, r0
 1809 000c 1646     		mov	r6, r2
 1810 000e 1F46     		mov	r7, r3
 1811 0010 0C46     		mov	r4, r1
 1812              		.loc 1 722 25 discriminator 1 view .LVU527
 1813 0012 002A     		cmp	r2, #0
 1814 0014 00F05181 		beq	.L110
 723:Task/Task_BlackBox.c ****         (p_data == NULL) || \
 724:Task/Task_BlackBox.c ****         (*p_data == NULL) || \
 1815              		.loc 1 724 10 view .LVU528
 1816 0018 1368     		ldr	r3, [r2]
 1817              	.LVL136:
 723:Task/Task_BlackBox.c ****         (p_data == NULL) || \
 1818              		.loc 1 723 26 view .LVU529
 1819 001a 002B     		cmp	r3, #0
 1820 001c 00F04F81 		beq	.L111
 1821              		.loc 1 724 27 view .LVU530
 1822 0020 002F     		cmp	r7, #0
 1823 0022 00F04E81 		beq	.L112
 725:Task/Task_BlackBox.c ****         (len == NULL) || \
 726:Task/Task_BlackBox.c ****         (*len < sizeof(BlackBox_IMUData_TypeDef)))
 1824              		.loc 1 726 10 view .LVU531
 1825 0026 3A68     		ldr	r2, [r7]
 1826              	.LVL137:
 725:Task/Task_BlackBox.c ****         (len == NULL) || \
 1827              		.loc 1 725 23 view .LVU532
 1828 0028 252A     		cmp	r2, #37
 1829 002a 40F24C81 		bls	.L113
 727:Task/Task_BlackBox.c ****         return BlackBox_Cnv_Size_Error;
 728:Task/Task_BlackBox.c **** 
 729:Task/Task_BlackBox.c ****     memcpy(p_imu, *p_data, sizeof(BlackBox_IMUData_TypeDef));
ARM GAS  C:\Users\8bit\AppData\Local\Temp\ccdInZoL.s 			page 54


 1830              		.loc 1 729 5 is_stmt 1 view .LVU533
 1831 002e 1946     		mov	r1, r3
 1832              	.LVL138:
 1833              		.loc 1 729 5 is_stmt 0 view .LVU534
 1834 0030 A446     		mov	ip, r4
 1835 0032 2033     		adds	r3, r3, #32
 1836              	.LVL139:
 1837              	.L107:
 1838              		.loc 1 729 5 view .LVU535
 1839 0034 D1F80080 		ldr	r8, [r1]	@ unaligned
 1840 0038 D1F804E0 		ldr	lr, [r1, #4]	@ unaligned
 1841 003c 8868     		ldr	r0, [r1, #8]	@ unaligned
 1842 003e CA68     		ldr	r2, [r1, #12]	@ unaligned
 1843 0040 CCF80080 		str	r8, [ip]	@ unaligned
 1844 0044 CCF804E0 		str	lr, [ip, #4]	@ unaligned
 1845 0048 CCF80800 		str	r0, [ip, #8]	@ unaligned
 1846 004c CCF80C20 		str	r2, [ip, #12]	@ unaligned
 1847 0050 1031     		adds	r1, r1, #16
 1848 0052 0CF1100C 		add	ip, ip, #16
 1849 0056 9942     		cmp	r1, r3
 1850 0058 ECD1     		bne	.L107
 1851 005a 0B68     		ldr	r3, [r1]	@ unaligned
 1852 005c CCF80030 		str	r3, [ip]	@ unaligned
 1853 0060 8B88     		ldrh	r3, [r1, #4]	@ unaligned
 1854 0062 ACF80430 		strh	r3, [ip, #4]	@ unaligned
 730:Task/Task_BlackBox.c ****     if (p_shell)
 1855              		.loc 1 730 5 is_stmt 1 view .LVU536
 1856              		.loc 1 730 8 is_stmt 0 view .LVU537
 1857 0066 002D     		cmp	r5, #0
 1858 0068 00F01C81 		beq	.L108
 731:Task/Task_BlackBox.c ****     {
 732:Task/Task_BlackBox.c ****         shellPrint(p_shell, "%d ", p_imu->time);
 1859              		.loc 1 732 9 is_stmt 1 view .LVU538
 1860 006c DFF86082 		ldr	r8, .L118+4
 1861 0070 2268     		ldr	r2, [r4]	@ unaligned
 1862 0072 4146     		mov	r1, r8
 1863 0074 2846     		mov	r0, r5
 1864 0076 FFF7FEFF 		bl	shellPrint
 1865              	.LVL140:
 733:Task/Task_BlackBox.c ****         shellPrint(p_shell, "%d ", p_imu->cyc);
 1866              		.loc 1 733 9 view .LVU539
 1867 007a 2279     		ldrb	r2, [r4, #4]	@ zero_extendqisi2
 1868 007c 4146     		mov	r1, r8
 1869 007e 2846     		mov	r0, r5
 1870 0080 FFF7FEFF 		bl	shellPrint
 1871              	.LVL141:
 734:Task/Task_BlackBox.c ****         shellPrint(p_shell, "%d ", p_imu->throttle_percent);
 1872              		.loc 1 734 9 view .LVU540
 1873 0084 94F82520 		ldrb	r2, [r4, #37]	@ zero_extendqisi2
 1874 0088 4146     		mov	r1, r8
 1875 008a 2846     		mov	r0, r5
 1876 008c FFF7FEFF 		bl	shellPrint
 1877              	.LVL142:
 735:Task/Task_BlackBox.c ****         shellPrint(p_shell, "%f ", p_imu->org_acc[Axis_X] / p_imu->acc_scale);
 1878              		.loc 1 735 9 view .LVU541
 1879              		.loc 1 735 50 is_stmt 0 view .LVU542
 1880 0090 B4F90D30 		ldrsh	r3, [r4, #13]	@ unaligned
ARM GAS  C:\Users\8bit\AppData\Local\Temp\ccdInZoL.s 			page 55


 1881 0094 07EE903A 		vmov	s15, r3	@ int
 1882              		.loc 1 735 66 view .LVU543
 1883 0098 D4F80500 		ldr	r0, [r4, #5]	@ unaligned
 1884              		.loc 1 735 59 view .LVU544
 1885 009c F8EEE77A 		vcvt.f32.s32	s15, s15
 1886              		.loc 1 735 9 view .LVU545
 1887 00a0 07EE100A 		vmov	s14, r0
 1888 00a4 C7EE877A 		vdiv.f32	s15, s15, s14
 1889 00a8 17EE900A 		vmov	r0, s15
 1890 00ac FFF7FEFF 		bl	__aeabi_f2d
 1891              	.LVL143:
 1892 00b0 0246     		mov	r2, r0
 1893 00b2 0B46     		mov	r3, r1
 1894 00b4 DFF81C82 		ldr	r8, .L118+8
 1895 00b8 4146     		mov	r1, r8
 1896 00ba 2846     		mov	r0, r5
 1897 00bc FFF7FEFF 		bl	shellPrint
 1898              	.LVL144:
 736:Task/Task_BlackBox.c ****         shellPrint(p_shell, "%f ", p_imu->org_acc[Axis_Y] / p_imu->acc_scale);
 1899              		.loc 1 736 9 is_stmt 1 view .LVU546
 1900              		.loc 1 736 50 is_stmt 0 view .LVU547
 1901 00c0 B4F90F30 		ldrsh	r3, [r4, #15]	@ unaligned
 1902 00c4 07EE903A 		vmov	s15, r3	@ int
 1903              		.loc 1 736 66 view .LVU548
 1904 00c8 D4F80500 		ldr	r0, [r4, #5]	@ unaligned
 1905              		.loc 1 736 59 view .LVU549
 1906 00cc F8EEE77A 		vcvt.f32.s32	s15, s15
 1907              		.loc 1 736 9 view .LVU550
 1908 00d0 07EE100A 		vmov	s14, r0
 1909 00d4 C7EE877A 		vdiv.f32	s15, s15, s14
 1910 00d8 17EE900A 		vmov	r0, s15
 1911 00dc FFF7FEFF 		bl	__aeabi_f2d
 1912              	.LVL145:
 1913 00e0 0246     		mov	r2, r0
 1914 00e2 0B46     		mov	r3, r1
 1915 00e4 4146     		mov	r1, r8
 1916 00e6 2846     		mov	r0, r5
 1917 00e8 FFF7FEFF 		bl	shellPrint
 1918              	.LVL146:
 737:Task/Task_BlackBox.c ****         shellPrint(p_shell, "%f ", p_imu->org_acc[Axis_Z] / p_imu->acc_scale);
 1919              		.loc 1 737 9 is_stmt 1 view .LVU551
 1920              		.loc 1 737 50 is_stmt 0 view .LVU552
 1921 00ec B4F91130 		ldrsh	r3, [r4, #17]	@ unaligned
 1922 00f0 07EE903A 		vmov	s15, r3	@ int
 1923              		.loc 1 737 66 view .LVU553
 1924 00f4 D4F80500 		ldr	r0, [r4, #5]	@ unaligned
 1925              		.loc 1 737 59 view .LVU554
 1926 00f8 F8EEE77A 		vcvt.f32.s32	s15, s15
 1927              		.loc 1 737 9 view .LVU555
 1928 00fc 07EE100A 		vmov	s14, r0
 1929 0100 C7EE877A 		vdiv.f32	s15, s15, s14
 1930 0104 17EE900A 		vmov	r0, s15
 1931 0108 FFF7FEFF 		bl	__aeabi_f2d
 1932              	.LVL147:
 1933 010c 0246     		mov	r2, r0
 1934 010e 0B46     		mov	r3, r1
 1935 0110 4146     		mov	r1, r8
ARM GAS  C:\Users\8bit\AppData\Local\Temp\ccdInZoL.s 			page 56


 1936 0112 2846     		mov	r0, r5
 1937 0114 FFF7FEFF 		bl	shellPrint
 1938              	.LVL148:
 738:Task/Task_BlackBox.c ****         shellPrint(p_shell, "%f ", p_imu->flt_acc[Axis_X] / p_imu->acc_scale);
 1939              		.loc 1 738 9 is_stmt 1 view .LVU556
 1940              		.loc 1 738 50 is_stmt 0 view .LVU557
 1941 0118 B4F91930 		ldrsh	r3, [r4, #25]	@ unaligned
 1942 011c 07EE903A 		vmov	s15, r3	@ int
 1943              		.loc 1 738 66 view .LVU558
 1944 0120 D4F80500 		ldr	r0, [r4, #5]	@ unaligned
 1945              		.loc 1 738 59 view .LVU559
 1946 0124 F8EEE77A 		vcvt.f32.s32	s15, s15
 1947              		.loc 1 738 9 view .LVU560
 1948 0128 07EE100A 		vmov	s14, r0
 1949 012c C7EE877A 		vdiv.f32	s15, s15, s14
 1950 0130 17EE900A 		vmov	r0, s15
 1951 0134 FFF7FEFF 		bl	__aeabi_f2d
 1952              	.LVL149:
 1953 0138 0246     		mov	r2, r0
 1954 013a 0B46     		mov	r3, r1
 1955 013c 4146     		mov	r1, r8
 1956 013e 2846     		mov	r0, r5
 1957 0140 FFF7FEFF 		bl	shellPrint
 1958              	.LVL150:
 739:Task/Task_BlackBox.c ****         shellPrint(p_shell, "%f ", p_imu->flt_acc[Axis_Y] / p_imu->acc_scale);
 1959              		.loc 1 739 9 is_stmt 1 view .LVU561
 1960              		.loc 1 739 50 is_stmt 0 view .LVU562
 1961 0144 B4F91B30 		ldrsh	r3, [r4, #27]	@ unaligned
 1962 0148 07EE903A 		vmov	s15, r3	@ int
 1963              		.loc 1 739 66 view .LVU563
 1964 014c D4F80500 		ldr	r0, [r4, #5]	@ unaligned
 1965              		.loc 1 739 59 view .LVU564
 1966 0150 F8EEE77A 		vcvt.f32.s32	s15, s15
 1967              		.loc 1 739 9 view .LVU565
 1968 0154 07EE100A 		vmov	s14, r0
 1969 0158 C7EE877A 		vdiv.f32	s15, s15, s14
 1970 015c 17EE900A 		vmov	r0, s15
 1971 0160 FFF7FEFF 		bl	__aeabi_f2d
 1972              	.LVL151:
 1973 0164 0246     		mov	r2, r0
 1974 0166 0B46     		mov	r3, r1
 1975 0168 4146     		mov	r1, r8
 1976 016a 2846     		mov	r0, r5
 1977 016c FFF7FEFF 		bl	shellPrint
 1978              	.LVL152:
 740:Task/Task_BlackBox.c ****         shellPrint(p_shell, "%f ", p_imu->flt_acc[Axis_Z] / p_imu->acc_scale);
 1979              		.loc 1 740 9 is_stmt 1 view .LVU566
 1980              		.loc 1 740 50 is_stmt 0 view .LVU567
 1981 0170 B4F91D30 		ldrsh	r3, [r4, #29]	@ unaligned
 1982 0174 07EE903A 		vmov	s15, r3	@ int
 1983              		.loc 1 740 66 view .LVU568
 1984 0178 D4F80500 		ldr	r0, [r4, #5]	@ unaligned
 1985              		.loc 1 740 59 view .LVU569
 1986 017c F8EEE77A 		vcvt.f32.s32	s15, s15
 1987              		.loc 1 740 9 view .LVU570
 1988 0180 07EE100A 		vmov	s14, r0
 1989 0184 C7EE877A 		vdiv.f32	s15, s15, s14
ARM GAS  C:\Users\8bit\AppData\Local\Temp\ccdInZoL.s 			page 57


 1990 0188 17EE900A 		vmov	r0, s15
 1991 018c FFF7FEFF 		bl	__aeabi_f2d
 1992              	.LVL153:
 1993 0190 0246     		mov	r2, r0
 1994 0192 0B46     		mov	r3, r1
 1995 0194 4146     		mov	r1, r8
 1996 0196 2846     		mov	r0, r5
 1997 0198 FFF7FEFF 		bl	shellPrint
 1998              	.LVL154:
 741:Task/Task_BlackBox.c ****         shellPrint(p_shell, "%f ", p_imu->org_gyr[Axis_X] / p_imu->gyr_scale);
 1999              		.loc 1 741 9 is_stmt 1 view .LVU571
 2000              		.loc 1 741 50 is_stmt 0 view .LVU572
 2001 019c B4F91330 		ldrsh	r3, [r4, #19]	@ unaligned
 2002 01a0 07EE903A 		vmov	s15, r3	@ int
 2003              		.loc 1 741 66 view .LVU573
 2004 01a4 D4F80900 		ldr	r0, [r4, #9]	@ unaligned
 2005              		.loc 1 741 59 view .LVU574
 2006 01a8 F8EEE77A 		vcvt.f32.s32	s15, s15
 2007              		.loc 1 741 9 view .LVU575
 2008 01ac 07EE100A 		vmov	s14, r0
 2009 01b0 C7EE877A 		vdiv.f32	s15, s15, s14
 2010 01b4 17EE900A 		vmov	r0, s15
 2011 01b8 FFF7FEFF 		bl	__aeabi_f2d
 2012              	.LVL155:
 2013 01bc 0246     		mov	r2, r0
 2014 01be 0B46     		mov	r3, r1
 2015 01c0 4146     		mov	r1, r8
 2016 01c2 2846     		mov	r0, r5
 2017 01c4 FFF7FEFF 		bl	shellPrint
 2018              	.LVL156:
 742:Task/Task_BlackBox.c ****         shellPrint(p_shell, "%f ", p_imu->org_gyr[Axis_Y] / p_imu->gyr_scale);
 2019              		.loc 1 742 9 is_stmt 1 view .LVU576
 2020              		.loc 1 742 50 is_stmt 0 view .LVU577
 2021 01c8 B4F91530 		ldrsh	r3, [r4, #21]	@ unaligned
 2022 01cc 07EE903A 		vmov	s15, r3	@ int
 2023              		.loc 1 742 66 view .LVU578
 2024 01d0 D4F80900 		ldr	r0, [r4, #9]	@ unaligned
 2025              		.loc 1 742 59 view .LVU579
 2026 01d4 F8EEE77A 		vcvt.f32.s32	s15, s15
 2027              		.loc 1 742 9 view .LVU580
 2028 01d8 07EE100A 		vmov	s14, r0
 2029 01dc C7EE877A 		vdiv.f32	s15, s15, s14
 2030 01e0 17EE900A 		vmov	r0, s15
 2031 01e4 FFF7FEFF 		bl	__aeabi_f2d
 2032              	.LVL157:
 2033 01e8 0246     		mov	r2, r0
 2034 01ea 0B46     		mov	r3, r1
 2035 01ec 4146     		mov	r1, r8
 2036 01ee 2846     		mov	r0, r5
 2037 01f0 FFF7FEFF 		bl	shellPrint
 2038              	.LVL158:
 743:Task/Task_BlackBox.c ****         shellPrint(p_shell, "%f ", p_imu->org_gyr[Axis_Z] / p_imu->gyr_scale);
 2039              		.loc 1 743 9 is_stmt 1 view .LVU581
 2040              		.loc 1 743 50 is_stmt 0 view .LVU582
 2041 01f4 B4F91730 		ldrsh	r3, [r4, #23]	@ unaligned
 2042 01f8 07EE903A 		vmov	s15, r3	@ int
 2043              		.loc 1 743 66 view .LVU583
ARM GAS  C:\Users\8bit\AppData\Local\Temp\ccdInZoL.s 			page 58


 2044 01fc D4F80900 		ldr	r0, [r4, #9]	@ unaligned
 2045              		.loc 1 743 59 view .LVU584
 2046 0200 F8EEE77A 		vcvt.f32.s32	s15, s15
 2047              		.loc 1 743 9 view .LVU585
 2048 0204 07EE100A 		vmov	s14, r0
 2049 0208 C7EE877A 		vdiv.f32	s15, s15, s14
 2050 020c 17EE900A 		vmov	r0, s15
 2051 0210 FFF7FEFF 		bl	__aeabi_f2d
 2052              	.LVL159:
 2053 0214 0246     		mov	r2, r0
 2054 0216 0B46     		mov	r3, r1
 2055 0218 4146     		mov	r1, r8
 2056 021a 2846     		mov	r0, r5
 2057 021c FFF7FEFF 		bl	shellPrint
 2058              	.LVL160:
 744:Task/Task_BlackBox.c ****         shellPrint(p_shell, "%f ", p_imu->flt_gyr[Axis_X] / p_imu->gyr_scale);
 2059              		.loc 1 744 9 is_stmt 1 view .LVU586
 2060              		.loc 1 744 50 is_stmt 0 view .LVU587
 2061 0220 B4F91F30 		ldrsh	r3, [r4, #31]	@ unaligned
 2062 0224 07EE903A 		vmov	s15, r3	@ int
 2063              		.loc 1 744 66 view .LVU588
 2064 0228 D4F80900 		ldr	r0, [r4, #9]	@ unaligned
 2065              		.loc 1 744 59 view .LVU589
 2066 022c F8EEE77A 		vcvt.f32.s32	s15, s15
 2067              		.loc 1 744 9 view .LVU590
 2068 0230 07EE100A 		vmov	s14, r0
 2069 0234 C7EE877A 		vdiv.f32	s15, s15, s14
 2070 0238 17EE900A 		vmov	r0, s15
 2071 023c FFF7FEFF 		bl	__aeabi_f2d
 2072              	.LVL161:
 2073 0240 0246     		mov	r2, r0
 2074 0242 0B46     		mov	r3, r1
 2075 0244 4146     		mov	r1, r8
 2076 0246 2846     		mov	r0, r5
 2077 0248 FFF7FEFF 		bl	shellPrint
 2078              	.LVL162:
 745:Task/Task_BlackBox.c ****         shellPrint(p_shell, "%f ", p_imu->flt_gyr[Axis_Y] / p_imu->gyr_scale);
 2079              		.loc 1 745 9 is_stmt 1 view .LVU591
 2080              		.loc 1 745 50 is_stmt 0 view .LVU592
 2081 024c B4F92130 		ldrsh	r3, [r4, #33]	@ unaligned
 2082 0250 07EE903A 		vmov	s15, r3	@ int
 2083              		.loc 1 745 66 view .LVU593
 2084 0254 D4F80900 		ldr	r0, [r4, #9]	@ unaligned
 2085              		.loc 1 745 59 view .LVU594
 2086 0258 F8EEE77A 		vcvt.f32.s32	s15, s15
 2087              		.loc 1 745 9 view .LVU595
 2088 025c 07EE100A 		vmov	s14, r0
 2089 0260 C7EE877A 		vdiv.f32	s15, s15, s14
 2090 0264 17EE900A 		vmov	r0, s15
 2091 0268 FFF7FEFF 		bl	__aeabi_f2d
 2092              	.LVL163:
 2093 026c 0246     		mov	r2, r0
 2094 026e 0B46     		mov	r3, r1
 2095 0270 4146     		mov	r1, r8
 2096 0272 2846     		mov	r0, r5
 2097 0274 FFF7FEFF 		bl	shellPrint
 2098              	.LVL164:
ARM GAS  C:\Users\8bit\AppData\Local\Temp\ccdInZoL.s 			page 59


 746:Task/Task_BlackBox.c ****         shellPrint(p_shell, "%f\r\n", p_imu->flt_gyr[Axis_Z] / p_imu->gyr_scale);
 2099              		.loc 1 746 9 is_stmt 1 view .LVU596
 2100              		.loc 1 746 53 is_stmt 0 view .LVU597
 2101 0278 B4F92330 		ldrsh	r3, [r4, #35]	@ unaligned
 2102 027c 07EE903A 		vmov	s15, r3	@ int
 2103              		.loc 1 746 69 view .LVU598
 2104 0280 D4F80900 		ldr	r0, [r4, #9]	@ unaligned
 2105              		.loc 1 746 62 view .LVU599
 2106 0284 F8EEE77A 		vcvt.f32.s32	s15, s15
 2107              		.loc 1 746 9 view .LVU600
 2108 0288 07EE100A 		vmov	s14, r0
 2109 028c C7EE877A 		vdiv.f32	s15, s15, s14
 2110 0290 17EE900A 		vmov	r0, s15
 2111 0294 FFF7FEFF 		bl	__aeabi_f2d
 2112              	.LVL165:
 2113 0298 0246     		mov	r2, r0
 2114 029a 0B46     		mov	r3, r1
 2115 029c 0B49     		ldr	r1, .L118
 2116 029e 2846     		mov	r0, r5
 2117 02a0 FFF7FEFF 		bl	shellPrint
 2118              	.LVL166:
 2119              	.L108:
 747:Task/Task_BlackBox.c ****     }
 748:Task/Task_BlackBox.c **** 
 749:Task/Task_BlackBox.c ****     *p_data += sizeof(BlackBox_IMUData_TypeDef);
 2120              		.loc 1 749 5 is_stmt 1 view .LVU601
 2121              		.loc 1 749 13 is_stmt 0 view .LVU602
 2122 02a4 3368     		ldr	r3, [r6]
 2123 02a6 2633     		adds	r3, r3, #38
 2124 02a8 3360     		str	r3, [r6]
 750:Task/Task_BlackBox.c ****     *len -= sizeof(BlackBox_IMUData_TypeDef);
 2125              		.loc 1 750 5 is_stmt 1 view .LVU603
 2126              		.loc 1 750 10 is_stmt 0 view .LVU604
 2127 02aa 3B68     		ldr	r3, [r7]
 2128 02ac 263B     		subs	r3, r3, #38
 2129 02ae 3B60     		str	r3, [r7]
 751:Task/Task_BlackBox.c ****     return BlackBox_Cnv_None_Error;
 2130              		.loc 1 751 5 is_stmt 1 view .LVU605
 2131              		.loc 1 751 12 is_stmt 0 view .LVU606
 2132 02b0 0020     		movs	r0, #0
 2133              	.L106:
 752:Task/Task_BlackBox.c **** }
 2134              		.loc 1 752 1 view .LVU607
 2135 02b2 BDE8F081 		pop	{r4, r5, r6, r7, r8, pc}
 2136              	.LVL167:
 2137              	.L109:
 2138              	.LCFI18:
 2139              		.cfi_def_cfa_offset 0
 2140              		.cfi_restore 4
 2141              		.cfi_restore 5
 2142              		.cfi_restore 6
 2143              		.cfi_restore 7
 2144              		.cfi_restore 8
 2145              		.cfi_restore 14
 727:Task/Task_BlackBox.c **** 
 2146              		.loc 1 727 16 view .LVU608
 2147 02b6 0220     		movs	r0, #2
ARM GAS  C:\Users\8bit\AppData\Local\Temp\ccdInZoL.s 			page 60


 2148              	.LVL168:
 2149              		.loc 1 752 1 view .LVU609
 2150 02b8 7047     		bx	lr
 2151              	.LVL169:
 2152              	.L110:
 2153              	.LCFI19:
 2154              		.cfi_def_cfa_offset 24
 2155              		.cfi_offset 4, -24
 2156              		.cfi_offset 5, -20
 2157              		.cfi_offset 6, -16
 2158              		.cfi_offset 7, -12
 2159              		.cfi_offset 8, -8
 2160              		.cfi_offset 14, -4
 727:Task/Task_BlackBox.c **** 
 2161              		.loc 1 727 16 view .LVU610
 2162 02ba 0220     		movs	r0, #2
 2163              	.LVL170:
 727:Task/Task_BlackBox.c **** 
 2164              		.loc 1 727 16 view .LVU611
 2165 02bc F9E7     		b	.L106
 2166              	.LVL171:
 2167              	.L111:
 727:Task/Task_BlackBox.c **** 
 2168              		.loc 1 727 16 view .LVU612
 2169 02be 0220     		movs	r0, #2
 2170              	.LVL172:
 727:Task/Task_BlackBox.c **** 
 2171              		.loc 1 727 16 view .LVU613
 2172 02c0 F7E7     		b	.L106
 2173              	.LVL173:
 2174              	.L112:
 727:Task/Task_BlackBox.c **** 
 2175              		.loc 1 727 16 view .LVU614
 2176 02c2 0220     		movs	r0, #2
 2177              	.LVL174:
 727:Task/Task_BlackBox.c **** 
 2178              		.loc 1 727 16 view .LVU615
 2179 02c4 F5E7     		b	.L106
 2180              	.LVL175:
 2181              	.L113:
 727:Task/Task_BlackBox.c **** 
 2182              		.loc 1 727 16 view .LVU616
 2183 02c6 0220     		movs	r0, #2
 2184              	.LVL176:
 727:Task/Task_BlackBox.c **** 
 2185              		.loc 1 727 16 view .LVU617
 2186 02c8 F3E7     		b	.L106
 2187              	.L119:
 2188 02ca 00BF     		.align	2
 2189              	.L118:
 2190 02cc 08000000 		.word	.LC27
 2191 02d0 00000000 		.word	.LC25
 2192 02d4 04000000 		.word	.LC26
 2193              		.cfi_endproc
 2194              	.LFE2084:
 2196              		.section	.text.TaskBlackBox_ConvertLogData_To_Alt_Att,"ax",%progbits
 2197              		.align	1
ARM GAS  C:\Users\8bit\AppData\Local\Temp\ccdInZoL.s 			page 61


 2198              		.syntax unified
 2199              		.thumb
 2200              		.thumb_func
 2202              	TaskBlackBox_ConvertLogData_To_Alt_Att:
 2203              	.LVL177:
 2204              	.LFB2085:
 753:Task/Task_BlackBox.c **** 
 754:Task/Task_BlackBox.c **** /* attitude altitude log data */
 755:Task/Task_BlackBox.c **** static BlackBox_ConvertError_List TaskBlackBox_ConvertLogData_To_Alt_Att(Shell *p_shell, BlackBox_A
 756:Task/Task_BlackBox.c **** {
 2205              		.loc 1 756 1 is_stmt 1 view -0
 2206              		.cfi_startproc
 2207              		@ args = 0, pretend = 0, frame = 0
 2208              		@ frame_needed = 0, uses_anonymous_args = 0
 757:Task/Task_BlackBox.c ****     if ((p_att_alt == NULL) || \
 2209              		.loc 1 757 5 view .LVU619
 2210              		.loc 1 757 8 is_stmt 0 view .LVU620
 2211 0000 0029     		cmp	r1, #0
 2212 0002 00F0F180 		beq	.L124
 756:Task/Task_BlackBox.c ****     if ((p_att_alt == NULL) || \
 2213              		.loc 1 756 1 discriminator 1 view .LVU621
 2214 0006 2DE9F041 		push	{r4, r5, r6, r7, r8, lr}
 2215              	.LCFI20:
 2216              		.cfi_def_cfa_offset 24
 2217              		.cfi_offset 4, -24
 2218              		.cfi_offset 5, -20
 2219              		.cfi_offset 6, -16
 2220              		.cfi_offset 7, -12
 2221              		.cfi_offset 8, -8
 2222              		.cfi_offset 14, -4
 2223 000a 0446     		mov	r4, r0
 2224 000c 1546     		mov	r5, r2
 2225 000e 1F46     		mov	r7, r3
 2226 0010 0E46     		mov	r6, r1
 2227              		.loc 1 757 29 discriminator 1 view .LVU622
 2228 0012 002A     		cmp	r2, #0
 2229 0014 00F0EA80 		beq	.L125
 758:Task/Task_BlackBox.c ****         (p_data == NULL) || \
 759:Task/Task_BlackBox.c ****         (*p_data == NULL) || \
 2230              		.loc 1 759 10 view .LVU623
 2231 0018 1368     		ldr	r3, [r2]
 2232              	.LVL178:
 758:Task/Task_BlackBox.c ****         (p_data == NULL) || \
 2233              		.loc 1 758 26 view .LVU624
 2234 001a 002B     		cmp	r3, #0
 2235 001c 00F0E880 		beq	.L126
 2236              		.loc 1 759 27 view .LVU625
 2237 0020 002F     		cmp	r7, #0
 2238 0022 00F0E780 		beq	.L127
 760:Task/Task_BlackBox.c ****         (len == NULL) || \
 761:Task/Task_BlackBox.c ****         (*len < sizeof(BlackBox_AttAltData_TypeDef)))
 2239              		.loc 1 761 10 view .LVU626
 2240 0026 3A68     		ldr	r2, [r7]
 2241              	.LVL179:
 760:Task/Task_BlackBox.c ****         (len == NULL) || \
 2242              		.loc 1 760 23 view .LVU627
 2243 0028 2B2A     		cmp	r2, #43
ARM GAS  C:\Users\8bit\AppData\Local\Temp\ccdInZoL.s 			page 62


 2244 002a 40F2E580 		bls	.L128
 762:Task/Task_BlackBox.c ****         return BlackBox_Cnv_Size_Error;
 763:Task/Task_BlackBox.c **** 
 764:Task/Task_BlackBox.c ****     memcpy(p_att_alt, *p_data, sizeof(BlackBox_AttAltData_TypeDef));
 2245              		.loc 1 764 5 is_stmt 1 view .LVU628
 2246 002e 1946     		mov	r1, r3
 2247              	.LVL180:
 2248              		.loc 1 764 5 is_stmt 0 view .LVU629
 2249 0030 B446     		mov	ip, r6
 2250 0032 2033     		adds	r3, r3, #32
 2251              	.LVL181:
 2252              	.L122:
 2253              		.loc 1 764 5 view .LVU630
 2254 0034 D1F80080 		ldr	r8, [r1]	@ unaligned
 2255 0038 D1F804E0 		ldr	lr, [r1, #4]	@ unaligned
 2256 003c 8868     		ldr	r0, [r1, #8]	@ unaligned
 2257 003e CA68     		ldr	r2, [r1, #12]	@ unaligned
 2258 0040 CCF80080 		str	r8, [ip]	@ unaligned
 2259 0044 CCF804E0 		str	lr, [ip, #4]	@ unaligned
 2260 0048 CCF80800 		str	r0, [ip, #8]	@ unaligned
 2261 004c CCF80C20 		str	r2, [ip, #12]	@ unaligned
 2262 0050 1031     		adds	r1, r1, #16
 2263 0052 0CF1100C 		add	ip, ip, #16
 2264 0056 9942     		cmp	r1, r3
 2265 0058 ECD1     		bne	.L122
 2266 005a 0868     		ldr	r0, [r1]	@ unaligned
 2267 005c 4A68     		ldr	r2, [r1, #4]	@ unaligned
 2268 005e 8B68     		ldr	r3, [r1, #8]	@ unaligned
 2269 0060 CCF80000 		str	r0, [ip]	@ unaligned
 2270 0064 CCF80420 		str	r2, [ip, #4]	@ unaligned
 2271 0068 CCF80830 		str	r3, [ip, #8]	@ unaligned
 765:Task/Task_BlackBox.c ****     if (p_shell)
 2272              		.loc 1 765 5 is_stmt 1 view .LVU631
 2273              		.loc 1 765 8 is_stmt 0 view .LVU632
 2274 006c 002C     		cmp	r4, #0
 2275 006e 00F0B280 		beq	.L123
 766:Task/Task_BlackBox.c ****     {
 767:Task/Task_BlackBox.c ****         shellPrint(p_shell, "%d ", p_att_alt->time);
 2276              		.loc 1 767 9 is_stmt 1 view .LVU633
 2277 0072 3268     		ldr	r2, [r6]	@ unaligned
 2278 0074 6149     		ldr	r1, .L133
 2279 0076 2046     		mov	r0, r4
 2280 0078 FFF7FEFF 		bl	shellPrint
 2281              	.LVL182:
 768:Task/Task_BlackBox.c ****         shellPrint(p_shell, "%f ", p_att_alt->baro);
 2282              		.loc 1 768 9 view .LVU634
 2283              		.loc 1 768 45 is_stmt 0 view .LVU635
 2284 007c 7068     		ldr	r0, [r6, #4]	@ unaligned
 2285              		.loc 1 768 9 view .LVU636
 2286 007e FFF7FEFF 		bl	__aeabi_f2d
 2287              	.LVL183:
 2288 0082 0246     		mov	r2, r0
 2289 0084 0B46     		mov	r3, r1
 2290 0086 DFF87C81 		ldr	r8, .L133+8
 2291 008a 4146     		mov	r1, r8
 2292 008c 2046     		mov	r0, r4
 2293 008e FFF7FEFF 		bl	shellPrint
ARM GAS  C:\Users\8bit\AppData\Local\Temp\ccdInZoL.s 			page 63


 2294              	.LVL184:
 769:Task/Task_BlackBox.c ****         shellPrint(p_shell, "%f ", p_att_alt->acc[Axis_X] / p_att_alt->acc_scale);
 2295              		.loc 1 769 9 is_stmt 1 view .LVU637
 2296              		.loc 1 769 50 is_stmt 0 view .LVU638
 2297 0092 B6F91030 		ldrsh	r3, [r6, #16]	@ unaligned
 2298 0096 07EE903A 		vmov	s15, r3	@ int
 2299              		.loc 1 769 70 view .LVU639
 2300 009a B068     		ldr	r0, [r6, #8]	@ unaligned
 2301              		.loc 1 769 59 view .LVU640
 2302 009c F8EEE77A 		vcvt.f32.s32	s15, s15
 2303              		.loc 1 769 9 view .LVU641
 2304 00a0 07EE100A 		vmov	s14, r0
 2305 00a4 C7EE877A 		vdiv.f32	s15, s15, s14
 2306 00a8 17EE900A 		vmov	r0, s15
 2307 00ac FFF7FEFF 		bl	__aeabi_f2d
 2308              	.LVL185:
 2309 00b0 0246     		mov	r2, r0
 2310 00b2 0B46     		mov	r3, r1
 2311 00b4 4146     		mov	r1, r8
 2312 00b6 2046     		mov	r0, r4
 2313 00b8 FFF7FEFF 		bl	shellPrint
 2314              	.LVL186:
 770:Task/Task_BlackBox.c ****         shellPrint(p_shell, "%f ", p_att_alt->acc[Axis_Y] / p_att_alt->acc_scale);
 2315              		.loc 1 770 9 is_stmt 1 view .LVU642
 2316              		.loc 1 770 50 is_stmt 0 view .LVU643
 2317 00bc B6F91230 		ldrsh	r3, [r6, #18]	@ unaligned
 2318 00c0 07EE903A 		vmov	s15, r3	@ int
 2319              		.loc 1 770 70 view .LVU644
 2320 00c4 B068     		ldr	r0, [r6, #8]	@ unaligned
 2321              		.loc 1 770 59 view .LVU645
 2322 00c6 F8EEE77A 		vcvt.f32.s32	s15, s15
 2323              		.loc 1 770 9 view .LVU646
 2324 00ca 07EE100A 		vmov	s14, r0
 2325 00ce C7EE877A 		vdiv.f32	s15, s15, s14
 2326 00d2 17EE900A 		vmov	r0, s15
 2327 00d6 FFF7FEFF 		bl	__aeabi_f2d
 2328              	.LVL187:
 2329 00da 0246     		mov	r2, r0
 2330 00dc 0B46     		mov	r3, r1
 2331 00de 4146     		mov	r1, r8
 2332 00e0 2046     		mov	r0, r4
 2333 00e2 FFF7FEFF 		bl	shellPrint
 2334              	.LVL188:
 771:Task/Task_BlackBox.c ****         shellPrint(p_shell, "%f ", p_att_alt->acc[Axis_Z] / p_att_alt->acc_scale);
 2335              		.loc 1 771 9 is_stmt 1 view .LVU647
 2336              		.loc 1 771 50 is_stmt 0 view .LVU648
 2337 00e6 B6F91430 		ldrsh	r3, [r6, #20]	@ unaligned
 2338 00ea 07EE903A 		vmov	s15, r3	@ int
 2339              		.loc 1 771 70 view .LVU649
 2340 00ee B068     		ldr	r0, [r6, #8]	@ unaligned
 2341              		.loc 1 771 59 view .LVU650
 2342 00f0 F8EEE77A 		vcvt.f32.s32	s15, s15
 2343              		.loc 1 771 9 view .LVU651
 2344 00f4 07EE100A 		vmov	s14, r0
 2345 00f8 C7EE877A 		vdiv.f32	s15, s15, s14
 2346 00fc 17EE900A 		vmov	r0, s15
 2347 0100 FFF7FEFF 		bl	__aeabi_f2d
ARM GAS  C:\Users\8bit\AppData\Local\Temp\ccdInZoL.s 			page 64


 2348              	.LVL189:
 2349 0104 0246     		mov	r2, r0
 2350 0106 0B46     		mov	r3, r1
 2351 0108 4146     		mov	r1, r8
 2352 010a 2046     		mov	r0, r4
 2353 010c FFF7FEFF 		bl	shellPrint
 2354              	.LVL190:
 772:Task/Task_BlackBox.c ****         shellPrint(p_shell, "%f ", p_att_alt->gyr[Axis_X] / p_att_alt->gyr_scale);
 2355              		.loc 1 772 9 is_stmt 1 view .LVU652
 2356              		.loc 1 772 50 is_stmt 0 view .LVU653
 2357 0110 B6F91630 		ldrsh	r3, [r6, #22]	@ unaligned
 2358 0114 07EE903A 		vmov	s15, r3	@ int
 2359              		.loc 1 772 70 view .LVU654
 2360 0118 F068     		ldr	r0, [r6, #12]	@ unaligned
 2361              		.loc 1 772 59 view .LVU655
 2362 011a F8EEE77A 		vcvt.f32.s32	s15, s15
 2363              		.loc 1 772 9 view .LVU656
 2364 011e 07EE100A 		vmov	s14, r0
 2365 0122 C7EE877A 		vdiv.f32	s15, s15, s14
 2366 0126 17EE900A 		vmov	r0, s15
 2367 012a FFF7FEFF 		bl	__aeabi_f2d
 2368              	.LVL191:
 2369 012e 0246     		mov	r2, r0
 2370 0130 0B46     		mov	r3, r1
 2371 0132 4146     		mov	r1, r8
 2372 0134 2046     		mov	r0, r4
 2373 0136 FFF7FEFF 		bl	shellPrint
 2374              	.LVL192:
 773:Task/Task_BlackBox.c ****         shellPrint(p_shell, "%f ", p_att_alt->gyr[Axis_Y] / p_att_alt->gyr_scale);
 2375              		.loc 1 773 9 is_stmt 1 view .LVU657
 2376              		.loc 1 773 50 is_stmt 0 view .LVU658
 2377 013a B6F91830 		ldrsh	r3, [r6, #24]	@ unaligned
 2378 013e 07EE903A 		vmov	s15, r3	@ int
 2379              		.loc 1 773 70 view .LVU659
 2380 0142 F068     		ldr	r0, [r6, #12]	@ unaligned
 2381              		.loc 1 773 59 view .LVU660
 2382 0144 F8EEE77A 		vcvt.f32.s32	s15, s15
 2383              		.loc 1 773 9 view .LVU661
 2384 0148 07EE100A 		vmov	s14, r0
 2385 014c C7EE877A 		vdiv.f32	s15, s15, s14
 2386 0150 17EE900A 		vmov	r0, s15
 2387 0154 FFF7FEFF 		bl	__aeabi_f2d
 2388              	.LVL193:
 2389 0158 0246     		mov	r2, r0
 2390 015a 0B46     		mov	r3, r1
 2391 015c 4146     		mov	r1, r8
 2392 015e 2046     		mov	r0, r4
 2393 0160 FFF7FEFF 		bl	shellPrint
 2394              	.LVL194:
 774:Task/Task_BlackBox.c ****         shellPrint(p_shell, "%f ", p_att_alt->gyr[Axis_Z] / p_att_alt->gyr_scale);
 2395              		.loc 1 774 9 is_stmt 1 view .LVU662
 2396              		.loc 1 774 50 is_stmt 0 view .LVU663
 2397 0164 B6F91A30 		ldrsh	r3, [r6, #26]	@ unaligned
 2398 0168 07EE903A 		vmov	s15, r3	@ int
 2399              		.loc 1 774 70 view .LVU664
 2400 016c F068     		ldr	r0, [r6, #12]	@ unaligned
 2401              		.loc 1 774 59 view .LVU665
ARM GAS  C:\Users\8bit\AppData\Local\Temp\ccdInZoL.s 			page 65


 2402 016e F8EEE77A 		vcvt.f32.s32	s15, s15
 2403              		.loc 1 774 9 view .LVU666
 2404 0172 07EE100A 		vmov	s14, r0
 2405 0176 C7EE877A 		vdiv.f32	s15, s15, s14
 2406 017a 17EE900A 		vmov	r0, s15
 2407 017e FFF7FEFF 		bl	__aeabi_f2d
 2408              	.LVL195:
 2409 0182 0246     		mov	r2, r0
 2410 0184 0B46     		mov	r3, r1
 2411 0186 4146     		mov	r1, r8
 2412 0188 2046     		mov	r0, r4
 2413 018a FFF7FEFF 		bl	shellPrint
 2414              	.LVL196:
 775:Task/Task_BlackBox.c ****         shellPrint(p_shell, "%f ", p_att_alt->pitch);
 2415              		.loc 1 775 9 is_stmt 1 view .LVU667
 2416              		.loc 1 775 45 is_stmt 0 view .LVU668
 2417 018e F069     		ldr	r0, [r6, #28]	@ unaligned
 2418              		.loc 1 775 9 view .LVU669
 2419 0190 FFF7FEFF 		bl	__aeabi_f2d
 2420              	.LVL197:
 2421 0194 0246     		mov	r2, r0
 2422 0196 0B46     		mov	r3, r1
 2423 0198 4146     		mov	r1, r8
 2424 019a 2046     		mov	r0, r4
 2425 019c FFF7FEFF 		bl	shellPrint
 2426              	.LVL198:
 776:Task/Task_BlackBox.c ****         shellPrint(p_shell, "%f ", p_att_alt->roll);
 2427              		.loc 1 776 9 is_stmt 1 view .LVU670
 2428              		.loc 1 776 45 is_stmt 0 view .LVU671
 2429 01a0 306A     		ldr	r0, [r6, #32]	@ unaligned
 2430              		.loc 1 776 9 view .LVU672
 2431 01a2 FFF7FEFF 		bl	__aeabi_f2d
 2432              	.LVL199:
 2433 01a6 0246     		mov	r2, r0
 2434 01a8 0B46     		mov	r3, r1
 2435 01aa 4146     		mov	r1, r8
 2436 01ac 2046     		mov	r0, r4
 2437 01ae FFF7FEFF 		bl	shellPrint
 2438              	.LVL200:
 777:Task/Task_BlackBox.c ****         shellPrint(p_shell, "%f ", p_att_alt->yaw);
 2439              		.loc 1 777 9 is_stmt 1 view .LVU673
 2440              		.loc 1 777 45 is_stmt 0 view .LVU674
 2441 01b2 706A     		ldr	r0, [r6, #36]	@ unaligned
 2442              		.loc 1 777 9 view .LVU675
 2443 01b4 FFF7FEFF 		bl	__aeabi_f2d
 2444              	.LVL201:
 2445 01b8 0246     		mov	r2, r0
 2446 01ba 0B46     		mov	r3, r1
 2447 01bc 4146     		mov	r1, r8
 2448 01be 2046     		mov	r0, r4
 2449 01c0 FFF7FEFF 		bl	shellPrint
 2450              	.LVL202:
 778:Task/Task_BlackBox.c ****         shellPrint(p_shell, "%f\r\n", p_att_alt->alt);
 2451              		.loc 1 778 9 is_stmt 1 view .LVU676
 2452              		.loc 1 778 48 is_stmt 0 view .LVU677
 2453 01c4 B06A     		ldr	r0, [r6, #40]	@ unaligned
 2454              		.loc 1 778 9 view .LVU678
ARM GAS  C:\Users\8bit\AppData\Local\Temp\ccdInZoL.s 			page 66


 2455 01c6 FFF7FEFF 		bl	__aeabi_f2d
 2456              	.LVL203:
 2457 01ca 0246     		mov	r2, r0
 2458 01cc 0B46     		mov	r3, r1
 2459 01ce 0C49     		ldr	r1, .L133+4
 2460 01d0 2046     		mov	r0, r4
 2461 01d2 FFF7FEFF 		bl	shellPrint
 2462              	.LVL204:
 2463              	.L123:
 779:Task/Task_BlackBox.c ****     }
 780:Task/Task_BlackBox.c **** 
 781:Task/Task_BlackBox.c ****     *p_data += sizeof(BlackBox_AttAltData_TypeDef);
 2464              		.loc 1 781 5 is_stmt 1 view .LVU679
 2465              		.loc 1 781 13 is_stmt 0 view .LVU680
 2466 01d6 2B68     		ldr	r3, [r5]
 2467 01d8 2C33     		adds	r3, r3, #44
 2468 01da 2B60     		str	r3, [r5]
 782:Task/Task_BlackBox.c ****     *len -= sizeof(BlackBox_AttAltData_TypeDef);
 2469              		.loc 1 782 5 is_stmt 1 view .LVU681
 2470              		.loc 1 782 10 is_stmt 0 view .LVU682
 2471 01dc 3B68     		ldr	r3, [r7]
 2472 01de 2C3B     		subs	r3, r3, #44
 2473 01e0 3B60     		str	r3, [r7]
 783:Task/Task_BlackBox.c ****     return BlackBox_Cnv_None_Error;
 2474              		.loc 1 783 5 is_stmt 1 view .LVU683
 2475              		.loc 1 783 12 is_stmt 0 view .LVU684
 2476 01e2 0020     		movs	r0, #0
 2477              	.L121:
 784:Task/Task_BlackBox.c **** }
 2478              		.loc 1 784 1 view .LVU685
 2479 01e4 BDE8F081 		pop	{r4, r5, r6, r7, r8, pc}
 2480              	.LVL205:
 2481              	.L124:
 2482              	.LCFI21:
 2483              		.cfi_def_cfa_offset 0
 2484              		.cfi_restore 4
 2485              		.cfi_restore 5
 2486              		.cfi_restore 6
 2487              		.cfi_restore 7
 2488              		.cfi_restore 8
 2489              		.cfi_restore 14
 762:Task/Task_BlackBox.c **** 
 2490              		.loc 1 762 16 view .LVU686
 2491 01e8 0220     		movs	r0, #2
 2492              	.LVL206:
 2493              		.loc 1 784 1 view .LVU687
 2494 01ea 7047     		bx	lr
 2495              	.LVL207:
 2496              	.L125:
 2497              	.LCFI22:
 2498              		.cfi_def_cfa_offset 24
 2499              		.cfi_offset 4, -24
 2500              		.cfi_offset 5, -20
 2501              		.cfi_offset 6, -16
 2502              		.cfi_offset 7, -12
 2503              		.cfi_offset 8, -8
 2504              		.cfi_offset 14, -4
ARM GAS  C:\Users\8bit\AppData\Local\Temp\ccdInZoL.s 			page 67


 762:Task/Task_BlackBox.c **** 
 2505              		.loc 1 762 16 view .LVU688
 2506 01ec 0220     		movs	r0, #2
 2507              	.LVL208:
 762:Task/Task_BlackBox.c **** 
 2508              		.loc 1 762 16 view .LVU689
 2509 01ee F9E7     		b	.L121
 2510              	.LVL209:
 2511              	.L126:
 762:Task/Task_BlackBox.c **** 
 2512              		.loc 1 762 16 view .LVU690
 2513 01f0 0220     		movs	r0, #2
 2514              	.LVL210:
 762:Task/Task_BlackBox.c **** 
 2515              		.loc 1 762 16 view .LVU691
 2516 01f2 F7E7     		b	.L121
 2517              	.LVL211:
 2518              	.L127:
 762:Task/Task_BlackBox.c **** 
 2519              		.loc 1 762 16 view .LVU692
 2520 01f4 0220     		movs	r0, #2
 2521              	.LVL212:
 762:Task/Task_BlackBox.c **** 
 2522              		.loc 1 762 16 view .LVU693
 2523 01f6 F5E7     		b	.L121
 2524              	.LVL213:
 2525              	.L128:
 762:Task/Task_BlackBox.c **** 
 2526              		.loc 1 762 16 view .LVU694
 2527 01f8 0220     		movs	r0, #2
 2528              	.LVL214:
 762:Task/Task_BlackBox.c **** 
 2529              		.loc 1 762 16 view .LVU695
 2530 01fa F3E7     		b	.L121
 2531              	.L134:
 2532              		.align	2
 2533              	.L133:
 2534 01fc 00000000 		.word	.LC25
 2535 0200 08000000 		.word	.LC27
 2536 0204 04000000 		.word	.LC26
 2537              		.cfi_endproc
 2538              	.LFE2085:
 2540              		.section	.text.TaskBlackBox_ConvertLogData_To_CtlAng,"ax",%progbits
 2541              		.align	1
 2542              		.syntax unified
 2543              		.thumb
 2544              		.thumb_func
 2546              	TaskBlackBox_ConvertLogData_To_CtlAng:
 2547              	.LVL215:
 2548              	.LFB2086:
 785:Task/Task_BlackBox.c **** 
 786:Task/Task_BlackBox.c **** /* angular control log data */
 787:Task/Task_BlackBox.c **** static BlackBox_ConvertError_List TaskBlackBox_ConvertLogData_To_CtlAng(Shell *p_shell, BlackBox_An
 788:Task/Task_BlackBox.c **** {
 2549              		.loc 1 788 1 is_stmt 1 view -0
 2550              		.cfi_startproc
 2551              		@ args = 0, pretend = 0, frame = 0
ARM GAS  C:\Users\8bit\AppData\Local\Temp\ccdInZoL.s 			page 68


 2552              		@ frame_needed = 0, uses_anonymous_args = 0
 789:Task/Task_BlackBox.c ****     if ((p_ang_ctl == NULL) || \
 2553              		.loc 1 789 5 view .LVU697
 2554              		.loc 1 789 8 is_stmt 0 view .LVU698
 2555 0000 0029     		cmp	r1, #0
 2556 0002 6FD0     		beq	.L138
 788:Task/Task_BlackBox.c ****     if ((p_ang_ctl == NULL) || \
 2557              		.loc 1 788 1 discriminator 1 view .LVU699
 2558 0004 2DE9F041 		push	{r4, r5, r6, r7, r8, lr}
 2559              	.LCFI23:
 2560              		.cfi_def_cfa_offset 24
 2561              		.cfi_offset 4, -24
 2562              		.cfi_offset 5, -20
 2563              		.cfi_offset 6, -16
 2564              		.cfi_offset 7, -12
 2565              		.cfi_offset 8, -8
 2566              		.cfi_offset 14, -4
 2567 0008 0646     		mov	r6, r0
 2568 000a 1546     		mov	r5, r2
 2569 000c 1F46     		mov	r7, r3
 2570 000e 0C46     		mov	r4, r1
 2571              		.loc 1 789 29 discriminator 1 view .LVU700
 2572 0010 002A     		cmp	r2, #0
 2573 0012 69D0     		beq	.L139
 790:Task/Task_BlackBox.c ****         (p_data == NULL) || \
 791:Task/Task_BlackBox.c ****         (*p_data == NULL) || \
 2574              		.loc 1 791 10 view .LVU701
 2575 0014 1268     		ldr	r2, [r2]
 2576              	.LVL216:
 790:Task/Task_BlackBox.c ****         (p_data == NULL) || \
 2577              		.loc 1 790 26 view .LVU702
 2578 0016 002A     		cmp	r2, #0
 2579 0018 68D0     		beq	.L140
 2580              		.loc 1 791 27 view .LVU703
 2581 001a 002B     		cmp	r3, #0
 2582 001c 68D0     		beq	.L141
 792:Task/Task_BlackBox.c ****         (len == NULL) || \
 793:Task/Task_BlackBox.c ****         (*len < sizeof(BlackBox_AngCtlData_TypeDef)))
 2583              		.loc 1 793 10 view .LVU704
 2584 001e 1B68     		ldr	r3, [r3]
 2585              	.LVL217:
 792:Task/Task_BlackBox.c ****         (len == NULL) || \
 2586              		.loc 1 792 23 view .LVU705
 2587 0020 1C2B     		cmp	r3, #28
 2588 0022 67D9     		bls	.L142
 794:Task/Task_BlackBox.c ****         return BlackBox_Cnv_Size_Error;
 795:Task/Task_BlackBox.c ****     
 796:Task/Task_BlackBox.c ****     memcpy(p_ang_ctl, *p_data, sizeof(BlackBox_AngCtlData_TypeDef));
 2589              		.loc 1 796 5 is_stmt 1 view .LVU706
 2590 0024 1068     		ldr	r0, [r2]	@ unaligned
 2591              	.LVL218:
 2592              		.loc 1 796 5 is_stmt 0 view .LVU707
 2593 0026 5168     		ldr	r1, [r2, #4]	@ unaligned
 2594              	.LVL219:
 2595              		.loc 1 796 5 view .LVU708
 2596 0028 9368     		ldr	r3, [r2, #8]	@ unaligned
 2597 002a D2F80CC0 		ldr	ip, [r2, #12]	@ unaligned
ARM GAS  C:\Users\8bit\AppData\Local\Temp\ccdInZoL.s 			page 69


 2598 002e 2060     		str	r0, [r4]	@ unaligned
 2599 0030 6160     		str	r1, [r4, #4]	@ unaligned
 2600 0032 A360     		str	r3, [r4, #8]	@ unaligned
 2601 0034 C4F80CC0 		str	ip, [r4, #12]	@ unaligned
 2602 0038 1069     		ldr	r0, [r2, #16]	@ unaligned
 2603 003a 5169     		ldr	r1, [r2, #20]	@ unaligned
 2604 003c 9369     		ldr	r3, [r2, #24]	@ unaligned
 2605 003e 2061     		str	r0, [r4, #16]	@ unaligned
 2606 0040 6161     		str	r1, [r4, #20]	@ unaligned
 2607 0042 A361     		str	r3, [r4, #24]	@ unaligned
 2608 0044 137F     		ldrb	r3, [r2, #28]	@ zero_extendqisi2
 2609 0046 2377     		strb	r3, [r4, #28]
 797:Task/Task_BlackBox.c ****     if (p_shell)
 2610              		.loc 1 797 5 is_stmt 1 view .LVU709
 2611              		.loc 1 797 8 is_stmt 0 view .LVU710
 2612 0048 002E     		cmp	r6, #0
 2613 004a 42D0     		beq	.L137
 798:Task/Task_BlackBox.c ****     {
 799:Task/Task_BlackBox.c ****         shellPrint(p_shell, "%d ", p_ang_ctl->time);
 2614              		.loc 1 799 9 is_stmt 1 view .LVU711
 2615 004c 2268     		ldr	r2, [r4]	@ unaligned
 2616 004e 2A49     		ldr	r1, .L147
 2617 0050 3046     		mov	r0, r6
 2618 0052 FFF7FEFF 		bl	shellPrint
 2619              	.LVL220:
 800:Task/Task_BlackBox.c ****         shellPrint(p_shell, "%f ", p_ang_ctl->exp_gyr[Axis_X]);
 2620              		.loc 1 800 9 view .LVU712
 2621              		.loc 1 800 54 is_stmt 0 view .LVU713
 2622 0056 D4F81100 		ldr	r0, [r4, #17]	@ unaligned
 2623              		.loc 1 800 9 view .LVU714
 2624 005a FFF7FEFF 		bl	__aeabi_f2d
 2625              	.LVL221:
 2626 005e 0246     		mov	r2, r0
 2627 0060 0B46     		mov	r3, r1
 2628 0062 DFF89C80 		ldr	r8, .L147+8
 2629 0066 4146     		mov	r1, r8
 2630 0068 3046     		mov	r0, r6
 2631 006a FFF7FEFF 		bl	shellPrint
 2632              	.LVL222:
 801:Task/Task_BlackBox.c ****         shellPrint(p_shell, "%f ", p_ang_ctl->exp_gyr[Axis_Y]);
 2633              		.loc 1 801 9 is_stmt 1 view .LVU715
 2634              		.loc 1 801 54 is_stmt 0 view .LVU716
 2635 006e D4F81500 		ldr	r0, [r4, #21]	@ unaligned
 2636              		.loc 1 801 9 view .LVU717
 2637 0072 FFF7FEFF 		bl	__aeabi_f2d
 2638              	.LVL223:
 2639 0076 0246     		mov	r2, r0
 2640 0078 0B46     		mov	r3, r1
 2641 007a 4146     		mov	r1, r8
 2642 007c 3046     		mov	r0, r6
 2643 007e FFF7FEFF 		bl	shellPrint
 2644              	.LVL224:
 802:Task/Task_BlackBox.c ****         shellPrint(p_shell, "%f ", p_ang_ctl->exp_gyr[Axis_Z]);
 2645              		.loc 1 802 9 is_stmt 1 view .LVU718
 2646              		.loc 1 802 54 is_stmt 0 view .LVU719
 2647 0082 D4F81900 		ldr	r0, [r4, #25]	@ unaligned
 2648              		.loc 1 802 9 view .LVU720
ARM GAS  C:\Users\8bit\AppData\Local\Temp\ccdInZoL.s 			page 70


 2649 0086 FFF7FEFF 		bl	__aeabi_f2d
 2650              	.LVL225:
 2651 008a 0246     		mov	r2, r0
 2652 008c 0B46     		mov	r3, r1
 2653 008e 4146     		mov	r1, r8
 2654 0090 3046     		mov	r0, r6
 2655 0092 FFF7FEFF 		bl	shellPrint
 2656              	.LVL226:
 803:Task/Task_BlackBox.c ****         shellPrint(p_shell, "%f ", p_ang_ctl->gyr[Axis_X]);
 2657              		.loc 1 803 9 is_stmt 1 view .LVU721
 2658              		.loc 1 803 50 is_stmt 0 view .LVU722
 2659 0096 D4F80500 		ldr	r0, [r4, #5]	@ unaligned
 2660              		.loc 1 803 9 view .LVU723
 2661 009a FFF7FEFF 		bl	__aeabi_f2d
 2662              	.LVL227:
 2663 009e 0246     		mov	r2, r0
 2664 00a0 0B46     		mov	r3, r1
 2665 00a2 4146     		mov	r1, r8
 2666 00a4 3046     		mov	r0, r6
 2667 00a6 FFF7FEFF 		bl	shellPrint
 2668              	.LVL228:
 804:Task/Task_BlackBox.c ****         shellPrint(p_shell, "%f ", p_ang_ctl->gyr[Axis_Y]);
 2669              		.loc 1 804 9 is_stmt 1 view .LVU724
 2670              		.loc 1 804 50 is_stmt 0 view .LVU725
 2671 00aa D4F80900 		ldr	r0, [r4, #9]	@ unaligned
 2672              		.loc 1 804 9 view .LVU726
 2673 00ae FFF7FEFF 		bl	__aeabi_f2d
 2674              	.LVL229:
 2675 00b2 0246     		mov	r2, r0
 2676 00b4 0B46     		mov	r3, r1
 2677 00b6 4146     		mov	r1, r8
 2678 00b8 3046     		mov	r0, r6
 2679 00ba FFF7FEFF 		bl	shellPrint
 2680              	.LVL230:
 805:Task/Task_BlackBox.c ****         shellPrint(p_shell, "%f\r\n", p_ang_ctl->gyr[Axis_Z]);
 2681              		.loc 1 805 9 is_stmt 1 view .LVU727
 2682              		.loc 1 805 53 is_stmt 0 view .LVU728
 2683 00be D4F80D00 		ldr	r0, [r4, #13]	@ unaligned
 2684              		.loc 1 805 9 view .LVU729
 2685 00c2 FFF7FEFF 		bl	__aeabi_f2d
 2686              	.LVL231:
 2687 00c6 0246     		mov	r2, r0
 2688 00c8 0B46     		mov	r3, r1
 2689 00ca 0C49     		ldr	r1, .L147+4
 2690 00cc 3046     		mov	r0, r6
 2691 00ce FFF7FEFF 		bl	shellPrint
 2692              	.LVL232:
 2693              	.L137:
 806:Task/Task_BlackBox.c ****     }
 807:Task/Task_BlackBox.c **** 
 808:Task/Task_BlackBox.c ****     *p_data += sizeof(BlackBox_AngCtlData_TypeDef);
 2694              		.loc 1 808 5 is_stmt 1 view .LVU730
 2695              		.loc 1 808 13 is_stmt 0 view .LVU731
 2696 00d2 2B68     		ldr	r3, [r5]
 2697 00d4 1D33     		adds	r3, r3, #29
 2698 00d6 2B60     		str	r3, [r5]
 809:Task/Task_BlackBox.c ****     *len -= sizeof(BlackBox_AngCtlData_TypeDef);
ARM GAS  C:\Users\8bit\AppData\Local\Temp\ccdInZoL.s 			page 71


 2699              		.loc 1 809 5 is_stmt 1 view .LVU732
 2700              		.loc 1 809 10 is_stmt 0 view .LVU733
 2701 00d8 3B68     		ldr	r3, [r7]
 2702 00da 1D3B     		subs	r3, r3, #29
 2703 00dc 3B60     		str	r3, [r7]
 810:Task/Task_BlackBox.c ****     return BlackBox_Cnv_None_Error;
 2704              		.loc 1 810 5 is_stmt 1 view .LVU734
 2705              		.loc 1 810 12 is_stmt 0 view .LVU735
 2706 00de 0020     		movs	r0, #0
 2707              	.L136:
 811:Task/Task_BlackBox.c **** }
 2708              		.loc 1 811 1 view .LVU736
 2709 00e0 BDE8F081 		pop	{r4, r5, r6, r7, r8, pc}
 2710              	.LVL233:
 2711              	.L138:
 2712              	.LCFI24:
 2713              		.cfi_def_cfa_offset 0
 2714              		.cfi_restore 4
 2715              		.cfi_restore 5
 2716              		.cfi_restore 6
 2717              		.cfi_restore 7
 2718              		.cfi_restore 8
 2719              		.cfi_restore 14
 794:Task/Task_BlackBox.c ****     
 2720              		.loc 1 794 16 view .LVU737
 2721 00e4 0220     		movs	r0, #2
 2722              	.LVL234:
 2723              		.loc 1 811 1 view .LVU738
 2724 00e6 7047     		bx	lr
 2725              	.LVL235:
 2726              	.L139:
 2727              	.LCFI25:
 2728              		.cfi_def_cfa_offset 24
 2729              		.cfi_offset 4, -24
 2730              		.cfi_offset 5, -20
 2731              		.cfi_offset 6, -16
 2732              		.cfi_offset 7, -12
 2733              		.cfi_offset 8, -8
 2734              		.cfi_offset 14, -4
 794:Task/Task_BlackBox.c ****     
 2735              		.loc 1 794 16 view .LVU739
 2736 00e8 0220     		movs	r0, #2
 2737              	.LVL236:
 794:Task/Task_BlackBox.c ****     
 2738              		.loc 1 794 16 view .LVU740
 2739 00ea F9E7     		b	.L136
 2740              	.LVL237:
 2741              	.L140:
 794:Task/Task_BlackBox.c ****     
 2742              		.loc 1 794 16 view .LVU741
 2743 00ec 0220     		movs	r0, #2
 2744              	.LVL238:
 794:Task/Task_BlackBox.c ****     
 2745              		.loc 1 794 16 view .LVU742
 2746 00ee F7E7     		b	.L136
 2747              	.LVL239:
 2748              	.L141:
ARM GAS  C:\Users\8bit\AppData\Local\Temp\ccdInZoL.s 			page 72


 794:Task/Task_BlackBox.c ****     
 2749              		.loc 1 794 16 view .LVU743
 2750 00f0 0220     		movs	r0, #2
 2751              	.LVL240:
 794:Task/Task_BlackBox.c ****     
 2752              		.loc 1 794 16 view .LVU744
 2753 00f2 F5E7     		b	.L136
 2754              	.LVL241:
 2755              	.L142:
 794:Task/Task_BlackBox.c ****     
 2756              		.loc 1 794 16 view .LVU745
 2757 00f4 0220     		movs	r0, #2
 2758              	.LVL242:
 794:Task/Task_BlackBox.c ****     
 2759              		.loc 1 794 16 view .LVU746
 2760 00f6 F3E7     		b	.L136
 2761              	.L148:
 2762              		.align	2
 2763              	.L147:
 2764 00f8 00000000 		.word	.LC25
 2765 00fc 08000000 		.word	.LC27
 2766 0100 04000000 		.word	.LC26
 2767              		.cfi_endproc
 2768              	.LFE2086:
 2770              		.section	.text.TaskBlackBox_ConvertLogData_To_CtlAtt,"ax",%progbits
 2771              		.align	1
 2772              		.syntax unified
 2773              		.thumb
 2774              		.thumb_func
 2776              	TaskBlackBox_ConvertLogData_To_CtlAtt:
 2777              	.LVL243:
 2778              	.LFB2087:
 812:Task/Task_BlackBox.c **** 
 813:Task/Task_BlackBox.c **** /* attitude control log data */
 814:Task/Task_BlackBox.c **** static BlackBox_ConvertError_List TaskBlackBox_ConvertLogData_To_CtlAtt(Shell *p_shell, BlackBox_At
 815:Task/Task_BlackBox.c **** {
 2779              		.loc 1 815 1 is_stmt 1 view -0
 2780              		.cfi_startproc
 2781              		@ args = 0, pretend = 0, frame = 0
 2782              		@ frame_needed = 0, uses_anonymous_args = 0
 816:Task/Task_BlackBox.c ****     if ((p_att_ctl == NULL) || \
 2783              		.loc 1 816 5 view .LVU748
 2784              		.loc 1 816 8 is_stmt 0 view .LVU749
 2785 0000 0029     		cmp	r1, #0
 2786 0002 6FD0     		beq	.L152
 815:Task/Task_BlackBox.c ****     if ((p_att_ctl == NULL) || \
 2787              		.loc 1 815 1 discriminator 1 view .LVU750
 2788 0004 2DE9F041 		push	{r4, r5, r6, r7, r8, lr}
 2789              	.LCFI26:
 2790              		.cfi_def_cfa_offset 24
 2791              		.cfi_offset 4, -24
 2792              		.cfi_offset 5, -20
 2793              		.cfi_offset 6, -16
 2794              		.cfi_offset 7, -12
 2795              		.cfi_offset 8, -8
 2796              		.cfi_offset 14, -4
 2797 0008 0646     		mov	r6, r0
ARM GAS  C:\Users\8bit\AppData\Local\Temp\ccdInZoL.s 			page 73


 2798 000a 1546     		mov	r5, r2
 2799 000c 1F46     		mov	r7, r3
 2800 000e 0C46     		mov	r4, r1
 2801              		.loc 1 816 29 discriminator 1 view .LVU751
 2802 0010 002A     		cmp	r2, #0
 2803 0012 69D0     		beq	.L153
 817:Task/Task_BlackBox.c ****         (p_data == NULL) || \
 818:Task/Task_BlackBox.c ****         (*p_data == NULL) || \
 2804              		.loc 1 818 10 view .LVU752
 2805 0014 1268     		ldr	r2, [r2]
 2806              	.LVL244:
 817:Task/Task_BlackBox.c ****         (p_data == NULL) || \
 2807              		.loc 1 817 26 view .LVU753
 2808 0016 002A     		cmp	r2, #0
 2809 0018 68D0     		beq	.L154
 2810              		.loc 1 818 27 view .LVU754
 2811 001a 002B     		cmp	r3, #0
 2812 001c 68D0     		beq	.L155
 819:Task/Task_BlackBox.c ****         (len == NULL) || \
 820:Task/Task_BlackBox.c ****         (*len < sizeof(BlackBox_AttCtlData_TypeDef)))
 2813              		.loc 1 820 10 view .LVU755
 2814 001e 1B68     		ldr	r3, [r3]
 2815              	.LVL245:
 819:Task/Task_BlackBox.c ****         (len == NULL) || \
 2816              		.loc 1 819 23 view .LVU756
 2817 0020 1C2B     		cmp	r3, #28
 2818 0022 67D9     		bls	.L156
 821:Task/Task_BlackBox.c ****         return BlackBox_Cnv_Size_Error;
 822:Task/Task_BlackBox.c **** 
 823:Task/Task_BlackBox.c ****     memcpy(p_att_ctl, *p_data, sizeof(BlackBox_AttCtlData_TypeDef));
 2819              		.loc 1 823 5 is_stmt 1 view .LVU757
 2820 0024 1068     		ldr	r0, [r2]	@ unaligned
 2821              	.LVL246:
 2822              		.loc 1 823 5 is_stmt 0 view .LVU758
 2823 0026 5168     		ldr	r1, [r2, #4]	@ unaligned
 2824              	.LVL247:
 2825              		.loc 1 823 5 view .LVU759
 2826 0028 9368     		ldr	r3, [r2, #8]	@ unaligned
 2827 002a D2F80CC0 		ldr	ip, [r2, #12]	@ unaligned
 2828 002e 2060     		str	r0, [r4]	@ unaligned
 2829 0030 6160     		str	r1, [r4, #4]	@ unaligned
 2830 0032 A360     		str	r3, [r4, #8]	@ unaligned
 2831 0034 C4F80CC0 		str	ip, [r4, #12]	@ unaligned
 2832 0038 1069     		ldr	r0, [r2, #16]	@ unaligned
 2833 003a 5169     		ldr	r1, [r2, #20]	@ unaligned
 2834 003c 9369     		ldr	r3, [r2, #24]	@ unaligned
 2835 003e 2061     		str	r0, [r4, #16]	@ unaligned
 2836 0040 6161     		str	r1, [r4, #20]	@ unaligned
 2837 0042 A361     		str	r3, [r4, #24]	@ unaligned
 2838 0044 137F     		ldrb	r3, [r2, #28]	@ zero_extendqisi2
 2839 0046 2377     		strb	r3, [r4, #28]
 824:Task/Task_BlackBox.c ****     if (p_shell)
 2840              		.loc 1 824 5 is_stmt 1 view .LVU760
 2841              		.loc 1 824 8 is_stmt 0 view .LVU761
 2842 0048 002E     		cmp	r6, #0
 2843 004a 42D0     		beq	.L151
 825:Task/Task_BlackBox.c ****     {
ARM GAS  C:\Users\8bit\AppData\Local\Temp\ccdInZoL.s 			page 74


 826:Task/Task_BlackBox.c ****         shellPrint(p_shell, "%d ", p_att_ctl->time);
 2844              		.loc 1 826 9 is_stmt 1 view .LVU762
 2845 004c 2268     		ldr	r2, [r4]	@ unaligned
 2846 004e 2A49     		ldr	r1, .L161
 2847 0050 3046     		mov	r0, r6
 2848 0052 FFF7FEFF 		bl	shellPrint
 2849              	.LVL248:
 827:Task/Task_BlackBox.c ****         shellPrint(p_shell, "%f ", p_att_ctl->exp_pitch);
 2850              		.loc 1 827 9 view .LVU763
 2851              		.loc 1 827 45 is_stmt 0 view .LVU764
 2852 0056 D4F81100 		ldr	r0, [r4, #17]	@ unaligned
 2853              		.loc 1 827 9 view .LVU765
 2854 005a FFF7FEFF 		bl	__aeabi_f2d
 2855              	.LVL249:
 2856 005e 0246     		mov	r2, r0
 2857 0060 0B46     		mov	r3, r1
 2858 0062 DFF89C80 		ldr	r8, .L161+8
 2859 0066 4146     		mov	r1, r8
 2860 0068 3046     		mov	r0, r6
 2861 006a FFF7FEFF 		bl	shellPrint
 2862              	.LVL250:
 828:Task/Task_BlackBox.c ****         shellPrint(p_shell, "%f ", p_att_ctl->exp_roll);
 2863              		.loc 1 828 9 is_stmt 1 view .LVU766
 2864              		.loc 1 828 45 is_stmt 0 view .LVU767
 2865 006e D4F81500 		ldr	r0, [r4, #21]	@ unaligned
 2866              		.loc 1 828 9 view .LVU768
 2867 0072 FFF7FEFF 		bl	__aeabi_f2d
 2868              	.LVL251:
 2869 0076 0246     		mov	r2, r0
 2870 0078 0B46     		mov	r3, r1
 2871 007a 4146     		mov	r1, r8
 2872 007c 3046     		mov	r0, r6
 2873 007e FFF7FEFF 		bl	shellPrint
 2874              	.LVL252:
 829:Task/Task_BlackBox.c ****         shellPrint(p_shell, "%f ", p_att_ctl->exp_gyr_z);
 2875              		.loc 1 829 9 is_stmt 1 view .LVU769
 2876              		.loc 1 829 45 is_stmt 0 view .LVU770
 2877 0082 D4F81900 		ldr	r0, [r4, #25]	@ unaligned
 2878              		.loc 1 829 9 view .LVU771
 2879 0086 FFF7FEFF 		bl	__aeabi_f2d
 2880              	.LVL253:
 2881 008a 0246     		mov	r2, r0
 2882 008c 0B46     		mov	r3, r1
 2883 008e 4146     		mov	r1, r8
 2884 0090 3046     		mov	r0, r6
 2885 0092 FFF7FEFF 		bl	shellPrint
 2886              	.LVL254:
 830:Task/Task_BlackBox.c ****         shellPrint(p_shell, "%f ", p_att_ctl->pitch);
 2887              		.loc 1 830 9 is_stmt 1 view .LVU772
 2888              		.loc 1 830 45 is_stmt 0 view .LVU773
 2889 0096 D4F80500 		ldr	r0, [r4, #5]	@ unaligned
 2890              		.loc 1 830 9 view .LVU774
 2891 009a FFF7FEFF 		bl	__aeabi_f2d
 2892              	.LVL255:
 2893 009e 0246     		mov	r2, r0
 2894 00a0 0B46     		mov	r3, r1
 2895 00a2 4146     		mov	r1, r8
ARM GAS  C:\Users\8bit\AppData\Local\Temp\ccdInZoL.s 			page 75


 2896 00a4 3046     		mov	r0, r6
 2897 00a6 FFF7FEFF 		bl	shellPrint
 2898              	.LVL256:
 831:Task/Task_BlackBox.c ****         shellPrint(p_shell, "%f ", p_att_ctl->roll);
 2899              		.loc 1 831 9 is_stmt 1 view .LVU775
 2900              		.loc 1 831 45 is_stmt 0 view .LVU776
 2901 00aa D4F80900 		ldr	r0, [r4, #9]	@ unaligned
 2902              		.loc 1 831 9 view .LVU777
 2903 00ae FFF7FEFF 		bl	__aeabi_f2d
 2904              	.LVL257:
 2905 00b2 0246     		mov	r2, r0
 2906 00b4 0B46     		mov	r3, r1
 2907 00b6 4146     		mov	r1, r8
 2908 00b8 3046     		mov	r0, r6
 2909 00ba FFF7FEFF 		bl	shellPrint
 2910              	.LVL258:
 832:Task/Task_BlackBox.c ****         shellPrint(p_shell, "%f\r\n", p_att_ctl->gyr_z);
 2911              		.loc 1 832 9 is_stmt 1 view .LVU778
 2912              		.loc 1 832 48 is_stmt 0 view .LVU779
 2913 00be D4F80D00 		ldr	r0, [r4, #13]	@ unaligned
 2914              		.loc 1 832 9 view .LVU780
 2915 00c2 FFF7FEFF 		bl	__aeabi_f2d
 2916              	.LVL259:
 2917 00c6 0246     		mov	r2, r0
 2918 00c8 0B46     		mov	r3, r1
 2919 00ca 0C49     		ldr	r1, .L161+4
 2920 00cc 3046     		mov	r0, r6
 2921 00ce FFF7FEFF 		bl	shellPrint
 2922              	.LVL260:
 2923              	.L151:
 833:Task/Task_BlackBox.c ****     }
 834:Task/Task_BlackBox.c **** 
 835:Task/Task_BlackBox.c ****     *p_data += sizeof(BlackBox_AttCtlData_TypeDef);
 2924              		.loc 1 835 5 is_stmt 1 view .LVU781
 2925              		.loc 1 835 13 is_stmt 0 view .LVU782
 2926 00d2 2B68     		ldr	r3, [r5]
 2927 00d4 1D33     		adds	r3, r3, #29
 2928 00d6 2B60     		str	r3, [r5]
 836:Task/Task_BlackBox.c ****     *len -= sizeof(BlackBox_AttCtlData_TypeDef);
 2929              		.loc 1 836 5 is_stmt 1 view .LVU783
 2930              		.loc 1 836 10 is_stmt 0 view .LVU784
 2931 00d8 3B68     		ldr	r3, [r7]
 2932 00da 1D3B     		subs	r3, r3, #29
 2933 00dc 3B60     		str	r3, [r7]
 837:Task/Task_BlackBox.c ****     return BlackBox_Cnv_None_Error;
 2934              		.loc 1 837 5 is_stmt 1 view .LVU785
 2935              		.loc 1 837 12 is_stmt 0 view .LVU786
 2936 00de 0020     		movs	r0, #0
 2937              	.L150:
 838:Task/Task_BlackBox.c **** }
 2938              		.loc 1 838 1 view .LVU787
 2939 00e0 BDE8F081 		pop	{r4, r5, r6, r7, r8, pc}
 2940              	.LVL261:
 2941              	.L152:
 2942              	.LCFI27:
 2943              		.cfi_def_cfa_offset 0
 2944              		.cfi_restore 4
ARM GAS  C:\Users\8bit\AppData\Local\Temp\ccdInZoL.s 			page 76


 2945              		.cfi_restore 5
 2946              		.cfi_restore 6
 2947              		.cfi_restore 7
 2948              		.cfi_restore 8
 2949              		.cfi_restore 14
 821:Task/Task_BlackBox.c **** 
 2950              		.loc 1 821 16 view .LVU788
 2951 00e4 0220     		movs	r0, #2
 2952              	.LVL262:
 2953              		.loc 1 838 1 view .LVU789
 2954 00e6 7047     		bx	lr
 2955              	.LVL263:
 2956              	.L153:
 2957              	.LCFI28:
 2958              		.cfi_def_cfa_offset 24
 2959              		.cfi_offset 4, -24
 2960              		.cfi_offset 5, -20
 2961              		.cfi_offset 6, -16
 2962              		.cfi_offset 7, -12
 2963              		.cfi_offset 8, -8
 2964              		.cfi_offset 14, -4
 821:Task/Task_BlackBox.c **** 
 2965              		.loc 1 821 16 view .LVU790
 2966 00e8 0220     		movs	r0, #2
 2967              	.LVL264:
 821:Task/Task_BlackBox.c **** 
 2968              		.loc 1 821 16 view .LVU791
 2969 00ea F9E7     		b	.L150
 2970              	.LVL265:
 2971              	.L154:
 821:Task/Task_BlackBox.c **** 
 2972              		.loc 1 821 16 view .LVU792
 2973 00ec 0220     		movs	r0, #2
 2974              	.LVL266:
 821:Task/Task_BlackBox.c **** 
 2975              		.loc 1 821 16 view .LVU793
 2976 00ee F7E7     		b	.L150
 2977              	.LVL267:
 2978              	.L155:
 821:Task/Task_BlackBox.c **** 
 2979              		.loc 1 821 16 view .LVU794
 2980 00f0 0220     		movs	r0, #2
 2981              	.LVL268:
 821:Task/Task_BlackBox.c **** 
 2982              		.loc 1 821 16 view .LVU795
 2983 00f2 F5E7     		b	.L150
 2984              	.LVL269:
 2985              	.L156:
 821:Task/Task_BlackBox.c **** 
 2986              		.loc 1 821 16 view .LVU796
 2987 00f4 0220     		movs	r0, #2
 2988              	.LVL270:
 821:Task/Task_BlackBox.c **** 
 2989              		.loc 1 821 16 view .LVU797
 2990 00f6 F3E7     		b	.L150
 2991              	.L162:
 2992              		.align	2
ARM GAS  C:\Users\8bit\AppData\Local\Temp\ccdInZoL.s 			page 77


 2993              	.L161:
 2994 00f8 00000000 		.word	.LC25
 2995 00fc 08000000 		.word	.LC27
 2996 0100 04000000 		.word	.LC26
 2997              		.cfi_endproc
 2998              	.LFE2087:
 3000              		.section	.rodata.TaskBlackBox_ConvertLogData_To_Ender.str1.4,"aMS",%progbits,1
 3001              		.align	2
 3002              	.LC28:
 3003 0000 5B20426C 		.ascii	"[ BlackBox ] ender error\015\012\000"
 3003      61636B42 
 3003      6F78205D 
 3003      20656E64 
 3003      65722065 
 3004              		.section	.text.TaskBlackBox_ConvertLogData_To_Ender,"ax",%progbits
 3005              		.align	1
 3006              		.syntax unified
 3007              		.thumb
 3008              		.thumb_func
 3010              	TaskBlackBox_ConvertLogData_To_Ender:
 3011              	.LVL271:
 3012              	.LFB2083:
 696:Task/Task_BlackBox.c ****     if ((p_ender == NULL) || \
 3013              		.loc 1 696 1 is_stmt 1 view -0
 3014              		.cfi_startproc
 3015              		@ args = 0, pretend = 0, frame = 0
 3016              		@ frame_needed = 0, uses_anonymous_args = 0
 697:Task/Task_BlackBox.c ****         (p_data == NULL) || \
 3017              		.loc 1 697 5 view .LVU799
 697:Task/Task_BlackBox.c ****         (p_data == NULL) || \
 3018              		.loc 1 697 8 is_stmt 0 view .LVU800
 3019 0000 51B3     		cbz	r1, .L167
 3020 0002 8C46     		mov	ip, r1
 697:Task/Task_BlackBox.c ****         (p_data == NULL) || \
 3021              		.loc 1 697 27 discriminator 1 view .LVU801
 3022 0004 52B3     		cbz	r2, .L168
 699:Task/Task_BlackBox.c ****         (len == NULL) || \
 3023              		.loc 1 699 10 view .LVU802
 3024 0006 1168     		ldr	r1, [r2]
 3025              	.LVL272:
 698:Task/Task_BlackBox.c ****         (*p_data == NULL) || \
 3026              		.loc 1 698 26 view .LVU803
 3027 0008 51B3     		cbz	r1, .L169
 699:Task/Task_BlackBox.c ****         (len == NULL) || \
 3028              		.loc 1 699 27 view .LVU804
 3029 000a 5BB3     		cbz	r3, .L170
 696:Task/Task_BlackBox.c ****     if ((p_ender == NULL) || \
 3030              		.loc 1 696 1 view .LVU805
 3031 000c 10B5     		push	{r4, lr}
 3032              	.LCFI29:
 3033              		.cfi_def_cfa_offset 8
 3034              		.cfi_offset 4, -8
 3035              		.cfi_offset 14, -4
 700:Task/Task_BlackBox.c ****         (*len < BLACKBOX_ENDER_SIZE))
 3036              		.loc 1 700 23 view .LVU806
 3037 000e 1C68     		ldr	r4, [r3]
 3038 0010 022C     		cmp	r4, #2
ARM GAS  C:\Users\8bit\AppData\Local\Temp\ccdInZoL.s 			page 78


 3039 0012 01D8     		bhi	.L176
 702:Task/Task_BlackBox.c **** 
 3040              		.loc 1 702 16 view .LVU807
 3041 0014 0120     		movs	r0, #1
 3042              	.LVL273:
 3043              	.L164:
 717:Task/Task_BlackBox.c **** 
 3044              		.loc 1 717 1 view .LVU808
 3045 0016 10BD     		pop	{r4, pc}
 3046              	.LVL274:
 3047              	.L176:
 704:Task/Task_BlackBox.c ****     if (p_ender->ender != BLACKBOX_LOG_ENDER)
 3048              		.loc 1 704 5 is_stmt 1 view .LVU809
 3049 0018 B1F800E0 		ldrh	lr, [r1]	@ unaligned
 3050 001c 8978     		ldrb	r1, [r1, #2]	@ zero_extendqisi2
 3051 001e ACF800E0 		strh	lr, [ip]	@ unaligned
 3052 0022 8CF80210 		strb	r1, [ip, #2]
 705:Task/Task_BlackBox.c ****     {
 3053              		.loc 1 705 5 view .LVU810
 705:Task/Task_BlackBox.c ****     {
 3054              		.loc 1 705 16 is_stmt 0 view .LVU811
 3055 0026 BCF801E0 		ldrh	lr, [ip, #1]	@ unaligned
 705:Task/Task_BlackBox.c ****     {
 3056              		.loc 1 705 8 view .LVU812
 3057 002a 4FF22F21 		movw	r1, #61999
 3058 002e 8E45     		cmp	lr, r1
 3059 0030 07D1     		bne	.L177
 713:Task/Task_BlackBox.c ****     *len -= BLACKBOX_ENDER_SIZE;
 3060              		.loc 1 713 5 is_stmt 1 view .LVU813
 713:Task/Task_BlackBox.c ****     *len -= BLACKBOX_ENDER_SIZE;
 3061              		.loc 1 713 13 is_stmt 0 view .LVU814
 3062 0032 1168     		ldr	r1, [r2]
 3063 0034 0331     		adds	r1, r1, #3
 3064 0036 1160     		str	r1, [r2]
 714:Task/Task_BlackBox.c **** 
 3065              		.loc 1 714 5 is_stmt 1 view .LVU815
 714:Task/Task_BlackBox.c **** 
 3066              		.loc 1 714 10 is_stmt 0 view .LVU816
 3067 0038 1A68     		ldr	r2, [r3]
 3068              	.LVL275:
 714:Task/Task_BlackBox.c **** 
 3069              		.loc 1 714 10 view .LVU817
 3070 003a 033A     		subs	r2, r2, #3
 3071 003c 1A60     		str	r2, [r3]
 716:Task/Task_BlackBox.c **** }
 3072              		.loc 1 716 5 is_stmt 1 view .LVU818
 716:Task/Task_BlackBox.c **** }
 3073              		.loc 1 716 12 is_stmt 0 view .LVU819
 3074 003e 0020     		movs	r0, #0
 3075              	.LVL276:
 716:Task/Task_BlackBox.c **** }
 3076              		.loc 1 716 12 view .LVU820
 3077 0040 E9E7     		b	.L164
 3078              	.LVL277:
 3079              	.L177:
 707:Task/Task_BlackBox.c ****         if (p_shell)
 3080              		.loc 1 707 9 is_stmt 1 view .LVU821
ARM GAS  C:\Users\8bit\AppData\Local\Temp\ccdInZoL.s 			page 79


 3081 0042 0023     		movs	r3, #0
 3082              	.LVL278:
 707:Task/Task_BlackBox.c ****         if (p_shell)
 3083              		.loc 1 707 9 is_stmt 0 view .LVU822
 3084 0044 ACF80030 		strh	r3, [ip]	@ unaligned
 3085 0048 8CF80230 		strb	r3, [ip, #2]
 708:Task/Task_BlackBox.c ****             shellPrint(p_shell, "[ BlackBox ] ender error\r\n");
 3086              		.loc 1 708 9 is_stmt 1 view .LVU823
 708:Task/Task_BlackBox.c ****             shellPrint(p_shell, "[ BlackBox ] ender error\r\n");
 3087              		.loc 1 708 12 is_stmt 0 view .LVU824
 3088 004c 10B1     		cbz	r0, .L166
 709:Task/Task_BlackBox.c ****         return BlackBox_Cnv_Ender_Error;
 3089              		.loc 1 709 13 is_stmt 1 view .LVU825
 3090 004e 0649     		ldr	r1, .L178
 3091 0050 FFF7FEFF 		bl	shellPrint
 3092              	.LVL279:
 3093              	.L166:
 710:Task/Task_BlackBox.c ****     }
 3094              		.loc 1 710 9 view .LVU826
 710:Task/Task_BlackBox.c ****     }
 3095              		.loc 1 710 16 is_stmt 0 view .LVU827
 3096 0054 0520     		movs	r0, #5
 3097 0056 DEE7     		b	.L164
 3098              	.LVL280:
 3099              	.L167:
 3100              	.LCFI30:
 3101              		.cfi_def_cfa_offset 0
 3102              		.cfi_restore 4
 3103              		.cfi_restore 14
 702:Task/Task_BlackBox.c **** 
 3104              		.loc 1 702 16 view .LVU828
 3105 0058 0120     		movs	r0, #1
 3106              	.LVL281:
 702:Task/Task_BlackBox.c **** 
 3107              		.loc 1 702 16 view .LVU829
 3108 005a 7047     		bx	lr
 3109              	.LVL282:
 3110              	.L168:
 702:Task/Task_BlackBox.c **** 
 3111              		.loc 1 702 16 view .LVU830
 3112 005c 0120     		movs	r0, #1
 3113              	.LVL283:
 702:Task/Task_BlackBox.c **** 
 3114              		.loc 1 702 16 view .LVU831
 3115 005e 7047     		bx	lr
 3116              	.LVL284:
 3117              	.L169:
 702:Task/Task_BlackBox.c **** 
 3118              		.loc 1 702 16 view .LVU832
 3119 0060 0120     		movs	r0, #1
 3120              	.LVL285:
 702:Task/Task_BlackBox.c **** 
 3121              		.loc 1 702 16 view .LVU833
 3122 0062 7047     		bx	lr
 3123              	.LVL286:
 3124              	.L170:
 702:Task/Task_BlackBox.c **** 
ARM GAS  C:\Users\8bit\AppData\Local\Temp\ccdInZoL.s 			page 80


 3125              		.loc 1 702 16 view .LVU834
 3126 0064 0120     		movs	r0, #1
 3127              	.LVL287:
 717:Task/Task_BlackBox.c **** 
 3128              		.loc 1 717 1 view .LVU835
 3129 0066 7047     		bx	lr
 3130              	.L179:
 3131              		.align	2
 3132              	.L178:
 3133 0068 00000000 		.word	.LC28
 3134              		.cfi_endproc
 3135              	.LFE2083:
 3137              		.section	.rodata.TaskBlackBox_GetLogInfo.str1.4,"aMS",%progbits,1
 3138              		.align	2
 3139              	.LC29:
 3140 0000 5B20426C 		.ascii	"[ BlackBox ] get info api error\015\012\000"
 3140      61636B42 
 3140      6F78205D 
 3140      20676574 
 3140      20696E66 
 3141 0022 0000     		.align	2
 3142              	.LC30:
 3143 0024 5B20426C 		.ascii	"[ BlackBox ] is logging\015\012\000"
 3143      61636B42 
 3143      6F78205D 
 3143      20697320 
 3143      6C6F6767 
 3144 003e 0000     		.align	2
 3145              	.LC31:
 3146 0040 5B20426C 		.ascii	"[ BlackBox ] task log success count: %d\015\012\000"
 3146      61636B42 
 3146      6F78205D 
 3146      20746173 
 3146      6B206C6F 
 3147 006a 0000     		.align	2
 3148              	.LC32:
 3149 006c 5B20426C 		.ascii	"[ BlackBox ] service log count:      %d\015\012\000"
 3149      61636B42 
 3149      6F78205D 
 3149      20736572 
 3149      76696365 
 3150 0096 0000     		.align	2
 3151              	.LC33:
 3152 0098 5B20426C 		.ascii	"[ BlackBox ] service log size:       %d\015\012\000"
 3152      61636B42 
 3152      6F78205D 
 3152      20736572 
 3152      76696365 
 3153 00c2 0000     		.align	2
 3154              	.LC34:
 3155 00c4 5B20426C 		.ascii	"[ BlackBox ] read api error\015\012\000"
 3155      61636B42 
 3155      6F78205D 
 3155      20726561 
 3155      64206170 
 3156 00e2 0000     		.align	2
 3157              	.LC35:
ARM GAS  C:\Users\8bit\AppData\Local\Temp\ccdInZoL.s 			page 81


 3158 00e4 5B20426C 		.ascii	"[ BlackBox ] uncomplete decode error\015\012\000"
 3158      61636B42 
 3158      6F78205D 
 3158      20756E63 
 3158      6F6D706C 
 3159 010b 00       		.align	2
 3160              	.LC36:
 3161 010c 5B20426C 		.ascii	"[ BlackBox ] CheckSum error\015\012\000"
 3161      61636B42 
 3161      6F78205D 
 3161      20436865 
 3161      636B5375 
 3162 012a 0000     		.align	2
 3163              	.LC37:
 3164 012c 5B20426C 		.ascii	"[ BlackBox ] addr: %d remian: %d\015\012\000"
 3164      61636B42 
 3164      6F78205D 
 3164      20616464 
 3164      723A2025 
 3165 014f 00       		.align	2
 3166              	.LC38:
 3167 0150 5B20426C 		.ascii	"[ BlackBox ] Data read failed\015\012\000"
 3167      61636B42 
 3167      6F78205D 
 3167      20446174 
 3167      61207265 
 3168              		.align	2
 3169              	.LC39:
 3170 0170 5B20426C 		.ascii	"[ BlackBox ] read address %d\015\012\000"
 3170      61636B42 
 3170      6F78205D 
 3170      20726561 
 3170      64206164 
 3171              		.section	.text.TaskBlackBox_GetLogInfo,"ax",%progbits
 3172              		.align	1
 3173              		.syntax unified
 3174              		.thumb
 3175              		.thumb_func
 3177              	TaskBlackBox_GetLogInfo:
 3178              	.LFB2088:
 839:Task/Task_BlackBox.c **** 
 840:Task/Task_BlackBox.c **** static void TaskBlackBox_GetLogInfo(void)
 841:Task/Task_BlackBox.c **** {
 3179              		.loc 1 841 1 is_stmt 1 view -0
 3180              		.cfi_startproc
 3181              		@ args = 0, pretend = 0, frame = 312
 3182              		@ frame_needed = 0, uses_anonymous_args = 0
 3183 0000 2DE9F041 		push	{r4, r5, r6, r7, r8, lr}
 3184              	.LCFI31:
 3185              		.cfi_def_cfa_offset 24
 3186              		.cfi_offset 4, -24
 3187              		.cfi_offset 5, -20
 3188              		.cfi_offset 6, -16
 3189              		.cfi_offset 7, -12
 3190              		.cfi_offset 8, -8
 3191              		.cfi_offset 14, -4
 3192 0004 CEB0     		sub	sp, sp, #312
ARM GAS  C:\Users\8bit\AppData\Local\Temp\ccdInZoL.s 			page 82


 3193              	.LCFI32:
 3194              		.cfi_def_cfa_offset 336
 842:Task/Task_BlackBox.c ****     Shell *shell_obj = Shell_GetInstence();
 3195              		.loc 1 842 5 view .LVU837
 3196              		.loc 1 842 24 is_stmt 0 view .LVU838
 3197 0006 FFF7FEFF 		bl	Shell_GetInstence
 3198              	.LVL288:
 843:Task/Task_BlackBox.c ****     uint32_t log_cnt = 0;
 3199              		.loc 1 843 5 is_stmt 1 view .LVU839
 3200              		.loc 1 843 14 is_stmt 0 view .LVU840
 3201 000a 0023     		movs	r3, #0
 3202 000c 4D93     		str	r3, [sp, #308]
 844:Task/Task_BlackBox.c ****     uint32_t log_size = 0;
 3203              		.loc 1 844 5 is_stmt 1 view .LVU841
 3204              		.loc 1 844 14 is_stmt 0 view .LVU842
 3205 000e 4C93     		str	r3, [sp, #304]
 845:Task/Task_BlackBox.c ****     bool log_enable = false;
 3206              		.loc 1 845 5 is_stmt 1 view .LVU843
 3207              		.loc 1 845 10 is_stmt 0 view .LVU844
 3208 0010 8DF82F31 		strb	r3, [sp, #303]
 846:Task/Task_BlackBox.c ****     uint32_t addr = 0;
 3209              		.loc 1 846 5 is_stmt 1 view .LVU845
 3210              	.LVL289:
 847:Task/Task_BlackBox.c ****     volatile BlackBox_ConvertError_List err = BlackBox_Cnv_None_Error;
 3211              		.loc 1 847 5 view .LVU846
 3212              		.loc 1 847 41 is_stmt 0 view .LVU847
 3213 0014 8DF82E31 		strb	r3, [sp, #302]
 848:Task/Task_BlackBox.c ****     BlackBox_DataHeader_TypeDef header;
 3214              		.loc 1 848 5 is_stmt 1 view .LVU848
 849:Task/Task_BlackBox.c ****     BlackBox_DataEnder_TypeDef ender;
 3215              		.loc 1 849 5 view .LVU849
 850:Task/Task_BlackBox.c ****     BlackBox_IMUData_TypeDef log_imu;
 3216              		.loc 1 850 5 view .LVU850
 851:Task/Task_BlackBox.c ****     BlackBox_AttAltData_TypeDef log_att_alt;
 3217              		.loc 1 851 5 view .LVU851
 852:Task/Task_BlackBox.c ****     BlackBox_AngCtlData_TypeDef log_AngCtl;
 3218              		.loc 1 852 5 view .LVU852
 853:Task/Task_BlackBox.c ****     BlackBox_AttCtlData_TypeDef log_AttCtl;
 3219              		.loc 1 853 5 view .LVU853
 854:Task/Task_BlackBox.c ****     uint8_t *p_log_data = NULL;
 3220              		.loc 1 854 5 view .LVU854
 3221              		.loc 1 854 14 is_stmt 0 view .LVU855
 3222 0018 2393     		str	r3, [sp, #140]
 855:Task/Task_BlackBox.c ****     uint32_t uncomplete_size = 0;
 3223              		.loc 1 855 5 is_stmt 1 view .LVU856
 3224              		.loc 1 855 14 is_stmt 0 view .LVU857
 3225 001a 2293     		str	r3, [sp, #136]
 856:Task/Task_BlackBox.c ****     uint8_t remain_buf[128];
 3226              		.loc 1 856 5 is_stmt 1 view .LVU858
 857:Task/Task_BlackBox.c ****     uint8_t *p_remain_buf = NULL;
 3227              		.loc 1 857 5 view .LVU859
 3228              		.loc 1 857 14 is_stmt 0 view .LVU860
 3229 001c 0193     		str	r3, [sp, #4]
 858:Task/Task_BlackBox.c ****     uint8_t check_sum = 0;
 3230              		.loc 1 858 5 is_stmt 1 view .LVU861
 3231              	.LVL290:
 859:Task/Task_BlackBox.c **** 
ARM GAS  C:\Users\8bit\AppData\Local\Temp\ccdInZoL.s 			page 83


 860:Task/Task_BlackBox.c ****     if ((shell_obj == NULL) || (p_blackbox == NULL))
 3232              		.loc 1 860 5 view .LVU862
 3233              		.loc 1 860 8 is_stmt 0 view .LVU863
 3234 001e 0028     		cmp	r0, #0
 3235 0020 49D0     		beq	.L180
 3236 0022 0446     		mov	r4, r0
 3237              		.loc 1 860 44 discriminator 1 view .LVU864
 3238 0024 A44B     		ldr	r3, .L235
 3239 0026 1B68     		ldr	r3, [r3]
 3240              		.loc 1 860 29 discriminator 1 view .LVU865
 3241 0028 002B     		cmp	r3, #0
 3242 002a 44D0     		beq	.L180
 861:Task/Task_BlackBox.c ****         return;
 862:Task/Task_BlackBox.c **** 
 863:Task/Task_BlackBox.c ****     if (p_blackbox->get_info == NULL)
 3243              		.loc 1 863 5 is_stmt 1 view .LVU866
 3244              		.loc 1 863 19 is_stmt 0 view .LVU867
 3245 002c 5B69     		ldr	r3, [r3, #20]
 3246              		.loc 1 863 8 view .LVU868
 3247 002e 002B     		cmp	r3, #0
 3248 0030 39D0     		beq	.L228
 864:Task/Task_BlackBox.c ****     {
 865:Task/Task_BlackBox.c ****         shellPrint(shell_obj, "[ BlackBox ] get info api error\r\n");
 866:Task/Task_BlackBox.c ****         return;
 867:Task/Task_BlackBox.c ****     }
 868:Task/Task_BlackBox.c **** 
 869:Task/Task_BlackBox.c ****     p_blackbox->get_info(&log_cnt, &log_size, &log_enable);
 3249              		.loc 1 869 5 is_stmt 1 view .LVU869
 3250 0032 0DF22F12 		addw	r2, sp, #303
 3251 0036 4CA9     		add	r1, sp, #304
 3252 0038 4DA8     		add	r0, sp, #308
 3253              	.LVL291:
 3254              		.loc 1 869 5 is_stmt 0 view .LVU870
 3255 003a 9847     		blx	r3
 3256              	.LVL292:
 870:Task/Task_BlackBox.c ****     if (log_enable)
 3257              		.loc 1 870 5 is_stmt 1 view .LVU871
 3258              		.loc 1 870 9 is_stmt 0 view .LVU872
 3259 003c 9DF82F31 		ldrb	r3, [sp, #303]	@ zero_extendqisi2
 3260              		.loc 1 870 8 view .LVU873
 3261 0040 002B     		cmp	r3, #0
 3262 0042 34D1     		bne	.L229
 871:Task/Task_BlackBox.c ****     {
 872:Task/Task_BlackBox.c ****         shellPrint(shell_obj, "[ BlackBox ] is logging\r\n");
 873:Task/Task_BlackBox.c ****         return;
 874:Task/Task_BlackBox.c ****     }
 875:Task/Task_BlackBox.c **** 
 876:Task/Task_BlackBox.c ****     shellPrint(shell_obj, "[ BlackBox ] task log success count: %d\r\n", Monitor.log_cnt);
 3263              		.loc 1 876 5 is_stmt 1 view .LVU874
 3264 0044 9D4B     		ldr	r3, .L235+4
 3265 0046 DA6D     		ldr	r2, [r3, #92]
 3266 0048 9D49     		ldr	r1, .L235+8
 3267 004a 2046     		mov	r0, r4
 3268 004c FFF7FEFF 		bl	shellPrint
 3269              	.LVL293:
 877:Task/Task_BlackBox.c ****     shellPrint(shell_obj, "[ BlackBox ] service log count:      %d\r\n", log_cnt);
 3270              		.loc 1 877 5 view .LVU875
ARM GAS  C:\Users\8bit\AppData\Local\Temp\ccdInZoL.s 			page 84


 3271 0050 4D9A     		ldr	r2, [sp, #308]
 3272 0052 9C49     		ldr	r1, .L235+12
 3273 0054 2046     		mov	r0, r4
 3274 0056 FFF7FEFF 		bl	shellPrint
 3275              	.LVL294:
 878:Task/Task_BlackBox.c ****     shellPrint(shell_obj, "[ BlackBox ] service log size:       %d\r\n", log_size);
 3276              		.loc 1 878 5 view .LVU876
 3277 005a 4C9A     		ldr	r2, [sp, #304]
 3278 005c 9A49     		ldr	r1, .L235+16
 3279 005e 2046     		mov	r0, r4
 3280 0060 FFF7FEFF 		bl	shellPrint
 3281              	.LVL295:
 879:Task/Task_BlackBox.c **** 
 880:Task/Task_BlackBox.c ****     /* dispaly data */
 881:Task/Task_BlackBox.c ****     if ((p_blackbox->read == NULL) || (Monitor.p_log_buf == NULL))
 3282              		.loc 1 881 5 view .LVU877
 3283              		.loc 1 881 20 is_stmt 0 view .LVU878
 3284 0064 944B     		ldr	r3, .L235
 3285 0066 1B68     		ldr	r3, [r3]
 3286 0068 1B69     		ldr	r3, [r3, #16]
 3287              		.loc 1 881 8 view .LVU879
 3288 006a 3BB3     		cbz	r3, .L184
 3289              		.loc 1 881 47 discriminator 1 view .LVU880
 3290 006c 934B     		ldr	r3, .L235+4
 3291 006e 5B6D     		ldr	r3, [r3, #84]
 3292              		.loc 1 881 36 discriminator 1 view .LVU881
 3293 0070 23B3     		cbz	r3, .L184
 882:Task/Task_BlackBox.c ****     {
 883:Task/Task_BlackBox.c ****         shellPrint(shell_obj, "[ BlackBox ] read api error\r\n");
 884:Task/Task_BlackBox.c ****         return;
 885:Task/Task_BlackBox.c ****     }
 886:Task/Task_BlackBox.c **** 
 887:Task/Task_BlackBox.c ****     memset(&header, 0, BLACKBOX_HEADER_SIZE);
 3294              		.loc 1 887 5 is_stmt 1 view .LVU882
 3295 0072 0026     		movs	r6, #0
 3296 0074 4A96     		str	r6, [sp, #296]
 888:Task/Task_BlackBox.c ****     for (uint16_t i = 0; i < log_cnt; i++)
 3297              		.loc 1 888 5 view .LVU883
 3298              	.LBB13:
 3299              		.loc 1 888 10 view .LVU884
 3300              	.LVL296:
 3301              		.loc 1 888 19 is_stmt 0 view .LVU885
 3302 0076 3746     		mov	r7, r6
 3303              	.LBE13:
 858:Task/Task_BlackBox.c **** 
 3304              		.loc 1 858 13 view .LVU886
 3305 0078 3546     		mov	r5, r6
 3306              	.LVL297:
 3307              	.L186:
 3308              	.LBB16:
 3309              		.loc 1 888 26 is_stmt 1 discriminator 1 view .LVU887
 3310              		.loc 1 888 28 is_stmt 0 discriminator 1 view .LVU888
 3311 007a 4D9B     		ldr	r3, [sp, #308]
 3312              		.loc 1 888 5 discriminator 1 view .LVU889
 3313 007c 9F42     		cmp	r7, r3
 3314 007e 1AD2     		bcs	.L180
 889:Task/Task_BlackBox.c ****     {
ARM GAS  C:\Users\8bit\AppData\Local\Temp\ccdInZoL.s 			page 85


 890:Task/Task_BlackBox.c ****         if (p_blackbox->read(addr, Monitor.p_log_buf, Monitor.log_unit))
 3315              		.loc 1 890 9 is_stmt 1 view .LVU890
 3316              		.loc 1 890 23 is_stmt 0 view .LVU891
 3317 0080 8D4B     		ldr	r3, .L235
 3318 0082 1B68     		ldr	r3, [r3]
 3319 0084 D3F81080 		ldr	r8, [r3, #16]
 3320              		.loc 1 890 13 view .LVU892
 3321 0088 8C4B     		ldr	r3, .L235+4
 3322 008a 1A6D     		ldr	r2, [r3, #80]
 3323 008c 596D     		ldr	r1, [r3, #84]
 3324 008e 3046     		mov	r0, r6
 3325 0090 C047     		blx	r8
 3326              	.LVL298:
 3327              		.loc 1 890 12 view .LVU893
 3328 0092 0028     		cmp	r0, #0
 3329 0094 00F0F081 		beq	.L187
 891:Task/Task_BlackBox.c ****         {
 892:Task/Task_BlackBox.c ****             log_size = Monitor.log_unit;
 3330              		.loc 1 892 13 is_stmt 1 view .LVU894
 3331              		.loc 1 892 31 is_stmt 0 view .LVU895
 3332 0098 884A     		ldr	r2, .L235+4
 3333 009a 136D     		ldr	r3, [r2, #80]
 3334              		.loc 1 892 22 view .LVU896
 3335 009c 4C93     		str	r3, [sp, #304]
 893:Task/Task_BlackBox.c ****             p_log_data = Monitor.p_log_buf;
 3336              		.loc 1 893 13 is_stmt 1 view .LVU897
 3337              		.loc 1 893 33 is_stmt 0 view .LVU898
 3338 009e 526D     		ldr	r2, [r2, #84]
 3339              		.loc 1 893 24 view .LVU899
 3340 00a0 2392     		str	r2, [sp, #140]
 894:Task/Task_BlackBox.c ****             addr += Monitor.log_unit;
 3341              		.loc 1 894 13 is_stmt 1 view .LVU900
 3342              		.loc 1 894 18 is_stmt 0 view .LVU901
 3343 00a2 1E44     		add	r6, r6, r3
 3344              	.LVL299:
 895:Task/Task_BlackBox.c **** 
 896:Task/Task_BlackBox.c ****             /* convert data */
 897:Task/Task_BlackBox.c ****             while (log_size)
 3345              		.loc 1 897 13 is_stmt 1 view .LVU902
 3346              		.loc 1 897 19 is_stmt 0 view .LVU903
 3347 00a4 B4E1     		b	.L188
 3348              	.LVL300:
 3349              	.L228:
 3350              		.loc 1 897 19 view .LVU904
 3351              	.LBE16:
 865:Task/Task_BlackBox.c ****         return;
 3352              		.loc 1 865 9 is_stmt 1 view .LVU905
 3353 00a6 8949     		ldr	r1, .L235+20
 3354 00a8 FFF7FEFF 		bl	shellPrint
 3355              	.LVL301:
 866:Task/Task_BlackBox.c ****     }
 3356              		.loc 1 866 9 view .LVU906
 3357 00ac 03E0     		b	.L180
 3358              	.L229:
 872:Task/Task_BlackBox.c ****         return;
 3359              		.loc 1 872 9 view .LVU907
 3360 00ae 8849     		ldr	r1, .L235+24
ARM GAS  C:\Users\8bit\AppData\Local\Temp\ccdInZoL.s 			page 86


 3361 00b0 2046     		mov	r0, r4
 3362 00b2 FFF7FEFF 		bl	shellPrint
 3363              	.LVL302:
 873:Task/Task_BlackBox.c ****     }
 3364              		.loc 1 873 9 view .LVU908
 3365              	.L180:
 898:Task/Task_BlackBox.c ****             {
 899:Task/Task_BlackBox.c ****                 if (uncomplete_size)
 900:Task/Task_BlackBox.c ****                 {
 901:Task/Task_BlackBox.c ****                     p_remain_buf = remain_buf;
 902:Task/Task_BlackBox.c **** 
 903:Task/Task_BlackBox.c ****                     if (uncomplete_size <= BLACKBOX_HEADER_SIZE)
 904:Task/Task_BlackBox.c ****                     {
 905:Task/Task_BlackBox.c ****                         /* get header first */
 906:Task/Task_BlackBox.c ****                         if (uncomplete_size < BLACKBOX_HEADER_SIZE)
 907:Task/Task_BlackBox.c ****                         {
 908:Task/Task_BlackBox.c ****                             memcpy(p_remain_buf + uncomplete_size, p_log_data, BLACKBOX_HEADER_SIZE
 909:Task/Task_BlackBox.c ****                             p_log_data += (BLACKBOX_HEADER_SIZE - uncomplete_size);
 910:Task/Task_BlackBox.c ****                             log_size -= (BLACKBOX_HEADER_SIZE - uncomplete_size);
 911:Task/Task_BlackBox.c ****                             uncomplete_size = BLACKBOX_HEADER_SIZE;
 912:Task/Task_BlackBox.c ****                         }
 913:Task/Task_BlackBox.c **** 
 914:Task/Task_BlackBox.c ****                         err = TaskBlackBox_ConvertLogData_To_Header(shell_obj, &header, &p_remain_b
 915:Task/Task_BlackBox.c ****                         if (err == BlackBox_Cnv_Size_Error)
 916:Task/Task_BlackBox.c ****                         {
 917:Task/Task_BlackBox.c ****                             err = BlackBox_Cnv_None_Error;
 918:Task/Task_BlackBox.c ****                             uncomplete_size = 0;
 919:Task/Task_BlackBox.c ****                         }
 920:Task/Task_BlackBox.c ****                     }
 921:Task/Task_BlackBox.c ****                     else if (uncomplete_size > BLACKBOX_HEADER_SIZE)
 922:Task/Task_BlackBox.c ****                     {
 923:Task/Task_BlackBox.c ****                         err = TaskBlackBox_ConvertLogData_To_Header(shell_obj, &header, &p_remain_b
 924:Task/Task_BlackBox.c ****                         if ((err != BlackBox_Cnv_None_Error) && (err != BlackBox_Cnv_Size_Error))
 925:Task/Task_BlackBox.c ****                         {
 926:Task/Task_BlackBox.c ****                             /* convert bug */
 927:Task/Task_BlackBox.c ****                             shellPrint(shell_obj, "[ BlackBox ] uncomplete decode error\r\n");
 928:Task/Task_BlackBox.c ****                             return;
 929:Task/Task_BlackBox.c ****                         }
 930:Task/Task_BlackBox.c ****                         else if (err == BlackBox_Cnv_Size_Error)
 931:Task/Task_BlackBox.c ****                             err = BlackBox_Cnv_None_Error;
 932:Task/Task_BlackBox.c **** 
 933:Task/Task_BlackBox.c ****                         uncomplete_size -= BLACKBOX_HEADER_SIZE;
 934:Task/Task_BlackBox.c ****                         p_remain_buf += BLACKBOX_HEADER_SIZE;
 935:Task/Task_BlackBox.c ****                     }
 936:Task/Task_BlackBox.c **** 
 937:Task/Task_BlackBox.c ****                     if (uncomplete_size)
 938:Task/Task_BlackBox.c ****                     {
 939:Task/Task_BlackBox.c ****                         uint32_t decode_size = 0;
 940:Task/Task_BlackBox.c ****                         switch ((uint8_t)header.type)
 941:Task/Task_BlackBox.c ****                         {
 942:Task/Task_BlackBox.c ****                             case BlackBox_Imu_Filted:
 943:Task/Task_BlackBox.c ****                                 if (uncomplete_size <= sizeof(BlackBox_IMUData_TypeDef))
 944:Task/Task_BlackBox.c ****                                 {
 945:Task/Task_BlackBox.c ****                                     memcpy(p_remain_buf + uncomplete_size, p_log_data, sizeof(Black
 946:Task/Task_BlackBox.c ****                                     p_log_data += sizeof(BlackBox_IMUData_TypeDef) - uncomplete_siz
 947:Task/Task_BlackBox.c ****                                     log_size -= sizeof(BlackBox_IMUData_TypeDef) - uncomplete_size;
 948:Task/Task_BlackBox.c ****                                     uncomplete_size = 0;
ARM GAS  C:\Users\8bit\AppData\Local\Temp\ccdInZoL.s 			page 87


 949:Task/Task_BlackBox.c ****                                 }
 950:Task/Task_BlackBox.c ****                                 else
 951:Task/Task_BlackBox.c ****                                 {
 952:Task/Task_BlackBox.c ****                                     memmove(p_remain_buf, p_remain_buf + uncomplete_size, uncomplet
 953:Task/Task_BlackBox.c ****                                     uncomplete_size -= sizeof(BlackBox_IMUData_TypeDef);
 954:Task/Task_BlackBox.c ****                                 }
 955:Task/Task_BlackBox.c **** 
 956:Task/Task_BlackBox.c ****                                 decode_size = sizeof(BlackBox_IMUData_TypeDef);
 957:Task/Task_BlackBox.c ****                                 TaskBlackBox_ConvertLogData_To_IMU(shell_obj, &log_imu, &p_remain_b
 958:Task/Task_BlackBox.c ****                                 break;
 959:Task/Task_BlackBox.c **** 
 960:Task/Task_BlackBox.c ****                             case BlackBox_Log_Alt_Att:
 961:Task/Task_BlackBox.c ****                                 if (uncomplete_size <= sizeof(BlackBox_AttAltData_TypeDef))
 962:Task/Task_BlackBox.c ****                                 {
 963:Task/Task_BlackBox.c ****                                     memcpy(p_remain_buf + uncomplete_size, p_log_data, sizeof(Black
 964:Task/Task_BlackBox.c ****                                     p_log_data += sizeof(BlackBox_AttAltData_TypeDef) - uncomplete_
 965:Task/Task_BlackBox.c ****                                     log_size -= sizeof(BlackBox_AttAltData_TypeDef) - uncomplete_si
 966:Task/Task_BlackBox.c ****                                     uncomplete_size = 0;
 967:Task/Task_BlackBox.c ****                                 }
 968:Task/Task_BlackBox.c ****                                 else
 969:Task/Task_BlackBox.c ****                                 {
 970:Task/Task_BlackBox.c ****                                     memmove(p_remain_buf, p_remain_buf + uncomplete_size, uncomplet
 971:Task/Task_BlackBox.c ****                                     uncomplete_size -= sizeof(BlackBox_AttAltData_TypeDef);
 972:Task/Task_BlackBox.c ****                                 }
 973:Task/Task_BlackBox.c **** 
 974:Task/Task_BlackBox.c ****                                 decode_size = sizeof(BlackBox_AttAltData_TypeDef);
 975:Task/Task_BlackBox.c ****                                 TaskBlackBox_ConvertLogData_To_Alt_Att(shell_obj, &log_att_alt, &p_
 976:Task/Task_BlackBox.c ****                                 break;
 977:Task/Task_BlackBox.c **** 
 978:Task/Task_BlackBox.c ****                             case BlackBox_AngularPID_Tune:
 979:Task/Task_BlackBox.c ****                                 if (uncomplete_size <= sizeof(BlackBox_AngCtlData_TypeDef))
 980:Task/Task_BlackBox.c ****                                 {
 981:Task/Task_BlackBox.c ****                                     memcpy(p_remain_buf + uncomplete_size, p_log_data, sizeof(Black
 982:Task/Task_BlackBox.c ****                                     p_log_data += sizeof(BlackBox_AngCtlData_TypeDef) - uncomplete_
 983:Task/Task_BlackBox.c ****                                     log_size -= sizeof(BlackBox_AngCtlData_TypeDef) - uncomplete_si
 984:Task/Task_BlackBox.c ****                                     uncomplete_size = 0;
 985:Task/Task_BlackBox.c ****                                 }
 986:Task/Task_BlackBox.c ****                                 else
 987:Task/Task_BlackBox.c ****                                 {
 988:Task/Task_BlackBox.c ****                                     memmove(p_remain_buf, p_remain_buf + uncomplete_size, uncomplet
 989:Task/Task_BlackBox.c ****                                     uncomplete_size -= sizeof(BlackBox_AngCtlData_TypeDef);
 990:Task/Task_BlackBox.c ****                                 }
 991:Task/Task_BlackBox.c **** 
 992:Task/Task_BlackBox.c ****                                 decode_size = sizeof(BlackBox_AngCtlData_TypeDef);
 993:Task/Task_BlackBox.c ****                                 TaskBlackBox_ConvertLogData_To_CtlAng(shell_obj, &log_AngCtl, &p_re
 994:Task/Task_BlackBox.c ****                                 break;
 995:Task/Task_BlackBox.c **** 
 996:Task/Task_BlackBox.c ****                             case BlackBox_AttitudePID_Tune:
 997:Task/Task_BlackBox.c ****                                 if (uncomplete_size <= sizeof(BlackBox_AttCtlData_TypeDef))
 998:Task/Task_BlackBox.c ****                                 {
 999:Task/Task_BlackBox.c ****                                     memcpy(p_remain_buf + uncomplete_size, p_log_data, sizeof(Black
1000:Task/Task_BlackBox.c ****                                     p_log_data += sizeof(BlackBox_AttCtlData_TypeDef) - uncomplete_
1001:Task/Task_BlackBox.c ****                                     log_size -= sizeof(BlackBox_AttCtlData_TypeDef) - uncomplete_si
1002:Task/Task_BlackBox.c ****                                     uncomplete_size = 0;
1003:Task/Task_BlackBox.c ****                                 }
1004:Task/Task_BlackBox.c ****                                 else
1005:Task/Task_BlackBox.c ****                                 {
ARM GAS  C:\Users\8bit\AppData\Local\Temp\ccdInZoL.s 			page 88


1006:Task/Task_BlackBox.c ****                                     memmove(p_remain_buf, p_remain_buf + uncomplete_size, uncomplet
1007:Task/Task_BlackBox.c ****                                     uncomplete_size -= sizeof(BlackBox_AttCtlData_TypeDef);
1008:Task/Task_BlackBox.c ****                                 }
1009:Task/Task_BlackBox.c **** 
1010:Task/Task_BlackBox.c ****                                 decode_size = sizeof(BlackBox_AttCtlData_TypeDef);
1011:Task/Task_BlackBox.c ****                                 TaskBlackBox_ConvertLogData_To_CtlAtt(shell_obj, &log_AttCtl, &p_re
1012:Task/Task_BlackBox.c ****                                 break;
1013:Task/Task_BlackBox.c **** 
1014:Task/Task_BlackBox.c ****                             default: return;
1015:Task/Task_BlackBox.c ****                         }
1016:Task/Task_BlackBox.c **** 
1017:Task/Task_BlackBox.c ****                         /* get ender */
1018:Task/Task_BlackBox.c ****                         if (uncomplete_size)
1019:Task/Task_BlackBox.c ****                         {
1020:Task/Task_BlackBox.c ****                             memcpy(remain_buf + uncomplete_size, p_log_data, BLACKBOX_ENDER_SIZE - 
1021:Task/Task_BlackBox.c ****                             decode_size = BLACKBOX_ENDER_SIZE;
1022:Task/Task_BlackBox.c ****                             p_log_data += BLACKBOX_ENDER_SIZE - uncomplete_size;
1023:Task/Task_BlackBox.c ****                             log_size -= BLACKBOX_ENDER_SIZE - uncomplete_size;
1024:Task/Task_BlackBox.c ****                             TaskBlackBox_ConvertLogData_To_Ender(shell_obj, &ender, &p_remain_buf, 
1025:Task/Task_BlackBox.c ****                         }
1026:Task/Task_BlackBox.c ****                         else
1027:Task/Task_BlackBox.c ****                             TaskBlackBox_ConvertLogData_To_Ender(shell_obj, &ender, &p_log_data, &l
1028:Task/Task_BlackBox.c **** 
1029:Task/Task_BlackBox.c ****                         /* get next header */
1030:Task/Task_BlackBox.c ****                         err = TaskBlackBox_ConvertLogData_To_Header(shell_obj, &header, &p_log_data
1031:Task/Task_BlackBox.c ****                     }
1032:Task/Task_BlackBox.c ****                 }
1033:Task/Task_BlackBox.c ****                 else
1034:Task/Task_BlackBox.c ****                     err = TaskBlackBox_ConvertLogData_To_Header(shell_obj, &header, &p_log_data, &l
1035:Task/Task_BlackBox.c **** 
1036:Task/Task_BlackBox.c ****                 if (err == BlackBox_Cnv_None_Error)
1037:Task/Task_BlackBox.c ****                 {
1038:Task/Task_BlackBox.c ****                     uncomplete_size = 0;
1039:Task/Task_BlackBox.c ****                     switch ((uint8_t)header.type)
1040:Task/Task_BlackBox.c ****                     {
1041:Task/Task_BlackBox.c ****                         case BlackBox_Imu_Filted:
1042:Task/Task_BlackBox.c ****                             err = TaskBlackBox_ConvertLogData_To_IMU(shell_obj, &log_imu, &p_log_da
1043:Task/Task_BlackBox.c ****                             check_sum = TaskBlackBox_Get_CheckSum((uint8_t *)&log_imu, sizeof(Black
1044:Task/Task_BlackBox.c ****                             break;
1045:Task/Task_BlackBox.c **** 
1046:Task/Task_BlackBox.c ****                         case BlackBox_Log_Alt_Att:
1047:Task/Task_BlackBox.c ****                             err = TaskBlackBox_ConvertLogData_To_Alt_Att(shell_obj, &log_att_alt, &
1048:Task/Task_BlackBox.c ****                             check_sum = TaskBlackBox_Get_CheckSum((uint8_t *)&log_att_alt, sizeof(B
1049:Task/Task_BlackBox.c ****                             break;
1050:Task/Task_BlackBox.c **** 
1051:Task/Task_BlackBox.c ****                         case BlackBox_AngularPID_Tune:
1052:Task/Task_BlackBox.c ****                             err = TaskBlackBox_ConvertLogData_To_CtlAng(shell_obj, &log_AngCtl, &p_
1053:Task/Task_BlackBox.c ****                             check_sum = TaskBlackBox_Get_CheckSum((uint8_t *)&log_AngCtl, sizeof(Bl
1054:Task/Task_BlackBox.c ****                             break;
1055:Task/Task_BlackBox.c **** 
1056:Task/Task_BlackBox.c ****                         case BlackBox_AttitudePID_Tune:
1057:Task/Task_BlackBox.c ****                             err = TaskBlackBox_ConvertLogData_To_CtlAtt(shell_obj, &log_AttCtl, &p_
1058:Task/Task_BlackBox.c ****                             check_sum = TaskBlackBox_Get_CheckSum((uint8_t *)&log_AttCtl, sizeof(Bl
1059:Task/Task_BlackBox.c ****                             break;
1060:Task/Task_BlackBox.c **** 
1061:Task/Task_BlackBox.c ****                         default: break;
1062:Task/Task_BlackBox.c ****                     }
ARM GAS  C:\Users\8bit\AppData\Local\Temp\ccdInZoL.s 			page 89


1063:Task/Task_BlackBox.c **** 
1064:Task/Task_BlackBox.c ****                     if (err == BlackBox_Cnv_Size_Error)
1065:Task/Task_BlackBox.c ****                     {
1066:Task/Task_BlackBox.c ****                         memset(remain_buf, 0, sizeof(remain_buf));
1067:Task/Task_BlackBox.c ****                         uncomplete_size = log_size;
1068:Task/Task_BlackBox.c ****                         memcpy(remain_buf, p_log_data, uncomplete_size);
1069:Task/Task_BlackBox.c ****                         log_size = 0;
1070:Task/Task_BlackBox.c ****                         break;
1071:Task/Task_BlackBox.c ****                     }
1072:Task/Task_BlackBox.c ****                     else
1073:Task/Task_BlackBox.c ****                     {
1074:Task/Task_BlackBox.c ****                         TaskBlackBox_ConvertLogData_To_Ender(shell_obj, &ender, &p_log_data, &log_s
1075:Task/Task_BlackBox.c **** 
1076:Task/Task_BlackBox.c ****                         if (check_sum != ender.check_sum)
1077:Task/Task_BlackBox.c ****                         {
1078:Task/Task_BlackBox.c ****                             shellPrint(shell_obj, "[ BlackBox ] CheckSum error\r\n");
1079:Task/Task_BlackBox.c ****                             shellPrint(shell_obj, "[ BlackBox ] addr: %d remian: %d\r\n", addr, log
1080:Task/Task_BlackBox.c ****                         }
1081:Task/Task_BlackBox.c ****                     }
1082:Task/Task_BlackBox.c ****                 }
1083:Task/Task_BlackBox.c ****                 else if (err == BlackBox_Cnv_Size_Error)
1084:Task/Task_BlackBox.c ****                 {
1085:Task/Task_BlackBox.c ****                     memset(remain_buf, 0, sizeof(remain_buf));
1086:Task/Task_BlackBox.c ****                     uncomplete_size = log_size;
1087:Task/Task_BlackBox.c ****                     memcpy(remain_buf, p_log_data, uncomplete_size);
1088:Task/Task_BlackBox.c ****                     log_size = 0;
1089:Task/Task_BlackBox.c ****                 }
1090:Task/Task_BlackBox.c ****                 else
1091:Task/Task_BlackBox.c ****                     break;
1092:Task/Task_BlackBox.c ****             }
1093:Task/Task_BlackBox.c ****         }
1094:Task/Task_BlackBox.c ****         else
1095:Task/Task_BlackBox.c ****         {
1096:Task/Task_BlackBox.c ****             shellPrint(shell_obj, "[ BlackBox ] Data read failed\r\n");
1097:Task/Task_BlackBox.c ****             shellPrint(shell_obj, "[ BlackBox ] read address %d\r\n", addr);
1098:Task/Task_BlackBox.c ****             break;
1099:Task/Task_BlackBox.c ****         }
1100:Task/Task_BlackBox.c ****     }
1101:Task/Task_BlackBox.c **** }
 3366              		.loc 1 1101 1 is_stmt 0 view .LVU909
 3367 00b6 4EB0     		add	sp, sp, #312
 3368              	.LCFI33:
 3369              		.cfi_remember_state
 3370              		.cfi_def_cfa_offset 24
 3371              		@ sp needed
 3372 00b8 BDE8F081 		pop	{r4, r5, r6, r7, r8, pc}
 3373              	.LVL303:
 3374              	.L184:
 3375              	.LCFI34:
 3376              		.cfi_restore_state
 883:Task/Task_BlackBox.c ****         return;
 3377              		.loc 1 883 9 is_stmt 1 view .LVU910
 3378 00bc 8549     		ldr	r1, .L235+28
 3379 00be 2046     		mov	r0, r4
 3380 00c0 FFF7FEFF 		bl	shellPrint
 3381              	.LVL304:
 884:Task/Task_BlackBox.c ****     }
ARM GAS  C:\Users\8bit\AppData\Local\Temp\ccdInZoL.s 			page 90


 3382              		.loc 1 884 9 view .LVU911
 3383 00c4 F7E7     		b	.L180
 3384              	.LVL305:
 3385              	.L233:
 3386              	.LBB17:
 908:Task/Task_BlackBox.c ****                             p_log_data += (BLACKBOX_HEADER_SIZE - uncomplete_size);
 3387              		.loc 1 908 29 view .LVU912
 3388 00c6 C0F10402 		rsb	r2, r0, #4
 3389 00ca 2399     		ldr	r1, [sp, #140]
 3390 00cc 02AB     		add	r3, sp, #8
 3391 00ce 1844     		add	r0, r0, r3
 3392 00d0 FFF7FEFF 		bl	memcpy
 3393              	.LVL306:
 909:Task/Task_BlackBox.c ****                             log_size -= (BLACKBOX_HEADER_SIZE - uncomplete_size);
 3394              		.loc 1 909 29 view .LVU913
 909:Task/Task_BlackBox.c ****                             log_size -= (BLACKBOX_HEADER_SIZE - uncomplete_size);
 3395              		.loc 1 909 65 is_stmt 0 view .LVU914
 3396 00d4 229B     		ldr	r3, [sp, #136]
 3397 00d6 C3F10401 		rsb	r1, r3, #4
 909:Task/Task_BlackBox.c ****                             log_size -= (BLACKBOX_HEADER_SIZE - uncomplete_size);
 3398              		.loc 1 909 40 view .LVU915
 3399 00da 239A     		ldr	r2, [sp, #140]
 3400 00dc 0A44     		add	r2, r2, r1
 3401 00de 2392     		str	r2, [sp, #140]
 910:Task/Task_BlackBox.c ****                             uncomplete_size = BLACKBOX_HEADER_SIZE;
 3402              		.loc 1 910 29 is_stmt 1 view .LVU916
 910:Task/Task_BlackBox.c ****                             uncomplete_size = BLACKBOX_HEADER_SIZE;
 3403              		.loc 1 910 38 is_stmt 0 view .LVU917
 3404 00e0 4C9A     		ldr	r2, [sp, #304]
 3405 00e2 1344     		add	r3, r3, r2
 3406 00e4 043B     		subs	r3, r3, #4
 3407 00e6 4C93     		str	r3, [sp, #304]
 911:Task/Task_BlackBox.c ****                         }
 3408              		.loc 1 911 29 is_stmt 1 view .LVU918
 911:Task/Task_BlackBox.c ****                         }
 3409              		.loc 1 911 45 is_stmt 0 view .LVU919
 3410 00e8 0423     		movs	r3, #4
 3411 00ea 2293     		str	r3, [sp, #136]
 3412 00ec 9FE1     		b	.L191
 3413              	.L234:
 917:Task/Task_BlackBox.c ****                             uncomplete_size = 0;
 3414              		.loc 1 917 29 is_stmt 1 view .LVU920
 917:Task/Task_BlackBox.c ****                             uncomplete_size = 0;
 3415              		.loc 1 917 33 is_stmt 0 view .LVU921
 3416 00ee 0023     		movs	r3, #0
 3417 00f0 8DF82E31 		strb	r3, [sp, #302]
 918:Task/Task_BlackBox.c ****                         }
 3418              		.loc 1 918 29 is_stmt 1 view .LVU922
 918:Task/Task_BlackBox.c ****                         }
 3419              		.loc 1 918 45 is_stmt 0 view .LVU923
 3420 00f4 2293     		str	r3, [sp, #136]
 3421 00f6 A8E1     		b	.L192
 3422              	.L190:
 921:Task/Task_BlackBox.c ****                     {
 3423              		.loc 1 921 26 is_stmt 1 view .LVU924
 923:Task/Task_BlackBox.c ****                         if ((err != BlackBox_Cnv_None_Error) && (err != BlackBox_Cnv_Size_Error))
 3424              		.loc 1 923 25 view .LVU925
ARM GAS  C:\Users\8bit\AppData\Local\Temp\ccdInZoL.s 			page 91


 923:Task/Task_BlackBox.c ****                         if ((err != BlackBox_Cnv_None_Error) && (err != BlackBox_Cnv_Size_Error))
 3425              		.loc 1 923 31 is_stmt 0 view .LVU926
 3426 00f8 22AB     		add	r3, sp, #136
 3427 00fa 01AA     		add	r2, sp, #4
 3428 00fc 4AA9     		add	r1, sp, #296
 3429 00fe 2046     		mov	r0, r4
 3430 0100 FFF7FEFF 		bl	TaskBlackBox_ConvertLogData_To_Header
 3431              	.LVL307:
 923:Task/Task_BlackBox.c ****                         if ((err != BlackBox_Cnv_None_Error) && (err != BlackBox_Cnv_Size_Error))
 3432              		.loc 1 923 29 view .LVU927
 3433 0104 8DF82E01 		strb	r0, [sp, #302]
 924:Task/Task_BlackBox.c ****                         {
 3434              		.loc 1 924 25 is_stmt 1 view .LVU928
 924:Task/Task_BlackBox.c ****                         {
 3435              		.loc 1 924 34 is_stmt 0 view .LVU929
 3436 0108 9DF82E31 		ldrb	r3, [sp, #302]	@ zero_extendqisi2
 924:Task/Task_BlackBox.c ****                         {
 3437              		.loc 1 924 28 view .LVU930
 3438 010c 23B1     		cbz	r3, .L193
 924:Task/Task_BlackBox.c ****                         {
 3439              		.loc 1 924 70 discriminator 1 view .LVU931
 3440 010e 9DF82E31 		ldrb	r3, [sp, #302]	@ zero_extendqisi2
 3441 0112 DBB2     		uxtb	r3, r3
 924:Task/Task_BlackBox.c ****                         {
 3442              		.loc 1 924 62 discriminator 1 view .LVU932
 3443 0114 022B     		cmp	r3, #2
 3444 0116 0BD1     		bne	.L230
 3445              	.L193:
 930:Task/Task_BlackBox.c ****                             err = BlackBox_Cnv_None_Error;
 3446              		.loc 1 930 30 is_stmt 1 view .LVU933
 930:Task/Task_BlackBox.c ****                             err = BlackBox_Cnv_None_Error;
 3447              		.loc 1 930 38 is_stmt 0 view .LVU934
 3448 0118 9DF82E31 		ldrb	r3, [sp, #302]	@ zero_extendqisi2
 3449 011c DBB2     		uxtb	r3, r3
 930:Task/Task_BlackBox.c ****                             err = BlackBox_Cnv_None_Error;
 3450              		.loc 1 930 33 view .LVU935
 3451 011e 022B     		cmp	r3, #2
 3452 0120 0BD0     		beq	.L231
 3453              	.L194:
 933:Task/Task_BlackBox.c ****                         p_remain_buf += BLACKBOX_HEADER_SIZE;
 3454              		.loc 1 933 25 is_stmt 1 view .LVU936
 933:Task/Task_BlackBox.c ****                         p_remain_buf += BLACKBOX_HEADER_SIZE;
 3455              		.loc 1 933 41 is_stmt 0 view .LVU937
 3456 0122 229B     		ldr	r3, [sp, #136]
 3457 0124 043B     		subs	r3, r3, #4
 3458 0126 2293     		str	r3, [sp, #136]
 934:Task/Task_BlackBox.c ****                     }
 3459              		.loc 1 934 25 is_stmt 1 view .LVU938
 934:Task/Task_BlackBox.c ****                     }
 3460              		.loc 1 934 38 is_stmt 0 view .LVU939
 3461 0128 019B     		ldr	r3, [sp, #4]
 3462 012a 0433     		adds	r3, r3, #4
 3463 012c 0193     		str	r3, [sp, #4]
 3464 012e 8CE1     		b	.L192
 3465              	.L230:
 927:Task/Task_BlackBox.c ****                             return;
 3466              		.loc 1 927 29 is_stmt 1 view .LVU940
ARM GAS  C:\Users\8bit\AppData\Local\Temp\ccdInZoL.s 			page 92


 3467 0130 6949     		ldr	r1, .L235+32
 3468 0132 2046     		mov	r0, r4
 3469 0134 FFF7FEFF 		bl	shellPrint
 3470              	.LVL308:
 928:Task/Task_BlackBox.c ****                         }
 3471              		.loc 1 928 29 view .LVU941
 3472 0138 BDE7     		b	.L180
 3473              	.L231:
 931:Task/Task_BlackBox.c **** 
 3474              		.loc 1 931 29 view .LVU942
 931:Task/Task_BlackBox.c **** 
 3475              		.loc 1 931 33 is_stmt 0 view .LVU943
 3476 013a 0023     		movs	r3, #0
 3477 013c 8DF82E31 		strb	r3, [sp, #302]
 3478 0140 EFE7     		b	.L194
 3479              	.L201:
 3480              	.LBB14:
 943:Task/Task_BlackBox.c ****                                 {
 3481              		.loc 1 943 33 is_stmt 1 view .LVU944
 943:Task/Task_BlackBox.c ****                                 {
 3482              		.loc 1 943 36 is_stmt 0 view .LVU945
 3483 0142 262B     		cmp	r3, #38
 3484 0144 40D8     		bhi	.L202
 945:Task/Task_BlackBox.c ****                                     p_log_data += sizeof(BlackBox_IMUData_TypeDef) - uncomplete_siz
 3485              		.loc 1 945 37 is_stmt 1 view .LVU946
 3486 0146 0198     		ldr	r0, [sp, #4]
 3487 0148 C3F12602 		rsb	r2, r3, #38
 3488 014c 2399     		ldr	r1, [sp, #140]
 3489 014e 1844     		add	r0, r0, r3
 3490 0150 FFF7FEFF 		bl	memcpy
 3491              	.LVL309:
 946:Task/Task_BlackBox.c ****                                     log_size -= sizeof(BlackBox_IMUData_TypeDef) - uncomplete_size;
 3492              		.loc 1 946 37 view .LVU947
 946:Task/Task_BlackBox.c ****                                     log_size -= sizeof(BlackBox_IMUData_TypeDef) - uncomplete_size;
 3493              		.loc 1 946 84 is_stmt 0 view .LVU948
 3494 0154 229B     		ldr	r3, [sp, #136]
 3495 0156 C3F12601 		rsb	r1, r3, #38
 946:Task/Task_BlackBox.c ****                                     log_size -= sizeof(BlackBox_IMUData_TypeDef) - uncomplete_size;
 3496              		.loc 1 946 48 view .LVU949
 3497 015a 239A     		ldr	r2, [sp, #140]
 3498 015c 0A44     		add	r2, r2, r1
 3499 015e 2392     		str	r2, [sp, #140]
 947:Task/Task_BlackBox.c ****                                     uncomplete_size = 0;
 3500              		.loc 1 947 37 is_stmt 1 view .LVU950
 947:Task/Task_BlackBox.c ****                                     uncomplete_size = 0;
 3501              		.loc 1 947 46 is_stmt 0 view .LVU951
 3502 0160 4C9A     		ldr	r2, [sp, #304]
 3503 0162 1344     		add	r3, r3, r2
 3504 0164 263B     		subs	r3, r3, #38
 3505 0166 4C93     		str	r3, [sp, #304]
 948:Task/Task_BlackBox.c ****                                 }
 3506              		.loc 1 948 37 is_stmt 1 view .LVU952
 948:Task/Task_BlackBox.c ****                                 }
 3507              		.loc 1 948 53 is_stmt 0 view .LVU953
 3508 0168 0023     		movs	r3, #0
 3509 016a 2293     		str	r3, [sp, #136]
 3510              	.L203:
ARM GAS  C:\Users\8bit\AppData\Local\Temp\ccdInZoL.s 			page 93


 956:Task/Task_BlackBox.c ****                                 TaskBlackBox_ConvertLogData_To_IMU(shell_obj, &log_imu, &p_remain_b
 3511              		.loc 1 956 33 is_stmt 1 view .LVU954
 956:Task/Task_BlackBox.c ****                                 TaskBlackBox_ConvertLogData_To_IMU(shell_obj, &log_imu, &p_remain_b
 3512              		.loc 1 956 45 is_stmt 0 view .LVU955
 3513 016c 2623     		movs	r3, #38
 3514 016e 0093     		str	r3, [sp]
 957:Task/Task_BlackBox.c ****                                 break;
 3515              		.loc 1 957 33 is_stmt 1 view .LVU956
 3516 0170 6B46     		mov	r3, sp
 3517 0172 01AA     		add	r2, sp, #4
 3518 0174 3FA9     		add	r1, sp, #252
 3519 0176 2046     		mov	r0, r4
 3520 0178 FFF7FEFF 		bl	TaskBlackBox_ConvertLogData_To_IMU
 3521              	.LVL310:
 958:Task/Task_BlackBox.c **** 
 3522              		.loc 1 958 33 view .LVU957
 3523              	.L204:
1018:Task/Task_BlackBox.c ****                         {
 3524              		.loc 1 1018 25 view .LVU958
1018:Task/Task_BlackBox.c ****                         {
 3525              		.loc 1 1018 29 is_stmt 0 view .LVU959
 3526 017c 2298     		ldr	r0, [sp, #136]
1018:Task/Task_BlackBox.c ****                         {
 3527              		.loc 1 1018 28 view .LVU960
 3528 017e 0028     		cmp	r0, #0
 3529 0180 00F0B680 		beq	.L211
1020:Task/Task_BlackBox.c ****                             decode_size = BLACKBOX_ENDER_SIZE;
 3530              		.loc 1 1020 29 is_stmt 1 view .LVU961
 3531 0184 C0F10302 		rsb	r2, r0, #3
 3532 0188 2399     		ldr	r1, [sp, #140]
 3533 018a 02AB     		add	r3, sp, #8
 3534 018c 1844     		add	r0, r0, r3
 3535 018e FFF7FEFF 		bl	memcpy
 3536              	.LVL311:
1021:Task/Task_BlackBox.c ****                             p_log_data += BLACKBOX_ENDER_SIZE - uncomplete_size;
 3537              		.loc 1 1021 29 view .LVU962
1021:Task/Task_BlackBox.c ****                             p_log_data += BLACKBOX_ENDER_SIZE - uncomplete_size;
 3538              		.loc 1 1021 41 is_stmt 0 view .LVU963
 3539 0192 0323     		movs	r3, #3
 3540 0194 0093     		str	r3, [sp]
1022:Task/Task_BlackBox.c ****                             log_size -= BLACKBOX_ENDER_SIZE - uncomplete_size;
 3541              		.loc 1 1022 29 is_stmt 1 view .LVU964
1022:Task/Task_BlackBox.c ****                             log_size -= BLACKBOX_ENDER_SIZE - uncomplete_size;
 3542              		.loc 1 1022 63 is_stmt 0 view .LVU965
 3543 0196 229B     		ldr	r3, [sp, #136]
 3544 0198 C3F10301 		rsb	r1, r3, #3
1022:Task/Task_BlackBox.c ****                             log_size -= BLACKBOX_ENDER_SIZE - uncomplete_size;
 3545              		.loc 1 1022 40 view .LVU966
 3546 019c 239A     		ldr	r2, [sp, #140]
 3547 019e 0A44     		add	r2, r2, r1
 3548 01a0 2392     		str	r2, [sp, #140]
1023:Task/Task_BlackBox.c ****                             TaskBlackBox_ConvertLogData_To_Ender(shell_obj, &ender, &p_remain_buf, 
 3549              		.loc 1 1023 29 is_stmt 1 view .LVU967
1023:Task/Task_BlackBox.c ****                             TaskBlackBox_ConvertLogData_To_Ender(shell_obj, &ender, &p_remain_buf, 
 3550              		.loc 1 1023 38 is_stmt 0 view .LVU968
 3551 01a2 4C9A     		ldr	r2, [sp, #304]
 3552 01a4 1344     		add	r3, r3, r2
ARM GAS  C:\Users\8bit\AppData\Local\Temp\ccdInZoL.s 			page 94


 3553 01a6 033B     		subs	r3, r3, #3
 3554 01a8 4C93     		str	r3, [sp, #304]
1024:Task/Task_BlackBox.c ****                         }
 3555              		.loc 1 1024 29 is_stmt 1 view .LVU969
 3556 01aa 6B46     		mov	r3, sp
 3557 01ac 01AA     		add	r2, sp, #4
 3558 01ae 49A9     		add	r1, sp, #292
 3559 01b0 2046     		mov	r0, r4
 3560 01b2 FFF7FEFF 		bl	TaskBlackBox_ConvertLogData_To_Ender
 3561              	.LVL312:
 3562              	.L212:
1030:Task/Task_BlackBox.c ****                     }
 3563              		.loc 1 1030 25 view .LVU970
1030:Task/Task_BlackBox.c ****                     }
 3564              		.loc 1 1030 31 is_stmt 0 view .LVU971
 3565 01b6 4CAB     		add	r3, sp, #304
 3566 01b8 23AA     		add	r2, sp, #140
 3567 01ba 4AA9     		add	r1, sp, #296
 3568 01bc 2046     		mov	r0, r4
 3569 01be FFF7FEFF 		bl	TaskBlackBox_ConvertLogData_To_Header
 3570              	.LVL313:
1030:Task/Task_BlackBox.c ****                     }
 3571              		.loc 1 1030 29 view .LVU972
 3572 01c2 8DF82E01 		strb	r0, [sp, #302]
 3573 01c6 A2E0     		b	.L195
 3574              	.L202:
 952:Task/Task_BlackBox.c ****                                     uncomplete_size -= sizeof(BlackBox_IMUData_TypeDef);
 3575              		.loc 1 952 37 is_stmt 1 view .LVU973
 3576 01c8 0198     		ldr	r0, [sp, #4]
 3577 01ca A3F12602 		sub	r2, r3, #38
 3578 01ce C118     		adds	r1, r0, r3
 3579 01d0 FFF7FEFF 		bl	memmove
 3580              	.LVL314:
 953:Task/Task_BlackBox.c ****                                 }
 3581              		.loc 1 953 37 view .LVU974
 953:Task/Task_BlackBox.c ****                                 }
 3582              		.loc 1 953 53 is_stmt 0 view .LVU975
 3583 01d4 229B     		ldr	r3, [sp, #136]
 3584 01d6 263B     		subs	r3, r3, #38
 3585 01d8 2293     		str	r3, [sp, #136]
 3586 01da C7E7     		b	.L203
 3587              	.L200:
 961:Task/Task_BlackBox.c ****                                 {
 3588              		.loc 1 961 33 is_stmt 1 view .LVU976
 961:Task/Task_BlackBox.c ****                                 {
 3589              		.loc 1 961 36 is_stmt 0 view .LVU977
 3590 01dc 2C2B     		cmp	r3, #44
 3591 01de 1BD8     		bhi	.L205
 963:Task/Task_BlackBox.c ****                                     p_log_data += sizeof(BlackBox_AttAltData_TypeDef) - uncomplete_
 3592              		.loc 1 963 37 is_stmt 1 view .LVU978
 3593 01e0 0198     		ldr	r0, [sp, #4]
 3594 01e2 C3F12C02 		rsb	r2, r3, #44
 3595 01e6 2399     		ldr	r1, [sp, #140]
 3596 01e8 1844     		add	r0, r0, r3
 3597 01ea FFF7FEFF 		bl	memcpy
 3598              	.LVL315:
 964:Task/Task_BlackBox.c ****                                     log_size -= sizeof(BlackBox_AttAltData_TypeDef) - uncomplete_si
ARM GAS  C:\Users\8bit\AppData\Local\Temp\ccdInZoL.s 			page 95


 3599              		.loc 1 964 37 view .LVU979
 964:Task/Task_BlackBox.c ****                                     log_size -= sizeof(BlackBox_AttAltData_TypeDef) - uncomplete_si
 3600              		.loc 1 964 87 is_stmt 0 view .LVU980
 3601 01ee 229B     		ldr	r3, [sp, #136]
 3602 01f0 C3F12C01 		rsb	r1, r3, #44
 964:Task/Task_BlackBox.c ****                                     log_size -= sizeof(BlackBox_AttAltData_TypeDef) - uncomplete_si
 3603              		.loc 1 964 48 view .LVU981
 3604 01f4 239A     		ldr	r2, [sp, #140]
 3605 01f6 0A44     		add	r2, r2, r1
 3606 01f8 2392     		str	r2, [sp, #140]
 965:Task/Task_BlackBox.c ****                                     uncomplete_size = 0;
 3607              		.loc 1 965 37 is_stmt 1 view .LVU982
 965:Task/Task_BlackBox.c ****                                     uncomplete_size = 0;
 3608              		.loc 1 965 46 is_stmt 0 view .LVU983
 3609 01fa 4C9A     		ldr	r2, [sp, #304]
 3610 01fc 1344     		add	r3, r3, r2
 3611 01fe 2C3B     		subs	r3, r3, #44
 3612 0200 4C93     		str	r3, [sp, #304]
 966:Task/Task_BlackBox.c ****                                 }
 3613              		.loc 1 966 37 is_stmt 1 view .LVU984
 966:Task/Task_BlackBox.c ****                                 }
 3614              		.loc 1 966 53 is_stmt 0 view .LVU985
 3615 0202 0023     		movs	r3, #0
 3616 0204 2293     		str	r3, [sp, #136]
 3617              	.L206:
 974:Task/Task_BlackBox.c ****                                 TaskBlackBox_ConvertLogData_To_Alt_Att(shell_obj, &log_att_alt, &p_
 3618              		.loc 1 974 33 is_stmt 1 view .LVU986
 974:Task/Task_BlackBox.c ****                                 TaskBlackBox_ConvertLogData_To_Alt_Att(shell_obj, &log_att_alt, &p_
 3619              		.loc 1 974 45 is_stmt 0 view .LVU987
 3620 0206 2C23     		movs	r3, #44
 3621 0208 0093     		str	r3, [sp]
 975:Task/Task_BlackBox.c ****                                 break;
 3622              		.loc 1 975 33 is_stmt 1 view .LVU988
 3623 020a 6B46     		mov	r3, sp
 3624 020c 01AA     		add	r2, sp, #4
 3625 020e 34A9     		add	r1, sp, #208
 3626 0210 2046     		mov	r0, r4
 3627 0212 FFF7FEFF 		bl	TaskBlackBox_ConvertLogData_To_Alt_Att
 3628              	.LVL316:
 976:Task/Task_BlackBox.c **** 
 3629              		.loc 1 976 33 view .LVU989
 3630 0216 B1E7     		b	.L204
 3631              	.L205:
 970:Task/Task_BlackBox.c ****                                     uncomplete_size -= sizeof(BlackBox_AttAltData_TypeDef);
 3632              		.loc 1 970 37 view .LVU990
 3633 0218 0198     		ldr	r0, [sp, #4]
 3634 021a A3F12C02 		sub	r2, r3, #44
 3635 021e C118     		adds	r1, r0, r3
 3636 0220 FFF7FEFF 		bl	memmove
 3637              	.LVL317:
 971:Task/Task_BlackBox.c ****                                 }
 3638              		.loc 1 971 37 view .LVU991
 971:Task/Task_BlackBox.c ****                                 }
 3639              		.loc 1 971 53 is_stmt 0 view .LVU992
 3640 0224 229B     		ldr	r3, [sp, #136]
 3641 0226 2C3B     		subs	r3, r3, #44
 3642 0228 2293     		str	r3, [sp, #136]
ARM GAS  C:\Users\8bit\AppData\Local\Temp\ccdInZoL.s 			page 96


 3643 022a ECE7     		b	.L206
 3644              	.L199:
 979:Task/Task_BlackBox.c ****                                 {
 3645              		.loc 1 979 33 is_stmt 1 view .LVU993
 979:Task/Task_BlackBox.c ****                                 {
 3646              		.loc 1 979 36 is_stmt 0 view .LVU994
 3647 022c 1D2B     		cmp	r3, #29
 3648 022e 1BD8     		bhi	.L207
 981:Task/Task_BlackBox.c ****                                     p_log_data += sizeof(BlackBox_AngCtlData_TypeDef) - uncomplete_
 3649              		.loc 1 981 37 is_stmt 1 view .LVU995
 3650 0230 0198     		ldr	r0, [sp, #4]
 3651 0232 C3F11D02 		rsb	r2, r3, #29
 3652 0236 2399     		ldr	r1, [sp, #140]
 3653 0238 1844     		add	r0, r0, r3
 3654 023a FFF7FEFF 		bl	memcpy
 3655              	.LVL318:
 982:Task/Task_BlackBox.c ****                                     log_size -= sizeof(BlackBox_AngCtlData_TypeDef) - uncomplete_si
 3656              		.loc 1 982 37 view .LVU996
 982:Task/Task_BlackBox.c ****                                     log_size -= sizeof(BlackBox_AngCtlData_TypeDef) - uncomplete_si
 3657              		.loc 1 982 87 is_stmt 0 view .LVU997
 3658 023e 229B     		ldr	r3, [sp, #136]
 3659 0240 C3F11D01 		rsb	r1, r3, #29
 982:Task/Task_BlackBox.c ****                                     log_size -= sizeof(BlackBox_AngCtlData_TypeDef) - uncomplete_si
 3660              		.loc 1 982 48 view .LVU998
 3661 0244 239A     		ldr	r2, [sp, #140]
 3662 0246 0A44     		add	r2, r2, r1
 3663 0248 2392     		str	r2, [sp, #140]
 983:Task/Task_BlackBox.c ****                                     uncomplete_size = 0;
 3664              		.loc 1 983 37 is_stmt 1 view .LVU999
 983:Task/Task_BlackBox.c ****                                     uncomplete_size = 0;
 3665              		.loc 1 983 46 is_stmt 0 view .LVU1000
 3666 024a 4C9A     		ldr	r2, [sp, #304]
 3667 024c 1344     		add	r3, r3, r2
 3668 024e 1D3B     		subs	r3, r3, #29
 3669 0250 4C93     		str	r3, [sp, #304]
 984:Task/Task_BlackBox.c ****                                 }
 3670              		.loc 1 984 37 is_stmt 1 view .LVU1001
 984:Task/Task_BlackBox.c ****                                 }
 3671              		.loc 1 984 53 is_stmt 0 view .LVU1002
 3672 0252 0023     		movs	r3, #0
 3673 0254 2293     		str	r3, [sp, #136]
 3674              	.L208:
 992:Task/Task_BlackBox.c ****                                 TaskBlackBox_ConvertLogData_To_CtlAng(shell_obj, &log_AngCtl, &p_re
 3675              		.loc 1 992 33 is_stmt 1 view .LVU1003
 992:Task/Task_BlackBox.c ****                                 TaskBlackBox_ConvertLogData_To_CtlAng(shell_obj, &log_AngCtl, &p_re
 3676              		.loc 1 992 45 is_stmt 0 view .LVU1004
 3677 0256 1D23     		movs	r3, #29
 3678 0258 0093     		str	r3, [sp]
 993:Task/Task_BlackBox.c ****                                 break;
 3679              		.loc 1 993 33 is_stmt 1 view .LVU1005
 3680 025a 6B46     		mov	r3, sp
 3681 025c 01AA     		add	r2, sp, #4
 3682 025e 2CA9     		add	r1, sp, #176
 3683 0260 2046     		mov	r0, r4
 3684 0262 FFF7FEFF 		bl	TaskBlackBox_ConvertLogData_To_CtlAng
 3685              	.LVL319:
 994:Task/Task_BlackBox.c **** 
ARM GAS  C:\Users\8bit\AppData\Local\Temp\ccdInZoL.s 			page 97


 3686              		.loc 1 994 33 view .LVU1006
 3687 0266 89E7     		b	.L204
 3688              	.L207:
 988:Task/Task_BlackBox.c ****                                     uncomplete_size -= sizeof(BlackBox_AngCtlData_TypeDef);
 3689              		.loc 1 988 37 view .LVU1007
 3690 0268 0198     		ldr	r0, [sp, #4]
 3691 026a A3F11D02 		sub	r2, r3, #29
 3692 026e C118     		adds	r1, r0, r3
 3693 0270 FFF7FEFF 		bl	memmove
 3694              	.LVL320:
 989:Task/Task_BlackBox.c ****                                 }
 3695              		.loc 1 989 37 view .LVU1008
 989:Task/Task_BlackBox.c ****                                 }
 3696              		.loc 1 989 53 is_stmt 0 view .LVU1009
 3697 0274 229B     		ldr	r3, [sp, #136]
 3698 0276 1D3B     		subs	r3, r3, #29
 3699 0278 2293     		str	r3, [sp, #136]
 3700 027a ECE7     		b	.L208
 3701              	.L197:
 997:Task/Task_BlackBox.c ****                                 {
 3702              		.loc 1 997 33 is_stmt 1 view .LVU1010
 997:Task/Task_BlackBox.c ****                                 {
 3703              		.loc 1 997 36 is_stmt 0 view .LVU1011
 3704 027c 1D2B     		cmp	r3, #29
 3705 027e 2DD8     		bhi	.L209
 999:Task/Task_BlackBox.c ****                                     p_log_data += sizeof(BlackBox_AttCtlData_TypeDef) - uncomplete_
 3706              		.loc 1 999 37 is_stmt 1 view .LVU1012
 3707 0280 0198     		ldr	r0, [sp, #4]
 3708 0282 C3F11D02 		rsb	r2, r3, #29
 3709 0286 2399     		ldr	r1, [sp, #140]
 3710 0288 1844     		add	r0, r0, r3
 3711 028a FFF7FEFF 		bl	memcpy
 3712              	.LVL321:
1000:Task/Task_BlackBox.c ****                                     log_size -= sizeof(BlackBox_AttCtlData_TypeDef) - uncomplete_si
 3713              		.loc 1 1000 37 view .LVU1013
1000:Task/Task_BlackBox.c ****                                     log_size -= sizeof(BlackBox_AttCtlData_TypeDef) - uncomplete_si
 3714              		.loc 1 1000 87 is_stmt 0 view .LVU1014
 3715 028e 229B     		ldr	r3, [sp, #136]
 3716 0290 C3F11D01 		rsb	r1, r3, #29
1000:Task/Task_BlackBox.c ****                                     log_size -= sizeof(BlackBox_AttCtlData_TypeDef) - uncomplete_si
 3717              		.loc 1 1000 48 view .LVU1015
 3718 0294 239A     		ldr	r2, [sp, #140]
 3719 0296 0A44     		add	r2, r2, r1
 3720 0298 2392     		str	r2, [sp, #140]
1001:Task/Task_BlackBox.c ****                                     uncomplete_size = 0;
 3721              		.loc 1 1001 37 is_stmt 1 view .LVU1016
1001:Task/Task_BlackBox.c ****                                     uncomplete_size = 0;
 3722              		.loc 1 1001 46 is_stmt 0 view .LVU1017
 3723 029a 4C9A     		ldr	r2, [sp, #304]
 3724 029c 1344     		add	r3, r3, r2
 3725 029e 1D3B     		subs	r3, r3, #29
 3726 02a0 4C93     		str	r3, [sp, #304]
1002:Task/Task_BlackBox.c ****                                 }
 3727              		.loc 1 1002 37 is_stmt 1 view .LVU1018
1002:Task/Task_BlackBox.c ****                                 }
 3728              		.loc 1 1002 53 is_stmt 0 view .LVU1019
 3729 02a2 0023     		movs	r3, #0
ARM GAS  C:\Users\8bit\AppData\Local\Temp\ccdInZoL.s 			page 98


 3730 02a4 2293     		str	r3, [sp, #136]
 3731              	.L210:
1010:Task/Task_BlackBox.c ****                                 TaskBlackBox_ConvertLogData_To_CtlAtt(shell_obj, &log_AttCtl, &p_re
 3732              		.loc 1 1010 33 is_stmt 1 view .LVU1020
1010:Task/Task_BlackBox.c ****                                 TaskBlackBox_ConvertLogData_To_CtlAtt(shell_obj, &log_AttCtl, &p_re
 3733              		.loc 1 1010 45 is_stmt 0 view .LVU1021
 3734 02a6 1D23     		movs	r3, #29
 3735 02a8 0093     		str	r3, [sp]
1011:Task/Task_BlackBox.c ****                                 break;
 3736              		.loc 1 1011 33 is_stmt 1 view .LVU1022
 3737 02aa 6B46     		mov	r3, sp
 3738 02ac 01AA     		add	r2, sp, #4
 3739 02ae 24A9     		add	r1, sp, #144
 3740 02b0 2046     		mov	r0, r4
 3741 02b2 FFF7FEFF 		bl	TaskBlackBox_ConvertLogData_To_CtlAtt
 3742              	.LVL322:
1012:Task/Task_BlackBox.c **** 
 3743              		.loc 1 1012 33 view .LVU1023
 3744 02b6 61E7     		b	.L204
 3745              	.L236:
 3746              		.align	2
 3747              	.L235:
 3748 02b8 00000000 		.word	.LANCHOR12
 3749 02bc 00000000 		.word	.LANCHOR1
 3750 02c0 40000000 		.word	.LC31
 3751 02c4 6C000000 		.word	.LC32
 3752 02c8 98000000 		.word	.LC33
 3753 02cc 00000000 		.word	.LC29
 3754 02d0 24000000 		.word	.LC30
 3755 02d4 C4000000 		.word	.LC34
 3756 02d8 E4000000 		.word	.LC35
 3757              	.L209:
1006:Task/Task_BlackBox.c ****                                     uncomplete_size -= sizeof(BlackBox_AttCtlData_TypeDef);
 3758              		.loc 1 1006 37 view .LVU1024
 3759 02dc 0198     		ldr	r0, [sp, #4]
 3760 02de A3F11D02 		sub	r2, r3, #29
 3761 02e2 C118     		adds	r1, r0, r3
 3762 02e4 FFF7FEFF 		bl	memmove
 3763              	.LVL323:
1007:Task/Task_BlackBox.c ****                                 }
 3764              		.loc 1 1007 37 view .LVU1025
1007:Task/Task_BlackBox.c ****                                 }
 3765              		.loc 1 1007 53 is_stmt 0 view .LVU1026
 3766 02e8 229B     		ldr	r3, [sp, #136]
 3767 02ea 1D3B     		subs	r3, r3, #29
 3768 02ec 2293     		str	r3, [sp, #136]
 3769 02ee DAE7     		b	.L210
 3770              	.L211:
1027:Task/Task_BlackBox.c **** 
 3771              		.loc 1 1027 29 is_stmt 1 view .LVU1027
 3772 02f0 4CAB     		add	r3, sp, #304
 3773 02f2 23AA     		add	r2, sp, #140
 3774 02f4 49A9     		add	r1, sp, #292
 3775 02f6 2046     		mov	r0, r4
 3776 02f8 FFF7FEFF 		bl	TaskBlackBox_ConvertLogData_To_Ender
 3777              	.LVL324:
 3778 02fc 5BE7     		b	.L212
ARM GAS  C:\Users\8bit\AppData\Local\Temp\ccdInZoL.s 			page 99


 3779              	.L189:
1027:Task/Task_BlackBox.c **** 
 3780              		.loc 1 1027 29 is_stmt 0 view .LVU1028
 3781              	.LBE14:
1034:Task/Task_BlackBox.c **** 
 3782              		.loc 1 1034 21 is_stmt 1 view .LVU1029
1034:Task/Task_BlackBox.c **** 
 3783              		.loc 1 1034 27 is_stmt 0 view .LVU1030
 3784 02fe 4CAB     		add	r3, sp, #304
 3785 0300 23AA     		add	r2, sp, #140
 3786 0302 4AA9     		add	r1, sp, #296
 3787 0304 2046     		mov	r0, r4
 3788 0306 FFF7FEFF 		bl	TaskBlackBox_ConvertLogData_To_Header
 3789              	.LVL325:
1034:Task/Task_BlackBox.c **** 
 3790              		.loc 1 1034 25 view .LVU1031
 3791 030a 8DF82E01 		strb	r0, [sp, #302]
 3792              	.L195:
1036:Task/Task_BlackBox.c ****                 {
 3793              		.loc 1 1036 17 is_stmt 1 view .LVU1032
1036:Task/Task_BlackBox.c ****                 {
 3794              		.loc 1 1036 25 is_stmt 0 view .LVU1033
 3795 030e 9DF82E31 		ldrb	r3, [sp, #302]	@ zero_extendqisi2
1036:Task/Task_BlackBox.c ****                 {
 3796              		.loc 1 1036 20 view .LVU1034
 3797 0312 002B     		cmp	r3, #0
 3798 0314 6AD1     		bne	.L213
1038:Task/Task_BlackBox.c ****                     switch ((uint8_t)header.type)
 3799              		.loc 1 1038 21 is_stmt 1 view .LVU1035
1038:Task/Task_BlackBox.c ****                     switch ((uint8_t)header.type)
 3800              		.loc 1 1038 37 is_stmt 0 view .LVU1036
 3801 0316 2293     		str	r3, [sp, #136]
1039:Task/Task_BlackBox.c ****                     {
 3802              		.loc 1 1039 21 is_stmt 1 view .LVU1037
1039:Task/Task_BlackBox.c ****                     {
 3803              		.loc 1 1039 44 is_stmt 0 view .LVU1038
 3804 0318 9DF82A31 		ldrb	r3, [sp, #298]	@ zero_extendqisi2
1039:Task/Task_BlackBox.c ****                     {
 3805              		.loc 1 1039 21 view .LVU1039
 3806 031c 013B     		subs	r3, r3, #1
 3807 031e 032B     		cmp	r3, #3
 3808 0320 10D8     		bhi	.L214
 3809 0322 DFE803F0 		tbb	[pc, r3]
 3810              	.L216:
 3811 0326 02       		.byte	(.L219-.L216)/2
 3812 0327 29       		.byte	(.L218-.L216)/2
 3813 0328 37       		.byte	(.L217-.L216)/2
 3814 0329 45       		.byte	(.L215-.L216)/2
 3815              		.p2align 1
 3816              	.L219:
1042:Task/Task_BlackBox.c ****                             check_sum = TaskBlackBox_Get_CheckSum((uint8_t *)&log_imu, sizeof(Black
 3817              		.loc 1 1042 29 is_stmt 1 view .LVU1040
1042:Task/Task_BlackBox.c ****                             check_sum = TaskBlackBox_Get_CheckSum((uint8_t *)&log_imu, sizeof(Black
 3818              		.loc 1 1042 35 is_stmt 0 view .LVU1041
 3819 032a 4CAB     		add	r3, sp, #304
 3820 032c 23AA     		add	r2, sp, #140
 3821 032e 3FA9     		add	r1, sp, #252
ARM GAS  C:\Users\8bit\AppData\Local\Temp\ccdInZoL.s 			page 100


 3822 0330 2046     		mov	r0, r4
 3823 0332 FFF7FEFF 		bl	TaskBlackBox_ConvertLogData_To_IMU
 3824              	.LVL326:
1042:Task/Task_BlackBox.c ****                             check_sum = TaskBlackBox_Get_CheckSum((uint8_t *)&log_imu, sizeof(Black
 3825              		.loc 1 1042 33 view .LVU1042
 3826 0336 8DF82E01 		strb	r0, [sp, #302]
1043:Task/Task_BlackBox.c ****                             break;
 3827              		.loc 1 1043 29 is_stmt 1 view .LVU1043
1043:Task/Task_BlackBox.c ****                             break;
 3828              		.loc 1 1043 41 is_stmt 0 view .LVU1044
 3829 033a 2621     		movs	r1, #38
 3830 033c 3FA8     		add	r0, sp, #252
 3831 033e FFF7FEFF 		bl	TaskBlackBox_Get_CheckSum
 3832              	.LVL327:
 3833 0342 0546     		mov	r5, r0
 3834              	.LVL328:
1044:Task/Task_BlackBox.c **** 
 3835              		.loc 1 1044 29 is_stmt 1 view .LVU1045
 3836              	.L214:
1064:Task/Task_BlackBox.c ****                     {
 3837              		.loc 1 1064 21 view .LVU1046
1064:Task/Task_BlackBox.c ****                     {
 3838              		.loc 1 1064 29 is_stmt 0 view .LVU1047
 3839 0344 9DF82E31 		ldrb	r3, [sp, #302]	@ zero_extendqisi2
 3840 0348 DBB2     		uxtb	r3, r3
1064:Task/Task_BlackBox.c ****                     {
 3841              		.loc 1 1064 24 view .LVU1048
 3842 034a 022B     		cmp	r3, #2
 3843 034c 3ED0     		beq	.L232
1074:Task/Task_BlackBox.c **** 
 3844              		.loc 1 1074 25 is_stmt 1 view .LVU1049
 3845 034e 4CAB     		add	r3, sp, #304
 3846 0350 23AA     		add	r2, sp, #140
 3847 0352 49A9     		add	r1, sp, #292
 3848 0354 2046     		mov	r0, r4
 3849 0356 FFF7FEFF 		bl	TaskBlackBox_ConvertLogData_To_Ender
 3850              	.LVL329:
1076:Task/Task_BlackBox.c ****                         {
 3851              		.loc 1 1076 25 view .LVU1050
1076:Task/Task_BlackBox.c ****                         {
 3852              		.loc 1 1076 47 is_stmt 0 view .LVU1051
 3853 035a 9DF82431 		ldrb	r3, [sp, #292]	@ zero_extendqisi2
1076:Task/Task_BlackBox.c ****                         {
 3854              		.loc 1 1076 28 view .LVU1052
 3855 035e AB42     		cmp	r3, r5
 3856 0360 56D0     		beq	.L188
1078:Task/Task_BlackBox.c ****                             shellPrint(shell_obj, "[ BlackBox ] addr: %d remian: %d\r\n", addr, log
 3857              		.loc 1 1078 29 is_stmt 1 view .LVU1053
 3858 0362 4A49     		ldr	r1, .L237
 3859 0364 2046     		mov	r0, r4
 3860 0366 FFF7FEFF 		bl	shellPrint
 3861              	.LVL330:
1079:Task/Task_BlackBox.c ****                         }
 3862              		.loc 1 1079 29 view .LVU1054
 3863 036a 4C9B     		ldr	r3, [sp, #304]
 3864 036c 3246     		mov	r2, r6
 3865 036e 4849     		ldr	r1, .L237+4
ARM GAS  C:\Users\8bit\AppData\Local\Temp\ccdInZoL.s 			page 101


 3866 0370 2046     		mov	r0, r4
 3867 0372 FFF7FEFF 		bl	shellPrint
 3868              	.LVL331:
 3869 0376 4BE0     		b	.L188
 3870              	.L218:
1047:Task/Task_BlackBox.c ****                             check_sum = TaskBlackBox_Get_CheckSum((uint8_t *)&log_att_alt, sizeof(B
 3871              		.loc 1 1047 29 view .LVU1055
1047:Task/Task_BlackBox.c ****                             check_sum = TaskBlackBox_Get_CheckSum((uint8_t *)&log_att_alt, sizeof(B
 3872              		.loc 1 1047 35 is_stmt 0 view .LVU1056
 3873 0378 4CAB     		add	r3, sp, #304
 3874 037a 23AA     		add	r2, sp, #140
 3875 037c 34A9     		add	r1, sp, #208
 3876 037e 2046     		mov	r0, r4
 3877 0380 FFF7FEFF 		bl	TaskBlackBox_ConvertLogData_To_Alt_Att
 3878              	.LVL332:
1047:Task/Task_BlackBox.c ****                             check_sum = TaskBlackBox_Get_CheckSum((uint8_t *)&log_att_alt, sizeof(B
 3879              		.loc 1 1047 33 view .LVU1057
 3880 0384 8DF82E01 		strb	r0, [sp, #302]
1048:Task/Task_BlackBox.c ****                             break;
 3881              		.loc 1 1048 29 is_stmt 1 view .LVU1058
1048:Task/Task_BlackBox.c ****                             break;
 3882              		.loc 1 1048 41 is_stmt 0 view .LVU1059
 3883 0388 2C21     		movs	r1, #44
 3884 038a 34A8     		add	r0, sp, #208
 3885 038c FFF7FEFF 		bl	TaskBlackBox_Get_CheckSum
 3886              	.LVL333:
 3887 0390 0546     		mov	r5, r0
 3888              	.LVL334:
1049:Task/Task_BlackBox.c **** 
 3889              		.loc 1 1049 29 is_stmt 1 view .LVU1060
 3890 0392 D7E7     		b	.L214
 3891              	.L217:
1052:Task/Task_BlackBox.c ****                             check_sum = TaskBlackBox_Get_CheckSum((uint8_t *)&log_AngCtl, sizeof(Bl
 3892              		.loc 1 1052 29 view .LVU1061
1052:Task/Task_BlackBox.c ****                             check_sum = TaskBlackBox_Get_CheckSum((uint8_t *)&log_AngCtl, sizeof(Bl
 3893              		.loc 1 1052 35 is_stmt 0 view .LVU1062
 3894 0394 4CAB     		add	r3, sp, #304
 3895 0396 23AA     		add	r2, sp, #140
 3896 0398 2CA9     		add	r1, sp, #176
 3897 039a 2046     		mov	r0, r4
 3898 039c FFF7FEFF 		bl	TaskBlackBox_ConvertLogData_To_CtlAng
 3899              	.LVL335:
1052:Task/Task_BlackBox.c ****                             check_sum = TaskBlackBox_Get_CheckSum((uint8_t *)&log_AngCtl, sizeof(Bl
 3900              		.loc 1 1052 33 view .LVU1063
 3901 03a0 8DF82E01 		strb	r0, [sp, #302]
1053:Task/Task_BlackBox.c ****                             break;
 3902              		.loc 1 1053 29 is_stmt 1 view .LVU1064
1053:Task/Task_BlackBox.c ****                             break;
 3903              		.loc 1 1053 41 is_stmt 0 view .LVU1065
 3904 03a4 1D21     		movs	r1, #29
 3905 03a6 2CA8     		add	r0, sp, #176
 3906 03a8 FFF7FEFF 		bl	TaskBlackBox_Get_CheckSum
 3907              	.LVL336:
 3908 03ac 0546     		mov	r5, r0
 3909              	.LVL337:
1054:Task/Task_BlackBox.c **** 
 3910              		.loc 1 1054 29 is_stmt 1 view .LVU1066
ARM GAS  C:\Users\8bit\AppData\Local\Temp\ccdInZoL.s 			page 102


 3911 03ae C9E7     		b	.L214
 3912              	.L215:
1057:Task/Task_BlackBox.c ****                             check_sum = TaskBlackBox_Get_CheckSum((uint8_t *)&log_AttCtl, sizeof(Bl
 3913              		.loc 1 1057 29 view .LVU1067
1057:Task/Task_BlackBox.c ****                             check_sum = TaskBlackBox_Get_CheckSum((uint8_t *)&log_AttCtl, sizeof(Bl
 3914              		.loc 1 1057 35 is_stmt 0 view .LVU1068
 3915 03b0 4CAB     		add	r3, sp, #304
 3916 03b2 23AA     		add	r2, sp, #140
 3917 03b4 24A9     		add	r1, sp, #144
 3918 03b6 2046     		mov	r0, r4
 3919 03b8 FFF7FEFF 		bl	TaskBlackBox_ConvertLogData_To_CtlAtt
 3920              	.LVL338:
1057:Task/Task_BlackBox.c ****                             check_sum = TaskBlackBox_Get_CheckSum((uint8_t *)&log_AttCtl, sizeof(Bl
 3921              		.loc 1 1057 33 view .LVU1069
 3922 03bc 8DF82E01 		strb	r0, [sp, #302]
1058:Task/Task_BlackBox.c ****                             break;
 3923              		.loc 1 1058 29 is_stmt 1 view .LVU1070
1058:Task/Task_BlackBox.c ****                             break;
 3924              		.loc 1 1058 41 is_stmt 0 view .LVU1071
 3925 03c0 1D21     		movs	r1, #29
 3926 03c2 24A8     		add	r0, sp, #144
 3927 03c4 FFF7FEFF 		bl	TaskBlackBox_Get_CheckSum
 3928              	.LVL339:
 3929 03c8 0546     		mov	r5, r0
 3930              	.LVL340:
1059:Task/Task_BlackBox.c **** 
 3931              		.loc 1 1059 29 is_stmt 1 view .LVU1072
 3932 03ca BBE7     		b	.L214
 3933              	.L232:
1066:Task/Task_BlackBox.c ****                         uncomplete_size = log_size;
 3934              		.loc 1 1066 25 view .LVU1073
 3935 03cc 8022     		movs	r2, #128
 3936 03ce 0021     		movs	r1, #0
 3937 03d0 02A8     		add	r0, sp, #8
 3938 03d2 FFF7FEFF 		bl	memset
 3939              	.LVL341:
1067:Task/Task_BlackBox.c ****                         memcpy(remain_buf, p_log_data, uncomplete_size);
 3940              		.loc 1 1067 25 view .LVU1074
1067:Task/Task_BlackBox.c ****                         memcpy(remain_buf, p_log_data, uncomplete_size);
 3941              		.loc 1 1067 41 is_stmt 0 view .LVU1075
 3942 03d6 4C9A     		ldr	r2, [sp, #304]
 3943 03d8 2292     		str	r2, [sp, #136]
1068:Task/Task_BlackBox.c ****                         log_size = 0;
 3944              		.loc 1 1068 25 is_stmt 1 view .LVU1076
 3945 03da 2399     		ldr	r1, [sp, #140]
 3946 03dc 02A8     		add	r0, sp, #8
 3947 03de FFF7FEFF 		bl	memcpy
 3948              	.LVL342:
1069:Task/Task_BlackBox.c ****                         break;
 3949              		.loc 1 1069 25 view .LVU1077
1069:Task/Task_BlackBox.c ****                         break;
 3950              		.loc 1 1069 34 is_stmt 0 view .LVU1078
 3951 03e2 0023     		movs	r3, #0
 3952 03e4 4C93     		str	r3, [sp, #304]
1070:Task/Task_BlackBox.c ****                     }
 3953              		.loc 1 1070 25 is_stmt 1 view .LVU1079
 3954              	.L221:
ARM GAS  C:\Users\8bit\AppData\Local\Temp\ccdInZoL.s 			page 103


 888:Task/Task_BlackBox.c ****     {
 3955              		.loc 1 888 39 discriminator 2 view .LVU1080
 888:Task/Task_BlackBox.c ****     {
 3956              		.loc 1 888 40 is_stmt 0 discriminator 2 view .LVU1081
 3957 03e6 0137     		adds	r7, r7, #1
 3958              	.LVL343:
 888:Task/Task_BlackBox.c ****     {
 3959              		.loc 1 888 40 discriminator 2 view .LVU1082
 3960 03e8 BFB2     		uxth	r7, r7
 3961              	.LVL344:
 888:Task/Task_BlackBox.c ****     {
 3962              		.loc 1 888 40 discriminator 2 view .LVU1083
 3963 03ea 46E6     		b	.L186
 3964              	.L213:
1083:Task/Task_BlackBox.c ****                 {
 3965              		.loc 1 1083 22 is_stmt 1 view .LVU1084
1083:Task/Task_BlackBox.c ****                 {
 3966              		.loc 1 1083 30 is_stmt 0 view .LVU1085
 3967 03ec 9DF82E31 		ldrb	r3, [sp, #302]	@ zero_extendqisi2
 3968 03f0 DBB2     		uxtb	r3, r3
1083:Task/Task_BlackBox.c ****                 {
 3969              		.loc 1 1083 25 view .LVU1086
 3970 03f2 022B     		cmp	r3, #2
 3971 03f4 F7D1     		bne	.L221
1085:Task/Task_BlackBox.c ****                     uncomplete_size = log_size;
 3972              		.loc 1 1085 21 is_stmt 1 view .LVU1087
 3973 03f6 8022     		movs	r2, #128
 3974 03f8 0021     		movs	r1, #0
 3975 03fa 02A8     		add	r0, sp, #8
 3976 03fc FFF7FEFF 		bl	memset
 3977              	.LVL345:
1086:Task/Task_BlackBox.c ****                     memcpy(remain_buf, p_log_data, uncomplete_size);
 3978              		.loc 1 1086 21 view .LVU1088
1086:Task/Task_BlackBox.c ****                     memcpy(remain_buf, p_log_data, uncomplete_size);
 3979              		.loc 1 1086 37 is_stmt 0 view .LVU1089
 3980 0400 4C9A     		ldr	r2, [sp, #304]
 3981 0402 2292     		str	r2, [sp, #136]
1087:Task/Task_BlackBox.c ****                     log_size = 0;
 3982              		.loc 1 1087 21 is_stmt 1 view .LVU1090
 3983 0404 2399     		ldr	r1, [sp, #140]
 3984 0406 02A8     		add	r0, sp, #8
 3985 0408 FFF7FEFF 		bl	memcpy
 3986              	.LVL346:
1088:Task/Task_BlackBox.c ****                 }
 3987              		.loc 1 1088 21 view .LVU1091
1088:Task/Task_BlackBox.c ****                 }
 3988              		.loc 1 1088 30 is_stmt 0 view .LVU1092
 3989 040c 0023     		movs	r3, #0
 3990 040e 4C93     		str	r3, [sp, #304]
 3991              	.L188:
 897:Task/Task_BlackBox.c ****             {
 3992              		.loc 1 897 19 is_stmt 1 view .LVU1093
 897:Task/Task_BlackBox.c ****             {
 3993              		.loc 1 897 20 is_stmt 0 view .LVU1094
 3994 0410 4C9B     		ldr	r3, [sp, #304]
 897:Task/Task_BlackBox.c ****             {
 3995              		.loc 1 897 19 view .LVU1095
ARM GAS  C:\Users\8bit\AppData\Local\Temp\ccdInZoL.s 			page 104


 3996 0412 002B     		cmp	r3, #0
 3997 0414 E7D0     		beq	.L221
 899:Task/Task_BlackBox.c ****                 {
 3998              		.loc 1 899 17 is_stmt 1 view .LVU1096
 899:Task/Task_BlackBox.c ****                 {
 3999              		.loc 1 899 21 is_stmt 0 view .LVU1097
 4000 0416 2298     		ldr	r0, [sp, #136]
 899:Task/Task_BlackBox.c ****                 {
 4001              		.loc 1 899 20 view .LVU1098
 4002 0418 0028     		cmp	r0, #0
 4003 041a 3FF470AF 		beq	.L189
 901:Task/Task_BlackBox.c **** 
 4004              		.loc 1 901 21 is_stmt 1 view .LVU1099
 901:Task/Task_BlackBox.c **** 
 4005              		.loc 1 901 34 is_stmt 0 view .LVU1100
 4006 041e 02AA     		add	r2, sp, #8
 4007 0420 0192     		str	r2, [sp, #4]
 903:Task/Task_BlackBox.c ****                     {
 4008              		.loc 1 903 21 is_stmt 1 view .LVU1101
 903:Task/Task_BlackBox.c ****                     {
 4009              		.loc 1 903 24 is_stmt 0 view .LVU1102
 4010 0422 0428     		cmp	r0, #4
 4011 0424 3FF668AE 		bhi	.L190
 906:Task/Task_BlackBox.c ****                         {
 4012              		.loc 1 906 25 is_stmt 1 view .LVU1103
 906:Task/Task_BlackBox.c ****                         {
 4013              		.loc 1 906 28 is_stmt 0 view .LVU1104
 4014 0428 0328     		cmp	r0, #3
 4015 042a 7FF64CAE 		bls	.L233
 4016              	.L191:
 914:Task/Task_BlackBox.c ****                         if (err == BlackBox_Cnv_Size_Error)
 4017              		.loc 1 914 25 is_stmt 1 view .LVU1105
 914:Task/Task_BlackBox.c ****                         if (err == BlackBox_Cnv_Size_Error)
 4018              		.loc 1 914 31 is_stmt 0 view .LVU1106
 4019 042e 22AB     		add	r3, sp, #136
 4020 0430 01AA     		add	r2, sp, #4
 4021 0432 4AA9     		add	r1, sp, #296
 4022 0434 2046     		mov	r0, r4
 4023 0436 FFF7FEFF 		bl	TaskBlackBox_ConvertLogData_To_Header
 4024              	.LVL347:
 914:Task/Task_BlackBox.c ****                         if (err == BlackBox_Cnv_Size_Error)
 4025              		.loc 1 914 29 view .LVU1107
 4026 043a 8DF82E01 		strb	r0, [sp, #302]
 915:Task/Task_BlackBox.c ****                         {
 4027              		.loc 1 915 25 is_stmt 1 view .LVU1108
 915:Task/Task_BlackBox.c ****                         {
 4028              		.loc 1 915 33 is_stmt 0 view .LVU1109
 4029 043e 9DF82E31 		ldrb	r3, [sp, #302]	@ zero_extendqisi2
 4030 0442 DBB2     		uxtb	r3, r3
 915:Task/Task_BlackBox.c ****                         {
 4031              		.loc 1 915 28 view .LVU1110
 4032 0444 022B     		cmp	r3, #2
 4033 0446 3FF452AE 		beq	.L234
 4034              	.L192:
 937:Task/Task_BlackBox.c ****                     {
 4035              		.loc 1 937 21 is_stmt 1 view .LVU1111
 937:Task/Task_BlackBox.c ****                     {
ARM GAS  C:\Users\8bit\AppData\Local\Temp\ccdInZoL.s 			page 105


 4036              		.loc 1 937 25 is_stmt 0 view .LVU1112
 4037 044a 229B     		ldr	r3, [sp, #136]
 937:Task/Task_BlackBox.c ****                     {
 4038              		.loc 1 937 24 view .LVU1113
 4039 044c 002B     		cmp	r3, #0
 4040 044e 3FF45EAF 		beq	.L195
 4041              	.LBB15:
 939:Task/Task_BlackBox.c ****                         switch ((uint8_t)header.type)
 4042              		.loc 1 939 25 is_stmt 1 view .LVU1114
 939:Task/Task_BlackBox.c ****                         switch ((uint8_t)header.type)
 4043              		.loc 1 939 34 is_stmt 0 view .LVU1115
 4044 0452 0022     		movs	r2, #0
 4045 0454 0092     		str	r2, [sp]
 940:Task/Task_BlackBox.c ****                         {
 4046              		.loc 1 940 25 is_stmt 1 view .LVU1116
 940:Task/Task_BlackBox.c ****                         {
 4047              		.loc 1 940 48 is_stmt 0 view .LVU1117
 4048 0456 9DF82A21 		ldrb	r2, [sp, #298]	@ zero_extendqisi2
 940:Task/Task_BlackBox.c ****                         {
 4049              		.loc 1 940 25 view .LVU1118
 4050 045a 013A     		subs	r2, r2, #1
 4051 045c 032A     		cmp	r2, #3
 4052 045e 3FF62AAE 		bhi	.L180
 4053 0462 01A1     		adr	r1, .L198
 4054 0464 51F822F0 		ldr	pc, [r1, r2, lsl #2]
 4055              		.p2align 2
 4056              	.L198:
 4057 0468 43010000 		.word	.L201+1
 4058 046c DD010000 		.word	.L200+1
 4059 0470 2D020000 		.word	.L199+1
 4060 0474 7D020000 		.word	.L197+1
 4061              		.p2align 1
 4062              	.L187:
 940:Task/Task_BlackBox.c ****                         {
 4063              		.loc 1 940 25 view .LVU1119
 4064              	.LBE15:
1096:Task/Task_BlackBox.c ****             shellPrint(shell_obj, "[ BlackBox ] read address %d\r\n", addr);
 4065              		.loc 1 1096 13 is_stmt 1 view .LVU1120
 4066 0478 0649     		ldr	r1, .L237+8
 4067 047a 2046     		mov	r0, r4
 4068 047c FFF7FEFF 		bl	shellPrint
 4069              	.LVL348:
1097:Task/Task_BlackBox.c ****             break;
 4070              		.loc 1 1097 13 view .LVU1121
 4071 0480 3246     		mov	r2, r6
 4072 0482 0549     		ldr	r1, .L237+12
 4073 0484 2046     		mov	r0, r4
 4074 0486 FFF7FEFF 		bl	shellPrint
 4075              	.LVL349:
1098:Task/Task_BlackBox.c ****         }
 4076              		.loc 1 1098 13 view .LVU1122
 4077 048a 14E6     		b	.L180
 4078              	.L238:
 4079              		.align	2
 4080              	.L237:
 4081 048c 0C010000 		.word	.LC36
 4082 0490 2C010000 		.word	.LC37
ARM GAS  C:\Users\8bit\AppData\Local\Temp\ccdInZoL.s 			page 106


 4083 0494 50010000 		.word	.LC38
 4084 0498 70010000 		.word	.LC39
 4085              	.LBE17:
 4086              		.cfi_endproc
 4087              	.LFE2088:
 4089              		.section	.rodata.TaskBlackBox_Init.str1.4,"aMS",%progbits,1
 4090              		.align	2
 4091              	.LC40:
 4092 0000 426C6163 		.ascii	"BlackBox_Queue\000"
 4092      6B426F78 
 4092      5F517565 
 4092      756500
 4093              		.section	.text.TaskBlackBox_Init,"ax",%progbits
 4094              		.align	1
 4095              		.global	TaskBlackBox_Init
 4096              		.syntax unified
 4097              		.thumb
 4098              		.thumb_func
 4100              	TaskBlackBox_Init:
 4101              	.LFB2071:
  96:Task/Task_BlackBox.c ****     uint32_t unit = 0;
 4102              		.loc 1 96 1 view -0
 4103              		.cfi_startproc
 4104              		@ args = 0, pretend = 0, frame = 88
 4105              		@ frame_needed = 0, uses_anonymous_args = 0
 4106 0000 2DE9F043 		push	{r4, r5, r6, r7, r8, r9, lr}
 4107              	.LCFI35:
 4108              		.cfi_def_cfa_offset 28
 4109              		.cfi_offset 4, -28
 4110              		.cfi_offset 5, -24
 4111              		.cfi_offset 6, -20
 4112              		.cfi_offset 7, -16
 4113              		.cfi_offset 8, -12
 4114              		.cfi_offset 9, -8
 4115              		.cfi_offset 14, -4
 4116 0004 A7B0     		sub	sp, sp, #156
 4117              	.LCFI36:
 4118              		.cfi_def_cfa_offset 184
  97:Task/Task_BlackBox.c ****     BlackBox_LogInfo_TypeDef BlackBoxInfo;
 4119              		.loc 1 97 5 view .LVU1124
 4120              	.LVL350:
  98:Task/Task_BlackBox.c ****     /* medium init */
 4121              		.loc 1 98 5 view .LVU1125
 106:Task/Task_BlackBox.c ****     memset(&Monitor, 0, sizeof(BlackBox_Monitor_TypeDef));
 4122              		.loc 1 106 5 view .LVU1126
 4123 0006 0021     		movs	r1, #0
 4124 0008 2491     		str	r1, [sp, #144]
 4125 000a ADF89410 		strh	r1, [sp, #148]	@ movhi
 107:Task/Task_BlackBox.c ****     Monitor.state = BlackBox_Log_Idle;
 4126              		.loc 1 107 5 view .LVU1127
 4127 000e 974C     		ldr	r4, .L255
 4128 0010 8022     		movs	r2, #128
 4129 0012 2046     		mov	r0, r4
 4130 0014 FFF7FEFF 		bl	memset
 4131              	.LVL351:
 108:Task/Task_BlackBox.c **** 
 4132              		.loc 1 108 5 view .LVU1128
ARM GAS  C:\Users\8bit\AppData\Local\Temp\ccdInZoL.s 			page 107


 111:Task/Task_BlackBox.c ****     if (Monitor.storage_search.item_addr == 0)
 4133              		.loc 1 111 5 view .LVU1129
 111:Task/Task_BlackBox.c ****     if (Monitor.storage_search.item_addr == 0)
 4134              		.loc 1 111 37 is_stmt 0 view .LVU1130
 4135 0018 954B     		ldr	r3, .L255+4
 4136 001a 5B68     		ldr	r3, [r3, #4]
 111:Task/Task_BlackBox.c ****     if (Monitor.storage_search.item_addr == 0)
 4137              		.loc 1 111 30 view .LVU1131
 4138 001c 954A     		ldr	r2, .L255+8
 4139 001e 0221     		movs	r1, #2
 4140 0020 10A8     		add	r0, sp, #64
 4141 0022 9847     		blx	r3
 4142              	.LVL352:
 4143 0024 4522     		movs	r2, #69
 4144 0026 10A9     		add	r1, sp, #64
 4145 0028 A01C     		adds	r0, r4, #2
 4146 002a FFF7FEFF 		bl	memcpy
 4147              	.LVL353:
 112:Task/Task_BlackBox.c ****     {
 4148              		.loc 1 112 5 is_stmt 1 view .LVU1132
 112:Task/Task_BlackBox.c ****     {
 4149              		.loc 1 112 31 is_stmt 0 view .LVU1133
 4150 002e D4F80230 		ldr	r3, [r4, #2]	@ unaligned
 112:Task/Task_BlackBox.c ****     {
 4151              		.loc 1 112 8 view .LVU1134
 4152 0032 FBB9     		cbnz	r3, .L240
 114:Task/Task_BlackBox.c ****         BlackBoxInfo.medium = BlackBox_Medium_None;
 4153              		.loc 1 114 9 is_stmt 1 view .LVU1135
 114:Task/Task_BlackBox.c ****         BlackBoxInfo.medium = BlackBox_Medium_None;
 4154              		.loc 1 114 31 is_stmt 0 view .LVU1136
 4155 0034 ADF89230 		strh	r3, [sp, #146]	@ movhi
 4156 0038 ADF89430 		strh	r3, [sp, #148]	@ movhi
 115:Task/Task_BlackBox.c ****         BlackBoxInfo.log_type = BlackBox_Log_None;
 4157              		.loc 1 115 9 is_stmt 1 view .LVU1137
 115:Task/Task_BlackBox.c ****         BlackBoxInfo.log_type = BlackBox_Log_None;
 4158              		.loc 1 115 29 is_stmt 0 view .LVU1138
 4159 003c 8DF89030 		strb	r3, [sp, #144]
 116:Task/Task_BlackBox.c ****         if (Storage.create(Para_User, BlackBox_Storage_Name, &BlackBoxInfo, sizeof(BlackBox_LogInfo
 4160              		.loc 1 116 9 is_stmt 1 view .LVU1139
 116:Task/Task_BlackBox.c ****         if (Storage.create(Para_User, BlackBox_Storage_Name, &BlackBoxInfo, sizeof(BlackBox_LogInfo
 4161              		.loc 1 116 31 is_stmt 0 view .LVU1140
 4162 0040 8DF89130 		strb	r3, [sp, #145]
 117:Task/Task_BlackBox.c ****             return;
 4163              		.loc 1 117 9 is_stmt 1 view .LVU1141
 117:Task/Task_BlackBox.c ****             return;
 4164              		.loc 1 117 20 is_stmt 0 view .LVU1142
 4165 0044 8A4B     		ldr	r3, .L255+4
 4166 0046 9C68     		ldr	r4, [r3, #8]
 117:Task/Task_BlackBox.c ****             return;
 4167              		.loc 1 117 13 view .LVU1143
 4168 0048 0623     		movs	r3, #6
 4169 004a 24AA     		add	r2, sp, #144
 4170 004c 8949     		ldr	r1, .L255+8
 4171 004e 0220     		movs	r0, #2
 4172 0050 A047     		blx	r4
 4173              	.LVL354:
 117:Task/Task_BlackBox.c ****             return;
ARM GAS  C:\Users\8bit\AppData\Local\Temp\ccdInZoL.s 			page 108


 4174              		.loc 1 117 12 view .LVU1144
 4175 0052 60B9     		cbnz	r0, .L239
 4176              	.L242:
 130:Task/Task_BlackBox.c ****     switch ((uint8_t)Monitor.medium)
 4177              		.loc 1 130 5 is_stmt 1 view .LVU1145
 130:Task/Task_BlackBox.c ****     switch ((uint8_t)Monitor.medium)
 4178              		.loc 1 130 32 is_stmt 0 view .LVU1146
 4179 0054 854B     		ldr	r3, .L255
 4180 0056 0022     		movs	r2, #0
 4181 0058 5A70     		strb	r2, [r3, #1]
 131:Task/Task_BlackBox.c ****     {
 4182              		.loc 1 131 5 is_stmt 1 view .LVU1147
 131:Task/Task_BlackBox.c ****     {
 4183              		.loc 1 131 29 is_stmt 0 view .LVU1148
 4184 005a 93F84730 		ldrb	r3, [r3, #71]	@ zero_extendqisi2
 131:Task/Task_BlackBox.c ****     {
 4185              		.loc 1 131 5 view .LVU1149
 4186 005e 022B     		cmp	r3, #2
 4187 0060 00F0EC80 		beq	.L244
 4188 0064 032B     		cmp	r3, #3
 4189 0066 3ED0     		beq	.L245
 4190 0068 012B     		cmp	r3, #1
 4191 006a 00F0EF80 		beq	.L252
 4192              	.LVL355:
 4193              	.L239:
 227:Task/Task_BlackBox.c **** 
 4194              		.loc 1 227 1 view .LVU1150
 4195 006e 27B0     		add	sp, sp, #156
 4196              	.LCFI37:
 4197              		.cfi_remember_state
 4198              		.cfi_def_cfa_offset 28
 4199              		@ sp needed
 4200 0070 BDE8F083 		pop	{r4, r5, r6, r7, r8, r9, pc}
 4201              	.LVL356:
 4202              	.L240:
 4203              	.LCFI38:
 4204              		.cfi_restore_state
 122:Task/Task_BlackBox.c ****             return;
 4205              		.loc 1 122 9 is_stmt 1 view .LVU1151
 122:Task/Task_BlackBox.c ****             return;
 4206              		.loc 1 122 20 is_stmt 0 view .LVU1152
 4207 0074 7E4B     		ldr	r3, .L255+4
 4208 0076 1E69     		ldr	r6, [r3, #16]
 122:Task/Task_BlackBox.c ****             return;
 4209              		.loc 1 122 13 view .LVU1153
 4210 0078 7C4C     		ldr	r4, .L255
 4211 007a 0622     		movs	r2, #6
 4212 007c 0E92     		str	r2, [sp, #56]
 4213 007e 24AA     		add	r2, sp, #144
 4214 0080 0D92     		str	r2, [sp, #52]
 4215 0082 D4F80790 		ldr	r9, [r4, #7]	@ unaligned
 4216 0086 D4F80B80 		ldr	r8, [r4, #11]	@ unaligned
 4217 008a D4F80F70 		ldr	r7, [r4, #15]	@ unaligned
 4218 008e 04F1130C 		add	ip, r4, #19
 4219 0092 6D46     		mov	r5, sp
 4220 0094 4334     		adds	r4, r4, #67
 4221              	.L243:
ARM GAS  C:\Users\8bit\AppData\Local\Temp\ccdInZoL.s 			page 109


 4222 0096 AE46     		mov	lr, r5
 4223 0098 DCF80000 		ldr	r0, [ip]	@ unaligned
 4224 009c DCF80410 		ldr	r1, [ip, #4]	@ unaligned
 4225 00a0 DCF80820 		ldr	r2, [ip, #8]	@ unaligned
 4226 00a4 DCF80C30 		ldr	r3, [ip, #12]	@ unaligned
 4227 00a8 AEE80F00 		stmia	lr!, {r0, r1, r2, r3}
 4228 00ac 0CF1100C 		add	ip, ip, #16
 4229 00b0 7546     		mov	r5, lr
 4230 00b2 A445     		cmp	ip, r4
 4231 00b4 EFD1     		bne	.L243
 4232 00b6 DCF80000 		ldr	r0, [ip]	@ unaligned
 4233 00ba CEF80000 		str	r0, [lr]
 4234 00be 4946     		mov	r1, r9
 4235 00c0 4246     		mov	r2, r8
 4236 00c2 3B46     		mov	r3, r7
 4237 00c4 0220     		movs	r0, #2
 4238 00c6 B047     		blx	r6
 4239              	.LVL357:
 122:Task/Task_BlackBox.c ****             return;
 4240              		.loc 1 122 12 view .LVU1154
 4241 00c8 0028     		cmp	r0, #0
 4242 00ca D0D1     		bne	.L239
 125:Task/Task_BlackBox.c ****         Monitor.log_type = BlackBoxInfo.log_type;
 4243              		.loc 1 125 9 is_stmt 1 view .LVU1155
 125:Task/Task_BlackBox.c ****         Monitor.log_type = BlackBoxInfo.log_type;
 4244              		.loc 1 125 38 is_stmt 0 view .LVU1156
 4245 00cc 9DF89020 		ldrb	r2, [sp, #144]	@ zero_extendqisi2
 125:Task/Task_BlackBox.c ****         Monitor.log_type = BlackBoxInfo.log_type;
 4246              		.loc 1 125 24 view .LVU1157
 4247 00d0 664B     		ldr	r3, .L255
 4248 00d2 83F84720 		strb	r2, [r3, #71]
 126:Task/Task_BlackBox.c ****         Monitor.expection_log_size = BlackBoxInfo.log_size;
 4249              		.loc 1 126 9 is_stmt 1 view .LVU1158
 126:Task/Task_BlackBox.c ****         Monitor.expection_log_size = BlackBoxInfo.log_size;
 4250              		.loc 1 126 40 is_stmt 0 view .LVU1159
 4251 00d6 9DF89120 		ldrb	r2, [sp, #145]	@ zero_extendqisi2
 126:Task/Task_BlackBox.c ****         Monitor.expection_log_size = BlackBoxInfo.log_size;
 4252              		.loc 1 126 26 view .LVU1160
 4253 00da 83F84820 		strb	r2, [r3, #72]
 127:Task/Task_BlackBox.c ****     }
 4254              		.loc 1 127 9 is_stmt 1 view .LVU1161
 127:Task/Task_BlackBox.c ****     }
 4255              		.loc 1 127 50 is_stmt 0 view .LVU1162
 4256 00de DDF89220 		ldr	r2, [sp, #146]	@ unaligned
 127:Task/Task_BlackBox.c ****     }
 4257              		.loc 1 127 36 view .LVU1163
 4258 00e2 DA64     		str	r2, [r3, #76]
 4259 00e4 B6E7     		b	.L242
 4260              	.L245:
 134:Task/Task_BlackBox.c ****             p_blackbox = &SrvCom_BlackBox;
 4261              		.loc 1 134 13 is_stmt 1 view .LVU1164
 134:Task/Task_BlackBox.c ****             p_blackbox = &SrvCom_BlackBox;
 4262              		.loc 1 134 35 is_stmt 0 view .LVU1165
 4263 00e6 644D     		ldr	r5, .L255+12
 4264 00e8 2B68     		ldr	r3, [r5]
 134:Task/Task_BlackBox.c ****             p_blackbox = &SrvCom_BlackBox;
 4265              		.loc 1 134 20 view .LVU1166
ARM GAS  C:\Users\8bit\AppData\Local\Temp\ccdInZoL.s 			page 110


 4266 00ea 6448     		ldr	r0, .L255+16
 4267 00ec 9847     		blx	r3
 4268              	.LVL358:
 4269 00ee 0446     		mov	r4, r0
 4270              	.LVL359:
 135:Task/Task_BlackBox.c ****             break;
 4271              		.loc 1 135 13 is_stmt 1 view .LVU1167
 135:Task/Task_BlackBox.c ****             break;
 4272              		.loc 1 135 24 is_stmt 0 view .LVU1168
 4273 00f0 634B     		ldr	r3, .L255+20
 4274 00f2 1D60     		str	r5, [r3]
 136:Task/Task_BlackBox.c **** 
 4275              		.loc 1 136 13 is_stmt 1 view .LVU1169
 4276              	.L247:
 151:Task/Task_BlackBox.c ****     {
 4277              		.loc 1 151 5 view .LVU1170
 151:Task/Task_BlackBox.c ****     {
 4278              		.loc 1 151 8 is_stmt 0 view .LVU1171
 4279 00f4 002C     		cmp	r4, #0
 4280 00f6 00F0B180 		beq	.L253
 157:Task/Task_BlackBox.c ****     {
 4281              		.loc 1 157 5 is_stmt 1 view .LVU1172
 157:Task/Task_BlackBox.c ****     {
 4282              		.loc 1 157 30 is_stmt 0 view .LVU1173
 4283 00fa 5C4B     		ldr	r3, .L255
 4284 00fc 93F84830 		ldrb	r3, [r3, #72]	@ zero_extendqisi2
 157:Task/Task_BlackBox.c ****     {
 4285              		.loc 1 157 5 view .LVU1174
 4286 0100 013B     		subs	r3, r3, #1
 4287 0102 032B     		cmp	r3, #3
 4288 0104 B3D8     		bhi	.L239
 163:Task/Task_BlackBox.c **** 
 4289              		.loc 1 163 13 is_stmt 1 view .LVU1175
 169:Task/Task_BlackBox.c ****     if (Monitor.p_log_buf == NULL)
 4290              		.loc 1 169 5 view .LVU1176
 169:Task/Task_BlackBox.c ****     if (Monitor.p_log_buf == NULL)
 4291              		.loc 1 169 36 is_stmt 0 view .LVU1177
 4292 0106 5F4B     		ldr	r3, .L255+24
 4293 0108 9B6A     		ldr	r3, [r3, #40]
 169:Task/Task_BlackBox.c ****     if (Monitor.p_log_buf == NULL)
 4294              		.loc 1 169 25 view .LVU1178
 4295 010a 2046     		mov	r0, r4
 169:Task/Task_BlackBox.c ****     if (Monitor.p_log_buf == NULL)
 4296              		.loc 1 169 25 view .LVU1179
 4297 010c 9847     		blx	r3
 4298              	.LVL360:
 169:Task/Task_BlackBox.c ****     if (Monitor.p_log_buf == NULL)
 4299              		.loc 1 169 23 view .LVU1180
 4300 010e 574B     		ldr	r3, .L255
 4301 0110 5865     		str	r0, [r3, #84]
 170:Task/Task_BlackBox.c ****     {
 4302              		.loc 1 170 5 is_stmt 1 view .LVU1181
 170:Task/Task_BlackBox.c ****     {
 4303              		.loc 1 170 8 is_stmt 0 view .LVU1182
 4304 0112 0028     		cmp	r0, #0
 4305 0114 00F0A680 		beq	.L254
 176:Task/Task_BlackBox.c ****     memset(&IMU_Log_DataPipe,      0, sizeof(DataPipeObj_TypeDef));
ARM GAS  C:\Users\8bit\AppData\Local\Temp\ccdInZoL.s 			page 111


 4306              		.loc 1 176 5 is_stmt 1 view .LVU1183
 176:Task/Task_BlackBox.c ****     memset(&IMU_Log_DataPipe,      0, sizeof(DataPipeObj_TypeDef));
 4307              		.loc 1 176 22 is_stmt 0 view .LVU1184
 4308 0118 544B     		ldr	r3, .L255
 4309 011a 1C65     		str	r4, [r3, #80]
 177:Task/Task_BlackBox.c ****     memset(&Baro_Log_DataPipe,     0, sizeof(DataPipeObj_TypeDef));
 4310              		.loc 1 177 5 is_stmt 1 view .LVU1185
 4311 011c 2724     		movs	r4, #39
 4312              	.LVL361:
 177:Task/Task_BlackBox.c ****     memset(&Baro_Log_DataPipe,     0, sizeof(DataPipeObj_TypeDef));
 4313              		.loc 1 177 5 is_stmt 0 view .LVU1186
 4314 011e 2246     		mov	r2, r4
 4315 0120 0021     		movs	r1, #0
 4316 0122 5948     		ldr	r0, .L255+28
 4317 0124 FFF7FEFF 		bl	memset
 4318              	.LVL362:
 178:Task/Task_BlackBox.c ****     memset(&Attitude_Log_DataPipe, 0, sizeof(DataPipeObj_TypeDef));
 4319              		.loc 1 178 5 is_stmt 1 view .LVU1187
 4320 0128 2246     		mov	r2, r4
 4321 012a 0021     		movs	r1, #0
 4322 012c 5748     		ldr	r0, .L255+32
 4323 012e FFF7FEFF 		bl	memset
 4324              	.LVL363:
 179:Task/Task_BlackBox.c ****     memset(&Altitude_Log_DataPipe, 0, sizeof(DataPipeObj_TypeDef));
 4325              		.loc 1 179 5 view .LVU1188
 4326 0132 2246     		mov	r2, r4
 4327 0134 0021     		movs	r1, #0
 4328 0136 5648     		ldr	r0, .L255+36
 4329 0138 FFF7FEFF 		bl	memset
 4330              	.LVL364:
 180:Task/Task_BlackBox.c ****     memset(&CtlData_Log_DataPipe,  0, sizeof(DataPipeObj_TypeDef));
 4331              		.loc 1 180 5 view .LVU1189
 4332 013c 2246     		mov	r2, r4
 4333 013e 0021     		movs	r1, #0
 4334 0140 5448     		ldr	r0, .L255+40
 4335 0142 FFF7FEFF 		bl	memset
 4336              	.LVL365:
 181:Task/Task_BlackBox.c **** 
 4337              		.loc 1 181 5 view .LVU1190
 4338 0146 2246     		mov	r2, r4
 4339 0148 0021     		movs	r1, #0
 4340 014a 5348     		ldr	r0, .L255+44
 4341 014c FFF7FEFF 		bl	memset
 4342              	.LVL366:
 183:Task/Task_BlackBox.c ****     memset(DataPipe_DataObjAddr(LogBaro_Data),    0, DataPipe_DataSize(LogBaro_Data));
 4343              		.loc 1 183 5 view .LVU1191
 4344 0150 524D     		ldr	r5, .L255+48
 4345 0152 5422     		movs	r2, #84
 4346 0154 0021     		movs	r1, #0
 4347 0156 2846     		mov	r0, r5
 4348 0158 FFF7FEFF 		bl	memset
 4349              	.LVL367:
 184:Task/Task_BlackBox.c ****     memset(DataPipe_DataObjAddr(LogAtt_Data),     0, DataPipe_DataSize(LogAtt_Data));
 4350              		.loc 1 184 5 view .LVU1192
 4351 015c 0024     		movs	r4, #0
 4352 015e 6C65     		str	r4, [r5, #84]
 4353 0160 AC65     		str	r4, [r5, #88]
ARM GAS  C:\Users\8bit\AppData\Local\Temp\ccdInZoL.s 			page 112


 4354 0162 EC65     		str	r4, [r5, #92]
 4355 0164 2C66     		str	r4, [r5, #96]
 4356 0166 6C66     		str	r4, [r5, #100]
 4357 0168 AC66     		str	r4, [r5, #104]
 4358 016a EC66     		str	r4, [r5, #108]
 185:Task/Task_BlackBox.c ****     memset(DataPipe_DataObjAddr(LogAlt_Data),     0, DataPipe_DataSize(LogAlt_Data));
 4359              		.loc 1 185 5 view .LVU1193
 4360 016c 2222     		movs	r2, #34
 4361 016e 2146     		mov	r1, r4
 4362 0170 05F17000 		add	r0, r5, #112
 4363 0174 FFF7FEFF 		bl	memset
 4364              	.LVL368:
 186:Task/Task_BlackBox.c ****     memset(DataPipe_DataObjAddr(LogCtl_Data),     0, DataPipe_DataSize(LogCtl_Data));
 4365              		.loc 1 186 5 view .LVU1194
 4366 0178 C5F89440 		str	r4, [r5, #148]
 4367 017c C5F89840 		str	r4, [r5, #152]
 187:Task/Task_BlackBox.c **** 
 4368              		.loc 1 187 5 view .LVU1195
 4369 0180 C5F89C40 		str	r4, [r5, #156]
 4370 0184 C5F8A040 		str	r4, [r5, #160]
 4371 0188 C5F8A440 		str	r4, [r5, #164]
 4372 018c C5F8A840 		str	r4, [r5, #168]
 4373 0190 C5F8AC40 		str	r4, [r5, #172]
 4374 0194 C5F8B040 		str	r4, [r5, #176]
 4375 0198 C5F8B440 		str	r4, [r5, #180]
 189:Task/Task_BlackBox.c ****         return;
 4376              		.loc 1 189 5 view .LVU1196
 189:Task/Task_BlackBox.c ****         return;
 4377              		.loc 1 189 15 is_stmt 0 view .LVU1197
 4378 019c 404B     		ldr	r3, .L255+52
 4379 019e DC68     		ldr	r4, [r3, #12]
 189:Task/Task_BlackBox.c ****         return;
 4380              		.loc 1 189 10 view .LVU1198
 4381 01a0 4FF40053 		mov	r3, #8192
 4382 01a4 3F4A     		ldr	r2, .L255+56
 4383 01a6 4049     		ldr	r1, .L255+60
 4384 01a8 4048     		ldr	r0, .L255+64
 4385 01aa A047     		blx	r4
 4386              	.LVL369:
 189:Task/Task_BlackBox.c ****         return;
 4387              		.loc 1 189 8 view .LVU1199
 4388 01ac 0028     		cmp	r0, #0
 4389 01ae 3FF45EAF 		beq	.L239
 192:Task/Task_BlackBox.c ****     BlackBox_Sem = osSemaphoreCreate(osSemaphore(Log), 32);
 4390              		.loc 1 192 5 is_stmt 1 view .LVU1200
 4391 01b2 0023     		movs	r3, #0
 4392 01b4 2293     		str	r3, [sp, #136]
 4393 01b6 2393     		str	r3, [sp, #140]
 193:Task/Task_BlackBox.c **** 
 4394              		.loc 1 193 5 view .LVU1201
 193:Task/Task_BlackBox.c **** 
 4395              		.loc 1 193 20 is_stmt 0 view .LVU1202
 4396 01b8 2021     		movs	r1, #32
 4397 01ba 22A8     		add	r0, sp, #136
 4398 01bc FFF7FEFF 		bl	osSemaphoreCreate
 4399              	.LVL370:
 193:Task/Task_BlackBox.c **** 
ARM GAS  C:\Users\8bit\AppData\Local\Temp\ccdInZoL.s 			page 113


 4400              		.loc 1 193 18 view .LVU1203
 4401 01c0 3B4B     		ldr	r3, .L255+68
 4402 01c2 1860     		str	r0, [r3]
 195:Task/Task_BlackBox.c ****         return;
 4403              		.loc 1 195 5 is_stmt 1 view .LVU1204
 195:Task/Task_BlackBox.c ****         return;
 4404              		.loc 1 195 8 is_stmt 0 view .LVU1205
 4405 01c4 0028     		cmp	r0, #0
 4406 01c6 3FF452AF 		beq	.L239
 199:Task/Task_BlackBox.c ****     IMU_Log_DataPipe.data_size = DataPipe_DataSize(LogImu_Data);
 4407              		.loc 1 199 5 is_stmt 1 view .LVU1206
 199:Task/Task_BlackBox.c ****     IMU_Log_DataPipe.data_size = DataPipe_DataSize(LogImu_Data);
 4408              		.loc 1 199 34 is_stmt 0 view .LVU1207
 4409 01ca 2B46     		mov	r3, r5
 199:Task/Task_BlackBox.c ****     IMU_Log_DataPipe.data_size = DataPipe_DataSize(LogImu_Data);
 4410              		.loc 1 199 32 view .LVU1208
 4411 01cc 2E4E     		ldr	r6, .L255+28
 4412 01ce C6F80D50 		str	r5, [r6, #13]	@ unaligned
 200:Task/Task_BlackBox.c ****     IMU_Log_DataPipe.trans_finish_cb = TaskBlackBox_PipeTransFinish_Callback;
 4413              		.loc 1 200 5 is_stmt 1 view .LVU1209
 200:Task/Task_BlackBox.c ****     IMU_Log_DataPipe.trans_finish_cb = TaskBlackBox_PipeTransFinish_Callback;
 4414              		.loc 1 200 32 is_stmt 0 view .LVU1210
 4415 01d2 0022     		movs	r2, #0
 4416 01d4 5421     		movs	r1, #84
 4417 01d6 7174     		strb	r1, [r6, #17]
 4418 01d8 B274     		strb	r2, [r6, #18]
 201:Task/Task_BlackBox.c ****     
 4419              		.loc 1 201 5 is_stmt 1 view .LVU1211
 201:Task/Task_BlackBox.c ****     
 4420              		.loc 1 201 38 is_stmt 0 view .LVU1212
 4421 01da 364F     		ldr	r7, .L255+72
 4422 01dc C6F81370 		str	r7, [r6, #19]	@ unaligned
 203:Task/Task_BlackBox.c ****     Baro_Log_DataPipe.data_size = DataPipe_DataSize(LogBaro_Data);
 4423              		.loc 1 203 5 is_stmt 1 view .LVU1213
 203:Task/Task_BlackBox.c ****     Baro_Log_DataPipe.data_size = DataPipe_DataSize(LogBaro_Data);
 4424              		.loc 1 203 35 is_stmt 0 view .LVU1214
 4425 01e0 6918     		adds	r1, r5, r1
 203:Task/Task_BlackBox.c ****     Baro_Log_DataPipe.data_size = DataPipe_DataSize(LogBaro_Data);
 4426              		.loc 1 203 33 view .LVU1215
 4427 01e2 2A4D     		ldr	r5, .L255+32
 4428 01e4 C5F80D10 		str	r1, [r5, #13]	@ unaligned
 204:Task/Task_BlackBox.c ****     Baro_Log_DataPipe.trans_finish_cb = TaskBlackBox_PipeTransFinish_Callback;
 4429              		.loc 1 204 5 is_stmt 1 view .LVU1216
 204:Task/Task_BlackBox.c ****     Baro_Log_DataPipe.trans_finish_cb = TaskBlackBox_PipeTransFinish_Callback;
 4430              		.loc 1 204 33 is_stmt 0 view .LVU1217
 4431 01e8 1C21     		movs	r1, #28
 4432 01ea 6974     		strb	r1, [r5, #17]
 4433 01ec AA74     		strb	r2, [r5, #18]
 205:Task/Task_BlackBox.c **** 
 4434              		.loc 1 205 5 is_stmt 1 view .LVU1218
 205:Task/Task_BlackBox.c **** 
 4435              		.loc 1 205 39 is_stmt 0 view .LVU1219
 4436 01ee C5F81370 		str	r7, [r5, #19]	@ unaligned
 207:Task/Task_BlackBox.c ****     CtlData_Log_DataPipe.data_size = DataPipe_DataSize(LogCtl_Data);
 4437              		.loc 1 207 5 is_stmt 1 view .LVU1220
 207:Task/Task_BlackBox.c ****     CtlData_Log_DataPipe.data_size = DataPipe_DataSize(LogCtl_Data);
 4438              		.loc 1 207 38 is_stmt 0 view .LVU1221
ARM GAS  C:\Users\8bit\AppData\Local\Temp\ccdInZoL.s 			page 114


 4439 01f2 03F19C00 		add	r0, r3, #156
 207:Task/Task_BlackBox.c ****     CtlData_Log_DataPipe.data_size = DataPipe_DataSize(LogCtl_Data);
 4440              		.loc 1 207 36 view .LVU1222
 4441 01f6 284C     		ldr	r4, .L255+44
 4442 01f8 C4F80D00 		str	r0, [r4, #13]	@ unaligned
 208:Task/Task_BlackBox.c ****     CtlData_Log_DataPipe.trans_finish_cb = TaskBlackBox_PipeTransFinish_Callback;
 4443              		.loc 1 208 5 is_stmt 1 view .LVU1223
 208:Task/Task_BlackBox.c ****     CtlData_Log_DataPipe.trans_finish_cb = TaskBlackBox_PipeTransFinish_Callback;
 4444              		.loc 1 208 36 is_stmt 0 view .LVU1224
 4445 01fc 6174     		strb	r1, [r4, #17]
 4446 01fe A274     		strb	r2, [r4, #18]
 209:Task/Task_BlackBox.c **** 
 4447              		.loc 1 209 5 is_stmt 1 view .LVU1225
 209:Task/Task_BlackBox.c **** 
 4448              		.loc 1 209 42 is_stmt 0 view .LVU1226
 4449 0200 C4F81370 		str	r7, [r4, #19]	@ unaligned
 211:Task/Task_BlackBox.c ****     Attitude_Log_DataPipe.data_size = DataPipe_DataSize(LogAtt_Data);
 4450              		.loc 1 211 5 is_stmt 1 view .LVU1227
 211:Task/Task_BlackBox.c ****     Attitude_Log_DataPipe.data_size = DataPipe_DataSize(LogAtt_Data);
 4451              		.loc 1 211 39 is_stmt 0 view .LVU1228
 4452 0204 03F17001 		add	r1, r3, #112
 211:Task/Task_BlackBox.c ****     Attitude_Log_DataPipe.data_size = DataPipe_DataSize(LogAtt_Data);
 4453              		.loc 1 211 37 view .LVU1229
 4454 0208 2148     		ldr	r0, .L255+36
 4455 020a C0F80D10 		str	r1, [r0, #13]	@ unaligned
 212:Task/Task_BlackBox.c ****     Attitude_Log_DataPipe.trans_finish_cb = TaskBlackBox_PipeTransFinish_Callback;
 4456              		.loc 1 212 5 is_stmt 1 view .LVU1230
 212:Task/Task_BlackBox.c ****     Attitude_Log_DataPipe.trans_finish_cb = TaskBlackBox_PipeTransFinish_Callback;
 4457              		.loc 1 212 37 is_stmt 0 view .LVU1231
 4458 020e 2221     		movs	r1, #34
 4459 0210 4174     		strb	r1, [r0, #17]
 4460 0212 8274     		strb	r2, [r0, #18]
 213:Task/Task_BlackBox.c **** 
 4461              		.loc 1 213 5 is_stmt 1 view .LVU1232
 213:Task/Task_BlackBox.c **** 
 4462              		.loc 1 213 43 is_stmt 0 view .LVU1233
 4463 0214 C0F81370 		str	r7, [r0, #19]	@ unaligned
 215:Task/Task_BlackBox.c ****     Altitude_Log_DataPipe.data_size = DataPipe_DataSize(LogAlt_Data);
 4464              		.loc 1 215 5 is_stmt 1 view .LVU1234
 215:Task/Task_BlackBox.c ****     Altitude_Log_DataPipe.data_size = DataPipe_DataSize(LogAlt_Data);
 4465              		.loc 1 215 39 is_stmt 0 view .LVU1235
 4466 0218 9433     		adds	r3, r3, #148
 215:Task/Task_BlackBox.c ****     Altitude_Log_DataPipe.data_size = DataPipe_DataSize(LogAlt_Data);
 4467              		.loc 1 215 37 view .LVU1236
 4468 021a 1E49     		ldr	r1, .L255+40
 4469 021c C1F80D30 		str	r3, [r1, #13]	@ unaligned
 216:Task/Task_BlackBox.c ****     Altitude_Log_DataPipe.trans_finish_cb = TaskBlackBox_PipeTransFinish_Callback;
 4470              		.loc 1 216 5 is_stmt 1 view .LVU1237
 216:Task/Task_BlackBox.c ****     Altitude_Log_DataPipe.trans_finish_cb = TaskBlackBox_PipeTransFinish_Callback;
 4471              		.loc 1 216 37 is_stmt 0 view .LVU1238
 4472 0220 0823     		movs	r3, #8
 4473 0222 4B74     		strb	r3, [r1, #17]
 4474 0224 8A74     		strb	r2, [r1, #18]
 217:Task/Task_BlackBox.c **** 
 4475              		.loc 1 217 5 is_stmt 1 view .LVU1239
 217:Task/Task_BlackBox.c **** 
 4476              		.loc 1 217 43 is_stmt 0 view .LVU1240
ARM GAS  C:\Users\8bit\AppData\Local\Temp\ccdInZoL.s 			page 115


 4477 0226 C1F81370 		str	r7, [r1, #19]	@ unaligned
 219:Task/Task_BlackBox.c ****     DataPipe_Enable(&Baro_Log_DataPipe);
 4478              		.loc 1 219 5 is_stmt 1 view .LVU1241
 4479              	.LVL371:
 4480              	.LBB18:
 4481              	.LBI18:
 4482              		.file 2 "System/FreeRTOS/../DataPipe/DataPipe.h"
   1:System/FreeRTOS/../DataPipe/DataPipe.h **** #ifndef __DATAPIPE_H
   2:System/FreeRTOS/../DataPipe/DataPipe.h **** #define __DATAPIPE_H
   3:System/FreeRTOS/../DataPipe/DataPipe.h **** 
   4:System/FreeRTOS/../DataPipe/DataPipe.h **** #ifdef __cplusplus
   5:System/FreeRTOS/../DataPipe/DataPipe.h **** extern "C" {
   6:System/FreeRTOS/../DataPipe/DataPipe.h **** #endif
   7:System/FreeRTOS/../DataPipe/DataPipe.h **** 
   8:System/FreeRTOS/../DataPipe/DataPipe.h **** #include <stdint.h>
   9:System/FreeRTOS/../DataPipe/DataPipe.h **** #include <string.h>
  10:System/FreeRTOS/../DataPipe/DataPipe.h **** #include <stdbool.h>
  11:System/FreeRTOS/../DataPipe/DataPipe.h **** 
  12:System/FreeRTOS/../DataPipe/DataPipe.h **** typedef void (*Pipe_TransFinish_Callback)(void *pipe_obj);
  13:System/FreeRTOS/../DataPipe/DataPipe.h **** typedef void (*Pipe_TransError_Callback)(void *pipe_obj);
  14:System/FreeRTOS/../DataPipe/DataPipe.h **** typedef void (*Pipe_TimeOutProc_Callback)(void *pipe_obj);
  15:System/FreeRTOS/../DataPipe/DataPipe.h **** 
  16:System/FreeRTOS/../DataPipe/DataPipe.h **** #define DataPipeHandleToObj(x) ((DataPipeObj_TypeDef *)x)
  17:System/FreeRTOS/../DataPipe/DataPipe.h **** #define DataPipe_CreateDataObj(type, name) static type name##_##PipeDataObj __attribute__((section(
  18:System/FreeRTOS/../DataPipe/DataPipe.h **** #define DataPipe_DataObjAddr(name) (&name##_##PipeDataObj)
  19:System/FreeRTOS/../DataPipe/DataPipe.h **** #define DataPipe_DataObj(name) name##_##PipeDataObj
  20:System/FreeRTOS/../DataPipe/DataPipe.h **** #define DataPipe_DataSize(name) sizeof(name##_##PipeDataObj)
  21:System/FreeRTOS/../DataPipe/DataPipe.h **** 
  22:System/FreeRTOS/../DataPipe/DataPipe.h **** typedef enum
  23:System/FreeRTOS/../DataPipe/DataPipe.h **** {
  24:System/FreeRTOS/../DataPipe/DataPipe.h ****     Pipe_UnReady = 0,
  25:System/FreeRTOS/../DataPipe/DataPipe.h ****     Pipe_Ready,
  26:System/FreeRTOS/../DataPipe/DataPipe.h ****     Pipe_Busy,
  27:System/FreeRTOS/../DataPipe/DataPipe.h ****     Pipe_Error,
  28:System/FreeRTOS/../DataPipe/DataPipe.h **** } DataPipe_State_List;
  29:System/FreeRTOS/../DataPipe/DataPipe.h **** 
  30:System/FreeRTOS/../DataPipe/DataPipe.h **** #pragma pack(1)
  31:System/FreeRTOS/../DataPipe/DataPipe.h **** typedef struct
  32:System/FreeRTOS/../DataPipe/DataPipe.h **** {
  33:System/FreeRTOS/../DataPipe/DataPipe.h ****     uint32_t min_rx_interval;
  34:System/FreeRTOS/../DataPipe/DataPipe.h ****     uint32_t detect_interval;
  35:System/FreeRTOS/../DataPipe/DataPipe.h ****     uint32_t rx_ms_rt;
  36:System/FreeRTOS/../DataPipe/DataPipe.h **** 
  37:System/FreeRTOS/../DataPipe/DataPipe.h ****     bool enable;
  38:System/FreeRTOS/../DataPipe/DataPipe.h **** 
  39:System/FreeRTOS/../DataPipe/DataPipe.h ****     uint32_t data_addr;
  40:System/FreeRTOS/../DataPipe/DataPipe.h ****     uint16_t data_size;
  41:System/FreeRTOS/../DataPipe/DataPipe.h **** 
  42:System/FreeRTOS/../DataPipe/DataPipe.h ****     Pipe_TransFinish_Callback trans_finish_cb;
  43:System/FreeRTOS/../DataPipe/DataPipe.h ****     Pipe_TransError_Callback trans_error_cb;
  44:System/FreeRTOS/../DataPipe/DataPipe.h **** 
  45:System/FreeRTOS/../DataPipe/DataPipe.h ****     uint32_t tx_cnt;
  46:System/FreeRTOS/../DataPipe/DataPipe.h ****     uint32_t rx_cnt;
  47:System/FreeRTOS/../DataPipe/DataPipe.h ****     uint32_t er_cnt;
  48:System/FreeRTOS/../DataPipe/DataPipe.h **** } DataPipeObj_TypeDef;
  49:System/FreeRTOS/../DataPipe/DataPipe.h **** #pragma pack()
  50:System/FreeRTOS/../DataPipe/DataPipe.h **** 
ARM GAS  C:\Users\8bit\AppData\Local\Temp\ccdInZoL.s 			page 116


  51:System/FreeRTOS/../DataPipe/DataPipe.h **** typedef struct
  52:System/FreeRTOS/../DataPipe/DataPipe.h **** {
  53:System/FreeRTOS/../DataPipe/DataPipe.h ****     DataPipeObj_TypeDef *org;
  54:System/FreeRTOS/../DataPipe/DataPipe.h ****     DataPipeObj_TypeDef *dst;
  55:System/FreeRTOS/../DataPipe/DataPipe.h **** } Data_PlugedPipeObj_TypeDef;
  56:System/FreeRTOS/../DataPipe/DataPipe.h **** 
  57:System/FreeRTOS/../DataPipe/DataPipe.h **** bool DataPipe_Init(void);
  58:System/FreeRTOS/../DataPipe/DataPipe.h **** bool DataPipe_DeInit(void);
  59:System/FreeRTOS/../DataPipe/DataPipe.h **** bool DataPipe_SendTo(DataPipeObj_TypeDef *p_org, DataPipeObj_TypeDef *p_dst);
  60:System/FreeRTOS/../DataPipe/DataPipe.h **** bool DataPipe_DealError(void);
  61:System/FreeRTOS/../DataPipe/DataPipe.h **** 
  62:System/FreeRTOS/../DataPipe/DataPipe.h **** inline bool DataPipe_Enable(DataPipeObj_TypeDef *obj)
 4483              		.loc 2 62 13 view .LVU1242
 4484              	.LBB19:
  63:System/FreeRTOS/../DataPipe/DataPipe.h **** {
  64:System/FreeRTOS/../DataPipe/DataPipe.h ****     if (obj == NULL)
 4485              		.loc 2 64 5 view .LVU1243
  65:System/FreeRTOS/../DataPipe/DataPipe.h ****         return false;
  66:System/FreeRTOS/../DataPipe/DataPipe.h **** 
  67:System/FreeRTOS/../DataPipe/DataPipe.h ****     obj->enable = true;
 4486              		.loc 2 67 5 view .LVU1244
 4487              		.loc 2 67 17 is_stmt 0 view .LVU1245
 4488 022a 0123     		movs	r3, #1
 4489 022c 3373     		strb	r3, [r6, #12]
  68:System/FreeRTOS/../DataPipe/DataPipe.h **** 
  69:System/FreeRTOS/../DataPipe/DataPipe.h ****     return true;
 4490              		.loc 2 69 5 is_stmt 1 view .LVU1246
 4491              	.LVL372:
 4492              		.loc 2 69 5 is_stmt 0 view .LVU1247
 4493              	.LBE19:
 4494              	.LBE18:
 220:Task/Task_BlackBox.c ****     DataPipe_Enable(&CtlData_Log_DataPipe);
 4495              		.loc 1 220 5 is_stmt 1 view .LVU1248
 4496              	.LBB20:
 4497              	.LBI20:
  62:System/FreeRTOS/../DataPipe/DataPipe.h **** {
 4498              		.loc 2 62 13 view .LVU1249
 4499              	.LBB21:
  64:System/FreeRTOS/../DataPipe/DataPipe.h ****         return false;
 4500              		.loc 2 64 5 view .LVU1250
  67:System/FreeRTOS/../DataPipe/DataPipe.h **** 
 4501              		.loc 2 67 5 view .LVU1251
  67:System/FreeRTOS/../DataPipe/DataPipe.h **** 
 4502              		.loc 2 67 17 is_stmt 0 view .LVU1252
 4503 022e 2B73     		strb	r3, [r5, #12]
 4504              		.loc 2 69 5 is_stmt 1 view .LVU1253
 4505              	.LVL373:
 4506              		.loc 2 69 5 is_stmt 0 view .LVU1254
 4507              	.LBE21:
 4508              	.LBE20:
 221:Task/Task_BlackBox.c ****     DataPipe_Enable(&Attitude_Log_DataPipe);
 4509              		.loc 1 221 5 is_stmt 1 view .LVU1255
 4510              	.LBB22:
 4511              	.LBI22:
  62:System/FreeRTOS/../DataPipe/DataPipe.h **** {
 4512              		.loc 2 62 13 view .LVU1256
 4513              	.LBB23:
ARM GAS  C:\Users\8bit\AppData\Local\Temp\ccdInZoL.s 			page 117


  64:System/FreeRTOS/../DataPipe/DataPipe.h ****         return false;
 4514              		.loc 2 64 5 view .LVU1257
  67:System/FreeRTOS/../DataPipe/DataPipe.h **** 
 4515              		.loc 2 67 5 view .LVU1258
  67:System/FreeRTOS/../DataPipe/DataPipe.h **** 
 4516              		.loc 2 67 17 is_stmt 0 view .LVU1259
 4517 0230 2373     		strb	r3, [r4, #12]
 4518              		.loc 2 69 5 is_stmt 1 view .LVU1260
 4519              	.LVL374:
 4520              		.loc 2 69 5 is_stmt 0 view .LVU1261
 4521              	.LBE23:
 4522              	.LBE22:
 222:Task/Task_BlackBox.c ****     DataPipe_Enable(&Altitude_Log_DataPipe);
 4523              		.loc 1 222 5 is_stmt 1 view .LVU1262
 4524              	.LBB24:
 4525              	.LBI24:
  62:System/FreeRTOS/../DataPipe/DataPipe.h **** {
 4526              		.loc 2 62 13 view .LVU1263
 4527              	.LBB25:
  64:System/FreeRTOS/../DataPipe/DataPipe.h ****         return false;
 4528              		.loc 2 64 5 view .LVU1264
  67:System/FreeRTOS/../DataPipe/DataPipe.h **** 
 4529              		.loc 2 67 5 view .LVU1265
  67:System/FreeRTOS/../DataPipe/DataPipe.h **** 
 4530              		.loc 2 67 17 is_stmt 0 view .LVU1266
 4531 0232 0373     		strb	r3, [r0, #12]
 4532              		.loc 2 69 5 is_stmt 1 view .LVU1267
 4533              	.LVL375:
 4534              		.loc 2 69 5 is_stmt 0 view .LVU1268
 4535              	.LBE25:
 4536              	.LBE24:
 223:Task/Task_BlackBox.c **** 
 4537              		.loc 1 223 5 is_stmt 1 view .LVU1269
 4538              	.LBB26:
 4539              	.LBI26:
  62:System/FreeRTOS/../DataPipe/DataPipe.h **** {
 4540              		.loc 2 62 13 view .LVU1270
 4541              	.LBB27:
  64:System/FreeRTOS/../DataPipe/DataPipe.h ****         return false;
 4542              		.loc 2 64 5 view .LVU1271
  67:System/FreeRTOS/../DataPipe/DataPipe.h **** 
 4543              		.loc 2 67 5 view .LVU1272
  67:System/FreeRTOS/../DataPipe/DataPipe.h **** 
 4544              		.loc 2 67 17 is_stmt 0 view .LVU1273
 4545 0234 0B73     		strb	r3, [r1, #12]
 4546              		.loc 2 69 5 is_stmt 1 view .LVU1274
 4547              	.LVL376:
 4548              		.loc 2 69 5 is_stmt 0 view .LVU1275
 4549              	.LBE27:
 4550              	.LBE26:
 226:Task/Task_BlackBox.c **** }
 4551              		.loc 1 226 5 is_stmt 1 view .LVU1276
 226:Task/Task_BlackBox.c **** }
 4552              		.loc 1 226 19 is_stmt 0 view .LVU1277
 4553 0236 0D4B     		ldr	r3, .L255
 4554 0238 1A70     		strb	r2, [r3]
 4555 023a 18E7     		b	.L239
ARM GAS  C:\Users\8bit\AppData\Local\Temp\ccdInZoL.s 			page 118


 4556              	.LVL377:
 4557              	.L244:
 139:Task/Task_BlackBox.c ****             p_blackbox = &SrvChip_BlackBox;
 4558              		.loc 1 139 13 is_stmt 1 view .LVU1278
 139:Task/Task_BlackBox.c ****             p_blackbox = &SrvChip_BlackBox;
 4559              		.loc 1 139 36 is_stmt 0 view .LVU1279
 4560 023c 1E4D     		ldr	r5, .L255+76
 4561 023e 2B68     		ldr	r3, [r5]
 139:Task/Task_BlackBox.c ****             p_blackbox = &SrvChip_BlackBox;
 4562              		.loc 1 139 20 view .LVU1280
 4563 0240 0E48     		ldr	r0, .L255+16
 4564 0242 9847     		blx	r3
 4565              	.LVL378:
 4566 0244 0446     		mov	r4, r0
 4567              	.LVL379:
 140:Task/Task_BlackBox.c ****             break;
 4568              		.loc 1 140 13 is_stmt 1 view .LVU1281
 140:Task/Task_BlackBox.c ****             break;
 4569              		.loc 1 140 24 is_stmt 0 view .LVU1282
 4570 0246 0E4B     		ldr	r3, .L255+20
 4571 0248 1D60     		str	r5, [r3]
 141:Task/Task_BlackBox.c **** 
 4572              		.loc 1 141 13 is_stmt 1 view .LVU1283
 4573 024a 53E7     		b	.L247
 4574              	.LVL380:
 4575              	.L252:
 144:Task/Task_BlackBox.c ****             p_blackbox = &SrvCard_BlackBox;
 4576              		.loc 1 144 13 view .LVU1284
 144:Task/Task_BlackBox.c ****             p_blackbox = &SrvCard_BlackBox;
 4577              		.loc 1 144 36 is_stmt 0 view .LVU1285
 4578 024c 1B4D     		ldr	r5, .L255+80
 4579 024e 2B68     		ldr	r3, [r5]
 144:Task/Task_BlackBox.c ****             p_blackbox = &SrvCard_BlackBox;
 4580              		.loc 1 144 20 view .LVU1286
 4581 0250 0A48     		ldr	r0, .L255+16
 4582 0252 9847     		blx	r3
 4583              	.LVL381:
 4584 0254 0446     		mov	r4, r0
 4585              	.LVL382:
 145:Task/Task_BlackBox.c ****             break;
 4586              		.loc 1 145 13 is_stmt 1 view .LVU1287
 145:Task/Task_BlackBox.c ****             break;
 4587              		.loc 1 145 24 is_stmt 0 view .LVU1288
 4588 0256 0A4B     		ldr	r3, .L255+20
 4589 0258 1D60     		str	r5, [r3]
 146:Task/Task_BlackBox.c **** 
 4590              		.loc 1 146 13 is_stmt 1 view .LVU1289
 4591 025a 4BE7     		b	.L247
 4592              	.L253:
 153:Task/Task_BlackBox.c ****         return;
 4593              		.loc 1 153 9 view .LVU1290
 153:Task/Task_BlackBox.c ****         return;
 4594              		.loc 1 153 20 is_stmt 0 view .LVU1291
 4595 025c 084B     		ldr	r3, .L255+20
 4596 025e 0022     		movs	r2, #0
 4597 0260 1A60     		str	r2, [r3]
 154:Task/Task_BlackBox.c ****     }
ARM GAS  C:\Users\8bit\AppData\Local\Temp\ccdInZoL.s 			page 119


 4598              		.loc 1 154 9 is_stmt 1 view .LVU1292
 4599 0262 04E7     		b	.L239
 4600              	.LVL383:
 4601              	.L254:
 172:Task/Task_BlackBox.c ****         return;
 4602              		.loc 1 172 9 view .LVU1293
 172:Task/Task_BlackBox.c ****         return;
 4603              		.loc 1 172 20 is_stmt 0 view .LVU1294
 4604 0264 074B     		ldr	r3, .L255+24
 4605 0266 DB6A     		ldr	r3, [r3, #44]
 172:Task/Task_BlackBox.c ****         return;
 4606              		.loc 1 172 9 view .LVU1295
 4607 0268 9847     		blx	r3
 4608              	.LVL384:
 173:Task/Task_BlackBox.c ****     }
 4609              		.loc 1 173 9 is_stmt 1 view .LVU1296
 4610 026a 00E7     		b	.L239
 4611              	.L256:
 4612              		.align	2
 4613              	.L255:
 4614 026c 00000000 		.word	.LANCHOR1
 4615 0270 00000000 		.word	Storage
 4616 0274 A8010000 		.word	.LC16
 4617 0278 00000000 		.word	SrvCom_BlackBox
 4618 027c 00000000 		.word	TaskBlackBox_PushFinish_Callback
 4619 0280 00000000 		.word	.LANCHOR12
 4620 0284 00000000 		.word	SrvOsCommon
 4621 0288 00000000 		.word	IMU_Log_DataPipe
 4622 028c 00000000 		.word	Baro_Log_DataPipe
 4623 0290 00000000 		.word	Attitude_Log_DataPipe
 4624 0294 00000000 		.word	Altitude_Log_DataPipe
 4625 0298 00000000 		.word	CtlData_Log_DataPipe
 4626 029c 00000000 		.word	.LANCHOR4
 4627 02a0 00000000 		.word	Queue
 4628 02a4 B8000000 		.word	BlackBox_Buff
 4629 02a8 00000000 		.word	.LC40
 4630 02ac 00000000 		.word	.LANCHOR0
 4631 02b0 00000000 		.word	.LANCHOR2
 4632 02b4 00000000 		.word	TaskBlackBox_PipeTransFinish_Callback
 4633 02b8 00000000 		.word	SrvChip_BlackBox
 4634 02bc 00000000 		.word	SrvCard_BlackBox
 4635              		.cfi_endproc
 4636              	.LFE2071:
 4638              		.section	.text.TaskBlackBox_Core,"ax",%progbits
 4639              		.align	1
 4640              		.global	TaskBlackBox_Core
 4641              		.syntax unified
 4642              		.thumb
 4643              		.thumb_func
 4645              	TaskBlackBox_Core:
 4646              	.LVL385:
 4647              	.LFB2072:
 230:Task/Task_BlackBox.c ****     Monitor.write_thread_state = true;
 4648              		.loc 1 230 1 view -0
 4649              		.cfi_startproc
 4650              		@ Volatile: function does not return.
 4651              		@ args = 0, pretend = 0, frame = 0
ARM GAS  C:\Users\8bit\AppData\Local\Temp\ccdInZoL.s 			page 120


 4652              		@ frame_needed = 0, uses_anonymous_args = 0
 230:Task/Task_BlackBox.c ****     Monitor.write_thread_state = true;
 4653              		.loc 1 230 1 is_stmt 0 view .LVU1298
 4654 0000 08B5     		push	{r3, lr}
 4655              	.LCFI39:
 4656              		.cfi_def_cfa_offset 8
 4657              		.cfi_offset 3, -8
 4658              		.cfi_offset 14, -4
 231:Task/Task_BlackBox.c **** 
 4659              		.loc 1 231 5 is_stmt 1 view .LVU1299
 231:Task/Task_BlackBox.c **** 
 4660              		.loc 1 231 32 is_stmt 0 view .LVU1300
 4661 0002 1E4B     		ldr	r3, .L265
 4662 0004 0122     		movs	r2, #1
 4663 0006 5A70     		strb	r2, [r3, #1]
 4664 0008 10E0     		b	.L258
 4665              	.LVL386:
 4666              	.L259:
 237:Task/Task_BlackBox.c **** 
 4667              		.loc 1 237 13 is_stmt 1 view .LVU1301
 4668 000a 0020     		movs	r0, #0
 4669 000c FFF7FEFF 		bl	vTaskDelete
 4670              	.LVL387:
 4671 0010 14E0     		b	.L260
 4672              	.L264:
 240:Task/Task_BlackBox.c ****         {
 4673              		.loc 1 240 66 is_stmt 0 discriminator 1 view .LVU1302
 4674 0012 1B4B     		ldr	r3, .L265+4
 4675 0014 1B68     		ldr	r3, [r3]
 4676 0016 9B68     		ldr	r3, [r3, #8]
 240:Task/Task_BlackBox.c ****         {
 4677              		.loc 1 240 53 discriminator 1 view .LVU1303
 4678 0018 D3B1     		cbz	r3, .L261
 240:Task/Task_BlackBox.c ****         {
 4679              		.loc 1 240 79 discriminator 2 view .LVU1304
 4680 001a 9847     		blx	r3
 4681              	.LVL388:
 240:Task/Task_BlackBox.c ****         {
 4682              		.loc 1 240 76 discriminator 2 view .LVU1305
 4683 001c C0B1     		cbz	r0, .L261
 242:Task/Task_BlackBox.c ****             Queue.reset(&BlackBox_Queue);
 4684              		.loc 1 242 13 is_stmt 1 view .LVU1306
 242:Task/Task_BlackBox.c ****             Queue.reset(&BlackBox_Queue);
 4685              		.loc 1 242 27 is_stmt 0 view .LVU1307
 4686 001e 174B     		ldr	r3, .L265
 4687 0020 0022     		movs	r2, #0
 4688 0022 1A70     		strb	r2, [r3]
 243:Task/Task_BlackBox.c ****         }
 4689              		.loc 1 243 13 is_stmt 1 view .LVU1308
 243:Task/Task_BlackBox.c ****         }
 4690              		.loc 1 243 18 is_stmt 0 view .LVU1309
 4691 0024 174B     		ldr	r3, .L265+8
 4692 0026 1B69     		ldr	r3, [r3, #16]
 243:Task/Task_BlackBox.c ****         }
 4693              		.loc 1 243 13 view .LVU1310
 4694 0028 1748     		ldr	r0, .L265+12
 4695 002a 9847     		blx	r3
ARM GAS  C:\Users\8bit\AppData\Local\Temp\ccdInZoL.s 			page 121


 4696              	.LVL389:
 4697              	.L258:
 233:Task/Task_BlackBox.c ****     {
 4698              		.loc 1 233 5 is_stmt 1 view .LVU1311
 236:Task/Task_BlackBox.c ****             vTaskDelete(NULL);
 4699              		.loc 1 236 9 view .LVU1312
 236:Task/Task_BlackBox.c ****             vTaskDelete(NULL);
 4700              		.loc 1 236 27 is_stmt 0 view .LVU1313
 4701 002c 174B     		ldr	r3, .L265+16
 4702 002e 1B68     		ldr	r3, [r3]
 236:Task/Task_BlackBox.c ****             vTaskDelete(NULL);
 4703              		.loc 1 236 12 view .LVU1314
 4704 0030 002B     		cmp	r3, #0
 4705 0032 EAD0     		beq	.L259
 236:Task/Task_BlackBox.c ****             vTaskDelete(NULL);
 4706              		.loc 1 236 51 discriminator 1 view .LVU1315
 4707 0034 124B     		ldr	r3, .L265+4
 4708 0036 1B68     		ldr	r3, [r3]
 236:Task/Task_BlackBox.c ****             vTaskDelete(NULL);
 4709              		.loc 1 236 36 discriminator 1 view .LVU1316
 4710 0038 002B     		cmp	r3, #0
 4711 003a E6D0     		beq	.L259
 4712              	.L260:
 239:Task/Task_BlackBox.c ****         if ((Monitor.state == BlackBox_Log_Disable) && p_blackbox->disable && p_blackbox->disable()
 4713              		.loc 1 239 9 is_stmt 1 view .LVU1317
 4714 003c 4FF0FF31 		mov	r1, #-1
 4715 0040 124B     		ldr	r3, .L265+16
 4716 0042 1868     		ldr	r0, [r3]
 4717 0044 FFF7FEFF 		bl	osSemaphoreWait
 4718              	.LVL390:
 240:Task/Task_BlackBox.c ****         {
 4719              		.loc 1 240 9 view .LVU1318
 240:Task/Task_BlackBox.c ****         {
 4720              		.loc 1 240 21 is_stmt 0 view .LVU1319
 4721 0048 0C4B     		ldr	r3, .L265
 4722 004a 1B78     		ldrb	r3, [r3]	@ zero_extendqisi2
 240:Task/Task_BlackBox.c ****         {
 4723              		.loc 1 240 12 view .LVU1320
 4724 004c 022B     		cmp	r3, #2
 4725 004e E0D0     		beq	.L264
 4726              	.L261:
 245:Task/Task_BlackBox.c ****         {
 4727              		.loc 1 245 14 is_stmt 1 view .LVU1321
 245:Task/Task_BlackBox.c ****         {
 4728              		.loc 1 245 28 is_stmt 0 view .LVU1322
 4729 0050 0B4B     		ldr	r3, .L265+4
 4730 0052 1B68     		ldr	r3, [r3]
 4731 0054 DB68     		ldr	r3, [r3, #12]
 245:Task/Task_BlackBox.c ****         {
 4732              		.loc 1 245 17 view .LVU1323
 4733 0056 002B     		cmp	r3, #0
 4734 0058 E8D0     		beq	.L258
 245:Task/Task_BlackBox.c ****         {
 4735              		.loc 1 245 45 discriminator 1 view .LVU1324
 4736 005a 084A     		ldr	r2, .L265
 4737 005c 116D     		ldr	r1, [r2, #80]
 245:Task/Task_BlackBox.c ****         {
ARM GAS  C:\Users\8bit\AppData\Local\Temp\ccdInZoL.s 			page 122


 4738              		.loc 1 245 35 discriminator 1 view .LVU1325
 4739 005e 0029     		cmp	r1, #0
 4740 0060 E4D0     		beq	.L258
 247:Task/Task_BlackBox.c ****             {
 4741              		.loc 1 247 13 is_stmt 1 view .LVU1326
 247:Task/Task_BlackBox.c ****             {
 4742              		.loc 1 247 16 is_stmt 0 view .LVU1327
 4743 0062 506D     		ldr	r0, [r2, #84]
 4744 0064 9847     		blx	r3
 4745              	.LVL391:
 247:Task/Task_BlackBox.c ****             {
 4746              		.loc 1 247 15 view .LVU1328
 4747 0066 0028     		cmp	r0, #0
 4748 0068 E0D0     		beq	.L258
 249:Task/Task_BlackBox.c ****                 Monitor.log_byte_size += Monitor.log_unit;
 4749              		.loc 1 249 17 is_stmt 1 view .LVU1329
 249:Task/Task_BlackBox.c ****                 Monitor.log_byte_size += Monitor.log_unit;
 4750              		.loc 1 249 24 is_stmt 0 view .LVU1330
 4751 006a 044B     		ldr	r3, .L265
 4752 006c DA6D     		ldr	r2, [r3, #92]
 249:Task/Task_BlackBox.c ****                 Monitor.log_byte_size += Monitor.log_unit;
 4753              		.loc 1 249 33 view .LVU1331
 4754 006e 0132     		adds	r2, r2, #1
 4755 0070 DA65     		str	r2, [r3, #92]
 250:Task/Task_BlackBox.c ****             }
 4756              		.loc 1 250 17 is_stmt 1 view .LVU1332
 250:Task/Task_BlackBox.c ****             }
 4757              		.loc 1 250 49 is_stmt 0 view .LVU1333
 4758 0072 196D     		ldr	r1, [r3, #80]
 250:Task/Task_BlackBox.c ****             }
 4759              		.loc 1 250 39 view .LVU1334
 4760 0074 9A6D     		ldr	r2, [r3, #88]
 4761 0076 0A44     		add	r2, r2, r1
 4762 0078 9A65     		str	r2, [r3, #88]
 4763 007a D7E7     		b	.L258
 4764              	.L266:
 4765              		.align	2
 4766              	.L265:
 4767 007c 00000000 		.word	.LANCHOR1
 4768 0080 00000000 		.word	.LANCHOR12
 4769 0084 00000000 		.word	Queue
 4770 0088 00000000 		.word	.LANCHOR0
 4771 008c 00000000 		.word	.LANCHOR2
 4772              		.cfi_endproc
 4773              	.LFE2072:
 4775              		.section	.text.TaskBlackBox_LogControl,"ax",%progbits
 4776              		.align	1
 4777              		.global	TaskBlackBox_LogControl
 4778              		.syntax unified
 4779              		.thumb
 4780              		.thumb_func
 4782              	TaskBlackBox_LogControl:
 4783              	.LFB2077:
 495:Task/Task_BlackBox.c ****     if (Monitor.state != BlackBox_Log_Enable)
 4784              		.loc 1 495 1 is_stmt 1 view -0
 4785              		.cfi_startproc
 4786              		@ args = 0, pretend = 0, frame = 0
ARM GAS  C:\Users\8bit\AppData\Local\Temp\ccdInZoL.s 			page 123


 4787              		@ frame_needed = 0, uses_anonymous_args = 0
 4788 0000 08B5     		push	{r3, lr}
 4789              	.LCFI40:
 4790              		.cfi_def_cfa_offset 8
 4791              		.cfi_offset 3, -8
 4792              		.cfi_offset 14, -4
 496:Task/Task_BlackBox.c ****     {
 4793              		.loc 1 496 5 view .LVU1336
 496:Task/Task_BlackBox.c ****     {
 4794              		.loc 1 496 16 is_stmt 0 view .LVU1337
 4795 0002 0D4B     		ldr	r3, .L271
 4796 0004 1B78     		ldrb	r3, [r3]	@ zero_extendqisi2
 496:Task/Task_BlackBox.c ****     {
 4797              		.loc 1 496 8 view .LVU1338
 4798 0006 012B     		cmp	r3, #1
 4799 0008 11D0     		beq	.L268
 498:Task/Task_BlackBox.c ****         Monitor.log_byte_size = 0;
 4800              		.loc 1 498 9 is_stmt 1 view .LVU1339
 498:Task/Task_BlackBox.c ****         Monitor.log_byte_size = 0;
 4801              		.loc 1 498 25 is_stmt 0 view .LVU1340
 4802 000a 0B4B     		ldr	r3, .L271
 4803 000c 0022     		movs	r2, #0
 4804 000e DA65     		str	r2, [r3, #92]
 499:Task/Task_BlackBox.c ****         Queue.reset(&BlackBox_Queue);
 4805              		.loc 1 499 9 is_stmt 1 view .LVU1341
 499:Task/Task_BlackBox.c ****         Queue.reset(&BlackBox_Queue);
 4806              		.loc 1 499 31 is_stmt 0 view .LVU1342
 4807 0010 9A65     		str	r2, [r3, #88]
 500:Task/Task_BlackBox.c **** 
 4808              		.loc 1 500 9 is_stmt 1 view .LVU1343
 500:Task/Task_BlackBox.c **** 
 4809              		.loc 1 500 14 is_stmt 0 view .LVU1344
 4810 0012 0A4B     		ldr	r3, .L271+4
 4811 0014 1B69     		ldr	r3, [r3, #16]
 500:Task/Task_BlackBox.c **** 
 4812              		.loc 1 500 9 view .LVU1345
 4813 0016 0A48     		ldr	r0, .L271+8
 4814 0018 9847     		blx	r3
 4815              	.LVL392:
 502:Task/Task_BlackBox.c ****             Monitor.state = BlackBox_Log_Enable;
 4816              		.loc 1 502 9 is_stmt 1 view .LVU1346
 502:Task/Task_BlackBox.c ****             Monitor.state = BlackBox_Log_Enable;
 4817              		.loc 1 502 23 is_stmt 0 view .LVU1347
 4818 001a 0A4B     		ldr	r3, .L271+12
 4819 001c 1B68     		ldr	r3, [r3]
 4820 001e 5B68     		ldr	r3, [r3, #4]
 502:Task/Task_BlackBox.c ****             Monitor.state = BlackBox_Log_Enable;
 4821              		.loc 1 502 12 view .LVU1348
 4822 0020 43B1     		cbz	r3, .L267
 502:Task/Task_BlackBox.c ****             Monitor.state = BlackBox_Log_Enable;
 4823              		.loc 1 502 35 discriminator 1 view .LVU1349
 4824 0022 9847     		blx	r3
 4825              	.LVL393:
 502:Task/Task_BlackBox.c ****             Monitor.state = BlackBox_Log_Enable;
 4826              		.loc 1 502 32 discriminator 1 view .LVU1350
 4827 0024 30B1     		cbz	r0, .L267
 503:Task/Task_BlackBox.c ****     }
ARM GAS  C:\Users\8bit\AppData\Local\Temp\ccdInZoL.s 			page 124


 4828              		.loc 1 503 13 is_stmt 1 view .LVU1351
 503:Task/Task_BlackBox.c ****     }
 4829              		.loc 1 503 27 is_stmt 0 view .LVU1352
 4830 0026 044B     		ldr	r3, .L271
 4831 0028 0122     		movs	r2, #1
 4832 002a 1A70     		strb	r2, [r3]
 4833 002c 02E0     		b	.L267
 4834              	.L268:
 506:Task/Task_BlackBox.c **** }
 4835              		.loc 1 506 9 is_stmt 1 view .LVU1353
 506:Task/Task_BlackBox.c **** }
 4836              		.loc 1 506 23 is_stmt 0 view .LVU1354
 4837 002e 024B     		ldr	r3, .L271
 4838 0030 0222     		movs	r2, #2
 4839 0032 1A70     		strb	r2, [r3]
 4840              	.L267:
 507:Task/Task_BlackBox.c **** 
 4841              		.loc 1 507 1 view .LVU1355
 4842 0034 08BD     		pop	{r3, pc}
 4843              	.L272:
 4844 0036 00BF     		.align	2
 4845              	.L271:
 4846 0038 00000000 		.word	.LANCHOR1
 4847 003c 00000000 		.word	Queue
 4848 0040 00000000 		.word	.LANCHOR0
 4849 0044 00000000 		.word	.LANCHOR12
 4850              		.cfi_endproc
 4851              	.LFE2077:
 4853              		.section	.text.TaskBlackBox_Set_LogInfo,"ax",%progbits
 4854              		.align	1
 4855              		.global	TaskBlackBox_Set_LogInfo
 4856              		.syntax unified
 4857              		.thumb
 4858              		.thumb_func
 4860              	TaskBlackBox_Set_LogInfo:
 4861              	.LVL394:
 4862              	.LFB2078:
 510:Task/Task_BlackBox.c ****     BlackBox_LogInfo_TypeDef info;
 4863              		.loc 1 510 1 is_stmt 1 view -0
 4864              		.cfi_startproc
 4865              		@ args = 0, pretend = 0, frame = 152
 4866              		@ frame_needed = 0, uses_anonymous_args = 0
 510:Task/Task_BlackBox.c ****     BlackBox_LogInfo_TypeDef info;
 4867              		.loc 1 510 1 is_stmt 0 view .LVU1357
 4868 0000 70B5     		push	{r4, r5, r6, lr}
 4869              	.LCFI41:
 4870              		.cfi_def_cfa_offset 16
 4871              		.cfi_offset 4, -16
 4872              		.cfi_offset 5, -12
 4873              		.cfi_offset 6, -8
 4874              		.cfi_offset 14, -4
 4875 0002 A6B0     		sub	sp, sp, #152
 4876              	.LCFI42:
 4877              		.cfi_def_cfa_offset 168
 4878 0004 0446     		mov	r4, r0
 4879 0006 0D46     		mov	r5, r1
 4880 0008 1646     		mov	r6, r2
ARM GAS  C:\Users\8bit\AppData\Local\Temp\ccdInZoL.s 			page 125


 511:Task/Task_BlackBox.c ****     Storage_ItemSearchOut_TypeDef search_out;
 4881              		.loc 1 511 5 is_stmt 1 view .LVU1358
 512:Task/Task_BlackBox.c **** 
 4882              		.loc 1 512 5 view .LVU1359
 514:Task/Task_BlackBox.c ****     memset(&info, 0, sizeof(BlackBox_LogInfo_TypeDef));
 4883              		.loc 1 514 5 view .LVU1360
 4884 000a 4522     		movs	r2, #69
 4885              	.LVL395:
 514:Task/Task_BlackBox.c ****     memset(&info, 0, sizeof(BlackBox_LogInfo_TypeDef));
 4886              		.loc 1 514 5 is_stmt 0 view .LVU1361
 4887 000c 0021     		movs	r1, #0
 4888              	.LVL396:
 514:Task/Task_BlackBox.c ****     memset(&info, 0, sizeof(BlackBox_LogInfo_TypeDef));
 4889              		.loc 1 514 5 view .LVU1362
 4890 000e 12A8     		add	r0, sp, #72
 4891              	.LVL397:
 514:Task/Task_BlackBox.c ****     memset(&info, 0, sizeof(BlackBox_LogInfo_TypeDef));
 4892              		.loc 1 514 5 view .LVU1363
 4893 0010 FFF7FEFF 		bl	memset
 4894              	.LVL398:
 515:Task/Task_BlackBox.c **** 
 4895              		.loc 1 515 5 is_stmt 1 view .LVU1364
 4896 0014 0023     		movs	r3, #0
 4897 0016 2493     		str	r3, [sp, #144]
 4898 0018 ADF89430 		strh	r3, [sp, #148]	@ movhi
 517:Task/Task_BlackBox.c ****     {
 4899              		.loc 1 517 5 view .LVU1365
 4900 001c 631E     		subs	r3, r4, #1
 4901 001e 022B     		cmp	r3, #2
 4902 0020 27D8     		bhi	.L276
 522:Task/Task_BlackBox.c ****         default: return false;
 4903              		.loc 1 522 13 view .LVU1366
 526:Task/Task_BlackBox.c ****     {
 4904              		.loc 1 526 5 view .LVU1367
 4905 0022 042D     		cmp	r5, #4
 4906 0024 28D8     		bhi	.L277
 533:Task/Task_BlackBox.c ****         default: return false;
 4907              		.loc 1 533 13 view .LVU1368
 537:Task/Task_BlackBox.c ****     info.log_type = type;
 4908              		.loc 1 537 5 view .LVU1369
 537:Task/Task_BlackBox.c ****     info.log_type = type;
 4909              		.loc 1 537 17 is_stmt 0 view .LVU1370
 4910 0026 8DF89040 		strb	r4, [sp, #144]
 538:Task/Task_BlackBox.c ****     info.log_size = size;
 4911              		.loc 1 538 5 is_stmt 1 view .LVU1371
 538:Task/Task_BlackBox.c ****     info.log_size = size;
 4912              		.loc 1 538 19 is_stmt 0 view .LVU1372
 4913 002a 8DF89150 		strb	r5, [sp, #145]
 539:Task/Task_BlackBox.c **** 
 4914              		.loc 1 539 5 is_stmt 1 view .LVU1373
 539:Task/Task_BlackBox.c **** 
 4915              		.loc 1 539 19 is_stmt 0 view .LVU1374
 4916 002e CDF89260 		str	r6, [sp, #146]	@ unaligned
 541:Task/Task_BlackBox.c ****     if (search_out.item_addr == 0)
 4917              		.loc 1 541 5 is_stmt 1 view .LVU1375
 541:Task/Task_BlackBox.c ****     if (search_out.item_addr == 0)
 4918              		.loc 1 541 25 is_stmt 0 view .LVU1376
ARM GAS  C:\Users\8bit\AppData\Local\Temp\ccdInZoL.s 			page 126


 4919 0032 144B     		ldr	r3, .L281
 4920 0034 5B68     		ldr	r3, [r3, #4]
 541:Task/Task_BlackBox.c ****     if (search_out.item_addr == 0)
 4921              		.loc 1 541 18 view .LVU1377
 4922 0036 144A     		ldr	r2, .L281+4
 4923 0038 0221     		movs	r1, #2
 4924 003a 6846     		mov	r0, sp
 4925 003c 9847     		blx	r3
 4926              	.LVL399:
 4927 003e 4522     		movs	r2, #69
 4928 0040 6946     		mov	r1, sp
 4929 0042 12A8     		add	r0, sp, #72
 4930 0044 FFF7FEFF 		bl	memcpy
 4931              	.LVL400:
 542:Task/Task_BlackBox.c ****     {
 4932              		.loc 1 542 5 is_stmt 1 view .LVU1378
 542:Task/Task_BlackBox.c ****     {
 4933              		.loc 1 542 19 is_stmt 0 view .LVU1379
 4934 0048 129B     		ldr	r3, [sp, #72]
 542:Task/Task_BlackBox.c ****     {
 4935              		.loc 1 542 8 view .LVU1380
 4936 004a 3BB9     		cbnz	r3, .L275
 545:Task/Task_BlackBox.c ****             return false;
 4937              		.loc 1 545 9 is_stmt 1 view .LVU1381
 545:Task/Task_BlackBox.c ****             return false;
 4938              		.loc 1 545 20 is_stmt 0 view .LVU1382
 4939 004c 0D4B     		ldr	r3, .L281
 4940 004e 9C68     		ldr	r4, [r3, #8]
 545:Task/Task_BlackBox.c ****             return false;
 4941              		.loc 1 545 13 view .LVU1383
 4942 0050 0623     		movs	r3, #6
 4943 0052 24AA     		add	r2, sp, #144
 4944 0054 0C49     		ldr	r1, .L281+4
 4945 0056 0220     		movs	r0, #2
 4946 0058 A047     		blx	r4
 4947              	.LVL401:
 545:Task/Task_BlackBox.c ****             return false;
 4948              		.loc 1 545 12 view .LVU1384
 4949 005a 78B9     		cbnz	r0, .L278
 4950              	.L275:
 549:Task/Task_BlackBox.c ****         return false;
 4951              		.loc 1 549 5 is_stmt 1 view .LVU1385
 549:Task/Task_BlackBox.c ****         return false;
 4952              		.loc 1 549 16 is_stmt 0 view .LVU1386
 4953 005c 094B     		ldr	r3, .L281
 4954 005e DC68     		ldr	r4, [r3, #12]
 549:Task/Task_BlackBox.c ****         return false;
 4955              		.loc 1 549 9 view .LVU1387
 4956 0060 0623     		movs	r3, #6
 4957 0062 24AA     		add	r2, sp, #144
 4958 0064 1E99     		ldr	r1, [sp, #120]
 4959 0066 0220     		movs	r0, #2
 4960 0068 A047     		blx	r4
 4961              	.LVL402:
 549:Task/Task_BlackBox.c ****         return false;
 4962              		.loc 1 549 8 view .LVU1388
 4963 006a 0B28     		cmp	r0, #11
ARM GAS  C:\Users\8bit\AppData\Local\Temp\ccdInZoL.s 			page 127


 4964 006c 08D1     		bne	.L279
 552:Task/Task_BlackBox.c **** }
 4965              		.loc 1 552 12 view .LVU1389
 4966 006e 0120     		movs	r0, #1
 4967 0070 00E0     		b	.L274
 4968              	.L276:
 523:Task/Task_BlackBox.c ****     }
 4969              		.loc 1 523 25 view .LVU1390
 4970 0072 0020     		movs	r0, #0
 4971              	.L274:
 553:Task/Task_BlackBox.c **** 
 4972              		.loc 1 553 1 view .LVU1391
 4973 0074 26B0     		add	sp, sp, #152
 4974              	.LCFI43:
 4975              		.cfi_remember_state
 4976              		.cfi_def_cfa_offset 16
 4977              		@ sp needed
 4978 0076 70BD     		pop	{r4, r5, r6, pc}
 4979              	.LVL403:
 4980              	.L277:
 4981              	.LCFI44:
 4982              		.cfi_restore_state
 534:Task/Task_BlackBox.c ****     }
 4983              		.loc 1 534 25 view .LVU1392
 4984 0078 0020     		movs	r0, #0
 4985 007a FBE7     		b	.L274
 4986              	.L278:
 546:Task/Task_BlackBox.c ****     }
 4987              		.loc 1 546 20 view .LVU1393
 4988 007c 0020     		movs	r0, #0
 4989 007e F9E7     		b	.L274
 4990              	.L279:
 550:Task/Task_BlackBox.c **** 
 4991              		.loc 1 550 16 view .LVU1394
 4992 0080 0020     		movs	r0, #0
 4993 0082 F7E7     		b	.L274
 4994              	.L282:
 4995              		.align	2
 4996              	.L281:
 4997 0084 00000000 		.word	Storage
 4998 0088 A8010000 		.word	.LC16
 4999              		.cfi_endproc
 5000              	.LFE2078:
 5002              		.global	shellCommandblackbox_info
 5003              		.global	shellDescblackbox_info
 5004              		.global	shellCmdblackbox_info
 5005              		.global	shellCommandblackbox_disable
 5006              		.global	shellDescblackbox_disable
 5007              		.global	shellCmdblackbox_disable
 5008              		.global	shellCommandblackbox_enable
 5009              		.global	shellDescblackbox_enable
 5010              		.global	shellCmdblackbox_enable
 5011              		.global	shellCommandblackbox_set
 5012              		.global	shellDescblackbox_set
 5013              		.global	shellCmdblackbox_set
 5014              		.section	.Perph_Section,"aw"
 5015              		.align	2
ARM GAS  C:\Users\8bit\AppData\Local\Temp\ccdInZoL.s 			page 128


 5016              		.set	.LANCHOR4,. + 0
 5019              	LogImu_Data_PipeDataObj:
 5020 0000 00000000 		.space	84
 5020      00000000 
 5020      00000000 
 5020      00000000 
 5020      00000000 
 5023              	LogBaro_Data_PipeDataObj:
 5024 0054 00000000 		.space	28
 5024      00000000 
 5024      00000000 
 5024      00000000 
 5024      00000000 
 5027              	LogAtt_Data_PipeDataObj:
 5028 0070 00000000 		.space	34
 5028      00000000 
 5028      00000000 
 5028      00000000 
 5028      00000000 
 5029 0092 0000     		.space	2
 5032              	LogAlt_Data_PipeDataObj:
 5033 0094 00000000 		.space	8
 5033      00000000 
 5036              	LogCtl_Data_PipeDataObj:
 5037 009c 00000000 		.space	28
 5037      00000000 
 5037      00000000 
 5037      00000000 
 5037      00000000 
 5040              	BlackBox_Buff:
 5041 00b8 00000000 		.space	8192
 5041      00000000 
 5041      00000000 
 5041      00000000 
 5041      00000000 
 5042              		.section	.bss.BlackBox_Queue,"aw",%nobits
 5043              		.align	2
 5044              		.set	.LANCHOR0,. + 0
 5047              	BlackBox_Queue:
 5048 0000 00000000 		.space	17
 5048      00000000 
 5048      00000000 
 5048      00000000 
 5048      00
 5049              		.section	.bss.BlackBox_Sem,"aw",%nobits
 5050              		.align	2
 5051              		.set	.LANCHOR2,. + 0
 5054              	BlackBox_Sem:
 5055 0000 00000000 		.space	4
 5056              		.section	.bss.Monitor,"aw",%nobits
 5057              		.align	2
 5058              		.set	.LANCHOR1,. + 0
 5061              	Monitor:
 5062 0000 00000000 		.space	128
 5062      00000000 
 5062      00000000 
 5062      00000000 
ARM GAS  C:\Users\8bit\AppData\Local\Temp\ccdInZoL.s 			page 129


 5062      00000000 
 5063              		.section	.bss.alt_update.2,"aw",%nobits
 5064              		.set	.LANCHOR9,. + 0
 5067              	alt_update.2:
 5068 0000 00       		.space	1
 5069              		.section	.bss.ang_ctl_data.0,"aw",%nobits
 5070              		.align	2
 5071              		.set	.LANCHOR11,. + 0
 5074              	ang_ctl_data.0:
 5075 0000 00000000 		.space	29
 5075      00000000 
 5075      00000000 
 5075      00000000 
 5075      00000000 
 5076              		.section	.bss.att_alt_data.4,"aw",%nobits
 5077              		.align	2
 5078              		.set	.LANCHOR7,. + 0
 5081              	att_alt_data.4:
 5082 0000 00000000 		.space	44
 5082      00000000 
 5082      00000000 
 5082      00000000 
 5082      00000000 
 5083              		.section	.bss.att_ctl_data.1,"aw",%nobits
 5084              		.align	2
 5085              		.set	.LANCHOR10,. + 0
 5088              	att_ctl_data.1:
 5089 0000 00000000 		.space	29
 5089      00000000 
 5089      00000000 
 5089      00000000 
 5089      00000000 
 5090              		.section	.bss.att_update.3,"aw",%nobits
 5091              		.set	.LANCHOR8,. + 0
 5094              	att_update.3:
 5095 0000 00       		.space	1
 5096              		.section	.bss.baro_data.5,"aw",%nobits
 5097              		.align	2
 5098              		.set	.LANCHOR6,. + 0
 5101              	baro_data.5:
 5102 0000 00000000 		.space	16
 5102      00000000 
 5102      00000000 
 5102      00000000 
 5103              		.section	.bss.imu_data.6,"aw",%nobits
 5104              		.align	2
 5105              		.set	.LANCHOR5,. + 0
 5108              	imu_data.6:
 5109 0000 00000000 		.space	38
 5109      00000000 
 5109      00000000 
 5109      00000000 
 5109      00000000 
 5110              		.section	.bss.lst_state.7,"aw",%nobits
 5111              		.set	.LANCHOR3,. + 0
 5114              	lst_state.7:
 5115 0000 00       		.space	1
ARM GAS  C:\Users\8bit\AppData\Local\Temp\ccdInZoL.s 			page 130


 5116              		.section	.bss.p_blackbox,"aw",%nobits
 5117              		.align	2
 5118              		.set	.LANCHOR12,. + 0
 5121              	p_blackbox:
 5122 0000 00000000 		.space	4
 5123              		.section	.rodata.shellCmdblackbox_disable,"a"
 5124              		.align	2
 5127              	shellCmdblackbox_disable:
 5128 0000 626C6163 		.ascii	"blackbox_disable\000"
 5128      6B626F78 
 5128      5F646973 
 5128      61626C65 
 5128      00
 5129              		.section	.rodata.shellCmdblackbox_enable,"a"
 5130              		.align	2
 5133              	shellCmdblackbox_enable:
 5134 0000 626C6163 		.ascii	"blackbox_enable\000"
 5134      6B626F78 
 5134      5F656E61 
 5134      626C6500 
 5135              		.section	.rodata.shellCmdblackbox_info,"a"
 5136              		.align	2
 5139              	shellCmdblackbox_info:
 5140 0000 626C6163 		.ascii	"blackbox_info\000"
 5140      6B626F78 
 5140      5F696E66 
 5140      6F00
 5141              		.section	.rodata.shellCmdblackbox_set,"a"
 5142              		.align	2
 5145              	shellCmdblackbox_set:
 5146 0000 626C6163 		.ascii	"blackbox_set\000"
 5146      6B626F78 
 5146      5F736574 
 5146      00
 5147              		.section	.rodata.shellDescblackbox_disable,"a"
 5148              		.align	2
 5151              	shellDescblackbox_disable:
 5152 0000 626C6163 		.ascii	"blackbox end log\000"
 5152      6B626F78 
 5152      20656E64 
 5152      206C6F67 
 5152      00
 5153              		.section	.rodata.shellDescblackbox_enable,"a"
 5154              		.align	2
 5157              	shellDescblackbox_enable:
 5158 0000 626C6163 		.ascii	"blackbox start log\000"
 5158      6B626F78 
 5158      20737461 
 5158      7274206C 
 5158      6F6700
 5159              		.section	.rodata.shellDescblackbox_info,"a"
 5160              		.align	2
 5163              	shellDescblackbox_info:
 5164 0000 626C6163 		.ascii	"blackbox log info\000"
 5164      6B626F78 
 5164      206C6F67 
 5164      20696E66 
ARM GAS  C:\Users\8bit\AppData\Local\Temp\ccdInZoL.s 			page 131


 5164      6F00
 5165              		.section	.rodata.shellDescblackbox_set,"a"
 5166              		.align	2
 5169              	shellDescblackbox_set:
 5170 0000 73657420 		.ascii	"set blackbox log\000"
 5170      626C6163 
 5170      6B626F78 
 5170      206C6F67 
 5170      00
 5171              		.section	shellCommand,"a"
 5172              		.align	2
 5175              	shellCommandblackbox_info:
 5176 0000 00210000 		.word	8448
 5177 0004 00000000 		.word	shellCmdblackbox_info
 5178 0008 00000000 		.word	TaskBlackBox_GetLogInfo
 5179 000c 00000000 		.word	shellDescblackbox_info
 5182              	shellCommandblackbox_disable:
 5183 0010 00210000 		.word	8448
 5184 0014 00000000 		.word	shellCmdblackbox_disable
 5185 0018 00000000 		.word	TaskBlackBox_DisableLog
 5186 001c 00000000 		.word	shellDescblackbox_disable
 5189              	shellCommandblackbox_enable:
 5190 0020 00210000 		.word	8448
 5191 0024 00000000 		.word	shellCmdblackbox_enable
 5192 0028 00000000 		.word	TaskBlackBox_EnableLog
 5193 002c 00000000 		.word	shellDescblackbox_enable
 5196              	shellCommandblackbox_set:
 5197 0030 00210000 		.word	8448
 5198 0034 00000000 		.word	shellCmdblackbox_set
 5199 0038 00000000 		.word	TaskBlackBox_Set_Log
 5200 003c 00000000 		.word	shellDescblackbox_set
 5201              		.text
 5202              	.Letext0:
 5203              		.file 3 "c:\\program files (x86)\\gnu arm embedded toolchain\\10 2021.10\\lib\\gcc\\arm-none-eabi\
 5204              		.file 4 "c:\\program files (x86)\\gnu arm embedded toolchain\\10 2021.10\\arm-none-eabi\\include\\
 5205              		.file 5 "c:\\program files (x86)\\gnu arm embedded toolchain\\10 2021.10\\arm-none-eabi\\include\\
 5206              		.file 6 "System/FreeRTOS/portable/GCC/ARM_CM4F/portmacro.h"
 5207              		.file 7 "System/FreeRTOS/include/portable.h"
 5208              		.file 8 "System/FreeRTOS/include/FreeRTOS.h"
 5209              		.file 9 "common/gen_physic_def/imu_data.h"
 5210              		.file 10 "Task/Task_BlackBox.h"
 5211              		.file 11 "System/shell/shell.h"
 5212              		.file 12 "HW_Lib/AT32F435/drivers/inc/at32f435_437_tmr.h"
 5213              		.file 13 "Task/../DataStructure/CusQueue.h"
 5214              		.file 14 "System/FreeRTOS/include/queue.h"
 5215              		.file 15 "System/FreeRTOS/include/semphr.h"
 5216              		.file 16 "System/FreeRTOS/CMSIS_RTOS/cmsis_os.h"
 5217              		.file 17 "Service/Srv_OsCommon.h"
 5218              		.file 18 "common/gen_physic_def/pos_data.h"
 5219              		.file 19 "Device/Dev_Dshot.h"
 5220              		.file 20 "Service/Srv_IMUSample.h"
 5221              		.file 21 "Service/control_data.h"
 5222              		.file 22 "Service/Srv_Baro.h"
 5223              		.file 23 "Task/../System/storage/Storage.h"
 5224              		.file 24 "Service/Srv_BlackBox_Def.h"
 5225              		.file 25 "System/FreeRTOS/FreeRTOSConfig.h"
 5226              		.file 26 "c:\\program files (x86)\\gnu arm embedded toolchain\\10 2021.10\\arm-none-eabi\\include\
ARM GAS  C:\Users\8bit\AppData\Local\Temp\ccdInZoL.s 			page 132


 5227              		.file 27 "<built-in>"
 5228              		.file 28 "System/FreeRTOS/include/task.h"
ARM GAS  C:\Users\8bit\AppData\Local\Temp\ccdInZoL.s 			page 133


DEFINED SYMBOLS
                            *ABS*:00000000 Task_BlackBox.c
C:\Users\8bit\AppData\Local\Temp\ccdInZoL.s:20     .text.TaskBlackBox_Get_CheckSum:00000000 $t
C:\Users\8bit\AppData\Local\Temp\ccdInZoL.s:25     .text.TaskBlackBox_Get_CheckSum:00000000 TaskBlackBox_Get_CheckSum
C:\Users\8bit\AppData\Local\Temp\ccdInZoL.s:93     .text.TaskBlackBox_PushFinish_Callback:00000000 $t
C:\Users\8bit\AppData\Local\Temp\ccdInZoL.s:98     .text.TaskBlackBox_PushFinish_Callback:00000000 TaskBlackBox_PushFinish_Callback
C:\Users\8bit\AppData\Local\Temp\ccdInZoL.s:111    .text.TaskBlackBox_UpdateQueue:00000000 $t
C:\Users\8bit\AppData\Local\Temp\ccdInZoL.s:116    .text.TaskBlackBox_UpdateQueue:00000000 TaskBlackBox_UpdateQueue
C:\Users\8bit\AppData\Local\Temp\ccdInZoL.s:250    .text.TaskBlackBox_UpdateQueue:0000007c $d
C:\Users\8bit\AppData\Local\Temp\ccdInZoL.s:258    .text.TaskBlackBox_PipeTransFinish_Callback:00000000 $t
C:\Users\8bit\AppData\Local\Temp\ccdInZoL.s:263    .text.TaskBlackBox_PipeTransFinish_Callback:00000000 TaskBlackBox_PipeTransFinish_Callback
C:\Users\8bit\AppData\Local\Temp\ccdInZoL.s:847    .text.TaskBlackBox_PipeTransFinish_Callback:00000314 $d
C:\Users\8bit\AppData\Local\Temp\ccdInZoL.s:865    .text.TaskBlackBox_PipeTransFinish_Callback:00000350 $t
C:\Users\8bit\AppData\Local\Temp\ccdInZoL.s:1093   .text.TaskBlackBox_PipeTransFinish_Callback:00000478 $d
C:\Users\8bit\AppData\Local\Temp\ccdInZoL.s:1104   .rodata.TaskBlackBox_Set_Log.str1.4:00000000 $d
C:\Users\8bit\AppData\Local\Temp\ccdInZoL.s:1166   .text.TaskBlackBox_Set_Log:00000000 $t
C:\Users\8bit\AppData\Local\Temp\ccdInZoL.s:1171   .text.TaskBlackBox_Set_Log:00000000 TaskBlackBox_Set_Log
C:\Users\8bit\AppData\Local\Temp\ccdInZoL.s:1404   .text.TaskBlackBox_Set_Log:00000114 $d
C:\Users\8bit\AppData\Local\Temp\ccdInZoL.s:1429   .rodata.TaskBlackBox_EnableLog.str1.4:00000000 $d
C:\Users\8bit\AppData\Local\Temp\ccdInZoL.s:1436   .text.TaskBlackBox_EnableLog:00000000 $t
C:\Users\8bit\AppData\Local\Temp\ccdInZoL.s:1441   .text.TaskBlackBox_EnableLog:00000000 TaskBlackBox_EnableLog
C:\Users\8bit\AppData\Local\Temp\ccdInZoL.s:1515   .text.TaskBlackBox_EnableLog:00000040 $d
C:\Users\8bit\AppData\Local\Temp\ccdInZoL.s:1525   .rodata.TaskBlackBox_DisableLog.str1.4:00000000 $d
C:\Users\8bit\AppData\Local\Temp\ccdInZoL.s:1529   .text.TaskBlackBox_DisableLog:00000000 $t
C:\Users\8bit\AppData\Local\Temp\ccdInZoL.s:1534   .text.TaskBlackBox_DisableLog:00000000 TaskBlackBox_DisableLog
C:\Users\8bit\AppData\Local\Temp\ccdInZoL.s:1572   .text.TaskBlackBox_DisableLog:0000001c $d
C:\Users\8bit\AppData\Local\Temp\ccdInZoL.s:1579   .rodata.TaskBlackBox_ConvertLogData_To_Header.str1.4:00000000 $d
C:\Users\8bit\AppData\Local\Temp\ccdInZoL.s:1586   .text.TaskBlackBox_ConvertLogData_To_Header:00000000 $t
C:\Users\8bit\AppData\Local\Temp\ccdInZoL.s:1591   .text.TaskBlackBox_ConvertLogData_To_Header:00000000 TaskBlackBox_ConvertLogData_To_Header
C:\Users\8bit\AppData\Local\Temp\ccdInZoL.s:1765   .text.TaskBlackBox_ConvertLogData_To_Header:0000008c $d
C:\Users\8bit\AppData\Local\Temp\ccdInZoL.s:1771   .rodata.TaskBlackBox_ConvertLogData_To_IMU.str1.4:00000000 $d
C:\Users\8bit\AppData\Local\Temp\ccdInZoL.s:1782   .text.TaskBlackBox_ConvertLogData_To_IMU:00000000 $t
C:\Users\8bit\AppData\Local\Temp\ccdInZoL.s:1787   .text.TaskBlackBox_ConvertLogData_To_IMU:00000000 TaskBlackBox_ConvertLogData_To_IMU
C:\Users\8bit\AppData\Local\Temp\ccdInZoL.s:2190   .text.TaskBlackBox_ConvertLogData_To_IMU:000002cc $d
C:\Users\8bit\AppData\Local\Temp\ccdInZoL.s:2197   .text.TaskBlackBox_ConvertLogData_To_Alt_Att:00000000 $t
C:\Users\8bit\AppData\Local\Temp\ccdInZoL.s:2202   .text.TaskBlackBox_ConvertLogData_To_Alt_Att:00000000 TaskBlackBox_ConvertLogData_To_Alt_Att
C:\Users\8bit\AppData\Local\Temp\ccdInZoL.s:2534   .text.TaskBlackBox_ConvertLogData_To_Alt_Att:000001fc $d
C:\Users\8bit\AppData\Local\Temp\ccdInZoL.s:2541   .text.TaskBlackBox_ConvertLogData_To_CtlAng:00000000 $t
C:\Users\8bit\AppData\Local\Temp\ccdInZoL.s:2546   .text.TaskBlackBox_ConvertLogData_To_CtlAng:00000000 TaskBlackBox_ConvertLogData_To_CtlAng
C:\Users\8bit\AppData\Local\Temp\ccdInZoL.s:2764   .text.TaskBlackBox_ConvertLogData_To_CtlAng:000000f8 $d
C:\Users\8bit\AppData\Local\Temp\ccdInZoL.s:2771   .text.TaskBlackBox_ConvertLogData_To_CtlAtt:00000000 $t
C:\Users\8bit\AppData\Local\Temp\ccdInZoL.s:2776   .text.TaskBlackBox_ConvertLogData_To_CtlAtt:00000000 TaskBlackBox_ConvertLogData_To_CtlAtt
C:\Users\8bit\AppData\Local\Temp\ccdInZoL.s:2994   .text.TaskBlackBox_ConvertLogData_To_CtlAtt:000000f8 $d
C:\Users\8bit\AppData\Local\Temp\ccdInZoL.s:3001   .rodata.TaskBlackBox_ConvertLogData_To_Ender.str1.4:00000000 $d
C:\Users\8bit\AppData\Local\Temp\ccdInZoL.s:3005   .text.TaskBlackBox_ConvertLogData_To_Ender:00000000 $t
C:\Users\8bit\AppData\Local\Temp\ccdInZoL.s:3010   .text.TaskBlackBox_ConvertLogData_To_Ender:00000000 TaskBlackBox_ConvertLogData_To_Ender
C:\Users\8bit\AppData\Local\Temp\ccdInZoL.s:3133   .text.TaskBlackBox_ConvertLogData_To_Ender:00000068 $d
C:\Users\8bit\AppData\Local\Temp\ccdInZoL.s:3138   .rodata.TaskBlackBox_GetLogInfo.str1.4:00000000 $d
C:\Users\8bit\AppData\Local\Temp\ccdInZoL.s:3172   .text.TaskBlackBox_GetLogInfo:00000000 $t
C:\Users\8bit\AppData\Local\Temp\ccdInZoL.s:3177   .text.TaskBlackBox_GetLogInfo:00000000 TaskBlackBox_GetLogInfo
C:\Users\8bit\AppData\Local\Temp\ccdInZoL.s:3748   .text.TaskBlackBox_GetLogInfo:000002b8 $d
C:\Users\8bit\AppData\Local\Temp\ccdInZoL.s:3759   .text.TaskBlackBox_GetLogInfo:000002dc $t
C:\Users\8bit\AppData\Local\Temp\ccdInZoL.s:3811   .text.TaskBlackBox_GetLogInfo:00000326 $d
C:\Users\8bit\AppData\Local\Temp\ccdInZoL.s:3815   .text.TaskBlackBox_GetLogInfo:0000032a $t
C:\Users\8bit\AppData\Local\Temp\ccdInZoL.s:4057   .text.TaskBlackBox_GetLogInfo:00000468 $d
C:\Users\8bit\AppData\Local\Temp\ccdInZoL.s:4061   .text.TaskBlackBox_GetLogInfo:00000478 $t
C:\Users\8bit\AppData\Local\Temp\ccdInZoL.s:4081   .text.TaskBlackBox_GetLogInfo:0000048c $d
ARM GAS  C:\Users\8bit\AppData\Local\Temp\ccdInZoL.s 			page 134


C:\Users\8bit\AppData\Local\Temp\ccdInZoL.s:4090   .rodata.TaskBlackBox_Init.str1.4:00000000 $d
C:\Users\8bit\AppData\Local\Temp\ccdInZoL.s:4094   .text.TaskBlackBox_Init:00000000 $t
C:\Users\8bit\AppData\Local\Temp\ccdInZoL.s:4100   .text.TaskBlackBox_Init:00000000 TaskBlackBox_Init
C:\Users\8bit\AppData\Local\Temp\ccdInZoL.s:4614   .text.TaskBlackBox_Init:0000026c $d
C:\Users\8bit\AppData\Local\Temp\ccdInZoL.s:5040   .Perph_Section:000000b8 BlackBox_Buff
C:\Users\8bit\AppData\Local\Temp\ccdInZoL.s:4639   .text.TaskBlackBox_Core:00000000 $t
C:\Users\8bit\AppData\Local\Temp\ccdInZoL.s:4645   .text.TaskBlackBox_Core:00000000 TaskBlackBox_Core
C:\Users\8bit\AppData\Local\Temp\ccdInZoL.s:4767   .text.TaskBlackBox_Core:0000007c $d
C:\Users\8bit\AppData\Local\Temp\ccdInZoL.s:4776   .text.TaskBlackBox_LogControl:00000000 $t
C:\Users\8bit\AppData\Local\Temp\ccdInZoL.s:4782   .text.TaskBlackBox_LogControl:00000000 TaskBlackBox_LogControl
C:\Users\8bit\AppData\Local\Temp\ccdInZoL.s:4846   .text.TaskBlackBox_LogControl:00000038 $d
C:\Users\8bit\AppData\Local\Temp\ccdInZoL.s:4854   .text.TaskBlackBox_Set_LogInfo:00000000 $t
C:\Users\8bit\AppData\Local\Temp\ccdInZoL.s:4860   .text.TaskBlackBox_Set_LogInfo:00000000 TaskBlackBox_Set_LogInfo
C:\Users\8bit\AppData\Local\Temp\ccdInZoL.s:4997   .text.TaskBlackBox_Set_LogInfo:00000084 $d
C:\Users\8bit\AppData\Local\Temp\ccdInZoL.s:5175   shellCommand:00000000 shellCommandblackbox_info
C:\Users\8bit\AppData\Local\Temp\ccdInZoL.s:5163   .rodata.shellDescblackbox_info:00000000 shellDescblackbox_info
C:\Users\8bit\AppData\Local\Temp\ccdInZoL.s:5139   .rodata.shellCmdblackbox_info:00000000 shellCmdblackbox_info
C:\Users\8bit\AppData\Local\Temp\ccdInZoL.s:5182   shellCommand:00000010 shellCommandblackbox_disable
C:\Users\8bit\AppData\Local\Temp\ccdInZoL.s:5151   .rodata.shellDescblackbox_disable:00000000 shellDescblackbox_disable
C:\Users\8bit\AppData\Local\Temp\ccdInZoL.s:5127   .rodata.shellCmdblackbox_disable:00000000 shellCmdblackbox_disable
C:\Users\8bit\AppData\Local\Temp\ccdInZoL.s:5189   shellCommand:00000020 shellCommandblackbox_enable
C:\Users\8bit\AppData\Local\Temp\ccdInZoL.s:5157   .rodata.shellDescblackbox_enable:00000000 shellDescblackbox_enable
C:\Users\8bit\AppData\Local\Temp\ccdInZoL.s:5133   .rodata.shellCmdblackbox_enable:00000000 shellCmdblackbox_enable
C:\Users\8bit\AppData\Local\Temp\ccdInZoL.s:5196   shellCommand:00000030 shellCommandblackbox_set
C:\Users\8bit\AppData\Local\Temp\ccdInZoL.s:5169   .rodata.shellDescblackbox_set:00000000 shellDescblackbox_set
C:\Users\8bit\AppData\Local\Temp\ccdInZoL.s:5145   .rodata.shellCmdblackbox_set:00000000 shellCmdblackbox_set
C:\Users\8bit\AppData\Local\Temp\ccdInZoL.s:5015   .Perph_Section:00000000 $d
C:\Users\8bit\AppData\Local\Temp\ccdInZoL.s:5019   .Perph_Section:00000000 LogImu_Data_PipeDataObj
C:\Users\8bit\AppData\Local\Temp\ccdInZoL.s:5023   .Perph_Section:00000054 LogBaro_Data_PipeDataObj
C:\Users\8bit\AppData\Local\Temp\ccdInZoL.s:5027   .Perph_Section:00000070 LogAtt_Data_PipeDataObj
C:\Users\8bit\AppData\Local\Temp\ccdInZoL.s:5032   .Perph_Section:00000094 LogAlt_Data_PipeDataObj
C:\Users\8bit\AppData\Local\Temp\ccdInZoL.s:5036   .Perph_Section:0000009c LogCtl_Data_PipeDataObj
C:\Users\8bit\AppData\Local\Temp\ccdInZoL.s:5043   .bss.BlackBox_Queue:00000000 $d
C:\Users\8bit\AppData\Local\Temp\ccdInZoL.s:5047   .bss.BlackBox_Queue:00000000 BlackBox_Queue
C:\Users\8bit\AppData\Local\Temp\ccdInZoL.s:5050   .bss.BlackBox_Sem:00000000 $d
C:\Users\8bit\AppData\Local\Temp\ccdInZoL.s:5054   .bss.BlackBox_Sem:00000000 BlackBox_Sem
C:\Users\8bit\AppData\Local\Temp\ccdInZoL.s:5057   .bss.Monitor:00000000 $d
C:\Users\8bit\AppData\Local\Temp\ccdInZoL.s:5061   .bss.Monitor:00000000 Monitor
C:\Users\8bit\AppData\Local\Temp\ccdInZoL.s:5067   .bss.alt_update.2:00000000 alt_update.2
C:\Users\8bit\AppData\Local\Temp\ccdInZoL.s:5068   .bss.alt_update.2:00000000 $d
C:\Users\8bit\AppData\Local\Temp\ccdInZoL.s:5070   .bss.ang_ctl_data.0:00000000 $d
C:\Users\8bit\AppData\Local\Temp\ccdInZoL.s:5074   .bss.ang_ctl_data.0:00000000 ang_ctl_data.0
C:\Users\8bit\AppData\Local\Temp\ccdInZoL.s:5077   .bss.att_alt_data.4:00000000 $d
C:\Users\8bit\AppData\Local\Temp\ccdInZoL.s:5081   .bss.att_alt_data.4:00000000 att_alt_data.4
C:\Users\8bit\AppData\Local\Temp\ccdInZoL.s:5084   .bss.att_ctl_data.1:00000000 $d
C:\Users\8bit\AppData\Local\Temp\ccdInZoL.s:5088   .bss.att_ctl_data.1:00000000 att_ctl_data.1
C:\Users\8bit\AppData\Local\Temp\ccdInZoL.s:5094   .bss.att_update.3:00000000 att_update.3
C:\Users\8bit\AppData\Local\Temp\ccdInZoL.s:5095   .bss.att_update.3:00000000 $d
C:\Users\8bit\AppData\Local\Temp\ccdInZoL.s:5097   .bss.baro_data.5:00000000 $d
C:\Users\8bit\AppData\Local\Temp\ccdInZoL.s:5101   .bss.baro_data.5:00000000 baro_data.5
C:\Users\8bit\AppData\Local\Temp\ccdInZoL.s:5104   .bss.imu_data.6:00000000 $d
C:\Users\8bit\AppData\Local\Temp\ccdInZoL.s:5108   .bss.imu_data.6:00000000 imu_data.6
C:\Users\8bit\AppData\Local\Temp\ccdInZoL.s:5114   .bss.lst_state.7:00000000 lst_state.7
C:\Users\8bit\AppData\Local\Temp\ccdInZoL.s:5115   .bss.lst_state.7:00000000 $d
C:\Users\8bit\AppData\Local\Temp\ccdInZoL.s:5117   .bss.p_blackbox:00000000 $d
C:\Users\8bit\AppData\Local\Temp\ccdInZoL.s:5121   .bss.p_blackbox:00000000 p_blackbox
C:\Users\8bit\AppData\Local\Temp\ccdInZoL.s:5124   .rodata.shellCmdblackbox_disable:00000000 $d
ARM GAS  C:\Users\8bit\AppData\Local\Temp\ccdInZoL.s 			page 135


C:\Users\8bit\AppData\Local\Temp\ccdInZoL.s:5130   .rodata.shellCmdblackbox_enable:00000000 $d
C:\Users\8bit\AppData\Local\Temp\ccdInZoL.s:5136   .rodata.shellCmdblackbox_info:00000000 $d
C:\Users\8bit\AppData\Local\Temp\ccdInZoL.s:5142   .rodata.shellCmdblackbox_set:00000000 $d
C:\Users\8bit\AppData\Local\Temp\ccdInZoL.s:5148   .rodata.shellDescblackbox_disable:00000000 $d
C:\Users\8bit\AppData\Local\Temp\ccdInZoL.s:5154   .rodata.shellDescblackbox_enable:00000000 $d
C:\Users\8bit\AppData\Local\Temp\ccdInZoL.s:5160   .rodata.shellDescblackbox_info:00000000 $d
C:\Users\8bit\AppData\Local\Temp\ccdInZoL.s:5166   .rodata.shellDescblackbox_set:00000000 $d
C:\Users\8bit\AppData\Local\Temp\ccdInZoL.s:5172   shellCommand:00000000 $d

UNDEFINED SYMBOLS
osSemaphoreRelease
Queue
IMU_Log_DataPipe
Baro_Log_DataPipe
Attitude_Log_DataPipe
Altitude_Log_DataPipe
CtlData_Log_DataPipe
Shell_GetInstence
shellPrint
Storage
__aeabi_f2d
memcpy
memmove
memset
osSemaphoreCreate
SrvCom_BlackBox
SrvOsCommon
SrvChip_BlackBox
SrvCard_BlackBox
vTaskDelete
osSemaphoreWait
