ARM GAS  /var/folders/8_/_8bzxkcs1296m80nzxdrn9q80000gn/T//ccynjOqG.s 			page 1


   1              		.cpu cortex-m7
   2              		.eabi_attribute 28, 1
   3              		.eabi_attribute 20, 1
   4              		.eabi_attribute 21, 1
   5              		.eabi_attribute 23, 3
   6              		.eabi_attribute 24, 1
   7              		.eabi_attribute 25, 1
   8              		.eabi_attribute 26, 1
   9              		.eabi_attribute 30, 1
  10              		.eabi_attribute 34, 1
  11              		.eabi_attribute 18, 4
  12              		.file	"Task_Log.c"
  13              		.text
  14              	.Ltext0:
  15              		.cfi_sections	.debug_frame
  16              		.section	.text.TaskLog_PipeTransFinish_Callback,"ax",%progbits
  17              		.align	1
  18              		.arch armv7e-m
  19              		.syntax unified
  20              		.thumb
  21              		.thumb_func
  22              		.fpu fpv5-d16
  24              	TaskLog_PipeTransFinish_Callback:
  25              	.LVL0:
  26              	.LFB153:
  27              		.file 1 "Task/Task_Log.c"
   1:Task/Task_Log.c **** /*
   2:Task/Task_Log.c ****  *  coder: 8_B!T0
   3:Task/Task_Log.c ****  *  bref: use this task Log Gyro and Acc Data
   4:Task/Task_Log.c ****  *
   5:Task/Task_Log.c ****  *  this task and module can be improved and optimized in a big but way we use it in short time tem
   6:Task/Task_Log.c ****  *  after when the main fundamental ability was accomplished we go back in this file and do improve
   7:Task/Task_Log.c ****  */
   8:Task/Task_Log.c **** #include "Task_Log.h"
   9:Task/Task_Log.c **** #include "scheduler.h"
  10:Task/Task_Log.c **** #include "shell.h"
  11:Task/Task_Log.c **** #include "debug_util.h"
  12:Task/Task_Log.c **** #include <stdio.h>
  13:Task/Task_Log.c **** #include "queue.h"
  14:Task/Task_Log.c **** #include "error_log.h"
  15:Task/Task_Log.c **** #include "mmu.h"
  16:Task/Task_Log.c **** #include "DiskIO.h"
  17:Task/Task_Log.c **** #include "DataPipe/DataPipe.h"
  18:Task/Task_Log.c **** #include "Task_Protocol.h"
  19:Task/Task_Log.c **** #include "Task_SensorInertial.h"
  20:Task/Task_Log.c **** #include "Dev_Led.h"
  21:Task/Task_Log.c **** #include "IO_Definition.h"
  22:Task/Task_Log.c **** #include "minilzo.h"
  23:Task/Task_Log.c **** #include <stdio.h>
  24:Task/Task_Log.c **** 
  25:Task/Task_Log.c **** #define LOG_FOLDER "log/"
  26:Task/Task_Log.c **** #define IMU_LOG_FILE "imu.log"
  27:Task/Task_Log.c **** 
  28:Task/Task_Log.c **** #define K_BYTE 1024
  29:Task/Task_Log.c **** #define M_BYTE (K_BYTE * K_BYTE)
  30:Task/Task_Log.c **** #define MAX_FILE_SIZE_M(x) (x * M_BYTE)
  31:Task/Task_Log.c **** #define MAX_FILE_SIZE_K(x) (x * K_BYTE)
ARM GAS  /var/folders/8_/_8bzxkcs1296m80nzxdrn9q80000gn/T//ccynjOqG.s 			page 2


  32:Task/Task_Log.c **** #define MIN_CACHE_NUM 2
  33:Task/Task_Log.c **** 
  34:Task/Task_Log.c **** #define LOG_COMPESS_HEADER 0xCA
  35:Task/Task_Log.c **** #define LOG_COMPESS_ENDER 0xED
  36:Task/Task_Log.c **** 
  37:Task/Task_Log.c **** #define HEAP_ALLOC(var,size) \
  38:Task/Task_Log.c ****     lzo_align_t __LZO_MMODEL var [ ((size) + (sizeof(lzo_align_t) - 1)) / sizeof(lzo_align_t) ] TCM
  39:Task/Task_Log.c **** 
  40:Task/Task_Log.c **** static HEAP_ALLOC(wrkmem, LZO1X_1_MEM_COMPRESS);
  41:Task/Task_Log.c **** 
  42:Task/Task_Log.c **** typedef struct
  43:Task/Task_Log.c **** {
  44:Task/Task_Log.c ****     SYSTEM_RunTime max_rt_diff;     // unit: us
  45:Task/Task_Log.c ****     SYSTEM_RunTime period;          // unit: us
  46:Task/Task_Log.c ****     SYSTEM_RunTime start_rt;
  47:Task/Task_Log.c ****     SYSTEM_RunTime end_rt;
  48:Task/Task_Log.c ****     uint32_t err_interval_cnt;
  49:Task/Task_Log.c ****     uint64_t push_cnt;
  50:Task/Task_Log.c **** }LogSummary_TypeDef;
  51:Task/Task_Log.c **** 
  52:Task/Task_Log.c **** /* internal variable */
  53:Task/Task_Log.c **** static const LogData_Header_TypeDef LogIMU_Header = {
  54:Task/Task_Log.c ****     .header = LOG_HEADER,
  55:Task/Task_Log.c ****     .type = LOG_DATATYPE_IMU,
  56:Task/Task_Log.c ****     .size = sizeof(LogIMUDataUnion_TypeDef),
  57:Task/Task_Log.c **** };
  58:Task/Task_Log.c **** 
  59:Task/Task_Log.c **** typedef struct
  60:Task/Task_Log.c **** {
  61:Task/Task_Log.c ****     uint8_t buf[MAX_FILE_SIZE_K(2)];
  62:Task/Task_Log.c ****     uint16_t compess_size;
  63:Task/Task_Log.c ****     uint8_t total;
  64:Task/Task_Log.c **** }LogCompess_Data_TypeDef;
  65:Task/Task_Log.c **** 
  66:Task/Task_Log.c **** static LogCompess_Data_TypeDef LogCompess_Data = {
  67:Task/Task_Log.c ****     .total = MAX_FILE_SIZE_K(2),
  68:Task/Task_Log.c **** };
  69:Task/Task_Log.c **** static FATCluster_Addr LogFolder_Cluster = ROOT_CLUSTER_ADDR;
  70:Task/Task_Log.c **** static volatile Disk_FileObj_TypeDef LogFile_Obj;
  71:Task/Task_Log.c **** static Disk_FATFileSys_TypeDef FATFS_Obj;
  72:Task/Task_Log.c **** static bool LogFile_Ready = false;
  73:Task/Task_Log.c **** static bool enable_compess = true;
  74:Task/Task_Log.c **** static SrvIMU_UnionData_TypeDef LogIMU_Data __attribute__((section(".Perph_Section")));
  75:Task/Task_Log.c **** static uint8_t LogCache_L1_Buf[MAX_FILE_SIZE_K(3)] TCM_ATTRIBUTE;
  76:Task/Task_Log.c **** static uint8_t LogCache_L2_Buf[MAX_FILE_SIZE_K(3)] TCM_ATTRIBUTE;
  77:Task/Task_Log.c **** static QueueObj_TypeDef IMUData_Queue;
  78:Task/Task_Log.c **** static LogData_Reg_TypeDef LogObj_Set_Reg;
  79:Task/Task_Log.c **** static LogData_Reg_TypeDef LogObj_Enable_Reg;
  80:Task/Task_Log.c **** static LogData_Reg_TypeDef LogObj_Logging_Reg;
  81:Task/Task_Log.c **** static Os_IdleObj_TypeDef LogIdleObj;
  82:Task/Task_Log.c **** static uint16_t QueueIMU_PopSize = 0;
  83:Task/Task_Log.c **** static Log_Statistics_TypeDef Log_Statistics;
  84:Task/Task_Log.c **** 
  85:Task/Task_Log.c **** static LogSummary_TypeDef LogIMU_Summary = {
  86:Task/Task_Log.c ****     .max_rt_diff = 0,
  87:Task/Task_Log.c ****     .period = 500,
  88:Task/Task_Log.c ****     .err_interval_cnt = 0,
ARM GAS  /var/folders/8_/_8bzxkcs1296m80nzxdrn9q80000gn/T//ccynjOqG.s 			page 3


  89:Task/Task_Log.c ****     .push_cnt = 0,
  90:Task/Task_Log.c ****     .start_rt = 0,
  91:Task/Task_Log.c ****     .end_rt = 0,
  92:Task/Task_Log.c **** };
  93:Task/Task_Log.c **** 
  94:Task/Task_Log.c **** /* internal function */
  95:Task/Task_Log.c **** static void TaskLog_PipeTransFinish_Callback(DataPipeObj_TypeDef *obj);
  96:Task/Task_Log.c **** static Disk_Write_State LogData_ToFile(QueueObj_TypeDef *queue, LogData_Reg_TypeDef *log_reg);
  97:Task/Task_Log.c **** 
  98:Task/Task_Log.c **** void TaskLog_Init(void)
  99:Task/Task_Log.c **** {
 100:Task/Task_Log.c ****     Os_Idle_DataStream_TypeDef LogData_Stream;
 101:Task/Task_Log.c **** 
 102:Task/Task_Log.c ****     memset(&Log_Statistics, 0, sizeof(Log_Statistics_TypeDef));
 103:Task/Task_Log.c ****     memset(&IMU_Log_DataPipe, NULL, sizeof(IMU_Log_DataPipe));
 104:Task/Task_Log.c ****     memset(&LogFile_Obj, NULL, sizeof(LogFile_Obj));
 105:Task/Task_Log.c ****     memset(&FATFS_Obj, NULL, sizeof(FATFS_Obj));
 106:Task/Task_Log.c **** 
 107:Task/Task_Log.c ****     IMU_Log_DataPipe.data_addr = (uint32_t)&LogIMU_Data;
 108:Task/Task_Log.c ****     IMU_Log_DataPipe.data_size = sizeof(LogIMU_Data);
 109:Task/Task_Log.c ****     IMU_Log_DataPipe.trans_finish_cb = TaskLog_PipeTransFinish_Callback;
 110:Task/Task_Log.c **** 
 111:Task/Task_Log.c ****     LogObj_Set_Reg.reg_val = 0;
 112:Task/Task_Log.c ****     LogObj_Logging_Reg.reg_val = 0;
 113:Task/Task_Log.c **** 
 114:Task/Task_Log.c ****     /* init module first then init task */
 115:Task/Task_Log.c ****     if (Disk.init(&FATFS_Obj, TaskProto_PushProtocolQueue))
 116:Task/Task_Log.c ****     {
 117:Task/Task_Log.c ****         LogFolder_Cluster = Disk.create_folder(&FATFS_Obj, LOG_FOLDER, ROOT_CLUSTER_ADDR);
 118:Task/Task_Log.c **** 
 119:Task/Task_Log.c ****         if(LogFolder_Cluster)
 120:Task/Task_Log.c ****         {
 121:Task/Task_Log.c ****             LogFile_Obj = Disk.create_file(&FATFS_Obj, IMU_LOG_FILE, LogFolder_Cluster, MAX_FILE_SI
 122:Task/Task_Log.c ****             Disk.open(&FATFS_Obj, LOG_FOLDER, IMU_LOG_FILE, &LogFile_Obj);
 123:Task/Task_Log.c **** 
 124:Task/Task_Log.c ****             /* create cache queue for IMU Data */
 125:Task/Task_Log.c ****             if (Queue.create_with_buf(&IMUData_Queue, "queue imu data", LogCache_L1_Buf, sizeof(Log
 126:Task/Task_Log.c ****             {
 127:Task/Task_Log.c ****                 LogFile_Ready = true;
 128:Task/Task_Log.c ****                 LogObj_Enable_Reg._sec.IMU_Sec = true;
 129:Task/Task_Log.c ****                 LogObj_Set_Reg._sec.IMU_Sec = true;
 130:Task/Task_Log.c ****             
 131:Task/Task_Log.c ****                 DataPipe_Enable(&IMU_Log_DataPipe);
 132:Task/Task_Log.c **** 
 133:Task/Task_Log.c ****                 if (lzo_init() != LZO_E_OK)
 134:Task/Task_Log.c ****                     enable_compess = false;
 135:Task/Task_Log.c ****             }
 136:Task/Task_Log.c ****         }
 137:Task/Task_Log.c ****         else
 138:Task/Task_Log.c ****         {
 139:Task/Task_Log.c ****             LogFile_Ready = false;
 140:Task/Task_Log.c ****             LogObj_Enable_Reg._sec.IMU_Sec = false;
 141:Task/Task_Log.c ****             LogObj_Set_Reg._sec.IMU_Sec = false;
 142:Task/Task_Log.c ****             DataPipe_Disable(&IMU_Log_DataPipe);
 143:Task/Task_Log.c ****         }
 144:Task/Task_Log.c ****     }
 145:Task/Task_Log.c ****     else
ARM GAS  /var/folders/8_/_8bzxkcs1296m80nzxdrn9q80000gn/T//ccynjOqG.s 			page 4


 146:Task/Task_Log.c ****         DataPipe_Disable(&IMU_Log_DataPipe);
 147:Task/Task_Log.c **** 
 148:Task/Task_Log.c ****     LogData_Stream.ptr = NULL;
 149:Task/Task_Log.c ****     LogData_Stream.size = 0;
 150:Task/Task_Log.c **** }
 151:Task/Task_Log.c **** 
 152:Task/Task_Log.c **** uint32_t core_cnt = 0;
 153:Task/Task_Log.c **** void TaskLog_Core(Task_Handle hdl)
 154:Task/Task_Log.c **** {
 155:Task/Task_Log.c ****     uint8_t *compess_buf_ptr = NULL;
 156:Task/Task_Log.c ****     uint16_t cur_compess_size = 0;
 157:Task/Task_Log.c ****     uint16_t input_compess_size = 0;
 158:Task/Task_Log.c ****     int ret = 0;
 159:Task/Task_Log.c **** 
 160:Task/Task_Log.c ****     input_compess_size = QueueIMU_PopSize;
 161:Task/Task_Log.c ****     DebugPin.ctl(Debug_PB4, true);
 162:Task/Task_Log.c **** 
 163:Task/Task_Log.c ****     core_cnt ++;
 164:Task/Task_Log.c **** 
 165:Task/Task_Log.c ****     if(LogFile_Ready && enable_compess)
 166:Task/Task_Log.c ****     {
 167:Task/Task_Log.c ****         compess_buf_ptr = LogCompess_Data.buf + (LogCompess_Data.compess_size + sizeof(uint32_t) + 
 168:Task/Task_Log.c ****         cur_compess_size = 0;
 169:Task/Task_Log.c **** 
 170:Task/Task_Log.c ****         if(input_compess_size != 0)
 171:Task/Task_Log.c ****         {
 172:Task/Task_Log.c ****             QueueIMU_PopSize = 0;
 173:Task/Task_Log.c ****             LogObj_Logging_Reg._sec.IMU_Sec = true;
 174:Task/Task_Log.c ****             LogCompess_Data.buf[LogCompess_Data.compess_size] = LOG_COMPESS_HEADER;
 175:Task/Task_Log.c **** 
 176:Task/Task_Log.c ****             ret = lzo1x_1_compress(LogCache_L2_Buf, input_compess_size, compess_buf_ptr, &cur_compe
 177:Task/Task_Log.c ****             if(ret != LZO_E_OK)
 178:Task/Task_Log.c ****             {
 179:Task/Task_Log.c ****                 enable_compess = false;
 180:Task/Task_Log.c ****                 Log_Statistics.halt_type = Log_CompessFunc_Halt;
 181:Task/Task_Log.c ****                 DataPipe_Disable(&IMU_Log_DataPipe);
 182:Task/Task_Log.c ****             }
 183:Task/Task_Log.c ****             else
 184:Task/Task_Log.c ****             {
 185:Task/Task_Log.c ****                 if(input_compess_size <= cur_compess_size)
 186:Task/Task_Log.c ****                 {
 187:Task/Task_Log.c ****                     enable_compess = false;
 188:Task/Task_Log.c ****                     Log_Statistics.halt_type = Log_CompessSize_Halt;
 189:Task/Task_Log.c ****                     DataPipe_Disable(&IMU_Log_DataPipe);
 190:Task/Task_Log.c ****                 }
 191:Task/Task_Log.c ****                 else
 192:Task/Task_Log.c ****                 {
 193:Task/Task_Log.c ****                     /* compess count should equal to queue pop count */
 194:Task/Task_Log.c ****                     Log_Statistics.compess_cnt++;
 195:Task/Task_Log.c ****                     memcpy(&LogCompess_Data.buf[LogCompess_Data.compess_size + 1], &cur_compess_siz
 196:Task/Task_Log.c **** 
 197:Task/Task_Log.c ****                     LogCompess_Data.compess_size = LogCompess_Data.compess_size + cur_compess_size 
 198:Task/Task_Log.c ****                     LogCompess_Data.buf[LogCompess_Data.compess_size] = LOG_COMPESS_ENDER;
 199:Task/Task_Log.c ****                     LogCompess_Data.compess_size ++;
 200:Task/Task_Log.c ****                     LogObj_Logging_Reg._sec.IMU_Sec = false;
 201:Task/Task_Log.c **** 
 202:Task/Task_Log.c ****                     while(LogCompess_Data.compess_size >= 512)
ARM GAS  /var/folders/8_/_8bzxkcs1296m80nzxdrn9q80000gn/T//ccynjOqG.s 			page 5


 203:Task/Task_Log.c ****                     {
 204:Task/Task_Log.c ****                         if(Disk.write(&FATFS_Obj, &LogFile_Obj, LogCompess_Data.buf, 512) == Disk_W
 205:Task/Task_Log.c ****                         {
 206:Task/Task_Log.c ****                             LogFile_Ready = false;
 207:Task/Task_Log.c ****                             Log_Statistics.halt_type = Log_Finish_Halt;
 208:Task/Task_Log.c ****                             DataPipe_Disable(&IMU_Log_DataPipe);
 209:Task/Task_Log.c ****                             break;
 210:Task/Task_Log.c ****                         }
 211:Task/Task_Log.c ****                         else
 212:Task/Task_Log.c ****                         {
 213:Task/Task_Log.c ****                             Log_Statistics.write_file_cnt ++;
 214:Task/Task_Log.c ****                             Log_Statistics.log_byte_sum += 512;
 215:Task/Task_Log.c ****                             LogCompess_Data.compess_size -= 512;
 216:Task/Task_Log.c **** 
 217:Task/Task_Log.c ****                             for(uint16_t t = 0; t < LogCompess_Data.compess_size; t++)
 218:Task/Task_Log.c ****                             {
 219:Task/Task_Log.c ****                                 LogCompess_Data.buf[t] = LogCompess_Data.buf[t + 512];
 220:Task/Task_Log.c ****                                 LogCompess_Data.buf[t + 512] = 0;
 221:Task/Task_Log.c ****                             }
 222:Task/Task_Log.c ****                         }
 223:Task/Task_Log.c ****                     }
 224:Task/Task_Log.c ****                 }
 225:Task/Task_Log.c ****             }
 226:Task/Task_Log.c **** 
 227:Task/Task_Log.c ****             DevLED.ctl(Led1, true);
 228:Task/Task_Log.c ****         }
 229:Task/Task_Log.c ****     }
 230:Task/Task_Log.c ****     else
 231:Task/Task_Log.c ****         DevLED.ctl(Led1, false);
 232:Task/Task_Log.c **** 
 233:Task/Task_Log.c ****     /* test section */
 234:Task/Task_Log.c ****     uint32_t t = 0x00030000;
 235:Task/Task_Log.c **** 
 236:Task/Task_Log.c ****     while(t--);
 237:Task/Task_Log.c ****     /* test section */
 238:Task/Task_Log.c **** 
 239:Task/Task_Log.c ****     DebugPin.ctl(Debug_PB4, false);
 240:Task/Task_Log.c **** }
 241:Task/Task_Log.c **** 
 242:Task/Task_Log.c **** static uint32_t in_queue_size = 0;
 243:Task/Task_Log.c **** static uint32_t out_queue_size = 0;
 244:Task/Task_Log.c **** static void TaskLog_PipeTransFinish_Callback(DataPipeObj_TypeDef *obj)
 245:Task/Task_Log.c **** {
  28              		.loc 1 245 1 view -0
  29              		.cfi_startproc
  30              		@ args = 0, pretend = 0, frame = 72
  31              		@ frame_needed = 0, uses_anonymous_args = 0
 246:Task/Task_Log.c ****     uint64_t imu_pipe_rt_diff = 0;
  32              		.loc 1 246 5 view .LVU1
 247:Task/Task_Log.c ****     static uint64_t lst_imu_pipe_rt = 0;
  33              		.loc 1 247 5 view .LVU2
 248:Task/Task_Log.c ****     LogIMUDataUnion_TypeDef Log_Buf;
  34              		.loc 1 248 5 view .LVU3
 249:Task/Task_Log.c **** 
 250:Task/Task_Log.c ****     if ((obj == NULL) || !LogFile_Ready)
  35              		.loc 1 250 5 view .LVU4
  36              		.loc 1 250 8 is_stmt 0 view .LVU5
ARM GAS  /var/folders/8_/_8bzxkcs1296m80nzxdrn9q80000gn/T//ccynjOqG.s 			page 6


  37 0000 50B1     		cbz	r0, .L17
  38              		.loc 1 250 26 discriminator 1 view .LVU6
  39 0002 9A4B     		ldr	r3, .L21
  40 0004 1B78     		ldrb	r3, [r3]	@ zero_extendqisi2
  41              		.loc 1 250 23 discriminator 1 view .LVU7
  42 0006 3BB1     		cbz	r3, .L17
 251:Task/Task_Log.c ****         return;
 252:Task/Task_Log.c **** 
 253:Task/Task_Log.c ****     if (LogObj_Set_Reg._sec.IMU_Sec && (obj == &IMU_Log_DataPipe) && LogObj_Enable_Reg._sec.IMU_Sec
  43              		.loc 1 253 5 is_stmt 1 view .LVU8
  44              		.loc 1 253 9 is_stmt 0 view .LVU9
  45 0008 994B     		ldr	r3, .L21+4
  46 000a 1B78     		ldrb	r3, [r3]	@ zero_extendqisi2
  47              		.loc 1 253 8 view .LVU10
  48 000c 13F0010F 		tst	r3, #1
  49 0010 02D0     		beq	.L17
  50              		.loc 1 253 37 discriminator 1 view .LVU11
  51 0012 984B     		ldr	r3, .L21+8
  52 0014 9842     		cmp	r0, r3
  53 0016 00D0     		beq	.L20
  54              	.L17:
  55 0018 7047     		bx	lr
  56              	.L20:
  57              		.loc 1 253 67 discriminator 2 view .LVU12
  58 001a 974B     		ldr	r3, .L21+12
  59 001c 1B78     		ldrb	r3, [r3]	@ zero_extendqisi2
  60 001e 13F0010F 		tst	r3, #1
  61 0022 F9D0     		beq	.L17
 245:Task/Task_Log.c ****     uint64_t imu_pipe_rt_diff = 0;
  62              		.loc 1 245 1 view .LVU13
  63 0024 F0B5     		push	{r4, r5, r6, r7, lr}
  64              	.LCFI0:
  65              		.cfi_def_cfa_offset 20
  66              		.cfi_offset 4, -20
  67              		.cfi_offset 5, -16
  68              		.cfi_offset 6, -12
  69              		.cfi_offset 7, -8
  70              		.cfi_offset 14, -4
  71 0026 95B0     		sub	sp, sp, #84
  72              	.LCFI1:
  73              		.cfi_def_cfa_offset 104
 254:Task/Task_Log.c ****     {
 255:Task/Task_Log.c ****         if(!LogObj_Logging_Reg._sec.IMU_Sec && enable_compess && 
  74              		.loc 1 255 9 is_stmt 1 view .LVU14
  75              		.loc 1 255 12 is_stmt 0 view .LVU15
  76 0028 944B     		ldr	r3, .L21+16
  77 002a 1B78     		ldrb	r3, [r3]	@ zero_extendqisi2
  78              		.loc 1 255 11 view .LVU16
  79 002c 13F0010F 		tst	r3, #1
  80 0030 43D1     		bne	.L6
  81              		.loc 1 255 45 discriminator 1 view .LVU17
  82 0032 934B     		ldr	r3, .L21+20
  83 0034 1B78     		ldrb	r3, [r3]	@ zero_extendqisi2
  84 0036 002B     		cmp	r3, #0
  85 0038 3FD0     		beq	.L6
 256:Task/Task_Log.c ****             Queue.size(IMUData_Queue) >= MAX_FILE_SIZE_K(1))
  86              		.loc 1 256 18 discriminator 2 view .LVU18
ARM GAS  /var/folders/8_/_8bzxkcs1296m80nzxdrn9q80000gn/T//ccynjOqG.s 			page 7


  87 003a 924B     		ldr	r3, .L21+24
  88 003c 1C68     		ldr	r4, [r3]
  89              		.loc 1 256 13 discriminator 2 view .LVU19
  90 003e 924B     		ldr	r3, .L21+28
  91 0040 1A7C     		ldrb	r2, [r3, #16]	@ zero_extendqisi2
  92 0042 8DF80020 		strb	r2, [sp]
  93 0046 0FCB     		ldm	r3, {r0, r1, r2, r3}
  94              	.LVL1:
  95              		.loc 1 256 13 discriminator 2 view .LVU20
  96 0048 A047     		blx	r4
  97              	.LVL2:
 255:Task/Task_Log.c ****             Queue.size(IMUData_Queue) >= MAX_FILE_SIZE_K(1))
  98              		.loc 1 255 63 discriminator 2 view .LVU21
  99 004a B0F5806F 		cmp	r0, #1024
 100 004e 34D3     		bcc	.L6
 257:Task/Task_Log.c ****         {
 258:Task/Task_Log.c ****             Log_Statistics.queue_pop_cnt ++;
 101              		.loc 1 258 13 is_stmt 1 view .LVU22
 102              		.loc 1 258 27 is_stmt 0 view .LVU23
 103 0050 8E4A     		ldr	r2, .L21+32
 104 0052 5368     		ldr	r3, [r2, #4]
 105              		.loc 1 258 42 view .LVU24
 106 0054 0133     		adds	r3, r3, #1
 107 0056 5360     		str	r3, [r2, #4]
 259:Task/Task_Log.c **** 
 260:Task/Task_Log.c ****             in_queue_size = Queue.size(IMUData_Queue);
 108              		.loc 1 260 13 is_stmt 1 view .LVU25
 109              		.loc 1 260 34 is_stmt 0 view .LVU26
 110 0058 8A4D     		ldr	r5, .L21+24
 111 005a 2E68     		ldr	r6, [r5]
 112              		.loc 1 260 29 view .LVU27
 113 005c 8A4C     		ldr	r4, .L21+28
 114 005e 237C     		ldrb	r3, [r4, #16]	@ zero_extendqisi2
 115 0060 8DF80030 		strb	r3, [sp]
 116 0064 94E80F00 		ldm	r4, {r0, r1, r2, r3}
 117 0068 B047     		blx	r6
 118              	.LVL3:
 119              		.loc 1 260 27 view .LVU28
 120 006a 894B     		ldr	r3, .L21+36
 121 006c 1860     		str	r0, [r3]
 261:Task/Task_Log.c ****             QueueIMU_PopSize = (Queue.size(IMUData_Queue) / (LOG_HEADER_SIZE + sizeof(Log_Buf))) * 
 122              		.loc 1 261 13 is_stmt 1 view .LVU29
 123              		.loc 1 261 38 is_stmt 0 view .LVU30
 124 006e 2E68     		ldr	r6, [r5]
 125              		.loc 1 261 33 view .LVU31
 126 0070 237C     		ldrb	r3, [r4, #16]	@ zero_extendqisi2
 127 0072 8DF80030 		strb	r3, [sp]
 128 0076 94E80F00 		ldm	r4, {r0, r1, r2, r3}
 129 007a B047     		blx	r6
 130              	.LVL4:
 131              		.loc 1 261 98 view .LVU32
 132 007c 854A     		ldr	r2, .L21+40
 133 007e A2FB0023 		umull	r2, r3, r2, r0
 134 0082 DB08     		lsrs	r3, r3, #3
 135 0084 03EB8303 		add	r3, r3, r3, lsl #2
 136 0088 C3EB0313 		rsb	r3, r3, r3, lsl #4
 137              		.loc 1 261 30 view .LVU33
ARM GAS  /var/folders/8_/_8bzxkcs1296m80nzxdrn9q80000gn/T//ccynjOqG.s 			page 8


 138 008c 824A     		ldr	r2, .L21+44
 139 008e 1380     		strh	r3, [r2]	@ movhi
 262:Task/Task_Log.c **** 
 263:Task/Task_Log.c ****             /* queue pop count should equal to compess count */
 264:Task/Task_Log.c ****             Queue.pop(&IMUData_Queue, LogCache_L2_Buf, Queue.size(IMUData_Queue));
 140              		.loc 1 264 13 is_stmt 1 view .LVU34
 141              		.loc 1 264 18 is_stmt 0 view .LVU35
 142 0090 EE69     		ldr	r6, [r5, #28]
 143              		.loc 1 264 13 view .LVU36
 144 0092 237C     		ldrb	r3, [r4, #16]	@ zero_extendqisi2
 145 0094 8DF80030 		strb	r3, [sp]
 146 0098 94E80F00 		ldm	r4, {r0, r1, r2, r3}
 147 009c 2F68     		ldr	r7, [r5]
 148 009e B847     		blx	r7
 149              	.LVL5:
 150 00a0 0246     		mov	r2, r0
 151 00a2 7E49     		ldr	r1, .L21+48
 152 00a4 2046     		mov	r0, r4
 153 00a6 B047     		blx	r6
 154              	.LVL6:
 265:Task/Task_Log.c ****             out_queue_size = Queue.size(IMUData_Queue);
 155              		.loc 1 265 13 is_stmt 1 view .LVU37
 156              		.loc 1 265 35 is_stmt 0 view .LVU38
 157 00a8 2D68     		ldr	r5, [r5]
 158              		.loc 1 265 30 view .LVU39
 159 00aa 237C     		ldrb	r3, [r4, #16]	@ zero_extendqisi2
 160 00ac 8DF80030 		strb	r3, [sp]
 161 00b0 94E80F00 		ldm	r4, {r0, r1, r2, r3}
 162 00b4 A847     		blx	r5
 163              	.LVL7:
 164              		.loc 1 265 28 view .LVU40
 165 00b6 7A4B     		ldr	r3, .L21+52
 166 00b8 1860     		str	r0, [r3]
 167              	.L6:
 266:Task/Task_Log.c ****         }
 267:Task/Task_Log.c **** 
 268:Task/Task_Log.c ****         memset(Log_Buf.data.const_res, 0, sizeof(Log_Buf.data.const_res));
 168              		.loc 1 268 9 is_stmt 1 view .LVU41
 169 00ba 1E22     		movs	r2, #30
 170 00bc 0021     		movs	r1, #0
 171 00be 0DF13100 		add	r0, sp, #49
 172 00c2 FFF7FEFF 		bl	memset
 173              	.LVL8:
 269:Task/Task_Log.c ****         Log_Buf.data.time = ((SrvIMU_UnionData_TypeDef *)(IMU_Log_DataPipe.data_addr))->data.time_s
 174              		.loc 1 269 9 view .LVU42
 175              		.loc 1 269 75 is_stmt 0 view .LVU43
 176 00c6 6B4B     		ldr	r3, .L21+8
 177 00c8 D3F81120 		ldr	r2, [r3, #17]	@ unaligned
 178              		.loc 1 269 93 view .LVU44
 179 00cc 1168     		ldr	r1, [r2]	@ unaligned
 180 00ce 5368     		ldr	r3, [r2, #4]	@ unaligned
 181              		.loc 1 269 27 view .LVU45
 182 00d0 0291     		str	r1, [sp, #8]
 183 00d2 0393     		str	r3, [sp, #12]
 270:Task/Task_Log.c ****         Log_Buf.data.acc_scale = ((SrvIMU_UnionData_TypeDef *)(IMU_Log_DataPipe.data_addr))->data.a
 184              		.loc 1 270 9 is_stmt 1 view .LVU46
 185              		.loc 1 270 98 is_stmt 0 view .LVU47
ARM GAS  /var/folders/8_/_8bzxkcs1296m80nzxdrn9q80000gn/T//ccynjOqG.s 			page 9


 186 00d4 D2F84530 		ldr	r3, [r2, #69]	@ unaligned
 187 00d8 06EE903A 		vmov	s13, r3	@ int
 188              		.loc 1 270 32 view .LVU48
 189 00dc CDF81130 		str	r3, [sp, #17]	@ unaligned
 271:Task/Task_Log.c ****         Log_Buf.data.gyr_scale = ((SrvIMU_UnionData_TypeDef *)(IMU_Log_DataPipe.data_addr))->data.g
 190              		.loc 1 271 9 is_stmt 1 view .LVU49
 191              		.loc 1 271 98 is_stmt 0 view .LVU50
 192 00e0 D2F84930 		ldr	r3, [r2, #73]	@ unaligned
 193 00e4 07EE103A 		vmov	s14, r3	@ int
 194              		.loc 1 271 32 view .LVU51
 195 00e8 CDF81530 		str	r3, [sp, #21]	@ unaligned
 272:Task/Task_Log.c ****         Log_Buf.data.cyc = ((SrvIMU_UnionData_TypeDef *)(IMU_Log_DataPipe.data_addr))->data.cycle_c
 196              		.loc 1 272 9 is_stmt 1 view .LVU52
 197              		.loc 1 272 92 is_stmt 0 view .LVU53
 198 00ec 9368     		ldr	r3, [r2, #8]	@ unaligned
 199              		.loc 1 272 26 view .LVU54
 200 00ee 8DF81030 		strb	r3, [sp, #16]
 273:Task/Task_Log.c ****         
 274:Task/Task_Log.c ****         for(uint8_t axis = Axis_X; axis < Axis_Sum; axis ++)
 201              		.loc 1 274 9 is_stmt 1 view .LVU55
 202              	.LBB15:
 203              		.loc 1 274 13 view .LVU56
 204              	.LVL9:
 205              		.loc 1 274 21 is_stmt 0 view .LVU57
 206 00f2 0023     		movs	r3, #0
 207              		.loc 1 274 9 view .LVU58
 208 00f4 46E0     		b	.L7
 209              	.LVL10:
 210              	.L8:
 275:Task/Task_Log.c ****         {
 276:Task/Task_Log.c ****             Log_Buf.data.flt_acc[axis] = (int16_t)(Log_Buf.data.acc_scale * ((SrvIMU_UnionData_Type
 211              		.loc 1 276 13 is_stmt 1 discriminator 3 view .LVU59
 212              		.loc 1 276 149 is_stmt 0 discriminator 3 view .LVU60
 213 00f6 991D     		adds	r1, r3, #6
 214 00f8 02EB8101 		add	r1, r2, r1, lsl #2
 215 00fc 4968     		ldr	r1, [r1, #4]	@ unaligned
 216 00fe 07EE901A 		vmov	s15, r1	@ int
 217              		.loc 1 276 75 discriminator 3 view .LVU61
 218 0102 66EEA77A 		vmul.f32	s15, s13, s15
 219              		.loc 1 276 42 discriminator 3 view .LVU62
 220 0106 FDEEE77A 		vcvt.s32.f32	s15, s15
 221              		.loc 1 276 40 discriminator 3 view .LVU63
 222 010a 03F10C01 		add	r1, r3, #12
 223 010e 14A8     		add	r0, sp, #80
 224 0110 00EB4100 		add	r0, r0, r1, lsl #1
 225 0114 17EE904A 		vmov	r4, s15	@ int
 226 0118 20F8434C 		strh	r4, [r0, #-67]	@ unaligned
 277:Task/Task_Log.c ****             Log_Buf.data.flt_gyr[axis] = (int16_t)(Log_Buf.data.gyr_scale * ((SrvIMU_UnionData_Type
 227              		.loc 1 277 13 is_stmt 1 discriminator 3 view .LVU64
 228              		.loc 1 277 149 is_stmt 0 discriminator 3 view .LVU65
 229 011c 181D     		adds	r0, r3, #4
 230 011e 52F82000 		ldr	r0, [r2, r0, lsl #2]	@ unaligned
 231 0122 07EE900A 		vmov	s15, r0	@ int
 232              		.loc 1 277 75 discriminator 3 view .LVU66
 233 0126 67EE277A 		vmul.f32	s15, s14, s15
 234              		.loc 1 277 42 discriminator 3 view .LVU67
 235 012a FDEEE77A 		vcvt.s32.f32	s15, s15
ARM GAS  /var/folders/8_/_8bzxkcs1296m80nzxdrn9q80000gn/T//ccynjOqG.s 			page 10


 236              		.loc 1 277 40 discriminator 3 view .LVU68
 237 012e 03F11000 		add	r0, r3, #16
 238 0132 14AC     		add	r4, sp, #80
 239 0134 04EB4000 		add	r0, r4, r0, lsl #1
 240 0138 17EE904A 		vmov	r4, s15	@ int
 241 013c 20F8454C 		strh	r4, [r0, #-69]	@ unaligned
 278:Task/Task_Log.c ****         
 279:Task/Task_Log.c ****             Log_Buf.data.org_acc[axis] = (int16_t)(Log_Buf.data.acc_scale * ((SrvIMU_UnionData_Type
 242              		.loc 1 279 13 is_stmt 1 discriminator 3 view .LVU69
 243              		.loc 1 279 149 is_stmt 0 discriminator 3 view .LVU70
 244 0140 02EB8101 		add	r1, r2, r1, lsl #2
 245 0144 4968     		ldr	r1, [r1, #4]	@ unaligned
 246 0146 07EE901A 		vmov	s15, r1	@ int
 247              		.loc 1 279 75 discriminator 3 view .LVU71
 248 014a 66EEA77A 		vmul.f32	s15, s13, s15
 249              		.loc 1 279 42 discriminator 3 view .LVU72
 250 014e FDEEE77A 		vcvt.s32.f32	s15, s15
 251              		.loc 1 279 40 discriminator 3 view .LVU73
 252 0152 03F10801 		add	r1, r3, #8
 253 0156 14A8     		add	r0, sp, #80
 254 0158 00EB4101 		add	r1, r0, r1, lsl #1
 255 015c 17EE900A 		vmov	r0, s15	@ int
 256 0160 21F8470C 		strh	r0, [r1, #-71]	@ unaligned
 280:Task/Task_Log.c ****             Log_Buf.data.org_gyr[axis] = (int16_t)(Log_Buf.data.gyr_scale * ((SrvIMU_UnionData_Type
 257              		.loc 1 280 13 is_stmt 1 discriminator 3 view .LVU74
 258              		.loc 1 280 149 is_stmt 0 discriminator 3 view .LVU75
 259 0164 03F10A00 		add	r0, r3, #10
 260 0168 52F82000 		ldr	r0, [r2, r0, lsl #2]	@ unaligned
 261 016c 07EE900A 		vmov	s15, r0	@ int
 262              		.loc 1 280 75 discriminator 3 view .LVU76
 263 0170 67EE277A 		vmul.f32	s15, s14, s15
 264              		.loc 1 280 42 discriminator 3 view .LVU77
 265 0174 FDEEE77A 		vcvt.s32.f32	s15, s15
 266              		.loc 1 280 40 discriminator 3 view .LVU78
 267 0178 17EE900A 		vmov	r0, s15	@ int
 268 017c 21F8410C 		strh	r0, [r1, #-65]	@ unaligned
 274:Task/Task_Log.c ****         {
 269              		.loc 1 274 53 is_stmt 1 discriminator 3 view .LVU79
 274:Task/Task_Log.c ****         {
 270              		.loc 1 274 58 is_stmt 0 discriminator 3 view .LVU80
 271 0180 0133     		adds	r3, r3, #1
 272              	.LVL11:
 274:Task/Task_Log.c ****         {
 273              		.loc 1 274 58 discriminator 3 view .LVU81
 274 0182 DBB2     		uxtb	r3, r3
 275              	.LVL12:
 276              	.L7:
 274:Task/Task_Log.c ****         {
 277              		.loc 1 274 36 is_stmt 1 discriminator 1 view .LVU82
 274:Task/Task_Log.c ****         {
 278              		.loc 1 274 9 is_stmt 0 discriminator 1 view .LVU83
 279 0184 022B     		cmp	r3, #2
 280 0186 B6D9     		bls	.L8
 281              	.LBE15:
 282              	.LBB16:
 281:Task/Task_Log.c ****         }
 282:Task/Task_Log.c **** 
ARM GAS  /var/folders/8_/_8bzxkcs1296m80nzxdrn9q80000gn/T//ccynjOqG.s 			page 11


 283:Task/Task_Log.c ****         for(uint8_t i = 0; i < sizeof(LogIMUDataUnion_TypeDef) - sizeof(uint8_t); i++)
 283              		.loc 1 283 21 view .LVU84
 284 0188 0023     		movs	r3, #0
 285              	.LVL13:
 286              		.loc 1 283 21 view .LVU85
 287 018a 0BE0     		b	.L9
 288              	.LVL14:
 289              	.L10:
 284:Task/Task_Log.c ****         {
 285:Task/Task_Log.c ****             Log_Buf.data.check_sum += Log_Buf.buff[i];
 290              		.loc 1 285 13 is_stmt 1 discriminator 3 view .LVU86
 291              		.loc 1 285 51 is_stmt 0 discriminator 3 view .LVU87
 292 018c 03F15002 		add	r2, r3, #80
 293 0190 6A44     		add	r2, sp, r2
 294 0192 12F8482C 		ldrb	r2, [r2, #-72]	@ zero_extendqisi2
 295              		.loc 1 285 36 discriminator 3 view .LVU88
 296 0196 9DF84F10 		ldrb	r1, [sp, #79]	@ zero_extendqisi2
 297 019a 0A44     		add	r2, r2, r1
 298 019c 8DF84F20 		strb	r2, [sp, #79]
 283:Task/Task_Log.c ****         {
 299              		.loc 1 283 83 is_stmt 1 discriminator 3 view .LVU89
 283:Task/Task_Log.c ****         {
 300              		.loc 1 283 84 is_stmt 0 discriminator 3 view .LVU90
 301 01a0 0133     		adds	r3, r3, #1
 302              	.LVL15:
 283:Task/Task_Log.c ****         {
 303              		.loc 1 283 84 discriminator 3 view .LVU91
 304 01a2 DBB2     		uxtb	r3, r3
 305              	.LVL16:
 306              	.L9:
 283:Task/Task_Log.c ****         {
 307              		.loc 1 283 28 is_stmt 1 discriminator 1 view .LVU92
 283:Task/Task_Log.c ****         {
 308              		.loc 1 283 9 is_stmt 0 discriminator 1 view .LVU93
 309 01a4 462B     		cmp	r3, #70
 310 01a6 F1D9     		bls	.L10
 311              	.LBE16:
 286:Task/Task_Log.c ****         }
 287:Task/Task_Log.c **** 
 288:Task/Task_Log.c ****         if ((Queue.state(IMUData_Queue) == Queue_ok) ||
 312              		.loc 1 288 9 is_stmt 1 view .LVU94
 313              		.loc 1 288 19 is_stmt 0 view .LVU95
 314 01a8 364B     		ldr	r3, .L21+24
 315              	.LVL17:
 316              		.loc 1 288 19 view .LVU96
 317 01aa 1C6A     		ldr	r4, [r3, #32]
 318              		.loc 1 288 14 view .LVU97
 319 01ac 364B     		ldr	r3, .L21+28
 320 01ae 1A7C     		ldrb	r2, [r3, #16]	@ zero_extendqisi2
 321 01b0 8DF80020 		strb	r2, [sp]
 322 01b4 0FCB     		ldm	r3, {r0, r1, r2, r3}
 323 01b6 A047     		blx	r4
 324              	.LVL18:
 325              		.loc 1 288 12 view .LVU98
 326 01b8 78B1     		cbz	r0, .L11
 289:Task/Task_Log.c ****             (Queue.state(IMUData_Queue) == Queue_empty))
 327              		.loc 1 289 19 discriminator 1 view .LVU99
ARM GAS  /var/folders/8_/_8bzxkcs1296m80nzxdrn9q80000gn/T//ccynjOqG.s 			page 12


 328 01ba 324B     		ldr	r3, .L21+24
 329 01bc 1C6A     		ldr	r4, [r3, #32]
 330              		.loc 1 289 14 discriminator 1 view .LVU100
 331 01be 324B     		ldr	r3, .L21+28
 332 01c0 1A7C     		ldrb	r2, [r3, #16]	@ zero_extendqisi2
 333 01c2 8DF80020 		strb	r2, [sp]
 334 01c6 0FCB     		ldm	r3, {r0, r1, r2, r3}
 335 01c8 A047     		blx	r4
 336              	.LVL19:
 288:Task/Task_Log.c ****             (Queue.state(IMUData_Queue) == Queue_empty))
 337              		.loc 1 288 54 discriminator 1 view .LVU101
 338 01ca 0328     		cmp	r0, #3
 339 01cc 05D0     		beq	.L11
 290:Task/Task_Log.c ****         {
 291:Task/Task_Log.c ****             if((Queue.push(&IMUData_Queue, &LogIMU_Header, LOG_HEADER_SIZE) == Queue_ok) &&
 292:Task/Task_Log.c ****                (Queue.push(&IMUData_Queue, Log_Buf.buff, sizeof(Log_Buf)) == Queue_ok))
 293:Task/Task_Log.c ****             {
 294:Task/Task_Log.c ****                 if(LogIMU_Summary.start_rt == 0)
 295:Task/Task_Log.c ****                     LogIMU_Summary.start_rt = ((SrvIMU_UnionData_TypeDef *)(IMU_Log_DataPipe.data_a
 296:Task/Task_Log.c **** 
 297:Task/Task_Log.c ****                 LogIMU_Summary.push_cnt ++;
 298:Task/Task_Log.c **** 
 299:Task/Task_Log.c ****                 imu_pipe_rt_diff = ((SrvIMU_UnionData_TypeDef *)(IMU_Log_DataPipe.data_addr))->data
 300:Task/Task_Log.c **** 
 301:Task/Task_Log.c ****                 if(imu_pipe_rt_diff > LogIMU_Summary.period)
 302:Task/Task_Log.c ****                 {
 303:Task/Task_Log.c ****                     if(imu_pipe_rt_diff > LogIMU_Summary.max_rt_diff)
 304:Task/Task_Log.c ****                         LogIMU_Summary.max_rt_diff = imu_pipe_rt_diff;
 305:Task/Task_Log.c **** 
 306:Task/Task_Log.c ****                     LogIMU_Summary.err_interval_cnt ++;
 307:Task/Task_Log.c ****                 }
 308:Task/Task_Log.c **** 
 309:Task/Task_Log.c ****                 LogIMU_Summary.end_rt = ((SrvIMU_UnionData_TypeDef *)(IMU_Log_DataPipe.data_addr))-
 310:Task/Task_Log.c ****                 lst_imu_pipe_rt = ((SrvIMU_UnionData_TypeDef *)(IMU_Log_DataPipe.data_addr))->data.
 311:Task/Task_Log.c ****             }
 312:Task/Task_Log.c ****         }
 313:Task/Task_Log.c ****         else
 314:Task/Task_Log.c ****         {
 315:Task/Task_Log.c ****             Log_Statistics.queue_push_err_cnt++;
 340              		.loc 1 315 13 is_stmt 1 view .LVU102
 341              		.loc 1 315 27 is_stmt 0 view .LVU103
 342 01ce 2F4A     		ldr	r2, .L21+32
 343 01d0 1368     		ldr	r3, [r2]
 344              		.loc 1 315 46 view .LVU104
 345 01d2 0133     		adds	r3, r3, #1
 346 01d4 1360     		str	r3, [r2]
 347              	.LVL20:
 348              	.L1:
 316:Task/Task_Log.c ****         }
 317:Task/Task_Log.c ****     }
 318:Task/Task_Log.c **** }
 349              		.loc 1 318 1 view .LVU105
 350 01d6 15B0     		add	sp, sp, #84
 351              	.LCFI2:
 352              		.cfi_remember_state
 353              		.cfi_def_cfa_offset 20
 354              		@ sp needed
ARM GAS  /var/folders/8_/_8bzxkcs1296m80nzxdrn9q80000gn/T//ccynjOqG.s 			page 13


 355 01d8 F0BD     		pop	{r4, r5, r6, r7, pc}
 356              	.LVL21:
 357              	.L11:
 358              	.LCFI3:
 359              		.cfi_restore_state
 291:Task/Task_Log.c ****                (Queue.push(&IMUData_Queue, Log_Buf.buff, sizeof(Log_Buf)) == Queue_ok))
 360              		.loc 1 291 13 is_stmt 1 view .LVU106
 291:Task/Task_Log.c ****                (Queue.push(&IMUData_Queue, Log_Buf.buff, sizeof(Log_Buf)) == Queue_ok))
 361              		.loc 1 291 22 is_stmt 0 view .LVU107
 362 01da 2A4B     		ldr	r3, .L21+24
 363 01dc 9B69     		ldr	r3, [r3, #24]
 291:Task/Task_Log.c ****                (Queue.push(&IMUData_Queue, Log_Buf.buff, sizeof(Log_Buf)) == Queue_ok))
 364              		.loc 1 291 17 view .LVU108
 365 01de 0322     		movs	r2, #3
 366 01e0 3049     		ldr	r1, .L21+56
 367 01e2 2948     		ldr	r0, .L21+28
 368 01e4 9847     		blx	r3
 369              	.LVL22:
 291:Task/Task_Log.c ****                (Queue.push(&IMUData_Queue, Log_Buf.buff, sizeof(Log_Buf)) == Queue_ok))
 370              		.loc 1 291 15 view .LVU109
 371 01e6 0028     		cmp	r0, #0
 372 01e8 F5D1     		bne	.L1
 292:Task/Task_Log.c ****             {
 373              		.loc 1 292 22 discriminator 1 view .LVU110
 374 01ea 264B     		ldr	r3, .L21+24
 375 01ec 9B69     		ldr	r3, [r3, #24]
 292:Task/Task_Log.c ****             {
 376              		.loc 1 292 17 discriminator 1 view .LVU111
 377 01ee 4822     		movs	r2, #72
 378 01f0 02A9     		add	r1, sp, #8
 379 01f2 2548     		ldr	r0, .L21+28
 380 01f4 9847     		blx	r3
 381              	.LVL23:
 291:Task/Task_Log.c ****                (Queue.push(&IMUData_Queue, Log_Buf.buff, sizeof(Log_Buf)) == Queue_ok))
 382              		.loc 1 291 90 discriminator 1 view .LVU112
 383 01f6 0028     		cmp	r0, #0
 384 01f8 EDD1     		bne	.L1
 294:Task/Task_Log.c ****                     LogIMU_Summary.start_rt = ((SrvIMU_UnionData_TypeDef *)(IMU_Log_DataPipe.data_a
 385              		.loc 1 294 17 is_stmt 1 view .LVU113
 294:Task/Task_Log.c ****                     LogIMU_Summary.start_rt = ((SrvIMU_UnionData_TypeDef *)(IMU_Log_DataPipe.data_a
 386              		.loc 1 294 34 is_stmt 0 view .LVU114
 387 01fa 2B4B     		ldr	r3, .L21+60
 388 01fc 1A69     		ldr	r2, [r3, #16]
 389 01fe 5B69     		ldr	r3, [r3, #20]
 294:Task/Task_Log.c ****                     LogIMU_Summary.start_rt = ((SrvIMU_UnionData_TypeDef *)(IMU_Log_DataPipe.data_a
 390              		.loc 1 294 19 view .LVU115
 391 0200 1343     		orrs	r3, r2, r3
 392 0202 07D1     		bne	.L13
 295:Task/Task_Log.c **** 
 393              		.loc 1 295 21 is_stmt 1 view .LVU116
 295:Task/Task_Log.c **** 
 394              		.loc 1 295 93 is_stmt 0 view .LVU117
 395 0204 1B4B     		ldr	r3, .L21+8
 396 0206 D3F81130 		ldr	r3, [r3, #17]	@ unaligned
 295:Task/Task_Log.c **** 
 397              		.loc 1 295 111 view .LVU118
 398 020a 1968     		ldr	r1, [r3]	@ unaligned
ARM GAS  /var/folders/8_/_8bzxkcs1296m80nzxdrn9q80000gn/T//ccynjOqG.s 			page 14


 399 020c 5A68     		ldr	r2, [r3, #4]	@ unaligned
 295:Task/Task_Log.c **** 
 400              		.loc 1 295 45 view .LVU119
 401 020e 264B     		ldr	r3, .L21+60
 402 0210 1961     		str	r1, [r3, #16]
 403 0212 5A61     		str	r2, [r3, #20]
 404              	.L13:
 297:Task/Task_Log.c **** 
 405              		.loc 1 297 17 is_stmt 1 view .LVU120
 297:Task/Task_Log.c **** 
 406              		.loc 1 297 31 is_stmt 0 view .LVU121
 407 0214 244B     		ldr	r3, .L21+60
 408 0216 9A6A     		ldr	r2, [r3, #40]
 409 0218 D96A     		ldr	r1, [r3, #44]
 297:Task/Task_Log.c **** 
 410              		.loc 1 297 41 view .LVU122
 411 021a 0132     		adds	r2, r2, #1
 412 021c 41F10001 		adc	r1, r1, #0
 413 0220 9A62     		str	r2, [r3, #40]
 414 0222 D962     		str	r1, [r3, #44]
 299:Task/Task_Log.c **** 
 415              		.loc 1 299 17 is_stmt 1 view .LVU123
 299:Task/Task_Log.c **** 
 416              		.loc 1 299 82 is_stmt 0 view .LVU124
 417 0224 134A     		ldr	r2, .L21+8
 418 0226 D2F81120 		ldr	r2, [r2, #17]	@ unaligned
 299:Task/Task_Log.c **** 
 419              		.loc 1 299 100 view .LVU125
 420 022a 1168     		ldr	r1, [r2]	@ unaligned
 421 022c 5468     		ldr	r4, [r2, #4]	@ unaligned
 299:Task/Task_Log.c **** 
 422              		.loc 1 299 112 view .LVU126
 423 022e 1F48     		ldr	r0, .L21+64
 424 0230 0268     		ldr	r2, [r0]
 425 0232 4068     		ldr	r0, [r0, #4]
 299:Task/Task_Log.c **** 
 426              		.loc 1 299 34 view .LVU127
 427 0234 8A1A     		subs	r2, r1, r2
 428 0236 64EB0000 		sbc	r0, r4, r0
 429              	.LVL24:
 301:Task/Task_Log.c ****                 {
 430              		.loc 1 301 17 is_stmt 1 view .LVU128
 301:Task/Task_Log.c ****                 {
 431              		.loc 1 301 53 is_stmt 0 view .LVU129
 432 023a 9D68     		ldr	r5, [r3, #8]
 433 023c DB68     		ldr	r3, [r3, #12]
 301:Task/Task_Log.c ****                 {
 434              		.loc 1 301 19 view .LVU130
 435 023e 9542     		cmp	r5, r2
 436 0240 8341     		sbcs	r3, r3, r0
 437 0242 0CD2     		bcs	.L14
 303:Task/Task_Log.c ****                         LogIMU_Summary.max_rt_diff = imu_pipe_rt_diff;
 438              		.loc 1 303 21 is_stmt 1 view .LVU131
 303:Task/Task_Log.c ****                         LogIMU_Summary.max_rt_diff = imu_pipe_rt_diff;
 439              		.loc 1 303 57 is_stmt 0 view .LVU132
 440 0244 184B     		ldr	r3, .L21+60
 441 0246 1D68     		ldr	r5, [r3]
ARM GAS  /var/folders/8_/_8bzxkcs1296m80nzxdrn9q80000gn/T//ccynjOqG.s 			page 15


 442 0248 5B68     		ldr	r3, [r3, #4]
 303:Task/Task_Log.c ****                         LogIMU_Summary.max_rt_diff = imu_pipe_rt_diff;
 443              		.loc 1 303 23 view .LVU133
 444 024a 9542     		cmp	r5, r2
 445 024c 8341     		sbcs	r3, r3, r0
 446 024e 02D2     		bcs	.L15
 304:Task/Task_Log.c **** 
 447              		.loc 1 304 25 is_stmt 1 view .LVU134
 304:Task/Task_Log.c **** 
 448              		.loc 1 304 52 is_stmt 0 view .LVU135
 449 0250 154B     		ldr	r3, .L21+60
 450 0252 1A60     		str	r2, [r3]
 451 0254 5860     		str	r0, [r3, #4]
 452              	.L15:
 306:Task/Task_Log.c ****                 }
 453              		.loc 1 306 21 is_stmt 1 view .LVU136
 306:Task/Task_Log.c ****                 }
 454              		.loc 1 306 35 is_stmt 0 view .LVU137
 455 0256 144A     		ldr	r2, .L21+60
 456              	.LVL25:
 306:Task/Task_Log.c ****                 }
 457              		.loc 1 306 35 view .LVU138
 458 0258 136A     		ldr	r3, [r2, #32]
 306:Task/Task_Log.c ****                 }
 459              		.loc 1 306 53 view .LVU139
 460 025a 0133     		adds	r3, r3, #1
 461 025c 1362     		str	r3, [r2, #32]
 462              	.L14:
 309:Task/Task_Log.c ****                 lst_imu_pipe_rt = ((SrvIMU_UnionData_TypeDef *)(IMU_Log_DataPipe.data_addr))->data.
 463              		.loc 1 309 17 is_stmt 1 view .LVU140
 309:Task/Task_Log.c ****                 lst_imu_pipe_rt = ((SrvIMU_UnionData_TypeDef *)(IMU_Log_DataPipe.data_addr))->data.
 464              		.loc 1 309 39 is_stmt 0 view .LVU141
 465 025e 124B     		ldr	r3, .L21+60
 466 0260 9961     		str	r1, [r3, #24]
 467 0262 DC61     		str	r4, [r3, #28]
 310:Task/Task_Log.c ****             }
 468              		.loc 1 310 17 is_stmt 1 view .LVU142
 310:Task/Task_Log.c ****             }
 469              		.loc 1 310 33 is_stmt 0 view .LVU143
 470 0264 114B     		ldr	r3, .L21+64
 471 0266 1960     		str	r1, [r3]
 472              	.LVL26:
 310:Task/Task_Log.c ****             }
 473              		.loc 1 310 33 view .LVU144
 474 0268 5C60     		str	r4, [r3, #4]
 475 026a B4E7     		b	.L1
 476              	.L22:
 477              		.align	2
 478              	.L21:
 479 026c 00000000 		.word	.LANCHOR0
 480 0270 00000000 		.word	.LANCHOR1
 481 0274 00000000 		.word	IMU_Log_DataPipe
 482 0278 00000000 		.word	.LANCHOR2
 483 027c 00000000 		.word	.LANCHOR3
 484 0280 00000000 		.word	.LANCHOR4
 485 0284 00000000 		.word	Queue
 486 0288 00000000 		.word	.LANCHOR5
ARM GAS  /var/folders/8_/_8bzxkcs1296m80nzxdrn9q80000gn/T//ccynjOqG.s 			page 16


 487 028c 00000000 		.word	.LANCHOR6
 488 0290 00000000 		.word	.LANCHOR7
 489 0294 B5814E1B 		.word	458129845
 490 0298 00000000 		.word	.LANCHOR8
 491 029c 00000000 		.word	.LANCHOR9
 492 02a0 00000000 		.word	.LANCHOR10
 493 02a4 00000000 		.word	.LANCHOR11
 494 02a8 00000000 		.word	.LANCHOR12
 495 02ac 00000000 		.word	.LANCHOR13
 496              		.cfi_endproc
 497              	.LFE153:
 499              		.section	.rodata.TaskLog_Init.str1.4,"aMS",%progbits,1
 500              		.align	2
 501              	.LC0:
 502 0000 6C6F672F 		.ascii	"log/\000"
 502      00
 503 0005 000000   		.align	2
 504              	.LC1:
 505 0008 696D752E 		.ascii	"imu.log\000"
 505      6C6F6700 
 506              		.align	2
 507              	.LC2:
 508 0010 71756575 		.ascii	"queue imu data\000"
 508      6520696D 
 508      75206461 
 508      746100
 509              		.section	.text.TaskLog_Init,"ax",%progbits
 510              		.align	1
 511              		.global	TaskLog_Init
 512              		.syntax unified
 513              		.thumb
 514              		.thumb_func
 515              		.fpu fpv5-d16
 517              	TaskLog_Init:
 518              	.LFB151:
  99:Task/Task_Log.c ****     Os_Idle_DataStream_TypeDef LogData_Stream;
 519              		.loc 1 99 1 is_stmt 1 view -0
 520              		.cfi_startproc
 521              		@ args = 0, pretend = 0, frame = 112
 522              		@ frame_needed = 0, uses_anonymous_args = 0
 523 0000 2DE9F041 		push	{r4, r5, r6, r7, r8, lr}
 524              	.LCFI4:
 525              		.cfi_def_cfa_offset 24
 526              		.cfi_offset 4, -24
 527              		.cfi_offset 5, -20
 528              		.cfi_offset 6, -16
 529              		.cfi_offset 7, -12
 530              		.cfi_offset 8, -8
 531              		.cfi_offset 14, -4
 532 0004 A2B0     		sub	sp, sp, #136
 533              	.LCFI5:
 534              		.cfi_def_cfa_offset 160
 100:Task/Task_Log.c **** 
 535              		.loc 1 100 5 view .LVU146
 102:Task/Task_Log.c ****     memset(&IMU_Log_DataPipe, NULL, sizeof(IMU_Log_DataPipe));
 536              		.loc 1 102 5 view .LVU147
 537 0006 4A4B     		ldr	r3, .L28
ARM GAS  /var/folders/8_/_8bzxkcs1296m80nzxdrn9q80000gn/T//ccynjOqG.s 			page 17


 538 0008 0024     		movs	r4, #0
 539 000a 1C60     		str	r4, [r3]
 540 000c 5C60     		str	r4, [r3, #4]
 541 000e 9C60     		str	r4, [r3, #8]
 542 0010 DC60     		str	r4, [r3, #12]
 543 0012 1C61     		str	r4, [r3, #16]
 544 0014 1C75     		strb	r4, [r3, #20]
 103:Task/Task_Log.c ****     memset(&LogFile_Obj, NULL, sizeof(LogFile_Obj));
 545              		.loc 1 103 5 view .LVU148
 546 0016 474D     		ldr	r5, .L28+4
 547 0018 2B22     		movs	r2, #43
 548 001a 2146     		mov	r1, r4
 549 001c 2846     		mov	r0, r5
 550 001e FFF7FEFF 		bl	memset
 551              	.LVL27:
 104:Task/Task_Log.c ****     memset(&FATFS_Obj, NULL, sizeof(FATFS_Obj));
 552              		.loc 1 104 5 view .LVU149
 553 0022 6622     		movs	r2, #102
 554 0024 2146     		mov	r1, r4
 555 0026 4448     		ldr	r0, .L28+8
 556 0028 FFF7FEFF 		bl	memset
 557              	.LVL28:
 105:Task/Task_Log.c **** 
 558              		.loc 1 105 5 view .LVU150
 559 002c 434E     		ldr	r6, .L28+12
 560 002e C822     		movs	r2, #200
 561 0030 2146     		mov	r1, r4
 562 0032 3046     		mov	r0, r6
 563 0034 FFF7FEFF 		bl	memset
 564              	.LVL29:
 107:Task/Task_Log.c ****     IMU_Log_DataPipe.data_size = sizeof(LogIMU_Data);
 565              		.loc 1 107 5 view .LVU151
 107:Task/Task_Log.c ****     IMU_Log_DataPipe.data_size = sizeof(LogIMU_Data);
 566              		.loc 1 107 34 is_stmt 0 view .LVU152
 567 0038 414B     		ldr	r3, .L28+16
 107:Task/Task_Log.c ****     IMU_Log_DataPipe.data_size = sizeof(LogIMU_Data);
 568              		.loc 1 107 32 view .LVU153
 569 003a C5F81130 		str	r3, [r5, #17]	@ unaligned
 108:Task/Task_Log.c ****     IMU_Log_DataPipe.trans_finish_cb = TaskLog_PipeTransFinish_Callback;
 570              		.loc 1 108 5 is_stmt 1 view .LVU154
 108:Task/Task_Log.c ****     IMU_Log_DataPipe.trans_finish_cb = TaskLog_PipeTransFinish_Callback;
 571              		.loc 1 108 32 is_stmt 0 view .LVU155
 572 003e 4F23     		movs	r3, #79
 573 0040 6B75     		strb	r3, [r5, #21]
 574 0042 AC75     		strb	r4, [r5, #22]
 109:Task/Task_Log.c **** 
 575              		.loc 1 109 5 is_stmt 1 view .LVU156
 109:Task/Task_Log.c **** 
 576              		.loc 1 109 38 is_stmt 0 view .LVU157
 577 0044 3F4B     		ldr	r3, .L28+20
 578 0046 C5F81730 		str	r3, [r5, #23]	@ unaligned
 111:Task/Task_Log.c ****     LogObj_Logging_Reg.reg_val = 0;
 579              		.loc 1 111 5 is_stmt 1 view .LVU158
 111:Task/Task_Log.c ****     LogObj_Logging_Reg.reg_val = 0;
 580              		.loc 1 111 28 is_stmt 0 view .LVU159
 581 004a 3F4B     		ldr	r3, .L28+24
 582 004c 1C80     		strh	r4, [r3]	@ movhi
ARM GAS  /var/folders/8_/_8bzxkcs1296m80nzxdrn9q80000gn/T//ccynjOqG.s 			page 18


 112:Task/Task_Log.c **** 
 583              		.loc 1 112 5 is_stmt 1 view .LVU160
 112:Task/Task_Log.c **** 
 584              		.loc 1 112 32 is_stmt 0 view .LVU161
 585 004e 3F4B     		ldr	r3, .L28+28
 586 0050 1C80     		strh	r4, [r3]	@ movhi
 115:Task/Task_Log.c ****     {
 587              		.loc 1 115 5 is_stmt 1 view .LVU162
 115:Task/Task_Log.c ****     {
 588              		.loc 1 115 13 is_stmt 0 view .LVU163
 589 0052 3F4B     		ldr	r3, .L28+32
 590 0054 1B68     		ldr	r3, [r3]
 115:Task/Task_Log.c ****     {
 591              		.loc 1 115 9 view .LVU164
 592 0056 3F49     		ldr	r1, .L28+36
 593 0058 3046     		mov	r0, r6
 594 005a 9847     		blx	r3
 595              	.LVL30:
 115:Task/Task_Log.c ****     {
 596              		.loc 1 115 8 view .LVU165
 597 005c 0028     		cmp	r0, #0
 598 005e 5CD0     		beq	.L24
 117:Task/Task_Log.c **** 
 599              		.loc 1 117 9 is_stmt 1 view .LVU166
 117:Task/Task_Log.c **** 
 600              		.loc 1 117 33 is_stmt 0 view .LVU167
 601 0060 3B4B     		ldr	r3, .L28+32
 602 0062 5B68     		ldr	r3, [r3, #4]
 117:Task/Task_Log.c **** 
 603              		.loc 1 117 29 view .LVU168
 604 0064 0222     		movs	r2, #2
 605 0066 3C49     		ldr	r1, .L28+40
 606 0068 3046     		mov	r0, r6
 607 006a 9847     		blx	r3
 608              	.LVL31:
 609 006c 0346     		mov	r3, r0
 117:Task/Task_Log.c **** 
 610              		.loc 1 117 27 view .LVU169
 611 006e 3B4A     		ldr	r2, .L28+44
 612 0070 1060     		str	r0, [r2]
 119:Task/Task_Log.c ****         {
 613              		.loc 1 119 9 is_stmt 1 view .LVU170
 119:Task/Task_Log.c ****         {
 614              		.loc 1 119 11 is_stmt 0 view .LVU171
 615 0072 0028     		cmp	r0, #0
 616 0074 41D0     		beq	.L25
 121:Task/Task_Log.c ****             Disk.open(&FATFS_Obj, LOG_FOLDER, IMU_LOG_FILE, &LogFile_Obj);
 617              		.loc 1 121 13 is_stmt 1 view .LVU172
 121:Task/Task_Log.c ****             Disk.open(&FATFS_Obj, LOG_FOLDER, IMU_LOG_FILE, &LogFile_Obj);
 618              		.loc 1 121 31 is_stmt 0 view .LVU173
 619 0076 364E     		ldr	r6, .L28+32
 121:Task/Task_Log.c ****             Disk.open(&FATFS_Obj, LOG_FOLDER, IMU_LOG_FILE, &LogFile_Obj);
 620              		.loc 1 121 27 view .LVU174
 621 0078 2F4F     		ldr	r7, .L28+8
 622 007a 394D     		ldr	r5, .L28+48
 623 007c DFF8BC80 		ldr	r8, .L28+12
 624 0080 4FF40012 		mov	r2, #2097152
ARM GAS  /var/folders/8_/_8bzxkcs1296m80nzxdrn9q80000gn/T//ccynjOqG.s 			page 19


 625 0084 0092     		str	r2, [sp]
 626 0086 2A46     		mov	r2, r5
 627 0088 4146     		mov	r1, r8
 628 008a 06A8     		add	r0, sp, #24
 629 008c B468     		ldr	r4, [r6, #8]
 630 008e A047     		blx	r4
 631              	.LVL32:
 632 0090 6622     		movs	r2, #102
 633 0092 06A9     		add	r1, sp, #24
 634 0094 3846     		mov	r0, r7
 635 0096 FFF7FEFF 		bl	memcpy
 636              	.LVL33:
 122:Task/Task_Log.c **** 
 637              		.loc 1 122 13 is_stmt 1 view .LVU175
 122:Task/Task_Log.c **** 
 638              		.loc 1 122 17 is_stmt 0 view .LVU176
 639 009a F668     		ldr	r6, [r6, #12]
 122:Task/Task_Log.c **** 
 640              		.loc 1 122 13 view .LVU177
 641 009c 3B46     		mov	r3, r7
 642 009e 2A46     		mov	r2, r5
 643 00a0 2D49     		ldr	r1, .L28+40
 644 00a2 4046     		mov	r0, r8
 645 00a4 B047     		blx	r6
 646              	.LVL34:
 125:Task/Task_Log.c ****             {
 647              		.loc 1 125 13 is_stmt 1 view .LVU178
 125:Task/Task_Log.c ****             {
 648              		.loc 1 125 22 is_stmt 0 view .LVU179
 649 00a6 2F4B     		ldr	r3, .L28+52
 650 00a8 DC68     		ldr	r4, [r3, #12]
 125:Task/Task_Log.c ****             {
 651              		.loc 1 125 17 view .LVU180
 652 00aa 4FF44063 		mov	r3, #3072
 653 00ae 2E4A     		ldr	r2, .L28+56
 654 00b0 2E49     		ldr	r1, .L28+60
 655 00b2 2F48     		ldr	r0, .L28+64
 656 00b4 A047     		blx	r4
 657              	.LVL35:
 125:Task/Task_Log.c ****             {
 658              		.loc 1 125 16 view .LVU181
 659 00b6 0028     		cmp	r0, #0
 660 00b8 32D0     		beq	.L26
 127:Task/Task_Log.c ****                 LogObj_Enable_Reg._sec.IMU_Sec = true;
 661              		.loc 1 127 17 is_stmt 1 view .LVU182
 127:Task/Task_Log.c ****                 LogObj_Enable_Reg._sec.IMU_Sec = true;
 662              		.loc 1 127 31 is_stmt 0 view .LVU183
 663 00ba 0122     		movs	r2, #1
 664 00bc 2D4B     		ldr	r3, .L28+68
 665 00be 1A70     		strb	r2, [r3]
 128:Task/Task_Log.c ****                 LogObj_Set_Reg._sec.IMU_Sec = true;
 666              		.loc 1 128 17 is_stmt 1 view .LVU184
 128:Task/Task_Log.c ****                 LogObj_Set_Reg._sec.IMU_Sec = true;
 667              		.loc 1 128 48 is_stmt 0 view .LVU185
 668 00c0 2D49     		ldr	r1, .L28+72
 669 00c2 0B78     		ldrb	r3, [r1]	@ zero_extendqisi2
 670 00c4 1343     		orrs	r3, r3, r2
ARM GAS  /var/folders/8_/_8bzxkcs1296m80nzxdrn9q80000gn/T//ccynjOqG.s 			page 20


 671 00c6 0B70     		strb	r3, [r1]
 129:Task/Task_Log.c ****             
 672              		.loc 1 129 17 is_stmt 1 view .LVU186
 129:Task/Task_Log.c ****             
 673              		.loc 1 129 45 is_stmt 0 view .LVU187
 674 00c8 1F49     		ldr	r1, .L28+24
 675 00ca 0B78     		ldrb	r3, [r1]	@ zero_extendqisi2
 676 00cc 1343     		orrs	r3, r3, r2
 677 00ce 0B70     		strb	r3, [r1]
 131:Task/Task_Log.c **** 
 678              		.loc 1 131 17 is_stmt 1 view .LVU188
 679              	.LVL36:
 680              	.LBB17:
 681              	.LBI17:
 682              		.file 2 "System/DataPipe/DataPipe.h"
   1:System/DataPipe/DataPipe.h **** #ifndef __DATAPIPE_H
   2:System/DataPipe/DataPipe.h **** #define __DATAPIPE_H
   3:System/DataPipe/DataPipe.h **** 
   4:System/DataPipe/DataPipe.h **** #include <stdint.h>
   5:System/DataPipe/DataPipe.h **** #include <string.h>
   6:System/DataPipe/DataPipe.h **** #include <stdbool.h>
   7:System/DataPipe/DataPipe.h **** 
   8:System/DataPipe/DataPipe.h **** typedef void (*Pipe_TransFinish_Callback)(void *pipe_obj);
   9:System/DataPipe/DataPipe.h **** typedef void (*Pipe_TransError_Callback)(void *pipe_obj);
  10:System/DataPipe/DataPipe.h **** typedef void (*Pipe_TimeOutProc_Callback)(void *pipe_obj);
  11:System/DataPipe/DataPipe.h **** 
  12:System/DataPipe/DataPipe.h **** #define DataPipeHandleToObj(x) ((DataPipeObj_TypeDef *)x)
  13:System/DataPipe/DataPipe.h **** #define DataPipe_CreateDataObj(type, name) static type name##_##PipeDataObj __attribute__((section(
  14:System/DataPipe/DataPipe.h **** #define DataPipe_DataObjAddr(name) (&name##_##PipeDataObj)
  15:System/DataPipe/DataPipe.h **** #define DataPipe_DataObj(name) name##_##PipeDataObj
  16:System/DataPipe/DataPipe.h **** #define DataPipe_DataSize(name) sizeof(name##_##PipeDataObj)
  17:System/DataPipe/DataPipe.h **** 
  18:System/DataPipe/DataPipe.h **** typedef enum
  19:System/DataPipe/DataPipe.h **** {
  20:System/DataPipe/DataPipe.h ****     Pipe_UnReady = 0,
  21:System/DataPipe/DataPipe.h ****     Pipe_Ready,
  22:System/DataPipe/DataPipe.h ****     Pipe_Busy,
  23:System/DataPipe/DataPipe.h ****     Pipe_Error,
  24:System/DataPipe/DataPipe.h **** } DataPipe_State_List;
  25:System/DataPipe/DataPipe.h **** 
  26:System/DataPipe/DataPipe.h **** #pragma pack(1)
  27:System/DataPipe/DataPipe.h **** typedef struct
  28:System/DataPipe/DataPipe.h **** {
  29:System/DataPipe/DataPipe.h ****     uint32_t min_rx_interval;
  30:System/DataPipe/DataPipe.h ****     uint32_t detect_interval;
  31:System/DataPipe/DataPipe.h ****     uint64_t rx_us_rt;
  32:System/DataPipe/DataPipe.h **** 
  33:System/DataPipe/DataPipe.h ****     bool enable;
  34:System/DataPipe/DataPipe.h **** 
  35:System/DataPipe/DataPipe.h ****     uint32_t data_addr;
  36:System/DataPipe/DataPipe.h ****     uint16_t data_size;
  37:System/DataPipe/DataPipe.h **** 
  38:System/DataPipe/DataPipe.h ****     Pipe_TransFinish_Callback trans_finish_cb;
  39:System/DataPipe/DataPipe.h ****     Pipe_TransError_Callback trans_error_cb;
  40:System/DataPipe/DataPipe.h **** 
  41:System/DataPipe/DataPipe.h ****     uint32_t tx_cnt;
  42:System/DataPipe/DataPipe.h ****     uint32_t rx_cnt;
ARM GAS  /var/folders/8_/_8bzxkcs1296m80nzxdrn9q80000gn/T//ccynjOqG.s 			page 21


  43:System/DataPipe/DataPipe.h ****     uint32_t er_cnt;
  44:System/DataPipe/DataPipe.h **** } DataPipeObj_TypeDef;
  45:System/DataPipe/DataPipe.h **** #pragma pack()
  46:System/DataPipe/DataPipe.h **** 
  47:System/DataPipe/DataPipe.h **** typedef struct
  48:System/DataPipe/DataPipe.h **** {
  49:System/DataPipe/DataPipe.h ****     DataPipeObj_TypeDef *org;
  50:System/DataPipe/DataPipe.h ****     DataPipeObj_TypeDef *dst;
  51:System/DataPipe/DataPipe.h **** } Data_PlugedPipeObj_TypeDef;
  52:System/DataPipe/DataPipe.h **** 
  53:System/DataPipe/DataPipe.h **** bool DataPipe_Init(void);
  54:System/DataPipe/DataPipe.h **** bool DataPipe_SendTo(DataPipeObj_TypeDef *p_org, DataPipeObj_TypeDef *p_dst);
  55:System/DataPipe/DataPipe.h **** bool DataPipe_DealError(void);
  56:System/DataPipe/DataPipe.h **** 
  57:System/DataPipe/DataPipe.h **** inline bool DataPipe_Enable(DataPipeObj_TypeDef *obj)
 683              		.loc 2 57 13 view .LVU189
 684              	.LBB18:
  58:System/DataPipe/DataPipe.h **** {
  59:System/DataPipe/DataPipe.h ****     if (obj == NULL)
 685              		.loc 2 59 5 view .LVU190
  60:System/DataPipe/DataPipe.h ****         return false;
  61:System/DataPipe/DataPipe.h **** 
  62:System/DataPipe/DataPipe.h ****     obj->enable = true;
 686              		.loc 2 62 5 view .LVU191
 687              		.loc 2 62 17 is_stmt 0 view .LVU192
 688 00d0 184B     		ldr	r3, .L28+4
 689 00d2 1A74     		strb	r2, [r3, #16]
  63:System/DataPipe/DataPipe.h **** 
  64:System/DataPipe/DataPipe.h ****     return true;
 690              		.loc 2 64 5 is_stmt 1 view .LVU193
 691              	.LVL37:
 692              		.loc 2 64 5 is_stmt 0 view .LVU194
 693              	.LBE18:
 694              	.LBE17:
 133:Task/Task_Log.c ****                     enable_compess = false;
 695              		.loc 1 133 17 is_stmt 1 view .LVU195
 133:Task/Task_Log.c ****                     enable_compess = false;
 696              		.loc 1 133 21 is_stmt 0 view .LVU196
 697 00d4 1823     		movs	r3, #24
 698 00d6 0593     		str	r3, [sp, #20]
 699 00d8 0422     		movs	r2, #4
 700 00da 0492     		str	r2, [sp, #16]
 701 00dc 0392     		str	r2, [sp, #12]
 702 00de 0292     		str	r2, [sp, #8]
 703 00e0 0192     		str	r2, [sp, #4]
 704 00e2 0092     		str	r2, [sp]
 705 00e4 1346     		mov	r3, r2
 706 00e6 0221     		movs	r1, #2
 707 00e8 42F2A000 		movw	r0, #8352
 708 00ec FFF7FEFF 		bl	__lzo_init_v2
 709              	.LVL38:
 133:Task/Task_Log.c ****                     enable_compess = false;
 710              		.loc 1 133 20 view .LVU197
 711 00f0 B0B1     		cbz	r0, .L26
 134:Task/Task_Log.c ****             }
 712              		.loc 1 134 21 is_stmt 1 view .LVU198
 134:Task/Task_Log.c ****             }
ARM GAS  /var/folders/8_/_8bzxkcs1296m80nzxdrn9q80000gn/T//ccynjOqG.s 			page 22


 713              		.loc 1 134 36 is_stmt 0 view .LVU199
 714 00f2 224B     		ldr	r3, .L28+76
 715 00f4 0022     		movs	r2, #0
 716 00f6 1A70     		strb	r2, [r3]
 717 00f8 12E0     		b	.L26
 718              	.L25:
 139:Task/Task_Log.c ****             LogObj_Enable_Reg._sec.IMU_Sec = false;
 719              		.loc 1 139 13 is_stmt 1 view .LVU200
 139:Task/Task_Log.c ****             LogObj_Enable_Reg._sec.IMU_Sec = false;
 720              		.loc 1 139 27 is_stmt 0 view .LVU201
 721 00fa 0023     		movs	r3, #0
 722 00fc 1D4A     		ldr	r2, .L28+68
 723 00fe 1370     		strb	r3, [r2]
 140:Task/Task_Log.c ****             LogObj_Set_Reg._sec.IMU_Sec = false;
 724              		.loc 1 140 13 is_stmt 1 view .LVU202
 140:Task/Task_Log.c ****             LogObj_Set_Reg._sec.IMU_Sec = false;
 725              		.loc 1 140 44 is_stmt 0 view .LVU203
 726 0100 1D4A     		ldr	r2, .L28+72
 727 0102 1178     		ldrb	r1, [r2]	@ zero_extendqisi2
 728 0104 63F30001 		bfi	r1, r3, #0, #1
 729 0108 1170     		strb	r1, [r2]
 141:Task/Task_Log.c ****             DataPipe_Disable(&IMU_Log_DataPipe);
 730              		.loc 1 141 13 is_stmt 1 view .LVU204
 141:Task/Task_Log.c ****             DataPipe_Disable(&IMU_Log_DataPipe);
 731              		.loc 1 141 41 is_stmt 0 view .LVU205
 732 010a 0F4A     		ldr	r2, .L28+24
 733 010c 1178     		ldrb	r1, [r2]	@ zero_extendqisi2
 734 010e 63F30001 		bfi	r1, r3, #0, #1
 735 0112 1170     		strb	r1, [r2]
 142:Task/Task_Log.c ****         }
 736              		.loc 1 142 13 is_stmt 1 view .LVU206
 737              	.LVL39:
 738              	.LBB19:
 739              	.LBI19:
  65:System/DataPipe/DataPipe.h **** }
  66:System/DataPipe/DataPipe.h **** 
  67:System/DataPipe/DataPipe.h **** inline bool DataPipe_Disable(DataPipeObj_TypeDef *obj)
 740              		.loc 2 67 13 view .LVU207
 741              	.LBB20:
  68:System/DataPipe/DataPipe.h **** {
  69:System/DataPipe/DataPipe.h ****     if (obj == NULL)
 742              		.loc 2 69 5 view .LVU208
  70:System/DataPipe/DataPipe.h ****         return false;
  71:System/DataPipe/DataPipe.h **** 
  72:System/DataPipe/DataPipe.h ****     obj->enable = false;
 743              		.loc 2 72 5 view .LVU209
 744              		.loc 2 72 17 is_stmt 0 view .LVU210
 745 0114 074A     		ldr	r2, .L28+4
 746 0116 1374     		strb	r3, [r2, #16]
  73:System/DataPipe/DataPipe.h **** 
  74:System/DataPipe/DataPipe.h ****     return true;
 747              		.loc 2 74 5 is_stmt 1 view .LVU211
 748 0118 02E0     		b	.L26
 749              	.LVL40:
 750              	.L24:
 751              		.loc 2 74 5 is_stmt 0 view .LVU212
 752              	.LBE20:
ARM GAS  /var/folders/8_/_8bzxkcs1296m80nzxdrn9q80000gn/T//ccynjOqG.s 			page 23


 753              	.LBE19:
 146:Task/Task_Log.c **** 
 754              		.loc 1 146 9 is_stmt 1 view .LVU213
 755              	.LBB21:
 756              	.LBI21:
  67:System/DataPipe/DataPipe.h **** {
 757              		.loc 2 67 13 view .LVU214
 758              	.LBB22:
  69:System/DataPipe/DataPipe.h ****         return false;
 759              		.loc 2 69 5 view .LVU215
  72:System/DataPipe/DataPipe.h **** 
 760              		.loc 2 72 5 view .LVU216
  72:System/DataPipe/DataPipe.h **** 
 761              		.loc 2 72 17 is_stmt 0 view .LVU217
 762 011a 064B     		ldr	r3, .L28+4
 763 011c 0022     		movs	r2, #0
 764 011e 1A74     		strb	r2, [r3, #16]
 765              		.loc 2 74 5 is_stmt 1 view .LVU218
 766              	.LVL41:
 767              	.L26:
 768              		.loc 2 74 5 is_stmt 0 view .LVU219
 769              	.LBE22:
 770              	.LBE21:
 148:Task/Task_Log.c ****     LogData_Stream.size = 0;
 771              		.loc 1 148 5 is_stmt 1 view .LVU220
 148:Task/Task_Log.c ****     LogData_Stream.size = 0;
 772              		.loc 1 148 24 is_stmt 0 view .LVU221
 773 0120 0023     		movs	r3, #0
 774 0122 2093     		str	r3, [sp, #128]
 149:Task/Task_Log.c **** }
 775              		.loc 1 149 5 is_stmt 1 view .LVU222
 149:Task/Task_Log.c **** }
 776              		.loc 1 149 25 is_stmt 0 view .LVU223
 777 0124 ADF88430 		strh	r3, [sp, #132]	@ movhi
 150:Task/Task_Log.c **** 
 778              		.loc 1 150 1 view .LVU224
 779 0128 22B0     		add	sp, sp, #136
 780              	.LCFI6:
 781              		.cfi_def_cfa_offset 24
 782              		@ sp needed
 783 012a BDE8F081 		pop	{r4, r5, r6, r7, r8, pc}
 784              	.L29:
 785 012e 00BF     		.align	2
 786              	.L28:
 787 0130 00000000 		.word	.LANCHOR6
 788 0134 00000000 		.word	IMU_Log_DataPipe
 789 0138 00000000 		.word	.LANCHOR14
 790 013c 00000000 		.word	.LANCHOR15
 791 0140 00000000 		.word	.LANCHOR16
 792 0144 00000000 		.word	TaskLog_PipeTransFinish_Callback
 793 0148 00000000 		.word	.LANCHOR1
 794 014c 00000000 		.word	.LANCHOR3
 795 0150 00000000 		.word	Disk
 796 0154 00000000 		.word	TaskProto_PushProtocolQueue
 797 0158 00000000 		.word	.LC0
 798 015c 00000000 		.word	.LANCHOR17
 799 0160 08000000 		.word	.LC1
ARM GAS  /var/folders/8_/_8bzxkcs1296m80nzxdrn9q80000gn/T//ccynjOqG.s 			page 24


 800 0164 00000000 		.word	Queue
 801 0168 000C0000 		.word	.LANCHOR9+3072
 802 016c 10000000 		.word	.LC2
 803 0170 00000000 		.word	.LANCHOR5
 804 0174 00000000 		.word	.LANCHOR0
 805 0178 00000000 		.word	.LANCHOR2
 806 017c 00000000 		.word	.LANCHOR4
 807              		.cfi_endproc
 808              	.LFE151:
 810              		.section	.text.TaskLog_Core,"ax",%progbits
 811              		.align	1
 812              		.global	TaskLog_Core
 813              		.syntax unified
 814              		.thumb
 815              		.thumb_func
 816              		.fpu fpv5-d16
 818              	TaskLog_Core:
 819              	.LVL42:
 820              	.LFB152:
 154:Task/Task_Log.c ****     uint8_t *compess_buf_ptr = NULL;
 821              		.loc 1 154 1 is_stmt 1 view -0
 822              		.cfi_startproc
 823              		@ args = 0, pretend = 0, frame = 8
 824              		@ frame_needed = 0, uses_anonymous_args = 0
 154:Task/Task_Log.c ****     uint8_t *compess_buf_ptr = NULL;
 825              		.loc 1 154 1 is_stmt 0 view .LVU226
 826 0000 30B5     		push	{r4, r5, lr}
 827              	.LCFI7:
 828              		.cfi_def_cfa_offset 12
 829              		.cfi_offset 4, -12
 830              		.cfi_offset 5, -8
 831              		.cfi_offset 14, -4
 832 0002 85B0     		sub	sp, sp, #20
 833              	.LCFI8:
 834              		.cfi_def_cfa_offset 32
 155:Task/Task_Log.c ****     uint16_t cur_compess_size = 0;
 835              		.loc 1 155 5 is_stmt 1 view .LVU227
 836              	.LVL43:
 156:Task/Task_Log.c ****     uint16_t input_compess_size = 0;
 837              		.loc 1 156 5 view .LVU228
 156:Task/Task_Log.c ****     uint16_t input_compess_size = 0;
 838              		.loc 1 156 14 is_stmt 0 view .LVU229
 839 0004 0023     		movs	r3, #0
 840 0006 ADF80E30 		strh	r3, [sp, #14]	@ movhi
 157:Task/Task_Log.c ****     int ret = 0;
 841              		.loc 1 157 5 is_stmt 1 view .LVU230
 842              	.LVL44:
 158:Task/Task_Log.c **** 
 843              		.loc 1 158 5 view .LVU231
 160:Task/Task_Log.c ****     DebugPin.ctl(Debug_PB4, true);
 844              		.loc 1 160 5 view .LVU232
 160:Task/Task_Log.c ****     DebugPin.ctl(Debug_PB4, true);
 845              		.loc 1 160 24 is_stmt 0 view .LVU233
 846 000a 5C4B     		ldr	r3, .L44
 847 000c 1D88     		ldrh	r5, [r3]
 848              	.LVL45:
 161:Task/Task_Log.c **** 
ARM GAS  /var/folders/8_/_8bzxkcs1296m80nzxdrn9q80000gn/T//ccynjOqG.s 			page 25


 849              		.loc 1 161 5 is_stmt 1 view .LVU234
 161:Task/Task_Log.c **** 
 850              		.loc 1 161 13 is_stmt 0 view .LVU235
 851 000e 5C4B     		ldr	r3, .L44+4
 852 0010 5C68     		ldr	r4, [r3, #4]
 161:Task/Task_Log.c **** 
 853              		.loc 1 161 5 view .LVU236
 854 0012 5C4A     		ldr	r2, .L44+8
 855 0014 0123     		movs	r3, #1
 856 0016 07CA     		ldm	r2, {r0, r1, r2}
 857              	.LVL46:
 161:Task/Task_Log.c **** 
 858              		.loc 1 161 5 view .LVU237
 859 0018 A047     		blx	r4
 860              	.LVL47:
 163:Task/Task_Log.c **** 
 861              		.loc 1 163 5 is_stmt 1 view .LVU238
 163:Task/Task_Log.c **** 
 862              		.loc 1 163 14 is_stmt 0 view .LVU239
 863 001a 5B4A     		ldr	r2, .L44+12
 864 001c 1368     		ldr	r3, [r2]
 865 001e 0133     		adds	r3, r3, #1
 866 0020 1360     		str	r3, [r2]
 165:Task/Task_Log.c ****     {
 867              		.loc 1 165 5 is_stmt 1 view .LVU240
 165:Task/Task_Log.c ****     {
 868              		.loc 1 165 8 is_stmt 0 view .LVU241
 869 0022 5A4B     		ldr	r3, .L44+16
 870 0024 1B78     		ldrb	r3, [r3]	@ zero_extendqisi2
 165:Task/Task_Log.c ****     {
 871              		.loc 1 165 7 view .LVU242
 872 0026 002B     		cmp	r3, #0
 873 0028 00F09480 		beq	.L31
 165:Task/Task_Log.c ****     {
 874              		.loc 1 165 22 discriminator 1 view .LVU243
 875 002c 584B     		ldr	r3, .L44+20
 876 002e 1B78     		ldrb	r3, [r3]	@ zero_extendqisi2
 877 0030 002B     		cmp	r3, #0
 878 0032 00F08F80 		beq	.L31
 167:Task/Task_Log.c ****         cur_compess_size = 0;
 879              		.loc 1 167 9 is_stmt 1 view .LVU244
 167:Task/Task_Log.c ****         cur_compess_size = 0;
 880              		.loc 1 167 65 is_stmt 0 view .LVU245
 881 0036 574B     		ldr	r3, .L44+24
 882 0038 B3F80018 		ldrh	r1, [r3, #2048]
 167:Task/Task_Log.c ****         cur_compess_size = 0;
 883              		.loc 1 167 47 view .LVU246
 884 003c 4A1D     		adds	r2, r1, #5
 167:Task/Task_Log.c ****         cur_compess_size = 0;
 885              		.loc 1 167 25 view .LVU247
 886 003e 1A44     		add	r2, r2, r3
 887              	.LVL48:
 168:Task/Task_Log.c **** 
 888              		.loc 1 168 9 is_stmt 1 view .LVU248
 168:Task/Task_Log.c **** 
 889              		.loc 1 168 26 is_stmt 0 view .LVU249
 890 0040 0023     		movs	r3, #0
ARM GAS  /var/folders/8_/_8bzxkcs1296m80nzxdrn9q80000gn/T//ccynjOqG.s 			page 26


 891 0042 ADF80E30 		strh	r3, [sp, #14]	@ movhi
 170:Task/Task_Log.c ****         {
 892              		.loc 1 170 9 is_stmt 1 view .LVU250
 170:Task/Task_Log.c ****         {
 893              		.loc 1 170 11 is_stmt 0 view .LVU251
 894 0046 002D     		cmp	r5, #0
 895 0048 00F08A80 		beq	.L32
 172:Task/Task_Log.c ****             LogObj_Logging_Reg._sec.IMU_Sec = true;
 896              		.loc 1 172 13 is_stmt 1 view .LVU252
 172:Task/Task_Log.c ****             LogObj_Logging_Reg._sec.IMU_Sec = true;
 897              		.loc 1 172 30 is_stmt 0 view .LVU253
 898 004c 4B4B     		ldr	r3, .L44
 899 004e 0020     		movs	r0, #0
 900 0050 1880     		strh	r0, [r3]	@ movhi
 173:Task/Task_Log.c ****             LogCompess_Data.buf[LogCompess_Data.compess_size] = LOG_COMPESS_HEADER;
 901              		.loc 1 173 13 is_stmt 1 view .LVU254
 173:Task/Task_Log.c ****             LogCompess_Data.buf[LogCompess_Data.compess_size] = LOG_COMPESS_HEADER;
 902              		.loc 1 173 45 is_stmt 0 view .LVU255
 903 0052 5148     		ldr	r0, .L44+28
 904 0054 0378     		ldrb	r3, [r0]	@ zero_extendqisi2
 905 0056 43F00103 		orr	r3, r3, #1
 906 005a 0370     		strb	r3, [r0]
 174:Task/Task_Log.c **** 
 907              		.loc 1 174 13 is_stmt 1 view .LVU256
 174:Task/Task_Log.c **** 
 908              		.loc 1 174 63 is_stmt 0 view .LVU257
 909 005c 4D4B     		ldr	r3, .L44+24
 910 005e CA20     		movs	r0, #202
 911 0060 5854     		strb	r0, [r3, r1]
 176:Task/Task_Log.c ****             if(ret != LZO_E_OK)
 912              		.loc 1 176 13 is_stmt 1 view .LVU258
 176:Task/Task_Log.c ****             if(ret != LZO_E_OK)
 913              		.loc 1 176 19 is_stmt 0 view .LVU259
 914 0062 4E4B     		ldr	r3, .L44+32
 915 0064 0093     		str	r3, [sp]
 916 0066 0DF10E03 		add	r3, sp, #14
 917 006a 2946     		mov	r1, r5
 918 006c 4C48     		ldr	r0, .L44+36
 919 006e FFF7FEFF 		bl	lzo1x_1_compress
 920              	.LVL49:
 177:Task/Task_Log.c ****             {
 921              		.loc 1 177 13 is_stmt 1 view .LVU260
 177:Task/Task_Log.c ****             {
 922              		.loc 1 177 15 is_stmt 0 view .LVU261
 923 0072 70B1     		cbz	r0, .L33
 179:Task/Task_Log.c ****                 Log_Statistics.halt_type = Log_CompessFunc_Halt;
 924              		.loc 1 179 17 is_stmt 1 view .LVU262
 179:Task/Task_Log.c ****                 Log_Statistics.halt_type = Log_CompessFunc_Halt;
 925              		.loc 1 179 32 is_stmt 0 view .LVU263
 926 0074 0023     		movs	r3, #0
 927 0076 464A     		ldr	r2, .L44+20
 928 0078 1370     		strb	r3, [r2]
 180:Task/Task_Log.c ****                 DataPipe_Disable(&IMU_Log_DataPipe);
 929              		.loc 1 180 17 is_stmt 1 view .LVU264
 180:Task/Task_Log.c ****                 DataPipe_Disable(&IMU_Log_DataPipe);
 930              		.loc 1 180 42 is_stmt 0 view .LVU265
 931 007a 4A4A     		ldr	r2, .L44+40
ARM GAS  /var/folders/8_/_8bzxkcs1296m80nzxdrn9q80000gn/T//ccynjOqG.s 			page 27


 932 007c 0121     		movs	r1, #1
 933 007e 1175     		strb	r1, [r2, #20]
 181:Task/Task_Log.c ****             }
 934              		.loc 1 181 17 is_stmt 1 view .LVU266
 935              	.LVL50:
 936              	.LBB23:
 937              	.LBI23:
  67:System/DataPipe/DataPipe.h **** {
 938              		.loc 2 67 13 view .LVU267
 939              	.LBB24:
  69:System/DataPipe/DataPipe.h ****         return false;
 940              		.loc 2 69 5 view .LVU268
  72:System/DataPipe/DataPipe.h **** 
 941              		.loc 2 72 5 view .LVU269
  72:System/DataPipe/DataPipe.h **** 
 942              		.loc 2 72 17 is_stmt 0 view .LVU270
 943 0080 494A     		ldr	r2, .L44+44
 944 0082 1374     		strb	r3, [r2, #16]
 945              		.loc 2 74 5 is_stmt 1 view .LVU271
 946              	.LVL51:
 947              	.L34:
 948              		.loc 2 74 5 is_stmt 0 view .LVU272
 949              	.LBE24:
 950              	.LBE23:
 227:Task/Task_Log.c ****         }
 951              		.loc 1 227 13 is_stmt 1 view .LVU273
 227:Task/Task_Log.c ****         }
 952              		.loc 1 227 19 is_stmt 0 view .LVU274
 953 0084 494B     		ldr	r3, .L44+48
 954 0086 5C68     		ldr	r4, [r3, #4]
 227:Task/Task_Log.c ****         }
 955              		.loc 1 227 13 view .LVU275
 956 0088 494A     		ldr	r2, .L44+52
 957 008a 0123     		movs	r3, #1
 958 008c 07CA     		ldm	r2, {r0, r1, r2}
 959 008e A047     		blx	r4
 960              	.LVL52:
 961 0090 66E0     		b	.L32
 962              	.LVL53:
 963              	.L33:
 185:Task/Task_Log.c ****                 {
 964              		.loc 1 185 17 is_stmt 1 view .LVU276
 185:Task/Task_Log.c ****                 {
 965              		.loc 1 185 39 is_stmt 0 view .LVU277
 966 0092 BDF80E30 		ldrh	r3, [sp, #14]
 185:Task/Task_Log.c ****                 {
 967              		.loc 1 185 19 view .LVU278
 968 0096 AB42     		cmp	r3, r5
 969 0098 08D3     		bcc	.L35
 187:Task/Task_Log.c ****                     Log_Statistics.halt_type = Log_CompessSize_Halt;
 970              		.loc 1 187 21 is_stmt 1 view .LVU279
 187:Task/Task_Log.c ****                     Log_Statistics.halt_type = Log_CompessSize_Halt;
 971              		.loc 1 187 36 is_stmt 0 view .LVU280
 972 009a 0023     		movs	r3, #0
 973 009c 3C4A     		ldr	r2, .L44+20
 974 009e 1370     		strb	r3, [r2]
 188:Task/Task_Log.c ****                     DataPipe_Disable(&IMU_Log_DataPipe);
ARM GAS  /var/folders/8_/_8bzxkcs1296m80nzxdrn9q80000gn/T//ccynjOqG.s 			page 28


 975              		.loc 1 188 21 is_stmt 1 view .LVU281
 188:Task/Task_Log.c ****                     DataPipe_Disable(&IMU_Log_DataPipe);
 976              		.loc 1 188 46 is_stmt 0 view .LVU282
 977 00a0 404A     		ldr	r2, .L44+40
 978 00a2 0221     		movs	r1, #2
 979 00a4 1175     		strb	r1, [r2, #20]
 189:Task/Task_Log.c ****                 }
 980              		.loc 1 189 21 is_stmt 1 view .LVU283
 981              	.LVL54:
 982              	.LBB25:
 983              	.LBI25:
  67:System/DataPipe/DataPipe.h **** {
 984              		.loc 2 67 13 view .LVU284
 985              	.LBB26:
  69:System/DataPipe/DataPipe.h ****         return false;
 986              		.loc 2 69 5 view .LVU285
  72:System/DataPipe/DataPipe.h **** 
 987              		.loc 2 72 5 view .LVU286
  72:System/DataPipe/DataPipe.h **** 
 988              		.loc 2 72 17 is_stmt 0 view .LVU287
 989 00a6 404A     		ldr	r2, .L44+44
 990 00a8 1374     		strb	r3, [r2, #16]
 991              		.loc 2 74 5 is_stmt 1 view .LVU288
 992 00aa EBE7     		b	.L34
 993              	.LVL55:
 994              	.L35:
 995              		.loc 2 74 5 is_stmt 0 view .LVU289
 996              	.LBE26:
 997              	.LBE25:
 194:Task/Task_Log.c ****                     memcpy(&LogCompess_Data.buf[LogCompess_Data.compess_size + 1], &cur_compess_siz
 998              		.loc 1 194 21 is_stmt 1 view .LVU290
 194:Task/Task_Log.c ****                     memcpy(&LogCompess_Data.buf[LogCompess_Data.compess_size + 1], &cur_compess_siz
 999              		.loc 1 194 35 is_stmt 0 view .LVU291
 1000 00ac 3D49     		ldr	r1, .L44+40
 1001 00ae 8A68     		ldr	r2, [r1, #8]
 194:Task/Task_Log.c ****                     memcpy(&LogCompess_Data.buf[LogCompess_Data.compess_size + 1], &cur_compess_siz
 1002              		.loc 1 194 47 view .LVU292
 1003 00b0 0132     		adds	r2, r2, #1
 1004 00b2 8A60     		str	r2, [r1, #8]
 195:Task/Task_Log.c **** 
 1005              		.loc 1 195 21 is_stmt 1 view .LVU293
 195:Task/Task_Log.c **** 
 1006              		.loc 1 195 64 is_stmt 0 view .LVU294
 1007 00b4 374A     		ldr	r2, .L44+24
 1008 00b6 B2F80018 		ldrh	r1, [r2, #2048]
 195:Task/Task_Log.c **** 
 1009              		.loc 1 195 78 view .LVU295
 1010 00ba 0131     		adds	r1, r1, #1
 195:Task/Task_Log.c **** 
 1011              		.loc 1 195 21 view .LVU296
 1012 00bc DDF80E00 		ldr	r0, [sp, #14]	@ unaligned
 1013              	.LVL56:
 195:Task/Task_Log.c **** 
 1014              		.loc 1 195 21 view .LVU297
 1015 00c0 5050     		str	r0, [r2, r1]	@ unaligned
 197:Task/Task_Log.c ****                     LogCompess_Data.buf[LogCompess_Data.compess_size] = LOG_COMPESS_ENDER;
 1016              		.loc 1 197 21 is_stmt 1 view .LVU298
ARM GAS  /var/folders/8_/_8bzxkcs1296m80nzxdrn9q80000gn/T//ccynjOqG.s 			page 29


 197:Task/Task_Log.c ****                     LogCompess_Data.buf[LogCompess_Data.compess_size] = LOG_COMPESS_ENDER;
 1017              		.loc 1 197 67 is_stmt 0 view .LVU299
 1018 00c2 B2F80018 		ldrh	r1, [r2, #2048]
 197:Task/Task_Log.c ****                     LogCompess_Data.buf[LogCompess_Data.compess_size] = LOG_COMPESS_ENDER;
 1019              		.loc 1 197 81 view .LVU300
 1020 00c6 0B44     		add	r3, r3, r1
 1021 00c8 9BB2     		uxth	r3, r3
 197:Task/Task_Log.c ****                     LogCompess_Data.buf[LogCompess_Data.compess_size] = LOG_COMPESS_ENDER;
 1022              		.loc 1 197 100 view .LVU301
 1023 00ca 0533     		adds	r3, r3, #5
 1024 00cc 9BB2     		uxth	r3, r3
 197:Task/Task_Log.c ****                     LogCompess_Data.buf[LogCompess_Data.compess_size] = LOG_COMPESS_ENDER;
 1025              		.loc 1 197 50 view .LVU302
 1026 00ce A2F80038 		strh	r3, [r2, #2048]	@ movhi
 198:Task/Task_Log.c ****                     LogCompess_Data.compess_size ++;
 1027              		.loc 1 198 21 is_stmt 1 view .LVU303
 198:Task/Task_Log.c ****                     LogCompess_Data.compess_size ++;
 1028              		.loc 1 198 71 is_stmt 0 view .LVU304
 1029 00d2 ED21     		movs	r1, #237
 1030 00d4 D154     		strb	r1, [r2, r3]
 199:Task/Task_Log.c ****                     LogObj_Logging_Reg._sec.IMU_Sec = false;
 1031              		.loc 1 199 21 is_stmt 1 view .LVU305
 199:Task/Task_Log.c ****                     LogObj_Logging_Reg._sec.IMU_Sec = false;
 1032              		.loc 1 199 50 is_stmt 0 view .LVU306
 1033 00d6 0133     		adds	r3, r3, #1
 1034 00d8 A2F80038 		strh	r3, [r2, #2048]	@ movhi
 200:Task/Task_Log.c **** 
 1035              		.loc 1 200 21 is_stmt 1 view .LVU307
 200:Task/Task_Log.c **** 
 1036              		.loc 1 200 53 is_stmt 0 view .LVU308
 1037 00dc 2E4B     		ldr	r3, .L44+28
 1038 00de 1A78     		ldrb	r2, [r3]	@ zero_extendqisi2
 1039 00e0 6FF30002 		bfc	r2, #0, #1
 1040 00e4 1A70     		strb	r2, [r3]
 202:Task/Task_Log.c ****                     {
 1041              		.loc 1 202 21 is_stmt 1 view .LVU309
 202:Task/Task_Log.c ****                     {
 1042              		.loc 1 202 26 is_stmt 0 view .LVU310
 1043 00e6 13E0     		b	.L36
 1044              	.L43:
 206:Task/Task_Log.c ****                             Log_Statistics.halt_type = Log_Finish_Halt;
 1045              		.loc 1 206 29 is_stmt 1 view .LVU311
 206:Task/Task_Log.c ****                             Log_Statistics.halt_type = Log_Finish_Halt;
 1046              		.loc 1 206 43 is_stmt 0 view .LVU312
 1047 00e8 0023     		movs	r3, #0
 1048 00ea 284A     		ldr	r2, .L44+16
 1049 00ec 1370     		strb	r3, [r2]
 207:Task/Task_Log.c ****                             DataPipe_Disable(&IMU_Log_DataPipe);
 1050              		.loc 1 207 29 is_stmt 1 view .LVU313
 207:Task/Task_Log.c ****                             DataPipe_Disable(&IMU_Log_DataPipe);
 1051              		.loc 1 207 54 is_stmt 0 view .LVU314
 1052 00ee 2D4A     		ldr	r2, .L44+40
 1053 00f0 0321     		movs	r1, #3
 1054 00f2 1175     		strb	r1, [r2, #20]
 208:Task/Task_Log.c ****                             break;
 1055              		.loc 1 208 29 is_stmt 1 view .LVU315
 1056              	.LVL57:
ARM GAS  /var/folders/8_/_8bzxkcs1296m80nzxdrn9q80000gn/T//ccynjOqG.s 			page 30


 1057              	.LBB27:
 1058              	.LBI27:
  67:System/DataPipe/DataPipe.h **** {
 1059              		.loc 2 67 13 view .LVU316
 1060              	.LBB28:
  69:System/DataPipe/DataPipe.h ****         return false;
 1061              		.loc 2 69 5 view .LVU317
  72:System/DataPipe/DataPipe.h **** 
 1062              		.loc 2 72 5 view .LVU318
  72:System/DataPipe/DataPipe.h **** 
 1063              		.loc 2 72 17 is_stmt 0 view .LVU319
 1064 00f4 2C4A     		ldr	r2, .L44+44
 1065 00f6 1374     		strb	r3, [r2, #16]
 1066              		.loc 2 74 5 is_stmt 1 view .LVU320
 1067 00f8 C4E7     		b	.L34
 1068              	.LVL58:
 1069              	.L39:
 1070              		.loc 2 74 5 is_stmt 0 view .LVU321
 1071              	.LBE28:
 1072              	.LBE27:
 1073              	.LBB29:
 219:Task/Task_Log.c ****                                 LogCompess_Data.buf[t + 512] = 0;
 1074              		.loc 1 219 33 is_stmt 1 discriminator 3 view .LVU322
 219:Task/Task_Log.c ****                                 LogCompess_Data.buf[t + 512] = 0;
 1075              		.loc 1 219 80 is_stmt 0 discriminator 3 view .LVU323
 1076 00fa 03F50071 		add	r1, r3, #512
 219:Task/Task_Log.c ****                                 LogCompess_Data.buf[t + 512] = 0;
 1077              		.loc 1 219 77 discriminator 3 view .LVU324
 1078 00fe 254A     		ldr	r2, .L44+24
 1079 0100 505C     		ldrb	r0, [r2, r1]	@ zero_extendqisi2
 219:Task/Task_Log.c ****                                 LogCompess_Data.buf[t + 512] = 0;
 1080              		.loc 1 219 56 discriminator 3 view .LVU325
 1081 0102 D054     		strb	r0, [r2, r3]
 220:Task/Task_Log.c ****                             }
 1082              		.loc 1 220 33 is_stmt 1 discriminator 3 view .LVU326
 220:Task/Task_Log.c ****                             }
 1083              		.loc 1 220 62 is_stmt 0 discriminator 3 view .LVU327
 1084 0104 0020     		movs	r0, #0
 1085 0106 5054     		strb	r0, [r2, r1]
 217:Task/Task_Log.c ****                             {
 1086              		.loc 1 217 83 is_stmt 1 discriminator 3 view .LVU328
 217:Task/Task_Log.c ****                             {
 1087              		.loc 1 217 84 is_stmt 0 discriminator 3 view .LVU329
 1088 0108 0133     		adds	r3, r3, #1
 1089              	.LVL59:
 217:Task/Task_Log.c ****                             {
 1090              		.loc 1 217 84 discriminator 3 view .LVU330
 1091 010a 9BB2     		uxth	r3, r3
 1092              	.LVL60:
 1093              	.L38:
 217:Task/Task_Log.c ****                             {
 1094              		.loc 1 217 49 is_stmt 1 discriminator 1 view .LVU331
 217:Task/Task_Log.c ****                             {
 1095              		.loc 1 217 29 is_stmt 0 discriminator 1 view .LVU332
 1096 010c 9C42     		cmp	r4, r3
 1097 010e F4D8     		bhi	.L39
 1098              	.LVL61:
ARM GAS  /var/folders/8_/_8bzxkcs1296m80nzxdrn9q80000gn/T//ccynjOqG.s 			page 31


 1099              	.L36:
 217:Task/Task_Log.c ****                             {
 1100              		.loc 1 217 29 discriminator 1 view .LVU333
 1101              	.LBE29:
 202:Task/Task_Log.c ****                     {
 1102              		.loc 1 202 26 is_stmt 1 view .LVU334
 202:Task/Task_Log.c ****                     {
 1103              		.loc 1 202 42 is_stmt 0 view .LVU335
 1104 0110 204B     		ldr	r3, .L44+24
 1105 0112 B3F80038 		ldrh	r3, [r3, #2048]
 202:Task/Task_Log.c ****                     {
 1106              		.loc 1 202 26 view .LVU336
 1107 0116 B3F5007F 		cmp	r3, #512
 1108 011a B3D3     		bcc	.L34
 204:Task/Task_Log.c ****                         {
 1109              		.loc 1 204 25 is_stmt 1 view .LVU337
 204:Task/Task_Log.c ****                         {
 1110              		.loc 1 204 32 is_stmt 0 view .LVU338
 1111 011c 254B     		ldr	r3, .L44+56
 1112 011e 1C69     		ldr	r4, [r3, #16]
 204:Task/Task_Log.c ****                         {
 1113              		.loc 1 204 28 view .LVU339
 1114 0120 4FF40073 		mov	r3, #512
 1115 0124 1B4A     		ldr	r2, .L44+24
 1116 0126 2449     		ldr	r1, .L44+60
 1117 0128 2448     		ldr	r0, .L44+64
 1118 012a A047     		blx	r4
 1119              	.LVL62:
 204:Task/Task_Log.c ****                         {
 1120              		.loc 1 204 27 view .LVU340
 1121 012c 0228     		cmp	r0, #2
 1122 012e DBD0     		beq	.L43
 213:Task/Task_Log.c ****                             Log_Statistics.log_byte_sum += 512;
 1123              		.loc 1 213 29 is_stmt 1 view .LVU341
 213:Task/Task_Log.c ****                             Log_Statistics.log_byte_sum += 512;
 1124              		.loc 1 213 43 is_stmt 0 view .LVU342
 1125 0130 1C4B     		ldr	r3, .L44+40
 1126 0132 DA68     		ldr	r2, [r3, #12]
 213:Task/Task_Log.c ****                             Log_Statistics.log_byte_sum += 512;
 1127              		.loc 1 213 59 view .LVU343
 1128 0134 0132     		adds	r2, r2, #1
 1129 0136 DA60     		str	r2, [r3, #12]
 214:Task/Task_Log.c ****                             LogCompess_Data.compess_size -= 512;
 1130              		.loc 1 214 29 is_stmt 1 view .LVU344
 214:Task/Task_Log.c ****                             LogCompess_Data.compess_size -= 512;
 1131              		.loc 1 214 57 is_stmt 0 view .LVU345
 1132 0138 1A69     		ldr	r2, [r3, #16]
 1133 013a 02F50072 		add	r2, r2, #512
 1134 013e 1A61     		str	r2, [r3, #16]
 215:Task/Task_Log.c **** 
 1135              		.loc 1 215 29 is_stmt 1 view .LVU346
 215:Task/Task_Log.c **** 
 1136              		.loc 1 215 58 is_stmt 0 view .LVU347
 1137 0140 144B     		ldr	r3, .L44+24
 1138 0142 B3F80048 		ldrh	r4, [r3, #2048]
 1139 0146 A4F50074 		sub	r4, r4, #512
 1140 014a A4B2     		uxth	r4, r4
ARM GAS  /var/folders/8_/_8bzxkcs1296m80nzxdrn9q80000gn/T//ccynjOqG.s 			page 32


 1141 014c A3F80048 		strh	r4, [r3, #2048]	@ movhi
 217:Task/Task_Log.c ****                             {
 1142              		.loc 1 217 29 is_stmt 1 view .LVU348
 1143              	.LBB30:
 217:Task/Task_Log.c ****                             {
 1144              		.loc 1 217 33 view .LVU349
 1145              	.LVL63:
 217:Task/Task_Log.c ****                             {
 1146              		.loc 1 217 42 is_stmt 0 view .LVU350
 1147 0150 0023     		movs	r3, #0
 217:Task/Task_Log.c ****                             {
 1148              		.loc 1 217 29 view .LVU351
 1149 0152 DBE7     		b	.L38
 1150              	.LVL64:
 1151              	.L31:
 217:Task/Task_Log.c ****                             {
 1152              		.loc 1 217 29 view .LVU352
 1153              	.LBE30:
 231:Task/Task_Log.c **** 
 1154              		.loc 1 231 9 is_stmt 1 view .LVU353
 231:Task/Task_Log.c **** 
 1155              		.loc 1 231 15 is_stmt 0 view .LVU354
 1156 0154 154B     		ldr	r3, .L44+48
 1157 0156 5C68     		ldr	r4, [r3, #4]
 231:Task/Task_Log.c **** 
 1158              		.loc 1 231 9 view .LVU355
 1159 0158 154A     		ldr	r2, .L44+52
 1160 015a 0023     		movs	r3, #0
 1161 015c 07CA     		ldm	r2, {r0, r1, r2}
 1162 015e A047     		blx	r4
 1163              	.LVL65:
 1164              	.L32:
 234:Task/Task_Log.c **** 
 1165              		.loc 1 234 5 is_stmt 1 view .LVU356
 236:Task/Task_Log.c ****     /* test section */
 1166              		.loc 1 236 5 view .LVU357
 234:Task/Task_Log.c **** 
 1167              		.loc 1 234 14 is_stmt 0 view .LVU358
 1168 0160 4FF44033 		mov	r3, #196608
 1169              	.LVL66:
 1170              	.L41:
 236:Task/Task_Log.c ****     /* test section */
 1171              		.loc 1 236 15 is_stmt 1 discriminator 1 view .LVU359
 236:Task/Task_Log.c ****     /* test section */
 1172              		.loc 1 236 10 discriminator 1 view .LVU360
 1173 0164 1A46     		mov	r2, r3
 236:Task/Task_Log.c ****     /* test section */
 1174              		.loc 1 236 12 is_stmt 0 discriminator 1 view .LVU361
 1175 0166 013B     		subs	r3, r3, #1
 1176              	.LVL67:
 236:Task/Task_Log.c ****     /* test section */
 1177              		.loc 1 236 10 discriminator 1 view .LVU362
 1178 0168 002A     		cmp	r2, #0
 1179 016a FBD1     		bne	.L41
 239:Task/Task_Log.c **** }
 1180              		.loc 1 239 5 is_stmt 1 view .LVU363
 239:Task/Task_Log.c **** }
ARM GAS  /var/folders/8_/_8bzxkcs1296m80nzxdrn9q80000gn/T//ccynjOqG.s 			page 33


 1181              		.loc 1 239 13 is_stmt 0 view .LVU364
 1182 016c 044B     		ldr	r3, .L44+4
 1183              	.LVL68:
 239:Task/Task_Log.c **** }
 1184              		.loc 1 239 13 view .LVU365
 1185 016e 5C68     		ldr	r4, [r3, #4]
 239:Task/Task_Log.c **** }
 1186              		.loc 1 239 5 view .LVU366
 1187 0170 044A     		ldr	r2, .L44+8
 1188              	.LVL69:
 239:Task/Task_Log.c **** }
 1189              		.loc 1 239 5 view .LVU367
 1190 0172 0023     		movs	r3, #0
 1191 0174 07CA     		ldm	r2, {r0, r1, r2}
 1192 0176 A047     		blx	r4
 1193              	.LVL70:
 240:Task/Task_Log.c **** 
 1194              		.loc 1 240 1 view .LVU368
 1195 0178 05B0     		add	sp, sp, #20
 1196              	.LCFI9:
 1197              		.cfi_def_cfa_offset 12
 1198              		@ sp needed
 1199 017a 30BD     		pop	{r4, r5, pc}
 1200              	.LVL71:
 1201              	.L45:
 240:Task/Task_Log.c **** 
 1202              		.loc 1 240 1 view .LVU369
 1203              		.align	2
 1204              	.L44:
 1205 017c 00000000 		.word	.LANCHOR8
 1206 0180 00000000 		.word	DebugPin
 1207 0184 00000000 		.word	Debug_PB4
 1208 0188 00000000 		.word	.LANCHOR18
 1209 018c 00000000 		.word	.LANCHOR0
 1210 0190 00000000 		.word	.LANCHOR4
 1211 0194 00000000 		.word	.LANCHOR19
 1212 0198 00000000 		.word	.LANCHOR3
 1213 019c 00180000 		.word	wrkmem
 1214 01a0 00000000 		.word	.LANCHOR9
 1215 01a4 00000000 		.word	.LANCHOR6
 1216 01a8 00000000 		.word	IMU_Log_DataPipe
 1217 01ac 00000000 		.word	DevLED
 1218 01b0 00000000 		.word	Led1
 1219 01b4 00000000 		.word	Disk
 1220 01b8 00000000 		.word	.LANCHOR14
 1221 01bc 00000000 		.word	.LANCHOR15
 1222              		.cfi_endproc
 1223              	.LFE152:
 1225              		.global	core_cnt
 1226              		.section	.Fast_Mem_Section,"aw"
 1227              		.align	3
 1228              		.set	.LANCHOR9,. + 0
 1231              	LogCache_L2_Buf:
 1232 0000 00000000 		.space	3072
 1232      00000000 
 1232      00000000 
 1232      00000000 
ARM GAS  /var/folders/8_/_8bzxkcs1296m80nzxdrn9q80000gn/T//ccynjOqG.s 			page 34


 1232      00000000 
 1235              	LogCache_L1_Buf:
 1236 0c00 00000000 		.space	3072
 1236      00000000 
 1236      00000000 
 1236      00000000 
 1236      00000000 
 1239              	wrkmem:
 1240 1800 00000000 		.space	65536
 1240      00000000 
 1240      00000000 
 1240      00000000 
 1240      00000000 
 1241              		.section	.Perph_Section,"aw"
 1242              		.align	2
 1243              		.set	.LANCHOR16,. + 0
 1246              	LogIMU_Data:
 1247 0000 00000000 		.space	79
 1247      00000000 
 1247      00000000 
 1247      00000000 
 1247      00000000 
 1248              		.section	.bss.FATFS_Obj,"aw",%nobits
 1249              		.align	2
 1250              		.set	.LANCHOR15,. + 0
 1253              	FATFS_Obj:
 1254 0000 00000000 		.space	200
 1254      00000000 
 1254      00000000 
 1254      00000000 
 1254      00000000 
 1255              		.section	.bss.IMUData_Queue,"aw",%nobits
 1256              		.align	2
 1257              		.set	.LANCHOR5,. + 0
 1260              	IMUData_Queue:
 1261 0000 00000000 		.space	17
 1261      00000000 
 1261      00000000 
 1261      00000000 
 1261      00
 1262              		.section	.bss.LogCompess_Data,"aw",%nobits
 1263              		.align	2
 1264              		.set	.LANCHOR19,. + 0
 1267              	LogCompess_Data:
 1268 0000 00000000 		.space	2052
 1268      00000000 
 1268      00000000 
 1268      00000000 
 1268      00000000 
 1269              		.section	.bss.LogFile_Obj,"aw",%nobits
 1270              		.align	2
 1271              		.set	.LANCHOR14,. + 0
 1274              	LogFile_Obj:
 1275 0000 00000000 		.space	102
 1275      00000000 
 1275      00000000 
 1275      00000000 
ARM GAS  /var/folders/8_/_8bzxkcs1296m80nzxdrn9q80000gn/T//ccynjOqG.s 			page 35


 1275      00000000 
 1276              		.section	.bss.LogFile_Ready,"aw",%nobits
 1277              		.set	.LANCHOR0,. + 0
 1280              	LogFile_Ready:
 1281 0000 00       		.space	1
 1282              		.section	.bss.LogFolder_Cluster,"aw",%nobits
 1283              		.align	2
 1284              		.set	.LANCHOR17,. + 0
 1287              	LogFolder_Cluster:
 1288 0000 00000000 		.space	4
 1289              		.section	.bss.LogObj_Enable_Reg,"aw",%nobits
 1290              		.align	2
 1291              		.set	.LANCHOR2,. + 0
 1294              	LogObj_Enable_Reg:
 1295 0000 0000     		.space	2
 1296              		.section	.bss.LogObj_Logging_Reg,"aw",%nobits
 1297              		.align	2
 1298              		.set	.LANCHOR3,. + 0
 1301              	LogObj_Logging_Reg:
 1302 0000 0000     		.space	2
 1303              		.section	.bss.LogObj_Set_Reg,"aw",%nobits
 1304              		.align	2
 1305              		.set	.LANCHOR1,. + 0
 1308              	LogObj_Set_Reg:
 1309 0000 0000     		.space	2
 1310              		.section	.bss.Log_Statistics,"aw",%nobits
 1311              		.align	2
 1312              		.set	.LANCHOR6,. + 0
 1315              	Log_Statistics:
 1316 0000 00000000 		.space	21
 1316      00000000 
 1316      00000000 
 1316      00000000 
 1316      00000000 
 1317              		.section	.bss.QueueIMU_PopSize,"aw",%nobits
 1318              		.align	1
 1319              		.set	.LANCHOR8,. + 0
 1322              	QueueIMU_PopSize:
 1323 0000 0000     		.space	2
 1324              		.section	.bss.core_cnt,"aw",%nobits
 1325              		.align	2
 1326              		.set	.LANCHOR18,. + 0
 1329              	core_cnt:
 1330 0000 00000000 		.space	4
 1331              		.section	.bss.in_queue_size,"aw",%nobits
 1332              		.align	2
 1333              		.set	.LANCHOR7,. + 0
 1336              	in_queue_size:
 1337 0000 00000000 		.space	4
 1338              		.section	.bss.lst_imu_pipe_rt.0,"aw",%nobits
 1339              		.align	3
 1340              		.set	.LANCHOR13,. + 0
 1343              	lst_imu_pipe_rt.0:
 1344 0000 00000000 		.space	8
 1344      00000000 
 1345              		.section	.bss.out_queue_size,"aw",%nobits
 1346              		.align	2
ARM GAS  /var/folders/8_/_8bzxkcs1296m80nzxdrn9q80000gn/T//ccynjOqG.s 			page 36


 1347              		.set	.LANCHOR10,. + 0
 1350              	out_queue_size:
 1351 0000 00000000 		.space	4
 1352              		.section	.data.LogIMU_Summary,"aw"
 1353              		.align	3
 1354              		.set	.LANCHOR12,. + 0
 1357              	LogIMU_Summary:
 1358 0000 00000000 		.word	0
 1359 0004 00000000 		.word	0
 1360 0008 F4010000 		.word	500
 1361 000c 00000000 		.word	0
 1362 0010 00000000 		.word	0
 1363 0014 00000000 		.word	0
 1364 0018 00000000 		.word	0
 1365 001c 00000000 		.word	0
 1366 0020 00000000 		.word	0
 1367 0024 00000000 		.space	4
 1368 0028 00000000 		.word	0
 1369 002c 00000000 		.word	0
 1370              		.section	.data.enable_compess,"aw"
 1371              		.set	.LANCHOR4,. + 0
 1374              	enable_compess:
 1375 0000 01       		.byte	1
 1376              		.section	.rodata.LogIMU_Header,"a"
 1377              		.align	2
 1378              		.set	.LANCHOR11,. + 0
 1381              	LogIMU_Header:
 1382 0000 BA       		.byte	-70
 1383 0001 00       		.byte	0
 1384 0002 48       		.byte	72
 1385              		.text
 1386              	.Letext0:
 1387              		.file 3 "/opt/homebrew/Cellar/arm-none-eabi-gcc/10.3-2021.07/gcc/lib/gcc/arm-none-eabi/10.3.1/incl
 1388              		.file 4 "/opt/homebrew/Cellar/arm-none-eabi-gcc/10.3-2021.07/gcc/arm-none-eabi/include/machine/_de
 1389              		.file 5 "/opt/homebrew/Cellar/arm-none-eabi-gcc/10.3-2021.07/gcc/arm-none-eabi/include/sys/_stdint
 1390              		.file 6 "System/runtime/runtime.h"
 1391              		.file 7 "DataStructure/linked_list.h"
 1392              		.file 8 "HAL_Lib/CMSIS/Device/ST/STM32H7xx/Include/stm32h743xx.h"
 1393              		.file 9 "HAL_Lib/STM32H7xx_HAL_Driver/Inc/stm32h7xx_hal_gpio.h"
 1394              		.file 10 "System/scheduler/scheduler.h"
 1395              		.file 11 "Service/imu_data.h"
 1396              		.file 12 "Task/Task_Log.h"
 1397              		.file 13 "Bsp/Bsp_GPIO.h"
 1398              		.file 14 "debug/debug_util.h"
 1399              		.file 15 "DataStructure/queue.h"
 1400              		.file 16 "System/diskio/DiskIO.h"
 1401              		.file 17 "Service/Srv_IMUSample.h"
 1402              		.file 18 "Device/Dev_Led.h"
 1403              		.file 19 "IO_Def/IO_Definition.h"
 1404              		.file 20 "common/compess/lzodefs.h"
 1405              		.file 21 "common/compess/lzoconf.h"
 1406              		.file 22 "<built-in>"
 1407              		.file 23 "common/compess/minilzo.h"
ARM GAS  /var/folders/8_/_8bzxkcs1296m80nzxdrn9q80000gn/T//ccynjOqG.s 			page 37


DEFINED SYMBOLS
                            *ABS*:0000000000000000 Task_Log.c
/var/folders/8_/_8bzxkcs1296m80nzxdrn9q80000gn/T//ccynjOqG.s:17     .text.TaskLog_PipeTransFinish_Callback:0000000000000000 $t
/var/folders/8_/_8bzxkcs1296m80nzxdrn9q80000gn/T//ccynjOqG.s:24     .text.TaskLog_PipeTransFinish_Callback:0000000000000000 TaskLog_PipeTransFinish_Callback
/var/folders/8_/_8bzxkcs1296m80nzxdrn9q80000gn/T//ccynjOqG.s:479    .text.TaskLog_PipeTransFinish_Callback:000000000000026c $d
/var/folders/8_/_8bzxkcs1296m80nzxdrn9q80000gn/T//ccynjOqG.s:500    .rodata.TaskLog_Init.str1.4:0000000000000000 $d
/var/folders/8_/_8bzxkcs1296m80nzxdrn9q80000gn/T//ccynjOqG.s:510    .text.TaskLog_Init:0000000000000000 $t
/var/folders/8_/_8bzxkcs1296m80nzxdrn9q80000gn/T//ccynjOqG.s:517    .text.TaskLog_Init:0000000000000000 TaskLog_Init
/var/folders/8_/_8bzxkcs1296m80nzxdrn9q80000gn/T//ccynjOqG.s:787    .text.TaskLog_Init:0000000000000130 $d
/var/folders/8_/_8bzxkcs1296m80nzxdrn9q80000gn/T//ccynjOqG.s:811    .text.TaskLog_Core:0000000000000000 $t
/var/folders/8_/_8bzxkcs1296m80nzxdrn9q80000gn/T//ccynjOqG.s:818    .text.TaskLog_Core:0000000000000000 TaskLog_Core
/var/folders/8_/_8bzxkcs1296m80nzxdrn9q80000gn/T//ccynjOqG.s:1205   .text.TaskLog_Core:000000000000017c $d
/var/folders/8_/_8bzxkcs1296m80nzxdrn9q80000gn/T//ccynjOqG.s:1239   .Fast_Mem_Section:0000000000001800 wrkmem
/var/folders/8_/_8bzxkcs1296m80nzxdrn9q80000gn/T//ccynjOqG.s:1329   .bss.core_cnt:0000000000000000 core_cnt
/var/folders/8_/_8bzxkcs1296m80nzxdrn9q80000gn/T//ccynjOqG.s:1227   .Fast_Mem_Section:0000000000000000 $d
/var/folders/8_/_8bzxkcs1296m80nzxdrn9q80000gn/T//ccynjOqG.s:1231   .Fast_Mem_Section:0000000000000000 LogCache_L2_Buf
/var/folders/8_/_8bzxkcs1296m80nzxdrn9q80000gn/T//ccynjOqG.s:1235   .Fast_Mem_Section:0000000000000c00 LogCache_L1_Buf
/var/folders/8_/_8bzxkcs1296m80nzxdrn9q80000gn/T//ccynjOqG.s:1242   .Perph_Section:0000000000000000 $d
/var/folders/8_/_8bzxkcs1296m80nzxdrn9q80000gn/T//ccynjOqG.s:1246   .Perph_Section:0000000000000000 LogIMU_Data
/var/folders/8_/_8bzxkcs1296m80nzxdrn9q80000gn/T//ccynjOqG.s:1249   .bss.FATFS_Obj:0000000000000000 $d
/var/folders/8_/_8bzxkcs1296m80nzxdrn9q80000gn/T//ccynjOqG.s:1253   .bss.FATFS_Obj:0000000000000000 FATFS_Obj
/var/folders/8_/_8bzxkcs1296m80nzxdrn9q80000gn/T//ccynjOqG.s:1256   .bss.IMUData_Queue:0000000000000000 $d
/var/folders/8_/_8bzxkcs1296m80nzxdrn9q80000gn/T//ccynjOqG.s:1260   .bss.IMUData_Queue:0000000000000000 IMUData_Queue
/var/folders/8_/_8bzxkcs1296m80nzxdrn9q80000gn/T//ccynjOqG.s:1263   .bss.LogCompess_Data:0000000000000000 $d
/var/folders/8_/_8bzxkcs1296m80nzxdrn9q80000gn/T//ccynjOqG.s:1267   .bss.LogCompess_Data:0000000000000000 LogCompess_Data
/var/folders/8_/_8bzxkcs1296m80nzxdrn9q80000gn/T//ccynjOqG.s:1270   .bss.LogFile_Obj:0000000000000000 $d
/var/folders/8_/_8bzxkcs1296m80nzxdrn9q80000gn/T//ccynjOqG.s:1274   .bss.LogFile_Obj:0000000000000000 LogFile_Obj
/var/folders/8_/_8bzxkcs1296m80nzxdrn9q80000gn/T//ccynjOqG.s:1280   .bss.LogFile_Ready:0000000000000000 LogFile_Ready
/var/folders/8_/_8bzxkcs1296m80nzxdrn9q80000gn/T//ccynjOqG.s:1281   .bss.LogFile_Ready:0000000000000000 $d
/var/folders/8_/_8bzxkcs1296m80nzxdrn9q80000gn/T//ccynjOqG.s:1283   .bss.LogFolder_Cluster:0000000000000000 $d
/var/folders/8_/_8bzxkcs1296m80nzxdrn9q80000gn/T//ccynjOqG.s:1287   .bss.LogFolder_Cluster:0000000000000000 LogFolder_Cluster
/var/folders/8_/_8bzxkcs1296m80nzxdrn9q80000gn/T//ccynjOqG.s:1290   .bss.LogObj_Enable_Reg:0000000000000000 $d
/var/folders/8_/_8bzxkcs1296m80nzxdrn9q80000gn/T//ccynjOqG.s:1294   .bss.LogObj_Enable_Reg:0000000000000000 LogObj_Enable_Reg
/var/folders/8_/_8bzxkcs1296m80nzxdrn9q80000gn/T//ccynjOqG.s:1297   .bss.LogObj_Logging_Reg:0000000000000000 $d
/var/folders/8_/_8bzxkcs1296m80nzxdrn9q80000gn/T//ccynjOqG.s:1301   .bss.LogObj_Logging_Reg:0000000000000000 LogObj_Logging_Reg
/var/folders/8_/_8bzxkcs1296m80nzxdrn9q80000gn/T//ccynjOqG.s:1304   .bss.LogObj_Set_Reg:0000000000000000 $d
/var/folders/8_/_8bzxkcs1296m80nzxdrn9q80000gn/T//ccynjOqG.s:1308   .bss.LogObj_Set_Reg:0000000000000000 LogObj_Set_Reg
/var/folders/8_/_8bzxkcs1296m80nzxdrn9q80000gn/T//ccynjOqG.s:1311   .bss.Log_Statistics:0000000000000000 $d
/var/folders/8_/_8bzxkcs1296m80nzxdrn9q80000gn/T//ccynjOqG.s:1315   .bss.Log_Statistics:0000000000000000 Log_Statistics
/var/folders/8_/_8bzxkcs1296m80nzxdrn9q80000gn/T//ccynjOqG.s:1318   .bss.QueueIMU_PopSize:0000000000000000 $d
/var/folders/8_/_8bzxkcs1296m80nzxdrn9q80000gn/T//ccynjOqG.s:1322   .bss.QueueIMU_PopSize:0000000000000000 QueueIMU_PopSize
/var/folders/8_/_8bzxkcs1296m80nzxdrn9q80000gn/T//ccynjOqG.s:1325   .bss.core_cnt:0000000000000000 $d
/var/folders/8_/_8bzxkcs1296m80nzxdrn9q80000gn/T//ccynjOqG.s:1332   .bss.in_queue_size:0000000000000000 $d
/var/folders/8_/_8bzxkcs1296m80nzxdrn9q80000gn/T//ccynjOqG.s:1336   .bss.in_queue_size:0000000000000000 in_queue_size
/var/folders/8_/_8bzxkcs1296m80nzxdrn9q80000gn/T//ccynjOqG.s:1339   .bss.lst_imu_pipe_rt.0:0000000000000000 $d
/var/folders/8_/_8bzxkcs1296m80nzxdrn9q80000gn/T//ccynjOqG.s:1343   .bss.lst_imu_pipe_rt.0:0000000000000000 lst_imu_pipe_rt.0
/var/folders/8_/_8bzxkcs1296m80nzxdrn9q80000gn/T//ccynjOqG.s:1346   .bss.out_queue_size:0000000000000000 $d
/var/folders/8_/_8bzxkcs1296m80nzxdrn9q80000gn/T//ccynjOqG.s:1350   .bss.out_queue_size:0000000000000000 out_queue_size
/var/folders/8_/_8bzxkcs1296m80nzxdrn9q80000gn/T//ccynjOqG.s:1353   .data.LogIMU_Summary:0000000000000000 $d
/var/folders/8_/_8bzxkcs1296m80nzxdrn9q80000gn/T//ccynjOqG.s:1357   .data.LogIMU_Summary:0000000000000000 LogIMU_Summary
/var/folders/8_/_8bzxkcs1296m80nzxdrn9q80000gn/T//ccynjOqG.s:1374   .data.enable_compess:0000000000000000 enable_compess
/var/folders/8_/_8bzxkcs1296m80nzxdrn9q80000gn/T//ccynjOqG.s:1377   .rodata.LogIMU_Header:0000000000000000 $d
/var/folders/8_/_8bzxkcs1296m80nzxdrn9q80000gn/T//ccynjOqG.s:1381   .rodata.LogIMU_Header:0000000000000000 LogIMU_Header

UNDEFINED SYMBOLS
memset
IMU_Log_DataPipe
ARM GAS  /var/folders/8_/_8bzxkcs1296m80nzxdrn9q80000gn/T//ccynjOqG.s 			page 38


Queue
memcpy
__lzo_init_v2
Disk
TaskProto_PushProtocolQueue
lzo1x_1_compress
DebugPin
Debug_PB4
DevLED
Led1
