ARM GAS  C:\Users\8bit\AppData\Local\Temp\cc4gHEgv.s 			page 1


   1              		.cpu cortex-m4
   2              		.arch armv7e-m
   3              		.fpu fpv4-sp-d16
   4              		.eabi_attribute 27, 1
   5              		.eabi_attribute 28, 1
   6              		.eabi_attribute 20, 1
   7              		.eabi_attribute 21, 1
   8              		.eabi_attribute 23, 3
   9              		.eabi_attribute 24, 1
  10              		.eabi_attribute 25, 1
  11              		.eabi_attribute 26, 1
  12              		.eabi_attribute 30, 1
  13              		.eabi_attribute 34, 1
  14              		.eabi_attribute 18, 4
  15              		.file	"Task_Manager.cpp"
  16              		.section	.rodata.str1.4,"aMS",%progbits,1
  17              		.align	2
  18              	.LC0:
  19 0000 4D616E61 		.ascii	"ManagerTask\000"
  19      67657254 
  19      61736B00 
  20              		.align	2
  21              	.LC2:
  22 000c 53616D70 		.ascii	"SampleTask\000"
  22      6C655461 
  22      736B00
  23 0017 00       		.align	2
  24              	.LC4:
  25 0018 54656C65 		.ascii	"TelemtryTask\000"
  25      6D747279 
  25      5461736B 
  25      00
  26 0025 000000   		.align	2
  27              	.LC6:
  28 0028 436F6E74 		.ascii	"ControlTask\000"
  28      726F6C54 
  28      61736B00 
  29              		.align	2
  30              	.LC8:
  31 0034 4E617654 		.ascii	"NavTask\000"
  31      61736B00 
  32              		.align	2
  33              	.LC10:
  34 003c 426C6163 		.ascii	"BlackBoxTask\000"
  34      6B426F78 
  34      5461736B 
  34      00
  35 0049 000000   		.align	2
  36              	.LC12:
  37 004c 4672616D 		.ascii	"FrameCTLTask\000"
  37      6543544C 
  37      5461736B 
  37      00
  38              		.text
  39              	.Ltext0:
  40              		.cfi_sections	.debug_frame
  41              		.section	.rodata.Task_Manager_CreateTask.str1.4,"aMS",%progbits,1
ARM GAS  C:\Users\8bit\AppData\Local\Temp\cc4gHEgv.s 			page 2


  42              		.align	2
  43              	.LC14:
  44 0000 48617264 		.ascii	"Hardware CCRC_AT32\000"
  44      77617265 
  44      20434352 
  44      435F4154 
  44      333200
  45 0013 00       		.align	2
  46              	.LC15:
  47 0014 25730D0A 		.ascii	"%s\015\012\000"
  47      00
  48 0019 000000   		.align	2
  49              	.LC16:
  50 001c 5B204841 		.ascii	"[ HARDWARE INFO ] \000"
  50      52445741 
  50      52452049 
  50      4E464F20 
  50      5D2000
  51 002f 00       		.align	2
  52              	.LC17:
  53 0030 48617264 		.ascii	"Hardware Version %d.%d.%d\015\012\000"
  53      77617265 
  53      20566572 
  53      73696F6E 
  53      2025642E 
  54              		.align	2
  55              	.LC18:
  56 004c 53797320 		.ascii	"Sys Start\015\012\000"
  56      53746172 
  56      740D0A00 
  57              		.align	2
  58              	.LC19:
  59 0058 5B204445 		.ascii	"[ DEBUG INFO ] \000"
  59      42554720 
  59      494E464F 
  59      205D2000 
  60              		.align	2
  61              	.LC20:
  62 0068 53797320 		.ascii	"Sys Time: %d\015\012\000"
  62      54696D65 
  62      3A202564 
  62      0D0A00
  63              		.section	.text.Task_Manager_CreateTask,"ax",%progbits
  64              		.align	1
  65              		.global	Task_Manager_CreateTask
  66              		.syntax unified
  67              		.thumb
  68              		.thumb_func
  70              	Task_Manager_CreateTask:
  71              		.fnstart
  72              	.LVL0:
  73              	.LFB2300:
  74              		.file 1 "Task/Task_Manager.cpp"
   1:Task/Task_Manager.cpp **** #include "Task_Manager.h"
   2:Task/Task_Manager.cpp **** // #include "Task_Log.h"
   3:Task/Task_Manager.cpp **** #include "Task_Control.h"
   4:Task/Task_Manager.cpp **** #include "Task_Sample.h"
ARM GAS  C:\Users\8bit\AppData\Local\Temp\cc4gHEgv.s 			page 3


   5:Task/Task_Manager.cpp **** #include "Task_Telemetry.h"
   6:Task/Task_Manager.cpp **** #include "Task_Navi.h"
   7:Task/Task_Manager.cpp **** #include "Task_Protocol.h"
   8:Task/Task_Manager.cpp **** #include "Task_BlackBox.h"
   9:Task/Task_Manager.cpp **** #include "debug_util.h"
  10:Task/Task_Manager.cpp **** #include "HW_Def.h"
  11:Task/Task_Manager.cpp **** #include "Dev_Led.h"
  12:Task/Task_Manager.cpp **** #include "DiskIO.h"
  13:Task/Task_Manager.cpp **** #include "Srv_ComProto.h"
  14:Task/Task_Manager.cpp **** #include "Srv_OsCommon.h"
  15:Task/Task_Manager.cpp **** #include "../DataPipe/DataPipe.h"
  16:Task/Task_Manager.cpp **** #include "shell_port.h"
  17:Task/Task_Manager.cpp **** #include "Storage.h"
  18:Task/Task_Manager.cpp **** #include "cmsis_os.h"
  19:Task/Task_Manager.cpp **** 
  20:Task/Task_Manager.cpp **** #define TaskSample_Period_Def    1  /* unit: ms period 1ms  1000Hz */
  21:Task/Task_Manager.cpp **** #define TaskControl_Period_Def   5  /* unit: ms period 5ms  200Hz  */
  22:Task/Task_Manager.cpp **** #define TaskTelemetry_Period_def 2  /* unit: ms period 2ms  500Hz  */
  23:Task/Task_Manager.cpp **** #define TaslLog_Period_Def       5  /* unit: ms period 5ms  200Hz  */
  24:Task/Task_Manager.cpp **** #define TaslNavi_Period_Def      10 /* unit: ms period 10ms 100Hz  */
  25:Task/Task_Manager.cpp **** #define TaskFrameCTL_Period_Def  5  /* unit: ms period 5ms  200Hz  */
  26:Task/Task_Manager.cpp **** 
  27:Task/Task_Manager.cpp **** osThreadId TaskInertial_Handle = NULL;
  28:Task/Task_Manager.cpp **** osThreadId TaskControl_Handle = NULL;
  29:Task/Task_Manager.cpp **** osThreadId TaskNavi_Handle = NULL;
  30:Task/Task_Manager.cpp **** osThreadId TaskLog_Handle = NULL;
  31:Task/Task_Manager.cpp **** osThreadId TaskTelemetry_Handle = NULL;
  32:Task/Task_Manager.cpp **** osThreadId TaskFrameCTL_Handle = NULL;
  33:Task/Task_Manager.cpp **** osThreadId TaskManager_Handle = NULL;
  34:Task/Task_Manager.cpp **** 
  35:Task/Task_Manager.cpp **** #define SYS_TAG "[ HARDWARE INFO ] "
  36:Task/Task_Manager.cpp **** #define SYS_INFO(fmt, ...) Debug_Print(&DebugPort, SYS_TAG, fmt, ##__VA_ARGS__)
  37:Task/Task_Manager.cpp **** 
  38:Task/Task_Manager.cpp **** void Task_Manager_Init(void)
  39:Task/Task_Manager.cpp **** {
  40:Task/Task_Manager.cpp ****     DevLED.init(Led1);
  41:Task/Task_Manager.cpp **** #if defined MATEKH743_V1_5
  42:Task/Task_Manager.cpp ****     DevLED.init(Led2);
  43:Task/Task_Manager.cpp ****     DevLED.init(Led3);
  44:Task/Task_Manager.cpp **** 
  45:Task/Task_Manager.cpp ****     DebugPin.init(Debug_PC0);
  46:Task/Task_Manager.cpp ****     DebugPin.init(Debug_PC1);
  47:Task/Task_Manager.cpp ****     DebugPin.init(Debug_PC2);
  48:Task/Task_Manager.cpp ****     DebugPin.init(Debug_PC3);
  49:Task/Task_Manager.cpp ****     DebugPin.init(Debug_PB3);
  50:Task/Task_Manager.cpp ****     DebugPin.init(Debug_PB4);
  51:Task/Task_Manager.cpp ****     DebugPin.init(Debug_PB5);
  52:Task/Task_Manager.cpp ****     DebugPin.init(Debug_PB6);
  53:Task/Task_Manager.cpp ****     DebugPin.init(Debug_PB10);
  54:Task/Task_Manager.cpp **** #elif defined BATEAT32F435_AIO
  55:Task/Task_Manager.cpp ****     DebugPin.init(Debug_PC8);
  56:Task/Task_Manager.cpp ****     DebugPin.init(Debug_PC0);
  57:Task/Task_Manager.cpp **** #endif
  58:Task/Task_Manager.cpp ****     /* vol ADC init */
  59:Task/Task_Manager.cpp **** 
  60:Task/Task_Manager.cpp ****     /* cur ADC init */
  61:Task/Task_Manager.cpp ****     
ARM GAS  C:\Users\8bit\AppData\Local\Temp\cc4gHEgv.s 			page 4


  62:Task/Task_Manager.cpp ****     SrvOsCommon.init();
  63:Task/Task_Manager.cpp **** 
  64:Task/Task_Manager.cpp ****     osThreadDef(ManagerTask, Task_Manager_CreateTask, osPriorityLow, 0, 1024);
  65:Task/Task_Manager.cpp ****     TaskManager_Handle = osThreadCreate(osThread(ManagerTask), NULL);
  66:Task/Task_Manager.cpp **** 
  67:Task/Task_Manager.cpp ****     osKernelStart();
  68:Task/Task_Manager.cpp **** }
  69:Task/Task_Manager.cpp **** 
  70:Task/Task_Manager.cpp **** void Task_Manager_CreateTask(void const *arg)
  71:Task/Task_Manager.cpp **** {
  75              		.loc 1 71 1 view -0
  76              		.cfi_startproc
  77              		@ args = 0, pretend = 0, frame = 168
  78              		@ frame_needed = 0, uses_anonymous_args = 0
  79              		.loc 1 71 1 is_stmt 0 view .LVU1
  80 0000 F0B5     		push	{r4, r5, r6, r7, lr}
  81              		.save {r4, r5, r6, r7, lr}
  82              		.cfi_def_cfa_offset 20
  83              		.cfi_offset 4, -20
  84              		.cfi_offset 5, -16
  85              		.cfi_offset 6, -12
  86              		.cfi_offset 7, -8
  87              		.cfi_offset 14, -4
  88              		.pad #180
  89 0002 ADB0     		sub	sp, sp, #180
  90              		.cfi_def_cfa_offset 200
  72:Task/Task_Manager.cpp ****     bool init = false;
  91              		.loc 1 72 5 is_stmt 1 view .LVU2
  92              	.LVL1:
  73:Task/Task_Manager.cpp ****     StorageDevObj_TypeDef *storage_ExtFlashObj = NULL;
  93              		.loc 1 73 5 view .LVU3
  74:Task/Task_Manager.cpp **** 
  75:Task/Task_Manager.cpp ****     DebugPort.free = SrvOsCommon.free;
  94              		.loc 1 75 5 view .LVU4
  95              		.loc 1 75 34 is_stmt 0 view .LVU5
  96 0004 674D     		ldr	r5, .L8
  97 0006 2B6B     		ldr	r3, [r5, #48]
  98              		.loc 1 75 20 view .LVU6
  99 0008 674C     		ldr	r4, .L8+4
 100 000a 2361     		str	r3, [r4, #16]
  76:Task/Task_Manager.cpp ****     DebugPort.malloc = SrvOsCommon.malloc;
 101              		.loc 1 76 5 is_stmt 1 view .LVU7
 102              		.loc 1 76 36 is_stmt 0 view .LVU8
 103 000c EB6A     		ldr	r3, [r5, #44]
 104              		.loc 1 76 22 view .LVU9
 105 000e E360     		str	r3, [r4, #12]
  77:Task/Task_Manager.cpp ****     Debug_Port_Init(&DebugPort);
 106              		.loc 1 77 5 is_stmt 1 view .LVU10
 107              		.loc 1 77 20 is_stmt 0 view .LVU11
 108 0010 2046     		mov	r0, r4
 109              	.LVL2:
 110              		.loc 1 77 20 view .LVU12
 111 0012 FFF7FEFF 		bl	Debug_Port_Init
 112              	.LVL3:
  78:Task/Task_Manager.cpp **** 
  79:Task/Task_Manager.cpp ****     SYS_INFO("%s\r\n", Select_Hardware);
 113              		.loc 1 79 5 is_stmt 1 view .LVU13
ARM GAS  C:\Users\8bit\AppData\Local\Temp\cc4gHEgv.s 			page 5


 114 0016 654E     		ldr	r6, .L8+8
 115 0018 654B     		ldr	r3, .L8+12
 116 001a 664A     		ldr	r2, .L8+16
 117 001c 3146     		mov	r1, r6
 118 001e 2046     		mov	r0, r4
 119 0020 FFF7FEFF 		bl	Debug_Print
 120              	.LVL4:
  80:Task/Task_Manager.cpp ****     SYS_INFO("Hardware Version %d.%d.%d\r\n", HWVer[0], HWVer[1], HWVer[2]);
 121              		.loc 1 80 5 view .LVU14
 122 0024 644B     		ldr	r3, .L8+20
 123 0026 5A78     		ldrb	r2, [r3, #1]	@ zero_extendqisi2
 124 0028 9978     		ldrb	r1, [r3, #2]	@ zero_extendqisi2
 125 002a 0191     		str	r1, [sp, #4]
 126 002c 0092     		str	r2, [sp]
 127 002e 1B78     		ldrb	r3, [r3]	@ zero_extendqisi2
 128 0030 624A     		ldr	r2, .L8+24
 129 0032 3146     		mov	r1, r6
 130 0034 2046     		mov	r0, r4
 131 0036 FFF7FEFF 		bl	Debug_Print
 132              	.LVL5:
  81:Task/Task_Manager.cpp ****     
  82:Task/Task_Manager.cpp **** #if (FLASH_CHIP_STATE == ON)
  83:Task/Task_Manager.cpp ****     storage_ExtFlashObj = (StorageDevObj_TypeDef *)SrvOsCommon.malloc(sizeof(StorageDevObj_TypeDef)
 133              		.loc 1 83 5 view .LVU15
 134              		.loc 1 83 64 is_stmt 0 view .LVU16
 135 003a EB6A     		ldr	r3, [r5, #44]
 136              		.loc 1 83 70 view .LVU17
 137 003c 3420     		movs	r0, #52
 138 003e 9847     		blx	r3
 139              	.LVL6:
  84:Task/Task_Manager.cpp **** 
  85:Task/Task_Manager.cpp ****     if (storage_ExtFlashObj)
 140              		.loc 1 85 5 is_stmt 1 view .LVU18
 141 0040 0546     		mov	r5, r0
 142 0042 38B1     		cbz	r0, .L2
  86:Task/Task_Manager.cpp ****     {
  87:Task/Task_Manager.cpp ****         storage_ExtFlashObj->chip_type = ExtFlash_Chip_Type;
 143              		.loc 1 87 9 view .LVU19
 144              		.loc 1 87 40 is_stmt 0 view .LVU20
 145 0044 0123     		movs	r3, #1
 146 0046 0370     		strb	r3, [r0]
  88:Task/Task_Manager.cpp ****         storage_ExtFlashObj->api = ExtFlash_Dev_Api;
 147              		.loc 1 88 9 is_stmt 1 view .LVU21
 148              		.loc 1 88 34 is_stmt 0 view .LVU22
 149 0048 5D4B     		ldr	r3, .L8+28
 150 004a 0363     		str	r3, [r0, #48]
  89:Task/Task_Manager.cpp ****         storage_ExtFlashObj->obj = NULL;
 151              		.loc 1 89 9 is_stmt 1 view .LVU23
 152              		.loc 1 89 34 is_stmt 0 view .LVU24
 153 004c 0023     		movs	r3, #0
 154 004e C362     		str	r3, [r0, #44]
 155              	.LVL7:
 156              	.L3:
  71:Task/Task_Manager.cpp ****     bool init = false;
 157              		.loc 1 71 1 view .LVU25
 158 0050 0024     		movs	r4, #0
 159 0052 A3E0     		b	.L5
ARM GAS  C:\Users\8bit\AppData\Local\Temp\cc4gHEgv.s 			page 6


 160              	.LVL8:
 161              	.L2:
  90:Task/Task_Manager.cpp ****     }
  91:Task/Task_Manager.cpp ****     else
  92:Task/Task_Manager.cpp ****     {
  93:Task/Task_Manager.cpp ****         SrvOsCommon.free(storage_ExtFlashObj);
 162              		.loc 1 93 9 is_stmt 1 view .LVU26
 163              		.loc 1 93 21 is_stmt 0 view .LVU27
 164 0054 534B     		ldr	r3, .L8
 165 0056 1B6B     		ldr	r3, [r3, #48]
 166              		.loc 1 93 25 view .LVU28
 167 0058 9847     		blx	r3
 168              	.LVL9:
  94:Task/Task_Manager.cpp ****         storage_ExtFlashObj = NULL;
 169              		.loc 1 94 9 is_stmt 1 view .LVU29
 170              		.loc 1 94 9 is_stmt 0 view .LVU30
 171 005a F9E7     		b	.L3
 172              	.LVL10:
 173              	.L7:
 174              	.LBB2:
 175              	.LBB3:
 176              	.LBB4:
  95:Task/Task_Manager.cpp ****     }
  96:Task/Task_Manager.cpp **** #endif
  97:Task/Task_Manager.cpp **** 
  98:Task/Task_Manager.cpp ****     while(1)
  99:Task/Task_Manager.cpp ****     {
 100:Task/Task_Manager.cpp ****         if (!init)
 101:Task/Task_Manager.cpp ****         {
 102:Task/Task_Manager.cpp ****             uint32_t sys_time = SrvOsCommon.get_os_ms();
 177              		.loc 1 102 13 is_stmt 1 view .LVU31
 178              		.loc 1 102 45 is_stmt 0 view .LVU32
 179 005c 514B     		ldr	r3, .L8
 180 005e 5B68     		ldr	r3, [r3, #4]
 181              		.loc 1 102 54 view .LVU33
 182 0060 9847     		blx	r3
 183              	.LVL11:
 184 0062 0446     		mov	r4, r0
 185              	.LVL12:
 103:Task/Task_Manager.cpp ****             DEBUG_INFO("Sys Start\r\n");
 186              		.loc 1 103 13 is_stmt 1 view .LVU34
 187 0064 574F     		ldr	r7, .L8+32
 188 0066 504E     		ldr	r6, .L8+4
 189 0068 574A     		ldr	r2, .L8+36
 190 006a 3946     		mov	r1, r7
 191 006c 3046     		mov	r0, r6
 192              	.LVL13:
 193              		.loc 1 103 13 is_stmt 0 view .LVU35
 194 006e FFF7FEFF 		bl	Debug_Print
 195              	.LVL14:
 104:Task/Task_Manager.cpp ****             DEBUG_INFO("Sys Time: %d\r\n", sys_time);
 196              		.loc 1 104 13 is_stmt 1 view .LVU36
 197 0072 2346     		mov	r3, r4
 198 0074 554A     		ldr	r2, .L8+40
 199 0076 3946     		mov	r1, r7
 200 0078 3046     		mov	r0, r6
 201 007a FFF7FEFF 		bl	Debug_Print
ARM GAS  C:\Users\8bit\AppData\Local\Temp\cc4gHEgv.s 			page 7


 202              	.LVL15:
 105:Task/Task_Manager.cpp **** 
 106:Task/Task_Manager.cpp ****             DataPipe_Init();
 203              		.loc 1 106 13 view .LVU37
 204              		.loc 1 106 26 is_stmt 0 view .LVU38
 205 007e FFF7FEFF 		bl	DataPipe_Init
 206              	.LVL16:
 107:Task/Task_Manager.cpp **** 
 108:Task/Task_Manager.cpp ****             Storage.init(storage_ExtFlashObj);
 207              		.loc 1 108 13 is_stmt 1 view .LVU39
 208              		.loc 1 108 21 is_stmt 0 view .LVU40
 209 0082 534B     		ldr	r3, .L8+44
 210 0084 1B68     		ldr	r3, [r3]
 211              		.loc 1 108 25 view .LVU41
 212 0086 2846     		mov	r0, r5
 213 0088 9847     		blx	r3
 214              	.LVL17:
 109:Task/Task_Manager.cpp ****             SrvUpgrade.init();
 215              		.loc 1 109 13 is_stmt 1 view .LVU42
 216              		.loc 1 109 24 is_stmt 0 view .LVU43
 217 008a 524B     		ldr	r3, .L8+48
 218 008c 1B68     		ldr	r3, [r3]
 219              		.loc 1 109 28 view .LVU44
 220 008e 9847     		blx	r3
 221              	.LVL18:
 110:Task/Task_Manager.cpp ****             SrvComProto.init(SrvComProto_Type_MAV, NULL);
 222              		.loc 1 110 13 is_stmt 1 view .LVU45
 223              		.loc 1 110 25 is_stmt 0 view .LVU46
 224 0090 514B     		ldr	r3, .L8+52
 225 0092 1B68     		ldr	r3, [r3]
 226              		.loc 1 110 29 view .LVU47
 227 0094 0021     		movs	r1, #0
 228 0096 0220     		movs	r0, #2
 229 0098 9847     		blx	r3
 230              	.LVL19:
 111:Task/Task_Manager.cpp ****             
 112:Task/Task_Manager.cpp ****             TaskSample_Init(TaskSample_Period_Def);
 231              		.loc 1 112 13 is_stmt 1 view .LVU48
 232              		.loc 1 112 28 is_stmt 0 view .LVU49
 233 009a 0120     		movs	r0, #1
 234 009c FFF7FEFF 		bl	TaskSample_Init
 235              	.LVL20:
 113:Task/Task_Manager.cpp ****             TaskTelemetry_Init(TaskTelemetry_Period_def);
 236              		.loc 1 113 13 is_stmt 1 view .LVU50
 237              		.loc 1 113 31 is_stmt 0 view .LVU51
 238 00a0 0220     		movs	r0, #2
 239 00a2 FFF7FEFF 		bl	TaskTelemetry_Init
 240              	.LVL21:
 114:Task/Task_Manager.cpp ****             TaskControl_Init(TaskControl_Period_Def);
 241              		.loc 1 114 13 is_stmt 1 view .LVU52
 242              		.loc 1 114 29 is_stmt 0 view .LVU53
 243 00a6 0520     		movs	r0, #5
 244 00a8 FFF7FEFF 		bl	TaskControl_Init
 245              	.LVL22:
 115:Task/Task_Manager.cpp **** #if (SD_CARD_ENABLE_STATE == ON)
 116:Task/Task_Manager.cpp ****             /* lagecy */
 117:Task/Task_Manager.cpp ****             // TaskLog_Init(TaslLog_Period_Def);
ARM GAS  C:\Users\8bit\AppData\Local\Temp\cc4gHEgv.s 			page 8


 118:Task/Task_Manager.cpp **** #else
 119:Task/Task_Manager.cpp ****             TaskBlackBox_Init();
 246              		.loc 1 119 13 is_stmt 1 view .LVU54
 247              		.loc 1 119 30 is_stmt 0 view .LVU55
 248 00ac FFF7FEFF 		bl	TaskBlackBox_Init
 249              	.LVL23:
 120:Task/Task_Manager.cpp **** #endif
 121:Task/Task_Manager.cpp ****             TaskNavi_Init(TaslNavi_Period_Def);
 250              		.loc 1 121 13 is_stmt 1 view .LVU56
 251              		.loc 1 121 26 is_stmt 0 view .LVU57
 252 00b0 0A20     		movs	r0, #10
 253 00b2 FFF7FEFF 		bl	TaskNavi_Init
 254              	.LVL24:
 122:Task/Task_Manager.cpp ****             TaskFrameCTL_Init(TaskFrameCTL_Period_Def);
 255              		.loc 1 122 13 is_stmt 1 view .LVU58
 256              		.loc 1 122 30 is_stmt 0 view .LVU59
 257 00b6 0520     		movs	r0, #5
 258 00b8 FFF7FEFF 		bl	TaskFrameCTL_Init
 259              	.LVL25:
 123:Task/Task_Manager.cpp **** 
 124:Task/Task_Manager.cpp ****             osThreadDef(SampleTask, TaskSample_Core, osPriorityRealtime, 0, 1024);
 260              		.loc 1 124 13 is_stmt 1 view .LVU60
 261 00bc 474C     		ldr	r4, .L8+56
 262              	.LVL26:
 263              		.loc 1 124 13 is_stmt 0 view .LVU61
 264 00be 0DF1080C 		add	ip, sp, #8
 265 00c2 A646     		mov	lr, r4
 266 00c4 BEE80F00 		ldmia	lr!, {r0, r1, r2, r3}
 267 00c8 ACE80F00 		stmia	ip!, {r0, r1, r2, r3}
 268 00cc 9EE80700 		ldm	lr, {r0, r1, r2}
 269 00d0 8CE80700 		stm	ip, {r0, r1, r2}
 125:Task/Task_Manager.cpp ****             TaskInertial_Handle = osThreadCreate(osThread(SampleTask), NULL);
 270              		.loc 1 125 13 is_stmt 1 view .LVU62
 271              		.loc 1 125 49 is_stmt 0 view .LVU63
 272 00d4 0021     		movs	r1, #0
 273 00d6 02A8     		add	r0, sp, #8
 274 00d8 FFF7FEFF 		bl	osThreadCreate
 275              	.LVL27:
 276              		.loc 1 125 33 view .LVU64
 277 00dc 404B     		ldr	r3, .L8+60
 278 00de 1860     		str	r0, [r3]
 126:Task/Task_Manager.cpp **** 
 127:Task/Task_Manager.cpp ****             osThreadDef(TelemtryTask, TaskTelemetry_Core, osPriorityHigh, 0, 1024);
 279              		.loc 1 127 13 is_stmt 1 view .LVU65
 280 00e0 0DF1240C 		add	ip, sp, #36
 281 00e4 04F11C0E 		add	lr, r4, #28
 282 00e8 BEE80F00 		ldmia	lr!, {r0, r1, r2, r3}
 283 00ec ACE80F00 		stmia	ip!, {r0, r1, r2, r3}
 284 00f0 9EE80700 		ldm	lr, {r0, r1, r2}
 285 00f4 8CE80700 		stm	ip, {r0, r1, r2}
 128:Task/Task_Manager.cpp ****             TaskTelemetry_Handle = osThreadCreate(osThread(TelemtryTask), NULL);
 286              		.loc 1 128 13 view .LVU66
 287              		.loc 1 128 50 is_stmt 0 view .LVU67
 288 00f8 0021     		movs	r1, #0
 289 00fa 09A8     		add	r0, sp, #36
 290 00fc FFF7FEFF 		bl	osThreadCreate
 291              	.LVL28:
ARM GAS  C:\Users\8bit\AppData\Local\Temp\cc4gHEgv.s 			page 9


 292              		.loc 1 128 34 view .LVU68
 293 0100 384B     		ldr	r3, .L8+64
 294 0102 1860     		str	r0, [r3]
 129:Task/Task_Manager.cpp **** 
 130:Task/Task_Manager.cpp ****             osThreadDef(ControlTask, TaskControl_Core, osPriorityHigh, 0, 1024);
 295              		.loc 1 130 13 is_stmt 1 view .LVU69
 296 0104 0DF1400C 		add	ip, sp, #64
 297 0108 04F1380E 		add	lr, r4, #56
 298 010c BEE80F00 		ldmia	lr!, {r0, r1, r2, r3}
 299 0110 ACE80F00 		stmia	ip!, {r0, r1, r2, r3}
 300 0114 9EE80700 		ldm	lr, {r0, r1, r2}
 301 0118 8CE80700 		stm	ip, {r0, r1, r2}
 131:Task/Task_Manager.cpp ****             TaskControl_Handle = osThreadCreate(osThread(ControlTask), NULL);
 302              		.loc 1 131 13 view .LVU70
 303              		.loc 1 131 48 is_stmt 0 view .LVU71
 304 011c 0021     		movs	r1, #0
 305 011e 10A8     		add	r0, sp, #64
 306 0120 FFF7FEFF 		bl	osThreadCreate
 307              	.LVL29:
 308              		.loc 1 131 32 view .LVU72
 309 0124 304B     		ldr	r3, .L8+68
 310 0126 1860     		str	r0, [r3]
 132:Task/Task_Manager.cpp **** 
 133:Task/Task_Manager.cpp ****             osThreadDef(NavTask, TaskNavi_Core, osPriorityAboveNormal, 0, 1024);
 311              		.loc 1 133 13 is_stmt 1 view .LVU73
 312 0128 0DF15C0C 		add	ip, sp, #92
 313 012c 04F1540E 		add	lr, r4, #84
 314 0130 BEE80F00 		ldmia	lr!, {r0, r1, r2, r3}
 315 0134 ACE80F00 		stmia	ip!, {r0, r1, r2, r3}
 316 0138 9EE80700 		ldm	lr, {r0, r1, r2}
 317 013c 8CE80700 		stm	ip, {r0, r1, r2}
 134:Task/Task_Manager.cpp ****             TaskNavi_Handle = osThreadCreate(osThread(NavTask), NULL);
 318              		.loc 1 134 13 view .LVU74
 319              		.loc 1 134 45 is_stmt 0 view .LVU75
 320 0140 0021     		movs	r1, #0
 321 0142 17A8     		add	r0, sp, #92
 322 0144 FFF7FEFF 		bl	osThreadCreate
 323              	.LVL30:
 324              		.loc 1 134 29 view .LVU76
 325 0148 284B     		ldr	r3, .L8+72
 326 014a 1860     		str	r0, [r3]
 135:Task/Task_Manager.cpp **** 
 136:Task/Task_Manager.cpp **** #if (SD_CARD_ENABLE_STATE  == ON)
 137:Task/Task_Manager.cpp ****             /* lagecy */
 138:Task/Task_Manager.cpp ****             // osThreadDef(LogTask, TaskLog_Core, osPriorityAboveNormal, 0, 4096);
 139:Task/Task_Manager.cpp ****             // TaskLog_Handle = osThreadCreate(osThread(LogTask), NULL);
 140:Task/Task_Manager.cpp **** #else
 141:Task/Task_Manager.cpp ****             osThreadDef(BlackBoxTask, TaskBlackBox_Core, osPriorityNormal, 0, 4096);
 327              		.loc 1 141 13 is_stmt 1 view .LVU77
 328 014c 0DF1780C 		add	ip, sp, #120
 329 0150 04F1700E 		add	lr, r4, #112
 330 0154 BEE80F00 		ldmia	lr!, {r0, r1, r2, r3}
 331 0158 ACE80F00 		stmia	ip!, {r0, r1, r2, r3}
 332 015c 9EE80700 		ldm	lr, {r0, r1, r2}
 333 0160 8CE80700 		stm	ip, {r0, r1, r2}
 142:Task/Task_Manager.cpp ****             TaskLog_Handle = osThreadCreate(osThread(BlackBoxTask), NULL);
 334              		.loc 1 142 13 view .LVU78
ARM GAS  C:\Users\8bit\AppData\Local\Temp\cc4gHEgv.s 			page 10


 335              		.loc 1 142 44 is_stmt 0 view .LVU79
 336 0164 0021     		movs	r1, #0
 337 0166 1EA8     		add	r0, sp, #120
 338 0168 FFF7FEFF 		bl	osThreadCreate
 339              	.LVL31:
 340              		.loc 1 142 28 view .LVU80
 341 016c 204B     		ldr	r3, .L8+76
 342 016e 1860     		str	r0, [r3]
 143:Task/Task_Manager.cpp **** #endif
 144:Task/Task_Manager.cpp **** 
 145:Task/Task_Manager.cpp ****             osThreadDef(FrameCTLTask, TaskFrameCTL_Core, osPriorityNormal, 0, 1024);
 343              		.loc 1 145 13 is_stmt 1 view .LVU81
 344 0170 0DF1940E 		add	lr, sp, #148
 345 0174 04F18C0C 		add	ip, r4, #140
 346 0178 BCE80F00 		ldmia	ip!, {r0, r1, r2, r3}
 347 017c AEE80F00 		stmia	lr!, {r0, r1, r2, r3}
 348 0180 9CE80700 		ldm	ip, {r0, r1, r2}
 349 0184 8EE80700 		stm	lr, {r0, r1, r2}
 146:Task/Task_Manager.cpp ****             TaskFrameCTL_Handle = osThreadCreate(osThread(FrameCTLTask), NULL);
 350              		.loc 1 146 13 view .LVU82
 351              		.loc 1 146 49 is_stmt 0 view .LVU83
 352 0188 0021     		movs	r1, #0
 353 018a 25A8     		add	r0, sp, #148
 354 018c FFF7FEFF 		bl	osThreadCreate
 355              	.LVL32:
 356              		.loc 1 146 33 view .LVU84
 357 0190 184B     		ldr	r3, .L8+80
 358 0192 1860     		str	r0, [r3]
 147:Task/Task_Manager.cpp **** 
 148:Task/Task_Manager.cpp ****             init = true;
 359              		.loc 1 148 13 is_stmt 1 view .LVU85
 360              	.LVL33:
 361              		.loc 1 148 18 is_stmt 0 view .LVU86
 362 0194 0124     		movs	r4, #1
 363              	.LVL34:
 364              	.L4:
 365              		.loc 1 148 18 view .LVU87
 366              	.LBE4:
 367              	.LBE3:
 149:Task/Task_Manager.cpp ****         }
 150:Task/Task_Manager.cpp **** 
 151:Task/Task_Manager.cpp ****         /* run system statistic in this task */
 152:Task/Task_Manager.cpp ****         osDelay(10);
 368              		.loc 1 152 9 is_stmt 1 view .LVU88
 369              		.loc 1 152 16 is_stmt 0 view .LVU89
 370 0196 0A20     		movs	r0, #10
 371 0198 FFF7FEFF 		bl	osDelay
 372              	.LVL35:
 373              	.LBE2:
  98:Task/Task_Manager.cpp ****     {
 374              		.loc 1 98 5 is_stmt 1 view .LVU90
 375              	.L5:
  98:Task/Task_Manager.cpp ****     {
 376              		.loc 1 98 5 view .LVU91
 377              	.LBB6:
 100:Task/Task_Manager.cpp ****         {
 378              		.loc 1 100 9 view .LVU92
ARM GAS  C:\Users\8bit\AppData\Local\Temp\cc4gHEgv.s 			page 11


 379              	.LBB5:
 380 019c 002C     		cmp	r4, #0
 381 019e 3FF45DAF 		beq	.L7
 382 01a2 F8E7     		b	.L4
 383              	.L9:
 384              		.align	2
 385              	.L8:
 386 01a4 00000000 		.word	SrvOsCommon
 387 01a8 00000000 		.word	DebugPort
 388 01ac 1C000000 		.word	.LC16
 389 01b0 00000000 		.word	.LC14
 390 01b4 14000000 		.word	.LC15
 391 01b8 00000000 		.word	HWVer
 392 01bc 30000000 		.word	.LC17
 393 01c0 00000000 		.word	DevW25Qxx
 394 01c4 58000000 		.word	.LC19
 395 01c8 4C000000 		.word	.LC18
 396 01cc 68000000 		.word	.LC20
 397 01d0 00000000 		.word	Storage
 398 01d4 00000000 		.word	SrvUpgrade
 399 01d8 00000000 		.word	SrvComProto
 400 01dc 00000000 		.word	.LANCHOR0
 401 01e0 00000000 		.word	.LANCHOR1
 402 01e4 00000000 		.word	.LANCHOR2
 403 01e8 00000000 		.word	.LANCHOR3
 404 01ec 00000000 		.word	.LANCHOR4
 405 01f0 00000000 		.word	.LANCHOR5
 406 01f4 00000000 		.word	.LANCHOR6
 407              	.LBE5:
 408              	.LBE6:
 409              		.cfi_endproc
 410              	.LFE2300:
 411              		.fnend
 413              		.section	.text.Task_Manager_Init,"ax",%progbits
 414              		.align	1
 415              		.global	Task_Manager_Init
 416              		.syntax unified
 417              		.thumb
 418              		.thumb_func
 420              	Task_Manager_Init:
 421              		.fnstart
 422              	.LFB2299:
  39:Task/Task_Manager.cpp ****     DevLED.init(Led1);
 423              		.loc 1 39 1 view -0
 424              		.cfi_startproc
 425              		@ args = 0, pretend = 0, frame = 32
 426              		@ frame_needed = 0, uses_anonymous_args = 0
 427 0000 10B5     		push	{r4, lr}
 428              		.save {r4, lr}
 429              		.cfi_def_cfa_offset 8
 430              		.cfi_offset 4, -8
 431              		.cfi_offset 14, -4
 432              		.pad #32
 433 0002 88B0     		sub	sp, sp, #32
 434              		.cfi_def_cfa_offset 40
  40:Task/Task_Manager.cpp **** #if defined MATEKH743_V1_5
 435              		.loc 1 40 5 view .LVU94
ARM GAS  C:\Users\8bit\AppData\Local\Temp\cc4gHEgv.s 			page 12


  40:Task/Task_Manager.cpp **** #if defined MATEKH743_V1_5
 436              		.loc 1 40 12 is_stmt 0 view .LVU95
 437 0004 0E4B     		ldr	r3, .L12
 438 0006 1C68     		ldr	r4, [r3]
  40:Task/Task_Manager.cpp **** #if defined MATEKH743_V1_5
 439              		.loc 1 40 16 view .LVU96
 440 0008 0E4B     		ldr	r3, .L12+4
 441 000a 93E80700 		ldm	r3, {r0, r1, r2}
 442 000e A047     		blx	r4
 443              	.LVL36:
  62:Task/Task_Manager.cpp **** 
 444              		.loc 1 62 5 is_stmt 1 view .LVU97
  62:Task/Task_Manager.cpp **** 
 445              		.loc 1 62 17 is_stmt 0 view .LVU98
 446 0010 0D4B     		ldr	r3, .L12+8
 447 0012 1B68     		ldr	r3, [r3]
  62:Task/Task_Manager.cpp **** 
 448              		.loc 1 62 21 view .LVU99
 449 0014 9847     		blx	r3
 450              	.LVL37:
  64:Task/Task_Manager.cpp ****     TaskManager_Handle = osThreadCreate(osThread(ManagerTask), NULL);
 451              		.loc 1 64 5 is_stmt 1 view .LVU100
 452 0016 0DF1040C 		add	ip, sp, #4
 453 001a 0C4C     		ldr	r4, .L12+12
 454 001c 0FCC     		ldmia	r4!, {r0, r1, r2, r3}
 455 001e ACE80F00 		stmia	ip!, {r0, r1, r2, r3}
 456 0022 94E80700 		ldm	r4, {r0, r1, r2}
 457 0026 8CE80700 		stm	ip, {r0, r1, r2}
  65:Task/Task_Manager.cpp **** 
 458              		.loc 1 65 5 view .LVU101
  65:Task/Task_Manager.cpp **** 
 459              		.loc 1 65 40 is_stmt 0 view .LVU102
 460 002a 0021     		movs	r1, #0
 461 002c 01A8     		add	r0, sp, #4
 462 002e FFF7FEFF 		bl	osThreadCreate
 463              	.LVL38:
  65:Task/Task_Manager.cpp **** 
 464              		.loc 1 65 24 view .LVU103
 465 0032 074B     		ldr	r3, .L12+16
 466 0034 1860     		str	r0, [r3]
  67:Task/Task_Manager.cpp **** }
 467              		.loc 1 67 5 is_stmt 1 view .LVU104
  67:Task/Task_Manager.cpp **** }
 468              		.loc 1 67 18 is_stmt 0 view .LVU105
 469 0036 FFF7FEFF 		bl	osKernelStart
 470              	.LVL39:
  68:Task/Task_Manager.cpp **** 
 471              		.loc 1 68 1 view .LVU106
 472 003a 08B0     		add	sp, sp, #32
 473              		.cfi_def_cfa_offset 8
 474              		@ sp needed
 475 003c 10BD     		pop	{r4, pc}
 476              	.L13:
 477 003e 00BF     		.align	2
 478              	.L12:
 479 0040 00000000 		.word	DevLED
 480 0044 00000000 		.word	Led1
ARM GAS  C:\Users\8bit\AppData\Local\Temp\cc4gHEgv.s 			page 13


 481 0048 00000000 		.word	SrvOsCommon
 482 004c A8000000 		.word	.LANCHOR0+168
 483 0050 00000000 		.word	.LANCHOR7
 484              		.cfi_endproc
 485              	.LFE2299:
 486              		.fnend
 488              		.global	TaskManager_Handle
 489              		.global	TaskFrameCTL_Handle
 490              		.global	TaskTelemetry_Handle
 491              		.global	TaskLog_Handle
 492              		.global	TaskNavi_Handle
 493              		.global	TaskControl_Handle
 494              		.global	TaskInertial_Handle
 495              		.section	.rodata
 496              		.align	2
 497              		.set	.LANCHOR0,. + 0
 498              	.LC21:
 499 0000 0C000000 		.word	.LC2
 500 0004 00000000 		.word	TaskSample_Core
 501 0008 0300     		.short	3
 502 000a 0000     		.space	2
 503 000c 00000000 		.word	0
 504 0010 00040000 		.word	1024
 505 0014 00000000 		.word	0
 506 0018 00000000 		.word	0
 507              	.LC22:
 508 001c 18000000 		.word	.LC4
 509 0020 00000000 		.word	TaskTelemetry_Core
 510 0024 0200     		.short	2
 511 0026 0000     		.space	2
 512 0028 00000000 		.word	0
 513 002c 00040000 		.word	1024
 514 0030 00000000 		.word	0
 515 0034 00000000 		.word	0
 516              	.LC23:
 517 0038 28000000 		.word	.LC6
 518 003c 00000000 		.word	TaskControl_Core
 519 0040 0200     		.short	2
 520 0042 0000     		.space	2
 521 0044 00000000 		.word	0
 522 0048 00040000 		.word	1024
 523 004c 00000000 		.word	0
 524 0050 00000000 		.word	0
 525              	.LC24:
 526 0054 34000000 		.word	.LC8
 527 0058 00000000 		.word	TaskNavi_Core
 528 005c 0100     		.short	1
 529 005e 0000     		.space	2
 530 0060 00000000 		.word	0
 531 0064 00040000 		.word	1024
 532 0068 00000000 		.word	0
 533 006c 00000000 		.word	0
 534              	.LC25:
 535 0070 3C000000 		.word	.LC10
 536 0074 00000000 		.word	TaskBlackBox_Core
 537 0078 0000     		.short	0
 538 007a 0000     		.space	2
ARM GAS  C:\Users\8bit\AppData\Local\Temp\cc4gHEgv.s 			page 14


 539 007c 00000000 		.word	0
 540 0080 00100000 		.word	4096
 541 0084 00000000 		.word	0
 542 0088 00000000 		.word	0
 543              	.LC26:
 544 008c 4C000000 		.word	.LC12
 545 0090 00000000 		.word	TaskFrameCTL_Core
 546 0094 0000     		.short	0
 547 0096 0000     		.space	2
 548 0098 00000000 		.word	0
 549 009c 00040000 		.word	1024
 550 00a0 00000000 		.word	0
 551 00a4 00000000 		.word	0
 552              	.LC27:
 553 00a8 00000000 		.word	.LC0
 554 00ac 00000000 		.word	Task_Manager_CreateTask
 555 00b0 FEFF     		.short	-2
 556 00b2 0000     		.space	2
 557 00b4 00000000 		.word	0
 558 00b8 00040000 		.word	1024
 559 00bc 00000000 		.word	0
 560 00c0 00000000 		.word	0
 561              		.section	.bss.TaskControl_Handle,"aw",%nobits
 562              		.align	2
 563              		.set	.LANCHOR3,. + 0
 566              	TaskControl_Handle:
 567 0000 00000000 		.space	4
 568              		.section	.bss.TaskFrameCTL_Handle,"aw",%nobits
 569              		.align	2
 570              		.set	.LANCHOR6,. + 0
 573              	TaskFrameCTL_Handle:
 574 0000 00000000 		.space	4
 575              		.section	.bss.TaskInertial_Handle,"aw",%nobits
 576              		.align	2
 577              		.set	.LANCHOR1,. + 0
 580              	TaskInertial_Handle:
 581 0000 00000000 		.space	4
 582              		.section	.bss.TaskLog_Handle,"aw",%nobits
 583              		.align	2
 584              		.set	.LANCHOR5,. + 0
 587              	TaskLog_Handle:
 588 0000 00000000 		.space	4
 589              		.section	.bss.TaskManager_Handle,"aw",%nobits
 590              		.align	2
 591              		.set	.LANCHOR7,. + 0
 594              	TaskManager_Handle:
 595 0000 00000000 		.space	4
 596              		.section	.bss.TaskNavi_Handle,"aw",%nobits
 597              		.align	2
 598              		.set	.LANCHOR4,. + 0
 601              	TaskNavi_Handle:
 602 0000 00000000 		.space	4
 603              		.section	.bss.TaskTelemetry_Handle,"aw",%nobits
 604              		.align	2
 605              		.set	.LANCHOR2,. + 0
 608              	TaskTelemetry_Handle:
 609 0000 00000000 		.space	4
ARM GAS  C:\Users\8bit\AppData\Local\Temp\cc4gHEgv.s 			page 15


 610              		.text
 611              	.Letext0:
 612              		.file 2 "c:\\program files (x86)\\gnu arm embedded toolchain\\10 2021.10\\arm-none-eabi\\include\\
 613              		.file 3 "c:\\program files (x86)\\gnu arm embedded toolchain\\10 2021.10\\arm-none-eabi\\include\\
 614              		.file 4 "c:\\program files (x86)\\gnu arm embedded toolchain\\10 2021.10\\arm-none-eabi\\include\\
 615              		.file 5 "c:\\program files (x86)\\gnu arm embedded toolchain\\10 2021.10\\arm-none-eabi\\include\\
 616              		.file 6 "c:\\program files (x86)\\gnu arm embedded toolchain\\10 2021.10\\arm-none-eabi\\include\\
 617              		.file 7 "c:\\program files (x86)\\gnu arm embedded toolchain\\10 2021.10\\arm-none-eabi\\include\\
 618              		.file 8 "c:\\program files (x86)\\gnu arm embedded toolchain\\10 2021.10\\arm-none-eabi\\include\\
 619              		.file 9 "c:\\program files (x86)\\gnu arm embedded toolchain\\10 2021.10\\lib\\gcc\\arm-none-eabi\
 620              		.file 10 "c:\\program files (x86)\\gnu arm embedded toolchain\\10 2021.10\\arm-none-eabi\\include\
 621              		.file 11 "c:\\program files (x86)\\gnu arm embedded toolchain\\10 2021.10\\arm-none-eabi\\include\
 622              		.file 12 "common/gen_physic_def/imu_data.h"
 623              		.file 13 "System/FreeRTOS/portable/GCC/ARM_CM4F/portmacro.h"
 624              		.file 14 "System/FreeRTOS/include/portable.h"
 625              		.file 15 "System/FreeRTOS/include/FreeRTOS.h"
 626              		.file 16 "System/FreeRTOS/include/task.h"
 627              		.file 17 "System/FreeRTOS/CMSIS_RTOS/cmsis_os.h"
 628              		.file 18 "Service/Srv_OsCommon.h"
 629              		.file 19 "c:\\program files (x86)\\gnu arm embedded toolchain\\10 2021.10\\arm-none-eabi\\include\
 630              		.file 20 "c:\\program files (x86)\\gnu arm embedded toolchain\\10 2021.10\\arm-none-eabi\\include\
 631              		.file 21 "HW_Lib/AT32F435/device_support/at32f435_437.h"
 632              		.file 22 "HW_Lib/AT32F435/drivers/inc/at32f435_437_tmr.h"
 633              		.file 23 "HW_Lib/PortApi_Def/Bsp_GPIO_Port_Def.h"
 634              		.file 24 "Device/Dev_Dshot.h"
 635              		.file 25 "Device/Dev_Led.h"
 636              		.file 26 "debug/debug_util.h"
 637              		.file 27 "Device/Dev_W25Qxx.h"
 638              		.file 28 "HW_Lib/AT32F435/PinPort_Def/CCRC_AT32_20/HW_Def.h"
 639              		.file 29 "Service/Srv_IMUSample.h"
 640              		.file 30 "Service/control_data.h"
 641              		.file 31 "Task/../System/storage/Storage_Dev_Port.h"
 642              		.file 32 "Task/../System/storage/Storage.h"
 643              		.file 33 "Service/../MAVLink/common/../mavlink_types.h"
 644              		.file 34 "Service/Srv_ComProto.h"
 645              		.file 35 "Task/Task_Telemetry.h"
 646              		.file 36 "Service/Srv_FileAdapter.h"
 647              		.file 37 "Service/Srv_Upgrade.h"
 648              		.file 38 "System/DataPipe/DataPipe.h"
 649              		.file 39 "Task/Task_Sample.h"
 650              		.file 40 "Task/Task_Control.h"
 651              		.file 41 "Task/Task_BlackBox.h"
 652              		.file 42 "Task/Task_Navi.h"
 653              		.file 43 "Task/Task_Protocol.h"
 654              		.file 44 "<built-in>"
ARM GAS  C:\Users\8bit\AppData\Local\Temp\cc4gHEgv.s 			page 16

