ARM GAS  /var/folders/lx/hc4sn_b53233_zkc9xbbl97r0000gp/T//ccLuAXzY.s 			page 1


   1              		.cpu cortex-m7
   2              		.eabi_attribute 28, 1
   3              		.eabi_attribute 20, 1
   4              		.eabi_attribute 21, 1
   5              		.eabi_attribute 23, 3
   6              		.eabi_attribute 24, 1
   7              		.eabi_attribute 25, 1
   8              		.eabi_attribute 26, 1
   9              		.eabi_attribute 30, 1
  10              		.eabi_attribute 34, 1
  11              		.eabi_attribute 18, 4
  12              		.file	"Task_Protocol.c"
  13              		.text
  14              	.Ltext0:
  15              		.cfi_sections	.debug_frame
  16              		.section	.text.TaskProtocol_TransBuff,"ax",%progbits
  17              		.align	1
  18              		.arch armv7e-m
  19              		.syntax unified
  20              		.thumb
  21              		.thumb_func
  22              		.fpu fpv5-d16
  24              	TaskProtocol_TransBuff:
  25              	.LVL0:
  26              	.LFB150:
  27              		.file 1 "Task/Task_Protocol.c"
   1:Task/Task_Protocol.c **** #include "Task_Protocol.h"
   2:Task/Task_Protocol.c **** #include "scheduler.h"
   3:Task/Task_Protocol.c **** #include "shell.h"
   4:Task/Task_Protocol.c **** #include "shell_port.h"
   5:Task/Task_Protocol.c **** #include "usb_device.h"
   6:Task/Task_Protocol.c **** #include "usbd_cdc_if.h"
   7:Task/Task_Protocol.c **** #include "debug_util.h"
   8:Task/Task_Protocol.c **** #include <stdio.h>
   9:Task/Task_Protocol.c **** #include "Dev_MPU6000.h"
  10:Task/Task_Protocol.c **** #include "Dev_Led.h"
  11:Task/Task_Protocol.c **** #include "IO_Definition.h"
  12:Task/Task_Protocol.c **** #include "Dev_ICM20602.h"
  13:Task/Task_Protocol.c **** #include "Dev_MPU6000.h"
  14:Task/Task_Protocol.c **** 
  15:Task/Task_Protocol.c **** /* task state var */
  16:Task/Task_Protocol.c **** static TaskProto_State_List task_state = TaskProto_Init;
  17:Task/Task_Protocol.c **** static bool Shell_Mode = false;
  18:Task/Task_Protocol.c **** 
  19:Task/Task_Protocol.c **** /* test */
  20:Task/Task_Protocol.c **** static int8_t SrvIMU_InitState = 0;
  21:Task/Task_Protocol.c **** 
  22:Task/Task_Protocol.c **** /* internal function */
  23:Task/Task_Protocol.c **** static void TaaskProtocol_Main(uint8_t *data, uint16_t size);
  24:Task/Task_Protocol.c **** static bool TaskProtocol_TransBuff(uint8_t *data, uint16_t size);
  25:Task/Task_Protocol.c **** static void TaskProtocol_Rec(uint8_t *data, uint16_t len);
  26:Task/Task_Protocol.c **** 
  27:Task/Task_Protocol.c **** void TaskProtocol_GetSrvMPU_InitState(int8_t state)
  28:Task/Task_Protocol.c **** {
  29:Task/Task_Protocol.c ****     SrvIMU_InitState = state;
  30:Task/Task_Protocol.c **** }
  31:Task/Task_Protocol.c **** 
ARM GAS  /var/folders/lx/hc4sn_b53233_zkc9xbbl97r0000gp/T//ccLuAXzY.s 			page 2


  32:Task/Task_Protocol.c **** bool TaskProtocol_Init(void)
  33:Task/Task_Protocol.c **** {
  34:Task/Task_Protocol.c ****     if (!USB_DEVICE_Init())
  35:Task/Task_Protocol.c ****     {
  36:Task/Task_Protocol.c ****         task_state = TaskProto_Error_Proc;
  37:Task/Task_Protocol.c ****         return false;
  38:Task/Task_Protocol.c ****     }
  39:Task/Task_Protocol.c **** 
  40:Task/Task_Protocol.c ****     usb_setrec_callback(TaskProtocol_Rec);
  41:Task/Task_Protocol.c ****     Shell_Init(TaskProtocol_TransBuff);
  42:Task/Task_Protocol.c **** 
  43:Task/Task_Protocol.c ****     task_state = TaskProto_Core;
  44:Task/Task_Protocol.c ****     return true;
  45:Task/Task_Protocol.c **** }
  46:Task/Task_Protocol.c **** 
  47:Task/Task_Protocol.c **** static bool TaskProtocol_TransBuff(uint8_t *data, uint16_t size)
  48:Task/Task_Protocol.c **** {
  28              		.loc 1 48 1 view -0
  29              		.cfi_startproc
  30              		@ args = 0, pretend = 0, frame = 0
  31              		@ frame_needed = 0, uses_anonymous_args = 0
  32              		.loc 1 48 1 is_stmt 0 view .LVU1
  33 0000 08B5     		push	{r3, lr}
  34              	.LCFI0:
  35              		.cfi_def_cfa_offset 8
  36              		.cfi_offset 3, -8
  37              		.cfi_offset 14, -4
  49:Task/Task_Protocol.c ****     if (CDC_Transmit_FS(data, size) != USBD_OK)
  38              		.loc 1 49 5 is_stmt 1 view .LVU2
  39              		.loc 1 49 9 is_stmt 0 view .LVU3
  40 0002 FFF7FEFF 		bl	CDC_Transmit_FS
  41              	.LVL1:
  42              		.loc 1 49 8 view .LVU4
  43 0006 08B9     		cbnz	r0, .L3
  50:Task/Task_Protocol.c ****         return false;
  51:Task/Task_Protocol.c **** 
  52:Task/Task_Protocol.c ****     return true;
  44              		.loc 1 52 12 view .LVU5
  45 0008 0120     		movs	r0, #1
  46              	.L2:
  53:Task/Task_Protocol.c **** }
  47              		.loc 1 53 1 view .LVU6
  48 000a 08BD     		pop	{r3, pc}
  49              	.L3:
  50:Task/Task_Protocol.c ****         return false;
  50              		.loc 1 50 16 view .LVU7
  51 000c 0020     		movs	r0, #0
  52 000e FCE7     		b	.L2
  53              		.cfi_endproc
  54              	.LFE150:
  56              		.section	.text.TaskProtocol_Rec,"ax",%progbits
  57              		.align	1
  58              		.syntax unified
  59              		.thumb
  60              		.thumb_func
  61              		.fpu fpv5-d16
  63              	TaskProtocol_Rec:
ARM GAS  /var/folders/lx/hc4sn_b53233_zkc9xbbl97r0000gp/T//ccLuAXzY.s 			page 3


  64              	.LVL2:
  65              	.LFB153:
  54:Task/Task_Protocol.c **** 
  55:Task/Task_Protocol.c **** extern uint8_t ICM20602_ID;
  56:Task/Task_Protocol.c **** extern uint8_t MPU6000_ID;
  57:Task/Task_Protocol.c **** 
  58:Task/Task_Protocol.c **** void TaskProtocol_Core(Task_Handle hdl)
  59:Task/Task_Protocol.c **** {
  60:Task/Task_Protocol.c ****     DebugPin.ctl(Debug_PC3, true);
  61:Task/Task_Protocol.c **** 
  62:Task/Task_Protocol.c ****     switch ((uint8_t)task_state)
  63:Task/Task_Protocol.c ****     {
  64:Task/Task_Protocol.c ****     case TaskProto_Core:
  65:Task/Task_Protocol.c ****         usb_printf("Icm20602: %2x \r\n", ICM20602_ID);
  66:Task/Task_Protocol.c ****         usb_printf("Mpu6000: %2x \r\n\r\n", MPU6000_ID);
  67:Task/Task_Protocol.c **** 
  68:Task/Task_Protocol.c ****         TaaskProtocol_Main(NULL, 0);
  69:Task/Task_Protocol.c ****         break;
  70:Task/Task_Protocol.c **** 
  71:Task/Task_Protocol.c ****     case TaskProto_Error_Proc:
  72:Task/Task_Protocol.c ****         break;
  73:Task/Task_Protocol.c **** 
  74:Task/Task_Protocol.c ****     default:
  75:Task/Task_Protocol.c ****         break;
  76:Task/Task_Protocol.c ****     }
  77:Task/Task_Protocol.c **** 
  78:Task/Task_Protocol.c ****     DebugPin.ctl(Debug_PC3, false);
  79:Task/Task_Protocol.c **** }
  80:Task/Task_Protocol.c **** 
  81:Task/Task_Protocol.c **** static void TaaskProtocol_Main(uint8_t *data, uint16_t size)
  82:Task/Task_Protocol.c **** {
  83:Task/Task_Protocol.c **** }
  84:Task/Task_Protocol.c **** 
  85:Task/Task_Protocol.c **** static void TaskProtocol_Rec(uint8_t *data, uint16_t len)
  86:Task/Task_Protocol.c **** {
  66              		.loc 1 86 1 is_stmt 1 view -0
  67              		.cfi_startproc
  68              		@ args = 0, pretend = 0, frame = 0
  69              		@ frame_needed = 0, uses_anonymous_args = 0
  70              		.loc 1 86 1 is_stmt 0 view .LVU9
  71 0000 08B5     		push	{r3, lr}
  72              	.LCFI1:
  73              		.cfi_def_cfa_offset 8
  74              		.cfi_offset 3, -8
  75              		.cfi_offset 14, -4
  87:Task/Task_Protocol.c ****     // shellHandler(Shell_GetInstence(), data[i]);
  88:Task/Task_Protocol.c ****     TaskProtocol_TransBuff(data, len);
  76              		.loc 1 88 5 is_stmt 1 view .LVU10
  77 0002 FFF7FEFF 		bl	TaskProtocol_TransBuff
  78              	.LVL3:
  89:Task/Task_Protocol.c **** }
  79              		.loc 1 89 1 is_stmt 0 view .LVU11
  80 0006 08BD     		pop	{r3, pc}
  81              		.cfi_endproc
  82              	.LFE153:
  84              		.section	.rodata.shell_test.str1.4,"aMS",%progbits,1
  85              		.align	2
ARM GAS  /var/folders/lx/hc4sn_b53233_zkc9xbbl97r0000gp/T//ccLuAXzY.s 			page 4


  86              	.LC0:
  87 0000 385F4221 		.ascii	"8_B!T0 Shell test\015\012\000"
  87      54302053 
  87      68656C6C 
  87      20746573 
  87      740D0A00 
  88              		.section	.text.shell_test,"ax",%progbits
  89              		.align	1
  90              		.syntax unified
  91              		.thumb
  92              		.thumb_func
  93              		.fpu fpv5-d16
  95              	shell_test:
  96              	.LFB154:
  90:Task/Task_Protocol.c **** 
  91:Task/Task_Protocol.c **** static void shell_test(void)
  92:Task/Task_Protocol.c **** {
  97              		.loc 1 92 1 is_stmt 1 view -0
  98              		.cfi_startproc
  99              		@ args = 0, pretend = 0, frame = 0
 100              		@ frame_needed = 0, uses_anonymous_args = 0
 101 0000 08B5     		push	{r3, lr}
 102              	.LCFI2:
 103              		.cfi_def_cfa_offset 8
 104              		.cfi_offset 3, -8
 105              		.cfi_offset 14, -4
  93:Task/Task_Protocol.c ****     usb_printf("8_B!T0 Shell test\r\n");
 106              		.loc 1 93 5 view .LVU13
 107 0002 0248     		ldr	r0, .L9
 108 0004 FFF7FEFF 		bl	usb_printf
 109              	.LVL4:
  94:Task/Task_Protocol.c **** }
 110              		.loc 1 94 1 is_stmt 0 view .LVU14
 111 0008 08BD     		pop	{r3, pc}
 112              	.L10:
 113 000a 00BF     		.align	2
 114              	.L9:
 115 000c 00000000 		.word	.LC0
 116              		.cfi_endproc
 117              	.LFE154:
 119              		.section	.text.TaskProtocol_GetSrvMPU_InitState,"ax",%progbits
 120              		.align	1
 121              		.global	TaskProtocol_GetSrvMPU_InitState
 122              		.syntax unified
 123              		.thumb
 124              		.thumb_func
 125              		.fpu fpv5-d16
 127              	TaskProtocol_GetSrvMPU_InitState:
 128              	.LVL5:
 129              	.LFB148:
  28:Task/Task_Protocol.c ****     SrvIMU_InitState = state;
 130              		.loc 1 28 1 is_stmt 1 view -0
 131              		.cfi_startproc
 132              		@ args = 0, pretend = 0, frame = 0
 133              		@ frame_needed = 0, uses_anonymous_args = 0
 134              		@ link register save eliminated.
  29:Task/Task_Protocol.c **** }
ARM GAS  /var/folders/lx/hc4sn_b53233_zkc9xbbl97r0000gp/T//ccLuAXzY.s 			page 5


 135              		.loc 1 29 5 view .LVU16
  29:Task/Task_Protocol.c **** }
 136              		.loc 1 29 22 is_stmt 0 view .LVU17
 137 0000 014B     		ldr	r3, .L12
 138 0002 1870     		strb	r0, [r3]
  30:Task/Task_Protocol.c **** 
 139              		.loc 1 30 1 view .LVU18
 140 0004 7047     		bx	lr
 141              	.L13:
 142 0006 00BF     		.align	2
 143              	.L12:
 144 0008 00000000 		.word	.LANCHOR0
 145              		.cfi_endproc
 146              	.LFE148:
 148              		.section	.text.TaskProtocol_Init,"ax",%progbits
 149              		.align	1
 150              		.global	TaskProtocol_Init
 151              		.syntax unified
 152              		.thumb
 153              		.thumb_func
 154              		.fpu fpv5-d16
 156              	TaskProtocol_Init:
 157              	.LFB149:
  33:Task/Task_Protocol.c ****     if (!USB_DEVICE_Init())
 158              		.loc 1 33 1 is_stmt 1 view -0
 159              		.cfi_startproc
 160              		@ args = 0, pretend = 0, frame = 0
 161              		@ frame_needed = 0, uses_anonymous_args = 0
 162 0000 10B5     		push	{r4, lr}
 163              	.LCFI3:
 164              		.cfi_def_cfa_offset 8
 165              		.cfi_offset 4, -8
 166              		.cfi_offset 14, -4
  34:Task/Task_Protocol.c ****     {
 167              		.loc 1 34 5 view .LVU20
  34:Task/Task_Protocol.c ****     {
 168              		.loc 1 34 10 is_stmt 0 view .LVU21
 169 0002 FFF7FEFF 		bl	USB_DEVICE_Init
 170              	.LVL6:
  34:Task/Task_Protocol.c ****     {
 171              		.loc 1 34 8 view .LVU22
 172 0006 0446     		mov	r4, r0
 173 0008 20B9     		cbnz	r0, .L15
  36:Task/Task_Protocol.c ****         return false;
 174              		.loc 1 36 9 is_stmt 1 view .LVU23
  36:Task/Task_Protocol.c ****         return false;
 175              		.loc 1 36 20 is_stmt 0 view .LVU24
 176 000a 074B     		ldr	r3, .L18
 177 000c 0222     		movs	r2, #2
 178 000e 1A70     		strb	r2, [r3]
  37:Task/Task_Protocol.c ****     }
 179              		.loc 1 37 9 is_stmt 1 view .LVU25
 180              	.L16:
  45:Task/Task_Protocol.c **** 
 181              		.loc 1 45 1 is_stmt 0 view .LVU26
 182 0010 2046     		mov	r0, r4
 183 0012 10BD     		pop	{r4, pc}
ARM GAS  /var/folders/lx/hc4sn_b53233_zkc9xbbl97r0000gp/T//ccLuAXzY.s 			page 6


 184              	.L15:
  40:Task/Task_Protocol.c ****     Shell_Init(TaskProtocol_TransBuff);
 185              		.loc 1 40 5 is_stmt 1 view .LVU27
 186 0014 0548     		ldr	r0, .L18+4
 187 0016 FFF7FEFF 		bl	usb_setrec_callback
 188              	.LVL7:
  41:Task/Task_Protocol.c **** 
 189              		.loc 1 41 5 view .LVU28
 190 001a 0548     		ldr	r0, .L18+8
 191 001c FFF7FEFF 		bl	Shell_Init
 192              	.LVL8:
  43:Task/Task_Protocol.c ****     return true;
 193              		.loc 1 43 5 view .LVU29
  43:Task/Task_Protocol.c ****     return true;
 194              		.loc 1 43 16 is_stmt 0 view .LVU30
 195 0020 014B     		ldr	r3, .L18
 196 0022 0122     		movs	r2, #1
 197 0024 1A70     		strb	r2, [r3]
  44:Task/Task_Protocol.c **** }
 198              		.loc 1 44 5 is_stmt 1 view .LVU31
  44:Task/Task_Protocol.c **** }
 199              		.loc 1 44 12 is_stmt 0 view .LVU32
 200 0026 F3E7     		b	.L16
 201              	.L19:
 202              		.align	2
 203              	.L18:
 204 0028 00000000 		.word	.LANCHOR1
 205 002c 00000000 		.word	TaskProtocol_Rec
 206 0030 00000000 		.word	TaskProtocol_TransBuff
 207              		.cfi_endproc
 208              	.LFE149:
 210              		.section	.rodata.TaskProtocol_Core.str1.4,"aMS",%progbits,1
 211              		.align	2
 212              	.LC1:
 213 0000 49636D32 		.ascii	"Icm20602: %2x \015\012\000"
 213      30363032 
 213      3A202532 
 213      78200D0A 
 213      00
 214 0011 000000   		.align	2
 215              	.LC2:
 216 0014 4D707536 		.ascii	"Mpu6000: %2x \015\012\015\012\000"
 216      3030303A 
 216      20253278 
 216      200D0A0D 
 216      0A00
 217              		.section	.text.TaskProtocol_Core,"ax",%progbits
 218              		.align	1
 219              		.global	TaskProtocol_Core
 220              		.syntax unified
 221              		.thumb
 222              		.thumb_func
 223              		.fpu fpv5-d16
 225              	TaskProtocol_Core:
 226              	.LVL9:
 227              	.LFB151:
  59:Task/Task_Protocol.c ****     DebugPin.ctl(Debug_PC3, true);
ARM GAS  /var/folders/lx/hc4sn_b53233_zkc9xbbl97r0000gp/T//ccLuAXzY.s 			page 7


 228              		.loc 1 59 1 is_stmt 1 view -0
 229              		.cfi_startproc
 230              		@ args = 0, pretend = 0, frame = 0
 231              		@ frame_needed = 0, uses_anonymous_args = 0
  59:Task/Task_Protocol.c ****     DebugPin.ctl(Debug_PC3, true);
 232              		.loc 1 59 1 is_stmt 0 view .LVU34
 233 0000 10B5     		push	{r4, lr}
 234              	.LCFI4:
 235              		.cfi_def_cfa_offset 8
 236              		.cfi_offset 4, -8
 237              		.cfi_offset 14, -4
  60:Task/Task_Protocol.c **** 
 238              		.loc 1 60 5 is_stmt 1 view .LVU35
  60:Task/Task_Protocol.c **** 
 239              		.loc 1 60 13 is_stmt 0 view .LVU36
 240 0002 174B     		ldr	r3, .L24
 241 0004 5C68     		ldr	r4, [r3, #4]
  60:Task/Task_Protocol.c **** 
 242              		.loc 1 60 5 view .LVU37
 243 0006 174B     		ldr	r3, .L24+4
 244 0008 1979     		ldrb	r1, [r3, #4]	@ zero_extendqisi2
 245 000a 5A79     		ldrb	r2, [r3, #5]	@ zero_extendqisi2
 246 000c 41EA0221 		orr	r1, r1, r2, lsl #8
 247 0010 9A79     		ldrb	r2, [r3, #6]	@ zero_extendqisi2
 248 0012 41EA0241 		orr	r1, r1, r2, lsl #16
 249 0016 0122     		movs	r2, #1
 250 0018 1868     		ldr	r0, [r3]	@ unaligned
 251              	.LVL10:
  60:Task/Task_Protocol.c **** 
 252              		.loc 1 60 5 view .LVU38
 253 001a 21F07F41 		bic	r1, r1, #-16777216
 254 001e A047     		blx	r4
 255              	.LVL11:
  62:Task/Task_Protocol.c ****     {
 256              		.loc 1 62 5 is_stmt 1 view .LVU39
  62:Task/Task_Protocol.c ****     {
 257              		.loc 1 62 13 is_stmt 0 view .LVU40
 258 0020 114B     		ldr	r3, .L24+8
 259 0022 1B78     		ldrb	r3, [r3]	@ zero_extendqisi2
  62:Task/Task_Protocol.c ****     {
 260              		.loc 1 62 5 view .LVU41
 261 0024 012B     		cmp	r3, #1
 262 0026 0FD0     		beq	.L23
 263              	.L21:
  78:Task/Task_Protocol.c **** }
 264              		.loc 1 78 5 is_stmt 1 view .LVU42
  78:Task/Task_Protocol.c **** }
 265              		.loc 1 78 13 is_stmt 0 view .LVU43
 266 0028 0D4B     		ldr	r3, .L24
 267 002a 5C68     		ldr	r4, [r3, #4]
  78:Task/Task_Protocol.c **** }
 268              		.loc 1 78 5 view .LVU44
 269 002c 0D4B     		ldr	r3, .L24+4
 270 002e 1979     		ldrb	r1, [r3, #4]	@ zero_extendqisi2
 271 0030 5A79     		ldrb	r2, [r3, #5]	@ zero_extendqisi2
 272 0032 41EA0221 		orr	r1, r1, r2, lsl #8
 273 0036 9A79     		ldrb	r2, [r3, #6]	@ zero_extendqisi2
ARM GAS  /var/folders/lx/hc4sn_b53233_zkc9xbbl97r0000gp/T//ccLuAXzY.s 			page 8


 274 0038 41EA0241 		orr	r1, r1, r2, lsl #16
 275 003c 0022     		movs	r2, #0
 276 003e 1868     		ldr	r0, [r3]	@ unaligned
 277 0040 21F07F41 		bic	r1, r1, #-16777216
 278 0044 A047     		blx	r4
 279              	.LVL12:
  79:Task/Task_Protocol.c **** 
 280              		.loc 1 79 1 view .LVU45
 281 0046 10BD     		pop	{r4, pc}
 282              	.L23:
  65:Task/Task_Protocol.c ****         usb_printf("Mpu6000: %2x \r\n\r\n", MPU6000_ID);
 283              		.loc 1 65 9 is_stmt 1 view .LVU46
 284 0048 084B     		ldr	r3, .L24+12
 285 004a 1978     		ldrb	r1, [r3]	@ zero_extendqisi2
 286 004c 0848     		ldr	r0, .L24+16
 287 004e FFF7FEFF 		bl	usb_printf
 288              	.LVL13:
  66:Task/Task_Protocol.c **** 
 289              		.loc 1 66 9 view .LVU47
 290 0052 084B     		ldr	r3, .L24+20
 291 0054 1978     		ldrb	r1, [r3]	@ zero_extendqisi2
 292 0056 0848     		ldr	r0, .L24+24
 293 0058 FFF7FEFF 		bl	usb_printf
 294              	.LVL14:
  68:Task/Task_Protocol.c ****         break;
 295              		.loc 1 68 9 view .LVU48
  69:Task/Task_Protocol.c **** 
 296              		.loc 1 69 9 view .LVU49
 297 005c E4E7     		b	.L21
 298              	.L25:
 299 005e 00BF     		.align	2
 300              	.L24:
 301 0060 00000000 		.word	DebugPin
 302 0064 00000000 		.word	Debug_PC3
 303 0068 00000000 		.word	.LANCHOR1
 304 006c 00000000 		.word	ICM20602_ID
 305 0070 00000000 		.word	.LC1
 306 0074 00000000 		.word	MPU6000_ID
 307 0078 14000000 		.word	.LC2
 308              		.cfi_endproc
 309              	.LFE151:
 311              		.global	shellCommandtest
 312              		.global	shellDesctest
 313              		.global	shellCmdtest
 314              		.section	.bss.SrvIMU_InitState,"aw",%nobits
 315              		.set	.LANCHOR0,. + 0
 318              	SrvIMU_InitState:
 319 0000 00       		.space	1
 320              		.section	.bss.task_state,"aw",%nobits
 321              		.set	.LANCHOR1,. + 0
 324              	task_state:
 325 0000 00       		.space	1
 326              		.section	.rodata.shellCmdtest,"a"
 327              		.align	2
 330              	shellCmdtest:
 331 0000 74657374 		.ascii	"test\000"
 331      00
ARM GAS  /var/folders/lx/hc4sn_b53233_zkc9xbbl97r0000gp/T//ccLuAXzY.s 			page 9


 332              		.section	.rodata.shellDesctest,"a"
 333              		.align	2
 336              	shellDesctest:
 337 0000 5368656C 		.ascii	"Shell Test\000"
 337      6C205465 
 337      737400
 338              		.section	shellCommand,"a"
 339              		.align	2
 342              	shellCommandtest:
 343 0000 00210000 		.word	8448
 344 0004 00000000 		.word	shellCmdtest
 345 0008 00000000 		.word	shell_test
 346 000c 00000000 		.word	shellDesctest
 347              		.text
 348              	.Letext0:
 349              		.file 2 "/usr/local/arm-none-eabi-gcc/gcc-arm-none-eabi-10-2020-q4-major/arm-none-eabi/include/mac
 350              		.file 3 "/usr/local/arm-none-eabi-gcc/gcc-arm-none-eabi-10-2020-q4-major/arm-none-eabi/include/sys
 351              		.file 4 "HAL_Lib/CMSIS/Device/ST/STM32H7xx/Include/stm32h743xx.h"
 352              		.file 5 "HAL_Lib/STM32H7xx_HAL_Driver/Inc/stm32h7xx_hal_gpio.h"
 353              		.file 6 "System/scheduler/scheduler.h"
 354              		.file 7 "Task/Task_Protocol.h"
 355              		.file 8 "System/shell/shell.h"
 356              		.file 9 "USB/STM32_USB_Device_Library/Core/Inc/usbd_def.h"
 357              		.file 10 "Bsp/Bsp_GPIO.h"
 358              		.file 11 "debug/debug_util.h"
 359              		.file 12 "Service/imu_data.h"
 360              		.file 13 "IO_Def/IO_Definition.h"
 361              		.file 14 "USB/USB_DEVICE/App/usbd_cdc_if.h"
 362              		.file 15 "USB/USB_DEVICE/App/usb_device.h"
 363              		.file 16 "System/shell/shell_port.h"
ARM GAS  /var/folders/lx/hc4sn_b53233_zkc9xbbl97r0000gp/T//ccLuAXzY.s 			page 10


DEFINED SYMBOLS
                            *ABS*:0000000000000000 Task_Protocol.c
/var/folders/lx/hc4sn_b53233_zkc9xbbl97r0000gp/T//ccLuAXzY.s:17     .text.TaskProtocol_TransBuff:0000000000000000 $t
/var/folders/lx/hc4sn_b53233_zkc9xbbl97r0000gp/T//ccLuAXzY.s:24     .text.TaskProtocol_TransBuff:0000000000000000 TaskProtocol_TransBuff
/var/folders/lx/hc4sn_b53233_zkc9xbbl97r0000gp/T//ccLuAXzY.s:57     .text.TaskProtocol_Rec:0000000000000000 $t
/var/folders/lx/hc4sn_b53233_zkc9xbbl97r0000gp/T//ccLuAXzY.s:63     .text.TaskProtocol_Rec:0000000000000000 TaskProtocol_Rec
/var/folders/lx/hc4sn_b53233_zkc9xbbl97r0000gp/T//ccLuAXzY.s:85     .rodata.shell_test.str1.4:0000000000000000 $d
/var/folders/lx/hc4sn_b53233_zkc9xbbl97r0000gp/T//ccLuAXzY.s:89     .text.shell_test:0000000000000000 $t
/var/folders/lx/hc4sn_b53233_zkc9xbbl97r0000gp/T//ccLuAXzY.s:95     .text.shell_test:0000000000000000 shell_test
/var/folders/lx/hc4sn_b53233_zkc9xbbl97r0000gp/T//ccLuAXzY.s:115    .text.shell_test:000000000000000c $d
/var/folders/lx/hc4sn_b53233_zkc9xbbl97r0000gp/T//ccLuAXzY.s:120    .text.TaskProtocol_GetSrvMPU_InitState:0000000000000000 $t
/var/folders/lx/hc4sn_b53233_zkc9xbbl97r0000gp/T//ccLuAXzY.s:127    .text.TaskProtocol_GetSrvMPU_InitState:0000000000000000 TaskProtocol_GetSrvMPU_InitState
/var/folders/lx/hc4sn_b53233_zkc9xbbl97r0000gp/T//ccLuAXzY.s:144    .text.TaskProtocol_GetSrvMPU_InitState:0000000000000008 $d
/var/folders/lx/hc4sn_b53233_zkc9xbbl97r0000gp/T//ccLuAXzY.s:149    .text.TaskProtocol_Init:0000000000000000 $t
/var/folders/lx/hc4sn_b53233_zkc9xbbl97r0000gp/T//ccLuAXzY.s:156    .text.TaskProtocol_Init:0000000000000000 TaskProtocol_Init
/var/folders/lx/hc4sn_b53233_zkc9xbbl97r0000gp/T//ccLuAXzY.s:204    .text.TaskProtocol_Init:0000000000000028 $d
/var/folders/lx/hc4sn_b53233_zkc9xbbl97r0000gp/T//ccLuAXzY.s:211    .rodata.TaskProtocol_Core.str1.4:0000000000000000 $d
/var/folders/lx/hc4sn_b53233_zkc9xbbl97r0000gp/T//ccLuAXzY.s:218    .text.TaskProtocol_Core:0000000000000000 $t
/var/folders/lx/hc4sn_b53233_zkc9xbbl97r0000gp/T//ccLuAXzY.s:225    .text.TaskProtocol_Core:0000000000000000 TaskProtocol_Core
/var/folders/lx/hc4sn_b53233_zkc9xbbl97r0000gp/T//ccLuAXzY.s:301    .text.TaskProtocol_Core:0000000000000060 $d
/var/folders/lx/hc4sn_b53233_zkc9xbbl97r0000gp/T//ccLuAXzY.s:342    shellCommand:0000000000000000 shellCommandtest
/var/folders/lx/hc4sn_b53233_zkc9xbbl97r0000gp/T//ccLuAXzY.s:336    .rodata.shellDesctest:0000000000000000 shellDesctest
/var/folders/lx/hc4sn_b53233_zkc9xbbl97r0000gp/T//ccLuAXzY.s:330    .rodata.shellCmdtest:0000000000000000 shellCmdtest
/var/folders/lx/hc4sn_b53233_zkc9xbbl97r0000gp/T//ccLuAXzY.s:318    .bss.SrvIMU_InitState:0000000000000000 SrvIMU_InitState
/var/folders/lx/hc4sn_b53233_zkc9xbbl97r0000gp/T//ccLuAXzY.s:319    .bss.SrvIMU_InitState:0000000000000000 $d
/var/folders/lx/hc4sn_b53233_zkc9xbbl97r0000gp/T//ccLuAXzY.s:324    .bss.task_state:0000000000000000 task_state
/var/folders/lx/hc4sn_b53233_zkc9xbbl97r0000gp/T//ccLuAXzY.s:325    .bss.task_state:0000000000000000 $d
/var/folders/lx/hc4sn_b53233_zkc9xbbl97r0000gp/T//ccLuAXzY.s:327    .rodata.shellCmdtest:0000000000000000 $d
/var/folders/lx/hc4sn_b53233_zkc9xbbl97r0000gp/T//ccLuAXzY.s:333    .rodata.shellDesctest:0000000000000000 $d
/var/folders/lx/hc4sn_b53233_zkc9xbbl97r0000gp/T//ccLuAXzY.s:339    shellCommand:0000000000000000 $d

UNDEFINED SYMBOLS
CDC_Transmit_FS
usb_printf
USB_DEVICE_Init
usb_setrec_callback
Shell_Init
DebugPin
Debug_PC3
ICM20602_ID
MPU6000_ID
