ARM GAS  C:\Users\HUAV\AppData\Local\Temp\cc84389Q.s 			page 1


   1              		.cpu cortex-m7
   2              		.eabi_attribute 28, 1
   3              		.eabi_attribute 20, 1
   4              		.eabi_attribute 21, 1
   5              		.eabi_attribute 23, 3
   6              		.eabi_attribute 24, 1
   7              		.eabi_attribute 25, 1
   8              		.eabi_attribute 26, 1
   9              		.eabi_attribute 30, 1
  10              		.eabi_attribute 34, 1
  11              		.eabi_attribute 18, 4
  12              		.file	"Task_SensorInertial.c"
  13              		.text
  14              	.Ltext0:
  15              		.cfi_sections	.debug_frame
  16              		.section	.text.TaskInertial_Init,"ax",%progbits
  17              		.align	1
  18              		.global	TaskInertial_Init
  19              		.arch armv7e-m
  20              		.syntax unified
  21              		.thumb
  22              		.thumb_func
  23              		.fpu fpv5-d16
  25              	TaskInertial_Init:
  26              	.LFB150:
  27              		.file 1 "Task/Task_SensorInertial.c"
   1:Task/Task_SensorInertial.c **** #include "Task_SensorInertial.h"
   2:Task/Task_SensorInertial.c **** #include "scheduler.h"
   3:Task/Task_SensorInertial.c **** #include "debug_util.h"
   4:Task/Task_SensorInertial.c **** #include "runtime.h"
   5:Task/Task_SensorInertial.c **** #include "IO_Definition.h"
   6:Task/Task_SensorInertial.c **** #include "debug_util.h"
   7:Task/Task_SensorInertial.c **** #include "error_log.h"
   8:Task/Task_SensorInertial.c **** #include "DataPipe/DataPipe.h"
   9:Task/Task_SensorInertial.c **** 
  10:Task/Task_SensorInertial.c **** #define DATAPIPE_TRANS_TIMEOUT_100Ms 100
  11:Task/Task_SensorInertial.c **** 
  12:Task/Task_SensorInertial.c **** /* internal var */
  13:Task/Task_SensorInertial.c **** static Task_SensorInertial_State TaskInertial_State = Task_SensorInertial_Core;
  14:Task/Task_SensorInertial.c **** static Error_Handler TaskInertial_ErrorLog_Handle = NULL;
  15:Task/Task_SensorInertial.c **** 
  16:Task/Task_SensorInertial.c **** DataPipe_CreateDataObj(SrvIMU_UnionData_TypeDef, PriIMU_Data);
  17:Task/Task_SensorInertial.c **** DataPipe_CreateDataObj(SrvIMU_UnionData_TypeDef, SecIMU_Data);
  18:Task/Task_SensorInertial.c **** 
  19:Task/Task_SensorInertial.c **** /* internal function */
  20:Task/Task_SensorInertial.c **** static void TaskInertical_Blink_Notification(uint16_t duration);
  21:Task/Task_SensorInertial.c **** 
  22:Task/Task_SensorInertial.c **** /* external function */
  23:Task/Task_SensorInertial.c **** 
  24:Task/Task_SensorInertial.c **** void TaskInertial_Init(void)
  25:Task/Task_SensorInertial.c **** {
  28              		.loc 1 25 1 view -0
  29              		.cfi_startproc
  30              		@ args = 0, pretend = 0, frame = 0
  31              		@ frame_needed = 0, uses_anonymous_args = 0
  32 0000 70B5     		push	{r4, r5, r6, lr}
  33              	.LCFI0:
ARM GAS  C:\Users\HUAV\AppData\Local\Temp\cc84389Q.s 			page 2


  34              		.cfi_def_cfa_offset 16
  35              		.cfi_offset 4, -16
  36              		.cfi_offset 5, -12
  37              		.cfi_offset 6, -8
  38              		.cfi_offset 14, -4
  26:Task/Task_SensorInertial.c ****     memset(&IMU_Smp_DataPipe, NULL, sizeof(IMU_Smp_DataPipe));
  39              		.loc 1 26 5 view .LVU1
  40 0002 124C     		ldr	r4, .L5
  41 0004 2B22     		movs	r2, #43
  42 0006 0021     		movs	r1, #0
  43 0008 2046     		mov	r0, r4
  44 000a FFF7FEFF 		bl	memset
  45              	.LVL0:
  27:Task/Task_SensorInertial.c ****     memset(DataPipe_DataObjAddr(PriIMU_Data), NULL, sizeof(DataPipe_DataObj(PriIMU_Data)));
  46              		.loc 1 27 5 view .LVU2
  47 000e 104D     		ldr	r5, .L5+4
  48 0010 4F26     		movs	r6, #79
  49 0012 3246     		mov	r2, r6
  50 0014 0021     		movs	r1, #0
  51 0016 2846     		mov	r0, r5
  52 0018 FFF7FEFF 		bl	memset
  53              	.LVL1:
  28:Task/Task_SensorInertial.c ****     memset(DataPipe_DataObjAddr(SecIMU_Data), NULL, sizeof(DataPipe_DataObj(SecIMU_Data)));
  54              		.loc 1 28 5 view .LVU3
  55 001c 3246     		mov	r2, r6
  56 001e 0021     		movs	r1, #0
  57 0020 05F15000 		add	r0, r5, #80
  58 0024 FFF7FEFF 		bl	memset
  59              	.LVL2:
  29:Task/Task_SensorInertial.c **** 
  30:Task/Task_SensorInertial.c ****     IMU_Smp_DataPipe.data_addr = (uint32_t)&DataPipe_DataObj(PriIMU_Data);
  60              		.loc 1 30 5 view .LVU4
  61              		.loc 1 30 32 is_stmt 0 view .LVU5
  62 0028 C4F81150 		str	r5, [r4, #17]	@ unaligned
  31:Task/Task_SensorInertial.c ****     IMU_Smp_DataPipe.data_size = sizeof(DataPipe_DataObj(PriIMU_Data));
  63              		.loc 1 31 5 is_stmt 1 view .LVU6
  64              		.loc 1 31 32 is_stmt 0 view .LVU7
  65 002c 6675     		strb	r6, [r4, #21]
  66 002e 0023     		movs	r3, #0
  67 0030 A375     		strb	r3, [r4, #22]
  32:Task/Task_SensorInertial.c ****     DataPipe_Enable(&IMU_Smp_DataPipe);
  68              		.loc 1 32 5 is_stmt 1 view .LVU8
  69              	.LVL3:
  70              	.LBB4:
  71              	.LBI4:
  72              		.file 2 "System/DataPipe/DataPipe.h"
   1:System/DataPipe/DataPipe.h **** #ifndef __DATAPIPE_H
   2:System/DataPipe/DataPipe.h **** #define __DATAPIPE_H
   3:System/DataPipe/DataPipe.h **** 
   4:System/DataPipe/DataPipe.h **** #include <stdint.h>
   5:System/DataPipe/DataPipe.h **** #include <string.h>
   6:System/DataPipe/DataPipe.h **** #include <stdbool.h>
   7:System/DataPipe/DataPipe.h **** 
   8:System/DataPipe/DataPipe.h **** typedef void (*Pipe_TransFinish_Callback)(void *pipe_obj);
   9:System/DataPipe/DataPipe.h **** typedef void (*Pipe_TransError_Callback)(void *pipe_obj);
  10:System/DataPipe/DataPipe.h **** typedef void (*Pipe_TimeOutProc_Callback)(void *pipe_obj);
  11:System/DataPipe/DataPipe.h **** 
ARM GAS  C:\Users\HUAV\AppData\Local\Temp\cc84389Q.s 			page 3


  12:System/DataPipe/DataPipe.h **** #define DataPipeHandleToObj(x) ((DataPipeObj_TypeDef *)x)
  13:System/DataPipe/DataPipe.h **** #define DataPipe_CreateDataObj(type, name) static type name##_##PipeDataObj __attribute__((section(
  14:System/DataPipe/DataPipe.h **** #define DataPipe_DataObjAddr(name) &name##_##PipeDataObj
  15:System/DataPipe/DataPipe.h **** #define DataPipe_DataObj(name) name##_##PipeDataObj
  16:System/DataPipe/DataPipe.h **** #define DataPipe_DataSize(name) sizeof(name##_##PipeDataObj)
  17:System/DataPipe/DataPipe.h **** 
  18:System/DataPipe/DataPipe.h **** typedef enum
  19:System/DataPipe/DataPipe.h **** {
  20:System/DataPipe/DataPipe.h ****     Pipe_UnReady = 0,
  21:System/DataPipe/DataPipe.h ****     Pipe_Ready,
  22:System/DataPipe/DataPipe.h ****     Pipe_Busy,
  23:System/DataPipe/DataPipe.h ****     Pipe_Error,
  24:System/DataPipe/DataPipe.h **** } DataPipe_State_List;
  25:System/DataPipe/DataPipe.h **** 
  26:System/DataPipe/DataPipe.h **** #pragma pack(1)
  27:System/DataPipe/DataPipe.h **** typedef struct
  28:System/DataPipe/DataPipe.h **** {
  29:System/DataPipe/DataPipe.h ****     uint32_t min_rx_interval;
  30:System/DataPipe/DataPipe.h ****     uint32_t detect_interval;
  31:System/DataPipe/DataPipe.h ****     uint64_t rx_us_rt;
  32:System/DataPipe/DataPipe.h **** 
  33:System/DataPipe/DataPipe.h ****     bool enable;
  34:System/DataPipe/DataPipe.h **** 
  35:System/DataPipe/DataPipe.h ****     uint32_t data_addr;
  36:System/DataPipe/DataPipe.h ****     uint16_t data_size;
  37:System/DataPipe/DataPipe.h **** 
  38:System/DataPipe/DataPipe.h ****     Pipe_TransFinish_Callback trans_finish_cb;
  39:System/DataPipe/DataPipe.h ****     Pipe_TransError_Callback trans_error_cb;
  40:System/DataPipe/DataPipe.h **** 
  41:System/DataPipe/DataPipe.h ****     uint32_t tx_cnt;
  42:System/DataPipe/DataPipe.h ****     uint32_t rx_cnt;
  43:System/DataPipe/DataPipe.h ****     uint32_t er_cnt;
  44:System/DataPipe/DataPipe.h **** } DataPipeObj_TypeDef;
  45:System/DataPipe/DataPipe.h **** #pragma pack()
  46:System/DataPipe/DataPipe.h **** 
  47:System/DataPipe/DataPipe.h **** typedef struct
  48:System/DataPipe/DataPipe.h **** {
  49:System/DataPipe/DataPipe.h ****     DataPipeObj_TypeDef *org;
  50:System/DataPipe/DataPipe.h ****     DataPipeObj_TypeDef *dst;
  51:System/DataPipe/DataPipe.h **** } Data_PlugedPipeObj_TypeDef;
  52:System/DataPipe/DataPipe.h **** 
  53:System/DataPipe/DataPipe.h **** bool DataPipe_Init(void);
  54:System/DataPipe/DataPipe.h **** bool DataPipe_SendTo(DataPipeObj_TypeDef *p_org, DataPipeObj_TypeDef *p_dst);
  55:System/DataPipe/DataPipe.h **** bool DataPipe_DealError(void);
  56:System/DataPipe/DataPipe.h **** 
  57:System/DataPipe/DataPipe.h **** inline bool DataPipe_Enable(DataPipeObj_TypeDef *obj)
  73              		.loc 2 57 13 view .LVU9
  74              	.LBB5:
  58:System/DataPipe/DataPipe.h **** {
  59:System/DataPipe/DataPipe.h ****     if (obj == NULL)
  75              		.loc 2 59 5 view .LVU10
  60:System/DataPipe/DataPipe.h ****         return false;
  61:System/DataPipe/DataPipe.h **** 
  62:System/DataPipe/DataPipe.h ****     obj->enable = true;
  76              		.loc 2 62 5 view .LVU11
  77              		.loc 2 62 17 is_stmt 0 view .LVU12
  78 0032 0123     		movs	r3, #1
ARM GAS  C:\Users\HUAV\AppData\Local\Temp\cc84389Q.s 			page 4


  79 0034 2374     		strb	r3, [r4, #16]
  63:System/DataPipe/DataPipe.h **** 
  64:System/DataPipe/DataPipe.h ****     return true;
  80              		.loc 2 64 5 is_stmt 1 view .LVU13
  81              	.LVL4:
  82              		.loc 2 64 5 is_stmt 0 view .LVU14
  83              	.LBE5:
  84              	.LBE4:
  33:Task/Task_SensorInertial.c **** 
  34:Task/Task_SensorInertial.c ****     /* regist error */
  35:Task/Task_SensorInertial.c ****     if (SrvIMU.init() == SrvIMU_AllModule_Init_Error)
  85              		.loc 1 35 5 is_stmt 1 view .LVU15
  86              		.loc 1 35 15 is_stmt 0 view .LVU16
  87 0036 074B     		ldr	r3, .L5+8
  88 0038 1B68     		ldr	r3, [r3]
  89              		.loc 1 35 9 view .LVU17
  90 003a 9847     		blx	r3
  91              	.LVL5:
  92              		.loc 1 35 8 view .LVU18
  93 003c 0128     		cmp	r0, #1
  94 003e 00D0     		beq	.L4
  95              	.L1:
  36:Task/Task_SensorInertial.c ****         TaskInertial_State = Task_SensorInertial_Error;
  37:Task/Task_SensorInertial.c **** }
  96              		.loc 1 37 1 view .LVU19
  97 0040 70BD     		pop	{r4, r5, r6, pc}
  98              	.L4:
  36:Task/Task_SensorInertial.c ****         TaskInertial_State = Task_SensorInertial_Error;
  99              		.loc 1 36 9 is_stmt 1 view .LVU20
  36:Task/Task_SensorInertial.c ****         TaskInertial_State = Task_SensorInertial_Error;
 100              		.loc 1 36 28 is_stmt 0 view .LVU21
 101 0042 054B     		ldr	r3, .L5+12
 102 0044 0122     		movs	r2, #1
 103 0046 1A70     		strb	r2, [r3]
 104              		.loc 1 37 1 view .LVU22
 105 0048 FAE7     		b	.L1
 106              	.L6:
 107 004a 00BF     		.align	2
 108              	.L5:
 109 004c 00000000 		.word	IMU_Smp_DataPipe
 110 0050 00000000 		.word	.LANCHOR0
 111 0054 00000000 		.word	SrvIMU
 112 0058 00000000 		.word	.LANCHOR1
 113              		.cfi_endproc
 114              	.LFE150:
 116              		.section	.text.TaskInertical_Core,"ax",%progbits
 117              		.align	1
 118              		.global	TaskInertical_Core
 119              		.syntax unified
 120              		.thumb
 121              		.thumb_func
 122              		.fpu fpv5-d16
 124              	TaskInertical_Core:
 125              	.LVL6:
 126              	.LFB151:
  38:Task/Task_SensorInertial.c **** 
  39:Task/Task_SensorInertial.c **** void TaskInertical_Core(Task_Handle hdl)
ARM GAS  C:\Users\HUAV\AppData\Local\Temp\cc84389Q.s 			page 5


  40:Task/Task_SensorInertial.c **** {
 127              		.loc 1 40 1 is_stmt 1 view -0
 128              		.cfi_startproc
 129              		@ args = 0, pretend = 0, frame = 80
 130              		@ frame_needed = 0, uses_anonymous_args = 0
 131              		.loc 1 40 1 is_stmt 0 view .LVU24
 132 0000 F0B5     		push	{r4, r5, r6, r7, lr}
 133              	.LCFI1:
 134              		.cfi_def_cfa_offset 20
 135              		.cfi_offset 4, -20
 136              		.cfi_offset 5, -16
 137              		.cfi_offset 6, -12
 138              		.cfi_offset 7, -8
 139              		.cfi_offset 14, -4
 140 0002 95B0     		sub	sp, sp, #84
 141              	.LCFI2:
 142              		.cfi_def_cfa_offset 104
  41:Task/Task_SensorInertial.c ****     DebugPin.ctl(Debug_PB5, true);
 143              		.loc 1 41 5 is_stmt 1 view .LVU25
 144              		.loc 1 41 13 is_stmt 0 view .LVU26
 145 0004 254B     		ldr	r3, .L12
 146 0006 5C68     		ldr	r4, [r3, #4]
 147              		.loc 1 41 5 view .LVU27
 148 0008 254A     		ldr	r2, .L12+4
 149 000a 0123     		movs	r3, #1
 150 000c 07CA     		ldm	r2, {r0, r1, r2}
 151              	.LVL7:
 152              		.loc 1 41 5 view .LVU28
 153 000e A047     		blx	r4
 154              	.LVL8:
  42:Task/Task_SensorInertial.c ****     switch ((uint8_t)TaskInertial_State)
 155              		.loc 1 42 5 is_stmt 1 view .LVU29
 156              		.loc 1 42 13 is_stmt 0 view .LVU30
 157 0010 244B     		ldr	r3, .L12+8
 158 0012 1C78     		ldrb	r4, [r3]	@ zero_extendqisi2
 159              		.loc 1 42 5 view .LVU31
 160 0014 002C     		cmp	r4, #0
 161 0016 36D1     		bne	.L8
  43:Task/Task_SensorInertial.c ****     {
  44:Task/Task_SensorInertial.c ****     case Task_SensorInertial_Core:
  45:Task/Task_SensorInertial.c ****         // TaskInertical_Blink_Notification(100);
  46:Task/Task_SensorInertial.c ****         if (SrvIMU.sample())
 162              		.loc 1 46 9 is_stmt 1 view .LVU32
 163              		.loc 1 46 19 is_stmt 0 view .LVU33
 164 0018 234B     		ldr	r3, .L12+12
 165 001a 5B68     		ldr	r3, [r3, #4]
 166              		.loc 1 46 13 view .LVU34
 167 001c 9847     		blx	r3
 168              	.LVL9:
 169              		.loc 1 46 12 view .LVU35
 170 001e 90B3     		cbz	r0, .L8
  47:Task/Task_SensorInertial.c ****         {
  48:Task/Task_SensorInertial.c ****             DataPipe_DataObj(PriIMU_Data).data = SrvIMU.get_data(SrvIMU_PriModule);
 171              		.loc 1 48 13 is_stmt 1 view .LVU36
 172              		.loc 1 48 56 is_stmt 0 view .LVU37
 173 0020 214F     		ldr	r7, .L12+12
 174 0022 BB68     		ldr	r3, [r7, #8]
ARM GAS  C:\Users\HUAV\AppData\Local\Temp\cc84389Q.s 			page 6


 175              		.loc 1 48 50 view .LVU38
 176 0024 214D     		ldr	r5, .L12+16
 177 0026 0121     		movs	r1, #1
 178 0028 6846     		mov	r0, sp
 179 002a 9847     		blx	r3
 180              	.LVL10:
 181 002c 4F26     		movs	r6, #79
 182 002e 3246     		mov	r2, r6
 183 0030 6946     		mov	r1, sp
 184 0032 2846     		mov	r0, r5
 185 0034 FFF7FEFF 		bl	memcpy
 186              	.LVL11:
  49:Task/Task_SensorInertial.c ****             DataPipe_DataObj(SecIMU_Data).data = SrvIMU.get_data(SrvIMU_SecModule);
 187              		.loc 1 49 13 is_stmt 1 view .LVU39
 188              		.loc 1 49 56 is_stmt 0 view .LVU40
 189 0038 BB68     		ldr	r3, [r7, #8]
 190              		.loc 1 49 50 view .LVU41
 191 003a 0221     		movs	r1, #2
 192 003c 6846     		mov	r0, sp
 193 003e 9847     		blx	r3
 194              	.LVL12:
 195 0040 3246     		mov	r2, r6
 196 0042 6946     		mov	r1, sp
 197 0044 05F15000 		add	r0, r5, #80
 198 0048 FFF7FEFF 		bl	memcpy
 199              	.LVL13:
  50:Task/Task_SensorInertial.c **** 
  51:Task/Task_SensorInertial.c ****             for (uint8_t chk = 0; chk < sizeof(DataPipe_DataObj(PriIMU_Data)) - sizeof(uint16_t); c
 200              		.loc 1 51 13 is_stmt 1 view .LVU42
 201              	.LBB6:
 202              		.loc 1 51 18 view .LVU43
 203              		.loc 1 51 13 is_stmt 0 view .LVU44
 204 004c 10E0     		b	.L9
 205              	.LVL14:
 206              	.L10:
  52:Task/Task_SensorInertial.c ****             {
  53:Task/Task_SensorInertial.c ****                 DataPipe_DataObj(PriIMU_Data).data.chk_sum += DataPipe_DataObj(PriIMU_Data).buff[ch
 207              		.loc 1 53 17 is_stmt 1 discriminator 3 view .LVU45
 208              		.loc 1 53 97 is_stmt 0 discriminator 3 view .LVU46
 209 004e 174B     		ldr	r3, .L12+16
 210 0050 1A5D     		ldrb	r2, [r3, r4]	@ zero_extendqisi2
 211              		.loc 1 53 60 discriminator 3 view .LVU47
 212 0052 B3F84D10 		ldrh	r1, [r3, #77]	@ unaligned
 213 0056 0A44     		add	r2, r2, r1
 214 0058 A3F84D20 		strh	r2, [r3, #77]	@ unaligned
  54:Task/Task_SensorInertial.c ****                 DataPipe_DataObj(SecIMU_Data).data.chk_sum += DataPipe_DataObj(SecIMU_Data).buff[ch
 215              		.loc 1 54 17 is_stmt 1 discriminator 3 view .LVU48
 216              		.loc 1 54 97 is_stmt 0 discriminator 3 view .LVU49
 217 005c 1A19     		adds	r2, r3, r4
 218 005e 92F85020 		ldrb	r2, [r2, #80]	@ zero_extendqisi2
 219              		.loc 1 54 60 discriminator 3 view .LVU50
 220 0062 B3F89D10 		ldrh	r1, [r3, #157]	@ unaligned
 221 0066 0A44     		add	r2, r2, r1
 222 0068 A3F89D20 		strh	r2, [r3, #157]	@ unaligned
  51:Task/Task_SensorInertial.c ****             {
 223              		.loc 1 51 99 is_stmt 1 discriminator 3 view .LVU51
  51:Task/Task_SensorInertial.c ****             {
ARM GAS  C:\Users\HUAV\AppData\Local\Temp\cc84389Q.s 			page 7


 224              		.loc 1 51 102 is_stmt 0 discriminator 3 view .LVU52
 225 006c 0134     		adds	r4, r4, #1
 226              	.LVL15:
  51:Task/Task_SensorInertial.c ****             {
 227              		.loc 1 51 102 discriminator 3 view .LVU53
 228 006e E4B2     		uxtb	r4, r4
 229              	.LVL16:
 230              	.L9:
  51:Task/Task_SensorInertial.c ****             {
 231              		.loc 1 51 35 is_stmt 1 discriminator 1 view .LVU54
  51:Task/Task_SensorInertial.c ****             {
 232              		.loc 1 51 13 is_stmt 0 discriminator 1 view .LVU55
 233 0070 4C2C     		cmp	r4, #76
 234 0072 ECD9     		bls	.L10
 235              	.LBE6:
  55:Task/Task_SensorInertial.c ****             }
  56:Task/Task_SensorInertial.c **** 
  57:Task/Task_SensorInertial.c ****             DataPipe_SendTo(&IMU_Smp_DataPipe, &IMU_Log_DataPipe); /* to Log task */
 236              		.loc 1 57 13 is_stmt 1 view .LVU56
 237 0074 0E4C     		ldr	r4, .L12+20
 238              	.LVL17:
 239              		.loc 1 57 13 is_stmt 0 view .LVU57
 240 0076 0F49     		ldr	r1, .L12+24
 241 0078 2046     		mov	r0, r4
 242 007a FFF7FEFF 		bl	DataPipe_SendTo
 243              	.LVL18:
  58:Task/Task_SensorInertial.c ****             DataPipe_SendTo(&IMU_Smp_DataPipe, &IMU_hub_DataPipe); /* to control task */
 244              		.loc 1 58 13 is_stmt 1 view .LVU58
 245 007e 0E49     		ldr	r1, .L12+28
 246 0080 2046     		mov	r0, r4
 247 0082 FFF7FEFF 		bl	DataPipe_SendTo
 248              	.LVL19:
 249              	.L8:
  59:Task/Task_SensorInertial.c ****         }
  60:Task/Task_SensorInertial.c ****         break;
  61:Task/Task_SensorInertial.c **** 
  62:Task/Task_SensorInertial.c ****     case Task_SensorInertial_Error:
  63:Task/Task_SensorInertial.c ****         break;
  64:Task/Task_SensorInertial.c **** 
  65:Task/Task_SensorInertial.c ****     default:
  66:Task/Task_SensorInertial.c ****         break;
  67:Task/Task_SensorInertial.c ****     }
  68:Task/Task_SensorInertial.c **** 
  69:Task/Task_SensorInertial.c ****     SrvIMU.error_proc();
 250              		.loc 1 69 5 view .LVU59
 251              		.loc 1 69 11 is_stmt 0 view .LVU60
 252 0086 084B     		ldr	r3, .L12+12
 253 0088 DB68     		ldr	r3, [r3, #12]
 254              		.loc 1 69 5 view .LVU61
 255 008a 9847     		blx	r3
 256              	.LVL20:
  70:Task/Task_SensorInertial.c ****     DebugPin.ctl(Debug_PB5, false);
 257              		.loc 1 70 5 is_stmt 1 view .LVU62
 258              		.loc 1 70 13 is_stmt 0 view .LVU63
 259 008c 034B     		ldr	r3, .L12
 260 008e 5C68     		ldr	r4, [r3, #4]
 261              		.loc 1 70 5 view .LVU64
ARM GAS  C:\Users\HUAV\AppData\Local\Temp\cc84389Q.s 			page 8


 262 0090 034A     		ldr	r2, .L12+4
 263 0092 0023     		movs	r3, #0
 264 0094 07CA     		ldm	r2, {r0, r1, r2}
 265 0096 A047     		blx	r4
 266              	.LVL21:
  71:Task/Task_SensorInertial.c **** }
 267              		.loc 1 71 1 view .LVU65
 268 0098 15B0     		add	sp, sp, #84
 269              	.LCFI3:
 270              		.cfi_def_cfa_offset 20
 271              		@ sp needed
 272 009a F0BD     		pop	{r4, r5, r6, r7, pc}
 273              	.L13:
 274              		.align	2
 275              	.L12:
 276 009c 00000000 		.word	DebugPin
 277 00a0 00000000 		.word	Debug_PB5
 278 00a4 00000000 		.word	.LANCHOR1
 279 00a8 00000000 		.word	SrvIMU
 280 00ac 00000000 		.word	.LANCHOR0
 281 00b0 00000000 		.word	IMU_Smp_DataPipe
 282 00b4 00000000 		.word	IMU_Log_DataPipe
 283 00b8 00000000 		.word	IMU_hub_DataPipe
 284              		.cfi_endproc
 285              	.LFE151:
 287              		.section	.Perph_Section,"aw"
 288              		.align	2
 289              		.set	.LANCHOR0,. + 0
 292              	PriIMU_Data_PipeDataObj:
 293 0000 00000000 		.space	79
 293      00000000 
 293      00000000 
 293      00000000 
 293      00000000 
 294 004f 00       		.space	1
 297              	SecIMU_Data_PipeDataObj:
 298 0050 00000000 		.space	79
 298      00000000 
 298      00000000 
 298      00000000 
 298      00000000 
 299              		.section	.bss.TaskInertial_State,"aw",%nobits
 300              		.set	.LANCHOR1,. + 0
 303              	TaskInertial_State:
 304 0000 00       		.space	1
 305              		.text
 306              	.Letext0:
 307              		.file 3 "d:\\software\\zephyr_env_gcc\\gcc-arm-none-eabi-9-2019-q4-major-win32\\arm-none-eabi\\inc
 308              		.file 4 "d:\\software\\zephyr_env_gcc\\gcc-arm-none-eabi-9-2019-q4-major-win32\\arm-none-eabi\\inc
 309              		.file 5 "d:\\software\\zephyr_env_gcc\\gcc-arm-none-eabi-9-2019-q4-major-win32\\arm-none-eabi\\inc
 310              		.file 6 "d:\\software\\zephyr_env_gcc\\gcc-arm-none-eabi-9-2019-q4-major-win32\\arm-none-eabi\\inc
 311              		.file 7 "d:\\software\\zephyr_env_gcc\\gcc-arm-none-eabi-9-2019-q4-major-win32\\lib\\gcc\\arm-none
 312              		.file 8 "d:\\software\\zephyr_env_gcc\\gcc-arm-none-eabi-9-2019-q4-major-win32\\arm-none-eabi\\inc
 313              		.file 9 "d:\\software\\zephyr_env_gcc\\gcc-arm-none-eabi-9-2019-q4-major-win32\\arm-none-eabi\\inc
 314              		.file 10 "System/runtime/runtime.h"
 315              		.file 11 "DataStructure/linked_list.h"
 316              		.file 12 "HAL_Lib/CMSIS/Core/Include/core_cm7.h"
ARM GAS  C:\Users\HUAV\AppData\Local\Temp\cc84389Q.s 			page 9


 317              		.file 13 "HAL_Lib/CMSIS/Device/ST/STM32H7xx/Include/system_stm32h7xx.h"
 318              		.file 14 "HAL_Lib/CMSIS/Device/ST/STM32H7xx/Include/stm32h743xx.h"
 319              		.file 15 "d:\\software\\zephyr_env_gcc\\gcc-arm-none-eabi-9-2019-q4-major-win32\\arm-none-eabi\\in
 320              		.file 16 "HAL_Lib/STM32H7xx_HAL_Driver/Inc/stm32h7xx_hal_def.h"
 321              		.file 17 "HAL_Lib/STM32H7xx_HAL_Driver/Inc/stm32h7xx_hal_gpio.h"
 322              		.file 18 "HAL_Lib/STM32H7xx_HAL_Driver/Inc/stm32h7xx_hal_dma.h"
 323              		.file 19 "HAL_Lib/STM32H7xx_HAL_Driver/Inc/stm32h7xx_hal_flash.h"
 324              		.file 20 "HAL_Lib/STM32H7xx_HAL_Driver/Inc/stm32h7xx_hal_spi.h"
 325              		.file 21 "HAL_Lib/STM32H7xx_HAL_Driver/Inc/stm32h7xx_hal_uart.h"
 326              		.file 22 "HAL_Lib/STM32H7xx_HAL_Driver/Inc/stm32h7xx_hal.h"
 327              		.file 23 "System/scheduler/scheduler.h"
 328              		.file 24 "Service/imu_data.h"
 329              		.file 25 "Service/Srv_IMUSample.h"
 330              		.file 26 "Task/Task_SensorInertial.h"
 331              		.file 27 "Bsp/Bsp_GPIO.h"
 332              		.file 28 "debug/debug_util.h"
 333              		.file 29 "Bsp/Bsp_SPI.h"
 334              		.file 30 "Device/Dev_Led.h"
 335              		.file 31 "IO_Def/IO_Definition.h"
 336              		.file 32 "DataStructure/binary_tree.h"
 337              		.file 33 "Common/error_log.h"
 338              		.file 34 "<built-in>"
ARM GAS  C:\Users\HUAV\AppData\Local\Temp\cc84389Q.s 			page 10


DEFINED SYMBOLS
                            *ABS*:00000000 Task_SensorInertial.c
C:\Users\HUAV\AppData\Local\Temp\cc84389Q.s:17     .text.TaskInertial_Init:00000000 $t
C:\Users\HUAV\AppData\Local\Temp\cc84389Q.s:25     .text.TaskInertial_Init:00000000 TaskInertial_Init
C:\Users\HUAV\AppData\Local\Temp\cc84389Q.s:109    .text.TaskInertial_Init:0000004c $d
C:\Users\HUAV\AppData\Local\Temp\cc84389Q.s:117    .text.TaskInertical_Core:00000000 $t
C:\Users\HUAV\AppData\Local\Temp\cc84389Q.s:124    .text.TaskInertical_Core:00000000 TaskInertical_Core
C:\Users\HUAV\AppData\Local\Temp\cc84389Q.s:276    .text.TaskInertical_Core:0000009c $d
C:\Users\HUAV\AppData\Local\Temp\cc84389Q.s:288    .Perph_Section:00000000 $d
C:\Users\HUAV\AppData\Local\Temp\cc84389Q.s:292    .Perph_Section:00000000 PriIMU_Data_PipeDataObj
C:\Users\HUAV\AppData\Local\Temp\cc84389Q.s:297    .Perph_Section:00000050 SecIMU_Data_PipeDataObj
C:\Users\HUAV\AppData\Local\Temp\cc84389Q.s:303    .bss.TaskInertial_State:00000000 TaskInertial_State
C:\Users\HUAV\AppData\Local\Temp\cc84389Q.s:304    .bss.TaskInertial_State:00000000 $d

UNDEFINED SYMBOLS
memset
IMU_Smp_DataPipe
SrvIMU
memcpy
DataPipe_SendTo
DebugPin
Debug_PB5
IMU_Log_DataPipe
IMU_hub_DataPipe
