ARM GAS  C:\Users\8bit\AppData\Local\Temp\cczcmggF.s 			page 1


   1              		.cpu cortex-m4
   2              		.arch armv7e-m
   3              		.fpu fpv4-sp-d16
   4              		.eabi_attribute 27, 1
   5              		.eabi_attribute 28, 1
   6              		.eabi_attribute 20, 1
   7              		.eabi_attribute 21, 1
   8              		.eabi_attribute 23, 3
   9              		.eabi_attribute 24, 1
  10              		.eabi_attribute 25, 1
  11              		.eabi_attribute 26, 1
  12              		.eabi_attribute 30, 1
  13              		.eabi_attribute 34, 1
  14              		.eabi_attribute 18, 4
  15              		.file	"Task_Protocol.c"
  16              		.text
  17              	.Ltext0:
  18              		.cfi_sections	.debug_frame
  19              		.section	.text.TaskFrameCTL_Set_RadioPort,"ax",%progbits
  20              		.align	1
  21              		.syntax unified
  22              		.thumb
  23              		.thumb_func
  25              	TaskFrameCTL_Set_RadioPort:
  26              	.LVL0:
  27              	.LFB2076:
  28              		.file 1 "Task/Task_Protocol.c"
   1:Task/Task_Protocol.c **** #include "Task_Protocol.h"
   2:Task/Task_Protocol.c **** #include "Srv_OsCommon.h"
   3:Task/Task_Protocol.c **** #include "HW_Def.h"
   4:Task/Task_Protocol.c **** #include "Srv_ComProto.h"
   5:Task/Task_Protocol.c **** #include "Srv_DataHub.h"
   6:Task/Task_Protocol.c **** #include "Srv_FileAdapter.h"
   7:Task/Task_Protocol.c **** #include "DataPipe.h"
   8:Task/Task_Protocol.c **** #include "Storage.h"
   9:Task/Task_Protocol.c **** #include "debug_util.h"
  10:Task/Task_Protocol.c **** #include "pid.h"
  11:Task/Task_Protocol.c **** 
  12:Task/Task_Protocol.c **** #define PROTO_STREAM_BUF_SIZE (1024 + 128)
  13:Task/Task_Protocol.c **** #define SLIENT_TIMEOUT 200              /* unit: ms 200ms */
  14:Task/Task_Protocol.c **** #define TUNNING_TIMEOUT 2000            /* unit: ms 1S */
  15:Task/Task_Protocol.c **** 
  16:Task/Task_Protocol.c **** #define CLI_FUNC_BUF_SIZE 512
  17:Task/Task_Protocol.c **** #define RADIO_BUFF_SIZE PROTO_STREAM_BUF_SIZE
  18:Task/Task_Protocol.c **** 
  19:Task/Task_Protocol.c **** #if (RADIO_UART_NUM > 0)
  20:Task/Task_Protocol.c **** static uint8_t RadioRxBuff[RADIO_UART_NUM][RADIO_BUFF_SIZE];
  21:Task/Task_Protocol.c **** 
  22:Task/Task_Protocol.c **** static BspUARTObj_TypeDef Radio_Port1_UartObj = {
  23:Task/Task_Protocol.c ****     .instance = RADIO_PORT,
  24:Task/Task_Protocol.c ****     .baudrate = RADIO_PORT_BAUD,
  25:Task/Task_Protocol.c ****     .tx_io = {
  26:Task/Task_Protocol.c ****         .init_state = RADIO_TX_PIN_INIT_STATE,
  27:Task/Task_Protocol.c ****         .pin = RADIO_TX_PIN,
  28:Task/Task_Protocol.c ****         .port = RADIO_TX_PORT,
  29:Task/Task_Protocol.c ****         .alternate = RADIO_TX_PIN_ALT,
  30:Task/Task_Protocol.c ****     }, 
ARM GAS  C:\Users\8bit\AppData\Local\Temp\cczcmggF.s 			page 2


  31:Task/Task_Protocol.c ****     .rx_io = {
  32:Task/Task_Protocol.c ****         .init_state = RADIO_RX_PIN_INIT_STATE,
  33:Task/Task_Protocol.c ****         .pin = RADIO_RX_PIN,
  34:Task/Task_Protocol.c ****         .port = RADIO_RX_PORT,
  35:Task/Task_Protocol.c ****         .alternate = RADIO_RX_PIN_ALT,
  36:Task/Task_Protocol.c ****     }, 
  37:Task/Task_Protocol.c ****     .pin_swap = false,
  38:Task/Task_Protocol.c ****     .rx_dma = RADIO_RX_DMA,
  39:Task/Task_Protocol.c ****     .rx_stream = RADIO_RX_DMA_STREAM,
  40:Task/Task_Protocol.c ****     .tx_dma = RADIO_TX_DMA,
  41:Task/Task_Protocol.c ****     .tx_stream = RADIO_TX_DMA_STREAM,
  42:Task/Task_Protocol.c ****     .rx_buf = RadioRxBuff[0],
  43:Task/Task_Protocol.c ****     .rx_size = RADIO_BUFF_SIZE,
  44:Task/Task_Protocol.c **** };
  45:Task/Task_Protocol.c **** 
  46:Task/Task_Protocol.c **** static FrameCTL_UartPortMonitor_TypeDef Radio_UartPort_List[RADIO_UART_NUM] = {
  47:Task/Task_Protocol.c ****     [0] = {.init_state = false,
  48:Task/Task_Protocol.c ****            .Obj = &Radio_Port1_UartObj},
  49:Task/Task_Protocol.c **** };
  50:Task/Task_Protocol.c **** #endif
  51:Task/Task_Protocol.c **** 
  52:Task/Task_Protocol.c **** typedef struct
  53:Task/Task_Protocol.c **** {
  54:Task/Task_Protocol.c ****     FrameCTL_MavATTIn_TypeDef exp_att;
  55:Task/Task_Protocol.c ****     FrameCTL_MavGyrIn_TypeDef exp_gyr;
  56:Task/Task_Protocol.c ****     FrameCTL_MavAltIn_TypeDef exp_alt;
  57:Task/Task_Protocol.c ****     
  58:Task/Task_Protocol.c ****     FrameCTL_MavPIDIn_TypeDef pid_roll;
  59:Task/Task_Protocol.c ****     FrameCTL_MavPIDIn_TypeDef pid_pitch;
  60:Task/Task_Protocol.c **** 
  61:Task/Task_Protocol.c ****     FrameCTL_MavPIDIn_TypeDef pid_gyr_x;
  62:Task/Task_Protocol.c ****     FrameCTL_MavPIDIn_TypeDef pid_gyr_y;
  63:Task/Task_Protocol.c ****     FrameCTL_MavPIDIn_TypeDef pid_gyr_z;
  64:Task/Task_Protocol.c **** } FrameCTL_MavTunningMonitor_TypeDef;
  65:Task/Task_Protocol.c **** 
  66:Task/Task_Protocol.c **** /* internal variable */
  67:Task/Task_Protocol.c **** FrameCTL_MavTunningMonitor_TypeDef InPut_MavData;
  68:Task/Task_Protocol.c **** 
  69:Task/Task_Protocol.c **** /* MAVLink message List */
  70:Task/Task_Protocol.c **** SrvComProto_MsgInfo_TypeDef TaskProto_MAV_RawIMU;
  71:Task/Task_Protocol.c **** SrvComProto_MsgInfo_TypeDef TaskProto_MAV_ScaledIMU;
  72:Task/Task_Protocol.c **** SrvComProto_MsgInfo_TypeDef TaskProto_MAV_RcChannel;
  73:Task/Task_Protocol.c **** SrvComProto_MsgInfo_TypeDef TaskProto_MAV_MotoChannel;
  74:Task/Task_Protocol.c **** SrvComProto_MsgInfo_TypeDef TaskProto_MAV_Attitude;
  75:Task/Task_Protocol.c **** SrvComProto_MsgInfo_TypeDef TaskProto_MAV_Exp_Attitude;
  76:Task/Task_Protocol.c **** SrvComProto_MsgInfo_TypeDef TaskProto_MAV_Altitude;
  77:Task/Task_Protocol.c **** 
  78:Task/Task_Protocol.c **** SrvComProto_MsgInfo_TypeDef RadioProto_MAV_RawIMU;
  79:Task/Task_Protocol.c **** SrvComProto_MsgInfo_TypeDef RadioProto_MAV_ScaledIMU;
  80:Task/Task_Protocol.c **** SrvComProto_MsgInfo_TypeDef RadioProto_MAV_RcChannel;
  81:Task/Task_Protocol.c **** SrvComProto_MsgInfo_TypeDef RadioProto_MAV_MotoChannel;
  82:Task/Task_Protocol.c **** SrvComProto_MsgInfo_TypeDef RadioProto_MAV_Attitude;
  83:Task/Task_Protocol.c **** SrvComProto_MsgInfo_TypeDef RadioProto_MAV_Altitude;
  84:Task/Task_Protocol.c **** 
  85:Task/Task_Protocol.c **** static SrvComProto_MsgObj_TypeDef *InUsePort_MavMsgInput_Obj;
  86:Task/Task_Protocol.c **** static SrvComProto_MsgObj_TypeDef DefaultPort_MavMsgInput_Obj;
  87:Task/Task_Protocol.c **** static SrvComProto_MsgObj_TypeDef RadioPort_MavMsgInput_Obj;
ARM GAS  C:\Users\8bit\AppData\Local\Temp\cczcmggF.s 			page 3


  88:Task/Task_Protocol.c **** 
  89:Task/Task_Protocol.c **** static bool FrameCTL_MavProto_Enable = false;
  90:Task/Task_Protocol.c **** static FrameCTL_PortMonitor_TypeDef PortMonitor = {.init = false};
  91:Task/Task_Protocol.c **** static uint32_t FrameCTL_Period = 0;
  92:Task/Task_Protocol.c **** static __attribute__((section(".Perph_Section"))) uint8_t MavShareBuf[1024];
  93:Task/Task_Protocol.c **** static __attribute__((section(".Perph_Section"))) uint8_t CLIRxBuf[CLI_FUNC_BUF_SIZE];
  94:Task/Task_Protocol.c **** static uint8_t CLIProcBuf[CLI_FUNC_BUF_SIZE];
  95:Task/Task_Protocol.c **** static uint8_t CLIPrintBuf[CLI_FUNC_BUF_SIZE];
  96:Task/Task_Protocol.c **** static uint8_t Uart_RxBuf_Tmp[PROTO_STREAM_BUF_SIZE];
  97:Task/Task_Protocol.c **** static uint8_t USB_RxBuf_Tmp[PROTO_STREAM_BUF_SIZE];
  98:Task/Task_Protocol.c **** static uint32_t Radio_Addr = 0;
  99:Task/Task_Protocol.c **** static uint32_t USB_VCP_Addr = 0;
 100:Task/Task_Protocol.c **** DataPipe_CreateDataObj(bool, VCP_Attach_State);
 101:Task/Task_Protocol.c **** 
 102:Task/Task_Protocol.c **** static SrvComProto_Stream_TypeDef UartRx_Stream = {
 103:Task/Task_Protocol.c ****     .p_buf = Uart_RxBuf_Tmp,
 104:Task/Task_Protocol.c ****     .size = 0,
 105:Task/Task_Protocol.c ****     .max_size = sizeof(Uart_RxBuf_Tmp),
 106:Task/Task_Protocol.c **** };
 107:Task/Task_Protocol.c **** 
 108:Task/Task_Protocol.c **** static SrvComProto_Stream_TypeDef USBRx_Stream = {
 109:Task/Task_Protocol.c ****     .p_buf = USB_RxBuf_Tmp,
 110:Task/Task_Protocol.c ****     .size = 0,
 111:Task/Task_Protocol.c ****     .max_size = sizeof(USB_RxBuf_Tmp),
 112:Task/Task_Protocol.c **** };
 113:Task/Task_Protocol.c **** 
 114:Task/Task_Protocol.c **** static SrvComProto_Stream_TypeDef MavStream = {
 115:Task/Task_Protocol.c ****     .p_buf = MavShareBuf,
 116:Task/Task_Protocol.c ****     .size = 0,
 117:Task/Task_Protocol.c ****     .max_size = sizeof(MavShareBuf),
 118:Task/Task_Protocol.c **** };
 119:Task/Task_Protocol.c **** 
 120:Task/Task_Protocol.c **** static SrvComProto_Stream_TypeDef CLI_RX_Stream = {
 121:Task/Task_Protocol.c ****     .p_buf = CLIRxBuf,
 122:Task/Task_Protocol.c ****     .size = 0,
 123:Task/Task_Protocol.c ****     .max_size = sizeof(CLIRxBuf),
 124:Task/Task_Protocol.c **** };
 125:Task/Task_Protocol.c **** 
 126:Task/Task_Protocol.c **** static SrvComProto_Stream_TypeDef CLI_Proc_Stream = {
 127:Task/Task_Protocol.c ****     .p_buf = CLIProcBuf,
 128:Task/Task_Protocol.c ****     .size = 0,
 129:Task/Task_Protocol.c ****     .max_size = sizeof(CLIProcBuf),
 130:Task/Task_Protocol.c **** };
 131:Task/Task_Protocol.c **** 
 132:Task/Task_Protocol.c **** static FrameCTL_CLIMonitor_TypeDef CLI_Monitor = {
 133:Task/Task_Protocol.c ****     .port_addr = 0,
 134:Task/Task_Protocol.c ****     .p_rx_stream = &CLI_RX_Stream,
 135:Task/Task_Protocol.c ****     .p_proc_stream = &CLI_Proc_Stream,
 136:Task/Task_Protocol.c ****     .slient_type = Slient_Disable,
 137:Task/Task_Protocol.c ****     .slient_timeout = 0,
 138:Task/Task_Protocol.c **** };
 139:Task/Task_Protocol.c **** 
 140:Task/Task_Protocol.c **** static FrameCTL_UpgradeMonitor_TypeDef Upgrade_Monitor = {
 141:Task/Task_Protocol.c ****     .is_enable = false,
 142:Task/Task_Protocol.c ****     .flash_enable = false,
 143:Task/Task_Protocol.c **** };
 144:Task/Task_Protocol.c **** 
ARM GAS  C:\Users\8bit\AppData\Local\Temp\cczcmggF.s 			page 4


 145:Task/Task_Protocol.c **** /* upgrade section */
 146:Task/Task_Protocol.c **** static bool TaskFrameCTL_Upgrade_Enable(bool state, FileInfo_TypeDef file_info, uint32_t port_addr,
 147:Task/Task_Protocol.c **** static void TaskFrameCTL_Upgrade_StatePolling(bool cli);
 148:Task/Task_Protocol.c **** 
 149:Task/Task_Protocol.c **** /* frame section */
 150:Task/Task_Protocol.c **** static void TaskFrameCTL_PortFrameOut_Process(void);
 151:Task/Task_Protocol.c **** static void TaskFrameCTL_MavMsg_Trans(FrameCTL_Monitor_TypeDef *Obj, uint8_t *p_data, uint16_t size
 152:Task/Task_Protocol.c **** 
 153:Task/Task_Protocol.c **** /* mavlinke frame decode callback */
 154:Task/Task_Protocol.c **** static bool TaskFrame_Mav_ExpAtt_Callback(void const *mav_data, void *cus_data);
 155:Task/Task_Protocol.c **** static bool TaskFrame_Mav_ExpGyro_Callback(void const *mav_data, void *cus_data);
 156:Task/Task_Protocol.c **** static bool TaskFrame_Mav_ExpAlt_Callback(void const *mav_data, void *cus_data);
 157:Task/Task_Protocol.c **** static bool TaskFrame_Mav_PID_Roll_Callback(void const *mav_data, void *cus_data);
 158:Task/Task_Protocol.c **** static bool TaskFrame_Mav_PID_Pitch_Callback(void const *mav_data, void *cus_data);
 159:Task/Task_Protocol.c **** static bool TaskFrame_Mav_PID_GyrX_Callback(void const *mav_data, void *cus_data);
 160:Task/Task_Protocol.c **** static bool TaskFrame_Mav_PID_GyrY_Callback(void const *mav_data, void *cus_data);
 161:Task/Task_Protocol.c **** static bool TaskFrame_Mav_PID_GyrZ_Callback(void const *mav_data, void *cus_data);
 162:Task/Task_Protocol.c **** 
 163:Task/Task_Protocol.c **** /* default vcp port section */
 164:Task/Task_Protocol.c **** static void TaskFrameCTL_DefaultPort_Init(FrameCTL_PortMonitor_TypeDef *monitor);
 165:Task/Task_Protocol.c **** static void TaskFrameCTL_RadioPort_Init(FrameCTL_PortMonitor_TypeDef *monitor);
 166:Task/Task_Protocol.c **** static bool TaskFrameCTL_MAV_Msg_Init(void);
 167:Task/Task_Protocol.c **** static void TaskFrameCTL_Port_Rx_Callback(uint32_t RecObj_addr, uint8_t *p_data, uint16_t size);
 168:Task/Task_Protocol.c **** static void TaskFrameCTL_Port_TxCplt_Callback(uint32_t RecObj_addr, uint8_t *p_data, uint32_t *size
 169:Task/Task_Protocol.c **** static void TaskFrameCTL_USB_VCP_Connect_Callback(uint32_t Obj_addr, uint32_t *time_stamp);
 170:Task/Task_Protocol.c **** static uint32_t TaskFrameCTL_Set_RadioPort(FrameCTL_PortType_List port_type, uint16_t index);
 171:Task/Task_Protocol.c **** static bool TaskFrameCTL_Port_Tx(uint32_t obj_addr, uint8_t *p_data, uint16_t size);
 172:Task/Task_Protocol.c **** static bool TaskFrameCTL_DefaultPort_Trans(uint8_t *p_data, uint16_t size);
 173:Task/Task_Protocol.c **** static void TaskFrameCTL_ConfigureStateCheck(void);
 174:Task/Task_Protocol.c **** static void TaskFrameCTL_CLI_Proc(void);
 175:Task/Task_Protocol.c **** static int TaskFrameCTL_CLI_Trans(const uint8_t *p_data, uint16_t size);
 176:Task/Task_Protocol.c **** 
 177:Task/Task_Protocol.c **** void TaskFrameCTL_Init(uint32_t period)
 178:Task/Task_Protocol.c **** {
 179:Task/Task_Protocol.c ****     FrameCTL_Period = FrameCTL_MAX_Period;
 180:Task/Task_Protocol.c **** 
 181:Task/Task_Protocol.c ****     /* USB VCP as defaut port to tune parameter and frame porotcol */
 182:Task/Task_Protocol.c ****     memset(&PortMonitor, 0, sizeof(PortMonitor));
 183:Task/Task_Protocol.c ****     memset(&DefaultPort_MavMsgInput_Obj, 0, sizeof(SrvComProto_MsgObj_TypeDef));
 184:Task/Task_Protocol.c ****     memset(&RadioPort_MavMsgInput_Obj, 0, sizeof(SrvComProto_MsgObj_TypeDef));
 185:Task/Task_Protocol.c **** 
 186:Task/Task_Protocol.c ****     /* param init */
 187:Task/Task_Protocol.c ****     memset(&InPut_MavData, 0, sizeof(FrameCTL_MavTunningMonitor_TypeDef));
 188:Task/Task_Protocol.c **** 
 189:Task/Task_Protocol.c ****     TaskFrameCTL_DefaultPort_Init(&PortMonitor);
 190:Task/Task_Protocol.c ****     TaskFrameCTL_RadioPort_Init(&PortMonitor);
 191:Task/Task_Protocol.c ****     Radio_Addr = TaskFrameCTL_Set_RadioPort(Port_Uart, 0);
 192:Task/Task_Protocol.c **** 
 193:Task/Task_Protocol.c ****     PortMonitor.init = true;
 194:Task/Task_Protocol.c ****     
 195:Task/Task_Protocol.c ****     /* init radio protocol*/
 196:Task/Task_Protocol.c ****     FrameCTL_MavProto_Enable = TaskFrameCTL_MAV_Msg_Init();
 197:Task/Task_Protocol.c **** 
 198:Task/Task_Protocol.c ****     if(period && (period <= FrameCTL_MAX_Period))
 199:Task/Task_Protocol.c ****     {
 200:Task/Task_Protocol.c ****         FrameCTL_Period = period;
 201:Task/Task_Protocol.c ****     }
ARM GAS  C:\Users\8bit\AppData\Local\Temp\cczcmggF.s 			page 5


 202:Task/Task_Protocol.c **** 
 203:Task/Task_Protocol.c ****     /* Shell Init */
 204:Task/Task_Protocol.c ****     Shell_Init(TaskFrameCTL_CLI_Trans, CLI_Monitor.p_proc_stream->p_buf, CLI_Monitor.p_proc_stream-
 205:Task/Task_Protocol.c **** 
 206:Task/Task_Protocol.c ****     memset(&VCP_Connect_smp_DataPipe, 0, sizeof(VCP_Connect_smp_DataPipe));
 207:Task/Task_Protocol.c ****     memset(DataPipe_DataObjAddr(VCP_Attach_State), 0, sizeof(DataPipe_DataObj(VCP_Attach_State)));
 208:Task/Task_Protocol.c **** 
 209:Task/Task_Protocol.c ****     VCP_Connect_smp_DataPipe.data_addr = (uint32_t)DataPipe_DataObjAddr(VCP_Attach_State);
 210:Task/Task_Protocol.c ****     VCP_Connect_smp_DataPipe.data_size = sizeof(DataPipe_DataObj(VCP_Attach_State));
 211:Task/Task_Protocol.c **** 
 212:Task/Task_Protocol.c ****     SrvOsCommon.delay_ms(50);
 213:Task/Task_Protocol.c ****     DataPipe_Enable(&VCP_Connect_smp_DataPipe);
 214:Task/Task_Protocol.c **** 
 215:Task/Task_Protocol.c ****     /* init upgrade */
 216:Task/Task_Protocol.c ****     memset(&Upgrade_Monitor.file_info, 0, sizeof(Upgrade_Monitor.file_info));
 217:Task/Task_Protocol.c **** }
 218:Task/Task_Protocol.c **** 
 219:Task/Task_Protocol.c **** void TaskFrameCTL_Core(void const *arg)
 220:Task/Task_Protocol.c **** {
 221:Task/Task_Protocol.c ****     uint32_t per_time = SrvOsCommon.get_os_ms();
 222:Task/Task_Protocol.c ****     bool cli_state = false;
 223:Task/Task_Protocol.c **** 
 224:Task/Task_Protocol.c ****     while(1)
 225:Task/Task_Protocol.c ****     {
 226:Task/Task_Protocol.c ****         TaskFrameCTL_ConfigureStateCheck();
 227:Task/Task_Protocol.c ****         SrvDataHub.get_cli_state(&cli_state);
 228:Task/Task_Protocol.c **** 
 229:Task/Task_Protocol.c ****         if (!Upgrade_Monitor.is_enable)
 230:Task/Task_Protocol.c ****         {
 231:Task/Task_Protocol.c ****             if (!cli_state)
 232:Task/Task_Protocol.c ****             {
 233:Task/Task_Protocol.c ****                 /* frame protocol process */
 234:Task/Task_Protocol.c ****                 TaskFrameCTL_PortFrameOut_Process();
 235:Task/Task_Protocol.c ****             }
 236:Task/Task_Protocol.c ****             else
 237:Task/Task_Protocol.c ****                 /* command line process */
 238:Task/Task_Protocol.c ****                 TaskFrameCTL_CLI_Proc();
 239:Task/Task_Protocol.c ****         }
 240:Task/Task_Protocol.c ****         else
 241:Task/Task_Protocol.c ****             /* upgrade process */
 242:Task/Task_Protocol.c ****             TaskFrameCTL_Upgrade_StatePolling(cli_state);
 243:Task/Task_Protocol.c **** 
 244:Task/Task_Protocol.c ****         SrvOsCommon.precise_delay(&per_time, FrameCTL_Period);
 245:Task/Task_Protocol.c ****     }
 246:Task/Task_Protocol.c **** }
 247:Task/Task_Protocol.c **** 
 248:Task/Task_Protocol.c **** /*************************** ByPass Mode is still in developping *********************************/
 249:Task/Task_Protocol.c **** /************************************** radio section ********************************************/
 250:Task/Task_Protocol.c **** static void TaskFrameCTL_DefaultPort_Init(FrameCTL_PortMonitor_TypeDef *monitor)
 251:Task/Task_Protocol.c **** {
 252:Task/Task_Protocol.c ****     if(monitor)
 253:Task/Task_Protocol.c ****     {
 254:Task/Task_Protocol.c ****         if(BspUSB_VCP.init((uint32_t)&(monitor->VCP_Port.RecObj)) != BspUSB_Error_None)
 255:Task/Task_Protocol.c ****         {
 256:Task/Task_Protocol.c ****             /* init default port VCP first */
 257:Task/Task_Protocol.c ****             monitor->VCP_Port.init_state = false;
 258:Task/Task_Protocol.c ****             return;
ARM GAS  C:\Users\8bit\AppData\Local\Temp\cczcmggF.s 			page 6


 259:Task/Task_Protocol.c ****         }
 260:Task/Task_Protocol.c ****         else
 261:Task/Task_Protocol.c ****             monitor->VCP_Port.init_state = true;
 262:Task/Task_Protocol.c **** 
 263:Task/Task_Protocol.c ****         /* create USB VCP Tx semaphore */
 264:Task/Task_Protocol.c ****         osSemaphoreDef(DefaultPort_Tx);
 265:Task/Task_Protocol.c ****         monitor->VCP_Port.p_tx_semphr = osSemaphoreCreate(osSemaphore(DefaultPort_Tx), 1);
 266:Task/Task_Protocol.c **** 
 267:Task/Task_Protocol.c ****         if(monitor->VCP_Port.p_tx_semphr == NULL)
 268:Task/Task_Protocol.c ****         {
 269:Task/Task_Protocol.c ****             monitor->VCP_Port.init_state = false;
 270:Task/Task_Protocol.c ****             return;
 271:Task/Task_Protocol.c ****         }
 272:Task/Task_Protocol.c **** 
 273:Task/Task_Protocol.c ****         BspUSB_VCP.set_tx_cpl_callback(TaskFrameCTL_Port_TxCplt_Callback);
 274:Task/Task_Protocol.c ****         BspUSB_VCP.set_rx_callback(TaskFrameCTL_Port_Rx_Callback);
 275:Task/Task_Protocol.c ****         BspUSB_VCP.set_connect_callback(TaskFrameCTL_USB_VCP_Connect_Callback);
 276:Task/Task_Protocol.c **** 
 277:Task/Task_Protocol.c ****         monitor->VCP_Port.RecObj.PortObj_addr = (uint32_t)&(monitor->VCP_Port);
 278:Task/Task_Protocol.c ****         monitor->VCP_Port.RecObj.type = Port_USB;
 279:Task/Task_Protocol.c **** 
 280:Task/Task_Protocol.c ****         USB_VCP_Addr = (uint32_t)&(monitor->VCP_Port);
 281:Task/Task_Protocol.c ****     }
 282:Task/Task_Protocol.c **** }
 283:Task/Task_Protocol.c **** 
 284:Task/Task_Protocol.c **** static bool TaskFrameCTL_DefaultPort_Trans(uint8_t *p_data, uint16_t size)
 285:Task/Task_Protocol.c **** {
 286:Task/Task_Protocol.c ****     bool state = false;
 287:Task/Task_Protocol.c **** 
 288:Task/Task_Protocol.c ****     /* when attach to host device then send data */
 289:Task/Task_Protocol.c ****     if (PortMonitor.VCP_Port.init_state && \
 290:Task/Task_Protocol.c ****         PortMonitor.vcp_connect_state && \
 291:Task/Task_Protocol.c ****         PortMonitor.VCP_Port.p_tx_semphr && \
 292:Task/Task_Protocol.c ****         p_data && size)
 293:Task/Task_Protocol.c ****     {
 294:Task/Task_Protocol.c ****         state = true;
 295:Task/Task_Protocol.c ****         osSemaphoreWait(PortMonitor.VCP_Port.p_tx_semphr, 0);
 296:Task/Task_Protocol.c ****         if ((BspUSB_VCP.send(p_data, size) != BspUSB_Error_None) || \
 297:Task/Task_Protocol.c ****             (osSemaphoreWait(PortMonitor.VCP_Port.p_tx_semphr, FrameCTL_Port_Tx_TimeOut) != osOK))
 298:Task/Task_Protocol.c ****             state = false;
 299:Task/Task_Protocol.c ****     }
 300:Task/Task_Protocol.c **** 
 301:Task/Task_Protocol.c ****     return state;
 302:Task/Task_Protocol.c **** }
 303:Task/Task_Protocol.c **** 
 304:Task/Task_Protocol.c **** /************************************** radio port section *************************/
 305:Task/Task_Protocol.c **** static void TaskFrameCTL_RadioPort_Init(FrameCTL_PortMonitor_TypeDef *monitor)
 306:Task/Task_Protocol.c **** {
 307:Task/Task_Protocol.c ****     if(monitor)
 308:Task/Task_Protocol.c ****     {
 309:Task/Task_Protocol.c **** #if (RADIO_UART_NUM > 0)
 310:Task/Task_Protocol.c ****         monitor->uart_port_num = RADIO_UART_NUM;
 311:Task/Task_Protocol.c ****         monitor->Uart_Port = Radio_UartPort_List;
 312:Task/Task_Protocol.c ****         
 313:Task/Task_Protocol.c ****         for(uint8_t i = 0; i < monitor->uart_port_num; i++)
 314:Task/Task_Protocol.c ****         {
 315:Task/Task_Protocol.c **** #if defined STM32H743xx
ARM GAS  C:\Users\8bit\AppData\Local\Temp\cczcmggF.s 			page 7


 316:Task/Task_Protocol.c ****             /* create port obj element */
 317:Task/Task_Protocol.c ****             monitor->Uart_Port[i].Obj->hdl = SrvOsCommon.malloc(UART_HandleType_Size);
 318:Task/Task_Protocol.c ****             if(monitor->Uart_Port[i].Obj->hdl == NULL)
 319:Task/Task_Protocol.c ****             {
 320:Task/Task_Protocol.c ****                 SrvOsCommon.free(monitor->Uart_Port[i].Obj->hdl);
 321:Task/Task_Protocol.c ****                 return;
 322:Task/Task_Protocol.c ****             }
 323:Task/Task_Protocol.c **** 
 324:Task/Task_Protocol.c ****             monitor->Uart_Port[i].Obj->rx_dma_hdl = SrvOsCommon.malloc(UART_DMA_Handle_Size);
 325:Task/Task_Protocol.c ****             if(monitor->Uart_Port[i].Obj->rx_dma_hdl == NULL)
 326:Task/Task_Protocol.c ****             {
 327:Task/Task_Protocol.c ****                 SrvOsCommon.free(monitor->Uart_Port[i].Obj->rx_dma_hdl);
 328:Task/Task_Protocol.c ****                 SrvOsCommon.free(monitor->Uart_Port[i].Obj->hdl);
 329:Task/Task_Protocol.c ****                 return;
 330:Task/Task_Protocol.c ****             }
 331:Task/Task_Protocol.c **** 
 332:Task/Task_Protocol.c ****             monitor->Uart_Port[i].Obj->tx_dma_hdl = SrvOsCommon.malloc(UART_DMA_Handle_Size);
 333:Task/Task_Protocol.c ****             if(monitor->Uart_Port[i].Obj->tx_dma_hdl == NULL)
 334:Task/Task_Protocol.c ****             {
 335:Task/Task_Protocol.c ****                 SrvOsCommon.free(monitor->Uart_Port[i].Obj->rx_dma_hdl);
 336:Task/Task_Protocol.c ****                 SrvOsCommon.free(monitor->Uart_Port[i].Obj->tx_dma_hdl);
 337:Task/Task_Protocol.c ****                 SrvOsCommon.free(monitor->Uart_Port[i].Obj->hdl);
 338:Task/Task_Protocol.c ****                 return;
 339:Task/Task_Protocol.c ****             }
 340:Task/Task_Protocol.c **** #endif
 341:Task/Task_Protocol.c **** 
 342:Task/Task_Protocol.c ****             if(BspUart.init(monitor->Uart_Port[i].Obj))
 343:Task/Task_Protocol.c ****             {
 344:Task/Task_Protocol.c ****                 monitor->Uart_Port[i].init_state = true;
 345:Task/Task_Protocol.c ****                 memset(&monitor->Uart_Port[i].RecObj, 0, sizeof(FrameCTL_PortProtoObj_TypeDef));
 346:Task/Task_Protocol.c ****                 memset(&monitor->Uart_Port[i].ByPass_Mode, 0, sizeof(Port_Bypass_TypeDef));
 347:Task/Task_Protocol.c ****                 
 348:Task/Task_Protocol.c ****                 monitor->Uart_Port[i].RecObj.type = Port_Uart;
 349:Task/Task_Protocol.c ****                 monitor->Uart_Port[i].RecObj.port_index = i;
 350:Task/Task_Protocol.c ****                 
 351:Task/Task_Protocol.c ****                 monitor->Uart_Port[i].Obj->cust_data_addr = (uint32_t)&(monitor->Uart_Port[i].RecOb
 352:Task/Task_Protocol.c ****             
 353:Task/Task_Protocol.c ****                 /* create semaphore for send */
 354:Task/Task_Protocol.c ****                 osSemaphoreDef(Uart_Port_Tmp);
 355:Task/Task_Protocol.c ****                 monitor->Uart_Port[i].p_tx_semphr = osSemaphoreCreate(osSemaphore(Uart_Port_Tmp), 1
 356:Task/Task_Protocol.c **** 
 357:Task/Task_Protocol.c ****                 if(monitor->Uart_Port[i].p_tx_semphr)
 358:Task/Task_Protocol.c ****                 {
 359:Task/Task_Protocol.c ****                     /* set callback */
 360:Task/Task_Protocol.c ****                     BspUart.set_rx_callback(monitor->Uart_Port[i].Obj, TaskFrameCTL_Port_Rx_Callbac
 361:Task/Task_Protocol.c ****                     BspUart.set_tx_callback(monitor->Uart_Port[i].Obj, TaskFrameCTL_Port_TxCplt_Cal
 362:Task/Task_Protocol.c **** 
 363:Task/Task_Protocol.c ****                     monitor->Uart_Port[i].RecObj.PortObj_addr = (uint32_t)&(monitor->Uart_Port[i]);
 364:Task/Task_Protocol.c ****                     monitor->Uart_Port[i].init_state = true;
 365:Task/Task_Protocol.c ****                 }
 366:Task/Task_Protocol.c ****                 else
 367:Task/Task_Protocol.c ****                 {
 368:Task/Task_Protocol.c ****                     monitor->Uart_Port[i].init_state = false;
 369:Task/Task_Protocol.c ****                     monitor->uart_port_num --;
 370:Task/Task_Protocol.c ****                 }
 371:Task/Task_Protocol.c ****             }
 372:Task/Task_Protocol.c ****             else
ARM GAS  C:\Users\8bit\AppData\Local\Temp\cczcmggF.s 			page 8


 373:Task/Task_Protocol.c ****             {
 374:Task/Task_Protocol.c ****                 monitor->Uart_Port[i].init_state = false;
 375:Task/Task_Protocol.c ****                 monitor->uart_port_num --;
 376:Task/Task_Protocol.c ****             }
 377:Task/Task_Protocol.c ****         }
 378:Task/Task_Protocol.c **** #else
 379:Task/Task_Protocol.c ****         monitor->uart_port_num = 0;
 380:Task/Task_Protocol.c **** #endif
 381:Task/Task_Protocol.c ****     }
 382:Task/Task_Protocol.c **** }
 383:Task/Task_Protocol.c **** 
 384:Task/Task_Protocol.c **** static uint32_t TaskFrameCTL_Set_RadioPort(FrameCTL_PortType_List port_type, uint16_t index)
 385:Task/Task_Protocol.c **** {
  29              		.loc 1 385 1 view -0
  30              		.cfi_startproc
  31              		@ args = 0, pretend = 0, frame = 0
  32              		@ frame_needed = 0, uses_anonymous_args = 0
  33              		@ link register save eliminated.
 386:Task/Task_Protocol.c ****     uint32_t port_hdl = 0;
  34              		.loc 1 386 5 view .LVU1
 387:Task/Task_Protocol.c **** 
 388:Task/Task_Protocol.c ****     switch((uint8_t) port_type)
  35              		.loc 1 388 5 view .LVU2
  36 0000 0228     		cmp	r0, #2
  37 0002 01D0     		beq	.L6
 389:Task/Task_Protocol.c ****     {
 390:Task/Task_Protocol.c ****         case Port_Uart:
 391:Task/Task_Protocol.c ****             if((index < PortMonitor.uart_port_num) && PortMonitor.Uart_Port[index].init_state)
 392:Task/Task_Protocol.c ****             {
 393:Task/Task_Protocol.c ****                 port_hdl = (uint32_t)&(PortMonitor.Uart_Port[index]);
 394:Task/Task_Protocol.c ****             }
 395:Task/Task_Protocol.c ****             break;
 396:Task/Task_Protocol.c **** 
 397:Task/Task_Protocol.c ****         default:
 398:Task/Task_Protocol.c ****             return port_hdl;
  38              		.loc 1 398 20 is_stmt 0 view .LVU3
  39 0004 0020     		movs	r0, #0
  40              	.LVL1:
  41              		.loc 1 398 20 view .LVU4
  42 0006 7047     		bx	lr
  43              	.LVL2:
  44              	.L6:
 391:Task/Task_Protocol.c ****             {
  45              		.loc 1 391 13 is_stmt 1 view .LVU5
 391:Task/Task_Protocol.c ****             {
  46              		.loc 1 391 36 is_stmt 0 view .LVU6
  47 0008 084B     		ldr	r3, .L7
  48 000a 9B78     		ldrb	r3, [r3, #2]	@ zero_extendqisi2
 391:Task/Task_Protocol.c ****             {
  49              		.loc 1 391 15 view .LVU7
  50 000c 8B42     		cmp	r3, r1
  51 000e 09D9     		bls	.L4
 391:Task/Task_Protocol.c ****             {
  52              		.loc 1 391 66 discriminator 1 view .LVU8
  53 0010 064B     		ldr	r3, .L7
  54 0012 9B6B     		ldr	r3, [r3, #56]
 391:Task/Task_Protocol.c ****             {
ARM GAS  C:\Users\8bit\AppData\Local\Temp\cczcmggF.s 			page 9


  55              		.loc 1 391 76 discriminator 1 view .LVU9
  56 0014 01EBC101 		add	r1, r1, r1, lsl #3
  57              	.LVL3:
 391:Task/Task_Protocol.c ****             {
  58              		.loc 1 391 76 discriminator 1 view .LVU10
  59 0018 03EB8100 		add	r0, r3, r1, lsl #2
  60              	.LVL4:
 391:Task/Task_Protocol.c ****             {
  61              		.loc 1 391 83 discriminator 1 view .LVU11
  62 001c 13F82130 		ldrb	r3, [r3, r1, lsl #2]	@ zero_extendqisi2
 391:Task/Task_Protocol.c ****             {
  63              		.loc 1 391 52 discriminator 1 view .LVU12
  64 0020 13B1     		cbz	r3, .L5
 393:Task/Task_Protocol.c ****             }
  65              		.loc 1 393 17 is_stmt 1 view .LVU13
  66              	.LVL5:
 393:Task/Task_Protocol.c ****             }
  67              		.loc 1 393 17 is_stmt 0 view .LVU14
  68 0022 7047     		bx	lr
  69              	.LVL6:
  70              	.L4:
 386:Task/Task_Protocol.c **** 
  71              		.loc 1 386 14 view .LVU15
  72 0024 0020     		movs	r0, #0
  73              	.LVL7:
 386:Task/Task_Protocol.c **** 
  74              		.loc 1 386 14 view .LVU16
  75 0026 7047     		bx	lr
  76              	.LVL8:
  77              	.L5:
 386:Task/Task_Protocol.c **** 
  78              		.loc 1 386 14 view .LVU17
  79 0028 0020     		movs	r0, #0
  80              	.LVL9:
 399:Task/Task_Protocol.c ****     }
 400:Task/Task_Protocol.c **** 
 401:Task/Task_Protocol.c ****     return port_hdl;
 402:Task/Task_Protocol.c **** }
  81              		.loc 1 402 1 view .LVU18
  82 002a 7047     		bx	lr
  83              	.L8:
  84              		.align	2
  85              	.L7:
  86 002c 00000000 		.word	.LANCHOR0
  87              		.cfi_endproc
  88              	.LFE2076:
  90              		.section	.text.TaskFrameCTL_USB_VCP_Connect_Callback,"ax",%progbits
  91              		.align	1
  92              		.syntax unified
  93              		.thumb
  94              		.thumb_func
  96              	TaskFrameCTL_USB_VCP_Connect_Callback:
  97              	.LVL10:
  98              	.LFB2080:
 403:Task/Task_Protocol.c **** 
 404:Task/Task_Protocol.c **** /************************************** receive process callback section *************************/
 405:Task/Task_Protocol.c **** static bool TaskFrameCTL_Port_Tx(uint32_t obj_addr, uint8_t *p_data, uint16_t size)
ARM GAS  C:\Users\8bit\AppData\Local\Temp\cczcmggF.s 			page 10


 406:Task/Task_Protocol.c **** {
 407:Task/Task_Protocol.c ****     bool state = false;
 408:Task/Task_Protocol.c **** 
 409:Task/Task_Protocol.c ****     FrameCTL_UartPortMonitor_TypeDef *p_UartPort = NULL;
 410:Task/Task_Protocol.c **** 
 411:Task/Task_Protocol.c ****     if(obj_addr && p_data && size)
 412:Task/Task_Protocol.c ****     {
 413:Task/Task_Protocol.c ****         state = true;
 414:Task/Task_Protocol.c ****         p_UartPort = (FrameCTL_UartPortMonitor_TypeDef *)obj_addr;
 415:Task/Task_Protocol.c **** 
 416:Task/Task_Protocol.c ****         /* when FC attach to some host usb device then send nothing through the radio */
 417:Task/Task_Protocol.c ****         if(p_UartPort->init_state && p_UartPort->Obj && p_UartPort->p_tx_semphr && !PortMonitor.vcp
 418:Task/Task_Protocol.c ****         {
 419:Task/Task_Protocol.c ****             osSemaphoreWait(p_UartPort->p_tx_semphr, 0);
 420:Task/Task_Protocol.c ****             if ((!BspUart.send(p_UartPort->Obj, p_data, size)) || \
 421:Task/Task_Protocol.c ****                 (osSemaphoreWait(p_UartPort->p_tx_semphr, FrameCTL_Port_Tx_TimeOut) != osOK))
 422:Task/Task_Protocol.c ****                 state = false;
 423:Task/Task_Protocol.c ****         }
 424:Task/Task_Protocol.c ****         else
 425:Task/Task_Protocol.c ****             state = false;
 426:Task/Task_Protocol.c ****     }
 427:Task/Task_Protocol.c **** 
 428:Task/Task_Protocol.c ****     return state;
 429:Task/Task_Protocol.c **** }
 430:Task/Task_Protocol.c **** 
 431:Task/Task_Protocol.c **** static void TaskFrameCTL_Port_Rx_Callback(uint32_t RecObj_addr, uint8_t *p_data, uint16_t size)
 432:Task/Task_Protocol.c **** {
 433:Task/Task_Protocol.c ****     SrvComProto_Msg_StreamIn_TypeDef stream_in;
 434:Task/Task_Protocol.c ****     SrvComProto_Stream_TypeDef *p_stream = NULL;
 435:Task/Task_Protocol.c ****     FrameCTL_PortProtoObj_TypeDef *p_RecObj = NULL;
 436:Task/Task_Protocol.c ****     InUsePort_MavMsgInput_Obj = NULL;
 437:Task/Task_Protocol.c ****     bool cli_state = false;
 438:Task/Task_Protocol.c **** 
 439:Task/Task_Protocol.c ****     /* use mavlink protocol tuning the flight parameter */
 440:Task/Task_Protocol.c ****     if(p_data && size && RecObj_addr)
 441:Task/Task_Protocol.c ****     {
 442:Task/Task_Protocol.c ****         SrvDataHub.get_cli_state(&cli_state);
 443:Task/Task_Protocol.c **** 
 444:Task/Task_Protocol.c ****         p_RecObj = (FrameCTL_PortProtoObj_TypeDef *)RecObj_addr;
 445:Task/Task_Protocol.c ****         p_RecObj->time_stamp = SrvOsCommon.get_os_ms();
 446:Task/Task_Protocol.c **** 
 447:Task/Task_Protocol.c ****         switch((uint8_t) p_RecObj->type)
 448:Task/Task_Protocol.c ****         {
 449:Task/Task_Protocol.c ****             case Port_USB:
 450:Task/Task_Protocol.c ****                 p_stream = &USBRx_Stream;
 451:Task/Task_Protocol.c ****                 InUsePort_MavMsgInput_Obj = &DefaultPort_MavMsgInput_Obj;
 452:Task/Task_Protocol.c **** 
 453:Task/Task_Protocol.c ****                 if (cli_state && !Upgrade_Monitor.is_enable)
 454:Task/Task_Protocol.c ****                     TaskFrameCTL_DefaultPort_Trans(p_data, size);
 455:Task/Task_Protocol.c ****                 break;
 456:Task/Task_Protocol.c **** 
 457:Task/Task_Protocol.c ****             case Port_Uart:
 458:Task/Task_Protocol.c ****                 p_stream = &UartRx_Stream;
 459:Task/Task_Protocol.c ****                 InUsePort_MavMsgInput_Obj = &RadioPort_MavMsgInput_Obj;
 460:Task/Task_Protocol.c ****                 
 461:Task/Task_Protocol.c ****                 if (cli_state && !Upgrade_Monitor.is_enable)
 462:Task/Task_Protocol.c ****                     TaskFrameCTL_Port_Tx(p_RecObj->PortObj_addr, p_data, size);
ARM GAS  C:\Users\8bit\AppData\Local\Temp\cczcmggF.s 			page 11


 463:Task/Task_Protocol.c ****                 break;
 464:Task/Task_Protocol.c **** 
 465:Task/Task_Protocol.c ****             default:
 466:Task/Task_Protocol.c ****                 return;
 467:Task/Task_Protocol.c ****         }
 468:Task/Task_Protocol.c **** 
 469:Task/Task_Protocol.c ****         if ((p_stream->size + size) <= p_stream->max_size)
 470:Task/Task_Protocol.c ****         {
 471:Task/Task_Protocol.c ****             memcpy(p_stream->p_buf + p_stream->size, p_data, size);
 472:Task/Task_Protocol.c ****             p_stream->size += size;
 473:Task/Task_Protocol.c ****         }
 474:Task/Task_Protocol.c ****         else
 475:Task/Task_Protocol.c ****         {
 476:Task/Task_Protocol.c ****             memset(p_stream->p_buf, 0, p_stream->size);
 477:Task/Task_Protocol.c ****             p_stream->size = 0;
 478:Task/Task_Protocol.c ****             return;
 479:Task/Task_Protocol.c ****         }
 480:Task/Task_Protocol.c **** 
 481:Task/Task_Protocol.c ****         /* when file adapter is enable then halt cli and mavlink frame receive */
 482:Task/Task_Protocol.c ****         /* and check for upgrade data incoming */
 483:Task/Task_Protocol.c ****         if (Upgrade_Monitor.is_enable && (Upgrade_Monitor.port_addr == p_RecObj->PortObj_addr))
 484:Task/Task_Protocol.c ****         {
 485:Task/Task_Protocol.c ****             if (SrvUpgrade.push_data(SrvOsCommon.get_os_ms(), p_stream->p_buf, p_stream->size))
 486:Task/Task_Protocol.c ****             {
 487:Task/Task_Protocol.c ****                 memset(p_stream->p_buf, 0, p_stream->max_size);
 488:Task/Task_Protocol.c ****                 p_stream->size = 0;
 489:Task/Task_Protocol.c ****             }
 490:Task/Task_Protocol.c **** 
 491:Task/Task_Protocol.c ****             return;
 492:Task/Task_Protocol.c ****         }
 493:Task/Task_Protocol.c **** 
 494:Task/Task_Protocol.c ****         stream_in = SrvComProto.msg_decode(InUsePort_MavMsgInput_Obj, p_stream->p_buf, p_stream->si
 495:Task/Task_Protocol.c ****     
 496:Task/Task_Protocol.c ****         /* noticed when drone is under disarmed state we can`t tune or send cli to drone for safety
 497:Task/Task_Protocol.c ****         if(stream_in.valid)
 498:Task/Task_Protocol.c ****         {
 499:Task/Task_Protocol.c ****             /* tag on recive time stamp */
 500:Task/Task_Protocol.c ****             /* first come first serve */
 501:Task/Task_Protocol.c ****             /* in case two different port tuning the same function or same parameter at the same ti
 502:Task/Task_Protocol.c ****             /* if attach to configrator or in tunning then lock moto */
 503:Task/Task_Protocol.c ****             if(!cli_state)
 504:Task/Task_Protocol.c ****             {
 505:Task/Task_Protocol.c ****                 if (stream_in.pac_type == ComFrame_MavMsg)
 506:Task/Task_Protocol.c ****                 {
 507:Task/Task_Protocol.c ****                     /* check mavlink message frame type */
 508:Task/Task_Protocol.c ****                     /* only process mavlink message when cli is disabled */
 509:Task/Task_Protocol.c **** 
 510:Task/Task_Protocol.c ****                     /* after mavlink message processed */
 511:Task/Task_Protocol.c ****                     /* deal with stream buffer */
 512:Task/Task_Protocol.c ****                     if (p_stream->size > stream_in.size)
 513:Task/Task_Protocol.c ****                     {
 514:Task/Task_Protocol.c ****                         memmove(p_stream->p_buf, (stream_in.p_buf + stream_in.size), (p_stream->siz
 515:Task/Task_Protocol.c ****                     }
 516:Task/Task_Protocol.c ****                     else
 517:Task/Task_Protocol.c ****                         memset(p_stream->p_buf, 0, p_stream->size);
 518:Task/Task_Protocol.c **** 
 519:Task/Task_Protocol.c ****                     p_stream->size -= stream_in.size;
ARM GAS  C:\Users\8bit\AppData\Local\Temp\cczcmggF.s 			page 12


 520:Task/Task_Protocol.c ****                 }
 521:Task/Task_Protocol.c ****             }
 522:Task/Task_Protocol.c ****             
 523:Task/Task_Protocol.c ****             if(stream_in.pac_type == ComFrame_CLI)
 524:Task/Task_Protocol.c ****             {
 525:Task/Task_Protocol.c ****                 /* set current mode as cli mode */
 526:Task/Task_Protocol.c ****                 /* all command line end up with "\r\n" */
 527:Task/Task_Protocol.c ****                 /* push string into cli shared stream */
 528:Task/Task_Protocol.c ****                 if(((CLI_Monitor.port_addr == 0) || (CLI_Monitor.port_addr == p_RecObj->PortObj_add
 529:Task/Task_Protocol.c ****                    (CLI_Monitor.p_rx_stream->size + p_stream->size) <= CLI_Monitor.p_rx_stream->max
 530:Task/Task_Protocol.c ****                 {
 531:Task/Task_Protocol.c ****                     SrvDataHub.set_cli_state(true);
 532:Task/Task_Protocol.c **** 
 533:Task/Task_Protocol.c ****                     CLI_Monitor.type = p_RecObj->type;
 534:Task/Task_Protocol.c ****                     CLI_Monitor.port_addr = p_RecObj->PortObj_addr;
 535:Task/Task_Protocol.c ****                     memcpy(CLI_Monitor.p_rx_stream->p_buf + CLI_Monitor.p_rx_stream->size, stream_i
 536:Task/Task_Protocol.c ****                     CLI_Monitor.p_rx_stream->size += p_stream->size;
 537:Task/Task_Protocol.c **** 
 538:Task/Task_Protocol.c ****                     /* clear CLI command */
 539:Task/Task_Protocol.c ****                     p_stream->size = 0;
 540:Task/Task_Protocol.c ****                     memset(p_stream->p_buf, 0, p_stream->size);
 541:Task/Task_Protocol.c ****                 }
 542:Task/Task_Protocol.c ****             }
 543:Task/Task_Protocol.c ****         }
 544:Task/Task_Protocol.c ****     }
 545:Task/Task_Protocol.c **** }
 546:Task/Task_Protocol.c **** 
 547:Task/Task_Protocol.c **** static void TaskFrameCTL_Port_TxCplt_Callback(uint32_t Obj_addr, uint8_t *p_data, uint32_t *size)
 548:Task/Task_Protocol.c **** {
 549:Task/Task_Protocol.c ****     UNUSED(p_data);
 550:Task/Task_Protocol.c ****     UNUSED(size);
 551:Task/Task_Protocol.c **** 
 552:Task/Task_Protocol.c ****     FrameCTL_PortProtoObj_TypeDef *p_Obj = NULL;
 553:Task/Task_Protocol.c ****     FrameCTL_UartPortMonitor_TypeDef *p_UartPortObj = NULL;
 554:Task/Task_Protocol.c ****     FrameCTL_VCPPortMonitor_TypeDef *p_USBPortObj = NULL;
 555:Task/Task_Protocol.c ****     osSemaphoreId semID = NULL;
 556:Task/Task_Protocol.c ****     uint32_t *p_rls_err_cnt = NULL;
 557:Task/Task_Protocol.c **** 
 558:Task/Task_Protocol.c ****     if(Obj_addr)
 559:Task/Task_Protocol.c ****     {
 560:Task/Task_Protocol.c ****         p_Obj = (FrameCTL_PortProtoObj_TypeDef *)Obj_addr;
 561:Task/Task_Protocol.c **** 
 562:Task/Task_Protocol.c ****         if(p_Obj->PortObj_addr)
 563:Task/Task_Protocol.c ****         {
 564:Task/Task_Protocol.c ****             switch((uint8_t) p_Obj->type)
 565:Task/Task_Protocol.c ****             {
 566:Task/Task_Protocol.c ****                 case Port_USB:
 567:Task/Task_Protocol.c ****                     p_USBPortObj = (FrameCTL_VCPPortMonitor_TypeDef *)(p_Obj->PortObj_addr);
 568:Task/Task_Protocol.c **** 
 569:Task/Task_Protocol.c ****                     if(p_USBPortObj->init_state && p_USBPortObj->p_tx_semphr)
 570:Task/Task_Protocol.c ****                     {
 571:Task/Task_Protocol.c ****                         semID = p_USBPortObj->p_tx_semphr;
 572:Task/Task_Protocol.c ****                         p_rls_err_cnt = &p_USBPortObj->tx_semphr_rls_err;
 573:Task/Task_Protocol.c ****                     }
 574:Task/Task_Protocol.c ****                     break;
 575:Task/Task_Protocol.c **** 
 576:Task/Task_Protocol.c ****                 case Port_Uart:
ARM GAS  C:\Users\8bit\AppData\Local\Temp\cczcmggF.s 			page 13


 577:Task/Task_Protocol.c ****                     p_UartPortObj = (FrameCTL_UartPortMonitor_TypeDef *)(p_Obj->PortObj_addr);
 578:Task/Task_Protocol.c **** 
 579:Task/Task_Protocol.c ****                     if(p_UartPortObj->init_state && p_UartPortObj->p_tx_semphr)
 580:Task/Task_Protocol.c ****                     {
 581:Task/Task_Protocol.c ****                         semID = p_UartPortObj->p_tx_semphr;
 582:Task/Task_Protocol.c ****                         p_rls_err_cnt = &p_UartPortObj->tx_semphr_rls_err;
 583:Task/Task_Protocol.c ****                     }
 584:Task/Task_Protocol.c ****                     break;
 585:Task/Task_Protocol.c **** 
 586:Task/Task_Protocol.c ****                 default:
 587:Task/Task_Protocol.c ****                     return;
 588:Task/Task_Protocol.c ****             }
 589:Task/Task_Protocol.c ****             
 590:Task/Task_Protocol.c ****             if(semID && p_rls_err_cnt && (osSemaphoreRelease(semID) != osOK))
 591:Task/Task_Protocol.c ****                 (*p_rls_err_cnt) ++;
 592:Task/Task_Protocol.c ****         }
 593:Task/Task_Protocol.c ****     }
 594:Task/Task_Protocol.c **** }
 595:Task/Task_Protocol.c **** 
 596:Task/Task_Protocol.c **** /************************************** USB Only Callback section *********************************
 597:Task/Task_Protocol.c **** /*
 598:Task/Task_Protocol.c ****  * use usb sof interrupt
 599:Task/Task_Protocol.c ****  * as long as usb port attach to computer or other host device
 600:Task/Task_Protocol.c ****  * flight controller will receive sof interrupt
 601:Task/Task_Protocol.c ****  * if flight controller continue to receive this interrupt it must be attach to computer
 602:Task/Task_Protocol.c ****  */
 603:Task/Task_Protocol.c **** static void TaskFrameCTL_USB_VCP_Connect_Callback(uint32_t Obj_addr, uint32_t *time_stamp)
 604:Task/Task_Protocol.c **** {
  99              		.loc 1 604 1 is_stmt 1 view -0
 100              		.cfi_startproc
 101              		@ args = 0, pretend = 0, frame = 0
 102              		@ frame_needed = 0, uses_anonymous_args = 0
 605:Task/Task_Protocol.c ****     FrameCTL_PortProtoObj_TypeDef *p_Obj = NULL;
 103              		.loc 1 605 5 view .LVU20
 606:Task/Task_Protocol.c **** 
 607:Task/Task_Protocol.c ****     if (Obj_addr)
 104              		.loc 1 607 5 view .LVU21
 105              		.loc 1 607 8 is_stmt 0 view .LVU22
 106 0000 60B1     		cbz	r0, .L12
 604:Task/Task_Protocol.c ****     FrameCTL_PortProtoObj_TypeDef *p_Obj = NULL;
 107              		.loc 1 604 1 view .LVU23
 108 0002 10B5     		push	{r4, lr}
 109              	.LCFI0:
 110              		.cfi_def_cfa_offset 8
 111              		.cfi_offset 4, -8
 112              		.cfi_offset 14, -4
 113 0004 0C46     		mov	r4, r1
 608:Task/Task_Protocol.c ****     {
 609:Task/Task_Protocol.c ****         p_Obj = (FrameCTL_PortProtoObj_TypeDef *)Obj_addr;
 114              		.loc 1 609 9 is_stmt 1 view .LVU24
 115              	.LVL11:
 610:Task/Task_Protocol.c **** 
 611:Task/Task_Protocol.c ****         if (p_Obj->PortObj_addr && (p_Obj->type == Port_USB))
 116              		.loc 1 611 9 view .LVU25
 117              		.loc 1 611 18 is_stmt 0 view .LVU26
 118 0006 4268     		ldr	r2, [r0, #4]
 119              		.loc 1 611 12 view .LVU27
ARM GAS  C:\Users\8bit\AppData\Local\Temp\cczcmggF.s 			page 14


 120 0008 12B1     		cbz	r2, .L9
 121              		.loc 1 611 42 discriminator 1 view .LVU28
 122 000a 0378     		ldrb	r3, [r0]	@ zero_extendqisi2
 123              		.loc 1 611 33 discriminator 1 view .LVU29
 124 000c 012B     		cmp	r3, #1
 125 000e 00D0     		beq	.L15
 126              	.LVL12:
 127              	.L9:
 612:Task/Task_Protocol.c ****             *time_stamp = SrvOsCommon.get_os_ms();
 613:Task/Task_Protocol.c ****     }
 614:Task/Task_Protocol.c **** }
 128              		.loc 1 614 1 view .LVU30
 129 0010 10BD     		pop	{r4, pc}
 130              	.LVL13:
 131              	.L15:
 612:Task/Task_Protocol.c ****             *time_stamp = SrvOsCommon.get_os_ms();
 132              		.loc 1 612 13 is_stmt 1 view .LVU31
 612:Task/Task_Protocol.c ****             *time_stamp = SrvOsCommon.get_os_ms();
 133              		.loc 1 612 38 is_stmt 0 view .LVU32
 134 0012 034B     		ldr	r3, .L16
 135 0014 1B68     		ldr	r3, [r3]
 612:Task/Task_Protocol.c ****             *time_stamp = SrvOsCommon.get_os_ms();
 136              		.loc 1 612 27 view .LVU33
 137 0016 9847     		blx	r3
 138              	.LVL14:
 612:Task/Task_Protocol.c ****             *time_stamp = SrvOsCommon.get_os_ms();
 139              		.loc 1 612 25 view .LVU34
 140 0018 2060     		str	r0, [r4]
 141              		.loc 1 614 1 view .LVU35
 142 001a F9E7     		b	.L9
 143              	.LVL15:
 144              	.L12:
 145              	.LCFI1:
 146              		.cfi_def_cfa_offset 0
 147              		.cfi_restore 4
 148              		.cfi_restore 14
 149              		.loc 1 614 1 view .LVU36
 150 001c 7047     		bx	lr
 151              	.L17:
 152 001e 00BF     		.align	2
 153              	.L16:
 154 0020 00000000 		.word	SrvOsCommon
 155              		.cfi_endproc
 156              	.LFE2080:
 158              		.section	.text.TaskFrameCTL_Upgrade_Enable,"ax",%progbits
 159              		.align	1
 160              		.syntax unified
 161              		.thumb
 162              		.thumb_func
 164              	TaskFrameCTL_Upgrade_Enable:
 165              	.LVL16:
 166              	.LFB2082:
 615:Task/Task_Protocol.c **** 
 616:Task/Task_Protocol.c **** /************************************** upgrade protocol section **********************************
 617:Task/Task_Protocol.c **** static void TaskFrameCTL_Upgrade_Send(uint8_t *p_buf, uint16_t size)
 618:Task/Task_Protocol.c **** {
 619:Task/Task_Protocol.c ****     if (Upgrade_Monitor.port_addr && p_buf && size)
ARM GAS  C:\Users\8bit\AppData\Local\Temp\cczcmggF.s 			page 15


 620:Task/Task_Protocol.c ****     {
 621:Task/Task_Protocol.c ****         if(p_buf && size)
 622:Task/Task_Protocol.c ****         {
 623:Task/Task_Protocol.c ****             switch ((uint8_t) Upgrade_Monitor.port_type)
 624:Task/Task_Protocol.c ****             {
 625:Task/Task_Protocol.c ****                 case Port_Uart:
 626:Task/Task_Protocol.c ****                     TaskFrameCTL_Port_Tx(Upgrade_Monitor.port_addr, (uint8_t *)p_buf, size);
 627:Task/Task_Protocol.c ****                     break;
 628:Task/Task_Protocol.c ****             
 629:Task/Task_Protocol.c ****                 case Port_USB:
 630:Task/Task_Protocol.c ****                     TaskFrameCTL_DefaultPort_Trans((uint8_t *)p_buf, size);
 631:Task/Task_Protocol.c ****                     break; 
 632:Task/Task_Protocol.c **** 
 633:Task/Task_Protocol.c ****                 default:
 634:Task/Task_Protocol.c ****                     break;
 635:Task/Task_Protocol.c ****             }
 636:Task/Task_Protocol.c ****         }
 637:Task/Task_Protocol.c **** 
 638:Task/Task_Protocol.c ****         return 0;
 639:Task/Task_Protocol.c ****     }
 640:Task/Task_Protocol.c **** }
 641:Task/Task_Protocol.c **** 
 642:Task/Task_Protocol.c **** static bool TaskFrameCTL_Upgrade_Enable(bool state, FileInfo_TypeDef file_info, uint32_t port_addr,
 643:Task/Task_Protocol.c **** {
 167              		.loc 1 643 1 is_stmt 1 view -0
 168              		.cfi_startproc
 169              		@ args = 8, pretend = 0, frame = 24
 170              		@ frame_needed = 0, uses_anonymous_args = 0
 171              		.loc 1 643 1 is_stmt 0 view .LVU38
 172 0000 30B5     		push	{r4, r5, lr}
 173              	.LCFI2:
 174              		.cfi_def_cfa_offset 12
 175              		.cfi_offset 4, -12
 176              		.cfi_offset 5, -8
 177              		.cfi_offset 14, -4
 178 0002 87B0     		sub	sp, sp, #28
 179              	.LCFI3:
 180              		.cfi_def_cfa_offset 40
 181 0004 0546     		mov	r5, r0
 182 0006 0DF1040C 		add	ip, sp, #4
 183 000a 8CE80E00 		stm	ip, {r1, r2, r3}
 644:Task/Task_Protocol.c ****     bool arm_state = DRONE_ARM;
 184              		.loc 1 644 5 is_stmt 1 view .LVU39
 185              		.loc 1 644 10 is_stmt 0 view .LVU40
 186 000e 0123     		movs	r3, #1
 187 0010 8DF81730 		strb	r3, [sp, #23]
 645:Task/Task_Protocol.c **** 
 646:Task/Task_Protocol.c ****     /* check arm state first */
 647:Task/Task_Protocol.c ****     /* if is under disarm state then disable upgrade enabling */
 648:Task/Task_Protocol.c ****     if (SrvDataHub.get_arm_state(&arm_state) && (arm_state == DRONE_ARM))
 188              		.loc 1 648 5 is_stmt 1 view .LVU41
 189              		.loc 1 648 19 is_stmt 0 view .LVU42
 190 0014 134B     		ldr	r3, .L24
 191 0016 5B6D     		ldr	r3, [r3, #84]
 192              		.loc 1 648 9 view .LVU43
 193 0018 0DF11700 		add	r0, sp, #23
 194              	.LVL17:
ARM GAS  C:\Users\8bit\AppData\Local\Temp\cczcmggF.s 			page 16


 195              		.loc 1 648 9 view .LVU44
 196 001c 9847     		blx	r3
 197              	.LVL18:
 198              		.loc 1 648 8 view .LVU45
 199 001e 0446     		mov	r4, r0
 200 0020 10B1     		cbz	r0, .L19
 201              		.loc 1 648 60 discriminator 1 view .LVU46
 202 0022 9DF81740 		ldrb	r4, [sp, #23]	@ zero_extendqisi2
 203              		.loc 1 648 46 discriminator 1 view .LVU47
 204 0026 14B9     		cbnz	r4, .L23
 205              	.L19:
 649:Task/Task_Protocol.c ****     {
 650:Task/Task_Protocol.c ****         Upgrade_Monitor.is_enable = state;
 651:Task/Task_Protocol.c ****         Upgrade_Monitor.port_addr = port_addr;
 652:Task/Task_Protocol.c ****         Upgrade_Monitor.port_type = port_type;
 653:Task/Task_Protocol.c ****         
 654:Task/Task_Protocol.c ****         if (!state)
 655:Task/Task_Protocol.c ****         {
 656:Task/Task_Protocol.c ****             Upgrade_Monitor.port_addr = 0;
 657:Task/Task_Protocol.c ****             Upgrade_Monitor.port_type = Port_None;
 658:Task/Task_Protocol.c **** 
 659:Task/Task_Protocol.c ****             SrvOsCommon.enter_critical();
 660:Task/Task_Protocol.c ****             SrvDataHub.set_upgrade_state(true);
 661:Task/Task_Protocol.c ****             SrvOsCommon.exit_critical();
 662:Task/Task_Protocol.c ****         }
 663:Task/Task_Protocol.c ****         else
 664:Task/Task_Protocol.c ****             Upgrade_Monitor.file_info = file_info;
 665:Task/Task_Protocol.c **** 
 666:Task/Task_Protocol.c ****         /* suspend Telemetry task */
 667:Task/Task_Protocol.c ****         /* when upgrade finish or abort resume telemtry task */
 668:Task/Task_Protocol.c **** 
 669:Task/Task_Protocol.c ****         return true;
 670:Task/Task_Protocol.c ****     }
 671:Task/Task_Protocol.c **** 
 672:Task/Task_Protocol.c ****     return false;
 673:Task/Task_Protocol.c **** }
 206              		.loc 1 673 1 view .LVU48
 207 0028 2046     		mov	r0, r4
 208 002a 07B0     		add	sp, sp, #28
 209              	.LCFI4:
 210              		.cfi_remember_state
 211              		.cfi_def_cfa_offset 12
 212              		@ sp needed
 213 002c 30BD     		pop	{r4, r5, pc}
 214              	.LVL19:
 215              	.L23:
 216              	.LCFI5:
 217              		.cfi_restore_state
 650:Task/Task_Protocol.c ****         Upgrade_Monitor.port_addr = port_addr;
 218              		.loc 1 650 9 is_stmt 1 view .LVU49
 650:Task/Task_Protocol.c ****         Upgrade_Monitor.port_addr = port_addr;
 219              		.loc 1 650 35 is_stmt 0 view .LVU50
 220 002e 0E4B     		ldr	r3, .L24+4
 221 0030 1D70     		strb	r5, [r3]
 651:Task/Task_Protocol.c ****         Upgrade_Monitor.port_type = port_type;
 222              		.loc 1 651 9 is_stmt 1 view .LVU51
 651:Task/Task_Protocol.c ****         Upgrade_Monitor.port_type = port_type;
ARM GAS  C:\Users\8bit\AppData\Local\Temp\cczcmggF.s 			page 17


 223              		.loc 1 651 35 is_stmt 0 view .LVU52
 224 0032 0A9A     		ldr	r2, [sp, #40]
 225 0034 1A61     		str	r2, [r3, #16]
 652:Task/Task_Protocol.c ****         
 226              		.loc 1 652 9 is_stmt 1 view .LVU53
 652:Task/Task_Protocol.c ****         
 227              		.loc 1 652 35 is_stmt 0 view .LVU54
 228 0036 9DF82C20 		ldrb	r2, [sp, #44]	@ zero_extendqisi2
 229 003a 1A75     		strb	r2, [r3, #20]
 654:Task/Task_Protocol.c ****         {
 230              		.loc 1 654 9 is_stmt 1 view .LVU55
 654:Task/Task_Protocol.c ****         {
 231              		.loc 1 654 12 is_stmt 0 view .LVU56
 232 003c 65B9     		cbnz	r5, .L20
 656:Task/Task_Protocol.c ****             Upgrade_Monitor.port_type = Port_None;
 233              		.loc 1 656 13 is_stmt 1 view .LVU57
 656:Task/Task_Protocol.c ****             Upgrade_Monitor.port_type = Port_None;
 234              		.loc 1 656 39 is_stmt 0 view .LVU58
 235 003e 0022     		movs	r2, #0
 236 0040 1A61     		str	r2, [r3, #16]
 657:Task/Task_Protocol.c **** 
 237              		.loc 1 657 13 is_stmt 1 view .LVU59
 657:Task/Task_Protocol.c **** 
 238              		.loc 1 657 39 is_stmt 0 view .LVU60
 239 0042 1A75     		strb	r2, [r3, #20]
 659:Task/Task_Protocol.c ****             SrvDataHub.set_upgrade_state(true);
 240              		.loc 1 659 13 is_stmt 1 view .LVU61
 659:Task/Task_Protocol.c ****             SrvDataHub.set_upgrade_state(true);
 241              		.loc 1 659 24 is_stmt 0 view .LVU62
 242 0044 094D     		ldr	r5, .L24+8
 243 0046 2B6B     		ldr	r3, [r5, #48]
 659:Task/Task_Protocol.c ****             SrvDataHub.set_upgrade_state(true);
 244              		.loc 1 659 13 view .LVU63
 245 0048 9847     		blx	r3
 246              	.LVL20:
 660:Task/Task_Protocol.c ****             SrvOsCommon.exit_critical();
 247              		.loc 1 660 13 is_stmt 1 view .LVU64
 660:Task/Task_Protocol.c ****             SrvOsCommon.exit_critical();
 248              		.loc 1 660 23 is_stmt 0 view .LVU65
 249 004a 064B     		ldr	r3, .L24
 250 004c DB68     		ldr	r3, [r3, #12]
 660:Task/Task_Protocol.c ****             SrvOsCommon.exit_critical();
 251              		.loc 1 660 13 view .LVU66
 252 004e 0120     		movs	r0, #1
 253 0050 9847     		blx	r3
 254              	.LVL21:
 661:Task/Task_Protocol.c ****         }
 255              		.loc 1 661 13 is_stmt 1 view .LVU67
 661:Task/Task_Protocol.c ****         }
 256              		.loc 1 661 24 is_stmt 0 view .LVU68
 257 0052 6B6B     		ldr	r3, [r5, #52]
 661:Task/Task_Protocol.c ****         }
 258              		.loc 1 661 13 view .LVU69
 259 0054 9847     		blx	r3
 260              	.LVL22:
 261 0056 E7E7     		b	.L19
 262              	.L20:
ARM GAS  C:\Users\8bit\AppData\Local\Temp\cczcmggF.s 			page 18


 664:Task/Task_Protocol.c **** 
 263              		.loc 1 664 13 is_stmt 1 view .LVU70
 664:Task/Task_Protocol.c **** 
 264              		.loc 1 664 39 is_stmt 0 view .LVU71
 265 0058 054B     		ldr	r3, .L24+12
 266 005a 01AA     		add	r2, sp, #4
 267 005c 07CA     		ldm	r2, {r0, r1, r2}
 268 005e 83E80700 		stm	r3, {r0, r1, r2}
 669:Task/Task_Protocol.c ****     }
 269              		.loc 1 669 9 is_stmt 1 view .LVU72
 669:Task/Task_Protocol.c ****     }
 270              		.loc 1 669 16 is_stmt 0 view .LVU73
 271 0062 E1E7     		b	.L19
 272              	.L25:
 273              		.align	2
 274              	.L24:
 275 0064 00000000 		.word	SrvDataHub
 276 0068 00000000 		.word	.LANCHOR1
 277 006c 00000000 		.word	SrvOsCommon
 278 0070 04000000 		.word	.LANCHOR1+4
 279              		.cfi_endproc
 280              	.LFE2082:
 282              		.section	.text.TaskFrameCTL_PortFrameOut_Process,"ax",%progbits
 283              		.align	1
 284              		.syntax unified
 285              		.thumb
 286              		.thumb_func
 288              	TaskFrameCTL_PortFrameOut_Process:
 289              	.LFB2085:
 674:Task/Task_Protocol.c **** 
 675:Task/Task_Protocol.c **** static void TaskFrameCTL_Upgrade_StatePolling(bool cli)
 676:Task/Task_Protocol.c **** {
 677:Task/Task_Protocol.c ****     SrvUpgrade_Stage_List stage;
 678:Task/Task_Protocol.c ****     uint32_t sys_time = SrvOsCommon.get_os_ms();
 679:Task/Task_Protocol.c ****     Shell *shell_obj = Shell_GetInstence();
 680:Task/Task_Protocol.c ****     uint16_t logout_size = 0;
 681:Task/Task_Protocol.c **** 
 682:Task/Task_Protocol.c ****     stage = SrvUpgrade.polling(sys_time, TaskFrameCTL_Upgrade_Send);
 683:Task/Task_Protocol.c **** 
 684:Task/Task_Protocol.c ****     switch ((uint8_t) stage)
 685:Task/Task_Protocol.c ****     {
 686:Task/Task_Protocol.c ****         case Stage_TimeOut:
 687:Task/Task_Protocol.c ****             if (cli && shell_obj)
 688:Task/Task_Protocol.c ****                 shellPrint(shell_obj, "\r\n");
 689:Task/Task_Protocol.c ****                 shellPrint(shell_obj, "[ Upgrade ] Communicate time out\r\n");
 690:Task/Task_Protocol.c ****         case Stage_Adapter_Error:
 691:Task/Task_Protocol.c ****             if (cli && shell_obj)
 692:Task/Task_Protocol.c ****                 shellPrint(shell_obj, "[ Upgrade ] Error\r\n");
 693:Task/Task_Protocol.c ****             
 694:Task/Task_Protocol.c ****             Upgrade_Monitor.is_enable = false;
 695:Task/Task_Protocol.c ****             memset(&Upgrade_Monitor.file_info, 0, sizeof(Upgrade_Monitor.file_info));
 696:Task/Task_Protocol.c ****             Upgrade_Monitor.port_addr = 0;
 697:Task/Task_Protocol.c ****             SrvOsCommon.enter_critical();
 698:Task/Task_Protocol.c ****             SrvDataHub.set_upgrade_state(false);
 699:Task/Task_Protocol.c ****             SrvOsCommon.exit_critical();
 700:Task/Task_Protocol.c ****             break;
 701:Task/Task_Protocol.c **** 
ARM GAS  C:\Users\8bit\AppData\Local\Temp\cczcmggF.s 			page 19


 702:Task/Task_Protocol.c ****         case Stage_Reboot:
 703:Task/Task_Protocol.c ****             if (cli && shell_obj)
 704:Task/Task_Protocol.c ****             {
 705:Task/Task_Protocol.c ****                 SrvOsCommon.delay_ms(10);
 706:Task/Task_Protocol.c ****                 shellPrint(shell_obj, "[ Upgrade ] Firmware Updating\r\n");
 707:Task/Task_Protocol.c ****                 shellPrint(shell_obj, "[ Upgrade ] DO NOT POWER OFF\r\n");
 708:Task/Task_Protocol.c ****                 SrvOsCommon.delay_ms(20);
 709:Task/Task_Protocol.c ****             }
 710:Task/Task_Protocol.c **** 
 711:Task/Task_Protocol.c ****             Upgrade_Monitor.is_enable = false;
 712:Task/Task_Protocol.c ****             SrvOsCommon.reboot();
 713:Task/Task_Protocol.c ****             break;
 714:Task/Task_Protocol.c **** 
 715:Task/Task_Protocol.c ****         case Stage_Process_PortData:
 716:Task/Task_Protocol.c ****             logout_size = SrvUpgrade.get_log(CLIPrintBuf, sizeof(CLIPrintBuf));
 717:Task/Task_Protocol.c ****             if (logout_size)
 718:Task/Task_Protocol.c ****             {
 719:Task/Task_Protocol.c ****                 if (cli && shell_obj)
 720:Task/Task_Protocol.c ****                 {
 721:Task/Task_Protocol.c ****                     SrvOsCommon.delay_ms(10);
 722:Task/Task_Protocol.c ****                     shellPrint(shell_obj, "[ Upgrade Info ] %s", CLIPrintBuf);
 723:Task/Task_Protocol.c ****                 }
 724:Task/Task_Protocol.c **** 
 725:Task/Task_Protocol.c ****                 SrvUpgrade.clear_log();
 726:Task/Task_Protocol.c ****             }
 727:Task/Task_Protocol.c ****             break;
 728:Task/Task_Protocol.c **** 
 729:Task/Task_Protocol.c ****         default:
 730:Task/Task_Protocol.c ****             break;
 731:Task/Task_Protocol.c ****     }
 732:Task/Task_Protocol.c **** }
 733:Task/Task_Protocol.c **** 
 734:Task/Task_Protocol.c **** /************************************** frame protocol section ************************************
 735:Task/Task_Protocol.c **** static bool TaskFrameCTL_MAV_Msg_Init(void)
 736:Task/Task_Protocol.c **** {
 737:Task/Task_Protocol.c ****     if (SrvComProto.get_msg_type() == SrvComProto_Type_MAV)
 738:Task/Task_Protocol.c ****     {
 739:Task/Task_Protocol.c ****         SrvComProto_MavPackInfo_TypeDef PckInfo;
 740:Task/Task_Protocol.c ****         /* create mavlink output message object */
 741:Task/Task_Protocol.c ****         memset(&PckInfo, 0, sizeof(PckInfo));
 742:Task/Task_Protocol.c ****         memset(&TaskProto_MAV_RawIMU, 0, sizeof(TaskProto_MAV_RawIMU));
 743:Task/Task_Protocol.c ****         memset(&TaskProto_MAV_ScaledIMU, 0, sizeof(TaskProto_MAV_ScaledIMU));
 744:Task/Task_Protocol.c ****         memset(&TaskProto_MAV_RcChannel, 0, sizeof(TaskProto_MAV_RcChannel));
 745:Task/Task_Protocol.c ****         memset(&TaskProto_MAV_MotoChannel, 0, sizeof(TaskProto_MAV_MotoChannel));
 746:Task/Task_Protocol.c ****         memset(&TaskProto_MAV_Attitude, 0, sizeof(TaskProto_MAV_Attitude));
 747:Task/Task_Protocol.c ****  
 748:Task/Task_Protocol.c ****         memset(&PckInfo, 0, sizeof(PckInfo));
 749:Task/Task_Protocol.c ****         memset(&RadioProto_MAV_RawIMU, 0, sizeof(TaskProto_MAV_RawIMU));
 750:Task/Task_Protocol.c ****         memset(&RadioProto_MAV_ScaledIMU, 0, sizeof(TaskProto_MAV_ScaledIMU));
 751:Task/Task_Protocol.c ****         memset(&RadioProto_MAV_RcChannel, 0, sizeof(TaskProto_MAV_RcChannel));
 752:Task/Task_Protocol.c ****         memset(&RadioProto_MAV_MotoChannel, 0, sizeof(TaskProto_MAV_MotoChannel));
 753:Task/Task_Protocol.c ****         memset(&RadioProto_MAV_Attitude, 0, sizeof(TaskProto_MAV_Attitude));
 754:Task/Task_Protocol.c ****  
 755:Task/Task_Protocol.c ****         // period 10Ms 100Hz
 756:Task/Task_Protocol.c ****         PckInfo.system_id = MAV_SysID_Drone;
 757:Task/Task_Protocol.c ****         PckInfo.component_id = MAV_CompoID_Raw_IMU;
 758:Task/Task_Protocol.c ****         PckInfo.chan = 0;
ARM GAS  C:\Users\8bit\AppData\Local\Temp\cczcmggF.s 			page 20


 759:Task/Task_Protocol.c ****         SrvComProto.mav_msg_obj_init(&TaskProto_MAV_RawIMU, PckInfo, 10);
 760:Task/Task_Protocol.c ****         SrvComProto.mav_msg_enable_ctl(&TaskProto_MAV_RawIMU, true);
 761:Task/Task_Protocol.c ****  
 762:Task/Task_Protocol.c ****         SrvComProto.mav_msg_obj_init(&RadioProto_MAV_RawIMU, PckInfo, 10);
 763:Task/Task_Protocol.c ****         SrvComProto.mav_msg_enable_ctl(&RadioProto_MAV_RawIMU, true);
 764:Task/Task_Protocol.c ****              
 765:Task/Task_Protocol.c ****         // period 10Ms 100Hz
 766:Task/Task_Protocol.c ****         PckInfo.system_id = MAV_SysID_Drone;
 767:Task/Task_Protocol.c ****         PckInfo.component_id = MAV_CompoID_Scaled_IMU;
 768:Task/Task_Protocol.c ****         PckInfo.chan = 0;
 769:Task/Task_Protocol.c ****         SrvComProto.mav_msg_obj_init(&TaskProto_MAV_ScaledIMU, PckInfo, 10);
 770:Task/Task_Protocol.c ****         SrvComProto.mav_msg_enable_ctl(&TaskProto_MAV_ScaledIMU, true);
 771:Task/Task_Protocol.c **** 
 772:Task/Task_Protocol.c ****         SrvComProto.mav_msg_obj_init(&RadioProto_MAV_ScaledIMU, PckInfo, 10);
 773:Task/Task_Protocol.c ****         SrvComProto.mav_msg_enable_ctl(&RadioProto_MAV_ScaledIMU, true);
 774:Task/Task_Protocol.c ****         
 775:Task/Task_Protocol.c ****         // period 20Ms 50Hz
 776:Task/Task_Protocol.c ****         PckInfo.system_id = MAV_SysID_Drone;
 777:Task/Task_Protocol.c ****         PckInfo.component_id = MAV_CompoID_RC_Channel;
 778:Task/Task_Protocol.c ****         PckInfo.chan = 0;
 779:Task/Task_Protocol.c ****         SrvComProto.mav_msg_obj_init(&TaskProto_MAV_RcChannel, PckInfo, 20);
 780:Task/Task_Protocol.c ****         SrvComProto.mav_msg_enable_ctl(&TaskProto_MAV_RcChannel, true);
 781:Task/Task_Protocol.c **** 
 782:Task/Task_Protocol.c ****         SrvComProto.mav_msg_obj_init(&RadioProto_MAV_RcChannel, PckInfo, 20);
 783:Task/Task_Protocol.c ****         SrvComProto.mav_msg_enable_ctl(&RadioProto_MAV_RcChannel, true);
 784:Task/Task_Protocol.c ****         
 785:Task/Task_Protocol.c ****         // period 10Ms 100Hz
 786:Task/Task_Protocol.c ****         PckInfo.system_id = MAV_SysID_Drone;
 787:Task/Task_Protocol.c ****         PckInfo.component_id = MAV_CompoID_MotoCtl;
 788:Task/Task_Protocol.c ****         PckInfo.chan = 0;
 789:Task/Task_Protocol.c ****         SrvComProto.mav_msg_obj_init(&TaskProto_MAV_MotoChannel, PckInfo, 10);
 790:Task/Task_Protocol.c ****         SrvComProto.mav_msg_enable_ctl(&TaskProto_MAV_MotoChannel, false);
 791:Task/Task_Protocol.c **** 
 792:Task/Task_Protocol.c ****         SrvComProto.mav_msg_obj_init(&RadioProto_MAV_MotoChannel, PckInfo, 10);
 793:Task/Task_Protocol.c ****         SrvComProto.mav_msg_enable_ctl(&RadioProto_MAV_MotoChannel, false);
 794:Task/Task_Protocol.c ****         
 795:Task/Task_Protocol.c ****         // period 20Ms 50Hz
 796:Task/Task_Protocol.c ****         PckInfo.system_id = MAV_SysID_Radio;
 797:Task/Task_Protocol.c ****         PckInfo.component_id = MAV_CompoID_Ctl_Attitude;
 798:Task/Task_Protocol.c ****         PckInfo.chan = 0;
 799:Task/Task_Protocol.c ****         SrvComProto.mav_msg_obj_init(&TaskProto_MAV_Attitude, PckInfo, 20);
 800:Task/Task_Protocol.c ****         SrvComProto.mav_msg_enable_ctl(&TaskProto_MAV_Attitude, true);
 801:Task/Task_Protocol.c **** 
 802:Task/Task_Protocol.c ****         SrvComProto.mav_msg_obj_init(&RadioProto_MAV_Attitude, PckInfo, 20);
 803:Task/Task_Protocol.c ****         SrvComProto.mav_msg_enable_ctl(&RadioProto_MAV_Attitude, true);
 804:Task/Task_Protocol.c ****                
 805:Task/Task_Protocol.c ****         // period 20Ms 50Hz
 806:Task/Task_Protocol.c ****         PckInfo.system_id = MAV_SysID_Drone;
 807:Task/Task_Protocol.c ****         PckInfo.component_id = MAV_CompoID_Exp_Attitude;
 808:Task/Task_Protocol.c ****         PckInfo.chan = 0;
 809:Task/Task_Protocol.c ****         SrvComProto.mav_msg_obj_init(&TaskProto_MAV_Exp_Attitude, PckInfo, 20);
 810:Task/Task_Protocol.c ****         SrvComProto.mav_msg_enable_ctl(&TaskProto_MAV_Exp_Attitude, true);
 811:Task/Task_Protocol.c ****  
 812:Task/Task_Protocol.c ****         // period 100MS 10Hz
 813:Task/Task_Protocol.c ****         PckInfo.system_id = MAV_SysID_Drone;
 814:Task/Task_Protocol.c ****         PckInfo.component_id = MAV_CompoID_Altitude;
 815:Task/Task_Protocol.c ****         PckInfo.chan = 0;
ARM GAS  C:\Users\8bit\AppData\Local\Temp\cczcmggF.s 			page 21


 816:Task/Task_Protocol.c ****         SrvComProto.mav_msg_obj_init(&TaskProto_MAV_Altitude, PckInfo, 100);
 817:Task/Task_Protocol.c ****         SrvComProto.mav_msg_enable_ctl(&TaskProto_MAV_Altitude, true);
 818:Task/Task_Protocol.c **** 
 819:Task/Task_Protocol.c ****         SrvComProto.mav_msg_obj_init(&RadioProto_MAV_Altitude, PckInfo, 100);
 820:Task/Task_Protocol.c ****         SrvComProto.mav_msg_enable_ctl(&RadioProto_MAV_Altitude, true);
 821:Task/Task_Protocol.c **** 
 822:Task/Task_Protocol.c ****         /* create mavlink input message object */
 823:Task/Task_Protocol.c ****         /* default(VCP) port */
 824:Task/Task_Protocol.c ****         /* when VCP port is been attached only can do parameter tunning function */
 825:Task/Task_Protocol.c ****         SrvComProto.mav_msg_set_input_callback(&DefaultPort_MavMsgInput_Obj, MavIn_Msg_PID_Para_Rol
 826:Task/Task_Protocol.c ****         SrvComProto.mav_msg_set_input_callback(&DefaultPort_MavMsgInput_Obj, MavIn_Msg_PID_Para_Pit
 827:Task/Task_Protocol.c ****         SrvComProto.mav_msg_set_input_callback(&DefaultPort_MavMsgInput_Obj, MavIn_Msg_PID_Para_Gyr
 828:Task/Task_Protocol.c ****         SrvComProto.mav_msg_set_input_callback(&DefaultPort_MavMsgInput_Obj, MavIn_Msg_PID_Para_Gyr
 829:Task/Task_Protocol.c ****         SrvComProto.mav_msg_set_input_callback(&DefaultPort_MavMsgInput_Obj, MavIn_Msg_PID_Para_Gyr
 830:Task/Task_Protocol.c **** 
 831:Task/Task_Protocol.c ****         /* radio port */
 832:Task/Task_Protocol.c ****         /* radio control mode can be used */
 833:Task/Task_Protocol.c ****         SrvComProto.mav_msg_set_input_callback(&RadioPort_MavMsgInput_Obj, MavIn_Msg_Att,          
 834:Task/Task_Protocol.c ****         SrvComProto.mav_msg_set_input_callback(&RadioPort_MavMsgInput_Obj, MavIn_Msg_Gyr,          
 835:Task/Task_Protocol.c ****         SrvComProto.mav_msg_set_input_callback(&RadioPort_MavMsgInput_Obj, MavIn_Msg_Alt,          
 836:Task/Task_Protocol.c ****         SrvComProto.mav_msg_set_input_callback(&RadioPort_MavMsgInput_Obj, MavIn_Msg_PID_Para_Roll,
 837:Task/Task_Protocol.c ****         SrvComProto.mav_msg_set_input_callback(&RadioPort_MavMsgInput_Obj, MavIn_Msg_PID_Para_Pitch
 838:Task/Task_Protocol.c ****         SrvComProto.mav_msg_set_input_callback(&RadioPort_MavMsgInput_Obj, MavIn_Msg_PID_Para_GyrX,
 839:Task/Task_Protocol.c ****         SrvComProto.mav_msg_set_input_callback(&RadioPort_MavMsgInput_Obj, MavIn_Msg_PID_Para_GyrY,
 840:Task/Task_Protocol.c ****         SrvComProto.mav_msg_set_input_callback(&RadioPort_MavMsgInput_Obj, MavIn_Msg_PID_Para_GyrZ,
 841:Task/Task_Protocol.c ****         return true;
 842:Task/Task_Protocol.c ****     }
 843:Task/Task_Protocol.c **** 
 844:Task/Task_Protocol.c ****     return false;
 845:Task/Task_Protocol.c **** }
 846:Task/Task_Protocol.c **** 
 847:Task/Task_Protocol.c **** static void TaskFrameCTL_PortFrameOut_Process(void)
 848:Task/Task_Protocol.c **** {
 290              		.loc 1 848 1 is_stmt 1 view -0
 291              		.cfi_startproc
 292              		@ args = 0, pretend = 0, frame = 16
 293              		@ frame_needed = 0, uses_anonymous_args = 0
 294 0000 F0B5     		push	{r4, r5, r6, r7, lr}
 295              	.LCFI6:
 296              		.cfi_def_cfa_offset 20
 297              		.cfi_offset 4, -20
 298              		.cfi_offset 5, -16
 299              		.cfi_offset 6, -12
 300              		.cfi_offset 7, -8
 301              		.cfi_offset 14, -4
 302 0002 85B0     		sub	sp, sp, #20
 303              	.LCFI7:
 304              		.cfi_def_cfa_offset 40
 849:Task/Task_Protocol.c ****     FrameCTL_Monitor_TypeDef proto_monitor;
 305              		.loc 1 849 5 view .LVU75
 850:Task/Task_Protocol.c ****     void *proto_arg = (void *)&proto_monitor;
 306              		.loc 1 850 5 view .LVU76
 307              	.LVL23:
 851:Task/Task_Protocol.c ****     bool arm_state = false;
 308              		.loc 1 851 5 view .LVU77
 309              		.loc 1 851 10 is_stmt 0 view .LVU78
 310 0004 0023     		movs	r3, #0
ARM GAS  C:\Users\8bit\AppData\Local\Temp\cczcmggF.s 			page 22


 311 0006 8DF80730 		strb	r3, [sp, #7]
 852:Task/Task_Protocol.c ****     bool CLI_state = false;
 312              		.loc 1 852 5 is_stmt 1 view .LVU79
 313              		.loc 1 852 10 is_stmt 0 view .LVU80
 314 000a 8DF80630 		strb	r3, [sp, #6]
 853:Task/Task_Protocol.c **** 
 854:Task/Task_Protocol.c ****     proto_monitor.frame_type = ComFrame_MavMsg;
 315              		.loc 1 854 5 is_stmt 1 view .LVU81
 316              		.loc 1 854 30 is_stmt 0 view .LVU82
 317 000e 0223     		movs	r3, #2
 318 0010 8DF80830 		strb	r3, [sp, #8]
 855:Task/Task_Protocol.c ****     SrvDataHub.get_cli_state(&CLI_state);
 319              		.loc 1 855 5 is_stmt 1 view .LVU83
 320              		.loc 1 855 15 is_stmt 0 view .LVU84
 321 0014 344B     		ldr	r3, .L30
 322 0016 5B69     		ldr	r3, [r3, #20]
 323              		.loc 1 855 5 view .LVU85
 324 0018 0DF10600 		add	r0, sp, #6
 325 001c 9847     		blx	r3
 326              	.LVL24:
 856:Task/Task_Protocol.c **** 
 857:Task/Task_Protocol.c ****     if(FrameCTL_MavProto_Enable)
 327              		.loc 1 857 5 is_stmt 1 view .LVU86
 328              		.loc 1 857 8 is_stmt 0 view .LVU87
 329 001e 334B     		ldr	r3, .L30+4
 330 0020 1B78     		ldrb	r3, [r3]	@ zero_extendqisi2
 331              		.loc 1 857 7 view .LVU88
 332 0022 002B     		cmp	r3, #0
 333 0024 5ED0     		beq	.L26
 858:Task/Task_Protocol.c ****     {
 859:Task/Task_Protocol.c ****         /* when attach to configrator then disable radio port trans use default port trans mav data
 860:Task/Task_Protocol.c ****         /* check other port init state */
 861:Task/Task_Protocol.c **** 
 862:Task/Task_Protocol.c ****         /* if in tunning than halt general frame protocol */
 863:Task/Task_Protocol.c ****         SrvDataHub.get_arm_state(&arm_state);
 334              		.loc 1 863 9 is_stmt 1 view .LVU89
 335              		.loc 1 863 19 is_stmt 0 view .LVU90
 336 0026 304B     		ldr	r3, .L30
 337 0028 5B6D     		ldr	r3, [r3, #84]
 338              		.loc 1 863 9 view .LVU91
 339 002a 0DF10700 		add	r0, sp, #7
 340 002e 9847     		blx	r3
 341              	.LVL25:
 864:Task/Task_Protocol.c **** 
 865:Task/Task_Protocol.c ****         if (((FrameCTL_UartPortMonitor_TypeDef *)Radio_Addr)->init_state)
 342              		.loc 1 865 9 is_stmt 1 view .LVU92
 343              		.loc 1 865 14 is_stmt 0 view .LVU93
 344 0030 2F4B     		ldr	r3, .L30+8
 345 0032 1B68     		ldr	r3, [r3]
 346              		.loc 1 865 61 view .LVU94
 347 0034 1A78     		ldrb	r2, [r3]	@ zero_extendqisi2
 348              		.loc 1 865 12 view .LVU95
 349 0036 22B3     		cbz	r2, .L28
 866:Task/Task_Protocol.c ****         {
 867:Task/Task_Protocol.c ****             /* Proto mavlink message through Radio */
 868:Task/Task_Protocol.c ****             proto_monitor.port_type = Port_Uart;
 350              		.loc 1 868 13 is_stmt 1 view .LVU96
ARM GAS  C:\Users\8bit\AppData\Local\Temp\cczcmggF.s 			page 23


 351              		.loc 1 868 37 is_stmt 0 view .LVU97
 352 0038 0222     		movs	r2, #2
 353 003a 8DF80920 		strb	r2, [sp, #9]
 869:Task/Task_Protocol.c ****             proto_monitor.port_addr = Radio_Addr;
 354              		.loc 1 869 13 is_stmt 1 view .LVU98
 355              		.loc 1 869 37 is_stmt 0 view .LVU99
 356 003e 0393     		str	r3, [sp, #12]
 870:Task/Task_Protocol.c ****             SrvComProto.mav_msg_stream(&RadioProto_MAV_RawIMU,    &MavStream, proto_arg, (ComProto_
 357              		.loc 1 870 13 is_stmt 1 view .LVU100
 358              		.loc 1 870 24 is_stmt 0 view .LVU101
 359 0040 2C4E     		ldr	r6, .L30+12
 360              		.loc 1 870 13 view .LVU102
 361 0042 2D4D     		ldr	r5, .L30+16
 362 0044 2D4C     		ldr	r4, .L30+20
 363 0046 2B46     		mov	r3, r5
 364 0048 02AA     		add	r2, sp, #8
 365              	.LVL26:
 366              		.loc 1 870 13 view .LVU103
 367 004a 2146     		mov	r1, r4
 368 004c 2C48     		ldr	r0, .L30+24
 369 004e 7769     		ldr	r7, [r6, #20]
 370 0050 B847     		blx	r7
 371              	.LVL27:
 871:Task/Task_Protocol.c ****             SrvComProto.mav_msg_stream(&RadioProto_MAV_ScaledIMU, &MavStream, proto_arg, (ComProto_
 372              		.loc 1 871 13 is_stmt 1 view .LVU104
 373 0052 2B46     		mov	r3, r5
 374 0054 02AA     		add	r2, sp, #8
 375              	.LVL28:
 376              		.loc 1 871 13 is_stmt 0 view .LVU105
 377 0056 2146     		mov	r1, r4
 378 0058 2A48     		ldr	r0, .L30+28
 379 005a 7769     		ldr	r7, [r6, #20]
 380 005c B847     		blx	r7
 381              	.LVL29:
 872:Task/Task_Protocol.c ****             SrvComProto.mav_msg_stream(&RadioProto_MAV_Attitude,  &MavStream, proto_arg, (ComProto_
 382              		.loc 1 872 13 is_stmt 1 view .LVU106
 383 005e 2B46     		mov	r3, r5
 384 0060 02AA     		add	r2, sp, #8
 385              	.LVL30:
 386              		.loc 1 872 13 is_stmt 0 view .LVU107
 387 0062 2146     		mov	r1, r4
 388 0064 2848     		ldr	r0, .L30+32
 389 0066 7769     		ldr	r7, [r6, #20]
 390 0068 B847     		blx	r7
 391              	.LVL31:
 873:Task/Task_Protocol.c ****             SrvComProto.mav_msg_stream(&RadioProto_MAV_RcChannel, &MavStream, proto_arg, (ComProto_
 392              		.loc 1 873 13 is_stmt 1 view .LVU108
 393 006a 2B46     		mov	r3, r5
 394 006c 02AA     		add	r2, sp, #8
 395              	.LVL32:
 396              		.loc 1 873 13 is_stmt 0 view .LVU109
 397 006e 2146     		mov	r1, r4
 398 0070 2648     		ldr	r0, .L30+36
 399 0072 7769     		ldr	r7, [r6, #20]
 400 0074 B847     		blx	r7
 401              	.LVL33:
 874:Task/Task_Protocol.c ****             SrvComProto.mav_msg_stream(&RadioProto_MAV_Altitude,  &MavStream, proto_arg, (ComProto_
ARM GAS  C:\Users\8bit\AppData\Local\Temp\cczcmggF.s 			page 24


 402              		.loc 1 874 13 is_stmt 1 view .LVU110
 403              		.loc 1 874 24 is_stmt 0 view .LVU111
 404 0076 7669     		ldr	r6, [r6, #20]
 405              		.loc 1 874 13 view .LVU112
 406 0078 2B46     		mov	r3, r5
 407 007a 02AA     		add	r2, sp, #8
 408              	.LVL34:
 409              		.loc 1 874 13 view .LVU113
 410 007c 2146     		mov	r1, r4
 411 007e 2448     		ldr	r0, .L30+40
 412 0080 B047     		blx	r6
 413              	.LVL35:
 414              	.L28:
 875:Task/Task_Protocol.c ****         }
 876:Task/Task_Protocol.c **** 
 877:Task/Task_Protocol.c ****         if (PortMonitor.VCP_Port.init_state)
 415              		.loc 1 877 9 is_stmt 1 view .LVU114
 416              		.loc 1 877 33 is_stmt 0 view .LVU115
 417 0082 244B     		ldr	r3, .L30+44
 418 0084 1B7A     		ldrb	r3, [r3, #8]	@ zero_extendqisi2
 419              		.loc 1 877 12 view .LVU116
 420 0086 002B     		cmp	r3, #0
 421 0088 2CD0     		beq	.L26
 878:Task/Task_Protocol.c ****         {
 879:Task/Task_Protocol.c ****             /* Proto mavlink message through default port */
 880:Task/Task_Protocol.c ****             proto_monitor.port_type = Port_USB;
 422              		.loc 1 880 13 is_stmt 1 view .LVU117
 423              		.loc 1 880 37 is_stmt 0 view .LVU118
 424 008a 0123     		movs	r3, #1
 425 008c 8DF80930 		strb	r3, [sp, #9]
 881:Task/Task_Protocol.c ****             proto_monitor.port_addr = USB_VCP_Addr;
 426              		.loc 1 881 13 is_stmt 1 view .LVU119
 427              		.loc 1 881 37 is_stmt 0 view .LVU120
 428 0090 214B     		ldr	r3, .L30+48
 429 0092 1B68     		ldr	r3, [r3]
 430 0094 0393     		str	r3, [sp, #12]
 882:Task/Task_Protocol.c ****             SrvComProto.mav_msg_stream(&TaskProto_MAV_RawIMU,       &MavStream, proto_arg, (ComProt
 431              		.loc 1 882 13 is_stmt 1 view .LVU121
 432              		.loc 1 882 24 is_stmt 0 view .LVU122
 433 0096 174E     		ldr	r6, .L30+12
 434              		.loc 1 882 13 view .LVU123
 435 0098 174D     		ldr	r5, .L30+16
 436 009a 184C     		ldr	r4, .L30+20
 437 009c 2B46     		mov	r3, r5
 438 009e 02AA     		add	r2, sp, #8
 439              	.LVL36:
 440              		.loc 1 882 13 view .LVU124
 441 00a0 2146     		mov	r1, r4
 442 00a2 1E48     		ldr	r0, .L30+52
 443 00a4 7769     		ldr	r7, [r6, #20]
 444 00a6 B847     		blx	r7
 445              	.LVL37:
 883:Task/Task_Protocol.c ****             SrvComProto.mav_msg_stream(&TaskProto_MAV_ScaledIMU,    &MavStream, proto_arg, (ComProt
 446              		.loc 1 883 13 is_stmt 1 view .LVU125
 447 00a8 2B46     		mov	r3, r5
 448 00aa 02AA     		add	r2, sp, #8
 449              	.LVL38:
ARM GAS  C:\Users\8bit\AppData\Local\Temp\cczcmggF.s 			page 25


 450              		.loc 1 883 13 is_stmt 0 view .LVU126
 451 00ac 2146     		mov	r1, r4
 452 00ae 1C48     		ldr	r0, .L30+56
 453 00b0 7769     		ldr	r7, [r6, #20]
 454 00b2 B847     		blx	r7
 455              	.LVL39:
 884:Task/Task_Protocol.c ****             SrvComProto.mav_msg_stream(&TaskProto_MAV_Attitude,     &MavStream, proto_arg, (ComProt
 456              		.loc 1 884 13 is_stmt 1 view .LVU127
 457 00b4 2B46     		mov	r3, r5
 458 00b6 02AA     		add	r2, sp, #8
 459              	.LVL40:
 460              		.loc 1 884 13 is_stmt 0 view .LVU128
 461 00b8 2146     		mov	r1, r4
 462 00ba 1A48     		ldr	r0, .L30+60
 463 00bc 7769     		ldr	r7, [r6, #20]
 464 00be B847     		blx	r7
 465              	.LVL41:
 885:Task/Task_Protocol.c ****             SrvComProto.mav_msg_stream(&TaskProto_MAV_RcChannel,    &MavStream, proto_arg, (ComProt
 466              		.loc 1 885 13 is_stmt 1 view .LVU129
 467 00c0 2B46     		mov	r3, r5
 468 00c2 02AA     		add	r2, sp, #8
 469              	.LVL42:
 470              		.loc 1 885 13 is_stmt 0 view .LVU130
 471 00c4 2146     		mov	r1, r4
 472 00c6 1848     		ldr	r0, .L30+64
 473 00c8 7769     		ldr	r7, [r6, #20]
 474 00ca B847     		blx	r7
 475              	.LVL43:
 886:Task/Task_Protocol.c ****             SrvComProto.mav_msg_stream(&TaskProto_MAV_Altitude,     &MavStream, proto_arg, (ComProt
 476              		.loc 1 886 13 is_stmt 1 view .LVU131
 477 00cc 2B46     		mov	r3, r5
 478 00ce 02AA     		add	r2, sp, #8
 479              	.LVL44:
 480              		.loc 1 886 13 is_stmt 0 view .LVU132
 481 00d0 2146     		mov	r1, r4
 482 00d2 1648     		ldr	r0, .L30+68
 483 00d4 7769     		ldr	r7, [r6, #20]
 484 00d6 B847     		blx	r7
 485              	.LVL45:
 887:Task/Task_Protocol.c ****             SrvComProto.mav_msg_stream(&TaskProto_MAV_Exp_Attitude, &MavStream, proto_arg, (ComProt
 486              		.loc 1 887 13 is_stmt 1 view .LVU133
 487              		.loc 1 887 24 is_stmt 0 view .LVU134
 488 00d8 7669     		ldr	r6, [r6, #20]
 489              		.loc 1 887 13 view .LVU135
 490 00da 2B46     		mov	r3, r5
 491 00dc 02AA     		add	r2, sp, #8
 492              	.LVL46:
 493              		.loc 1 887 13 view .LVU136
 494 00de 2146     		mov	r1, r4
 495 00e0 1348     		ldr	r0, .L30+72
 496 00e2 B047     		blx	r6
 497              	.LVL47:
 498              	.L26:
 888:Task/Task_Protocol.c ****         }
 889:Task/Task_Protocol.c ****     }
 890:Task/Task_Protocol.c **** }
 499              		.loc 1 890 1 view .LVU137
ARM GAS  C:\Users\8bit\AppData\Local\Temp\cczcmggF.s 			page 26


 500 00e4 05B0     		add	sp, sp, #20
 501              	.LCFI8:
 502              		.cfi_def_cfa_offset 20
 503              		@ sp needed
 504 00e6 F0BD     		pop	{r4, r5, r6, r7, pc}
 505              	.LVL48:
 506              	.L31:
 507              		.loc 1 890 1 view .LVU138
 508              		.align	2
 509              	.L30:
 510 00e8 00000000 		.word	SrvDataHub
 511 00ec 00000000 		.word	.LANCHOR2
 512 00f0 00000000 		.word	.LANCHOR3
 513 00f4 00000000 		.word	SrvComProto
 514 00f8 00000000 		.word	TaskFrameCTL_MavMsg_Trans
 515 00fc 00000000 		.word	.LANCHOR4
 516 0100 00000000 		.word	.LANCHOR5
 517 0104 00000000 		.word	.LANCHOR6
 518 0108 00000000 		.word	.LANCHOR7
 519 010c 00000000 		.word	.LANCHOR8
 520 0110 00000000 		.word	.LANCHOR9
 521 0114 00000000 		.word	.LANCHOR0
 522 0118 00000000 		.word	.LANCHOR10
 523 011c 00000000 		.word	.LANCHOR11
 524 0120 00000000 		.word	.LANCHOR12
 525 0124 00000000 		.word	.LANCHOR13
 526 0128 00000000 		.word	.LANCHOR14
 527 012c 00000000 		.word	.LANCHOR15
 528 0130 00000000 		.word	.LANCHOR16
 529              		.cfi_endproc
 530              	.LFE2085:
 532              		.section	.text.TaskFrame_Mav_ExpAtt_Callback,"ax",%progbits
 533              		.align	1
 534              		.syntax unified
 535              		.thumb
 536              		.thumb_func
 538              	TaskFrame_Mav_ExpAtt_Callback:
 539              	.LVL49:
 540              	.LFB2089:
 891:Task/Task_Protocol.c **** 
 892:Task/Task_Protocol.c **** static void TaskFrameCTL_CLI_Proc(void)
 893:Task/Task_Protocol.c **** {
 894:Task/Task_Protocol.c ****     uint16_t rx_stream_size = 0;
 895:Task/Task_Protocol.c ****     bool arm_state;
 896:Task/Task_Protocol.c ****     Shell *shell_obj = Shell_GetInstence();
 897:Task/Task_Protocol.c **** 
 898:Task/Task_Protocol.c ****     /* check CLI stream */
 899:Task/Task_Protocol.c ****     if(shell_obj && CLI_Monitor.p_rx_stream->p_buf && CLI_Monitor.p_rx_stream->size)
 900:Task/Task_Protocol.c ****     {
 901:Task/Task_Protocol.c ****         rx_stream_size = CLI_Monitor.p_rx_stream->size;
 902:Task/Task_Protocol.c **** 
 903:Task/Task_Protocol.c ****         /* if drone is under disarm state then CLI disable */
 904:Task/Task_Protocol.c ****         SrvDataHub.get_arm_state(&arm_state);
 905:Task/Task_Protocol.c ****         if (arm_state == DRONE_DISARM)
 906:Task/Task_Protocol.c ****             return;
 907:Task/Task_Protocol.c **** 
 908:Task/Task_Protocol.c ****         for(uint16_t i = 0; i < rx_stream_size; i++)
ARM GAS  C:\Users\8bit\AppData\Local\Temp\cczcmggF.s 			page 27


 909:Task/Task_Protocol.c ****         {
 910:Task/Task_Protocol.c ****             shellHandler(shell_obj, CLI_Monitor.p_rx_stream->p_buf[i]);
 911:Task/Task_Protocol.c ****             CLI_Monitor.p_rx_stream->p_buf[i] = 0;
 912:Task/Task_Protocol.c ****             CLI_Monitor.p_rx_stream->size --;
 913:Task/Task_Protocol.c ****         }
 914:Task/Task_Protocol.c ****     }
 915:Task/Task_Protocol.c **** }
 916:Task/Task_Protocol.c **** 
 917:Task/Task_Protocol.c **** static void TaskFrameCTL_MavMsg_Trans(FrameCTL_Monitor_TypeDef *Obj, uint8_t *p_data, uint16_t size
 918:Task/Task_Protocol.c **** {
 919:Task/Task_Protocol.c ****     if(Obj && (Obj->frame_type == ComFrame_MavMsg) && Obj->port_addr && p_data && size)
 920:Task/Task_Protocol.c ****     {
 921:Task/Task_Protocol.c ****         switch((uint8_t)(Obj->port_type))
 922:Task/Task_Protocol.c ****         {
 923:Task/Task_Protocol.c ****             case Port_Uart:
 924:Task/Task_Protocol.c ****                 TaskFrameCTL_Port_Tx(Obj->port_addr, p_data, size);
 925:Task/Task_Protocol.c ****                 break;
 926:Task/Task_Protocol.c **** 
 927:Task/Task_Protocol.c ****             case Port_USB:
 928:Task/Task_Protocol.c ****                 TaskFrameCTL_DefaultPort_Trans(p_data, size);
 929:Task/Task_Protocol.c ****                 break;
 930:Task/Task_Protocol.c **** 
 931:Task/Task_Protocol.c ****             default:
 932:Task/Task_Protocol.c ****                 return;
 933:Task/Task_Protocol.c ****         }
 934:Task/Task_Protocol.c ****     }
 935:Task/Task_Protocol.c **** }
 936:Task/Task_Protocol.c **** 
 937:Task/Task_Protocol.c **** static void TaskFrameCTL_ConfigureStateCheck(void)
 938:Task/Task_Protocol.c **** {
 939:Task/Task_Protocol.c ****     uint32_t tunning_time_stamp = 0;
 940:Task/Task_Protocol.c ****     uint32_t tunning_port = 0;
 941:Task/Task_Protocol.c ****     bool tunning_state = false;
 942:Task/Task_Protocol.c ****     uint32_t cur_time = SrvOsCommon.get_os_ms();
 943:Task/Task_Protocol.c ****     bool lst_vcp_state = false;
 944:Task/Task_Protocol.c **** 
 945:Task/Task_Protocol.c ****     PortMonitor.vcp_connect_state = false;
 946:Task/Task_Protocol.c **** 
 947:Task/Task_Protocol.c ****     /* check usb vcp attach state */
 948:Task/Task_Protocol.c ****     if (BspUSB_VCP.check_connect)
 949:Task/Task_Protocol.c ****         PortMonitor.vcp_connect_state = BspUSB_VCP.check_connect(cur_time, FrameCTL_Period);
 950:Task/Task_Protocol.c **** 
 951:Task/Task_Protocol.c ****     SrvDataHub.get_vcp_attach_state(&lst_vcp_state);
 952:Task/Task_Protocol.c **** 
 953:Task/Task_Protocol.c ****     /* if vcp connect state is change update vcp state to data hub */
 954:Task/Task_Protocol.c ****     if (lst_vcp_state != PortMonitor.vcp_connect_state)
 955:Task/Task_Protocol.c ****     {
 956:Task/Task_Protocol.c ****         DataPipe_DataObj(VCP_Attach_State) = PortMonitor.vcp_connect_state;
 957:Task/Task_Protocol.c ****         DataPipe_SendTo(&VCP_Connect_smp_DataPipe, &VCP_Connect_hub_DataPipe);
 958:Task/Task_Protocol.c ****     }
 959:Task/Task_Protocol.c **** }
 960:Task/Task_Protocol.c **** 
 961:Task/Task_Protocol.c **** /***************************************** Frame mavlink Receive Callback *************************
 962:Task/Task_Protocol.c **** static bool TaskFrame_Mav_ExpAtt_Callback(void const *mav_data, void *cus_data)
 963:Task/Task_Protocol.c **** {
 541              		.loc 1 963 1 is_stmt 1 view -0
 542              		.cfi_startproc
ARM GAS  C:\Users\8bit\AppData\Local\Temp\cczcmggF.s 			page 28


 543              		@ args = 0, pretend = 0, frame = 0
 544              		@ frame_needed = 0, uses_anonymous_args = 0
 545              		@ link register save eliminated.
 964:Task/Task_Protocol.c ****     if (mav_data == NULL)
 546              		.loc 1 964 5 view .LVU140
 547              		.loc 1 964 8 is_stmt 0 view .LVU141
 548 0000 08B1     		cbz	r0, .L34
 965:Task/Task_Protocol.c ****         return false;
 966:Task/Task_Protocol.c **** 
 967:Task/Task_Protocol.c ****     return true;
 549              		.loc 1 967 12 view .LVU142
 550 0002 0120     		movs	r0, #1
 551              	.LVL50:
 552              		.loc 1 967 12 view .LVU143
 553 0004 7047     		bx	lr
 554              	.LVL51:
 555              	.L34:
 965:Task/Task_Protocol.c ****         return false;
 556              		.loc 1 965 16 view .LVU144
 557 0006 0020     		movs	r0, #0
 558              	.LVL52:
 968:Task/Task_Protocol.c **** }
 559              		.loc 1 968 1 view .LVU145
 560 0008 7047     		bx	lr
 561              		.cfi_endproc
 562              	.LFE2089:
 564              		.section	.text.TaskFrame_Mav_ExpGyro_Callback,"ax",%progbits
 565              		.align	1
 566              		.syntax unified
 567              		.thumb
 568              		.thumb_func
 570              	TaskFrame_Mav_ExpGyro_Callback:
 571              	.LVL53:
 572              	.LFB2090:
 969:Task/Task_Protocol.c **** 
 970:Task/Task_Protocol.c **** static bool TaskFrame_Mav_ExpGyro_Callback(void const *mav_data, void *cus_data)
 971:Task/Task_Protocol.c **** {
 573              		.loc 1 971 1 is_stmt 1 view -0
 574              		.cfi_startproc
 575              		@ args = 0, pretend = 0, frame = 0
 576              		@ frame_needed = 0, uses_anonymous_args = 0
 577              		@ link register save eliminated.
 972:Task/Task_Protocol.c ****     if (mav_data == NULL)
 578              		.loc 1 972 5 view .LVU147
 579              		.loc 1 972 8 is_stmt 0 view .LVU148
 580 0000 08B1     		cbz	r0, .L37
 973:Task/Task_Protocol.c ****         return false;
 974:Task/Task_Protocol.c **** 
 975:Task/Task_Protocol.c ****     return true;
 581              		.loc 1 975 12 view .LVU149
 582 0002 0120     		movs	r0, #1
 583              	.LVL54:
 584              		.loc 1 975 12 view .LVU150
 585 0004 7047     		bx	lr
 586              	.LVL55:
 587              	.L37:
 973:Task/Task_Protocol.c ****         return false;
ARM GAS  C:\Users\8bit\AppData\Local\Temp\cczcmggF.s 			page 29


 588              		.loc 1 973 16 view .LVU151
 589 0006 0020     		movs	r0, #0
 590              	.LVL56:
 976:Task/Task_Protocol.c **** }
 591              		.loc 1 976 1 view .LVU152
 592 0008 7047     		bx	lr
 593              		.cfi_endproc
 594              	.LFE2090:
 596              		.section	.text.TaskFrame_Mav_ExpAlt_Callback,"ax",%progbits
 597              		.align	1
 598              		.syntax unified
 599              		.thumb
 600              		.thumb_func
 602              	TaskFrame_Mav_ExpAlt_Callback:
 603              	.LVL57:
 604              	.LFB2091:
 977:Task/Task_Protocol.c **** 
 978:Task/Task_Protocol.c **** static bool TaskFrame_Mav_ExpAlt_Callback(void const *mav_data, void *cus_data)
 979:Task/Task_Protocol.c **** {
 605              		.loc 1 979 1 is_stmt 1 view -0
 606              		.cfi_startproc
 607              		@ args = 0, pretend = 0, frame = 8
 608              		@ frame_needed = 0, uses_anonymous_args = 0
 609              		.loc 1 979 1 is_stmt 0 view .LVU154
 610 0000 00B5     		push	{lr}
 611              	.LCFI9:
 612              		.cfi_def_cfa_offset 4
 613              		.cfi_offset 14, -4
 614 0002 83B0     		sub	sp, sp, #12
 615              	.LCFI10:
 616              		.cfi_def_cfa_offset 16
 980:Task/Task_Protocol.c ****     bool arm_state = DRONE_ARM;
 617              		.loc 1 980 5 is_stmt 1 view .LVU155
 618              		.loc 1 980 10 is_stmt 0 view .LVU156
 619 0004 0123     		movs	r3, #1
 620 0006 8DF80730 		strb	r3, [sp, #7]
 981:Task/Task_Protocol.c **** 
 982:Task/Task_Protocol.c ****     if ((mav_data == NULL) || \
 621              		.loc 1 982 5 is_stmt 1 view .LVU157
 622              		.loc 1 982 8 is_stmt 0 view .LVU158
 623 000a 40B1     		cbz	r0, .L39
 983:Task/Task_Protocol.c ****         (SrvDataHub.get_arm_state(&arm_state)) || \
 624              		.loc 1 983 20 discriminator 1 view .LVU159
 625 000c 064B     		ldr	r3, .L42
 626 000e 5B6D     		ldr	r3, [r3, #84]
 627              		.loc 1 983 10 discriminator 1 view .LVU160
 628 0010 0DF10700 		add	r0, sp, #7
 629              	.LVL58:
 630              		.loc 1 983 10 discriminator 1 view .LVU161
 631 0014 9847     		blx	r3
 632              	.LVL59:
 982:Task/Task_Protocol.c ****         (SrvDataHub.get_arm_state(&arm_state)) || \
 633              		.loc 1 982 28 discriminator 1 view .LVU162
 634 0016 10B9     		cbnz	r0, .L39
 984:Task/Task_Protocol.c ****         (arm_state == DRONE_DISARM))
 635              		.loc 1 984 20 view .LVU163
 636 0018 9DF80700 		ldrb	r0, [sp, #7]	@ zero_extendqisi2
ARM GAS  C:\Users\8bit\AppData\Local\Temp\cczcmggF.s 			page 30


 983:Task/Task_Protocol.c ****         (SrvDataHub.get_arm_state(&arm_state)) || \
 637              		.loc 1 983 48 view .LVU164
 638 001c 00B9     		cbnz	r0, .L40
 639              	.L39:
 985:Task/Task_Protocol.c ****         return false;
 640              		.loc 1 985 9 is_stmt 1 view .LVU165
 641              		.loc 1 985 16 is_stmt 0 view .LVU166
 642 001e 0020     		movs	r0, #0
 643              	.L40:
 986:Task/Task_Protocol.c **** 
 987:Task/Task_Protocol.c ****     return true;
 988:Task/Task_Protocol.c **** }
 644              		.loc 1 988 1 view .LVU167
 645 0020 03B0     		add	sp, sp, #12
 646              	.LCFI11:
 647              		.cfi_def_cfa_offset 4
 648              		@ sp needed
 649 0022 5DF804FB 		ldr	pc, [sp], #4
 650              	.L43:
 651 0026 00BF     		.align	2
 652              	.L42:
 653 0028 00000000 		.word	SrvDataHub
 654              		.cfi_endproc
 655              	.LFE2091:
 657              		.section	.text.TaskFrame_Mav_PID_Roll_Callback,"ax",%progbits
 658              		.align	1
 659              		.syntax unified
 660              		.thumb
 661              		.thumb_func
 663              	TaskFrame_Mav_PID_Roll_Callback:
 664              	.LVL60:
 665              	.LFB2092:
 989:Task/Task_Protocol.c **** 
 990:Task/Task_Protocol.c **** static bool TaskFrame_Mav_PID_Roll_Callback(void const *mav_data, void *cus_data)
 991:Task/Task_Protocol.c **** {
 666              		.loc 1 991 1 is_stmt 1 view -0
 667              		.cfi_startproc
 668              		@ args = 0, pretend = 0, frame = 8
 669              		@ frame_needed = 0, uses_anonymous_args = 0
 670              		.loc 1 991 1 is_stmt 0 view .LVU169
 671 0000 00B5     		push	{lr}
 672              	.LCFI12:
 673              		.cfi_def_cfa_offset 4
 674              		.cfi_offset 14, -4
 675 0002 83B0     		sub	sp, sp, #12
 676              	.LCFI13:
 677              		.cfi_def_cfa_offset 16
 992:Task/Task_Protocol.c ****     bool arm_state = DRONE_ARM;
 678              		.loc 1 992 5 is_stmt 1 view .LVU170
 679              		.loc 1 992 10 is_stmt 0 view .LVU171
 680 0004 0123     		movs	r3, #1
 681 0006 8DF80730 		strb	r3, [sp, #7]
 993:Task/Task_Protocol.c **** 
 994:Task/Task_Protocol.c ****     if ((mav_data == NULL) || \
 682              		.loc 1 994 5 is_stmt 1 view .LVU172
 683              		.loc 1 994 8 is_stmt 0 view .LVU173
 684 000a 40B1     		cbz	r0, .L45
ARM GAS  C:\Users\8bit\AppData\Local\Temp\cczcmggF.s 			page 31


 995:Task/Task_Protocol.c ****         (SrvDataHub.get_arm_state(&arm_state)) || \
 685              		.loc 1 995 20 discriminator 1 view .LVU174
 686 000c 064B     		ldr	r3, .L48
 687 000e 5B6D     		ldr	r3, [r3, #84]
 688              		.loc 1 995 10 discriminator 1 view .LVU175
 689 0010 0DF10700 		add	r0, sp, #7
 690              	.LVL61:
 691              		.loc 1 995 10 discriminator 1 view .LVU176
 692 0014 9847     		blx	r3
 693              	.LVL62:
 994:Task/Task_Protocol.c ****         (SrvDataHub.get_arm_state(&arm_state)) || \
 694              		.loc 1 994 28 discriminator 1 view .LVU177
 695 0016 10B9     		cbnz	r0, .L45
 996:Task/Task_Protocol.c ****         (arm_state == DRONE_DISARM))
 696              		.loc 1 996 20 view .LVU178
 697 0018 9DF80700 		ldrb	r0, [sp, #7]	@ zero_extendqisi2
 995:Task/Task_Protocol.c ****         (SrvDataHub.get_arm_state(&arm_state)) || \
 698              		.loc 1 995 48 view .LVU179
 699 001c 00B9     		cbnz	r0, .L46
 700              	.L45:
 997:Task/Task_Protocol.c ****         return false;
 701              		.loc 1 997 9 is_stmt 1 view .LVU180
 702              		.loc 1 997 16 is_stmt 0 view .LVU181
 703 001e 0020     		movs	r0, #0
 704              	.L46:
 998:Task/Task_Protocol.c **** 
 999:Task/Task_Protocol.c ****     return true;
1000:Task/Task_Protocol.c **** }
 705              		.loc 1 1000 1 view .LVU182
 706 0020 03B0     		add	sp, sp, #12
 707              	.LCFI14:
 708              		.cfi_def_cfa_offset 4
 709              		@ sp needed
 710 0022 5DF804FB 		ldr	pc, [sp], #4
 711              	.L49:
 712 0026 00BF     		.align	2
 713              	.L48:
 714 0028 00000000 		.word	SrvDataHub
 715              		.cfi_endproc
 716              	.LFE2092:
 718              		.section	.text.TaskFrame_Mav_PID_Pitch_Callback,"ax",%progbits
 719              		.align	1
 720              		.syntax unified
 721              		.thumb
 722              		.thumb_func
 724              	TaskFrame_Mav_PID_Pitch_Callback:
 725              	.LVL63:
 726              	.LFB2093:
1001:Task/Task_Protocol.c **** 
1002:Task/Task_Protocol.c **** static bool TaskFrame_Mav_PID_Pitch_Callback(void const *mav_data, void *cus_data)
1003:Task/Task_Protocol.c **** {
 727              		.loc 1 1003 1 is_stmt 1 view -0
 728              		.cfi_startproc
 729              		@ args = 0, pretend = 0, frame = 8
 730              		@ frame_needed = 0, uses_anonymous_args = 0
 731              		.loc 1 1003 1 is_stmt 0 view .LVU184
 732 0000 00B5     		push	{lr}
ARM GAS  C:\Users\8bit\AppData\Local\Temp\cczcmggF.s 			page 32


 733              	.LCFI15:
 734              		.cfi_def_cfa_offset 4
 735              		.cfi_offset 14, -4
 736 0002 83B0     		sub	sp, sp, #12
 737              	.LCFI16:
 738              		.cfi_def_cfa_offset 16
1004:Task/Task_Protocol.c ****     bool arm_state = DRONE_ARM;
 739              		.loc 1 1004 5 is_stmt 1 view .LVU185
 740              		.loc 1 1004 10 is_stmt 0 view .LVU186
 741 0004 0123     		movs	r3, #1
 742 0006 8DF80730 		strb	r3, [sp, #7]
1005:Task/Task_Protocol.c **** 
1006:Task/Task_Protocol.c ****     if ((mav_data == NULL) || \
 743              		.loc 1 1006 5 is_stmt 1 view .LVU187
 744              		.loc 1 1006 8 is_stmt 0 view .LVU188
 745 000a 40B1     		cbz	r0, .L51
1007:Task/Task_Protocol.c ****         (SrvDataHub.get_arm_state(&arm_state)) || \
 746              		.loc 1 1007 20 discriminator 1 view .LVU189
 747 000c 064B     		ldr	r3, .L54
 748 000e 5B6D     		ldr	r3, [r3, #84]
 749              		.loc 1 1007 10 discriminator 1 view .LVU190
 750 0010 0DF10700 		add	r0, sp, #7
 751              	.LVL64:
 752              		.loc 1 1007 10 discriminator 1 view .LVU191
 753 0014 9847     		blx	r3
 754              	.LVL65:
1006:Task/Task_Protocol.c ****         (SrvDataHub.get_arm_state(&arm_state)) || \
 755              		.loc 1 1006 28 discriminator 1 view .LVU192
 756 0016 10B9     		cbnz	r0, .L51
1008:Task/Task_Protocol.c ****         (arm_state == DRONE_DISARM))
 757              		.loc 1 1008 20 view .LVU193
 758 0018 9DF80700 		ldrb	r0, [sp, #7]	@ zero_extendqisi2
1007:Task/Task_Protocol.c ****         (SrvDataHub.get_arm_state(&arm_state)) || \
 759              		.loc 1 1007 48 view .LVU194
 760 001c 00B9     		cbnz	r0, .L52
 761              	.L51:
1009:Task/Task_Protocol.c ****         return false;
 762              		.loc 1 1009 9 is_stmt 1 view .LVU195
 763              		.loc 1 1009 16 is_stmt 0 view .LVU196
 764 001e 0020     		movs	r0, #0
 765              	.L52:
1010:Task/Task_Protocol.c **** 
1011:Task/Task_Protocol.c ****     return true;
1012:Task/Task_Protocol.c **** }
 766              		.loc 1 1012 1 view .LVU197
 767 0020 03B0     		add	sp, sp, #12
 768              	.LCFI17:
 769              		.cfi_def_cfa_offset 4
 770              		@ sp needed
 771 0022 5DF804FB 		ldr	pc, [sp], #4
 772              	.L55:
 773 0026 00BF     		.align	2
 774              	.L54:
 775 0028 00000000 		.word	SrvDataHub
 776              		.cfi_endproc
 777              	.LFE2093:
 779              		.section	.text.TaskFrame_Mav_PID_GyrX_Callback,"ax",%progbits
ARM GAS  C:\Users\8bit\AppData\Local\Temp\cczcmggF.s 			page 33


 780              		.align	1
 781              		.syntax unified
 782              		.thumb
 783              		.thumb_func
 785              	TaskFrame_Mav_PID_GyrX_Callback:
 786              	.LVL66:
 787              	.LFB2094:
1013:Task/Task_Protocol.c **** 
1014:Task/Task_Protocol.c **** static bool TaskFrame_Mav_PID_GyrX_Callback(void const *mav_data, void *cus_data)
1015:Task/Task_Protocol.c **** {
 788              		.loc 1 1015 1 is_stmt 1 view -0
 789              		.cfi_startproc
 790              		@ args = 0, pretend = 0, frame = 8
 791              		@ frame_needed = 0, uses_anonymous_args = 0
 792              		.loc 1 1015 1 is_stmt 0 view .LVU199
 793 0000 00B5     		push	{lr}
 794              	.LCFI18:
 795              		.cfi_def_cfa_offset 4
 796              		.cfi_offset 14, -4
 797 0002 83B0     		sub	sp, sp, #12
 798              	.LCFI19:
 799              		.cfi_def_cfa_offset 16
1016:Task/Task_Protocol.c ****     bool arm_state = DRONE_ARM;
 800              		.loc 1 1016 5 is_stmt 1 view .LVU200
 801              		.loc 1 1016 10 is_stmt 0 view .LVU201
 802 0004 0123     		movs	r3, #1
 803 0006 8DF80730 		strb	r3, [sp, #7]
1017:Task/Task_Protocol.c **** 
1018:Task/Task_Protocol.c ****     if ((mav_data == NULL) || \
 804              		.loc 1 1018 5 is_stmt 1 view .LVU202
 805              		.loc 1 1018 8 is_stmt 0 view .LVU203
 806 000a 40B1     		cbz	r0, .L57
1019:Task/Task_Protocol.c ****         (SrvDataHub.get_arm_state(&arm_state)) || \
 807              		.loc 1 1019 20 discriminator 1 view .LVU204
 808 000c 064B     		ldr	r3, .L60
 809 000e 5B6D     		ldr	r3, [r3, #84]
 810              		.loc 1 1019 10 discriminator 1 view .LVU205
 811 0010 0DF10700 		add	r0, sp, #7
 812              	.LVL67:
 813              		.loc 1 1019 10 discriminator 1 view .LVU206
 814 0014 9847     		blx	r3
 815              	.LVL68:
1018:Task/Task_Protocol.c ****         (SrvDataHub.get_arm_state(&arm_state)) || \
 816              		.loc 1 1018 28 discriminator 1 view .LVU207
 817 0016 10B9     		cbnz	r0, .L57
1020:Task/Task_Protocol.c ****         (arm_state == DRONE_DISARM))
 818              		.loc 1 1020 20 view .LVU208
 819 0018 9DF80700 		ldrb	r0, [sp, #7]	@ zero_extendqisi2
1019:Task/Task_Protocol.c ****         (SrvDataHub.get_arm_state(&arm_state)) || \
 820              		.loc 1 1019 48 view .LVU209
 821 001c 00B9     		cbnz	r0, .L58
 822              	.L57:
1021:Task/Task_Protocol.c ****         return false;
 823              		.loc 1 1021 9 is_stmt 1 view .LVU210
 824              		.loc 1 1021 16 is_stmt 0 view .LVU211
 825 001e 0020     		movs	r0, #0
 826              	.L58:
ARM GAS  C:\Users\8bit\AppData\Local\Temp\cczcmggF.s 			page 34


1022:Task/Task_Protocol.c **** 
1023:Task/Task_Protocol.c ****     return true;
1024:Task/Task_Protocol.c **** }
 827              		.loc 1 1024 1 view .LVU212
 828 0020 03B0     		add	sp, sp, #12
 829              	.LCFI20:
 830              		.cfi_def_cfa_offset 4
 831              		@ sp needed
 832 0022 5DF804FB 		ldr	pc, [sp], #4
 833              	.L61:
 834 0026 00BF     		.align	2
 835              	.L60:
 836 0028 00000000 		.word	SrvDataHub
 837              		.cfi_endproc
 838              	.LFE2094:
 840              		.section	.text.TaskFrame_Mav_PID_GyrY_Callback,"ax",%progbits
 841              		.align	1
 842              		.syntax unified
 843              		.thumb
 844              		.thumb_func
 846              	TaskFrame_Mav_PID_GyrY_Callback:
 847              	.LVL69:
 848              	.LFB2095:
1025:Task/Task_Protocol.c **** 
1026:Task/Task_Protocol.c **** static bool TaskFrame_Mav_PID_GyrY_Callback(void const *mav_data, void *cus_data)
1027:Task/Task_Protocol.c **** {
 849              		.loc 1 1027 1 is_stmt 1 view -0
 850              		.cfi_startproc
 851              		@ args = 0, pretend = 0, frame = 8
 852              		@ frame_needed = 0, uses_anonymous_args = 0
 853              		.loc 1 1027 1 is_stmt 0 view .LVU214
 854 0000 00B5     		push	{lr}
 855              	.LCFI21:
 856              		.cfi_def_cfa_offset 4
 857              		.cfi_offset 14, -4
 858 0002 83B0     		sub	sp, sp, #12
 859              	.LCFI22:
 860              		.cfi_def_cfa_offset 16
1028:Task/Task_Protocol.c ****     bool arm_state = DRONE_ARM;
 861              		.loc 1 1028 5 is_stmt 1 view .LVU215
 862              		.loc 1 1028 10 is_stmt 0 view .LVU216
 863 0004 0123     		movs	r3, #1
 864 0006 8DF80730 		strb	r3, [sp, #7]
1029:Task/Task_Protocol.c **** 
1030:Task/Task_Protocol.c ****     if ((mav_data == NULL) || \
 865              		.loc 1 1030 5 is_stmt 1 view .LVU217
 866              		.loc 1 1030 8 is_stmt 0 view .LVU218
 867 000a 40B1     		cbz	r0, .L63
1031:Task/Task_Protocol.c ****         (SrvDataHub.get_arm_state(&arm_state)) || \
 868              		.loc 1 1031 20 discriminator 1 view .LVU219
 869 000c 064B     		ldr	r3, .L66
 870 000e 5B6D     		ldr	r3, [r3, #84]
 871              		.loc 1 1031 10 discriminator 1 view .LVU220
 872 0010 0DF10700 		add	r0, sp, #7
 873              	.LVL70:
 874              		.loc 1 1031 10 discriminator 1 view .LVU221
 875 0014 9847     		blx	r3
ARM GAS  C:\Users\8bit\AppData\Local\Temp\cczcmggF.s 			page 35


 876              	.LVL71:
1030:Task/Task_Protocol.c ****         (SrvDataHub.get_arm_state(&arm_state)) || \
 877              		.loc 1 1030 28 discriminator 1 view .LVU222
 878 0016 10B9     		cbnz	r0, .L63
1032:Task/Task_Protocol.c ****         (arm_state == DRONE_DISARM))
 879              		.loc 1 1032 20 view .LVU223
 880 0018 9DF80700 		ldrb	r0, [sp, #7]	@ zero_extendqisi2
1031:Task/Task_Protocol.c ****         (SrvDataHub.get_arm_state(&arm_state)) || \
 881              		.loc 1 1031 48 view .LVU224
 882 001c 00B9     		cbnz	r0, .L64
 883              	.L63:
1033:Task/Task_Protocol.c ****         return false;
 884              		.loc 1 1033 9 is_stmt 1 view .LVU225
 885              		.loc 1 1033 16 is_stmt 0 view .LVU226
 886 001e 0020     		movs	r0, #0
 887              	.L64:
1034:Task/Task_Protocol.c **** 
1035:Task/Task_Protocol.c ****     return true;
1036:Task/Task_Protocol.c **** }
 888              		.loc 1 1036 1 view .LVU227
 889 0020 03B0     		add	sp, sp, #12
 890              	.LCFI23:
 891              		.cfi_def_cfa_offset 4
 892              		@ sp needed
 893 0022 5DF804FB 		ldr	pc, [sp], #4
 894              	.L67:
 895 0026 00BF     		.align	2
 896              	.L66:
 897 0028 00000000 		.word	SrvDataHub
 898              		.cfi_endproc
 899              	.LFE2095:
 901              		.section	.text.TaskFrame_Mav_PID_GyrZ_Callback,"ax",%progbits
 902              		.align	1
 903              		.syntax unified
 904              		.thumb
 905              		.thumb_func
 907              	TaskFrame_Mav_PID_GyrZ_Callback:
 908              	.LVL72:
 909              	.LFB2096:
1037:Task/Task_Protocol.c **** 
1038:Task/Task_Protocol.c **** static bool TaskFrame_Mav_PID_GyrZ_Callback(void const *mav_data, void *cus_data)
1039:Task/Task_Protocol.c **** {
 910              		.loc 1 1039 1 is_stmt 1 view -0
 911              		.cfi_startproc
 912              		@ args = 0, pretend = 0, frame = 8
 913              		@ frame_needed = 0, uses_anonymous_args = 0
 914              		.loc 1 1039 1 is_stmt 0 view .LVU229
 915 0000 00B5     		push	{lr}
 916              	.LCFI24:
 917              		.cfi_def_cfa_offset 4
 918              		.cfi_offset 14, -4
 919 0002 83B0     		sub	sp, sp, #12
 920              	.LCFI25:
 921              		.cfi_def_cfa_offset 16
1040:Task/Task_Protocol.c ****     bool arm_state = DRONE_ARM;
 922              		.loc 1 1040 5 is_stmt 1 view .LVU230
 923              		.loc 1 1040 10 is_stmt 0 view .LVU231
ARM GAS  C:\Users\8bit\AppData\Local\Temp\cczcmggF.s 			page 36


 924 0004 0123     		movs	r3, #1
 925 0006 8DF80730 		strb	r3, [sp, #7]
1041:Task/Task_Protocol.c **** 
1042:Task/Task_Protocol.c ****     if ((mav_data == NULL) || \
 926              		.loc 1 1042 5 is_stmt 1 view .LVU232
 927              		.loc 1 1042 8 is_stmt 0 view .LVU233
 928 000a 40B1     		cbz	r0, .L69
1043:Task/Task_Protocol.c ****         (SrvDataHub.get_arm_state(&arm_state)) || \
 929              		.loc 1 1043 20 discriminator 1 view .LVU234
 930 000c 064B     		ldr	r3, .L72
 931 000e 5B6D     		ldr	r3, [r3, #84]
 932              		.loc 1 1043 10 discriminator 1 view .LVU235
 933 0010 0DF10700 		add	r0, sp, #7
 934              	.LVL73:
 935              		.loc 1 1043 10 discriminator 1 view .LVU236
 936 0014 9847     		blx	r3
 937              	.LVL74:
1042:Task/Task_Protocol.c ****         (SrvDataHub.get_arm_state(&arm_state)) || \
 938              		.loc 1 1042 28 discriminator 1 view .LVU237
 939 0016 10B9     		cbnz	r0, .L69
1044:Task/Task_Protocol.c ****         (arm_state == DRONE_DISARM))
 940              		.loc 1 1044 20 view .LVU238
 941 0018 9DF80700 		ldrb	r0, [sp, #7]	@ zero_extendqisi2
1043:Task/Task_Protocol.c ****         (SrvDataHub.get_arm_state(&arm_state)) || \
 942              		.loc 1 1043 48 view .LVU239
 943 001c 00B9     		cbnz	r0, .L70
 944              	.L69:
1045:Task/Task_Protocol.c ****         return false;
 945              		.loc 1 1045 9 is_stmt 1 view .LVU240
 946              		.loc 1 1045 16 is_stmt 0 view .LVU241
 947 001e 0020     		movs	r0, #0
 948              	.L70:
1046:Task/Task_Protocol.c **** 
1047:Task/Task_Protocol.c ****     return true;
1048:Task/Task_Protocol.c **** }
 949              		.loc 1 1048 1 view .LVU242
 950 0020 03B0     		add	sp, sp, #12
 951              	.LCFI26:
 952              		.cfi_def_cfa_offset 4
 953              		@ sp needed
 954 0022 5DF804FB 		ldr	pc, [sp], #4
 955              	.L73:
 956 0026 00BF     		.align	2
 957              	.L72:
 958 0028 00000000 		.word	SrvDataHub
 959              		.cfi_endproc
 960              	.LFE2096:
 962              		.section	.text.TaskFrameCTL_MAV_Msg_Init,"ax",%progbits
 963              		.align	1
 964              		.syntax unified
 965              		.thumb
 966              		.thumb_func
 968              	TaskFrameCTL_MAV_Msg_Init:
 969              	.LFB2084:
 736:Task/Task_Protocol.c ****     if (SrvComProto.get_msg_type() == SrvComProto_Type_MAV)
 970              		.loc 1 736 1 is_stmt 1 view -0
 971              		.cfi_startproc
ARM GAS  C:\Users\8bit\AppData\Local\Temp\cczcmggF.s 			page 37


 972              		@ args = 0, pretend = 0, frame = 8
 973              		@ frame_needed = 0, uses_anonymous_args = 0
 974 0000 2DE9F04F 		push	{r4, r5, r6, r7, r8, r9, r10, fp, lr}
 975              	.LCFI27:
 976              		.cfi_def_cfa_offset 36
 977              		.cfi_offset 4, -36
 978              		.cfi_offset 5, -32
 979              		.cfi_offset 6, -28
 980              		.cfi_offset 7, -24
 981              		.cfi_offset 8, -20
 982              		.cfi_offset 9, -16
 983              		.cfi_offset 10, -12
 984              		.cfi_offset 11, -8
 985              		.cfi_offset 14, -4
 986 0004 83B0     		sub	sp, sp, #12
 987              	.LCFI28:
 988              		.cfi_def_cfa_offset 48
 737:Task/Task_Protocol.c ****     {
 989              		.loc 1 737 5 view .LVU244
 737:Task/Task_Protocol.c ****     {
 990              		.loc 1 737 20 is_stmt 0 view .LVU245
 991 0006 044B     		ldr	r3, .L79
 992 0008 5B68     		ldr	r3, [r3, #4]
 737:Task/Task_Protocol.c ****     {
 993              		.loc 1 737 9 view .LVU246
 994 000a 9847     		blx	r3
 995              	.LVL75:
 737:Task/Task_Protocol.c ****     {
 996              		.loc 1 737 8 view .LVU247
 997 000c 0228     		cmp	r0, #2
 998 000e 05D0     		beq	.L78
 844:Task/Task_Protocol.c **** }
 999              		.loc 1 844 12 view .LVU248
 1000 0010 0020     		movs	r0, #0
 1001              	.L75:
 845:Task/Task_Protocol.c **** 
 1002              		.loc 1 845 1 discriminator 1 view .LVU249
 1003 0012 03B0     		add	sp, sp, #12
 1004              	.LCFI29:
 1005              		.cfi_remember_state
 1006              		.cfi_def_cfa_offset 36
 1007              		@ sp needed
 1008 0014 BDE8F08F 		pop	{r4, r5, r6, r7, r8, r9, r10, fp, pc}
 1009              	.L80:
 1010              		.align	2
 1011              	.L79:
 1012 0018 00000000 		.word	SrvComProto
 1013              	.L78:
 1014              	.LCFI30:
 1015              		.cfi_restore_state
 1016              	.LBB4:
 739:Task/Task_Protocol.c ****         /* create mavlink output message object */
 1017              		.loc 1 739 9 is_stmt 1 view .LVU250
 741:Task/Task_Protocol.c ****         memset(&TaskProto_MAV_RawIMU, 0, sizeof(TaskProto_MAV_RawIMU));
 1018              		.loc 1 741 9 view .LVU251
 1019 001c 0024     		movs	r4, #0
 1020 001e ADF80440 		strh	r4, [sp, #4]	@ movhi
ARM GAS  C:\Users\8bit\AppData\Local\Temp\cczcmggF.s 			page 38


 1021 0022 8DF80640 		strb	r4, [sp, #6]
 742:Task/Task_Protocol.c ****         memset(&TaskProto_MAV_ScaledIMU, 0, sizeof(TaskProto_MAV_ScaledIMU));
 1022              		.loc 1 742 9 view .LVU252
 1023 0026 DFF83CB3 		ldr	fp, .L81+104
 1024 002a CBF80040 		str	r4, [fp]
 1025 002e CBF80440 		str	r4, [fp, #4]
 1026 0032 CBF80840 		str	r4, [fp, #8]
 1027 0036 CBF80C40 		str	r4, [fp, #12]
 1028 003a CBF81040 		str	r4, [fp, #16]
 1029 003e CBF81440 		str	r4, [fp, #20]
 1030 0042 CBF81840 		str	r4, [fp, #24]
 743:Task/Task_Protocol.c ****         memset(&TaskProto_MAV_RcChannel, 0, sizeof(TaskProto_MAV_RcChannel));
 1031              		.loc 1 743 9 view .LVU253
 1032 0046 DFF82093 		ldr	r9, .L81+108
 1033 004a C9F80040 		str	r4, [r9]
 1034 004e C9F80440 		str	r4, [r9, #4]
 1035 0052 C9F80840 		str	r4, [r9, #8]
 1036 0056 C9F80C40 		str	r4, [r9, #12]
 1037 005a C9F81040 		str	r4, [r9, #16]
 1038 005e C9F81440 		str	r4, [r9, #20]
 1039 0062 C9F81840 		str	r4, [r9, #24]
 744:Task/Task_Protocol.c ****         memset(&TaskProto_MAV_MotoChannel, 0, sizeof(TaskProto_MAV_MotoChannel));
 1040              		.loc 1 744 9 view .LVU254
 1041 0066 A54F     		ldr	r7, .L81
 1042 0068 3C60     		str	r4, [r7]
 1043 006a 7C60     		str	r4, [r7, #4]
 1044 006c BC60     		str	r4, [r7, #8]
 1045 006e FC60     		str	r4, [r7, #12]
 1046 0070 3C61     		str	r4, [r7, #16]
 1047 0072 7C61     		str	r4, [r7, #20]
 1048 0074 BC61     		str	r4, [r7, #24]
 745:Task/Task_Protocol.c ****         memset(&TaskProto_MAV_Attitude, 0, sizeof(TaskProto_MAV_Attitude));
 1049              		.loc 1 745 9 view .LVU255
 1050 0076 A24B     		ldr	r3, .L81+4
 1051 0078 1C60     		str	r4, [r3]
 1052 007a 5C60     		str	r4, [r3, #4]
 1053 007c 9C60     		str	r4, [r3, #8]
 1054 007e DC60     		str	r4, [r3, #12]
 1055 0080 1C61     		str	r4, [r3, #16]
 1056 0082 5C61     		str	r4, [r3, #20]
 1057 0084 9C61     		str	r4, [r3, #24]
 746:Task/Task_Protocol.c ****  
 1058              		.loc 1 746 9 view .LVU256
 1059 0086 9F4B     		ldr	r3, .L81+8
 1060 0088 1C60     		str	r4, [r3]
 1061 008a 5C60     		str	r4, [r3, #4]
 1062 008c 9C60     		str	r4, [r3, #8]
 1063 008e DC60     		str	r4, [r3, #12]
 1064 0090 1C61     		str	r4, [r3, #16]
 1065 0092 5C61     		str	r4, [r3, #20]
 1066 0094 9C61     		str	r4, [r3, #24]
 748:Task/Task_Protocol.c ****         memset(&RadioProto_MAV_RawIMU, 0, sizeof(TaskProto_MAV_RawIMU));
 1067              		.loc 1 748 9 view .LVU257
 749:Task/Task_Protocol.c ****         memset(&RadioProto_MAV_ScaledIMU, 0, sizeof(TaskProto_MAV_ScaledIMU));
 1068              		.loc 1 749 9 view .LVU258
 1069 0096 9C4B     		ldr	r3, .L81+12
 1070 0098 1C60     		str	r4, [r3]
ARM GAS  C:\Users\8bit\AppData\Local\Temp\cczcmggF.s 			page 39


 1071 009a 5C60     		str	r4, [r3, #4]
 1072 009c 9C60     		str	r4, [r3, #8]
 1073 009e DC60     		str	r4, [r3, #12]
 1074 00a0 1C61     		str	r4, [r3, #16]
 1075 00a2 5C61     		str	r4, [r3, #20]
 1076 00a4 9C61     		str	r4, [r3, #24]
 750:Task/Task_Protocol.c ****         memset(&RadioProto_MAV_RcChannel, 0, sizeof(TaskProto_MAV_RcChannel));
 1077              		.loc 1 750 9 view .LVU259
 1078 00a6 DFF8C482 		ldr	r8, .L81+112
 1079 00aa C8F80040 		str	r4, [r8]
 1080 00ae C8F80440 		str	r4, [r8, #4]
 1081 00b2 C8F80840 		str	r4, [r8, #8]
 1082 00b6 C8F80C40 		str	r4, [r8, #12]
 1083 00ba C8F81040 		str	r4, [r8, #16]
 1084 00be C8F81440 		str	r4, [r8, #20]
 1085 00c2 C8F81840 		str	r4, [r8, #24]
 751:Task/Task_Protocol.c ****         memset(&RadioProto_MAV_MotoChannel, 0, sizeof(TaskProto_MAV_MotoChannel));
 1086              		.loc 1 751 9 view .LVU260
 1087 00c6 914E     		ldr	r6, .L81+16
 1088 00c8 3460     		str	r4, [r6]
 1089 00ca 7460     		str	r4, [r6, #4]
 1090 00cc B460     		str	r4, [r6, #8]
 1091 00ce F460     		str	r4, [r6, #12]
 1092 00d0 3461     		str	r4, [r6, #16]
 1093 00d2 7461     		str	r4, [r6, #20]
 1094 00d4 B461     		str	r4, [r6, #24]
 752:Task/Task_Protocol.c ****         memset(&RadioProto_MAV_Attitude, 0, sizeof(TaskProto_MAV_Attitude));
 1095              		.loc 1 752 9 view .LVU261
 1096 00d6 8E4B     		ldr	r3, .L81+20
 1097 00d8 1C60     		str	r4, [r3]
 1098 00da 5C60     		str	r4, [r3, #4]
 1099 00dc 9C60     		str	r4, [r3, #8]
 1100 00de DC60     		str	r4, [r3, #12]
 1101 00e0 1C61     		str	r4, [r3, #16]
 1102 00e2 5C61     		str	r4, [r3, #20]
 1103 00e4 9C61     		str	r4, [r3, #24]
 753:Task/Task_Protocol.c ****  
 1104              		.loc 1 753 9 view .LVU262
 1105 00e6 8B4B     		ldr	r3, .L81+24
 1106 00e8 1C60     		str	r4, [r3]
 1107 00ea 5C60     		str	r4, [r3, #4]
 1108 00ec 9C60     		str	r4, [r3, #8]
 1109 00ee DC60     		str	r4, [r3, #12]
 1110 00f0 1C61     		str	r4, [r3, #16]
 1111 00f2 5C61     		str	r4, [r3, #20]
 1112 00f4 9C61     		str	r4, [r3, #24]
 756:Task/Task_Protocol.c ****         PckInfo.component_id = MAV_CompoID_Raw_IMU;
 1113              		.loc 1 756 9 view .LVU263
 756:Task/Task_Protocol.c ****         PckInfo.component_id = MAV_CompoID_Raw_IMU;
 1114              		.loc 1 756 27 is_stmt 0 view .LVU264
 1115 00f6 4FF0010A 		mov	r10, #1
 1116 00fa 8DF804A0 		strb	r10, [sp, #4]
 757:Task/Task_Protocol.c ****         PckInfo.chan = 0;
 1117              		.loc 1 757 9 is_stmt 1 view .LVU265
 757:Task/Task_Protocol.c ****         PckInfo.chan = 0;
 1118              		.loc 1 757 30 is_stmt 0 view .LVU266
 1119 00fe 8DF805A0 		strb	r10, [sp, #5]
ARM GAS  C:\Users\8bit\AppData\Local\Temp\cczcmggF.s 			page 40


 758:Task/Task_Protocol.c ****         SrvComProto.mav_msg_obj_init(&TaskProto_MAV_RawIMU, PckInfo, 10);
 1120              		.loc 1 758 9 is_stmt 1 view .LVU267
 759:Task/Task_Protocol.c ****         SrvComProto.mav_msg_enable_ctl(&TaskProto_MAV_RawIMU, true);
 1121              		.loc 1 759 9 view .LVU268
 759:Task/Task_Protocol.c ****         SrvComProto.mav_msg_enable_ctl(&TaskProto_MAV_RawIMU, true);
 1122              		.loc 1 759 20 is_stmt 0 view .LVU269
 1123 0102 854D     		ldr	r5, .L81+28
 1124 0104 EB68     		ldr	r3, [r5, #12]
 759:Task/Task_Protocol.c ****         SrvComProto.mav_msg_enable_ctl(&TaskProto_MAV_RawIMU, true);
 1125              		.loc 1 759 9 view .LVU270
 1126 0106 0A22     		movs	r2, #10
 1127 0108 0199     		ldr	r1, [sp, #4]
 1128 010a 5846     		mov	r0, fp
 1129 010c 9847     		blx	r3
 1130              	.LVL76:
 760:Task/Task_Protocol.c ****  
 1131              		.loc 1 760 9 is_stmt 1 view .LVU271
 760:Task/Task_Protocol.c ****  
 1132              		.loc 1 760 20 is_stmt 0 view .LVU272
 1133 010e 2B69     		ldr	r3, [r5, #16]
 760:Task/Task_Protocol.c ****  
 1134              		.loc 1 760 9 view .LVU273
 1135 0110 5146     		mov	r1, r10
 1136 0112 5846     		mov	r0, fp
 1137 0114 9847     		blx	r3
 1138              	.LVL77:
 762:Task/Task_Protocol.c ****         SrvComProto.mav_msg_enable_ctl(&RadioProto_MAV_RawIMU, true);
 1139              		.loc 1 762 9 is_stmt 1 view .LVU274
 762:Task/Task_Protocol.c ****         SrvComProto.mav_msg_enable_ctl(&RadioProto_MAV_RawIMU, true);
 1140              		.loc 1 762 20 is_stmt 0 view .LVU275
 1141 0116 EB68     		ldr	r3, [r5, #12]
 762:Task/Task_Protocol.c ****         SrvComProto.mav_msg_enable_ctl(&RadioProto_MAV_RawIMU, true);
 1142              		.loc 1 762 9 view .LVU276
 1143 0118 0A22     		movs	r2, #10
 1144 011a 0199     		ldr	r1, [sp, #4]
 1145 011c 7A48     		ldr	r0, .L81+12
 1146 011e 9847     		blx	r3
 1147              	.LVL78:
 763:Task/Task_Protocol.c ****              
 1148              		.loc 1 763 9 is_stmt 1 view .LVU277
 763:Task/Task_Protocol.c ****              
 1149              		.loc 1 763 20 is_stmt 0 view .LVU278
 1150 0120 2B69     		ldr	r3, [r5, #16]
 763:Task/Task_Protocol.c ****              
 1151              		.loc 1 763 9 view .LVU279
 1152 0122 5146     		mov	r1, r10
 1153 0124 7848     		ldr	r0, .L81+12
 1154 0126 9847     		blx	r3
 1155              	.LVL79:
 766:Task/Task_Protocol.c ****         PckInfo.component_id = MAV_CompoID_Scaled_IMU;
 1156              		.loc 1 766 9 is_stmt 1 view .LVU280
 766:Task/Task_Protocol.c ****         PckInfo.component_id = MAV_CompoID_Scaled_IMU;
 1157              		.loc 1 766 27 is_stmt 0 view .LVU281
 1158 0128 8DF804A0 		strb	r10, [sp, #4]
 767:Task/Task_Protocol.c ****         PckInfo.chan = 0;
 1159              		.loc 1 767 9 is_stmt 1 view .LVU282
 767:Task/Task_Protocol.c ****         PckInfo.chan = 0;
ARM GAS  C:\Users\8bit\AppData\Local\Temp\cczcmggF.s 			page 41


 1160              		.loc 1 767 30 is_stmt 0 view .LVU283
 1161 012c 4FF00203 		mov	r3, #2
 1162 0130 8DF80530 		strb	r3, [sp, #5]
 768:Task/Task_Protocol.c ****         SrvComProto.mav_msg_obj_init(&TaskProto_MAV_ScaledIMU, PckInfo, 10);
 1163              		.loc 1 768 9 is_stmt 1 view .LVU284
 768:Task/Task_Protocol.c ****         SrvComProto.mav_msg_obj_init(&TaskProto_MAV_ScaledIMU, PckInfo, 10);
 1164              		.loc 1 768 22 is_stmt 0 view .LVU285
 1165 0134 8DF80640 		strb	r4, [sp, #6]
 769:Task/Task_Protocol.c ****         SrvComProto.mav_msg_enable_ctl(&TaskProto_MAV_ScaledIMU, true);
 1166              		.loc 1 769 9 is_stmt 1 view .LVU286
 769:Task/Task_Protocol.c ****         SrvComProto.mav_msg_enable_ctl(&TaskProto_MAV_ScaledIMU, true);
 1167              		.loc 1 769 20 is_stmt 0 view .LVU287
 1168 0138 EB68     		ldr	r3, [r5, #12]
 769:Task/Task_Protocol.c ****         SrvComProto.mav_msg_enable_ctl(&TaskProto_MAV_ScaledIMU, true);
 1169              		.loc 1 769 9 view .LVU288
 1170 013a 0A22     		movs	r2, #10
 1171 013c 0199     		ldr	r1, [sp, #4]
 1172 013e 4846     		mov	r0, r9
 1173 0140 9847     		blx	r3
 1174              	.LVL80:
 770:Task/Task_Protocol.c **** 
 1175              		.loc 1 770 9 is_stmt 1 view .LVU289
 770:Task/Task_Protocol.c **** 
 1176              		.loc 1 770 20 is_stmt 0 view .LVU290
 1177 0142 2B69     		ldr	r3, [r5, #16]
 770:Task/Task_Protocol.c **** 
 1178              		.loc 1 770 9 view .LVU291
 1179 0144 5146     		mov	r1, r10
 1180 0146 4846     		mov	r0, r9
 1181 0148 9847     		blx	r3
 1182              	.LVL81:
 772:Task/Task_Protocol.c ****         SrvComProto.mav_msg_enable_ctl(&RadioProto_MAV_ScaledIMU, true);
 1183              		.loc 1 772 9 is_stmt 1 view .LVU292
 772:Task/Task_Protocol.c ****         SrvComProto.mav_msg_enable_ctl(&RadioProto_MAV_ScaledIMU, true);
 1184              		.loc 1 772 20 is_stmt 0 view .LVU293
 1185 014a EB68     		ldr	r3, [r5, #12]
 772:Task/Task_Protocol.c ****         SrvComProto.mav_msg_enable_ctl(&RadioProto_MAV_ScaledIMU, true);
 1186              		.loc 1 772 9 view .LVU294
 1187 014c 0A22     		movs	r2, #10
 1188 014e 0199     		ldr	r1, [sp, #4]
 1189 0150 4046     		mov	r0, r8
 1190 0152 9847     		blx	r3
 1191              	.LVL82:
 773:Task/Task_Protocol.c ****         
 1192              		.loc 1 773 9 is_stmt 1 view .LVU295
 773:Task/Task_Protocol.c ****         
 1193              		.loc 1 773 20 is_stmt 0 view .LVU296
 1194 0154 2B69     		ldr	r3, [r5, #16]
 773:Task/Task_Protocol.c ****         
 1195              		.loc 1 773 9 view .LVU297
 1196 0156 5146     		mov	r1, r10
 1197 0158 4046     		mov	r0, r8
 1198 015a 9847     		blx	r3
 1199              	.LVL83:
 776:Task/Task_Protocol.c ****         PckInfo.component_id = MAV_CompoID_RC_Channel;
 1200              		.loc 1 776 9 is_stmt 1 view .LVU298
 776:Task/Task_Protocol.c ****         PckInfo.component_id = MAV_CompoID_RC_Channel;
ARM GAS  C:\Users\8bit\AppData\Local\Temp\cczcmggF.s 			page 42


 1201              		.loc 1 776 27 is_stmt 0 view .LVU299
 1202 015c 8DF804A0 		strb	r10, [sp, #4]
 777:Task/Task_Protocol.c ****         PckInfo.chan = 0;
 1203              		.loc 1 777 9 is_stmt 1 view .LVU300
 777:Task/Task_Protocol.c ****         PckInfo.chan = 0;
 1204              		.loc 1 777 30 is_stmt 0 view .LVU301
 1205 0160 4FF00803 		mov	r3, #8
 1206 0164 8DF80530 		strb	r3, [sp, #5]
 778:Task/Task_Protocol.c ****         SrvComProto.mav_msg_obj_init(&TaskProto_MAV_RcChannel, PckInfo, 20);
 1207              		.loc 1 778 9 is_stmt 1 view .LVU302
 778:Task/Task_Protocol.c ****         SrvComProto.mav_msg_obj_init(&TaskProto_MAV_RcChannel, PckInfo, 20);
 1208              		.loc 1 778 22 is_stmt 0 view .LVU303
 1209 0168 8DF80640 		strb	r4, [sp, #6]
 779:Task/Task_Protocol.c ****         SrvComProto.mav_msg_enable_ctl(&TaskProto_MAV_RcChannel, true);
 1210              		.loc 1 779 9 is_stmt 1 view .LVU304
 779:Task/Task_Protocol.c ****         SrvComProto.mav_msg_enable_ctl(&TaskProto_MAV_RcChannel, true);
 1211              		.loc 1 779 20 is_stmt 0 view .LVU305
 1212 016c EB68     		ldr	r3, [r5, #12]
 779:Task/Task_Protocol.c ****         SrvComProto.mav_msg_enable_ctl(&TaskProto_MAV_RcChannel, true);
 1213              		.loc 1 779 9 view .LVU306
 1214 016e 1422     		movs	r2, #20
 1215 0170 0199     		ldr	r1, [sp, #4]
 1216 0172 3846     		mov	r0, r7
 1217 0174 9847     		blx	r3
 1218              	.LVL84:
 780:Task/Task_Protocol.c **** 
 1219              		.loc 1 780 9 is_stmt 1 view .LVU307
 780:Task/Task_Protocol.c **** 
 1220              		.loc 1 780 20 is_stmt 0 view .LVU308
 1221 0176 2B69     		ldr	r3, [r5, #16]
 780:Task/Task_Protocol.c **** 
 1222              		.loc 1 780 9 view .LVU309
 1223 0178 5146     		mov	r1, r10
 1224 017a 3846     		mov	r0, r7
 1225 017c 9847     		blx	r3
 1226              	.LVL85:
 782:Task/Task_Protocol.c ****         SrvComProto.mav_msg_enable_ctl(&RadioProto_MAV_RcChannel, true);
 1227              		.loc 1 782 9 is_stmt 1 view .LVU310
 782:Task/Task_Protocol.c ****         SrvComProto.mav_msg_enable_ctl(&RadioProto_MAV_RcChannel, true);
 1228              		.loc 1 782 20 is_stmt 0 view .LVU311
 1229 017e EB68     		ldr	r3, [r5, #12]
 782:Task/Task_Protocol.c ****         SrvComProto.mav_msg_enable_ctl(&RadioProto_MAV_RcChannel, true);
 1230              		.loc 1 782 9 view .LVU312
 1231 0180 1422     		movs	r2, #20
 1232 0182 0199     		ldr	r1, [sp, #4]
 1233 0184 3046     		mov	r0, r6
 1234 0186 9847     		blx	r3
 1235              	.LVL86:
 783:Task/Task_Protocol.c ****         
 1236              		.loc 1 783 9 is_stmt 1 view .LVU313
 783:Task/Task_Protocol.c ****         
 1237              		.loc 1 783 20 is_stmt 0 view .LVU314
 1238 0188 2B69     		ldr	r3, [r5, #16]
 783:Task/Task_Protocol.c ****         
 1239              		.loc 1 783 9 view .LVU315
 1240 018a 5146     		mov	r1, r10
 1241 018c 3046     		mov	r0, r6
ARM GAS  C:\Users\8bit\AppData\Local\Temp\cczcmggF.s 			page 43


 1242 018e 9847     		blx	r3
 1243              	.LVL87:
 786:Task/Task_Protocol.c ****         PckInfo.component_id = MAV_CompoID_MotoCtl;
 1244              		.loc 1 786 9 is_stmt 1 view .LVU316
 786:Task/Task_Protocol.c ****         PckInfo.component_id = MAV_CompoID_MotoCtl;
 1245              		.loc 1 786 27 is_stmt 0 view .LVU317
 1246 0190 8DF804A0 		strb	r10, [sp, #4]
 787:Task/Task_Protocol.c ****         PckInfo.chan = 0;
 1247              		.loc 1 787 9 is_stmt 1 view .LVU318
 787:Task/Task_Protocol.c ****         PckInfo.chan = 0;
 1248              		.loc 1 787 30 is_stmt 0 view .LVU319
 1249 0194 4FF00903 		mov	r3, #9
 1250 0198 8DF80530 		strb	r3, [sp, #5]
 788:Task/Task_Protocol.c ****         SrvComProto.mav_msg_obj_init(&TaskProto_MAV_MotoChannel, PckInfo, 10);
 1251              		.loc 1 788 9 is_stmt 1 view .LVU320
 788:Task/Task_Protocol.c ****         SrvComProto.mav_msg_obj_init(&TaskProto_MAV_MotoChannel, PckInfo, 10);
 1252              		.loc 1 788 22 is_stmt 0 view .LVU321
 1253 019c 8DF80640 		strb	r4, [sp, #6]
 789:Task/Task_Protocol.c ****         SrvComProto.mav_msg_enable_ctl(&TaskProto_MAV_MotoChannel, false);
 1254              		.loc 1 789 9 is_stmt 1 view .LVU322
 789:Task/Task_Protocol.c ****         SrvComProto.mav_msg_enable_ctl(&TaskProto_MAV_MotoChannel, false);
 1255              		.loc 1 789 20 is_stmt 0 view .LVU323
 1256 01a0 EB68     		ldr	r3, [r5, #12]
 789:Task/Task_Protocol.c ****         SrvComProto.mav_msg_enable_ctl(&TaskProto_MAV_MotoChannel, false);
 1257              		.loc 1 789 9 view .LVU324
 1258 01a2 0A22     		movs	r2, #10
 1259 01a4 0199     		ldr	r1, [sp, #4]
 1260 01a6 5648     		ldr	r0, .L81+4
 1261 01a8 9847     		blx	r3
 1262              	.LVL88:
 790:Task/Task_Protocol.c **** 
 1263              		.loc 1 790 9 is_stmt 1 view .LVU325
 790:Task/Task_Protocol.c **** 
 1264              		.loc 1 790 20 is_stmt 0 view .LVU326
 1265 01aa 2B69     		ldr	r3, [r5, #16]
 790:Task/Task_Protocol.c **** 
 1266              		.loc 1 790 9 view .LVU327
 1267 01ac 2146     		mov	r1, r4
 1268 01ae 5448     		ldr	r0, .L81+4
 1269 01b0 9847     		blx	r3
 1270              	.LVL89:
 792:Task/Task_Protocol.c ****         SrvComProto.mav_msg_enable_ctl(&RadioProto_MAV_MotoChannel, false);
 1271              		.loc 1 792 9 is_stmt 1 view .LVU328
 792:Task/Task_Protocol.c ****         SrvComProto.mav_msg_enable_ctl(&RadioProto_MAV_MotoChannel, false);
 1272              		.loc 1 792 20 is_stmt 0 view .LVU329
 1273 01b2 EB68     		ldr	r3, [r5, #12]
 792:Task/Task_Protocol.c ****         SrvComProto.mav_msg_enable_ctl(&RadioProto_MAV_MotoChannel, false);
 1274              		.loc 1 792 9 view .LVU330
 1275 01b4 0A22     		movs	r2, #10
 1276 01b6 0199     		ldr	r1, [sp, #4]
 1277 01b8 5548     		ldr	r0, .L81+20
 1278 01ba 9847     		blx	r3
 1279              	.LVL90:
 793:Task/Task_Protocol.c ****         
 1280              		.loc 1 793 9 is_stmt 1 view .LVU331
 793:Task/Task_Protocol.c ****         
 1281              		.loc 1 793 20 is_stmt 0 view .LVU332
ARM GAS  C:\Users\8bit\AppData\Local\Temp\cczcmggF.s 			page 44


 1282 01bc 2B69     		ldr	r3, [r5, #16]
 793:Task/Task_Protocol.c ****         
 1283              		.loc 1 793 9 view .LVU333
 1284 01be 2146     		mov	r1, r4
 1285 01c0 5348     		ldr	r0, .L81+20
 1286 01c2 9847     		blx	r3
 1287              	.LVL91:
 796:Task/Task_Protocol.c ****         PckInfo.component_id = MAV_CompoID_Ctl_Attitude;
 1288              		.loc 1 796 9 is_stmt 1 view .LVU334
 796:Task/Task_Protocol.c ****         PckInfo.component_id = MAV_CompoID_Ctl_Attitude;
 1289              		.loc 1 796 27 is_stmt 0 view .LVU335
 1290 01c4 0423     		movs	r3, #4
 1291 01c6 8DF80430 		strb	r3, [sp, #4]
 797:Task/Task_Protocol.c ****         PckInfo.chan = 0;
 1292              		.loc 1 797 9 is_stmt 1 view .LVU336
 797:Task/Task_Protocol.c ****         PckInfo.chan = 0;
 1293              		.loc 1 797 30 is_stmt 0 view .LVU337
 1294 01ca 0C23     		movs	r3, #12
 1295 01cc 8DF80530 		strb	r3, [sp, #5]
 798:Task/Task_Protocol.c ****         SrvComProto.mav_msg_obj_init(&TaskProto_MAV_Attitude, PckInfo, 20);
 1296              		.loc 1 798 9 is_stmt 1 view .LVU338
 798:Task/Task_Protocol.c ****         SrvComProto.mav_msg_obj_init(&TaskProto_MAV_Attitude, PckInfo, 20);
 1297              		.loc 1 798 22 is_stmt 0 view .LVU339
 1298 01d0 8DF80640 		strb	r4, [sp, #6]
 799:Task/Task_Protocol.c ****         SrvComProto.mav_msg_enable_ctl(&TaskProto_MAV_Attitude, true);
 1299              		.loc 1 799 9 is_stmt 1 view .LVU340
 799:Task/Task_Protocol.c ****         SrvComProto.mav_msg_enable_ctl(&TaskProto_MAV_Attitude, true);
 1300              		.loc 1 799 20 is_stmt 0 view .LVU341
 1301 01d4 EB68     		ldr	r3, [r5, #12]
 799:Task/Task_Protocol.c ****         SrvComProto.mav_msg_enable_ctl(&TaskProto_MAV_Attitude, true);
 1302              		.loc 1 799 9 view .LVU342
 1303 01d6 1422     		movs	r2, #20
 1304 01d8 0199     		ldr	r1, [sp, #4]
 1305 01da 4A48     		ldr	r0, .L81+8
 1306 01dc 9847     		blx	r3
 1307              	.LVL92:
 800:Task/Task_Protocol.c **** 
 1308              		.loc 1 800 9 is_stmt 1 view .LVU343
 800:Task/Task_Protocol.c **** 
 1309              		.loc 1 800 20 is_stmt 0 view .LVU344
 1310 01de 2B69     		ldr	r3, [r5, #16]
 800:Task/Task_Protocol.c **** 
 1311              		.loc 1 800 9 view .LVU345
 1312 01e0 5146     		mov	r1, r10
 1313 01e2 4848     		ldr	r0, .L81+8
 1314 01e4 9847     		blx	r3
 1315              	.LVL93:
 802:Task/Task_Protocol.c ****         SrvComProto.mav_msg_enable_ctl(&RadioProto_MAV_Attitude, true);
 1316              		.loc 1 802 9 is_stmt 1 view .LVU346
 802:Task/Task_Protocol.c ****         SrvComProto.mav_msg_enable_ctl(&RadioProto_MAV_Attitude, true);
 1317              		.loc 1 802 20 is_stmt 0 view .LVU347
 1318 01e6 EB68     		ldr	r3, [r5, #12]
 802:Task/Task_Protocol.c ****         SrvComProto.mav_msg_enable_ctl(&RadioProto_MAV_Attitude, true);
 1319              		.loc 1 802 9 view .LVU348
 1320 01e8 1422     		movs	r2, #20
 1321 01ea 0199     		ldr	r1, [sp, #4]
 1322 01ec 4948     		ldr	r0, .L81+24
ARM GAS  C:\Users\8bit\AppData\Local\Temp\cczcmggF.s 			page 45


 1323 01ee 9847     		blx	r3
 1324              	.LVL94:
 803:Task/Task_Protocol.c ****                
 1325              		.loc 1 803 9 is_stmt 1 view .LVU349
 803:Task/Task_Protocol.c ****                
 1326              		.loc 1 803 20 is_stmt 0 view .LVU350
 1327 01f0 2B69     		ldr	r3, [r5, #16]
 803:Task/Task_Protocol.c ****                
 1328              		.loc 1 803 9 view .LVU351
 1329 01f2 5146     		mov	r1, r10
 1330 01f4 4748     		ldr	r0, .L81+24
 1331 01f6 9847     		blx	r3
 1332              	.LVL95:
 806:Task/Task_Protocol.c ****         PckInfo.component_id = MAV_CompoID_Exp_Attitude;
 1333              		.loc 1 806 9 is_stmt 1 view .LVU352
 806:Task/Task_Protocol.c ****         PckInfo.component_id = MAV_CompoID_Exp_Attitude;
 1334              		.loc 1 806 27 is_stmt 0 view .LVU353
 1335 01f8 8DF804A0 		strb	r10, [sp, #4]
 807:Task/Task_Protocol.c ****         PckInfo.chan = 0;
 1336              		.loc 1 807 9 is_stmt 1 view .LVU354
 807:Task/Task_Protocol.c ****         PckInfo.chan = 0;
 1337              		.loc 1 807 30 is_stmt 0 view .LVU355
 1338 01fc 4FF0060B 		mov	fp, #6
 1339 0200 8DF805B0 		strb	fp, [sp, #5]
 808:Task/Task_Protocol.c ****         SrvComProto.mav_msg_obj_init(&TaskProto_MAV_Exp_Attitude, PckInfo, 20);
 1340              		.loc 1 808 9 is_stmt 1 view .LVU356
 808:Task/Task_Protocol.c ****         SrvComProto.mav_msg_obj_init(&TaskProto_MAV_Exp_Attitude, PckInfo, 20);
 1341              		.loc 1 808 22 is_stmt 0 view .LVU357
 1342 0204 8DF80640 		strb	r4, [sp, #6]
 809:Task/Task_Protocol.c ****         SrvComProto.mav_msg_enable_ctl(&TaskProto_MAV_Exp_Attitude, true);
 1343              		.loc 1 809 9 is_stmt 1 view .LVU358
 809:Task/Task_Protocol.c ****         SrvComProto.mav_msg_enable_ctl(&TaskProto_MAV_Exp_Attitude, true);
 1344              		.loc 1 809 20 is_stmt 0 view .LVU359
 1345 0208 EB68     		ldr	r3, [r5, #12]
 809:Task/Task_Protocol.c ****         SrvComProto.mav_msg_enable_ctl(&TaskProto_MAV_Exp_Attitude, true);
 1346              		.loc 1 809 9 view .LVU360
 1347 020a 444E     		ldr	r6, .L81+32
 1348 020c 1422     		movs	r2, #20
 1349 020e 0199     		ldr	r1, [sp, #4]
 1350 0210 3046     		mov	r0, r6
 1351 0212 9847     		blx	r3
 1352              	.LVL96:
 810:Task/Task_Protocol.c ****  
 1353              		.loc 1 810 9 is_stmt 1 view .LVU361
 810:Task/Task_Protocol.c ****  
 1354              		.loc 1 810 20 is_stmt 0 view .LVU362
 1355 0214 2B69     		ldr	r3, [r5, #16]
 810:Task/Task_Protocol.c ****  
 1356              		.loc 1 810 9 view .LVU363
 1357 0216 5146     		mov	r1, r10
 1358 0218 3046     		mov	r0, r6
 1359 021a 9847     		blx	r3
 1360              	.LVL97:
 813:Task/Task_Protocol.c ****         PckInfo.component_id = MAV_CompoID_Altitude;
 1361              		.loc 1 813 9 is_stmt 1 view .LVU364
 813:Task/Task_Protocol.c ****         PckInfo.component_id = MAV_CompoID_Altitude;
 1362              		.loc 1 813 27 is_stmt 0 view .LVU365
ARM GAS  C:\Users\8bit\AppData\Local\Temp\cczcmggF.s 			page 46


 1363 021c 8DF804A0 		strb	r10, [sp, #4]
 814:Task/Task_Protocol.c ****         PckInfo.chan = 0;
 1364              		.loc 1 814 9 is_stmt 1 view .LVU366
 814:Task/Task_Protocol.c ****         PckInfo.chan = 0;
 1365              		.loc 1 814 30 is_stmt 0 view .LVU367
 1366 0220 4FF00709 		mov	r9, #7
 1367 0224 8DF80590 		strb	r9, [sp, #5]
 815:Task/Task_Protocol.c ****         SrvComProto.mav_msg_obj_init(&TaskProto_MAV_Altitude, PckInfo, 100);
 1368              		.loc 1 815 9 is_stmt 1 view .LVU368
 815:Task/Task_Protocol.c ****         SrvComProto.mav_msg_obj_init(&TaskProto_MAV_Altitude, PckInfo, 100);
 1369              		.loc 1 815 22 is_stmt 0 view .LVU369
 1370 0228 8DF80640 		strb	r4, [sp, #6]
 816:Task/Task_Protocol.c ****         SrvComProto.mav_msg_enable_ctl(&TaskProto_MAV_Altitude, true);
 1371              		.loc 1 816 9 is_stmt 1 view .LVU370
 816:Task/Task_Protocol.c ****         SrvComProto.mav_msg_enable_ctl(&TaskProto_MAV_Altitude, true);
 1372              		.loc 1 816 20 is_stmt 0 view .LVU371
 1373 022c EB68     		ldr	r3, [r5, #12]
 816:Task/Task_Protocol.c ****         SrvComProto.mav_msg_enable_ctl(&TaskProto_MAV_Altitude, true);
 1374              		.loc 1 816 9 view .LVU372
 1375 022e 3C4E     		ldr	r6, .L81+36
 1376 0230 6422     		movs	r2, #100
 1377 0232 0199     		ldr	r1, [sp, #4]
 1378 0234 3046     		mov	r0, r6
 1379 0236 9847     		blx	r3
 1380              	.LVL98:
 817:Task/Task_Protocol.c **** 
 1381              		.loc 1 817 9 is_stmt 1 view .LVU373
 817:Task/Task_Protocol.c **** 
 1382              		.loc 1 817 20 is_stmt 0 view .LVU374
 1383 0238 2B69     		ldr	r3, [r5, #16]
 817:Task/Task_Protocol.c **** 
 1384              		.loc 1 817 9 view .LVU375
 1385 023a 5146     		mov	r1, r10
 1386 023c 3046     		mov	r0, r6
 1387 023e 9847     		blx	r3
 1388              	.LVL99:
 819:Task/Task_Protocol.c ****         SrvComProto.mav_msg_enable_ctl(&RadioProto_MAV_Altitude, true);
 1389              		.loc 1 819 9 is_stmt 1 view .LVU376
 819:Task/Task_Protocol.c ****         SrvComProto.mav_msg_enable_ctl(&RadioProto_MAV_Altitude, true);
 1390              		.loc 1 819 20 is_stmt 0 view .LVU377
 1391 0240 EB68     		ldr	r3, [r5, #12]
 819:Task/Task_Protocol.c ****         SrvComProto.mav_msg_enable_ctl(&RadioProto_MAV_Altitude, true);
 1392              		.loc 1 819 9 view .LVU378
 1393 0242 384E     		ldr	r6, .L81+40
 1394 0244 6422     		movs	r2, #100
 1395 0246 0199     		ldr	r1, [sp, #4]
 1396 0248 3046     		mov	r0, r6
 1397 024a 9847     		blx	r3
 1398              	.LVL100:
 820:Task/Task_Protocol.c **** 
 1399              		.loc 1 820 9 is_stmt 1 view .LVU379
 820:Task/Task_Protocol.c **** 
 1400              		.loc 1 820 20 is_stmt 0 view .LVU380
 1401 024c 2B69     		ldr	r3, [r5, #16]
 820:Task/Task_Protocol.c **** 
 1402              		.loc 1 820 9 view .LVU381
 1403 024e 5146     		mov	r1, r10
ARM GAS  C:\Users\8bit\AppData\Local\Temp\cczcmggF.s 			page 47


 1404 0250 3046     		mov	r0, r6
 1405 0252 9847     		blx	r3
 1406              	.LVL101:
 825:Task/Task_Protocol.c ****         SrvComProto.mav_msg_set_input_callback(&DefaultPort_MavMsgInput_Obj, MavIn_Msg_PID_Para_Pit
 1407              		.loc 1 825 9 is_stmt 1 view .LVU382
 1408 0254 344E     		ldr	r6, .L81+44
 1409 0256 354B     		ldr	r3, .L81+48
 1410 0258 354A     		ldr	r2, .L81+52
 1411 025a 0821     		movs	r1, #8
 1412 025c 3046     		mov	r0, r6
 1413 025e AF69     		ldr	r7, [r5, #24]
 1414 0260 B847     		blx	r7
 1415              	.LVL102:
 826:Task/Task_Protocol.c ****         SrvComProto.mav_msg_set_input_callback(&DefaultPort_MavMsgInput_Obj, MavIn_Msg_PID_Para_Gyr
 1416              		.loc 1 826 9 view .LVU383
 1417 0262 344B     		ldr	r3, .L81+56
 1418 0264 344A     		ldr	r2, .L81+60
 1419 0266 0921     		movs	r1, #9
 1420 0268 3046     		mov	r0, r6
 1421 026a AF69     		ldr	r7, [r5, #24]
 1422 026c B847     		blx	r7
 1423              	.LVL103:
 827:Task/Task_Protocol.c ****         SrvComProto.mav_msg_set_input_callback(&DefaultPort_MavMsgInput_Obj, MavIn_Msg_PID_Para_Gyr
 1424              		.loc 1 827 9 view .LVU384
 1425 026e 334B     		ldr	r3, .L81+64
 1426 0270 334A     		ldr	r2, .L81+68
 1427 0272 0521     		movs	r1, #5
 1428 0274 3046     		mov	r0, r6
 1429 0276 AF69     		ldr	r7, [r5, #24]
 1430 0278 B847     		blx	r7
 1431              	.LVL104:
 828:Task/Task_Protocol.c ****         SrvComProto.mav_msg_set_input_callback(&DefaultPort_MavMsgInput_Obj, MavIn_Msg_PID_Para_Gyr
 1432              		.loc 1 828 9 view .LVU385
 1433 027a 324B     		ldr	r3, .L81+72
 1434 027c 324A     		ldr	r2, .L81+76
 1435 027e 5946     		mov	r1, fp
 1436 0280 3046     		mov	r0, r6
 1437 0282 AF69     		ldr	r7, [r5, #24]
 1438 0284 B847     		blx	r7
 1439              	.LVL105:
 829:Task/Task_Protocol.c **** 
 1440              		.loc 1 829 9 view .LVU386
 1441 0286 DFF8E880 		ldr	r8, .L81+116
 1442 028a 304B     		ldr	r3, .L81+80
 1443 028c 4246     		mov	r2, r8
 1444 028e 4946     		mov	r1, r9
 1445 0290 3046     		mov	r0, r6
 1446 0292 AE69     		ldr	r6, [r5, #24]
 1447 0294 B047     		blx	r6
 1448              	.LVL106:
 833:Task/Task_Protocol.c ****         SrvComProto.mav_msg_set_input_callback(&RadioPort_MavMsgInput_Obj, MavIn_Msg_Gyr,          
 1449              		.loc 1 833 9 view .LVU387
 1450 0296 2E4E     		ldr	r6, .L81+84
 1451 0298 2E4B     		ldr	r3, .L81+88
 1452 029a 2F4A     		ldr	r2, .L81+92
 1453 029c 5146     		mov	r1, r10
 1454 029e 3046     		mov	r0, r6
ARM GAS  C:\Users\8bit\AppData\Local\Temp\cczcmggF.s 			page 48


 1455 02a0 AF69     		ldr	r7, [r5, #24]
 1456 02a2 B847     		blx	r7
 1457              	.LVL107:
 834:Task/Task_Protocol.c ****         SrvComProto.mav_msg_set_input_callback(&RadioPort_MavMsgInput_Obj, MavIn_Msg_Alt,          
 1458              		.loc 1 834 9 view .LVU388
 1459 02a4 2B4F     		ldr	r7, .L81+88
 1460 02a6 07F11003 		add	r3, r7, #16
 1461 02aa 2C4A     		ldr	r2, .L81+96
 1462 02ac 2146     		mov	r1, r4
 1463 02ae 3046     		mov	r0, r6
 1464 02b0 AC69     		ldr	r4, [r5, #24]
 1465 02b2 A047     		blx	r4
 1466              	.LVL108:
 835:Task/Task_Protocol.c ****         SrvComProto.mav_msg_set_input_callback(&RadioPort_MavMsgInput_Obj, MavIn_Msg_PID_Para_Roll,
 1467              		.loc 1 835 9 view .LVU389
 835:Task/Task_Protocol.c ****         SrvComProto.mav_msg_set_input_callback(&RadioPort_MavMsgInput_Obj, MavIn_Msg_PID_Para_Roll,
 1468              		.loc 1 835 20 is_stmt 0 view .LVU390
 1469 02b4 AC69     		ldr	r4, [r5, #24]
 835:Task/Task_Protocol.c ****         SrvComProto.mav_msg_set_input_callback(&RadioPort_MavMsgInput_Obj, MavIn_Msg_PID_Para_Roll,
 1470              		.loc 1 835 9 view .LVU391
 1471 02b6 07F11C03 		add	r3, r7, #28
 1472 02ba 294A     		ldr	r2, .L81+100
 1473 02bc 0221     		movs	r1, #2
 1474 02be 3046     		mov	r0, r6
 1475 02c0 A047     		blx	r4
 1476              	.LVL109:
 836:Task/Task_Protocol.c ****         SrvComProto.mav_msg_set_input_callback(&RadioPort_MavMsgInput_Obj, MavIn_Msg_PID_Para_Pitch
 1477              		.loc 1 836 9 is_stmt 1 view .LVU392
 836:Task/Task_Protocol.c ****         SrvComProto.mav_msg_set_input_callback(&RadioPort_MavMsgInput_Obj, MavIn_Msg_PID_Para_Pitch
 1478              		.loc 1 836 20 is_stmt 0 view .LVU393
 1479 02c2 AC69     		ldr	r4, [r5, #24]
 836:Task/Task_Protocol.c ****         SrvComProto.mav_msg_set_input_callback(&RadioPort_MavMsgInput_Obj, MavIn_Msg_PID_Para_Pitch
 1480              		.loc 1 836 9 view .LVU394
 1481 02c4 07F12403 		add	r3, r7, #36
 1482 02c8 194A     		ldr	r2, .L81+52
 1483 02ca 0821     		movs	r1, #8
 1484 02cc 3046     		mov	r0, r6
 1485 02ce A047     		blx	r4
 1486              	.LVL110:
 837:Task/Task_Protocol.c ****         SrvComProto.mav_msg_set_input_callback(&RadioPort_MavMsgInput_Obj, MavIn_Msg_PID_Para_GyrX,
 1487              		.loc 1 837 9 is_stmt 1 view .LVU395
 837:Task/Task_Protocol.c ****         SrvComProto.mav_msg_set_input_callback(&RadioPort_MavMsgInput_Obj, MavIn_Msg_PID_Para_GyrX,
 1488              		.loc 1 837 20 is_stmt 0 view .LVU396
 1489 02d0 AC69     		ldr	r4, [r5, #24]
 837:Task/Task_Protocol.c ****         SrvComProto.mav_msg_set_input_callback(&RadioPort_MavMsgInput_Obj, MavIn_Msg_PID_Para_GyrX,
 1490              		.loc 1 837 9 view .LVU397
 1491 02d2 07F14003 		add	r3, r7, #64
 1492 02d6 184A     		ldr	r2, .L81+60
 1493 02d8 0921     		movs	r1, #9
 1494 02da 3046     		mov	r0, r6
 1495 02dc A047     		blx	r4
 1496              	.LVL111:
 838:Task/Task_Protocol.c ****         SrvComProto.mav_msg_set_input_callback(&RadioPort_MavMsgInput_Obj, MavIn_Msg_PID_Para_GyrY,
 1497              		.loc 1 838 9 is_stmt 1 view .LVU398
 838:Task/Task_Protocol.c ****         SrvComProto.mav_msg_set_input_callback(&RadioPort_MavMsgInput_Obj, MavIn_Msg_PID_Para_GyrY,
 1498              		.loc 1 838 20 is_stmt 0 view .LVU399
 1499 02de AC69     		ldr	r4, [r5, #24]
ARM GAS  C:\Users\8bit\AppData\Local\Temp\cczcmggF.s 			page 49


 838:Task/Task_Protocol.c ****         SrvComProto.mav_msg_set_input_callback(&RadioPort_MavMsgInput_Obj, MavIn_Msg_PID_Para_GyrY,
 1500              		.loc 1 838 9 view .LVU400
 1501 02e0 07F15C03 		add	r3, r7, #92
 1502 02e4 164A     		ldr	r2, .L81+68
 1503 02e6 0521     		movs	r1, #5
 1504 02e8 3046     		mov	r0, r6
 1505 02ea A047     		blx	r4
 1506              	.LVL112:
 839:Task/Task_Protocol.c ****         SrvComProto.mav_msg_set_input_callback(&RadioPort_MavMsgInput_Obj, MavIn_Msg_PID_Para_GyrZ,
 1507              		.loc 1 839 9 is_stmt 1 view .LVU401
 839:Task/Task_Protocol.c ****         SrvComProto.mav_msg_set_input_callback(&RadioPort_MavMsgInput_Obj, MavIn_Msg_PID_Para_GyrZ,
 1508              		.loc 1 839 20 is_stmt 0 view .LVU402
 1509 02ec AC69     		ldr	r4, [r5, #24]
 839:Task/Task_Protocol.c ****         SrvComProto.mav_msg_set_input_callback(&RadioPort_MavMsgInput_Obj, MavIn_Msg_PID_Para_GyrZ,
 1510              		.loc 1 839 9 view .LVU403
 1511 02ee 07F17803 		add	r3, r7, #120
 1512 02f2 154A     		ldr	r2, .L81+76
 1513 02f4 5946     		mov	r1, fp
 1514 02f6 3046     		mov	r0, r6
 1515 02f8 3CE0     		b	.L82
 1516              	.L83:
 1517 02fa 00BF     		.align	2
 1518              	.L81:
 1519 02fc 00000000 		.word	.LANCHOR14
 1520 0300 00000000 		.word	.LANCHOR17
 1521 0304 00000000 		.word	.LANCHOR13
 1522 0308 00000000 		.word	.LANCHOR5
 1523 030c 00000000 		.word	.LANCHOR8
 1524 0310 00000000 		.word	.LANCHOR18
 1525 0314 00000000 		.word	.LANCHOR7
 1526 0318 00000000 		.word	SrvComProto
 1527 031c 00000000 		.word	.LANCHOR16
 1528 0320 00000000 		.word	.LANCHOR15
 1529 0324 00000000 		.word	.LANCHOR9
 1530 0328 00000000 		.word	.LANCHOR20
 1531 032c 24000000 		.word	.LANCHOR19+36
 1532 0330 00000000 		.word	TaskFrame_Mav_PID_Roll_Callback
 1533 0334 40000000 		.word	.LANCHOR19+64
 1534 0338 00000000 		.word	TaskFrame_Mav_PID_Pitch_Callback
 1535 033c 5C000000 		.word	.LANCHOR19+92
 1536 0340 00000000 		.word	TaskFrame_Mav_PID_GyrX_Callback
 1537 0344 78000000 		.word	.LANCHOR19+120
 1538 0348 00000000 		.word	TaskFrame_Mav_PID_GyrY_Callback
 1539 034c 94000000 		.word	.LANCHOR19+148
 1540 0350 00000000 		.word	.LANCHOR21
 1541 0354 00000000 		.word	.LANCHOR19
 1542 0358 00000000 		.word	TaskFrame_Mav_ExpAtt_Callback
 1543 035c 00000000 		.word	TaskFrame_Mav_ExpGyro_Callback
 1544 0360 00000000 		.word	TaskFrame_Mav_ExpAlt_Callback
 1545 0364 00000000 		.word	.LANCHOR11
 1546 0368 00000000 		.word	.LANCHOR12
 1547 036c 00000000 		.word	.LANCHOR6
 1548 0370 00000000 		.word	TaskFrame_Mav_PID_GyrZ_Callback
 1549              	.L82:
 1550 0374 A047     		blx	r4
 1551              	.LVL113:
 840:Task/Task_Protocol.c ****         return true;
ARM GAS  C:\Users\8bit\AppData\Local\Temp\cczcmggF.s 			page 50


 1552              		.loc 1 840 9 is_stmt 1 view .LVU404
 840:Task/Task_Protocol.c ****         return true;
 1553              		.loc 1 840 20 is_stmt 0 view .LVU405
 1554 0376 AC69     		ldr	r4, [r5, #24]
 840:Task/Task_Protocol.c ****         return true;
 1555              		.loc 1 840 9 view .LVU406
 1556 0378 07F19403 		add	r3, r7, #148
 1557 037c 4246     		mov	r2, r8
 1558 037e 4946     		mov	r1, r9
 1559 0380 3046     		mov	r0, r6
 1560 0382 A047     		blx	r4
 1561              	.LVL114:
 841:Task/Task_Protocol.c ****     }
 1562              		.loc 1 841 9 is_stmt 1 view .LVU407
 841:Task/Task_Protocol.c ****     }
 1563              		.loc 1 841 16 is_stmt 0 view .LVU408
 1564 0384 5046     		mov	r0, r10
 1565 0386 44E6     		b	.L75
 1566              	.LBE4:
 1567              		.cfi_endproc
 1568              	.LFE2084:
 1570              		.section	.text.TaskFrameCTL_Port_Tx,"ax",%progbits
 1571              		.align	1
 1572              		.syntax unified
 1573              		.thumb
 1574              		.thumb_func
 1576              	TaskFrameCTL_Port_Tx:
 1577              	.LVL115:
 1578              	.LFB2077:
 406:Task/Task_Protocol.c ****     bool state = false;
 1579              		.loc 1 406 1 is_stmt 1 view -0
 1580              		.cfi_startproc
 1581              		@ args = 0, pretend = 0, frame = 0
 1582              		@ frame_needed = 0, uses_anonymous_args = 0
 406:Task/Task_Protocol.c ****     bool state = false;
 1583              		.loc 1 406 1 is_stmt 0 view .LVU410
 1584 0000 2DE9F041 		push	{r4, r5, r6, r7, r8, lr}
 1585              	.LCFI31:
 1586              		.cfi_def_cfa_offset 24
 1587              		.cfi_offset 4, -24
 1588              		.cfi_offset 5, -20
 1589              		.cfi_offset 6, -16
 1590              		.cfi_offset 7, -12
 1591              		.cfi_offset 8, -8
 1592              		.cfi_offset 14, -4
 407:Task/Task_Protocol.c **** 
 1593              		.loc 1 407 5 is_stmt 1 view .LVU411
 1594              	.LVL116:
 409:Task/Task_Protocol.c **** 
 1595              		.loc 1 409 5 view .LVU412
 411:Task/Task_Protocol.c ****     {
 1596              		.loc 1 411 5 view .LVU413
 411:Task/Task_Protocol.c ****     {
 1597              		.loc 1 411 7 is_stmt 0 view .LVU414
 1598 0004 20B3     		cbz	r0, .L86
 1599 0006 0E46     		mov	r6, r1
 1600 0008 1546     		mov	r5, r2
ARM GAS  C:\Users\8bit\AppData\Local\Temp\cczcmggF.s 			page 51


 1601 000a 0746     		mov	r7, r0
 411:Task/Task_Protocol.c ****     {
 1602              		.loc 1 411 17 discriminator 1 view .LVU415
 1603 000c 21B3     		cbz	r1, .L87
 411:Task/Task_Protocol.c ****     {
 1604              		.loc 1 411 27 discriminator 2 view .LVU416
 1605 000e 2AB3     		cbz	r2, .L88
 413:Task/Task_Protocol.c ****         p_UartPort = (FrameCTL_UartPortMonitor_TypeDef *)obj_addr;
 1606              		.loc 1 413 9 is_stmt 1 view .LVU417
 1607              	.LVL117:
 414:Task/Task_Protocol.c **** 
 1608              		.loc 1 414 9 view .LVU418
 417:Task/Task_Protocol.c ****         {
 1609              		.loc 1 417 9 view .LVU419
 417:Task/Task_Protocol.c ****         {
 1610              		.loc 1 417 22 is_stmt 0 view .LVU420
 1611 0010 0478     		ldrb	r4, [r0]	@ zero_extendqisi2
 417:Task/Task_Protocol.c ****         {
 1612              		.loc 1 417 11 view .LVU421
 1613 0012 F4B1     		cbz	r4, .L85
 417:Task/Task_Protocol.c ****         {
 1614              		.loc 1 417 48 discriminator 1 view .LVU422
 1615 0014 036A     		ldr	r3, [r0, #32]
 417:Task/Task_Protocol.c ****         {
 1616              		.loc 1 417 35 discriminator 1 view .LVU423
 1617 0016 1BB3     		cbz	r3, .L89
 417:Task/Task_Protocol.c ****         {
 1618              		.loc 1 417 67 discriminator 2 view .LVU424
 1619 0018 8069     		ldr	r0, [r0, #24]
 1620              	.LVL118:
 417:Task/Task_Protocol.c ****         {
 1621              		.loc 1 417 54 discriminator 2 view .LVU425
 1622 001a 18B3     		cbz	r0, .L90
 417:Task/Task_Protocol.c ****         {
 1623              		.loc 1 417 96 discriminator 3 view .LVU426
 1624 001c 124B     		ldr	r3, .L95
 1625 001e 93F80180 		ldrb	r8, [r3, #1]	@ zero_extendqisi2
 417:Task/Task_Protocol.c ****         {
 1626              		.loc 1 417 81 discriminator 3 view .LVU427
 1627 0022 B8F1000F 		cmp	r8, #0
 1628 0026 01D0     		beq	.L94
 425:Task/Task_Protocol.c ****     }
 1629              		.loc 1 425 19 view .LVU428
 1630 0028 0024     		movs	r4, #0
 1631 002a 12E0     		b	.L85
 1632              	.L94:
 419:Task/Task_Protocol.c ****             if ((!BspUart.send(p_UartPort->Obj, p_data, size)) || \
 1633              		.loc 1 419 13 is_stmt 1 view .LVU429
 1634 002c 0021     		movs	r1, #0
 1635              	.LVL119:
 419:Task/Task_Protocol.c ****             if ((!BspUart.send(p_UartPort->Obj, p_data, size)) || \
 1636              		.loc 1 419 13 is_stmt 0 view .LVU430
 1637 002e FFF7FEFF 		bl	osSemaphoreWait
 1638              	.LVL120:
 420:Task/Task_Protocol.c ****                 (osSemaphoreWait(p_UartPort->p_tx_semphr, FrameCTL_Port_Tx_TimeOut) != osOK))
 1639              		.loc 1 420 13 is_stmt 1 view .LVU431
 420:Task/Task_Protocol.c ****                 (osSemaphoreWait(p_UartPort->p_tx_semphr, FrameCTL_Port_Tx_TimeOut) != osOK))
ARM GAS  C:\Users\8bit\AppData\Local\Temp\cczcmggF.s 			page 52


 1640              		.loc 1 420 26 is_stmt 0 view .LVU432
 1641 0032 0E4B     		ldr	r3, .L95+4
 1642 0034 DB69     		ldr	r3, [r3, #28]
 420:Task/Task_Protocol.c ****                 (osSemaphoreWait(p_UartPort->p_tx_semphr, FrameCTL_Port_Tx_TimeOut) != osOK))
 1643              		.loc 1 420 19 view .LVU433
 1644 0036 2A46     		mov	r2, r5
 1645 0038 3146     		mov	r1, r6
 1646 003a 386A     		ldr	r0, [r7, #32]
 1647 003c 9847     		blx	r3
 1648              	.LVL121:
 420:Task/Task_Protocol.c ****                 (osSemaphoreWait(p_UartPort->p_tx_semphr, FrameCTL_Port_Tx_TimeOut) != osOK))
 1649              		.loc 1 420 16 view .LVU434
 1650 003e 0446     		mov	r4, r0
 1651 0040 38B1     		cbz	r0, .L85
 421:Task/Task_Protocol.c ****                 state = false;
 1652              		.loc 1 421 18 discriminator 1 view .LVU435
 1653 0042 0521     		movs	r1, #5
 1654 0044 B869     		ldr	r0, [r7, #24]
 1655 0046 FFF7FEFF 		bl	osSemaphoreWait
 1656              	.LVL122:
 420:Task/Task_Protocol.c ****                 (osSemaphoreWait(p_UartPort->p_tx_semphr, FrameCTL_Port_Tx_TimeOut) != osOK))
 1657              		.loc 1 420 64 discriminator 1 view .LVU436
 1658 004a 10B1     		cbz	r0, .L85
 422:Task/Task_Protocol.c ****         }
 1659              		.loc 1 422 23 view .LVU437
 1660 004c 4446     		mov	r4, r8
 1661 004e 00E0     		b	.L85
 1662              	.LVL123:
 1663              	.L86:
 407:Task/Task_Protocol.c **** 
 1664              		.loc 1 407 10 view .LVU438
 1665 0050 0024     		movs	r4, #0
 1666              	.LVL124:
 1667              	.L85:
 428:Task/Task_Protocol.c **** }
 1668              		.loc 1 428 5 is_stmt 1 view .LVU439
 429:Task/Task_Protocol.c **** 
 1669              		.loc 1 429 1 is_stmt 0 view .LVU440
 1670 0052 2046     		mov	r0, r4
 1671 0054 BDE8F081 		pop	{r4, r5, r6, r7, r8, pc}
 1672              	.LVL125:
 1673              	.L87:
 407:Task/Task_Protocol.c **** 
 1674              		.loc 1 407 10 view .LVU441
 1675 0058 0024     		movs	r4, #0
 1676 005a FAE7     		b	.L85
 1677              	.L88:
 1678 005c 0024     		movs	r4, #0
 1679 005e F8E7     		b	.L85
 1680              	.LVL126:
 1681              	.L89:
 425:Task/Task_Protocol.c ****     }
 1682              		.loc 1 425 19 view .LVU442
 1683 0060 0024     		movs	r4, #0
 1684 0062 F6E7     		b	.L85
 1685              	.LVL127:
 1686              	.L90:
ARM GAS  C:\Users\8bit\AppData\Local\Temp\cczcmggF.s 			page 53


 425:Task/Task_Protocol.c ****     }
 1687              		.loc 1 425 19 view .LVU443
 1688 0064 0024     		movs	r4, #0
 1689 0066 F4E7     		b	.L85
 1690              	.L96:
 1691              		.align	2
 1692              	.L95:
 1693 0068 00000000 		.word	.LANCHOR0
 1694 006c 00000000 		.word	BspUart
 1695              		.cfi_endproc
 1696              	.LFE2077:
 1698              		.section	.text.TaskFrameCTL_DefaultPort_Trans,"ax",%progbits
 1699              		.align	1
 1700              		.syntax unified
 1701              		.thumb
 1702              		.thumb_func
 1704              	TaskFrameCTL_DefaultPort_Trans:
 1705              	.LVL128:
 1706              	.LFB2074:
 285:Task/Task_Protocol.c ****     bool state = false;
 1707              		.loc 1 285 1 is_stmt 1 view -0
 1708              		.cfi_startproc
 1709              		@ args = 0, pretend = 0, frame = 0
 1710              		@ frame_needed = 0, uses_anonymous_args = 0
 285:Task/Task_Protocol.c ****     bool state = false;
 1711              		.loc 1 285 1 is_stmt 0 view .LVU445
 1712 0000 70B5     		push	{r4, r5, r6, lr}
 1713              	.LCFI32:
 1714              		.cfi_def_cfa_offset 16
 1715              		.cfi_offset 4, -16
 1716              		.cfi_offset 5, -12
 1717              		.cfi_offset 6, -8
 1718              		.cfi_offset 14, -4
 286:Task/Task_Protocol.c **** 
 1719              		.loc 1 286 5 is_stmt 1 view .LVU446
 1720              	.LVL129:
 289:Task/Task_Protocol.c ****         PortMonitor.vcp_connect_state && \
 1721              		.loc 1 289 5 view .LVU447
 289:Task/Task_Protocol.c ****         PortMonitor.vcp_connect_state && \
 1722              		.loc 1 289 29 is_stmt 0 view .LVU448
 1723 0002 134B     		ldr	r3, .L107
 1724 0004 1C7A     		ldrb	r4, [r3, #8]	@ zero_extendqisi2
 289:Task/Task_Protocol.c ****         PortMonitor.vcp_connect_state && \
 1725              		.loc 1 289 8 view .LVU449
 1726 0006 44B1     		cbz	r4, .L98
 1727 0008 0646     		mov	r6, r0
 1728 000a 0D46     		mov	r5, r1
 290:Task/Task_Protocol.c ****         PortMonitor.VCP_Port.p_tx_semphr && \
 1729              		.loc 1 290 20 discriminator 1 view .LVU450
 1730 000c 5C78     		ldrb	r4, [r3, #1]	@ zero_extendqisi2
 289:Task/Task_Protocol.c ****         PortMonitor.vcp_connect_state && \
 1731              		.loc 1 289 41 discriminator 1 view .LVU451
 1732 000e 24B1     		cbz	r4, .L98
 291:Task/Task_Protocol.c ****         p_data && size)
 1733              		.loc 1 291 29 view .LVU452
 1734 0010 9869     		ldr	r0, [r3, #24]
 1735              	.LVL130:
ARM GAS  C:\Users\8bit\AppData\Local\Temp\cczcmggF.s 			page 54


 290:Task/Task_Protocol.c ****         PortMonitor.VCP_Port.p_tx_semphr && \
 1736              		.loc 1 290 39 view .LVU453
 1737 0012 C0B1     		cbz	r0, .L99
 291:Task/Task_Protocol.c ****         p_data && size)
 1738              		.loc 1 291 42 view .LVU454
 1739 0014 CEB1     		cbz	r6, .L100
 292:Task/Task_Protocol.c ****     {
 1740              		.loc 1 292 16 view .LVU455
 1741 0016 11B9     		cbnz	r1, .L105
 286:Task/Task_Protocol.c **** 
 1742              		.loc 1 286 10 view .LVU456
 1743 0018 0024     		movs	r4, #0
 1744              	.LVL131:
 1745              	.L98:
 301:Task/Task_Protocol.c **** }
 1746              		.loc 1 301 5 is_stmt 1 view .LVU457
 302:Task/Task_Protocol.c **** 
 1747              		.loc 1 302 1 is_stmt 0 view .LVU458
 1748 001a 2046     		mov	r0, r4
 1749 001c 70BD     		pop	{r4, r5, r6, pc}
 1750              	.LVL132:
 1751              	.L105:
 294:Task/Task_Protocol.c ****         osSemaphoreWait(PortMonitor.VCP_Port.p_tx_semphr, 0);
 1752              		.loc 1 294 9 is_stmt 1 view .LVU459
 295:Task/Task_Protocol.c ****         if ((BspUSB_VCP.send(p_data, size) != BspUSB_Error_None) || \
 1753              		.loc 1 295 9 view .LVU460
 1754 001e 0021     		movs	r1, #0
 1755              	.LVL133:
 295:Task/Task_Protocol.c ****         if ((BspUSB_VCP.send(p_data, size) != BspUSB_Error_None) || \
 1756              		.loc 1 295 9 is_stmt 0 view .LVU461
 1757 0020 FFF7FEFF 		bl	osSemaphoreWait
 1758              	.LVL134:
 296:Task/Task_Protocol.c ****             (osSemaphoreWait(PortMonitor.VCP_Port.p_tx_semphr, FrameCTL_Port_Tx_TimeOut) != osOK))
 1759              		.loc 1 296 9 is_stmt 1 view .LVU462
 296:Task/Task_Protocol.c ****             (osSemaphoreWait(PortMonitor.VCP_Port.p_tx_semphr, FrameCTL_Port_Tx_TimeOut) != osOK))
 1760              		.loc 1 296 24 is_stmt 0 view .LVU463
 1761 0024 0B4B     		ldr	r3, .L107+4
 1762 0026 9B68     		ldr	r3, [r3, #8]
 296:Task/Task_Protocol.c ****             (osSemaphoreWait(PortMonitor.VCP_Port.p_tx_semphr, FrameCTL_Port_Tx_TimeOut) != osOK))
 1763              		.loc 1 296 14 view .LVU464
 1764 0028 2946     		mov	r1, r5
 1765 002a 3046     		mov	r0, r6
 1766 002c 9847     		blx	r3
 1767              	.LVL135:
 296:Task/Task_Protocol.c ****             (osSemaphoreWait(PortMonitor.VCP_Port.p_tx_semphr, FrameCTL_Port_Tx_TimeOut) != osOK))
 1768              		.loc 1 296 12 view .LVU465
 1769 002e 08B1     		cbz	r0, .L106
 298:Task/Task_Protocol.c ****     }
 1770              		.loc 1 298 19 view .LVU466
 1771 0030 0024     		movs	r4, #0
 1772 0032 F2E7     		b	.L98
 1773              	.L106:
 297:Task/Task_Protocol.c ****             state = false;
 1774              		.loc 1 297 14 discriminator 1 view .LVU467
 1775 0034 0521     		movs	r1, #5
 1776 0036 064B     		ldr	r3, .L107
 1777 0038 9869     		ldr	r0, [r3, #24]
ARM GAS  C:\Users\8bit\AppData\Local\Temp\cczcmggF.s 			page 55


 1778 003a FFF7FEFF 		bl	osSemaphoreWait
 1779              	.LVL136:
 296:Task/Task_Protocol.c ****             (osSemaphoreWait(PortMonitor.VCP_Port.p_tx_semphr, FrameCTL_Port_Tx_TimeOut) != osOK))
 1780              		.loc 1 296 66 discriminator 1 view .LVU468
 1781 003e 0028     		cmp	r0, #0
 1782 0040 EBD0     		beq	.L98
 298:Task/Task_Protocol.c ****     }
 1783              		.loc 1 298 19 view .LVU469
 1784 0042 0024     		movs	r4, #0
 1785 0044 E9E7     		b	.L98
 1786              	.LVL137:
 1787              	.L99:
 286:Task/Task_Protocol.c **** 
 1788              		.loc 1 286 10 view .LVU470
 1789 0046 0024     		movs	r4, #0
 1790 0048 E7E7     		b	.L98
 1791              	.L100:
 1792 004a 0024     		movs	r4, #0
 1793 004c E5E7     		b	.L98
 1794              	.L108:
 1795 004e 00BF     		.align	2
 1796              	.L107:
 1797 0050 00000000 		.word	.LANCHOR0
 1798 0054 00000000 		.word	BspUSB_VCP
 1799              		.cfi_endproc
 1800              	.LFE2074:
 1802              		.section	.text.TaskFrameCTL_CLI_Trans,"ax",%progbits
 1803              		.align	1
 1804              		.syntax unified
 1805              		.thumb
 1806              		.thumb_func
 1808              	TaskFrameCTL_CLI_Trans:
 1809              	.LVL138:
 1810              	.LFB2097:
1049:Task/Task_Protocol.c **** 
1050:Task/Task_Protocol.c **** /***************************************** CLI Section ********************************************
1051:Task/Task_Protocol.c **** static int TaskFrameCTL_CLI_Trans(const uint8_t *p_data, uint16_t size)
1052:Task/Task_Protocol.c **** {
 1811              		.loc 1 1052 1 is_stmt 1 view -0
 1812              		.cfi_startproc
 1813              		@ args = 0, pretend = 0, frame = 0
 1814              		@ frame_needed = 0, uses_anonymous_args = 0
1053:Task/Task_Protocol.c ****     if(p_data && size)
 1815              		.loc 1 1053 5 view .LVU472
 1816              		.loc 1 1053 7 is_stmt 0 view .LVU473
 1817 0000 90B1     		cbz	r0, .L113
1052:Task/Task_Protocol.c ****     if(p_data && size)
 1818              		.loc 1 1052 1 discriminator 1 view .LVU474
 1819 0002 08B5     		push	{r3, lr}
 1820              	.LCFI33:
 1821              		.cfi_def_cfa_offset 8
 1822              		.cfi_offset 3, -8
 1823              		.cfi_offset 14, -4
 1824              		.loc 1 1053 15 discriminator 1 view .LVU475
 1825 0004 59B1     		cbz	r1, .L110
1054:Task/Task_Protocol.c ****     {
1055:Task/Task_Protocol.c ****         switch ((uint8_t) CLI_Monitor.type)
ARM GAS  C:\Users\8bit\AppData\Local\Temp\cczcmggF.s 			page 56


 1826              		.loc 1 1055 9 is_stmt 1 view .LVU476
 1827              		.loc 1 1055 38 is_stmt 0 view .LVU477
 1828 0006 094A     		ldr	r2, .L116
 1829 0008 1278     		ldrb	r2, [r2]	@ zero_extendqisi2
 1830              		.loc 1 1055 9 view .LVU478
 1831 000a 012A     		cmp	r2, #1
 1832 000c 09D0     		beq	.L111
 1833 000e 022A     		cmp	r2, #2
 1834 0010 05D1     		bne	.L110
1056:Task/Task_Protocol.c ****         {
1057:Task/Task_Protocol.c ****             case Port_Uart:
1058:Task/Task_Protocol.c ****                 TaskFrameCTL_Port_Tx(CLI_Monitor.port_addr, (uint8_t *)p_data, size);
 1835              		.loc 1 1058 17 is_stmt 1 view .LVU479
 1836 0012 0A46     		mov	r2, r1
 1837 0014 0146     		mov	r1, r0
 1838              	.LVL139:
 1839              		.loc 1 1058 17 is_stmt 0 view .LVU480
 1840 0016 054B     		ldr	r3, .L116
 1841 0018 5868     		ldr	r0, [r3, #4]
 1842              	.LVL140:
 1843              		.loc 1 1058 17 view .LVU481
 1844 001a FFF7FEFF 		bl	TaskFrameCTL_Port_Tx
 1845              	.LVL141:
1059:Task/Task_Protocol.c ****                 break;
 1846              		.loc 1 1059 17 is_stmt 1 view .LVU482
 1847              	.L110:
1060:Task/Task_Protocol.c ****             
1061:Task/Task_Protocol.c ****             case Port_USB:
1062:Task/Task_Protocol.c ****                 TaskFrameCTL_DefaultPort_Trans((uint8_t *)p_data, size);
1063:Task/Task_Protocol.c ****                 break; 
1064:Task/Task_Protocol.c **** 
1065:Task/Task_Protocol.c ****             default:
1066:Task/Task_Protocol.c ****                 break;
1067:Task/Task_Protocol.c ****         }
1068:Task/Task_Protocol.c ****     }
1069:Task/Task_Protocol.c **** 
1070:Task/Task_Protocol.c ****     return 0;
 1848              		.loc 1 1070 5 view .LVU483
1071:Task/Task_Protocol.c **** }
 1849              		.loc 1 1071 1 is_stmt 0 view .LVU484
 1850 001e 0020     		movs	r0, #0
 1851 0020 08BD     		pop	{r3, pc}
 1852              	.LVL142:
 1853              	.L111:
1062:Task/Task_Protocol.c ****                 break; 
 1854              		.loc 1 1062 17 is_stmt 1 view .LVU485
 1855 0022 FFF7FEFF 		bl	TaskFrameCTL_DefaultPort_Trans
 1856              	.LVL143:
1063:Task/Task_Protocol.c **** 
 1857              		.loc 1 1063 17 view .LVU486
 1858 0026 FAE7     		b	.L110
 1859              	.LVL144:
 1860              	.L113:
 1861              	.LCFI34:
 1862              		.cfi_def_cfa_offset 0
 1863              		.cfi_restore 3
 1864              		.cfi_restore 14
ARM GAS  C:\Users\8bit\AppData\Local\Temp\cczcmggF.s 			page 57


1070:Task/Task_Protocol.c **** }
 1865              		.loc 1 1070 5 view .LVU487
 1866              		.loc 1 1071 1 is_stmt 0 view .LVU488
 1867 0028 0020     		movs	r0, #0
 1868              	.LVL145:
 1869              		.loc 1 1071 1 view .LVU489
 1870 002a 7047     		bx	lr
 1871              	.L117:
 1872              		.align	2
 1873              	.L116:
 1874 002c 00000000 		.word	.LANCHOR22
 1875              		.cfi_endproc
 1876              	.LFE2097:
 1878              		.section	.text.TaskFrameCTL_MavMsg_Trans,"ax",%progbits
 1879              		.align	1
 1880              		.syntax unified
 1881              		.thumb
 1882              		.thumb_func
 1884              	TaskFrameCTL_MavMsg_Trans:
 1885              	.LVL146:
 1886              	.LFB2087:
 918:Task/Task_Protocol.c ****     if(Obj && (Obj->frame_type == ComFrame_MavMsg) && Obj->port_addr && p_data && size)
 1887              		.loc 1 918 1 is_stmt 1 view -0
 1888              		.cfi_startproc
 1889              		@ args = 0, pretend = 0, frame = 0
 1890              		@ frame_needed = 0, uses_anonymous_args = 0
 919:Task/Task_Protocol.c ****     {
 1891              		.loc 1 919 5 view .LVU491
 919:Task/Task_Protocol.c ****     {
 1892              		.loc 1 919 7 is_stmt 0 view .LVU492
 1893 0000 D8B1     		cbz	r0, .L122
 918:Task/Task_Protocol.c ****     if(Obj && (Obj->frame_type == ComFrame_MavMsg) && Obj->port_addr && p_data && size)
 1894              		.loc 1 918 1 discriminator 1 view .LVU493
 1895 0002 08B5     		push	{r3, lr}
 1896              	.LCFI35:
 1897              		.cfi_def_cfa_offset 8
 1898              		.cfi_offset 3, -8
 1899              		.cfi_offset 14, -4
 1900 0004 0B46     		mov	r3, r1
 1901 0006 0146     		mov	r1, r0
 1902              	.LVL147:
 919:Task/Task_Protocol.c ****     {
 1903              		.loc 1 919 19 discriminator 1 view .LVU494
 1904 0008 0078     		ldrb	r0, [r0]	@ zero_extendqisi2
 1905              	.LVL148:
 919:Task/Task_Protocol.c ****     {
 1906              		.loc 1 919 12 discriminator 1 view .LVU495
 1907 000a 0228     		cmp	r0, #2
 1908 000c 00D0     		beq	.L125
 1909              	.LVL149:
 1910              	.L118:
 935:Task/Task_Protocol.c **** 
 1911              		.loc 1 935 1 view .LVU496
 1912 000e 08BD     		pop	{r3, pc}
 1913              	.LVL150:
 1914              	.L125:
 919:Task/Task_Protocol.c ****     {
ARM GAS  C:\Users\8bit\AppData\Local\Temp\cczcmggF.s 			page 58


 1915              		.loc 1 919 58 discriminator 2 view .LVU497
 1916 0010 4868     		ldr	r0, [r1, #4]
 919:Task/Task_Protocol.c ****     {
 1917              		.loc 1 919 52 discriminator 2 view .LVU498
 1918 0012 0028     		cmp	r0, #0
 1919 0014 FBD0     		beq	.L118
 919:Task/Task_Protocol.c ****     {
 1920              		.loc 1 919 70 discriminator 3 view .LVU499
 1921 0016 002B     		cmp	r3, #0
 1922 0018 F9D0     		beq	.L118
 919:Task/Task_Protocol.c ****     {
 1923              		.loc 1 919 80 discriminator 4 view .LVU500
 1924 001a 002A     		cmp	r2, #0
 1925 001c F7D0     		beq	.L118
 921:Task/Task_Protocol.c ****         {
 1926              		.loc 1 921 9 is_stmt 1 view .LVU501
 921:Task/Task_Protocol.c ****         {
 1927              		.loc 1 921 29 is_stmt 0 view .LVU502
 1928 001e 4978     		ldrb	r1, [r1, #1]	@ zero_extendqisi2
 1929              	.LVL151:
 921:Task/Task_Protocol.c ****         {
 1930              		.loc 1 921 9 view .LVU503
 1931 0020 0129     		cmp	r1, #1
 1932 0022 05D0     		beq	.L120
 1933 0024 0229     		cmp	r1, #2
 1934 0026 F2D1     		bne	.L118
 924:Task/Task_Protocol.c ****                 break;
 1935              		.loc 1 924 17 is_stmt 1 view .LVU504
 1936 0028 1946     		mov	r1, r3
 1937 002a FFF7FEFF 		bl	TaskFrameCTL_Port_Tx
 1938              	.LVL152:
 925:Task/Task_Protocol.c **** 
 1939              		.loc 1 925 17 view .LVU505
 1940 002e EEE7     		b	.L118
 1941              	.LVL153:
 1942              	.L120:
 928:Task/Task_Protocol.c ****                 break;
 1943              		.loc 1 928 17 view .LVU506
 1944 0030 1146     		mov	r1, r2
 1945 0032 1846     		mov	r0, r3
 1946 0034 FFF7FEFF 		bl	TaskFrameCTL_DefaultPort_Trans
 1947              	.LVL154:
 929:Task/Task_Protocol.c **** 
 1948              		.loc 1 929 17 view .LVU507
 1949 0038 E9E7     		b	.L118
 1950              	.LVL155:
 1951              	.L122:
 1952              	.LCFI36:
 1953              		.cfi_def_cfa_offset 0
 1954              		.cfi_restore 3
 1955              		.cfi_restore 14
 929:Task/Task_Protocol.c **** 
 1956              		.loc 1 929 17 is_stmt 0 view .LVU508
 1957 003a 7047     		bx	lr
 1958              		.cfi_endproc
 1959              	.LFE2087:
 1961              		.section	.text.TaskFrameCTL_Upgrade_Send,"ax",%progbits
ARM GAS  C:\Users\8bit\AppData\Local\Temp\cczcmggF.s 			page 59


 1962              		.align	1
 1963              		.syntax unified
 1964              		.thumb
 1965              		.thumb_func
 1967              	TaskFrameCTL_Upgrade_Send:
 1968              	.LVL156:
 1969              	.LFB2081:
 618:Task/Task_Protocol.c ****     if (Upgrade_Monitor.port_addr && p_buf && size)
 1970              		.loc 1 618 1 is_stmt 1 view -0
 1971              		.cfi_startproc
 1972              		@ args = 0, pretend = 0, frame = 0
 1973              		@ frame_needed = 0, uses_anonymous_args = 0
 618:Task/Task_Protocol.c ****     if (Upgrade_Monitor.port_addr && p_buf && size)
 1974              		.loc 1 618 1 is_stmt 0 view .LVU510
 1975 0000 08B5     		push	{r3, lr}
 1976              	.LCFI37:
 1977              		.cfi_def_cfa_offset 8
 1978              		.cfi_offset 3, -8
 1979              		.cfi_offset 14, -4
 619:Task/Task_Protocol.c ****     {
 1980              		.loc 1 619 5 is_stmt 1 view .LVU511
 619:Task/Task_Protocol.c ****     {
 1981              		.loc 1 619 24 is_stmt 0 view .LVU512
 1982 0002 0A4B     		ldr	r3, .L132
 1983 0004 1B69     		ldr	r3, [r3, #16]
 619:Task/Task_Protocol.c ****     {
 1984              		.loc 1 619 8 view .LVU513
 1985 0006 0BB1     		cbz	r3, .L126
 619:Task/Task_Protocol.c ****     {
 1986              		.loc 1 619 35 discriminator 1 view .LVU514
 1987 0008 00B1     		cbz	r0, .L126
 619:Task/Task_Protocol.c ****     {
 1988              		.loc 1 619 44 discriminator 2 view .LVU515
 1989 000a 01B9     		cbnz	r1, .L131
 1990              	.LVL157:
 1991              	.L126:
 640:Task/Task_Protocol.c **** 
 1992              		.loc 1 640 1 view .LVU516
 1993 000c 08BD     		pop	{r3, pc}
 1994              	.LVL158:
 1995              	.L131:
 621:Task/Task_Protocol.c ****         {
 1996              		.loc 1 621 9 is_stmt 1 view .LVU517
 623:Task/Task_Protocol.c ****             {
 1997              		.loc 1 623 13 view .LVU518
 623:Task/Task_Protocol.c ****             {
 1998              		.loc 1 623 46 is_stmt 0 view .LVU519
 1999 000e 074A     		ldr	r2, .L132
 2000 0010 127D     		ldrb	r2, [r2, #20]	@ zero_extendqisi2
 623:Task/Task_Protocol.c ****             {
 2001              		.loc 1 623 13 view .LVU520
 2002 0012 012A     		cmp	r2, #1
 2003 0014 07D0     		beq	.L128
 2004 0016 022A     		cmp	r2, #2
 2005 0018 F8D1     		bne	.L126
 626:Task/Task_Protocol.c ****                     break;
 2006              		.loc 1 626 21 is_stmt 1 view .LVU521
ARM GAS  C:\Users\8bit\AppData\Local\Temp\cczcmggF.s 			page 60


 2007 001a 0A46     		mov	r2, r1
 2008 001c 0146     		mov	r1, r0
 2009              	.LVL159:
 626:Task/Task_Protocol.c ****                     break;
 2010              		.loc 1 626 21 is_stmt 0 view .LVU522
 2011 001e 1846     		mov	r0, r3
 2012              	.LVL160:
 626:Task/Task_Protocol.c ****                     break;
 2013              		.loc 1 626 21 view .LVU523
 2014 0020 FFF7FEFF 		bl	TaskFrameCTL_Port_Tx
 2015              	.LVL161:
 627:Task/Task_Protocol.c ****             
 2016              		.loc 1 627 21 is_stmt 1 view .LVU524
 2017 0024 F2E7     		b	.L126
 2018              	.LVL162:
 2019              	.L128:
 630:Task/Task_Protocol.c ****                     break; 
 2020              		.loc 1 630 21 view .LVU525
 2021 0026 FFF7FEFF 		bl	TaskFrameCTL_DefaultPort_Trans
 2022              	.LVL163:
 631:Task/Task_Protocol.c **** 
 2023              		.loc 1 631 21 view .LVU526
 638:Task/Task_Protocol.c ****     }
 2024              		.loc 1 638 9 view .LVU527
 638:Task/Task_Protocol.c ****     }
 2025              		.loc 1 638 16 is_stmt 0 view .LVU528
 2026 002a EFE7     		b	.L126
 2027              	.L133:
 2028              		.align	2
 2029              	.L132:
 2030 002c 00000000 		.word	.LANCHOR1
 2031              		.cfi_endproc
 2032              	.LFE2081:
 2034              		.section	.text.TaskFrameCTL_DefaultPort_Init,"ax",%progbits
 2035              		.align	1
 2036              		.syntax unified
 2037              		.thumb
 2038              		.thumb_func
 2040              	TaskFrameCTL_DefaultPort_Init:
 2041              	.LVL164:
 2042              	.LFB2073:
 251:Task/Task_Protocol.c ****     if(monitor)
 2043              		.loc 1 251 1 is_stmt 1 view -0
 2044              		.cfi_startproc
 2045              		@ args = 0, pretend = 0, frame = 8
 2046              		@ frame_needed = 0, uses_anonymous_args = 0
 252:Task/Task_Protocol.c ****     {
 2047              		.loc 1 252 5 view .LVU530
 252:Task/Task_Protocol.c ****     {
 2048              		.loc 1 252 7 is_stmt 0 view .LVU531
 2049 0000 50B3     		cbz	r0, .L140
 251:Task/Task_Protocol.c ****     if(monitor)
 2050              		.loc 1 251 1 view .LVU532
 2051 0002 30B5     		push	{r4, r5, lr}
 2052              	.LCFI38:
 2053              		.cfi_def_cfa_offset 12
 2054              		.cfi_offset 4, -12
ARM GAS  C:\Users\8bit\AppData\Local\Temp\cczcmggF.s 			page 61


 2055              		.cfi_offset 5, -8
 2056              		.cfi_offset 14, -4
 2057 0004 83B0     		sub	sp, sp, #12
 2058              	.LCFI39:
 2059              		.cfi_def_cfa_offset 24
 2060 0006 0446     		mov	r4, r0
 2061              	.LBB5:
 254:Task/Task_Protocol.c ****         {
 2062              		.loc 1 254 9 is_stmt 1 view .LVU533
 254:Task/Task_Protocol.c ****         {
 2063              		.loc 1 254 22 is_stmt 0 view .LVU534
 2064 0008 144B     		ldr	r3, .L144
 2065 000a 1B68     		ldr	r3, [r3]
 254:Task/Task_Protocol.c ****         {
 2066              		.loc 1 254 12 view .LVU535
 2067 000c 0C30     		adds	r0, r0, #12
 2068              	.LVL165:
 254:Task/Task_Protocol.c ****         {
 2069              		.loc 1 254 12 view .LVU536
 2070 000e 9847     		blx	r3
 2071              	.LVL166:
 254:Task/Task_Protocol.c ****         {
 2072              		.loc 1 254 11 view .LVU537
 2073 0010 18B1     		cbz	r0, .L136
 257:Task/Task_Protocol.c ****             return;
 2074              		.loc 1 257 13 is_stmt 1 view .LVU538
 257:Task/Task_Protocol.c ****             return;
 2075              		.loc 1 257 42 is_stmt 0 view .LVU539
 2076 0012 0023     		movs	r3, #0
 2077 0014 2372     		strb	r3, [r4, #8]
 258:Task/Task_Protocol.c ****         }
 2078              		.loc 1 258 13 is_stmt 1 view .LVU540
 2079              	.L134:
 2080              	.LBE5:
 282:Task/Task_Protocol.c **** 
 2081              		.loc 1 282 1 is_stmt 0 view .LVU541
 2082 0016 03B0     		add	sp, sp, #12
 2083              	.LCFI40:
 2084              		.cfi_remember_state
 2085              		.cfi_def_cfa_offset 12
 2086              		@ sp needed
 2087 0018 30BD     		pop	{r4, r5, pc}
 2088              	.LVL167:
 2089              	.L136:
 2090              	.LCFI41:
 2091              		.cfi_restore_state
 2092              	.LBB6:
 261:Task/Task_Protocol.c **** 
 2093              		.loc 1 261 13 is_stmt 1 view .LVU542
 261:Task/Task_Protocol.c **** 
 2094              		.loc 1 261 42 is_stmt 0 view .LVU543
 2095 001a 0121     		movs	r1, #1
 2096 001c 2172     		strb	r1, [r4, #8]
 264:Task/Task_Protocol.c ****         monitor->VCP_Port.p_tx_semphr = osSemaphoreCreate(osSemaphore(DefaultPort_Tx), 1);
 2097              		.loc 1 264 9 is_stmt 1 view .LVU544
 2098 001e 0023     		movs	r3, #0
 2099 0020 0093     		str	r3, [sp]
ARM GAS  C:\Users\8bit\AppData\Local\Temp\cczcmggF.s 			page 62


 2100 0022 0193     		str	r3, [sp, #4]
 265:Task/Task_Protocol.c **** 
 2101              		.loc 1 265 9 view .LVU545
 265:Task/Task_Protocol.c **** 
 2102              		.loc 1 265 41 is_stmt 0 view .LVU546
 2103 0024 6846     		mov	r0, sp
 2104 0026 FFF7FEFF 		bl	osSemaphoreCreate
 2105              	.LVL168:
 265:Task/Task_Protocol.c **** 
 2106              		.loc 1 265 39 view .LVU547
 2107 002a A061     		str	r0, [r4, #24]
 267:Task/Task_Protocol.c ****         {
 2108              		.loc 1 267 9 is_stmt 1 view .LVU548
 267:Task/Task_Protocol.c ****         {
 2109              		.loc 1 267 11 is_stmt 0 view .LVU549
 2110 002c 88B1     		cbz	r0, .L143
 273:Task/Task_Protocol.c ****         BspUSB_VCP.set_rx_callback(TaskFrameCTL_Port_Rx_Callback);
 2111              		.loc 1 273 9 is_stmt 1 view .LVU550
 273:Task/Task_Protocol.c ****         BspUSB_VCP.set_rx_callback(TaskFrameCTL_Port_Rx_Callback);
 2112              		.loc 1 273 19 is_stmt 0 view .LVU551
 2113 002e 0B4D     		ldr	r5, .L144
 2114 0030 2B69     		ldr	r3, [r5, #16]
 273:Task/Task_Protocol.c ****         BspUSB_VCP.set_rx_callback(TaskFrameCTL_Port_Rx_Callback);
 2115              		.loc 1 273 9 view .LVU552
 2116 0032 0B48     		ldr	r0, .L144+4
 2117 0034 9847     		blx	r3
 2118              	.LVL169:
 274:Task/Task_Protocol.c ****         BspUSB_VCP.set_connect_callback(TaskFrameCTL_USB_VCP_Connect_Callback);
 2119              		.loc 1 274 9 is_stmt 1 view .LVU553
 274:Task/Task_Protocol.c ****         BspUSB_VCP.set_connect_callback(TaskFrameCTL_USB_VCP_Connect_Callback);
 2120              		.loc 1 274 19 is_stmt 0 view .LVU554
 2121 0036 EB68     		ldr	r3, [r5, #12]
 274:Task/Task_Protocol.c ****         BspUSB_VCP.set_connect_callback(TaskFrameCTL_USB_VCP_Connect_Callback);
 2122              		.loc 1 274 9 view .LVU555
 2123 0038 0A48     		ldr	r0, .L144+8
 2124 003a 9847     		blx	r3
 2125              	.LVL170:
 275:Task/Task_Protocol.c **** 
 2126              		.loc 1 275 9 is_stmt 1 view .LVU556
 275:Task/Task_Protocol.c **** 
 2127              		.loc 1 275 19 is_stmt 0 view .LVU557
 2128 003c 6B69     		ldr	r3, [r5, #20]
 275:Task/Task_Protocol.c **** 
 2129              		.loc 1 275 9 view .LVU558
 2130 003e 0A48     		ldr	r0, .L144+12
 2131 0040 9847     		blx	r3
 2132              	.LVL171:
 277:Task/Task_Protocol.c ****         monitor->VCP_Port.RecObj.type = Port_USB;
 2133              		.loc 1 277 9 is_stmt 1 view .LVU559
 277:Task/Task_Protocol.c ****         monitor->VCP_Port.RecObj.type = Port_USB;
 2134              		.loc 1 277 59 is_stmt 0 view .LVU560
 2135 0042 04F10803 		add	r3, r4, #8
 277:Task/Task_Protocol.c ****         monitor->VCP_Port.RecObj.type = Port_USB;
 2136              		.loc 1 277 47 view .LVU561
 2137 0046 2361     		str	r3, [r4, #16]
 278:Task/Task_Protocol.c **** 
 2138              		.loc 1 278 9 is_stmt 1 view .LVU562
ARM GAS  C:\Users\8bit\AppData\Local\Temp\cczcmggF.s 			page 63


 278:Task/Task_Protocol.c **** 
 2139              		.loc 1 278 39 is_stmt 0 view .LVU563
 2140 0048 0122     		movs	r2, #1
 2141 004a 2273     		strb	r2, [r4, #12]
 280:Task/Task_Protocol.c ****     }
 2142              		.loc 1 280 9 is_stmt 1 view .LVU564
 280:Task/Task_Protocol.c ****     }
 2143              		.loc 1 280 22 is_stmt 0 view .LVU565
 2144 004c 074A     		ldr	r2, .L144+16
 2145 004e 1360     		str	r3, [r2]
 2146 0050 E1E7     		b	.L134
 2147              	.L143:
 269:Task/Task_Protocol.c ****             return;
 2148              		.loc 1 269 13 is_stmt 1 view .LVU566
 269:Task/Task_Protocol.c ****             return;
 2149              		.loc 1 269 42 is_stmt 0 view .LVU567
 2150 0052 0023     		movs	r3, #0
 2151 0054 2372     		strb	r3, [r4, #8]
 270:Task/Task_Protocol.c ****         }
 2152              		.loc 1 270 13 is_stmt 1 view .LVU568
 2153 0056 DEE7     		b	.L134
 2154              	.LVL172:
 2155              	.L140:
 2156              	.LCFI42:
 2157              		.cfi_def_cfa_offset 0
 2158              		.cfi_restore 4
 2159              		.cfi_restore 5
 2160              		.cfi_restore 14
 270:Task/Task_Protocol.c ****         }
 2161              		.loc 1 270 13 is_stmt 0 view .LVU569
 2162 0058 7047     		bx	lr
 2163              	.L145:
 2164 005a 00BF     		.align	2
 2165              	.L144:
 2166 005c 00000000 		.word	BspUSB_VCP
 2167 0060 00000000 		.word	TaskFrameCTL_Port_TxCplt_Callback
 2168 0064 00000000 		.word	TaskFrameCTL_Port_Rx_Callback
 2169 0068 00000000 		.word	TaskFrameCTL_USB_VCP_Connect_Callback
 2170 006c 00000000 		.word	.LANCHOR10
 2171              	.LBE6:
 2172              		.cfi_endproc
 2173              	.LFE2073:
 2175              		.section	.text.TaskFrameCTL_RadioPort_Init,"ax",%progbits
 2176              		.align	1
 2177              		.syntax unified
 2178              		.thumb
 2179              		.thumb_func
 2181              	TaskFrameCTL_RadioPort_Init:
 2182              	.LVL173:
 2183              	.LFB2075:
 306:Task/Task_Protocol.c ****     if(monitor)
 2184              		.loc 1 306 1 is_stmt 1 view -0
 2185              		.cfi_startproc
 2186              		@ args = 0, pretend = 0, frame = 8
 2187              		@ frame_needed = 0, uses_anonymous_args = 0
 307:Task/Task_Protocol.c ****     {
 2188              		.loc 1 307 5 view .LVU571
ARM GAS  C:\Users\8bit\AppData\Local\Temp\cczcmggF.s 			page 64


 307:Task/Task_Protocol.c ****     {
 2189              		.loc 1 307 7 is_stmt 0 view .LVU572
 2190 0000 0028     		cmp	r0, #0
 2191 0002 5FD0     		beq	.L155
 306:Task/Task_Protocol.c ****     if(monitor)
 2192              		.loc 1 306 1 view .LVU573
 2193 0004 F0B5     		push	{r4, r5, r6, r7, lr}
 2194              	.LCFI43:
 2195              		.cfi_def_cfa_offset 20
 2196              		.cfi_offset 4, -20
 2197              		.cfi_offset 5, -16
 2198              		.cfi_offset 6, -12
 2199              		.cfi_offset 7, -8
 2200              		.cfi_offset 14, -4
 2201 0006 83B0     		sub	sp, sp, #12
 2202              	.LCFI44:
 2203              		.cfi_def_cfa_offset 32
 2204 0008 0446     		mov	r4, r0
 310:Task/Task_Protocol.c ****         monitor->Uart_Port = Radio_UartPort_List;
 2205              		.loc 1 310 9 is_stmt 1 view .LVU574
 310:Task/Task_Protocol.c ****         monitor->Uart_Port = Radio_UartPort_List;
 2206              		.loc 1 310 32 is_stmt 0 view .LVU575
 2207 000a 0123     		movs	r3, #1
 2208 000c 8370     		strb	r3, [r0, #2]
 311:Task/Task_Protocol.c ****         
 2209              		.loc 1 311 9 is_stmt 1 view .LVU576
 311:Task/Task_Protocol.c ****         
 2210              		.loc 1 311 28 is_stmt 0 view .LVU577
 2211 000e 2E4B     		ldr	r3, .L160
 2212 0010 8363     		str	r3, [r0, #56]
 313:Task/Task_Protocol.c ****         {
 2213              		.loc 1 313 9 is_stmt 1 view .LVU578
 2214              	.LBB7:
 313:Task/Task_Protocol.c ****         {
 2215              		.loc 1 313 13 view .LVU579
 2216              	.LVL174:
 313:Task/Task_Protocol.c ****         {
 2217              		.loc 1 313 21 is_stmt 0 view .LVU580
 2218 0012 0025     		movs	r5, #0
 313:Task/Task_Protocol.c ****         {
 2219              		.loc 1 313 9 view .LVU581
 2220 0014 38E0     		b	.L148
 2221              	.LVL175:
 2222              	.L159:
 2223              	.LBB8:
 344:Task/Task_Protocol.c ****                 memset(&monitor->Uart_Port[i].RecObj, 0, sizeof(FrameCTL_PortProtoObj_TypeDef));
 2224              		.loc 1 344 17 is_stmt 1 view .LVU582
 344:Task/Task_Protocol.c ****                 memset(&monitor->Uart_Port[i].RecObj, 0, sizeof(FrameCTL_PortProtoObj_TypeDef));
 2225              		.loc 1 344 24 is_stmt 0 view .LVU583
 2226 0016 A36B     		ldr	r3, [r4, #56]
 344:Task/Task_Protocol.c ****                 memset(&monitor->Uart_Port[i].RecObj, 0, sizeof(FrameCTL_PortProtoObj_TypeDef));
 2227              		.loc 1 344 50 view .LVU584
 2228 0018 0121     		movs	r1, #1
 2229 001a 9955     		strb	r1, [r3, r6]
 345:Task/Task_Protocol.c ****                 memset(&monitor->Uart_Port[i].ByPass_Mode, 0, sizeof(Port_Bypass_TypeDef));
 2230              		.loc 1 345 17 is_stmt 1 view .LVU585
 345:Task/Task_Protocol.c ****                 memset(&monitor->Uart_Port[i].ByPass_Mode, 0, sizeof(Port_Bypass_TypeDef));
ARM GAS  C:\Users\8bit\AppData\Local\Temp\cczcmggF.s 			page 65


 2231              		.loc 1 345 32 is_stmt 0 view .LVU586
 2232 001c A26B     		ldr	r2, [r4, #56]
 345:Task/Task_Protocol.c ****                 memset(&monitor->Uart_Port[i].ByPass_Mode, 0, sizeof(Port_Bypass_TypeDef));
 2233              		.loc 1 345 43 view .LVU587
 2234 001e 3244     		add	r2, r2, r6
 345:Task/Task_Protocol.c ****                 memset(&monitor->Uart_Port[i].ByPass_Mode, 0, sizeof(Port_Bypass_TypeDef));
 2235              		.loc 1 345 17 view .LVU588
 2236 0020 0023     		movs	r3, #0
 2237 0022 5360     		str	r3, [r2, #4]	@ unaligned
 2238 0024 9360     		str	r3, [r2, #8]	@ unaligned
 2239 0026 D360     		str	r3, [r2, #12]	@ unaligned
 346:Task/Task_Protocol.c ****                 
 2240              		.loc 1 346 17 is_stmt 1 view .LVU589
 346:Task/Task_Protocol.c ****                 
 2241              		.loc 1 346 32 is_stmt 0 view .LVU590
 2242 0028 A26B     		ldr	r2, [r4, #56]
 346:Task/Task_Protocol.c ****                 
 2243              		.loc 1 346 43 view .LVU591
 2244 002a 3244     		add	r2, r2, r6
 346:Task/Task_Protocol.c ****                 
 2245              		.loc 1 346 17 view .LVU592
 2246 002c 1361     		str	r3, [r2, #16]	@ unaligned
 2247 002e 5361     		str	r3, [r2, #20]	@ unaligned
 348:Task/Task_Protocol.c ****                 monitor->Uart_Port[i].RecObj.port_index = i;
 2248              		.loc 1 348 17 is_stmt 1 view .LVU593
 348:Task/Task_Protocol.c ****                 monitor->Uart_Port[i].RecObj.port_index = i;
 2249              		.loc 1 348 24 is_stmt 0 view .LVU594
 2250 0030 A26B     		ldr	r2, [r4, #56]
 348:Task/Task_Protocol.c ****                 monitor->Uart_Port[i].RecObj.port_index = i;
 2251              		.loc 1 348 35 view .LVU595
 2252 0032 3244     		add	r2, r2, r6
 348:Task/Task_Protocol.c ****                 monitor->Uart_Port[i].RecObj.port_index = i;
 2253              		.loc 1 348 51 view .LVU596
 2254 0034 0220     		movs	r0, #2
 2255 0036 1071     		strb	r0, [r2, #4]
 349:Task/Task_Protocol.c ****                 
 2256              		.loc 1 349 17 is_stmt 1 view .LVU597
 349:Task/Task_Protocol.c ****                 
 2257              		.loc 1 349 24 is_stmt 0 view .LVU598
 2258 0038 A26B     		ldr	r2, [r4, #56]
 349:Task/Task_Protocol.c ****                 
 2259              		.loc 1 349 35 view .LVU599
 2260 003a 3244     		add	r2, r2, r6
 349:Task/Task_Protocol.c ****                 
 2261              		.loc 1 349 57 view .LVU600
 2262 003c 5571     		strb	r5, [r2, #5]
 351:Task/Task_Protocol.c ****             
 2263              		.loc 1 351 17 is_stmt 1 view .LVU601
 351:Task/Task_Protocol.c ****             
 2264              		.loc 1 351 80 is_stmt 0 view .LVU602
 2265 003e A26B     		ldr	r2, [r4, #56]
 351:Task/Task_Protocol.c ****             
 2266              		.loc 1 351 91 view .LVU603
 2267 0040 3244     		add	r2, r2, r6
 351:Task/Task_Protocol.c ****             
 2268              		.loc 1 351 71 view .LVU604
 2269 0042 101D     		adds	r0, r2, #4
ARM GAS  C:\Users\8bit\AppData\Local\Temp\cczcmggF.s 			page 66


 351:Task/Task_Protocol.c ****             
 2270              		.loc 1 351 38 view .LVU605
 2271 0044 126A     		ldr	r2, [r2, #32]
 351:Task/Task_Protocol.c ****             
 2272              		.loc 1 351 59 view .LVU606
 2273 0046 9064     		str	r0, [r2, #72]
 354:Task/Task_Protocol.c ****                 monitor->Uart_Port[i].p_tx_semphr = osSemaphoreCreate(osSemaphore(Uart_Port_Tmp), 1
 2274              		.loc 1 354 17 is_stmt 1 view .LVU607
 2275 0048 0093     		str	r3, [sp]
 2276 004a 0193     		str	r3, [sp, #4]
 355:Task/Task_Protocol.c **** 
 2277              		.loc 1 355 17 view .LVU608
 355:Task/Task_Protocol.c **** 
 2278              		.loc 1 355 24 is_stmt 0 view .LVU609
 2279 004c A76B     		ldr	r7, [r4, #56]
 355:Task/Task_Protocol.c **** 
 2280              		.loc 1 355 35 view .LVU610
 2281 004e 3744     		add	r7, r7, r6
 355:Task/Task_Protocol.c **** 
 2282              		.loc 1 355 53 view .LVU611
 2283 0050 6846     		mov	r0, sp
 2284 0052 FFF7FEFF 		bl	osSemaphoreCreate
 2285              	.LVL176:
 355:Task/Task_Protocol.c **** 
 2286              		.loc 1 355 51 view .LVU612
 2287 0056 B861     		str	r0, [r7, #24]
 357:Task/Task_Protocol.c ****                 {
 2288              		.loc 1 357 17 is_stmt 1 view .LVU613
 357:Task/Task_Protocol.c ****                 {
 2289              		.loc 1 357 27 is_stmt 0 view .LVU614
 2290 0058 A26B     		ldr	r2, [r4, #56]
 357:Task/Task_Protocol.c ****                 {
 2291              		.loc 1 357 38 view .LVU615
 2292 005a 9319     		adds	r3, r2, r6
 357:Task/Task_Protocol.c ****                 {
 2293              		.loc 1 357 41 view .LVU616
 2294 005c 9969     		ldr	r1, [r3, #24]
 357:Task/Task_Protocol.c ****                 {
 2295              		.loc 1 357 19 view .LVU617
 2296 005e 0029     		cmp	r1, #0
 2297 0060 28D0     		beq	.L150
 360:Task/Task_Protocol.c ****                     BspUart.set_tx_callback(monitor->Uart_Port[i].Obj, TaskFrameCTL_Port_TxCplt_Cal
 2298              		.loc 1 360 21 is_stmt 1 view .LVU618
 360:Task/Task_Protocol.c ****                     BspUart.set_tx_callback(monitor->Uart_Port[i].Obj, TaskFrameCTL_Port_TxCplt_Cal
 2299              		.loc 1 360 28 is_stmt 0 view .LVU619
 2300 0062 1A4F     		ldr	r7, .L160+4
 2301 0064 3A6A     		ldr	r2, [r7, #32]
 360:Task/Task_Protocol.c ****                     BspUart.set_tx_callback(monitor->Uart_Port[i].Obj, TaskFrameCTL_Port_TxCplt_Cal
 2302              		.loc 1 360 21 view .LVU620
 2303 0066 1A49     		ldr	r1, .L160+8
 2304 0068 186A     		ldr	r0, [r3, #32]
 2305 006a 9047     		blx	r2
 2306              	.LVL177:
 361:Task/Task_Protocol.c **** 
 2307              		.loc 1 361 21 is_stmt 1 view .LVU621
 361:Task/Task_Protocol.c **** 
 2308              		.loc 1 361 28 is_stmt 0 view .LVU622
ARM GAS  C:\Users\8bit\AppData\Local\Temp\cczcmggF.s 			page 67


 2309 006c 7A6A     		ldr	r2, [r7, #36]
 361:Task/Task_Protocol.c **** 
 2310              		.loc 1 361 52 view .LVU623
 2311 006e A36B     		ldr	r3, [r4, #56]
 361:Task/Task_Protocol.c **** 
 2312              		.loc 1 361 63 view .LVU624
 2313 0070 3344     		add	r3, r3, r6
 361:Task/Task_Protocol.c **** 
 2314              		.loc 1 361 21 view .LVU625
 2315 0072 1849     		ldr	r1, .L160+12
 2316 0074 186A     		ldr	r0, [r3, #32]
 2317 0076 9047     		blx	r2
 2318              	.LVL178:
 363:Task/Task_Protocol.c ****                     monitor->Uart_Port[i].init_state = true;
 2319              		.loc 1 363 21 is_stmt 1 view .LVU626
 363:Task/Task_Protocol.c ****                     monitor->Uart_Port[i].init_state = true;
 2320              		.loc 1 363 84 is_stmt 0 view .LVU627
 2321 0078 A36B     		ldr	r3, [r4, #56]
 363:Task/Task_Protocol.c ****                     monitor->Uart_Port[i].init_state = true;
 2322              		.loc 1 363 75 view .LVU628
 2323 007a 3344     		add	r3, r3, r6
 363:Task/Task_Protocol.c ****                     monitor->Uart_Port[i].init_state = true;
 2324              		.loc 1 363 63 view .LVU629
 2325 007c 9B60     		str	r3, [r3, #8]
 364:Task/Task_Protocol.c ****                 }
 2326              		.loc 1 364 21 is_stmt 1 view .LVU630
 364:Task/Task_Protocol.c ****                 }
 2327              		.loc 1 364 28 is_stmt 0 view .LVU631
 2328 007e A36B     		ldr	r3, [r4, #56]
 364:Task/Task_Protocol.c ****                 }
 2329              		.loc 1 364 54 view .LVU632
 2330 0080 0122     		movs	r2, #1
 2331 0082 9A55     		strb	r2, [r3, r6]
 2332              	.L152:
 364:Task/Task_Protocol.c ****                 }
 2333              		.loc 1 364 54 view .LVU633
 2334              	.LBE8:
 313:Task/Task_Protocol.c ****         {
 2335              		.loc 1 313 56 is_stmt 1 discriminator 2 view .LVU634
 313:Task/Task_Protocol.c ****         {
 2336              		.loc 1 313 57 is_stmt 0 discriminator 2 view .LVU635
 2337 0084 0135     		adds	r5, r5, #1
 2338              	.LVL179:
 313:Task/Task_Protocol.c ****         {
 2339              		.loc 1 313 57 discriminator 2 view .LVU636
 2340 0086 EDB2     		uxtb	r5, r5
 2341              	.LVL180:
 2342              	.L148:
 313:Task/Task_Protocol.c ****         {
 2343              		.loc 1 313 28 is_stmt 1 discriminator 1 view .LVU637
 313:Task/Task_Protocol.c ****         {
 2344              		.loc 1 313 39 is_stmt 0 discriminator 1 view .LVU638
 2345 0088 A378     		ldrb	r3, [r4, #2]	@ zero_extendqisi2
 313:Task/Task_Protocol.c ****         {
 2346              		.loc 1 313 9 discriminator 1 view .LVU639
 2347 008a AB42     		cmp	r3, r5
 2348 008c 18D9     		bls	.L158
ARM GAS  C:\Users\8bit\AppData\Local\Temp\cczcmggF.s 			page 68


 342:Task/Task_Protocol.c ****             {
 2349              		.loc 1 342 13 is_stmt 1 view .LVU640
 342:Task/Task_Protocol.c ****             {
 2350              		.loc 1 342 23 is_stmt 0 view .LVU641
 2351 008e 0F4B     		ldr	r3, .L160+4
 2352 0090 1968     		ldr	r1, [r3]
 342:Task/Task_Protocol.c ****             {
 2353              		.loc 1 342 36 view .LVU642
 2354 0092 A36B     		ldr	r3, [r4, #56]
 342:Task/Task_Protocol.c ****             {
 2355              		.loc 1 342 47 view .LVU643
 2356 0094 05EBC502 		add	r2, r5, r5, lsl #3
 2357 0098 9600     		lsls	r6, r2, #2
 2358 009a 03EB8203 		add	r3, r3, r2, lsl #2
 342:Task/Task_Protocol.c ****             {
 2359              		.loc 1 342 16 view .LVU644
 2360 009e 186A     		ldr	r0, [r3, #32]
 2361 00a0 8847     		blx	r1
 2362              	.LVL181:
 342:Task/Task_Protocol.c ****             {
 2363              		.loc 1 342 15 view .LVU645
 2364 00a2 0028     		cmp	r0, #0
 2365 00a4 B7D1     		bne	.L159
 374:Task/Task_Protocol.c ****                 monitor->uart_port_num --;
 2366              		.loc 1 374 17 is_stmt 1 view .LVU646
 374:Task/Task_Protocol.c ****                 monitor->uart_port_num --;
 2367              		.loc 1 374 24 is_stmt 0 view .LVU647
 2368 00a6 A36B     		ldr	r3, [r4, #56]
 374:Task/Task_Protocol.c ****                 monitor->uart_port_num --;
 2369              		.loc 1 374 50 view .LVU648
 2370 00a8 0022     		movs	r2, #0
 2371 00aa 9A55     		strb	r2, [r3, r6]
 375:Task/Task_Protocol.c ****             }
 2372              		.loc 1 375 17 is_stmt 1 view .LVU649
 375:Task/Task_Protocol.c ****             }
 2373              		.loc 1 375 24 is_stmt 0 view .LVU650
 2374 00ac A378     		ldrb	r3, [r4, #2]	@ zero_extendqisi2
 375:Task/Task_Protocol.c ****             }
 2375              		.loc 1 375 40 view .LVU651
 2376 00ae 013B     		subs	r3, r3, #1
 2377 00b0 A370     		strb	r3, [r4, #2]
 2378 00b2 E7E7     		b	.L152
 2379              	.L150:
 2380              	.LBB9:
 368:Task/Task_Protocol.c ****                     monitor->uart_port_num --;
 2381              		.loc 1 368 21 is_stmt 1 view .LVU652
 368:Task/Task_Protocol.c ****                     monitor->uart_port_num --;
 2382              		.loc 1 368 54 is_stmt 0 view .LVU653
 2383 00b4 0023     		movs	r3, #0
 2384 00b6 9355     		strb	r3, [r2, r6]
 369:Task/Task_Protocol.c ****                 }
 2385              		.loc 1 369 21 is_stmt 1 view .LVU654
 369:Task/Task_Protocol.c ****                 }
 2386              		.loc 1 369 28 is_stmt 0 view .LVU655
 2387 00b8 A378     		ldrb	r3, [r4, #2]	@ zero_extendqisi2
 369:Task/Task_Protocol.c ****                 }
 2388              		.loc 1 369 44 view .LVU656
ARM GAS  C:\Users\8bit\AppData\Local\Temp\cczcmggF.s 			page 69


 2389 00ba 013B     		subs	r3, r3, #1
 2390 00bc A370     		strb	r3, [r4, #2]
 2391 00be E1E7     		b	.L152
 2392              	.L158:
 369:Task/Task_Protocol.c ****                 }
 2393              		.loc 1 369 44 view .LVU657
 2394              	.LBE9:
 2395              	.LBE7:
 382:Task/Task_Protocol.c **** 
 2396              		.loc 1 382 1 view .LVU658
 2397 00c0 03B0     		add	sp, sp, #12
 2398              	.LCFI45:
 2399              		.cfi_def_cfa_offset 20
 2400              		@ sp needed
 2401 00c2 F0BD     		pop	{r4, r5, r6, r7, pc}
 2402              	.LVL182:
 2403              	.L155:
 2404              	.LCFI46:
 2405              		.cfi_def_cfa_offset 0
 2406              		.cfi_restore 4
 2407              		.cfi_restore 5
 2408              		.cfi_restore 6
 2409              		.cfi_restore 7
 2410              		.cfi_restore 14
 382:Task/Task_Protocol.c **** 
 2411              		.loc 1 382 1 view .LVU659
 2412 00c4 7047     		bx	lr
 2413              	.L161:
 2414 00c6 00BF     		.align	2
 2415              	.L160:
 2416 00c8 00000000 		.word	.LANCHOR23
 2417 00cc 00000000 		.word	BspUart
 2418 00d0 00000000 		.word	TaskFrameCTL_Port_Rx_Callback
 2419 00d4 00000000 		.word	TaskFrameCTL_Port_TxCplt_Callback
 2420              		.cfi_endproc
 2421              	.LFE2075:
 2423              		.section	.text.TaskFrameCTL_Port_Rx_Callback,"ax",%progbits
 2424              		.align	1
 2425              		.syntax unified
 2426              		.thumb
 2427              		.thumb_func
 2429              	TaskFrameCTL_Port_Rx_Callback:
 2430              	.LVL183:
 2431              	.LFB2078:
 432:Task/Task_Protocol.c ****     SrvComProto_Msg_StreamIn_TypeDef stream_in;
 2432              		.loc 1 432 1 is_stmt 1 view -0
 2433              		.cfi_startproc
 2434              		@ args = 0, pretend = 0, frame = 16
 2435              		@ frame_needed = 0, uses_anonymous_args = 0
 432:Task/Task_Protocol.c ****     SrvComProto_Msg_StreamIn_TypeDef stream_in;
 2436              		.loc 1 432 1 is_stmt 0 view .LVU661
 2437 0000 F0B5     		push	{r4, r5, r6, r7, lr}
 2438              	.LCFI47:
 2439              		.cfi_def_cfa_offset 20
 2440              		.cfi_offset 4, -20
 2441              		.cfi_offset 5, -16
 2442              		.cfi_offset 6, -12
ARM GAS  C:\Users\8bit\AppData\Local\Temp\cczcmggF.s 			page 70


 2443              		.cfi_offset 7, -8
 2444              		.cfi_offset 14, -4
 2445 0002 85B0     		sub	sp, sp, #20
 2446              	.LCFI48:
 2447              		.cfi_def_cfa_offset 40
 433:Task/Task_Protocol.c ****     SrvComProto_Stream_TypeDef *p_stream = NULL;
 2448              		.loc 1 433 5 is_stmt 1 view .LVU662
 434:Task/Task_Protocol.c ****     FrameCTL_PortProtoObj_TypeDef *p_RecObj = NULL;
 2449              		.loc 1 434 5 view .LVU663
 2450              	.LVL184:
 435:Task/Task_Protocol.c ****     InUsePort_MavMsgInput_Obj = NULL;
 2451              		.loc 1 435 5 view .LVU664
 436:Task/Task_Protocol.c ****     bool cli_state = false;
 2452              		.loc 1 436 5 view .LVU665
 436:Task/Task_Protocol.c ****     bool cli_state = false;
 2453              		.loc 1 436 31 is_stmt 0 view .LVU666
 2454 0004 0023     		movs	r3, #0
 2455 0006 624C     		ldr	r4, .L185
 2456 0008 2360     		str	r3, [r4]
 437:Task/Task_Protocol.c **** 
 2457              		.loc 1 437 5 is_stmt 1 view .LVU667
 437:Task/Task_Protocol.c **** 
 2458              		.loc 1 437 10 is_stmt 0 view .LVU668
 2459 000a 8DF80330 		strb	r3, [sp, #3]
 440:Task/Task_Protocol.c ****     {
 2460              		.loc 1 440 5 is_stmt 1 view .LVU669
 440:Task/Task_Protocol.c ****     {
 2461              		.loc 1 440 7 is_stmt 0 view .LVU670
 2462 000e 91B1     		cbz	r1, .L162
 2463 0010 0646     		mov	r6, r0
 2464 0012 1546     		mov	r5, r2
 2465 0014 0C46     		mov	r4, r1
 440:Task/Task_Protocol.c ****     {
 2466              		.loc 1 440 15 discriminator 1 view .LVU671
 2467 0016 72B1     		cbz	r2, .L162
 440:Task/Task_Protocol.c ****     {
 2468              		.loc 1 440 23 discriminator 2 view .LVU672
 2469 0018 68B1     		cbz	r0, .L162
 442:Task/Task_Protocol.c **** 
 2470              		.loc 1 442 9 is_stmt 1 view .LVU673
 442:Task/Task_Protocol.c **** 
 2471              		.loc 1 442 19 is_stmt 0 view .LVU674
 2472 001a 5E4B     		ldr	r3, .L185+4
 2473 001c 5B69     		ldr	r3, [r3, #20]
 442:Task/Task_Protocol.c **** 
 2474              		.loc 1 442 9 view .LVU675
 2475 001e 0DF10300 		add	r0, sp, #3
 2476              	.LVL185:
 442:Task/Task_Protocol.c **** 
 2477              		.loc 1 442 9 view .LVU676
 2478 0022 9847     		blx	r3
 2479              	.LVL186:
 444:Task/Task_Protocol.c ****         p_RecObj->time_stamp = SrvOsCommon.get_os_ms();
 2480              		.loc 1 444 9 is_stmt 1 view .LVU677
 445:Task/Task_Protocol.c **** 
 2481              		.loc 1 445 9 view .LVU678
 445:Task/Task_Protocol.c **** 
ARM GAS  C:\Users\8bit\AppData\Local\Temp\cczcmggF.s 			page 71


 2482              		.loc 1 445 43 is_stmt 0 view .LVU679
 2483 0024 5C4B     		ldr	r3, .L185+8
 2484 0026 1B68     		ldr	r3, [r3]
 445:Task/Task_Protocol.c **** 
 2485              		.loc 1 445 32 view .LVU680
 2486 0028 9847     		blx	r3
 2487              	.LVL187:
 445:Task/Task_Protocol.c **** 
 2488              		.loc 1 445 30 view .LVU681
 2489 002a B060     		str	r0, [r6, #8]
 447:Task/Task_Protocol.c ****         {
 2490              		.loc 1 447 9 is_stmt 1 view .LVU682
 447:Task/Task_Protocol.c ****         {
 2491              		.loc 1 447 34 is_stmt 0 view .LVU683
 2492 002c 3378     		ldrb	r3, [r6]	@ zero_extendqisi2
 447:Task/Task_Protocol.c ****         {
 2493              		.loc 1 447 9 view .LVU684
 2494 002e 012B     		cmp	r3, #1
 2495 0030 03D0     		beq	.L164
 2496 0032 022B     		cmp	r3, #2
 2497 0034 12D0     		beq	.L165
 2498              	.LVL188:
 2499              	.L162:
 545:Task/Task_Protocol.c **** 
 2500              		.loc 1 545 1 view .LVU685
 2501 0036 05B0     		add	sp, sp, #20
 2502              	.LCFI49:
 2503              		.cfi_remember_state
 2504              		.cfi_def_cfa_offset 20
 2505              		@ sp needed
 2506 0038 F0BD     		pop	{r4, r5, r6, r7, pc}
 2507              	.LVL189:
 2508              	.L164:
 2509              	.LCFI50:
 2510              		.cfi_restore_state
 450:Task/Task_Protocol.c ****                 InUsePort_MavMsgInput_Obj = &DefaultPort_MavMsgInput_Obj;
 2511              		.loc 1 450 17 is_stmt 1 view .LVU686
 451:Task/Task_Protocol.c **** 
 2512              		.loc 1 451 17 view .LVU687
 451:Task/Task_Protocol.c **** 
 2513              		.loc 1 451 43 is_stmt 0 view .LVU688
 2514 003a 554B     		ldr	r3, .L185
 2515 003c 574A     		ldr	r2, .L185+12
 2516 003e 1A60     		str	r2, [r3]
 453:Task/Task_Protocol.c ****                     TaskFrameCTL_DefaultPort_Trans(p_data, size);
 2517              		.loc 1 453 17 is_stmt 1 view .LVU689
 453:Task/Task_Protocol.c ****                     TaskFrameCTL_DefaultPort_Trans(p_data, size);
 2518              		.loc 1 453 21 is_stmt 0 view .LVU690
 2519 0040 9DF80330 		ldrb	r3, [sp, #3]	@ zero_extendqisi2
 453:Task/Task_Protocol.c ****                     TaskFrameCTL_DefaultPort_Trans(p_data, size);
 2520              		.loc 1 453 20 view .LVU691
 2521 0044 EBB1     		cbz	r3, .L177
 453:Task/Task_Protocol.c ****                     TaskFrameCTL_DefaultPort_Trans(p_data, size);
 2522              		.loc 1 453 50 discriminator 1 view .LVU692
 2523 0046 564B     		ldr	r3, .L185+16
 2524 0048 1B78     		ldrb	r3, [r3]	@ zero_extendqisi2
 453:Task/Task_Protocol.c ****                     TaskFrameCTL_DefaultPort_Trans(p_data, size);
ARM GAS  C:\Users\8bit\AppData\Local\Temp\cczcmggF.s 			page 72


 2525              		.loc 1 453 31 discriminator 1 view .LVU693
 2526 004a 0BB1     		cbz	r3, .L182
 450:Task/Task_Protocol.c ****                 InUsePort_MavMsgInput_Obj = &DefaultPort_MavMsgInput_Obj;
 2527              		.loc 1 450 26 view .LVU694
 2528 004c 554F     		ldr	r7, .L185+20
 2529 004e 19E0     		b	.L167
 2530              	.L182:
 454:Task/Task_Protocol.c ****                 break;
 2531              		.loc 1 454 21 is_stmt 1 view .LVU695
 2532 0050 2946     		mov	r1, r5
 2533 0052 2046     		mov	r0, r4
 2534 0054 FFF7FEFF 		bl	TaskFrameCTL_DefaultPort_Trans
 2535              	.LVL190:
 450:Task/Task_Protocol.c ****                 InUsePort_MavMsgInput_Obj = &DefaultPort_MavMsgInput_Obj;
 2536              		.loc 1 450 26 is_stmt 0 view .LVU696
 2537 0058 524F     		ldr	r7, .L185+20
 2538 005a 13E0     		b	.L167
 2539              	.LVL191:
 2540              	.L165:
 458:Task/Task_Protocol.c ****                 InUsePort_MavMsgInput_Obj = &RadioPort_MavMsgInput_Obj;
 2541              		.loc 1 458 17 is_stmt 1 view .LVU697
 459:Task/Task_Protocol.c ****                 
 2542              		.loc 1 459 17 view .LVU698
 459:Task/Task_Protocol.c ****                 
 2543              		.loc 1 459 43 is_stmt 0 view .LVU699
 2544 005c 4C4B     		ldr	r3, .L185
 2545 005e 524A     		ldr	r2, .L185+24
 2546 0060 1A60     		str	r2, [r3]
 461:Task/Task_Protocol.c ****                     TaskFrameCTL_Port_Tx(p_RecObj->PortObj_addr, p_data, size);
 2547              		.loc 1 461 17 is_stmt 1 view .LVU700
 461:Task/Task_Protocol.c ****                     TaskFrameCTL_Port_Tx(p_RecObj->PortObj_addr, p_data, size);
 2548              		.loc 1 461 21 is_stmt 0 view .LVU701
 2549 0062 9DF80330 		ldrb	r3, [sp, #3]	@ zero_extendqisi2
 461:Task/Task_Protocol.c ****                     TaskFrameCTL_Port_Tx(p_RecObj->PortObj_addr, p_data, size);
 2550              		.loc 1 461 20 view .LVU702
 2551 0066 002B     		cmp	r3, #0
 2552 0068 5CD0     		beq	.L179
 461:Task/Task_Protocol.c ****                     TaskFrameCTL_Port_Tx(p_RecObj->PortObj_addr, p_data, size);
 2553              		.loc 1 461 50 discriminator 1 view .LVU703
 2554 006a 4D4B     		ldr	r3, .L185+16
 2555 006c 1B78     		ldrb	r3, [r3]	@ zero_extendqisi2
 461:Task/Task_Protocol.c ****                     TaskFrameCTL_Port_Tx(p_RecObj->PortObj_addr, p_data, size);
 2556              		.loc 1 461 31 discriminator 1 view .LVU704
 2557 006e 0BB1     		cbz	r3, .L183
 458:Task/Task_Protocol.c ****                 InUsePort_MavMsgInput_Obj = &RadioPort_MavMsgInput_Obj;
 2558              		.loc 1 458 26 view .LVU705
 2559 0070 4E4F     		ldr	r7, .L185+28
 2560 0072 07E0     		b	.L167
 2561              	.L183:
 462:Task/Task_Protocol.c ****                 break;
 2562              		.loc 1 462 21 is_stmt 1 view .LVU706
 2563 0074 2A46     		mov	r2, r5
 2564 0076 2146     		mov	r1, r4
 2565 0078 7068     		ldr	r0, [r6, #4]
 2566 007a FFF7FEFF 		bl	TaskFrameCTL_Port_Tx
 2567              	.LVL192:
 458:Task/Task_Protocol.c ****                 InUsePort_MavMsgInput_Obj = &RadioPort_MavMsgInput_Obj;
ARM GAS  C:\Users\8bit\AppData\Local\Temp\cczcmggF.s 			page 73


 2568              		.loc 1 458 26 is_stmt 0 view .LVU707
 2569 007e 4B4F     		ldr	r7, .L185+28
 2570 0080 00E0     		b	.L167
 2571              	.LVL193:
 2572              	.L177:
 450:Task/Task_Protocol.c ****                 InUsePort_MavMsgInput_Obj = &DefaultPort_MavMsgInput_Obj;
 2573              		.loc 1 450 26 view .LVU708
 2574 0082 484F     		ldr	r7, .L185+20
 2575              	.LVL194:
 2576              	.L167:
 469:Task/Task_Protocol.c ****         {
 2577              		.loc 1 469 9 is_stmt 1 view .LVU709
 469:Task/Task_Protocol.c ****         {
 2578              		.loc 1 469 22 is_stmt 0 view .LVU710
 2579 0084 BB88     		ldrh	r3, [r7, #4]
 469:Task/Task_Protocol.c ****         {
 2580              		.loc 1 469 29 view .LVU711
 2581 0086 E918     		adds	r1, r5, r3
 469:Task/Task_Protocol.c ****         {
 2582              		.loc 1 469 48 view .LVU712
 2583 0088 FA88     		ldrh	r2, [r7, #6]
 469:Task/Task_Protocol.c ****         {
 2584              		.loc 1 469 12 view .LVU713
 2585 008a 9142     		cmp	r1, r2
 2586 008c 4CDC     		bgt	.L168
 471:Task/Task_Protocol.c ****             p_stream->size += size;
 2587              		.loc 1 471 13 is_stmt 1 view .LVU714
 471:Task/Task_Protocol.c ****             p_stream->size += size;
 2588              		.loc 1 471 28 is_stmt 0 view .LVU715
 2589 008e 3868     		ldr	r0, [r7]
 471:Task/Task_Protocol.c ****             p_stream->size += size;
 2590              		.loc 1 471 13 view .LVU716
 2591 0090 2A46     		mov	r2, r5
 2592 0092 2146     		mov	r1, r4
 2593 0094 1844     		add	r0, r0, r3
 2594 0096 FFF7FEFF 		bl	memcpy
 2595              	.LVL195:
 472:Task/Task_Protocol.c ****         }
 2596              		.loc 1 472 13 is_stmt 1 view .LVU717
 472:Task/Task_Protocol.c ****         }
 2597              		.loc 1 472 28 is_stmt 0 view .LVU718
 2598 009a BB88     		ldrh	r3, [r7, #4]
 2599 009c 2B44     		add	r3, r3, r5
 2600 009e 9BB2     		uxth	r3, r3
 2601 00a0 BB80     		strh	r3, [r7, #4]	@ movhi
 483:Task/Task_Protocol.c ****         {
 2602              		.loc 1 483 9 is_stmt 1 view .LVU719
 483:Task/Task_Protocol.c ****         {
 2603              		.loc 1 483 28 is_stmt 0 view .LVU720
 2604 00a2 3F4A     		ldr	r2, .L185+16
 2605 00a4 1278     		ldrb	r2, [r2]	@ zero_extendqisi2
 483:Task/Task_Protocol.c ****         {
 2606              		.loc 1 483 12 view .LVU721
 2607 00a6 002A     		cmp	r2, #0
 2608 00a8 46D1     		bne	.L169
 2609              	.L170:
 494:Task/Task_Protocol.c ****     
ARM GAS  C:\Users\8bit\AppData\Local\Temp\cczcmggF.s 			page 74


 2610              		.loc 1 494 9 is_stmt 1 view .LVU722
 494:Task/Task_Protocol.c ****     
 2611              		.loc 1 494 32 is_stmt 0 view .LVU723
 2612 00aa 414A     		ldr	r2, .L185+32
 2613 00ac 9468     		ldr	r4, [r2, #8]
 2614              	.LVL196:
 494:Task/Task_Protocol.c ****     
 2615              		.loc 1 494 21 view .LVU724
 2616 00ae 3A68     		ldr	r2, [r7]
 2617 00b0 3749     		ldr	r1, .L185
 2618 00b2 0968     		ldr	r1, [r1]
 2619 00b4 01A8     		add	r0, sp, #4
 2620 00b6 A047     		blx	r4
 2621              	.LVL197:
 497:Task/Task_Protocol.c ****         {
 2622              		.loc 1 497 9 is_stmt 1 view .LVU725
 497:Task/Task_Protocol.c ****         {
 2623              		.loc 1 497 21 is_stmt 0 view .LVU726
 2624 00b8 9DF80430 		ldrb	r3, [sp, #4]	@ zero_extendqisi2
 497:Task/Task_Protocol.c ****         {
 2625              		.loc 1 497 11 view .LVU727
 2626 00bc 002B     		cmp	r3, #0
 2627 00be BAD0     		beq	.L162
 503:Task/Task_Protocol.c ****             {
 2628              		.loc 1 503 13 is_stmt 1 view .LVU728
 503:Task/Task_Protocol.c ****             {
 2629              		.loc 1 503 16 is_stmt 0 view .LVU729
 2630 00c0 9DF80330 		ldrb	r3, [sp, #3]	@ zero_extendqisi2
 503:Task/Task_Protocol.c ****             {
 2631              		.loc 1 503 15 view .LVU730
 2632 00c4 1BB9     		cbnz	r3, .L172
 505:Task/Task_Protocol.c ****                 {
 2633              		.loc 1 505 17 is_stmt 1 view .LVU731
 505:Task/Task_Protocol.c ****                 {
 2634              		.loc 1 505 30 is_stmt 0 view .LVU732
 2635 00c6 9DF80530 		ldrb	r3, [sp, #5]	@ zero_extendqisi2
 505:Task/Task_Protocol.c ****                 {
 2636              		.loc 1 505 20 view .LVU733
 2637 00ca 022B     		cmp	r3, #2
 2638 00cc 4CD0     		beq	.L184
 2639              	.L172:
 523:Task/Task_Protocol.c ****             {
 2640              		.loc 1 523 13 is_stmt 1 view .LVU734
 523:Task/Task_Protocol.c ****             {
 2641              		.loc 1 523 25 is_stmt 0 view .LVU735
 2642 00ce 9DF80530 		ldrb	r3, [sp, #5]	@ zero_extendqisi2
 523:Task/Task_Protocol.c ****             {
 2643              		.loc 1 523 15 view .LVU736
 2644 00d2 012B     		cmp	r3, #1
 2645 00d4 AFD1     		bne	.L162
 528:Task/Task_Protocol.c ****                    (CLI_Monitor.p_rx_stream->size + p_stream->size) <= CLI_Monitor.p_rx_stream->max
 2646              		.loc 1 528 17 is_stmt 1 view .LVU737
 528:Task/Task_Protocol.c ****                    (CLI_Monitor.p_rx_stream->size + p_stream->size) <= CLI_Monitor.p_rx_stream->max
 2647              		.loc 1 528 33 is_stmt 0 view .LVU738
 2648 00d6 374B     		ldr	r3, .L185+36
 2649 00d8 5B68     		ldr	r3, [r3, #4]
 528:Task/Task_Protocol.c ****                    (CLI_Monitor.p_rx_stream->size + p_stream->size) <= CLI_Monitor.p_rx_stream->max
ARM GAS  C:\Users\8bit\AppData\Local\Temp\cczcmggF.s 			page 75


 2650              		.loc 1 528 19 view .LVU739
 2651 00da 13B1     		cbz	r3, .L175
 528:Task/Task_Protocol.c ****                    (CLI_Monitor.p_rx_stream->size + p_stream->size) <= CLI_Monitor.p_rx_stream->max
 2652              		.loc 1 528 87 discriminator 2 view .LVU740
 2653 00dc 7268     		ldr	r2, [r6, #4]
 528:Task/Task_Protocol.c ****                    (CLI_Monitor.p_rx_stream->size + p_stream->size) <= CLI_Monitor.p_rx_stream->max
 2654              		.loc 1 528 50 discriminator 2 view .LVU741
 2655 00de 9342     		cmp	r3, r2
 2656 00e0 A9D1     		bne	.L162
 2657              	.L175:
 529:Task/Task_Protocol.c ****                 {
 2658              		.loc 1 529 32 discriminator 3 view .LVU742
 2659 00e2 344B     		ldr	r3, .L185+36
 2660 00e4 9A68     		ldr	r2, [r3, #8]
 529:Task/Task_Protocol.c ****                 {
 2661              		.loc 1 529 44 discriminator 3 view .LVU743
 2662 00e6 9388     		ldrh	r3, [r2, #4]
 529:Task/Task_Protocol.c ****                 {
 2663              		.loc 1 529 61 discriminator 3 view .LVU744
 2664 00e8 B988     		ldrh	r1, [r7, #4]
 529:Task/Task_Protocol.c ****                 {
 2665              		.loc 1 529 51 discriminator 3 view .LVU745
 2666 00ea 0B44     		add	r3, r3, r1
 529:Task/Task_Protocol.c ****                 {
 2667              		.loc 1 529 95 discriminator 3 view .LVU746
 2668 00ec D288     		ldrh	r2, [r2, #6]
 528:Task/Task_Protocol.c ****                    (CLI_Monitor.p_rx_stream->size + p_stream->size) <= CLI_Monitor.p_rx_stream->max
 2669              		.loc 1 528 104 discriminator 3 view .LVU747
 2670 00ee 9342     		cmp	r3, r2
 2671 00f0 A1DC     		bgt	.L162
 531:Task/Task_Protocol.c **** 
 2672              		.loc 1 531 21 is_stmt 1 view .LVU748
 531:Task/Task_Protocol.c **** 
 2673              		.loc 1 531 31 is_stmt 0 view .LVU749
 2674 00f2 284B     		ldr	r3, .L185+4
 2675 00f4 9B68     		ldr	r3, [r3, #8]
 531:Task/Task_Protocol.c **** 
 2676              		.loc 1 531 21 view .LVU750
 2677 00f6 0120     		movs	r0, #1
 2678 00f8 9847     		blx	r3
 2679              	.LVL198:
 533:Task/Task_Protocol.c ****                     CLI_Monitor.port_addr = p_RecObj->PortObj_addr;
 2680              		.loc 1 533 21 is_stmt 1 view .LVU751
 533:Task/Task_Protocol.c ****                     CLI_Monitor.port_addr = p_RecObj->PortObj_addr;
 2681              		.loc 1 533 48 is_stmt 0 view .LVU752
 2682 00fa 3278     		ldrb	r2, [r6]	@ zero_extendqisi2
 533:Task/Task_Protocol.c ****                     CLI_Monitor.port_addr = p_RecObj->PortObj_addr;
 2683              		.loc 1 533 38 view .LVU753
 2684 00fc 2D4B     		ldr	r3, .L185+36
 2685 00fe 1A70     		strb	r2, [r3]
 534:Task/Task_Protocol.c ****                     memcpy(CLI_Monitor.p_rx_stream->p_buf + CLI_Monitor.p_rx_stream->size, stream_i
 2686              		.loc 1 534 21 is_stmt 1 view .LVU754
 534:Task/Task_Protocol.c ****                     memcpy(CLI_Monitor.p_rx_stream->p_buf + CLI_Monitor.p_rx_stream->size, stream_i
 2687              		.loc 1 534 53 is_stmt 0 view .LVU755
 2688 0100 7268     		ldr	r2, [r6, #4]
 534:Task/Task_Protocol.c ****                     memcpy(CLI_Monitor.p_rx_stream->p_buf + CLI_Monitor.p_rx_stream->size, stream_i
 2689              		.loc 1 534 43 view .LVU756
ARM GAS  C:\Users\8bit\AppData\Local\Temp\cczcmggF.s 			page 76


 2690 0102 5A60     		str	r2, [r3, #4]
 535:Task/Task_Protocol.c ****                     CLI_Monitor.p_rx_stream->size += p_stream->size;
 2691              		.loc 1 535 21 is_stmt 1 view .LVU757
 535:Task/Task_Protocol.c ****                     CLI_Monitor.p_rx_stream->size += p_stream->size;
 2692              		.loc 1 535 39 is_stmt 0 view .LVU758
 2693 0104 9C68     		ldr	r4, [r3, #8]
 535:Task/Task_Protocol.c ****                     CLI_Monitor.p_rx_stream->size += p_stream->size;
 2694              		.loc 1 535 51 view .LVU759
 2695 0106 2068     		ldr	r0, [r4]
 535:Task/Task_Protocol.c ****                     CLI_Monitor.p_rx_stream->size += p_stream->size;
 2696              		.loc 1 535 84 view .LVU760
 2697 0108 A388     		ldrh	r3, [r4, #4]
 535:Task/Task_Protocol.c ****                     CLI_Monitor.p_rx_stream->size += p_stream->size;
 2698              		.loc 1 535 21 view .LVU761
 2699 010a BDF80C20 		ldrh	r2, [sp, #12]
 2700 010e 0299     		ldr	r1, [sp, #8]
 2701 0110 1844     		add	r0, r0, r3
 2702 0112 FFF7FEFF 		bl	memcpy
 2703              	.LVL199:
 536:Task/Task_Protocol.c **** 
 2704              		.loc 1 536 21 is_stmt 1 view .LVU762
 536:Task/Task_Protocol.c **** 
 2705              		.loc 1 536 62 is_stmt 0 view .LVU763
 2706 0116 BB88     		ldrh	r3, [r7, #4]
 536:Task/Task_Protocol.c **** 
 2707              		.loc 1 536 51 view .LVU764
 2708 0118 A288     		ldrh	r2, [r4, #4]
 2709 011a 1344     		add	r3, r3, r2
 2710 011c A380     		strh	r3, [r4, #4]	@ movhi
 539:Task/Task_Protocol.c ****                     memset(p_stream->p_buf, 0, p_stream->size);
 2711              		.loc 1 539 21 is_stmt 1 view .LVU765
 539:Task/Task_Protocol.c ****                     memset(p_stream->p_buf, 0, p_stream->size);
 2712              		.loc 1 539 36 is_stmt 0 view .LVU766
 2713 011e 0023     		movs	r3, #0
 2714 0120 BB80     		strh	r3, [r7, #4]	@ movhi
 540:Task/Task_Protocol.c ****                 }
 2715              		.loc 1 540 21 is_stmt 1 view .LVU767
 2716 0122 88E7     		b	.L162
 2717              	.LVL200:
 2718              	.L179:
 458:Task/Task_Protocol.c ****                 InUsePort_MavMsgInput_Obj = &RadioPort_MavMsgInput_Obj;
 2719              		.loc 1 458 26 is_stmt 0 view .LVU768
 2720 0124 214F     		ldr	r7, .L185+28
 2721 0126 ADE7     		b	.L167
 2722              	.LVL201:
 2723              	.L168:
 476:Task/Task_Protocol.c ****             p_stream->size = 0;
 2724              		.loc 1 476 13 is_stmt 1 view .LVU769
 2725 0128 1A46     		mov	r2, r3
 2726 012a 0021     		movs	r1, #0
 2727 012c 3868     		ldr	r0, [r7]
 2728 012e FFF7FEFF 		bl	memset
 2729              	.LVL202:
 477:Task/Task_Protocol.c ****             return;
 2730              		.loc 1 477 13 view .LVU770
 477:Task/Task_Protocol.c ****             return;
 2731              		.loc 1 477 28 is_stmt 0 view .LVU771
ARM GAS  C:\Users\8bit\AppData\Local\Temp\cczcmggF.s 			page 77


 2732 0132 0023     		movs	r3, #0
 2733 0134 BB80     		strh	r3, [r7, #4]	@ movhi
 478:Task/Task_Protocol.c ****         }
 2734              		.loc 1 478 13 is_stmt 1 view .LVU772
 2735 0136 7EE7     		b	.L162
 2736              	.L169:
 483:Task/Task_Protocol.c ****         {
 2737              		.loc 1 483 58 is_stmt 0 discriminator 1 view .LVU773
 2738 0138 194A     		ldr	r2, .L185+16
 2739 013a 1169     		ldr	r1, [r2, #16]
 483:Task/Task_Protocol.c ****         {
 2740              		.loc 1 483 80 discriminator 1 view .LVU774
 2741 013c 7268     		ldr	r2, [r6, #4]
 483:Task/Task_Protocol.c ****         {
 2742              		.loc 1 483 39 discriminator 1 view .LVU775
 2743 013e 9142     		cmp	r1, r2
 2744 0140 B3D1     		bne	.L170
 485:Task/Task_Protocol.c ****             {
 2745              		.loc 1 485 13 is_stmt 1 view .LVU776
 485:Task/Task_Protocol.c ****             {
 2746              		.loc 1 485 27 is_stmt 0 view .LVU777
 2747 0142 1D4B     		ldr	r3, .L185+40
 2748 0144 5C69     		ldr	r4, [r3, #20]
 2749              	.LVL203:
 485:Task/Task_Protocol.c ****             {
 2750              		.loc 1 485 49 view .LVU778
 2751 0146 144B     		ldr	r3, .L185+8
 2752 0148 1B68     		ldr	r3, [r3]
 485:Task/Task_Protocol.c ****             {
 2753              		.loc 1 485 17 view .LVU779
 2754 014a 9847     		blx	r3
 2755              	.LVL204:
 2756 014c BA88     		ldrh	r2, [r7, #4]
 2757 014e 3968     		ldr	r1, [r7]
 2758 0150 A047     		blx	r4
 2759              	.LVL205:
 485:Task/Task_Protocol.c ****             {
 2760              		.loc 1 485 16 view .LVU780
 2761 0152 0028     		cmp	r0, #0
 2762 0154 3FF46FAF 		beq	.L162
 487:Task/Task_Protocol.c ****                 p_stream->size = 0;
 2763              		.loc 1 487 17 is_stmt 1 view .LVU781
 2764 0158 FA88     		ldrh	r2, [r7, #6]
 2765 015a 0021     		movs	r1, #0
 2766 015c 3868     		ldr	r0, [r7]
 2767 015e FFF7FEFF 		bl	memset
 2768              	.LVL206:
 488:Task/Task_Protocol.c ****             }
 2769              		.loc 1 488 17 view .LVU782
 488:Task/Task_Protocol.c ****             }
 2770              		.loc 1 488 32 is_stmt 0 view .LVU783
 2771 0162 0023     		movs	r3, #0
 2772 0164 BB80     		strh	r3, [r7, #4]	@ movhi
 491:Task/Task_Protocol.c ****         }
 2773              		.loc 1 491 13 is_stmt 1 view .LVU784
 2774 0166 66E7     		b	.L162
 2775              	.L184:
ARM GAS  C:\Users\8bit\AppData\Local\Temp\cczcmggF.s 			page 78


 512:Task/Task_Protocol.c ****                     {
 2776              		.loc 1 512 21 view .LVU785
 512:Task/Task_Protocol.c ****                     {
 2777              		.loc 1 512 33 is_stmt 0 view .LVU786
 2778 0168 BA88     		ldrh	r2, [r7, #4]
 512:Task/Task_Protocol.c ****                     {
 2779              		.loc 1 512 51 view .LVU787
 2780 016a BDF80C40 		ldrh	r4, [sp, #12]
 512:Task/Task_Protocol.c ****                     {
 2781              		.loc 1 512 24 view .LVU788
 2782 016e A242     		cmp	r2, r4
 2783 0170 09D9     		bls	.L173
 514:Task/Task_Protocol.c ****                     }
 2784              		.loc 1 514 25 is_stmt 1 view .LVU789
 2785 0172 121B     		subs	r2, r2, r4
 2786 0174 0299     		ldr	r1, [sp, #8]
 2787 0176 2144     		add	r1, r1, r4
 2788 0178 3868     		ldr	r0, [r7]
 2789 017a FFF7FEFF 		bl	memmove
 2790              	.LVL207:
 2791              	.L174:
 519:Task/Task_Protocol.c ****                 }
 2792              		.loc 1 519 21 view .LVU790
 519:Task/Task_Protocol.c ****                 }
 2793              		.loc 1 519 36 is_stmt 0 view .LVU791
 2794 017e BB88     		ldrh	r3, [r7, #4]
 2795 0180 1B1B     		subs	r3, r3, r4
 2796 0182 BB80     		strh	r3, [r7, #4]	@ movhi
 2797 0184 A3E7     		b	.L172
 2798              	.L173:
 517:Task/Task_Protocol.c **** 
 2799              		.loc 1 517 25 is_stmt 1 view .LVU792
 2800 0186 0021     		movs	r1, #0
 2801 0188 3868     		ldr	r0, [r7]
 2802 018a FFF7FEFF 		bl	memset
 2803              	.LVL208:
 2804 018e F6E7     		b	.L174
 2805              	.L186:
 2806              		.align	2
 2807              	.L185:
 2808 0190 00000000 		.word	.LANCHOR26
 2809 0194 00000000 		.word	SrvDataHub
 2810 0198 00000000 		.word	SrvOsCommon
 2811 019c 00000000 		.word	.LANCHOR20
 2812 01a0 00000000 		.word	.LANCHOR1
 2813 01a4 00000000 		.word	.LANCHOR24
 2814 01a8 00000000 		.word	.LANCHOR21
 2815 01ac 00000000 		.word	.LANCHOR25
 2816 01b0 00000000 		.word	SrvComProto
 2817 01b4 00000000 		.word	.LANCHOR22
 2818 01b8 00000000 		.word	SrvUpgrade
 2819              		.cfi_endproc
 2820              	.LFE2078:
 2822              		.section	.text.TaskFrameCTL_Port_TxCplt_Callback,"ax",%progbits
 2823              		.align	1
 2824              		.syntax unified
 2825              		.thumb
ARM GAS  C:\Users\8bit\AppData\Local\Temp\cczcmggF.s 			page 79


 2826              		.thumb_func
 2828              	TaskFrameCTL_Port_TxCplt_Callback:
 2829              	.LVL209:
 2830              	.LFB2079:
 548:Task/Task_Protocol.c ****     UNUSED(p_data);
 2831              		.loc 1 548 1 view -0
 2832              		.cfi_startproc
 2833              		@ args = 0, pretend = 0, frame = 0
 2834              		@ frame_needed = 0, uses_anonymous_args = 0
 549:Task/Task_Protocol.c ****     UNUSED(size);
 2835              		.loc 1 549 5 view .LVU794
 550:Task/Task_Protocol.c **** 
 2836              		.loc 1 550 5 view .LVU795
 552:Task/Task_Protocol.c ****     FrameCTL_UartPortMonitor_TypeDef *p_UartPortObj = NULL;
 2837              		.loc 1 552 5 view .LVU796
 553:Task/Task_Protocol.c ****     FrameCTL_VCPPortMonitor_TypeDef *p_USBPortObj = NULL;
 2838              		.loc 1 553 5 view .LVU797
 554:Task/Task_Protocol.c ****     osSemaphoreId semID = NULL;
 2839              		.loc 1 554 5 view .LVU798
 555:Task/Task_Protocol.c ****     uint32_t *p_rls_err_cnt = NULL;
 2840              		.loc 1 555 5 view .LVU799
 556:Task/Task_Protocol.c **** 
 2841              		.loc 1 556 5 view .LVU800
 558:Task/Task_Protocol.c ****     {
 2842              		.loc 1 558 5 view .LVU801
 558:Task/Task_Protocol.c ****     {
 2843              		.loc 1 558 7 is_stmt 0 view .LVU802
 2844 0000 18B3     		cbz	r0, .L193
 548:Task/Task_Protocol.c ****     UNUSED(p_data);
 2845              		.loc 1 548 1 view .LVU803
 2846 0002 10B5     		push	{r4, lr}
 2847              	.LCFI51:
 2848              		.cfi_def_cfa_offset 8
 2849              		.cfi_offset 4, -8
 2850              		.cfi_offset 14, -4
 560:Task/Task_Protocol.c **** 
 2851              		.loc 1 560 9 is_stmt 1 view .LVU804
 2852              	.LVL210:
 562:Task/Task_Protocol.c ****         {
 2853              		.loc 1 562 9 view .LVU805
 562:Task/Task_Protocol.c ****         {
 2854              		.loc 1 562 17 is_stmt 0 view .LVU806
 2855 0004 4468     		ldr	r4, [r0, #4]
 562:Task/Task_Protocol.c ****         {
 2856              		.loc 1 562 11 view .LVU807
 2857 0006 24B1     		cbz	r4, .L187
 564:Task/Task_Protocol.c ****             {
 2858              		.loc 1 564 13 is_stmt 1 view .LVU808
 564:Task/Task_Protocol.c ****             {
 2859              		.loc 1 564 35 is_stmt 0 view .LVU809
 2860 0008 0378     		ldrb	r3, [r0]	@ zero_extendqisi2
 564:Task/Task_Protocol.c ****             {
 2861              		.loc 1 564 13 view .LVU810
 2862 000a 012B     		cmp	r3, #1
 2863 000c 02D0     		beq	.L189
 2864 000e 022B     		cmp	r3, #2
 2865 0010 13D0     		beq	.L190
ARM GAS  C:\Users\8bit\AppData\Local\Temp\cczcmggF.s 			page 80


 2866              	.LVL211:
 2867              	.L187:
 594:Task/Task_Protocol.c **** 
 2868              		.loc 1 594 1 view .LVU811
 2869 0012 10BD     		pop	{r4, pc}
 2870              	.LVL212:
 2871              	.L189:
 567:Task/Task_Protocol.c **** 
 2872              		.loc 1 567 21 is_stmt 1 view .LVU812
 569:Task/Task_Protocol.c ****                     {
 2873              		.loc 1 569 21 view .LVU813
 569:Task/Task_Protocol.c ****                     {
 2874              		.loc 1 569 36 is_stmt 0 view .LVU814
 2875 0014 2378     		ldrb	r3, [r4]	@ zero_extendqisi2
 569:Task/Task_Protocol.c ****                     {
 2876              		.loc 1 569 23 view .LVU815
 2877 0016 002B     		cmp	r3, #0
 2878 0018 FBD0     		beq	.L187
 569:Task/Task_Protocol.c ****                     {
 2879              		.loc 1 569 64 discriminator 1 view .LVU816
 2880 001a 2069     		ldr	r0, [r4, #16]
 2881              	.LVL213:
 569:Task/Task_Protocol.c ****                     {
 2882              		.loc 1 569 49 discriminator 1 view .LVU817
 2883 001c 0028     		cmp	r0, #0
 2884 001e F8D0     		beq	.L187
 571:Task/Task_Protocol.c ****                         p_rls_err_cnt = &p_USBPortObj->tx_semphr_rls_err;
 2885              		.loc 1 571 25 is_stmt 1 view .LVU818
 2886              	.LVL214:
 572:Task/Task_Protocol.c ****                     }
 2887              		.loc 1 572 25 view .LVU819
 572:Task/Task_Protocol.c ****                     }
 2888              		.loc 1 572 39 is_stmt 0 view .LVU820
 2889 0020 1434     		adds	r4, r4, #20
 2890              	.LVL215:
 2891              	.L191:
 590:Task/Task_Protocol.c ****                 (*p_rls_err_cnt) ++;
 2892              		.loc 1 590 13 is_stmt 1 view .LVU821
 590:Task/Task_Protocol.c ****                 (*p_rls_err_cnt) ++;
 2893              		.loc 1 590 15 is_stmt 0 view .LVU822
 2894 0022 0028     		cmp	r0, #0
 2895 0024 F5D0     		beq	.L187
 590:Task/Task_Protocol.c ****                 (*p_rls_err_cnt) ++;
 2896              		.loc 1 590 22 discriminator 1 view .LVU823
 2897 0026 002C     		cmp	r4, #0
 2898 0028 F3D0     		beq	.L187
 590:Task/Task_Protocol.c ****                 (*p_rls_err_cnt) ++;
 2899              		.loc 1 590 43 discriminator 2 view .LVU824
 2900 002a FFF7FEFF 		bl	osSemaphoreRelease
 2901              	.LVL216:
 590:Task/Task_Protocol.c ****                 (*p_rls_err_cnt) ++;
 2902              		.loc 1 590 39 discriminator 2 view .LVU825
 2903 002e 0028     		cmp	r0, #0
 2904 0030 EFD0     		beq	.L187
 591:Task/Task_Protocol.c ****         }
 2905              		.loc 1 591 17 is_stmt 1 view .LVU826
 591:Task/Task_Protocol.c ****         }
ARM GAS  C:\Users\8bit\AppData\Local\Temp\cczcmggF.s 			page 81


 2906              		.loc 1 591 18 is_stmt 0 view .LVU827
 2907 0032 2368     		ldr	r3, [r4]
 591:Task/Task_Protocol.c ****         }
 2908              		.loc 1 591 34 view .LVU828
 2909 0034 0133     		adds	r3, r3, #1
 2910 0036 2360     		str	r3, [r4]
 2911              	.LVL217:
 591:Task/Task_Protocol.c ****         }
 2912              		.loc 1 591 34 view .LVU829
 2913 0038 EBE7     		b	.L187
 2914              	.LVL218:
 2915              	.L190:
 577:Task/Task_Protocol.c **** 
 2916              		.loc 1 577 21 is_stmt 1 view .LVU830
 579:Task/Task_Protocol.c ****                     {
 2917              		.loc 1 579 21 view .LVU831
 579:Task/Task_Protocol.c ****                     {
 2918              		.loc 1 579 37 is_stmt 0 view .LVU832
 2919 003a 2378     		ldrb	r3, [r4]	@ zero_extendqisi2
 579:Task/Task_Protocol.c ****                     {
 2920              		.loc 1 579 23 view .LVU833
 2921 003c 002B     		cmp	r3, #0
 2922 003e E8D0     		beq	.L187
 579:Task/Task_Protocol.c ****                     {
 2923              		.loc 1 579 66 discriminator 1 view .LVU834
 2924 0040 A069     		ldr	r0, [r4, #24]
 2925              	.LVL219:
 579:Task/Task_Protocol.c ****                     {
 2926              		.loc 1 579 50 discriminator 1 view .LVU835
 2927 0042 0028     		cmp	r0, #0
 2928 0044 E5D0     		beq	.L187
 581:Task/Task_Protocol.c ****                         p_rls_err_cnt = &p_UartPortObj->tx_semphr_rls_err;
 2929              		.loc 1 581 25 is_stmt 1 view .LVU836
 2930              	.LVL220:
 582:Task/Task_Protocol.c ****                     }
 2931              		.loc 1 582 25 view .LVU837
 582:Task/Task_Protocol.c ****                     }
 2932              		.loc 1 582 39 is_stmt 0 view .LVU838
 2933 0046 1C34     		adds	r4, r4, #28
 2934              	.LVL221:
 582:Task/Task_Protocol.c ****                     }
 2935              		.loc 1 582 39 view .LVU839
 2936 0048 EBE7     		b	.L191
 2937              	.LVL222:
 2938              	.L193:
 2939              	.LCFI52:
 2940              		.cfi_def_cfa_offset 0
 2941              		.cfi_restore 4
 2942              		.cfi_restore 14
 582:Task/Task_Protocol.c ****                     }
 2943              		.loc 1 582 39 view .LVU840
 2944 004a 7047     		bx	lr
 2945              		.cfi_endproc
 2946              	.LFE2079:
 2948              		.section	.text.TaskFrameCTL_ConfigureStateCheck,"ax",%progbits
 2949              		.align	1
 2950              		.syntax unified
ARM GAS  C:\Users\8bit\AppData\Local\Temp\cczcmggF.s 			page 82


 2951              		.thumb
 2952              		.thumb_func
 2954              	TaskFrameCTL_ConfigureStateCheck:
 2955              	.LFB2088:
 938:Task/Task_Protocol.c ****     uint32_t tunning_time_stamp = 0;
 2956              		.loc 1 938 1 is_stmt 1 view -0
 2957              		.cfi_startproc
 2958              		@ args = 0, pretend = 0, frame = 8
 2959              		@ frame_needed = 0, uses_anonymous_args = 0
 2960 0000 00B5     		push	{lr}
 2961              	.LCFI53:
 2962              		.cfi_def_cfa_offset 4
 2963              		.cfi_offset 14, -4
 2964 0002 83B0     		sub	sp, sp, #12
 2965              	.LCFI54:
 2966              		.cfi_def_cfa_offset 16
 939:Task/Task_Protocol.c ****     uint32_t tunning_port = 0;
 2967              		.loc 1 939 5 view .LVU842
 2968              	.LVL223:
 940:Task/Task_Protocol.c ****     bool tunning_state = false;
 2969              		.loc 1 940 5 view .LVU843
 941:Task/Task_Protocol.c ****     uint32_t cur_time = SrvOsCommon.get_os_ms();
 2970              		.loc 1 941 5 view .LVU844
 942:Task/Task_Protocol.c ****     bool lst_vcp_state = false;
 2971              		.loc 1 942 5 view .LVU845
 942:Task/Task_Protocol.c ****     bool lst_vcp_state = false;
 2972              		.loc 1 942 36 is_stmt 0 view .LVU846
 2973 0004 124B     		ldr	r3, .L201
 2974 0006 1B68     		ldr	r3, [r3]
 942:Task/Task_Protocol.c ****     bool lst_vcp_state = false;
 2975              		.loc 1 942 25 view .LVU847
 2976 0008 9847     		blx	r3
 2977              	.LVL224:
 943:Task/Task_Protocol.c **** 
 2978              		.loc 1 943 5 is_stmt 1 view .LVU848
 943:Task/Task_Protocol.c **** 
 2979              		.loc 1 943 10 is_stmt 0 view .LVU849
 2980 000a 0023     		movs	r3, #0
 2981 000c 8DF80730 		strb	r3, [sp, #7]
 945:Task/Task_Protocol.c **** 
 2982              		.loc 1 945 5 is_stmt 1 view .LVU850
 945:Task/Task_Protocol.c **** 
 2983              		.loc 1 945 35 is_stmt 0 view .LVU851
 2984 0010 104A     		ldr	r2, .L201+4
 2985 0012 5370     		strb	r3, [r2, #1]
 948:Task/Task_Protocol.c ****         PortMonitor.vcp_connect_state = BspUSB_VCP.check_connect(cur_time, FrameCTL_Period);
 2986              		.loc 1 948 5 is_stmt 1 view .LVU852
 948:Task/Task_Protocol.c ****         PortMonitor.vcp_connect_state = BspUSB_VCP.check_connect(cur_time, FrameCTL_Period);
 2987              		.loc 1 948 19 is_stmt 0 view .LVU853
 2988 0014 104B     		ldr	r3, .L201+8
 2989 0016 DB69     		ldr	r3, [r3, #28]
 948:Task/Task_Protocol.c ****         PortMonitor.vcp_connect_state = BspUSB_VCP.check_connect(cur_time, FrameCTL_Period);
 2990              		.loc 1 948 8 view .LVU854
 2991 0018 23B1     		cbz	r3, .L197
 949:Task/Task_Protocol.c **** 
 2992              		.loc 1 949 9 is_stmt 1 view .LVU855
 949:Task/Task_Protocol.c **** 
ARM GAS  C:\Users\8bit\AppData\Local\Temp\cczcmggF.s 			page 83


 2993              		.loc 1 949 41 is_stmt 0 view .LVU856
 2994 001a 104A     		ldr	r2, .L201+12
 2995 001c 1168     		ldr	r1, [r2]
 2996 001e 9847     		blx	r3
 2997              	.LVL225:
 949:Task/Task_Protocol.c **** 
 2998              		.loc 1 949 39 view .LVU857
 2999 0020 0C4B     		ldr	r3, .L201+4
 3000 0022 5870     		strb	r0, [r3, #1]
 3001              	.L197:
 951:Task/Task_Protocol.c **** 
 3002              		.loc 1 951 5 is_stmt 1 view .LVU858
 951:Task/Task_Protocol.c **** 
 3003              		.loc 1 951 15 is_stmt 0 view .LVU859
 3004 0024 0E4B     		ldr	r3, .L201+16
 3005 0026 9B69     		ldr	r3, [r3, #24]
 951:Task/Task_Protocol.c **** 
 3006              		.loc 1 951 5 view .LVU860
 3007 0028 0DF10700 		add	r0, sp, #7
 3008 002c 9847     		blx	r3
 3009              	.LVL226:
 954:Task/Task_Protocol.c ****     {
 3010              		.loc 1 954 5 is_stmt 1 view .LVU861
 954:Task/Task_Protocol.c ****     {
 3011              		.loc 1 954 37 is_stmt 0 view .LVU862
 3012 002e 094B     		ldr	r3, .L201+4
 3013 0030 5B78     		ldrb	r3, [r3, #1]	@ zero_extendqisi2
 954:Task/Task_Protocol.c ****     {
 3014              		.loc 1 954 23 view .LVU863
 3015 0032 9DF80720 		ldrb	r2, [sp, #7]	@ zero_extendqisi2
 954:Task/Task_Protocol.c ****     {
 3016              		.loc 1 954 8 view .LVU864
 3017 0036 9342     		cmp	r3, r2
 3018 0038 02D1     		bne	.L200
 3019              	.L196:
 959:Task/Task_Protocol.c **** 
 3020              		.loc 1 959 1 view .LVU865
 3021 003a 03B0     		add	sp, sp, #12
 3022              	.LCFI55:
 3023              		.cfi_remember_state
 3024              		.cfi_def_cfa_offset 4
 3025              		@ sp needed
 3026 003c 5DF804FB 		ldr	pc, [sp], #4
 3027              	.L200:
 3028              	.LCFI56:
 3029              		.cfi_restore_state
 956:Task/Task_Protocol.c ****         DataPipe_SendTo(&VCP_Connect_smp_DataPipe, &VCP_Connect_hub_DataPipe);
 3030              		.loc 1 956 9 is_stmt 1 view .LVU866
 956:Task/Task_Protocol.c ****         DataPipe_SendTo(&VCP_Connect_smp_DataPipe, &VCP_Connect_hub_DataPipe);
 3031              		.loc 1 956 44 is_stmt 0 view .LVU867
 3032 0040 084A     		ldr	r2, .L201+20
 3033 0042 1370     		strb	r3, [r2]
 957:Task/Task_Protocol.c ****     }
 3034              		.loc 1 957 9 is_stmt 1 view .LVU868
 3035 0044 0849     		ldr	r1, .L201+24
 3036 0046 0948     		ldr	r0, .L201+28
 3037 0048 FFF7FEFF 		bl	DataPipe_SendTo
ARM GAS  C:\Users\8bit\AppData\Local\Temp\cczcmggF.s 			page 84


 3038              	.LVL227:
 959:Task/Task_Protocol.c **** 
 3039              		.loc 1 959 1 is_stmt 0 view .LVU869
 3040 004c F5E7     		b	.L196
 3041              	.L202:
 3042 004e 00BF     		.align	2
 3043              	.L201:
 3044 0050 00000000 		.word	SrvOsCommon
 3045 0054 00000000 		.word	.LANCHOR0
 3046 0058 00000000 		.word	BspUSB_VCP
 3047 005c 00000000 		.word	.LANCHOR27
 3048 0060 00000000 		.word	SrvDataHub
 3049 0064 00000000 		.word	.LANCHOR28
 3050 0068 00000000 		.word	VCP_Connect_hub_DataPipe
 3051 006c 00000000 		.word	VCP_Connect_smp_DataPipe
 3052              		.cfi_endproc
 3053              	.LFE2088:
 3055              		.section	.text.TaskFrameCTL_CLI_Proc,"ax",%progbits
 3056              		.align	1
 3057              		.syntax unified
 3058              		.thumb
 3059              		.thumb_func
 3061              	TaskFrameCTL_CLI_Proc:
 3062              	.LFB2086:
 893:Task/Task_Protocol.c ****     uint16_t rx_stream_size = 0;
 3063              		.loc 1 893 1 is_stmt 1 view -0
 3064              		.cfi_startproc
 3065              		@ args = 0, pretend = 0, frame = 8
 3066              		@ frame_needed = 0, uses_anonymous_args = 0
 3067 0000 F0B5     		push	{r4, r5, r6, r7, lr}
 3068              	.LCFI57:
 3069              		.cfi_def_cfa_offset 20
 3070              		.cfi_offset 4, -20
 3071              		.cfi_offset 5, -16
 3072              		.cfi_offset 6, -12
 3073              		.cfi_offset 7, -8
 3074              		.cfi_offset 14, -4
 3075 0002 83B0     		sub	sp, sp, #12
 3076              	.LCFI58:
 3077              		.cfi_def_cfa_offset 32
 894:Task/Task_Protocol.c ****     bool arm_state;
 3078              		.loc 1 894 5 view .LVU871
 3079              	.LVL228:
 895:Task/Task_Protocol.c ****     Shell *shell_obj = Shell_GetInstence();
 3080              		.loc 1 895 5 view .LVU872
 896:Task/Task_Protocol.c **** 
 3081              		.loc 1 896 5 view .LVU873
 896:Task/Task_Protocol.c **** 
 3082              		.loc 1 896 24 is_stmt 0 view .LVU874
 3083 0004 FFF7FEFF 		bl	Shell_GetInstence
 3084              	.LVL229:
 899:Task/Task_Protocol.c ****     {
 3085              		.loc 1 899 5 is_stmt 1 view .LVU875
 899:Task/Task_Protocol.c ****     {
 3086              		.loc 1 899 7 is_stmt 0 view .LVU876
 3087 0008 10B3     		cbz	r0, .L203
 3088 000a 0646     		mov	r6, r0
ARM GAS  C:\Users\8bit\AppData\Local\Temp\cczcmggF.s 			page 85


 899:Task/Task_Protocol.c ****     {
 3089              		.loc 1 899 32 discriminator 1 view .LVU877
 3090 000c 114B     		ldr	r3, .L210
 3091 000e 9B68     		ldr	r3, [r3, #8]
 899:Task/Task_Protocol.c ****     {
 3092              		.loc 1 899 44 discriminator 1 view .LVU878
 3093 0010 1A68     		ldr	r2, [r3]
 899:Task/Task_Protocol.c ****     {
 3094              		.loc 1 899 18 discriminator 1 view .LVU879
 3095 0012 EAB1     		cbz	r2, .L203
 899:Task/Task_Protocol.c ****     {
 3096              		.loc 1 899 78 discriminator 2 view .LVU880
 3097 0014 9F88     		ldrh	r7, [r3, #4]
 899:Task/Task_Protocol.c ****     {
 3098              		.loc 1 899 52 discriminator 2 view .LVU881
 3099 0016 DFB1     		cbz	r7, .L203
 901:Task/Task_Protocol.c **** 
 3100              		.loc 1 901 9 is_stmt 1 view .LVU882
 3101              	.LVL230:
 904:Task/Task_Protocol.c ****         if (arm_state == DRONE_DISARM)
 3102              		.loc 1 904 9 view .LVU883
 904:Task/Task_Protocol.c ****         if (arm_state == DRONE_DISARM)
 3103              		.loc 1 904 19 is_stmt 0 view .LVU884
 3104 0018 0F4B     		ldr	r3, .L210+4
 3105 001a 5B6D     		ldr	r3, [r3, #84]
 904:Task/Task_Protocol.c ****         if (arm_state == DRONE_DISARM)
 3106              		.loc 1 904 9 view .LVU885
 3107 001c 0DF10700 		add	r0, sp, #7
 3108              	.LVL231:
 904:Task/Task_Protocol.c ****         if (arm_state == DRONE_DISARM)
 3109              		.loc 1 904 9 view .LVU886
 3110 0020 9847     		blx	r3
 3111              	.LVL232:
 905:Task/Task_Protocol.c ****             return;
 3112              		.loc 1 905 9 is_stmt 1 view .LVU887
 905:Task/Task_Protocol.c ****             return;
 3113              		.loc 1 905 23 is_stmt 0 view .LVU888
 3114 0022 9DF80730 		ldrb	r3, [sp, #7]	@ zero_extendqisi2
 905:Task/Task_Protocol.c ****             return;
 3115              		.loc 1 905 12 view .LVU889
 3116 0026 9BB1     		cbz	r3, .L203
 3117              	.LBB10:
 908:Task/Task_Protocol.c ****         {
 3118              		.loc 1 908 22 view .LVU890
 3119 0028 0024     		movs	r4, #0
 3120 002a 0FE0     		b	.L205
 3121              	.LVL233:
 3122              	.L207:
 910:Task/Task_Protocol.c ****             CLI_Monitor.p_rx_stream->p_buf[i] = 0;
 3123              		.loc 1 910 13 is_stmt 1 discriminator 3 view .LVU891
 910:Task/Task_Protocol.c ****             CLI_Monitor.p_rx_stream->p_buf[i] = 0;
 3124              		.loc 1 910 48 is_stmt 0 discriminator 3 view .LVU892
 3125 002c 094D     		ldr	r5, .L210
 3126 002e AB68     		ldr	r3, [r5, #8]
 910:Task/Task_Protocol.c ****             CLI_Monitor.p_rx_stream->p_buf[i] = 0;
 3127              		.loc 1 910 60 discriminator 3 view .LVU893
 3128 0030 1B68     		ldr	r3, [r3]
ARM GAS  C:\Users\8bit\AppData\Local\Temp\cczcmggF.s 			page 86


 910:Task/Task_Protocol.c ****             CLI_Monitor.p_rx_stream->p_buf[i] = 0;
 3129              		.loc 1 910 13 discriminator 3 view .LVU894
 3130 0032 195D     		ldrb	r1, [r3, r4]	@ zero_extendqisi2
 3131 0034 3046     		mov	r0, r6
 3132 0036 FFF7FEFF 		bl	shellHandler
 3133              	.LVL234:
 911:Task/Task_Protocol.c ****             CLI_Monitor.p_rx_stream->size --;
 3134              		.loc 1 911 13 is_stmt 1 discriminator 3 view .LVU895
 911:Task/Task_Protocol.c ****             CLI_Monitor.p_rx_stream->size --;
 3135              		.loc 1 911 24 is_stmt 0 discriminator 3 view .LVU896
 3136 003a AB68     		ldr	r3, [r5, #8]
 911:Task/Task_Protocol.c ****             CLI_Monitor.p_rx_stream->size --;
 3137              		.loc 1 911 36 discriminator 3 view .LVU897
 3138 003c 1A68     		ldr	r2, [r3]
 911:Task/Task_Protocol.c ****             CLI_Monitor.p_rx_stream->size --;
 3139              		.loc 1 911 47 discriminator 3 view .LVU898
 3140 003e 0021     		movs	r1, #0
 3141 0040 1155     		strb	r1, [r2, r4]
 912:Task/Task_Protocol.c ****         }
 3142              		.loc 1 912 13 is_stmt 1 discriminator 3 view .LVU899
 912:Task/Task_Protocol.c ****         }
 3143              		.loc 1 912 36 is_stmt 0 discriminator 3 view .LVU900
 3144 0042 9A88     		ldrh	r2, [r3, #4]
 912:Task/Task_Protocol.c ****         }
 3145              		.loc 1 912 43 discriminator 3 view .LVU901
 3146 0044 013A     		subs	r2, r2, #1
 3147 0046 9A80     		strh	r2, [r3, #4]	@ movhi
 908:Task/Task_Protocol.c ****         {
 3148              		.loc 1 908 49 is_stmt 1 discriminator 3 view .LVU902
 908:Task/Task_Protocol.c ****         {
 3149              		.loc 1 908 50 is_stmt 0 discriminator 3 view .LVU903
 3150 0048 0134     		adds	r4, r4, #1
 3151              	.LVL235:
 908:Task/Task_Protocol.c ****         {
 3152              		.loc 1 908 50 discriminator 3 view .LVU904
 3153 004a A4B2     		uxth	r4, r4
 3154              	.LVL236:
 3155              	.L205:
 908:Task/Task_Protocol.c ****         {
 3156              		.loc 1 908 29 is_stmt 1 discriminator 1 view .LVU905
 908:Task/Task_Protocol.c ****         {
 3157              		.loc 1 908 9 is_stmt 0 discriminator 1 view .LVU906
 3158 004c A742     		cmp	r7, r4
 3159 004e EDD8     		bhi	.L207
 3160              	.LVL237:
 3161              	.L203:
 908:Task/Task_Protocol.c ****         {
 3162              		.loc 1 908 9 discriminator 1 view .LVU907
 3163              	.LBE10:
 915:Task/Task_Protocol.c **** 
 3164              		.loc 1 915 1 view .LVU908
 3165 0050 03B0     		add	sp, sp, #12
 3166              	.LCFI59:
 3167              		.cfi_def_cfa_offset 20
 3168              		@ sp needed
 3169 0052 F0BD     		pop	{r4, r5, r6, r7, pc}
 3170              	.L211:
ARM GAS  C:\Users\8bit\AppData\Local\Temp\cczcmggF.s 			page 87


 3171              		.align	2
 3172              	.L210:
 3173 0054 00000000 		.word	.LANCHOR22
 3174 0058 00000000 		.word	SrvDataHub
 3175              		.cfi_endproc
 3176              	.LFE2086:
 3178              		.section	.rodata.TaskFrameCTL_Upgrade_StatePolling.str1.4,"aMS",%progbits,1
 3179              		.align	2
 3180              	.LC0:
 3181 0000 0D0A00   		.ascii	"\015\012\000"
 3182 0003 00       		.align	2
 3183              	.LC1:
 3184 0004 5B205570 		.ascii	"[ Upgrade ] Communicate time out\015\012\000"
 3184      67726164 
 3184      65205D20 
 3184      436F6D6D 
 3184      756E6963 
 3185 0027 00       		.align	2
 3186              	.LC2:
 3187 0028 5B205570 		.ascii	"[ Upgrade ] Error\015\012\000"
 3187      67726164 
 3187      65205D20 
 3187      4572726F 
 3187      720D0A00 
 3188              		.align	2
 3189              	.LC3:
 3190 003c 5B205570 		.ascii	"[ Upgrade ] Firmware Updating\015\012\000"
 3190      67726164 
 3190      65205D20 
 3190      4669726D 
 3190      77617265 
 3191              		.align	2
 3192              	.LC4:
 3193 005c 5B205570 		.ascii	"[ Upgrade ] DO NOT POWER OFF\015\012\000"
 3193      67726164 
 3193      65205D20 
 3193      444F204E 
 3193      4F542050 
 3194 007b 00       		.align	2
 3195              	.LC5:
 3196 007c 5B205570 		.ascii	"[ Upgrade Info ] %s\000"
 3196      67726164 
 3196      6520496E 
 3196      666F205D 
 3196      20257300 
 3197              		.section	.text.TaskFrameCTL_Upgrade_StatePolling,"ax",%progbits
 3198              		.align	1
 3199              		.syntax unified
 3200              		.thumb
 3201              		.thumb_func
 3203              	TaskFrameCTL_Upgrade_StatePolling:
 3204              	.LVL238:
 3205              	.LFB2083:
 676:Task/Task_Protocol.c ****     SrvUpgrade_Stage_List stage;
 3206              		.loc 1 676 1 is_stmt 1 view -0
 3207              		.cfi_startproc
 3208              		@ args = 0, pretend = 0, frame = 0
ARM GAS  C:\Users\8bit\AppData\Local\Temp\cczcmggF.s 			page 88


 3209              		@ frame_needed = 0, uses_anonymous_args = 0
 676:Task/Task_Protocol.c ****     SrvUpgrade_Stage_List stage;
 3210              		.loc 1 676 1 is_stmt 0 view .LVU910
 3211 0000 70B5     		push	{r4, r5, r6, lr}
 3212              	.LCFI60:
 3213              		.cfi_def_cfa_offset 16
 3214              		.cfi_offset 4, -16
 3215              		.cfi_offset 5, -12
 3216              		.cfi_offset 6, -8
 3217              		.cfi_offset 14, -4
 3218 0002 0546     		mov	r5, r0
 677:Task/Task_Protocol.c ****     uint32_t sys_time = SrvOsCommon.get_os_ms();
 3219              		.loc 1 677 5 is_stmt 1 view .LVU911
 678:Task/Task_Protocol.c ****     Shell *shell_obj = Shell_GetInstence();
 3220              		.loc 1 678 5 view .LVU912
 678:Task/Task_Protocol.c ****     Shell *shell_obj = Shell_GetInstence();
 3221              		.loc 1 678 36 is_stmt 0 view .LVU913
 3222 0004 334B     		ldr	r3, .L224
 3223 0006 1B68     		ldr	r3, [r3]
 678:Task/Task_Protocol.c ****     Shell *shell_obj = Shell_GetInstence();
 3224              		.loc 1 678 25 view .LVU914
 3225 0008 9847     		blx	r3
 3226              	.LVL239:
 678:Task/Task_Protocol.c ****     Shell *shell_obj = Shell_GetInstence();
 3227              		.loc 1 678 25 view .LVU915
 3228 000a 0446     		mov	r4, r0
 3229              	.LVL240:
 679:Task/Task_Protocol.c ****     uint16_t logout_size = 0;
 3230              		.loc 1 679 5 is_stmt 1 view .LVU916
 679:Task/Task_Protocol.c ****     uint16_t logout_size = 0;
 3231              		.loc 1 679 24 is_stmt 0 view .LVU917
 3232 000c FFF7FEFF 		bl	Shell_GetInstence
 3233              	.LVL241:
 679:Task/Task_Protocol.c ****     uint16_t logout_size = 0;
 3234              		.loc 1 679 24 view .LVU918
 3235 0010 0646     		mov	r6, r0
 3236              	.LVL242:
 680:Task/Task_Protocol.c **** 
 3237              		.loc 1 680 5 is_stmt 1 view .LVU919
 682:Task/Task_Protocol.c **** 
 3238              		.loc 1 682 5 view .LVU920
 682:Task/Task_Protocol.c **** 
 3239              		.loc 1 682 23 is_stmt 0 view .LVU921
 3240 0012 314B     		ldr	r3, .L224+4
 3241 0014 5B68     		ldr	r3, [r3, #4]
 682:Task/Task_Protocol.c **** 
 3242              		.loc 1 682 13 view .LVU922
 3243 0016 3149     		ldr	r1, .L224+8
 3244 0018 2046     		mov	r0, r4
 3245              	.LVL243:
 682:Task/Task_Protocol.c **** 
 3246              		.loc 1 682 13 view .LVU923
 3247 001a 9847     		blx	r3
 3248              	.LVL244:
 684:Task/Task_Protocol.c ****     {
 3249              		.loc 1 684 5 is_stmt 1 view .LVU924
 3250 001c 431E     		subs	r3, r0, #1
ARM GAS  C:\Users\8bit\AppData\Local\Temp\cczcmggF.s 			page 89


 3251 001e 072B     		cmp	r3, #7
 3252 0020 27D8     		bhi	.L212
 3253 0022 DFE803F0 		tbb	[pc, r3]
 3254              	.L215:
 3255 0026 27       		.byte	(.L218-.L215)/2
 3256 0027 26       		.byte	(.L212-.L215)/2
 3257 0028 0E       		.byte	(.L217-.L215)/2
 3258 0029 26       		.byte	(.L212-.L215)/2
 3259 002a 3F       		.byte	(.L216-.L215)/2
 3260 002b 26       		.byte	(.L212-.L215)/2
 3261 002c 26       		.byte	(.L212-.L215)/2
 3262 002d 04       		.byte	(.L214-.L215)/2
 3263              		.p2align 1
 3264              	.L214:
 687:Task/Task_Protocol.c ****                 shellPrint(shell_obj, "\r\n");
 3265              		.loc 1 687 13 view .LVU925
 687:Task/Task_Protocol.c ****                 shellPrint(shell_obj, "\r\n");
 3266              		.loc 1 687 16 is_stmt 0 view .LVU926
 3267 002e 25B1     		cbz	r5, .L219
 687:Task/Task_Protocol.c ****                 shellPrint(shell_obj, "\r\n");
 3268              		.loc 1 687 21 discriminator 1 view .LVU927
 3269 0030 1EB1     		cbz	r6, .L219
 688:Task/Task_Protocol.c ****                 shellPrint(shell_obj, "[ Upgrade ] Communicate time out\r\n");
 3270              		.loc 1 688 17 is_stmt 1 view .LVU928
 3271 0032 2B49     		ldr	r1, .L224+12
 3272 0034 3046     		mov	r0, r6
 3273              	.LVL245:
 688:Task/Task_Protocol.c ****                 shellPrint(shell_obj, "[ Upgrade ] Communicate time out\r\n");
 3274              		.loc 1 688 17 is_stmt 0 view .LVU929
 3275 0036 FFF7FEFF 		bl	shellPrint
 3276              	.LVL246:
 3277              	.L219:
 689:Task/Task_Protocol.c ****         case Stage_Adapter_Error:
 3278              		.loc 1 689 17 is_stmt 1 view .LVU930
 3279 003a 2A49     		ldr	r1, .L224+16
 3280 003c 3046     		mov	r0, r6
 3281 003e FFF7FEFF 		bl	shellPrint
 3282              	.LVL247:
 3283              	.L217:
 691:Task/Task_Protocol.c ****                 shellPrint(shell_obj, "[ Upgrade ] Error\r\n");
 3284              		.loc 1 691 13 view .LVU931
 691:Task/Task_Protocol.c ****                 shellPrint(shell_obj, "[ Upgrade ] Error\r\n");
 3285              		.loc 1 691 16 is_stmt 0 view .LVU932
 3286 0042 25B1     		cbz	r5, .L220
 691:Task/Task_Protocol.c ****                 shellPrint(shell_obj, "[ Upgrade ] Error\r\n");
 3287              		.loc 1 691 21 discriminator 1 view .LVU933
 3288 0044 1EB1     		cbz	r6, .L220
 692:Task/Task_Protocol.c ****             
 3289              		.loc 1 692 17 is_stmt 1 view .LVU934
 3290 0046 2849     		ldr	r1, .L224+20
 3291 0048 3046     		mov	r0, r6
 3292 004a FFF7FEFF 		bl	shellPrint
 3293              	.LVL248:
 3294              	.L220:
 694:Task/Task_Protocol.c ****             memset(&Upgrade_Monitor.file_info, 0, sizeof(Upgrade_Monitor.file_info));
 3295              		.loc 1 694 13 view .LVU935
 694:Task/Task_Protocol.c ****             memset(&Upgrade_Monitor.file_info, 0, sizeof(Upgrade_Monitor.file_info));
ARM GAS  C:\Users\8bit\AppData\Local\Temp\cczcmggF.s 			page 90


 3296              		.loc 1 694 39 is_stmt 0 view .LVU936
 3297 004e 274A     		ldr	r2, .L224+24
 3298 0050 0024     		movs	r4, #0
 3299              	.LVL249:
 694:Task/Task_Protocol.c ****             memset(&Upgrade_Monitor.file_info, 0, sizeof(Upgrade_Monitor.file_info));
 3300              		.loc 1 694 39 view .LVU937
 3301 0052 1346     		mov	r3, r2
 3302 0054 03F8044B 		strb	r4, [r3], #4
 695:Task/Task_Protocol.c ****             Upgrade_Monitor.port_addr = 0;
 3303              		.loc 1 695 13 is_stmt 1 view .LVU938
 3304 0058 5460     		str	r4, [r2, #4]
 3305 005a 5C60     		str	r4, [r3, #4]
 3306 005c 9C60     		str	r4, [r3, #8]
 696:Task/Task_Protocol.c ****             SrvOsCommon.enter_critical();
 3307              		.loc 1 696 13 view .LVU939
 696:Task/Task_Protocol.c ****             SrvOsCommon.enter_critical();
 3308              		.loc 1 696 39 is_stmt 0 view .LVU940
 3309 005e 1461     		str	r4, [r2, #16]
 697:Task/Task_Protocol.c ****             SrvDataHub.set_upgrade_state(false);
 3310              		.loc 1 697 13 is_stmt 1 view .LVU941
 697:Task/Task_Protocol.c ****             SrvDataHub.set_upgrade_state(false);
 3311              		.loc 1 697 24 is_stmt 0 view .LVU942
 3312 0060 1C4D     		ldr	r5, .L224
 3313 0062 2B6B     		ldr	r3, [r5, #48]
 697:Task/Task_Protocol.c ****             SrvDataHub.set_upgrade_state(false);
 3314              		.loc 1 697 13 view .LVU943
 3315 0064 9847     		blx	r3
 3316              	.LVL250:
 698:Task/Task_Protocol.c ****             SrvOsCommon.exit_critical();
 3317              		.loc 1 698 13 is_stmt 1 view .LVU944
 698:Task/Task_Protocol.c ****             SrvOsCommon.exit_critical();
 3318              		.loc 1 698 23 is_stmt 0 view .LVU945
 3319 0066 224B     		ldr	r3, .L224+28
 3320 0068 DB68     		ldr	r3, [r3, #12]
 698:Task/Task_Protocol.c ****             SrvOsCommon.exit_critical();
 3321              		.loc 1 698 13 view .LVU946
 3322 006a 2046     		mov	r0, r4
 3323 006c 9847     		blx	r3
 3324              	.LVL251:
 699:Task/Task_Protocol.c ****             break;
 3325              		.loc 1 699 13 is_stmt 1 view .LVU947
 699:Task/Task_Protocol.c ****             break;
 3326              		.loc 1 699 24 is_stmt 0 view .LVU948
 3327 006e 6B6B     		ldr	r3, [r5, #52]
 699:Task/Task_Protocol.c ****             break;
 3328              		.loc 1 699 13 view .LVU949
 3329 0070 9847     		blx	r3
 3330              	.LVL252:
 700:Task/Task_Protocol.c **** 
 3331              		.loc 1 700 13 is_stmt 1 view .LVU950
 3332              	.L212:
 732:Task/Task_Protocol.c **** 
 3333              		.loc 1 732 1 is_stmt 0 view .LVU951
 3334 0072 70BD     		pop	{r4, r5, r6, pc}
 3335              	.LVL253:
 3336              	.L218:
 703:Task/Task_Protocol.c ****             {
ARM GAS  C:\Users\8bit\AppData\Local\Temp\cczcmggF.s 			page 91


 3337              		.loc 1 703 13 is_stmt 1 view .LVU952
 703:Task/Task_Protocol.c ****             {
 3338              		.loc 1 703 16 is_stmt 0 view .LVU953
 3339 0074 7DB1     		cbz	r5, .L221
 703:Task/Task_Protocol.c ****             {
 3340              		.loc 1 703 21 discriminator 1 view .LVU954
 3341 0076 76B1     		cbz	r6, .L221
 705:Task/Task_Protocol.c ****                 shellPrint(shell_obj, "[ Upgrade ] Firmware Updating\r\n");
 3342              		.loc 1 705 17 is_stmt 1 view .LVU955
 705:Task/Task_Protocol.c ****                 shellPrint(shell_obj, "[ Upgrade ] Firmware Updating\r\n");
 3343              		.loc 1 705 28 is_stmt 0 view .LVU956
 3344 0078 164C     		ldr	r4, .L224
 3345              	.LVL254:
 705:Task/Task_Protocol.c ****                 shellPrint(shell_obj, "[ Upgrade ] Firmware Updating\r\n");
 3346              		.loc 1 705 28 view .LVU957
 3347 007a 6368     		ldr	r3, [r4, #4]
 705:Task/Task_Protocol.c ****                 shellPrint(shell_obj, "[ Upgrade ] Firmware Updating\r\n");
 3348              		.loc 1 705 17 view .LVU958
 3349 007c 0A20     		movs	r0, #10
 3350              	.LVL255:
 705:Task/Task_Protocol.c ****                 shellPrint(shell_obj, "[ Upgrade ] Firmware Updating\r\n");
 3351              		.loc 1 705 17 view .LVU959
 3352 007e 9847     		blx	r3
 3353              	.LVL256:
 706:Task/Task_Protocol.c ****                 shellPrint(shell_obj, "[ Upgrade ] DO NOT POWER OFF\r\n");
 3354              		.loc 1 706 17 is_stmt 1 view .LVU960
 3355 0080 1C49     		ldr	r1, .L224+32
 3356 0082 3046     		mov	r0, r6
 3357 0084 FFF7FEFF 		bl	shellPrint
 3358              	.LVL257:
 707:Task/Task_Protocol.c ****                 SrvOsCommon.delay_ms(20);
 3359              		.loc 1 707 17 view .LVU961
 3360 0088 1B49     		ldr	r1, .L224+36
 3361 008a 3046     		mov	r0, r6
 3362 008c FFF7FEFF 		bl	shellPrint
 3363              	.LVL258:
 708:Task/Task_Protocol.c ****             }
 3364              		.loc 1 708 17 view .LVU962
 708:Task/Task_Protocol.c ****             }
 3365              		.loc 1 708 28 is_stmt 0 view .LVU963
 3366 0090 6368     		ldr	r3, [r4, #4]
 708:Task/Task_Protocol.c ****             }
 3367              		.loc 1 708 17 view .LVU964
 3368 0092 1420     		movs	r0, #20
 3369 0094 9847     		blx	r3
 3370              	.LVL259:
 3371              	.L221:
 711:Task/Task_Protocol.c ****             SrvOsCommon.reboot();
 3372              		.loc 1 711 13 is_stmt 1 view .LVU965
 711:Task/Task_Protocol.c ****             SrvOsCommon.reboot();
 3373              		.loc 1 711 39 is_stmt 0 view .LVU966
 3374 0096 154B     		ldr	r3, .L224+24
 3375 0098 0022     		movs	r2, #0
 3376 009a 1A70     		strb	r2, [r3]
 712:Task/Task_Protocol.c ****             break;
 3377              		.loc 1 712 13 is_stmt 1 view .LVU967
 712:Task/Task_Protocol.c ****             break;
ARM GAS  C:\Users\8bit\AppData\Local\Temp\cczcmggF.s 			page 92


 3378              		.loc 1 712 24 is_stmt 0 view .LVU968
 3379 009c 0D4B     		ldr	r3, .L224
 3380 009e 5B6C     		ldr	r3, [r3, #68]
 712:Task/Task_Protocol.c ****             break;
 3381              		.loc 1 712 13 view .LVU969
 3382 00a0 9847     		blx	r3
 3383              	.LVL260:
 713:Task/Task_Protocol.c **** 
 3384              		.loc 1 713 13 is_stmt 1 view .LVU970
 3385 00a2 E6E7     		b	.L212
 3386              	.LVL261:
 3387              	.L216:
 716:Task/Task_Protocol.c ****             if (logout_size)
 3388              		.loc 1 716 13 view .LVU971
 716:Task/Task_Protocol.c ****             if (logout_size)
 3389              		.loc 1 716 37 is_stmt 0 view .LVU972
 3390 00a4 0C4B     		ldr	r3, .L224+4
 3391 00a6 DB68     		ldr	r3, [r3, #12]
 716:Task/Task_Protocol.c ****             if (logout_size)
 3392              		.loc 1 716 27 view .LVU973
 3393 00a8 4FF40071 		mov	r1, #512
 3394 00ac 1348     		ldr	r0, .L224+40
 3395              	.LVL262:
 716:Task/Task_Protocol.c ****             if (logout_size)
 3396              		.loc 1 716 27 view .LVU974
 3397 00ae 9847     		blx	r3
 3398              	.LVL263:
 717:Task/Task_Protocol.c ****             {
 3399              		.loc 1 717 13 is_stmt 1 view .LVU975
 717:Task/Task_Protocol.c ****             {
 3400              		.loc 1 717 16 is_stmt 0 view .LVU976
 3401 00b0 0028     		cmp	r0, #0
 3402 00b2 DED0     		beq	.L212
 719:Task/Task_Protocol.c ****                 {
 3403              		.loc 1 719 17 is_stmt 1 view .LVU977
 719:Task/Task_Protocol.c ****                 {
 3404              		.loc 1 719 20 is_stmt 0 view .LVU978
 3405 00b4 4DB1     		cbz	r5, .L222
 719:Task/Task_Protocol.c ****                 {
 3406              		.loc 1 719 25 discriminator 1 view .LVU979
 3407 00b6 46B1     		cbz	r6, .L222
 721:Task/Task_Protocol.c ****                     shellPrint(shell_obj, "[ Upgrade Info ] %s", CLIPrintBuf);
 3408              		.loc 1 721 21 is_stmt 1 view .LVU980
 721:Task/Task_Protocol.c ****                     shellPrint(shell_obj, "[ Upgrade Info ] %s", CLIPrintBuf);
 3409              		.loc 1 721 32 is_stmt 0 view .LVU981
 3410 00b8 064B     		ldr	r3, .L224
 3411 00ba 5B68     		ldr	r3, [r3, #4]
 721:Task/Task_Protocol.c ****                     shellPrint(shell_obj, "[ Upgrade Info ] %s", CLIPrintBuf);
 3412              		.loc 1 721 21 view .LVU982
 3413 00bc 0A20     		movs	r0, #10
 3414              	.LVL264:
 721:Task/Task_Protocol.c ****                     shellPrint(shell_obj, "[ Upgrade Info ] %s", CLIPrintBuf);
 3415              		.loc 1 721 21 view .LVU983
 3416 00be 9847     		blx	r3
 3417              	.LVL265:
 722:Task/Task_Protocol.c ****                 }
 3418              		.loc 1 722 21 is_stmt 1 view .LVU984
ARM GAS  C:\Users\8bit\AppData\Local\Temp\cczcmggF.s 			page 93


 3419 00c0 0E4A     		ldr	r2, .L224+40
 3420 00c2 0F49     		ldr	r1, .L224+44
 3421 00c4 3046     		mov	r0, r6
 3422 00c6 FFF7FEFF 		bl	shellPrint
 3423              	.LVL266:
 3424              	.L222:
 725:Task/Task_Protocol.c ****             }
 3425              		.loc 1 725 17 view .LVU985
 725:Task/Task_Protocol.c ****             }
 3426              		.loc 1 725 27 is_stmt 0 view .LVU986
 3427 00ca 034B     		ldr	r3, .L224+4
 3428 00cc 1B69     		ldr	r3, [r3, #16]
 725:Task/Task_Protocol.c ****             }
 3429              		.loc 1 725 17 view .LVU987
 3430 00ce 9847     		blx	r3
 3431              	.LVL267:
 732:Task/Task_Protocol.c **** 
 3432              		.loc 1 732 1 view .LVU988
 3433 00d0 CFE7     		b	.L212
 3434              	.L225:
 3435 00d2 00BF     		.align	2
 3436              	.L224:
 3437 00d4 00000000 		.word	SrvOsCommon
 3438 00d8 00000000 		.word	SrvUpgrade
 3439 00dc 00000000 		.word	TaskFrameCTL_Upgrade_Send
 3440 00e0 00000000 		.word	.LC0
 3441 00e4 04000000 		.word	.LC1
 3442 00e8 28000000 		.word	.LC2
 3443 00ec 00000000 		.word	.LANCHOR1
 3444 00f0 00000000 		.word	SrvDataHub
 3445 00f4 3C000000 		.word	.LC3
 3446 00f8 5C000000 		.word	.LC4
 3447 00fc 00000000 		.word	.LANCHOR29
 3448 0100 7C000000 		.word	.LC5
 3449              		.cfi_endproc
 3450              	.LFE2083:
 3452              		.section	.rodata.TaskFermeCTL_CLI_DisableControl.str1.4,"aMS",%progbits,1
 3453              		.align	2
 3454              	.LC6:
 3455 0000 0D0A0D0A 		.ascii	"\015\012\015\012\000"
 3455      00
 3456 0005 000000   		.align	2
 3457              	.LC7:
 3458 0008 5B20434C 		.ascii	"[ CLI Disabled ]\015\012\000"
 3458      49204469 
 3458      7361626C 
 3458      6564205D 
 3458      0D0A00
 3459              		.section	.text.TaskFermeCTL_CLI_DisableControl,"ax",%progbits
 3460              		.align	1
 3461              		.syntax unified
 3462              		.thumb
 3463              		.thumb_func
 3465              	TaskFermeCTL_CLI_DisableControl:
 3466              	.LFB2098:
1072:Task/Task_Protocol.c **** 
1073:Task/Task_Protocol.c **** static void TaskFermeCTL_CLI_DisableControl(void)
ARM GAS  C:\Users\8bit\AppData\Local\Temp\cczcmggF.s 			page 94


1074:Task/Task_Protocol.c **** {
 3467              		.loc 1 1074 1 is_stmt 1 view -0
 3468              		.cfi_startproc
 3469              		@ args = 0, pretend = 0, frame = 0
 3470              		@ frame_needed = 0, uses_anonymous_args = 0
 3471 0000 38B5     		push	{r3, r4, r5, lr}
 3472              	.LCFI61:
 3473              		.cfi_def_cfa_offset 16
 3474              		.cfi_offset 3, -16
 3475              		.cfi_offset 4, -12
 3476              		.cfi_offset 5, -8
 3477              		.cfi_offset 14, -4
1075:Task/Task_Protocol.c ****     Shell *shell_obj = Shell_GetInstence();
 3478              		.loc 1 1075 5 view .LVU990
 3479              		.loc 1 1075 24 is_stmt 0 view .LVU991
 3480 0002 FFF7FEFF 		bl	Shell_GetInstence
 3481              	.LVL268:
1076:Task/Task_Protocol.c ****     
1077:Task/Task_Protocol.c ****     if (shell_obj)
 3482              		.loc 1 1077 5 is_stmt 1 view .LVU992
 3483              		.loc 1 1077 8 is_stmt 0 view .LVU993
 3484 0006 98B1     		cbz	r0, .L226
 3485 0008 0446     		mov	r4, r0
1078:Task/Task_Protocol.c ****     {
1079:Task/Task_Protocol.c ****         shellPrint(shell_obj, "\r\n\r\n");
 3486              		.loc 1 1079 9 is_stmt 1 view .LVU994
 3487 000a 0A49     		ldr	r1, .L229
 3488 000c FFF7FEFF 		bl	shellPrint
 3489              	.LVL269:
1080:Task/Task_Protocol.c ****         
1081:Task/Task_Protocol.c ****         SrvOsCommon.enter_critical();
 3490              		.loc 1 1081 9 view .LVU995
 3491              		.loc 1 1081 20 is_stmt 0 view .LVU996
 3492 0010 094D     		ldr	r5, .L229+4
 3493 0012 2B6B     		ldr	r3, [r5, #48]
 3494              		.loc 1 1081 9 view .LVU997
 3495 0014 9847     		blx	r3
 3496              	.LVL270:
1082:Task/Task_Protocol.c ****         SrvDataHub.set_cli_state(false);
 3497              		.loc 1 1082 9 is_stmt 1 view .LVU998
 3498              		.loc 1 1082 19 is_stmt 0 view .LVU999
 3499 0016 094B     		ldr	r3, .L229+8
 3500 0018 9B68     		ldr	r3, [r3, #8]
 3501              		.loc 1 1082 9 view .LVU1000
 3502 001a 0020     		movs	r0, #0
 3503 001c 9847     		blx	r3
 3504              	.LVL271:
1083:Task/Task_Protocol.c ****         SrvOsCommon.exit_critical();
 3505              		.loc 1 1083 9 is_stmt 1 view .LVU1001
 3506              		.loc 1 1083 20 is_stmt 0 view .LVU1002
 3507 001e 6B6B     		ldr	r3, [r5, #52]
 3508              		.loc 1 1083 9 view .LVU1003
 3509 0020 9847     		blx	r3
 3510              	.LVL272:
1084:Task/Task_Protocol.c **** 
1085:Task/Task_Protocol.c ****         shellPrint(shell_obj, "[ CLI Disabled ]\r\n");
 3511              		.loc 1 1085 9 is_stmt 1 view .LVU1004
ARM GAS  C:\Users\8bit\AppData\Local\Temp\cczcmggF.s 			page 95


 3512 0022 0749     		ldr	r1, .L229+12
 3513 0024 2046     		mov	r0, r4
 3514 0026 FFF7FEFF 		bl	shellPrint
 3515              	.LVL273:
1086:Task/Task_Protocol.c ****         CLI_Monitor.port_addr = 0;
 3516              		.loc 1 1086 9 view .LVU1005
 3517              		.loc 1 1086 31 is_stmt 0 view .LVU1006
 3518 002a 064B     		ldr	r3, .L229+16
 3519 002c 0022     		movs	r2, #0
 3520 002e 5A60     		str	r2, [r3, #4]
 3521              	.LVL274:
 3522              	.L226:
1087:Task/Task_Protocol.c ****     }
1088:Task/Task_Protocol.c **** }
 3523              		.loc 1 1088 1 view .LVU1007
 3524 0030 38BD     		pop	{r3, r4, r5, pc}
 3525              	.L230:
 3526 0032 00BF     		.align	2
 3527              	.L229:
 3528 0034 00000000 		.word	.LC6
 3529 0038 00000000 		.word	SrvOsCommon
 3530 003c 00000000 		.word	SrvDataHub
 3531 0040 08000000 		.word	.LC7
 3532 0044 00000000 		.word	.LANCHOR22
 3533              		.cfi_endproc
 3534              	.LFE2098:
 3536              		.section	.rodata.TaskFrameCTL_FileAccept_Enable.str1.4,"aMS",%progbits,1
 3537              		.align	2
 3538              	.LC8:
 3539 0000 5B204669 		.ascii	"[ File Adapter Enable ]\015\012\000"
 3539      6C652041 
 3539      64617074 
 3539      65722045 
 3539      6E61626C 
 3540 001a 0000     		.align	2
 3541              	.LC9:
 3542 001c 5B204669 		.ascii	"[ File Type List Down Below ]\015\012\000"
 3542      6C652054 
 3542      79706520 
 3542      4C697374 
 3542      20446F77 
 3543              		.align	2
 3544              	.LC10:
 3545 003c 0931202D 		.ascii	"\0111 ---- App    Firmware File\015\012\000"
 3545      2D2D2D20 
 3545      41707020 
 3545      20202046 
 3545      69726D77 
 3546 005b 00       		.align	2
 3547              	.LC11:
 3548 005c 0932202D 		.ascii	"\0112 ---- Boot   Firmware File\015\012\000"
 3548      2D2D2D20 
 3548      426F6F74 
 3548      20202046 
 3548      69726D77 
 3549 007b 00       		.align	2
 3550              	.LC12:
ARM GAS  C:\Users\8bit\AppData\Local\Temp\cczcmggF.s 			page 96


 3551 007c 5B205761 		.ascii	"[ Waitting App Firmware ]\015\012\000"
 3551      69747469 
 3551      6E672041 
 3551      70702046 
 3551      69726D77 
 3552              		.align	2
 3553              	.LC13:
 3554 0098 5B205761 		.ascii	"[ Waitting Boot Firmware ]\015\012\000"
 3554      69747469 
 3554      6E672042 
 3554      6F6F7420 
 3554      4669726D 
 3555 00b5 000000   		.align	2
 3556              	.LC14:
 3557 00b8 556E6B6E 		.ascii	"Unknown File Type\015\012\000"
 3557      6F776E20 
 3557      46696C65 
 3557      20547970 
 3557      650D0A00 
 3558              		.align	2
 3559              	.LC15:
 3560 00cc 44697361 		.ascii	"Disable File Adapter\015\012\000"
 3560      626C6520 
 3560      46696C65 
 3560      20416461 
 3560      70746572 
 3561 00e3 00       		.align	2
 3562              	.LC16:
 3563 00e4 5B20594D 		.ascii	"[ YMODEM Enable ]\015\012\000"
 3563      4F44454D 
 3563      20456E61 
 3563      626C6520 
 3563      5D0D0A00 
 3564              		.align	2
 3565              	.LC17:
 3566 00f8 4661696C 		.ascii	"Failed to enable upgrade mode\015\012\000"
 3566      65642074 
 3566      6F20656E 
 3566      61626C65 
 3566      20757067 
 3567              		.section	.text.TaskFrameCTL_FileAccept_Enable,"ax",%progbits
 3568              		.align	1
 3569              		.syntax unified
 3570              		.thumb
 3571              		.thumb_func
 3573              	TaskFrameCTL_FileAccept_Enable:
 3574              	.LVL275:
 3575              	.LFB2099:
1089:Task/Task_Protocol.c **** SHELL_EXPORT_CMD(SHELL_CMD_PERMISSION(0) | SHELL_CMD_TYPE(SHELL_TYPE_CMD_FUNC) | SHELL_CMD_DISABLE_
1090:Task/Task_Protocol.c **** 
1091:Task/Task_Protocol.c **** static void TaskFrameCTL_FileAccept_Enable(uint8_t type)
1092:Task/Task_Protocol.c **** {
 3576              		.loc 1 1092 1 is_stmt 1 view -0
 3577              		.cfi_startproc
 3578              		@ args = 0, pretend = 0, frame = 16
 3579              		@ frame_needed = 0, uses_anonymous_args = 0
 3580              		.loc 1 1092 1 is_stmt 0 view .LVU1009
ARM GAS  C:\Users\8bit\AppData\Local\Temp\cczcmggF.s 			page 97


 3581 0000 30B5     		push	{r4, r5, lr}
 3582              	.LCFI62:
 3583              		.cfi_def_cfa_offset 12
 3584              		.cfi_offset 4, -12
 3585              		.cfi_offset 5, -8
 3586              		.cfi_offset 14, -4
 3587 0002 87B0     		sub	sp, sp, #28
 3588              	.LCFI63:
 3589              		.cfi_def_cfa_offset 40
 3590 0004 0546     		mov	r5, r0
1093:Task/Task_Protocol.c ****     Shell *shell_obj = Shell_GetInstence();
 3591              		.loc 1 1093 5 is_stmt 1 view .LVU1010
 3592              		.loc 1 1093 24 is_stmt 0 view .LVU1011
 3593 0006 FFF7FEFF 		bl	Shell_GetInstence
 3594              	.LVL276:
1094:Task/Task_Protocol.c ****     FileInfo_TypeDef Info_tmp;
 3595              		.loc 1 1094 5 is_stmt 1 view .LVU1012
1095:Task/Task_Protocol.c **** 
1096:Task/Task_Protocol.c ****     memset(&Info_tmp, 0, sizeof(FileInfo_TypeDef));
 3596              		.loc 1 1096 5 view .LVU1013
 3597 000a 0023     		movs	r3, #0
 3598 000c 0393     		str	r3, [sp, #12]
 3599 000e 0493     		str	r3, [sp, #16]
 3600 0010 0593     		str	r3, [sp, #20]
1097:Task/Task_Protocol.c ****     if (shell_obj)
 3601              		.loc 1 1097 5 view .LVU1014
 3602              		.loc 1 1097 8 is_stmt 0 view .LVU1015
 3603 0012 0028     		cmp	r0, #0
 3604 0014 58D0     		beq	.L231
 3605 0016 0446     		mov	r4, r0
1098:Task/Task_Protocol.c ****     {
1099:Task/Task_Protocol.c ****         shellPrint(shell_obj, "\r\n\r\n");
 3606              		.loc 1 1099 9 is_stmt 1 view .LVU1016
 3607 0018 3149     		ldr	r1, .L242
 3608 001a FFF7FEFF 		bl	shellPrint
 3609              	.LVL277:
1100:Task/Task_Protocol.c ****         shellPrint(shell_obj, "[ File Adapter Enable ]\r\n");
 3610              		.loc 1 1100 9 view .LVU1017
 3611 001e 3149     		ldr	r1, .L242+4
 3612 0020 2046     		mov	r0, r4
 3613 0022 FFF7FEFF 		bl	shellPrint
 3614              	.LVL278:
1101:Task/Task_Protocol.c ****         shellPrint(shell_obj, "[ File Type List Down Below ]\r\n");
 3615              		.loc 1 1101 9 view .LVU1018
 3616 0026 3049     		ldr	r1, .L242+8
 3617 0028 2046     		mov	r0, r4
 3618 002a FFF7FEFF 		bl	shellPrint
 3619              	.LVL279:
1102:Task/Task_Protocol.c ****         shellPrint(shell_obj, "\t1 ---- App    Firmware File\r\n");
 3620              		.loc 1 1102 9 view .LVU1019
 3621 002e 2F49     		ldr	r1, .L242+12
 3622 0030 2046     		mov	r0, r4
 3623 0032 FFF7FEFF 		bl	shellPrint
 3624              	.LVL280:
1103:Task/Task_Protocol.c ****         shellPrint(shell_obj, "\t2 ---- Boot   Firmware File\r\n");
 3625              		.loc 1 1103 9 view .LVU1020
 3626 0036 2E49     		ldr	r1, .L242+16
ARM GAS  C:\Users\8bit\AppData\Local\Temp\cczcmggF.s 			page 98


 3627 0038 2046     		mov	r0, r4
 3628 003a FFF7FEFF 		bl	shellPrint
 3629              	.LVL281:
1104:Task/Task_Protocol.c ****         shellPrint(shell_obj, "\r\n");
 3630              		.loc 1 1104 9 view .LVU1021
 3631 003e 2D49     		ldr	r1, .L242+20
 3632 0040 2046     		mov	r0, r4
 3633 0042 FFF7FEFF 		bl	shellPrint
 3634              	.LVL282:
1105:Task/Task_Protocol.c ****     
1106:Task/Task_Protocol.c ****         switch (type)
 3635              		.loc 1 1106 9 view .LVU1022
 3636 0046 012D     		cmp	r5, #1
 3637 0048 0AD0     		beq	.L233
 3638 004a 022D     		cmp	r5, #2
 3639 004c 3ED0     		beq	.L234
1107:Task/Task_Protocol.c ****         {
1108:Task/Task_Protocol.c ****             case FileType_APP:
1109:Task/Task_Protocol.c ****                 shellPrint(shell_obj, "[ Waitting App Firmware ]\r\n");
1110:Task/Task_Protocol.c ****                 break;
1111:Task/Task_Protocol.c **** 
1112:Task/Task_Protocol.c ****             case FileType_Boot:
1113:Task/Task_Protocol.c ****                 shellPrint(shell_obj, "[ Waitting Boot Firmware ]\r\n");
1114:Task/Task_Protocol.c ****                 break;
1115:Task/Task_Protocol.c **** 
1116:Task/Task_Protocol.c ****             default:
1117:Task/Task_Protocol.c ****                 shellPrint(shell_obj, "Unknown File Type\r\n");
 3640              		.loc 1 1117 17 view .LVU1023
 3641 004e 2A49     		ldr	r1, .L242+24
 3642 0050 2046     		mov	r0, r4
 3643 0052 FFF7FEFF 		bl	shellPrint
 3644              	.LVL283:
1118:Task/Task_Protocol.c ****                 shellPrint(shell_obj, "Disable File Adapter\r\n");
 3645              		.loc 1 1118 17 view .LVU1024
 3646 0056 2949     		ldr	r1, .L242+28
 3647 0058 2046     		mov	r0, r4
 3648 005a FFF7FEFF 		bl	shellPrint
 3649              	.LVL284:
1119:Task/Task_Protocol.c ****                 return;
 3650              		.loc 1 1119 17 view .LVU1025
 3651 005e 33E0     		b	.L231
 3652              	.L233:
1109:Task/Task_Protocol.c ****                 break;
 3653              		.loc 1 1109 17 view .LVU1026
 3654 0060 2749     		ldr	r1, .L242+32
 3655 0062 2046     		mov	r0, r4
 3656 0064 FFF7FEFF 		bl	shellPrint
 3657              	.LVL285:
1110:Task/Task_Protocol.c **** 
 3658              		.loc 1 1110 17 view .LVU1027
 3659              	.L236:
1120:Task/Task_Protocol.c ****         }
1121:Task/Task_Protocol.c ****         
1122:Task/Task_Protocol.c ****         shellPrint(shell_obj, "[ YMODEM Enable ]\r\n");
 3660              		.loc 1 1122 9 view .LVU1028
 3661 0068 2649     		ldr	r1, .L242+36
 3662 006a 2046     		mov	r0, r4
ARM GAS  C:\Users\8bit\AppData\Local\Temp\cczcmggF.s 			page 99


 3663 006c FFF7FEFF 		bl	shellPrint
 3664              	.LVL286:
1123:Task/Task_Protocol.c **** 
1124:Task/Task_Protocol.c ****         Info_tmp.File_Type = type;
 3665              		.loc 1 1124 9 view .LVU1029
 3666              		.loc 1 1124 28 is_stmt 0 view .LVU1030
 3667 0070 8DF80C50 		strb	r5, [sp, #12]
1125:Task/Task_Protocol.c ****         Info_tmp.Adapter_Type = SrvFileAdapter_Frame_YModem;
 3668              		.loc 1 1125 9 is_stmt 1 view .LVU1031
 3669              		.loc 1 1125 31 is_stmt 0 view .LVU1032
 3670 0074 0120     		movs	r0, #1
 3671 0076 8DF80D00 		strb	r0, [sp, #13]
1126:Task/Task_Protocol.c ****         Info_tmp.SW_Ver[0] = AppVer[0];
 3672              		.loc 1 1126 9 is_stmt 1 view .LVU1033
 3673              		.loc 1 1126 36 is_stmt 0 view .LVU1034
 3674 007a 234B     		ldr	r3, .L242+40
 3675 007c 1A78     		ldrb	r2, [r3]	@ zero_extendqisi2
 3676              		.loc 1 1126 28 view .LVU1035
 3677 007e 8DF80E20 		strb	r2, [sp, #14]
1127:Task/Task_Protocol.c ****         Info_tmp.SW_Ver[1] = AppVer[1];
 3678              		.loc 1 1127 9 is_stmt 1 view .LVU1036
 3679              		.loc 1 1127 36 is_stmt 0 view .LVU1037
 3680 0082 5A78     		ldrb	r2, [r3, #1]	@ zero_extendqisi2
 3681              		.loc 1 1127 28 view .LVU1038
 3682 0084 8DF80F20 		strb	r2, [sp, #15]
1128:Task/Task_Protocol.c ****         Info_tmp.SW_Ver[2] = AppVer[2];
 3683              		.loc 1 1128 9 is_stmt 1 view .LVU1039
 3684              		.loc 1 1128 36 is_stmt 0 view .LVU1040
 3685 0088 9B78     		ldrb	r3, [r3, #2]	@ zero_extendqisi2
 3686              		.loc 1 1128 28 view .LVU1041
 3687 008a 8DF81030 		strb	r3, [sp, #16]
1129:Task/Task_Protocol.c ****         Info_tmp.HW_Ver[0] = HWVer[0];
 3688              		.loc 1 1129 9 is_stmt 1 view .LVU1042
 3689              		.loc 1 1129 35 is_stmt 0 view .LVU1043
 3690 008e 1F4B     		ldr	r3, .L242+44
 3691 0090 1A78     		ldrb	r2, [r3]	@ zero_extendqisi2
 3692              		.loc 1 1129 28 view .LVU1044
 3693 0092 8DF81120 		strb	r2, [sp, #17]
1130:Task/Task_Protocol.c ****         Info_tmp.HW_Ver[1] = HWVer[1];
 3694              		.loc 1 1130 9 is_stmt 1 view .LVU1045
 3695              		.loc 1 1130 35 is_stmt 0 view .LVU1046
 3696 0096 5A78     		ldrb	r2, [r3, #1]	@ zero_extendqisi2
 3697              		.loc 1 1130 28 view .LVU1047
 3698 0098 8DF81220 		strb	r2, [sp, #18]
1131:Task/Task_Protocol.c ****         Info_tmp.HW_Ver[2] = HWVer[2];
 3699              		.loc 1 1131 9 is_stmt 1 view .LVU1048
 3700              		.loc 1 1131 35 is_stmt 0 view .LVU1049
 3701 009c 9B78     		ldrb	r3, [r3, #2]	@ zero_extendqisi2
 3702              		.loc 1 1131 28 view .LVU1050
 3703 009e 8DF81330 		strb	r3, [sp, #19]
1132:Task/Task_Protocol.c ****         Info_tmp.File_Size = 0;
 3704              		.loc 1 1132 9 is_stmt 1 view .LVU1051
 3705              		.loc 1 1132 28 is_stmt 0 view .LVU1052
 3706 00a2 0023     		movs	r3, #0
 3707 00a4 0593     		str	r3, [sp, #20]
1133:Task/Task_Protocol.c **** 
1134:Task/Task_Protocol.c ****         if (!TaskFrameCTL_Upgrade_Enable(true, Info_tmp, CLI_Monitor.port_addr, CLI_Monitor.type))
ARM GAS  C:\Users\8bit\AppData\Local\Temp\cczcmggF.s 			page 100


 3708              		.loc 1 1134 9 is_stmt 1 view .LVU1053
 3709              		.loc 1 1134 92 is_stmt 0 view .LVU1054
 3710 00a6 1A4B     		ldr	r3, .L242+48
 3711 00a8 1A78     		ldrb	r2, [r3]	@ zero_extendqisi2
 3712              		.loc 1 1134 14 view .LVU1055
 3713 00aa 0192     		str	r2, [sp, #4]
 3714 00ac 5B68     		ldr	r3, [r3, #4]
 3715 00ae 0093     		str	r3, [sp]
 3716 00b0 06AB     		add	r3, sp, #24
 3717 00b2 13E90E00 		ldmdb	r3, {r1, r2, r3}
 3718 00b6 FFF7FEFF 		bl	TaskFrameCTL_Upgrade_Enable
 3719              	.LVL287:
 3720              		.loc 1 1134 12 view .LVU1056
 3721 00ba 60B1     		cbz	r0, .L241
 3722              	.L238:
1135:Task/Task_Protocol.c ****             /* failed to switch to upgrade mode */
1136:Task/Task_Protocol.c ****             shellPrint(shell_obj, "Failed to enable upgrade mode\r\n");
1137:Task/Task_Protocol.c **** 
1138:Task/Task_Protocol.c ****         SrvUpgrade.set_fileinfo(Upgrade_Monitor.file_info);
 3723              		.loc 1 1138 9 is_stmt 1 view .LVU1057
 3724              		.loc 1 1138 19 is_stmt 0 view .LVU1058
 3725 00bc 154B     		ldr	r3, .L242+52
 3726 00be 9C68     		ldr	r4, [r3, #8]
 3727              	.LVL288:
 3728              		.loc 1 1138 9 view .LVU1059
 3729 00c0 154B     		ldr	r3, .L242+56
 3730 00c2 93E80700 		ldm	r3, {r0, r1, r2}
 3731 00c6 A047     		blx	r4
 3732              	.LVL289:
 3733              	.L231:
1139:Task/Task_Protocol.c ****     }
1140:Task/Task_Protocol.c **** }
 3734              		.loc 1 1140 1 view .LVU1060
 3735 00c8 07B0     		add	sp, sp, #28
 3736              	.LCFI64:
 3737              		.cfi_remember_state
 3738              		.cfi_def_cfa_offset 12
 3739              		@ sp needed
 3740 00ca 30BD     		pop	{r4, r5, pc}
 3741              	.LVL290:
 3742              	.L234:
 3743              	.LCFI65:
 3744              		.cfi_restore_state
1113:Task/Task_Protocol.c ****                 break;
 3745              		.loc 1 1113 17 is_stmt 1 view .LVU1061
 3746 00cc 1349     		ldr	r1, .L242+60
 3747 00ce 2046     		mov	r0, r4
 3748 00d0 FFF7FEFF 		bl	shellPrint
 3749              	.LVL291:
1114:Task/Task_Protocol.c **** 
 3750              		.loc 1 1114 17 view .LVU1062
 3751 00d4 C8E7     		b	.L236
 3752              	.L241:
1136:Task/Task_Protocol.c **** 
 3753              		.loc 1 1136 13 view .LVU1063
 3754 00d6 1249     		ldr	r1, .L242+64
 3755 00d8 2046     		mov	r0, r4
ARM GAS  C:\Users\8bit\AppData\Local\Temp\cczcmggF.s 			page 101


 3756 00da FFF7FEFF 		bl	shellPrint
 3757              	.LVL292:
 3758 00de EDE7     		b	.L238
 3759              	.L243:
 3760              		.align	2
 3761              	.L242:
 3762 00e0 00000000 		.word	.LC6
 3763 00e4 00000000 		.word	.LC8
 3764 00e8 1C000000 		.word	.LC9
 3765 00ec 3C000000 		.word	.LC10
 3766 00f0 5C000000 		.word	.LC11
 3767 00f4 00000000 		.word	.LC0
 3768 00f8 B8000000 		.word	.LC14
 3769 00fc CC000000 		.word	.LC15
 3770 0100 7C000000 		.word	.LC12
 3771 0104 E4000000 		.word	.LC16
 3772 0108 00000000 		.word	AppVer
 3773 010c 00000000 		.word	HWVer
 3774 0110 00000000 		.word	.LANCHOR22
 3775 0114 00000000 		.word	SrvUpgrade
 3776 0118 04000000 		.word	.LANCHOR1+4
 3777 011c 98000000 		.word	.LC13
 3778 0120 F8000000 		.word	.LC17
 3779              		.cfi_endproc
 3780              	.LFE2099:
 3782              		.section	.text.TaskFrameCTL_Init,"ax",%progbits
 3783              		.align	1
 3784              		.global	TaskFrameCTL_Init
 3785              		.syntax unified
 3786              		.thumb
 3787              		.thumb_func
 3789              	TaskFrameCTL_Init:
 3790              	.LVL293:
 3791              	.LFB2071:
 178:Task/Task_Protocol.c ****     FrameCTL_Period = FrameCTL_MAX_Period;
 3792              		.loc 1 178 1 view -0
 3793              		.cfi_startproc
 3794              		@ args = 0, pretend = 0, frame = 0
 3795              		@ frame_needed = 0, uses_anonymous_args = 0
 178:Task/Task_Protocol.c ****     FrameCTL_Period = FrameCTL_MAX_Period;
 3796              		.loc 1 178 1 is_stmt 0 view .LVU1065
 3797 0000 70B5     		push	{r4, r5, r6, lr}
 3798              	.LCFI66:
 3799              		.cfi_def_cfa_offset 16
 3800              		.cfi_offset 4, -16
 3801              		.cfi_offset 5, -12
 3802              		.cfi_offset 6, -8
 3803              		.cfi_offset 14, -4
 3804 0002 0546     		mov	r5, r0
 179:Task/Task_Protocol.c **** 
 3805              		.loc 1 179 5 is_stmt 1 view .LVU1066
 179:Task/Task_Protocol.c **** 
 3806              		.loc 1 179 21 is_stmt 0 view .LVU1067
 3807 0004 274B     		ldr	r3, .L247
 3808 0006 0522     		movs	r2, #5
 3809 0008 1A60     		str	r2, [r3]
 182:Task/Task_Protocol.c ****     memset(&DefaultPort_MavMsgInput_Obj, 0, sizeof(SrvComProto_MsgObj_TypeDef));
ARM GAS  C:\Users\8bit\AppData\Local\Temp\cczcmggF.s 			page 102


 3810              		.loc 1 182 5 is_stmt 1 view .LVU1068
 3811 000a 274C     		ldr	r4, .L247+4
 3812 000c 3C22     		movs	r2, #60
 3813 000e 0021     		movs	r1, #0
 3814 0010 2046     		mov	r0, r4
 3815              	.LVL294:
 182:Task/Task_Protocol.c ****     memset(&DefaultPort_MavMsgInput_Obj, 0, sizeof(SrvComProto_MsgObj_TypeDef));
 3816              		.loc 1 182 5 is_stmt 0 view .LVU1069
 3817 0012 FFF7FEFF 		bl	memset
 3818              	.LVL295:
 183:Task/Task_Protocol.c ****     memset(&RadioPort_MavMsgInput_Obj, 0, sizeof(SrvComProto_MsgObj_TypeDef));
 3819              		.loc 1 183 5 is_stmt 1 view .LVU1070
 3820 0016 9026     		movs	r6, #144
 3821 0018 3246     		mov	r2, r6
 3822 001a 0021     		movs	r1, #0
 3823 001c 2348     		ldr	r0, .L247+8
 3824 001e FFF7FEFF 		bl	memset
 3825              	.LVL296:
 184:Task/Task_Protocol.c **** 
 3826              		.loc 1 184 5 view .LVU1071
 3827 0022 3246     		mov	r2, r6
 3828 0024 0021     		movs	r1, #0
 3829 0026 2248     		ldr	r0, .L247+12
 3830 0028 FFF7FEFF 		bl	memset
 3831              	.LVL297:
 187:Task/Task_Protocol.c **** 
 3832              		.loc 1 187 5 view .LVU1072
 3833 002c B022     		movs	r2, #176
 3834 002e 0021     		movs	r1, #0
 3835 0030 2048     		ldr	r0, .L247+16
 3836 0032 FFF7FEFF 		bl	memset
 3837              	.LVL298:
 189:Task/Task_Protocol.c ****     TaskFrameCTL_RadioPort_Init(&PortMonitor);
 3838              		.loc 1 189 5 view .LVU1073
 3839 0036 2046     		mov	r0, r4
 3840 0038 FFF7FEFF 		bl	TaskFrameCTL_DefaultPort_Init
 3841              	.LVL299:
 190:Task/Task_Protocol.c ****     Radio_Addr = TaskFrameCTL_Set_RadioPort(Port_Uart, 0);
 3842              		.loc 1 190 5 view .LVU1074
 3843 003c 2046     		mov	r0, r4
 3844 003e FFF7FEFF 		bl	TaskFrameCTL_RadioPort_Init
 3845              	.LVL300:
 191:Task/Task_Protocol.c **** 
 3846              		.loc 1 191 5 view .LVU1075
 191:Task/Task_Protocol.c **** 
 3847              		.loc 1 191 18 is_stmt 0 view .LVU1076
 3848 0042 0021     		movs	r1, #0
 3849 0044 0220     		movs	r0, #2
 3850 0046 FFF7FEFF 		bl	TaskFrameCTL_Set_RadioPort
 3851              	.LVL301:
 191:Task/Task_Protocol.c **** 
 3852              		.loc 1 191 16 view .LVU1077
 3853 004a 1B4B     		ldr	r3, .L247+20
 3854 004c 1860     		str	r0, [r3]
 193:Task/Task_Protocol.c ****     
 3855              		.loc 1 193 5 is_stmt 1 view .LVU1078
 193:Task/Task_Protocol.c ****     
ARM GAS  C:\Users\8bit\AppData\Local\Temp\cczcmggF.s 			page 103


 3856              		.loc 1 193 22 is_stmt 0 view .LVU1079
 3857 004e 0123     		movs	r3, #1
 3858 0050 2370     		strb	r3, [r4]
 196:Task/Task_Protocol.c **** 
 3859              		.loc 1 196 5 is_stmt 1 view .LVU1080
 196:Task/Task_Protocol.c **** 
 3860              		.loc 1 196 32 is_stmt 0 view .LVU1081
 3861 0052 FFF7FEFF 		bl	TaskFrameCTL_MAV_Msg_Init
 3862              	.LVL302:
 196:Task/Task_Protocol.c **** 
 3863              		.loc 1 196 30 view .LVU1082
 3864 0056 194B     		ldr	r3, .L247+24
 3865 0058 1870     		strb	r0, [r3]
 198:Task/Task_Protocol.c ****     {
 3866              		.loc 1 198 5 is_stmt 1 view .LVU1083
 198:Task/Task_Protocol.c ****     {
 3867              		.loc 1 198 15 is_stmt 0 view .LVU1084
 3868 005a 6B1E     		subs	r3, r5, #1
 198:Task/Task_Protocol.c ****     {
 3869              		.loc 1 198 7 view .LVU1085
 3870 005c 042B     		cmp	r3, #4
 3871 005e 01D8     		bhi	.L245
 200:Task/Task_Protocol.c ****     }
 3872              		.loc 1 200 9 is_stmt 1 view .LVU1086
 200:Task/Task_Protocol.c ****     }
 3873              		.loc 1 200 25 is_stmt 0 view .LVU1087
 3874 0060 104B     		ldr	r3, .L247
 3875 0062 1D60     		str	r5, [r3]
 3876              	.L245:
 204:Task/Task_Protocol.c **** 
 3877              		.loc 1 204 5 is_stmt 1 view .LVU1088
 204:Task/Task_Protocol.c **** 
 3878              		.loc 1 204 51 is_stmt 0 view .LVU1089
 3879 0064 164B     		ldr	r3, .L247+28
 3880 0066 DB68     		ldr	r3, [r3, #12]
 204:Task/Task_Protocol.c **** 
 3881              		.loc 1 204 5 view .LVU1090
 3882 0068 DA88     		ldrh	r2, [r3, #6]
 3883 006a 1968     		ldr	r1, [r3]
 3884 006c 1548     		ldr	r0, .L247+32
 3885 006e FFF7FEFF 		bl	Shell_Init
 3886              	.LVL303:
 206:Task/Task_Protocol.c ****     memset(DataPipe_DataObjAddr(VCP_Attach_State), 0, sizeof(DataPipe_DataObj(VCP_Attach_State)));
 3887              		.loc 1 206 5 is_stmt 1 view .LVU1091
 3888 0072 154D     		ldr	r5, .L247+36
 3889              	.LVL304:
 206:Task/Task_Protocol.c ****     memset(DataPipe_DataObjAddr(VCP_Attach_State), 0, sizeof(DataPipe_DataObj(VCP_Attach_State)));
 3890              		.loc 1 206 5 is_stmt 0 view .LVU1092
 3891 0074 2722     		movs	r2, #39
 3892 0076 0021     		movs	r1, #0
 3893 0078 2846     		mov	r0, r5
 3894 007a FFF7FEFF 		bl	memset
 3895              	.LVL305:
 207:Task/Task_Protocol.c **** 
 3896              		.loc 1 207 5 is_stmt 1 view .LVU1093
 3897 007e 134B     		ldr	r3, .L247+40
 3898 0080 0024     		movs	r4, #0
ARM GAS  C:\Users\8bit\AppData\Local\Temp\cczcmggF.s 			page 104


 3899 0082 1C70     		strb	r4, [r3]
 209:Task/Task_Protocol.c ****     VCP_Connect_smp_DataPipe.data_size = sizeof(DataPipe_DataObj(VCP_Attach_State));
 3900              		.loc 1 209 5 view .LVU1094
 209:Task/Task_Protocol.c ****     VCP_Connect_smp_DataPipe.data_size = sizeof(DataPipe_DataObj(VCP_Attach_State));
 3901              		.loc 1 209 40 is_stmt 0 view .LVU1095
 3902 0084 C5F80D30 		str	r3, [r5, #13]	@ unaligned
 210:Task/Task_Protocol.c **** 
 3903              		.loc 1 210 5 is_stmt 1 view .LVU1096
 210:Task/Task_Protocol.c **** 
 3904              		.loc 1 210 40 is_stmt 0 view .LVU1097
 3905 0088 0123     		movs	r3, #1
 3906 008a 6B74     		strb	r3, [r5, #17]
 3907 008c AC74     		strb	r4, [r5, #18]
 212:Task/Task_Protocol.c ****     DataPipe_Enable(&VCP_Connect_smp_DataPipe);
 3908              		.loc 1 212 5 is_stmt 1 view .LVU1098
 212:Task/Task_Protocol.c ****     DataPipe_Enable(&VCP_Connect_smp_DataPipe);
 3909              		.loc 1 212 16 is_stmt 0 view .LVU1099
 3910 008e 104B     		ldr	r3, .L247+44
 3911 0090 5B68     		ldr	r3, [r3, #4]
 212:Task/Task_Protocol.c ****     DataPipe_Enable(&VCP_Connect_smp_DataPipe);
 3912              		.loc 1 212 5 view .LVU1100
 3913 0092 3220     		movs	r0, #50
 3914 0094 9847     		blx	r3
 3915              	.LVL306:
 213:Task/Task_Protocol.c **** 
 3916              		.loc 1 213 5 is_stmt 1 view .LVU1101
 3917              	.LBB11:
 3918              	.LBI11:
 3919              		.file 2 "System/DataPipe/DataPipe.h"
   1:System/DataPipe/DataPipe.h **** #ifndef __DATAPIPE_H
   2:System/DataPipe/DataPipe.h **** #define __DATAPIPE_H
   3:System/DataPipe/DataPipe.h **** 
   4:System/DataPipe/DataPipe.h **** #ifdef __cplusplus
   5:System/DataPipe/DataPipe.h **** extern "C" {
   6:System/DataPipe/DataPipe.h **** #endif
   7:System/DataPipe/DataPipe.h **** 
   8:System/DataPipe/DataPipe.h **** #include <stdint.h>
   9:System/DataPipe/DataPipe.h **** #include <string.h>
  10:System/DataPipe/DataPipe.h **** #include <stdbool.h>
  11:System/DataPipe/DataPipe.h **** 
  12:System/DataPipe/DataPipe.h **** typedef void (*Pipe_TransFinish_Callback)(void *pipe_obj);
  13:System/DataPipe/DataPipe.h **** typedef void (*Pipe_TransError_Callback)(void *pipe_obj);
  14:System/DataPipe/DataPipe.h **** typedef void (*Pipe_TimeOutProc_Callback)(void *pipe_obj);
  15:System/DataPipe/DataPipe.h **** 
  16:System/DataPipe/DataPipe.h **** #define DataPipeHandleToObj(x) ((DataPipeObj_TypeDef *)x)
  17:System/DataPipe/DataPipe.h **** #define DataPipe_CreateDataObj(type, name) static type name##_##PipeDataObj __attribute__((section(
  18:System/DataPipe/DataPipe.h **** #define DataPipe_DataObjAddr(name) (&name##_##PipeDataObj)
  19:System/DataPipe/DataPipe.h **** #define DataPipe_DataObj(name) name##_##PipeDataObj
  20:System/DataPipe/DataPipe.h **** #define DataPipe_DataSize(name) sizeof(name##_##PipeDataObj)
  21:System/DataPipe/DataPipe.h **** 
  22:System/DataPipe/DataPipe.h **** typedef enum
  23:System/DataPipe/DataPipe.h **** {
  24:System/DataPipe/DataPipe.h ****     Pipe_UnReady = 0,
  25:System/DataPipe/DataPipe.h ****     Pipe_Ready,
  26:System/DataPipe/DataPipe.h ****     Pipe_Busy,
  27:System/DataPipe/DataPipe.h ****     Pipe_Error,
  28:System/DataPipe/DataPipe.h **** } DataPipe_State_List;
ARM GAS  C:\Users\8bit\AppData\Local\Temp\cczcmggF.s 			page 105


  29:System/DataPipe/DataPipe.h **** 
  30:System/DataPipe/DataPipe.h **** #pragma pack(1)
  31:System/DataPipe/DataPipe.h **** typedef struct
  32:System/DataPipe/DataPipe.h **** {
  33:System/DataPipe/DataPipe.h ****     uint32_t min_rx_interval;
  34:System/DataPipe/DataPipe.h ****     uint32_t detect_interval;
  35:System/DataPipe/DataPipe.h ****     uint32_t rx_ms_rt;
  36:System/DataPipe/DataPipe.h **** 
  37:System/DataPipe/DataPipe.h ****     bool enable;
  38:System/DataPipe/DataPipe.h **** 
  39:System/DataPipe/DataPipe.h ****     uint32_t data_addr;
  40:System/DataPipe/DataPipe.h ****     uint16_t data_size;
  41:System/DataPipe/DataPipe.h **** 
  42:System/DataPipe/DataPipe.h ****     Pipe_TransFinish_Callback trans_finish_cb;
  43:System/DataPipe/DataPipe.h ****     Pipe_TransError_Callback trans_error_cb;
  44:System/DataPipe/DataPipe.h **** 
  45:System/DataPipe/DataPipe.h ****     uint32_t tx_cnt;
  46:System/DataPipe/DataPipe.h ****     uint32_t rx_cnt;
  47:System/DataPipe/DataPipe.h ****     uint32_t er_cnt;
  48:System/DataPipe/DataPipe.h **** } DataPipeObj_TypeDef;
  49:System/DataPipe/DataPipe.h **** #pragma pack()
  50:System/DataPipe/DataPipe.h **** 
  51:System/DataPipe/DataPipe.h **** typedef struct
  52:System/DataPipe/DataPipe.h **** {
  53:System/DataPipe/DataPipe.h ****     DataPipeObj_TypeDef *org;
  54:System/DataPipe/DataPipe.h ****     DataPipeObj_TypeDef *dst;
  55:System/DataPipe/DataPipe.h **** } Data_PlugedPipeObj_TypeDef;
  56:System/DataPipe/DataPipe.h **** 
  57:System/DataPipe/DataPipe.h **** bool DataPipe_Init(void);
  58:System/DataPipe/DataPipe.h **** bool DataPipe_DeInit(void);
  59:System/DataPipe/DataPipe.h **** bool DataPipe_SendTo(DataPipeObj_TypeDef *p_org, DataPipeObj_TypeDef *p_dst);
  60:System/DataPipe/DataPipe.h **** bool DataPipe_DealError(void);
  61:System/DataPipe/DataPipe.h **** 
  62:System/DataPipe/DataPipe.h **** inline bool DataPipe_Enable(DataPipeObj_TypeDef *obj)
 3920              		.loc 2 62 13 view .LVU1102
 3921              	.LBB12:
  63:System/DataPipe/DataPipe.h **** {
  64:System/DataPipe/DataPipe.h ****     if (obj == NULL)
 3922              		.loc 2 64 5 view .LVU1103
  65:System/DataPipe/DataPipe.h ****         return false;
  66:System/DataPipe/DataPipe.h **** 
  67:System/DataPipe/DataPipe.h ****     obj->enable = true;
 3923              		.loc 2 67 5 view .LVU1104
 3924              		.loc 2 67 17 is_stmt 0 view .LVU1105
 3925 0096 0123     		movs	r3, #1
 3926 0098 2B73     		strb	r3, [r5, #12]
  68:System/DataPipe/DataPipe.h **** 
  69:System/DataPipe/DataPipe.h ****     return true;
 3927              		.loc 2 69 5 is_stmt 1 view .LVU1106
 3928              	.LVL307:
 3929              		.loc 2 69 5 is_stmt 0 view .LVU1107
 3930              	.LBE12:
 3931              	.LBE11:
 216:Task/Task_Protocol.c **** }
 3932              		.loc 1 216 5 is_stmt 1 view .LVU1108
 3933 009a 0E4A     		ldr	r2, .L247+48
 3934 009c 5460     		str	r4, [r2, #4]
ARM GAS  C:\Users\8bit\AppData\Local\Temp\cczcmggF.s 			page 106


 3935 009e 9460     		str	r4, [r2, #8]
 3936 00a0 D460     		str	r4, [r2, #12]
 217:Task/Task_Protocol.c **** 
 3937              		.loc 1 217 1 is_stmt 0 view .LVU1109
 3938 00a2 70BD     		pop	{r4, r5, r6, pc}
 3939              	.L248:
 3940              		.align	2
 3941              	.L247:
 3942 00a4 00000000 		.word	.LANCHOR27
 3943 00a8 00000000 		.word	.LANCHOR0
 3944 00ac 00000000 		.word	.LANCHOR20
 3945 00b0 00000000 		.word	.LANCHOR21
 3946 00b4 00000000 		.word	.LANCHOR19
 3947 00b8 00000000 		.word	.LANCHOR3
 3948 00bc 00000000 		.word	.LANCHOR2
 3949 00c0 00000000 		.word	.LANCHOR22
 3950 00c4 00000000 		.word	TaskFrameCTL_CLI_Trans
 3951 00c8 00000000 		.word	VCP_Connect_smp_DataPipe
 3952 00cc 00000000 		.word	.LANCHOR28
 3953 00d0 00000000 		.word	SrvOsCommon
 3954 00d4 00000000 		.word	.LANCHOR1
 3955              		.cfi_endproc
 3956              	.LFE2071:
 3958              		.section	.text.TaskFrameCTL_Core,"ax",%progbits
 3959              		.align	1
 3960              		.global	TaskFrameCTL_Core
 3961              		.syntax unified
 3962              		.thumb
 3963              		.thumb_func
 3965              	TaskFrameCTL_Core:
 3966              	.LVL308:
 3967              	.LFB2072:
 220:Task/Task_Protocol.c ****     uint32_t per_time = SrvOsCommon.get_os_ms();
 3968              		.loc 1 220 1 is_stmt 1 view -0
 3969              		.cfi_startproc
 3970              		@ Volatile: function does not return.
 3971              		@ args = 0, pretend = 0, frame = 8
 3972              		@ frame_needed = 0, uses_anonymous_args = 0
 220:Task/Task_Protocol.c ****     uint32_t per_time = SrvOsCommon.get_os_ms();
 3973              		.loc 1 220 1 is_stmt 0 view .LVU1111
 3974 0000 00B5     		push	{lr}
 3975              	.LCFI67:
 3976              		.cfi_def_cfa_offset 4
 3977              		.cfi_offset 14, -4
 3978 0002 83B0     		sub	sp, sp, #12
 3979              	.LCFI68:
 3980              		.cfi_def_cfa_offset 16
 221:Task/Task_Protocol.c ****     bool cli_state = false;
 3981              		.loc 1 221 5 is_stmt 1 view .LVU1112
 221:Task/Task_Protocol.c ****     bool cli_state = false;
 3982              		.loc 1 221 36 is_stmt 0 view .LVU1113
 3983 0004 134B     		ldr	r3, .L255
 3984 0006 1B68     		ldr	r3, [r3]
 221:Task/Task_Protocol.c ****     bool cli_state = false;
 3985              		.loc 1 221 25 view .LVU1114
 3986 0008 9847     		blx	r3
 3987              	.LVL309:
ARM GAS  C:\Users\8bit\AppData\Local\Temp\cczcmggF.s 			page 107


 221:Task/Task_Protocol.c ****     bool cli_state = false;
 3988              		.loc 1 221 14 view .LVU1115
 3989 000a 0190     		str	r0, [sp, #4]
 222:Task/Task_Protocol.c **** 
 3990              		.loc 1 222 5 is_stmt 1 view .LVU1116
 222:Task/Task_Protocol.c **** 
 3991              		.loc 1 222 10 is_stmt 0 view .LVU1117
 3992 000c 0023     		movs	r3, #0
 3993 000e 8DF80330 		strb	r3, [sp, #3]
 3994 0012 0CE0     		b	.L253
 3995              	.L251:
 238:Task/Task_Protocol.c ****         }
 3996              		.loc 1 238 17 is_stmt 1 view .LVU1118
 3997 0014 FFF7FEFF 		bl	TaskFrameCTL_CLI_Proc
 3998              	.LVL310:
 3999 0018 03E0     		b	.L252
 4000              	.L250:
 242:Task/Task_Protocol.c **** 
 4001              		.loc 1 242 13 view .LVU1119
 4002 001a 9DF80300 		ldrb	r0, [sp, #3]	@ zero_extendqisi2
 4003 001e FFF7FEFF 		bl	TaskFrameCTL_Upgrade_StatePolling
 4004              	.LVL311:
 4005              	.L252:
 244:Task/Task_Protocol.c ****     }
 4006              		.loc 1 244 9 view .LVU1120
 244:Task/Task_Protocol.c ****     }
 4007              		.loc 1 244 20 is_stmt 0 view .LVU1121
 4008 0022 0C4B     		ldr	r3, .L255
 4009 0024 9B68     		ldr	r3, [r3, #8]
 244:Task/Task_Protocol.c ****     }
 4010              		.loc 1 244 9 view .LVU1122
 4011 0026 0C4A     		ldr	r2, .L255+4
 4012 0028 1168     		ldr	r1, [r2]
 4013 002a 01A8     		add	r0, sp, #4
 4014 002c 9847     		blx	r3
 4015              	.LVL312:
 224:Task/Task_Protocol.c ****     {
 4016              		.loc 1 224 10 is_stmt 1 view .LVU1123
 4017              	.L253:
 224:Task/Task_Protocol.c ****     {
 4018              		.loc 1 224 5 view .LVU1124
 226:Task/Task_Protocol.c ****         SrvDataHub.get_cli_state(&cli_state);
 4019              		.loc 1 226 9 view .LVU1125
 4020 002e FFF7FEFF 		bl	TaskFrameCTL_ConfigureStateCheck
 4021              	.LVL313:
 227:Task/Task_Protocol.c **** 
 4022              		.loc 1 227 9 view .LVU1126
 227:Task/Task_Protocol.c **** 
 4023              		.loc 1 227 19 is_stmt 0 view .LVU1127
 4024 0032 0A4B     		ldr	r3, .L255+8
 4025 0034 5B69     		ldr	r3, [r3, #20]
 227:Task/Task_Protocol.c **** 
 4026              		.loc 1 227 9 view .LVU1128
 4027 0036 0DF10300 		add	r0, sp, #3
 4028 003a 9847     		blx	r3
 4029              	.LVL314:
 229:Task/Task_Protocol.c ****         {
ARM GAS  C:\Users\8bit\AppData\Local\Temp\cczcmggF.s 			page 108


 4030              		.loc 1 229 9 is_stmt 1 view .LVU1129
 229:Task/Task_Protocol.c ****         {
 4031              		.loc 1 229 29 is_stmt 0 view .LVU1130
 4032 003c 084B     		ldr	r3, .L255+12
 4033 003e 1B78     		ldrb	r3, [r3]	@ zero_extendqisi2
 229:Task/Task_Protocol.c ****         {
 4034              		.loc 1 229 12 view .LVU1131
 4035 0040 002B     		cmp	r3, #0
 4036 0042 EAD1     		bne	.L250
 231:Task/Task_Protocol.c ****             {
 4037              		.loc 1 231 13 is_stmt 1 view .LVU1132
 231:Task/Task_Protocol.c ****             {
 4038              		.loc 1 231 17 is_stmt 0 view .LVU1133
 4039 0044 9DF80330 		ldrb	r3, [sp, #3]	@ zero_extendqisi2
 231:Task/Task_Protocol.c ****             {
 4040              		.loc 1 231 16 view .LVU1134
 4041 0048 002B     		cmp	r3, #0
 4042 004a E3D1     		bne	.L251
 234:Task/Task_Protocol.c ****             }
 4043              		.loc 1 234 17 is_stmt 1 view .LVU1135
 4044 004c FFF7FEFF 		bl	TaskFrameCTL_PortFrameOut_Process
 4045              	.LVL315:
 4046 0050 E7E7     		b	.L252
 4047              	.L256:
 4048 0052 00BF     		.align	2
 4049              	.L255:
 4050 0054 00000000 		.word	SrvOsCommon
 4051 0058 00000000 		.word	.LANCHOR27
 4052 005c 00000000 		.word	SrvDataHub
 4053 0060 00000000 		.word	.LANCHOR1
 4054              		.cfi_endproc
 4055              	.LFE2072:
 4057              		.global	shellCommandfile_rec
 4058              		.global	shellDescfile_rec
 4059              		.global	shellCmdfile_rec
 4060              		.global	shellCommandCLI_Disable
 4061              		.global	shellDescCLI_Disable
 4062              		.global	shellCmdCLI_Disable
 4063              		.global	RadioProto_MAV_Altitude
 4064              		.global	RadioProto_MAV_Attitude
 4065              		.global	RadioProto_MAV_MotoChannel
 4066              		.global	RadioProto_MAV_RcChannel
 4067              		.global	RadioProto_MAV_ScaledIMU
 4068              		.global	RadioProto_MAV_RawIMU
 4069              		.global	TaskProto_MAV_Altitude
 4070              		.global	TaskProto_MAV_Exp_Attitude
 4071              		.global	TaskProto_MAV_Attitude
 4072              		.global	TaskProto_MAV_MotoChannel
 4073              		.global	TaskProto_MAV_RcChannel
 4074              		.global	TaskProto_MAV_ScaledIMU
 4075              		.global	TaskProto_MAV_RawIMU
 4076              		.global	InPut_MavData
 4077              		.section	.Perph_Section,"aw"
 4078              		.align	2
 4079              		.set	.LANCHOR28,. + 0
 4082              	VCP_Attach_State_PipeDataObj:
 4083 0000 00       		.space	1
ARM GAS  C:\Users\8bit\AppData\Local\Temp\cczcmggF.s 			page 109


 4084 0001 000000   		.space	3
 4087              	CLIRxBuf:
 4088 0004 00000000 		.space	512
 4088      00000000 
 4088      00000000 
 4088      00000000 
 4088      00000000 
 4091              	MavShareBuf:
 4092 0204 00000000 		.space	1024
 4092      00000000 
 4092      00000000 
 4092      00000000 
 4092      00000000 
 4093              		.section	.bss.CLIPrintBuf,"aw",%nobits
 4094              		.align	2
 4095              		.set	.LANCHOR29,. + 0
 4098              	CLIPrintBuf:
 4099 0000 00000000 		.space	512
 4099      00000000 
 4099      00000000 
 4099      00000000 
 4099      00000000 
 4100              		.section	.bss.CLIProcBuf,"aw",%nobits
 4101              		.align	2
 4104              	CLIProcBuf:
 4105 0000 00000000 		.space	512
 4105      00000000 
 4105      00000000 
 4105      00000000 
 4105      00000000 
 4106              		.section	.bss.DefaultPort_MavMsgInput_Obj,"aw",%nobits
 4107              		.align	2
 4108              		.set	.LANCHOR20,. + 0
 4111              	DefaultPort_MavMsgInput_Obj:
 4112 0000 00000000 		.space	144
 4112      00000000 
 4112      00000000 
 4112      00000000 
 4112      00000000 
 4113              		.section	.bss.FrameCTL_MavProto_Enable,"aw",%nobits
 4114              		.set	.LANCHOR2,. + 0
 4117              	FrameCTL_MavProto_Enable:
 4118 0000 00       		.space	1
 4119              		.section	.bss.FrameCTL_Period,"aw",%nobits
 4120              		.align	2
 4121              		.set	.LANCHOR27,. + 0
 4124              	FrameCTL_Period:
 4125 0000 00000000 		.space	4
 4126              		.section	.bss.InPut_MavData,"aw",%nobits
 4127              		.align	2
 4128              		.set	.LANCHOR19,. + 0
 4131              	InPut_MavData:
 4132 0000 00000000 		.space	176
 4132      00000000 
 4132      00000000 
 4132      00000000 
 4132      00000000 
ARM GAS  C:\Users\8bit\AppData\Local\Temp\cczcmggF.s 			page 110


 4133              		.section	.bss.InUsePort_MavMsgInput_Obj,"aw",%nobits
 4134              		.align	2
 4135              		.set	.LANCHOR26,. + 0
 4138              	InUsePort_MavMsgInput_Obj:
 4139 0000 00000000 		.space	4
 4140              		.section	.bss.PortMonitor,"aw",%nobits
 4141              		.align	2
 4142              		.set	.LANCHOR0,. + 0
 4145              	PortMonitor:
 4146 0000 00000000 		.space	60
 4146      00000000 
 4146      00000000 
 4146      00000000 
 4146      00000000 
 4147              		.section	.bss.RadioPort_MavMsgInput_Obj,"aw",%nobits
 4148              		.align	2
 4149              		.set	.LANCHOR21,. + 0
 4152              	RadioPort_MavMsgInput_Obj:
 4153 0000 00000000 		.space	144
 4153      00000000 
 4153      00000000 
 4153      00000000 
 4153      00000000 
 4154              		.section	.bss.RadioProto_MAV_Altitude,"aw",%nobits
 4155              		.align	2
 4156              		.set	.LANCHOR9,. + 0
 4159              	RadioProto_MAV_Altitude:
 4160 0000 00000000 		.space	28
 4160      00000000 
 4160      00000000 
 4160      00000000 
 4160      00000000 
 4161              		.section	.bss.RadioProto_MAV_Attitude,"aw",%nobits
 4162              		.align	2
 4163              		.set	.LANCHOR7,. + 0
 4166              	RadioProto_MAV_Attitude:
 4167 0000 00000000 		.space	28
 4167      00000000 
 4167      00000000 
 4167      00000000 
 4167      00000000 
 4168              		.section	.bss.RadioProto_MAV_MotoChannel,"aw",%nobits
 4169              		.align	2
 4170              		.set	.LANCHOR18,. + 0
 4173              	RadioProto_MAV_MotoChannel:
 4174 0000 00000000 		.space	28
 4174      00000000 
 4174      00000000 
 4174      00000000 
 4174      00000000 
 4175              		.section	.bss.RadioProto_MAV_RawIMU,"aw",%nobits
 4176              		.align	2
 4177              		.set	.LANCHOR5,. + 0
 4180              	RadioProto_MAV_RawIMU:
 4181 0000 00000000 		.space	28
 4181      00000000 
 4181      00000000 
ARM GAS  C:\Users\8bit\AppData\Local\Temp\cczcmggF.s 			page 111


 4181      00000000 
 4181      00000000 
 4182              		.section	.bss.RadioProto_MAV_RcChannel,"aw",%nobits
 4183              		.align	2
 4184              		.set	.LANCHOR8,. + 0
 4187              	RadioProto_MAV_RcChannel:
 4188 0000 00000000 		.space	28
 4188      00000000 
 4188      00000000 
 4188      00000000 
 4188      00000000 
 4189              		.section	.bss.RadioProto_MAV_ScaledIMU,"aw",%nobits
 4190              		.align	2
 4191              		.set	.LANCHOR6,. + 0
 4194              	RadioProto_MAV_ScaledIMU:
 4195 0000 00000000 		.space	28
 4195      00000000 
 4195      00000000 
 4195      00000000 
 4195      00000000 
 4196              		.section	.bss.RadioRxBuff,"aw",%nobits
 4197              		.align	2
 4200              	RadioRxBuff:
 4201 0000 00000000 		.space	1152
 4201      00000000 
 4201      00000000 
 4201      00000000 
 4201      00000000 
 4202              		.section	.bss.Radio_Addr,"aw",%nobits
 4203              		.align	2
 4204              		.set	.LANCHOR3,. + 0
 4207              	Radio_Addr:
 4208 0000 00000000 		.space	4
 4209              		.section	.bss.TaskProto_MAV_Altitude,"aw",%nobits
 4210              		.align	2
 4211              		.set	.LANCHOR15,. + 0
 4214              	TaskProto_MAV_Altitude:
 4215 0000 00000000 		.space	28
 4215      00000000 
 4215      00000000 
 4215      00000000 
 4215      00000000 
 4216              		.section	.bss.TaskProto_MAV_Attitude,"aw",%nobits
 4217              		.align	2
 4218              		.set	.LANCHOR13,. + 0
 4221              	TaskProto_MAV_Attitude:
 4222 0000 00000000 		.space	28
 4222      00000000 
 4222      00000000 
 4222      00000000 
 4222      00000000 
 4223              		.section	.bss.TaskProto_MAV_Exp_Attitude,"aw",%nobits
 4224              		.align	2
 4225              		.set	.LANCHOR16,. + 0
 4228              	TaskProto_MAV_Exp_Attitude:
 4229 0000 00000000 		.space	28
 4229      00000000 
ARM GAS  C:\Users\8bit\AppData\Local\Temp\cczcmggF.s 			page 112


 4229      00000000 
 4229      00000000 
 4229      00000000 
 4230              		.section	.bss.TaskProto_MAV_MotoChannel,"aw",%nobits
 4231              		.align	2
 4232              		.set	.LANCHOR17,. + 0
 4235              	TaskProto_MAV_MotoChannel:
 4236 0000 00000000 		.space	28
 4236      00000000 
 4236      00000000 
 4236      00000000 
 4236      00000000 
 4237              		.section	.bss.TaskProto_MAV_RawIMU,"aw",%nobits
 4238              		.align	2
 4239              		.set	.LANCHOR11,. + 0
 4242              	TaskProto_MAV_RawIMU:
 4243 0000 00000000 		.space	28
 4243      00000000 
 4243      00000000 
 4243      00000000 
 4243      00000000 
 4244              		.section	.bss.TaskProto_MAV_RcChannel,"aw",%nobits
 4245              		.align	2
 4246              		.set	.LANCHOR14,. + 0
 4249              	TaskProto_MAV_RcChannel:
 4250 0000 00000000 		.space	28
 4250      00000000 
 4250      00000000 
 4250      00000000 
 4250      00000000 
 4251              		.section	.bss.TaskProto_MAV_ScaledIMU,"aw",%nobits
 4252              		.align	2
 4253              		.set	.LANCHOR12,. + 0
 4256              	TaskProto_MAV_ScaledIMU:
 4257 0000 00000000 		.space	28
 4257      00000000 
 4257      00000000 
 4257      00000000 
 4257      00000000 
 4258              		.section	.bss.USB_RxBuf_Tmp,"aw",%nobits
 4259              		.align	2
 4262              	USB_RxBuf_Tmp:
 4263 0000 00000000 		.space	1152
 4263      00000000 
 4263      00000000 
 4263      00000000 
 4263      00000000 
 4264              		.section	.bss.USB_VCP_Addr,"aw",%nobits
 4265              		.align	2
 4266              		.set	.LANCHOR10,. + 0
 4269              	USB_VCP_Addr:
 4270 0000 00000000 		.space	4
 4271              		.section	.bss.Uart_RxBuf_Tmp,"aw",%nobits
 4272              		.align	2
 4275              	Uart_RxBuf_Tmp:
 4276 0000 00000000 		.space	1152
 4276      00000000 
ARM GAS  C:\Users\8bit\AppData\Local\Temp\cczcmggF.s 			page 113


 4276      00000000 
 4276      00000000 
 4276      00000000 
 4277              		.section	.bss.Upgrade_Monitor,"aw",%nobits
 4278              		.align	2
 4279              		.set	.LANCHOR1,. + 0
 4282              	Upgrade_Monitor:
 4283 0000 00000000 		.space	24
 4283      00000000 
 4283      00000000 
 4283      00000000 
 4283      00000000 
 4284              		.section	.data.CLI_Monitor,"aw"
 4285              		.align	2
 4286              		.set	.LANCHOR22,. + 0
 4289              	CLI_Monitor:
 4290 0000 00000000 		.space	4
 4291 0004 00000000 		.word	0
 4292 0008 00000000 		.word	CLI_RX_Stream
 4293 000c 00000000 		.word	CLI_Proc_Stream
 4294 0010 00       		.byte	0
 4295 0011 00       		.space	1
 4296 0012 0000     		.short	0
 4297              		.section	.data.CLI_Proc_Stream,"aw"
 4298              		.align	2
 4301              	CLI_Proc_Stream:
 4302 0000 00000000 		.word	CLIProcBuf
 4303 0004 0000     		.short	0
 4304 0006 0002     		.short	512
 4305              		.section	.data.CLI_RX_Stream,"aw"
 4306              		.align	2
 4309              	CLI_RX_Stream:
 4310 0000 04000000 		.word	CLIRxBuf
 4311 0004 0000     		.short	0
 4312 0006 0002     		.short	512
 4313              		.section	.data.MavStream,"aw"
 4314              		.align	2
 4315              		.set	.LANCHOR4,. + 0
 4318              	MavStream:
 4319 0000 04020000 		.word	MavShareBuf
 4320 0004 0000     		.short	0
 4321 0006 0004     		.short	1024
 4322              		.section	.data.Radio_Port1_UartObj,"aw"
 4323              		.align	2
 4326              	Radio_Port1_UartObj:
 4327 0000 00080700 		.word	460800
 4328 0004 00       		.byte	0
 4329 0005 000000   		.space	3
 4330 0008 00100140 		.word	1073811456
 4331 000c 00000000 		.space	4
 4332 0010 01       		.byte	1
 4333 0011 00       		.byte	0
 4334 0012 00000000 		.space	6
 4334      0000
 4335 0018 01       		.byte	1
 4336 0019 01       		.byte	1
 4337 001a 00000000 		.space	6
ARM GAS  C:\Users\8bit\AppData\Local\Temp\cczcmggF.s 			page 114


 4337      0000
 4338 0020 00000000 		.word	Uart1_Tx_Port
 4339 0024 0002     		.short	512
 4340 0026 00       		.byte	0
 4341 0027 00       		.space	1
 4342 0028 07000000 		.word	7
 4343 002c 00000000 		.word	Uart1_Rx_Port
 4344 0030 0004     		.short	1024
 4345 0032 00       		.byte	0
 4346 0033 00       		.space	1
 4347 0034 07000000 		.word	7
 4348 0038 00000000 		.space	8
 4348      00000000 
 4349 0040 00000000 		.word	RadioRxBuff
 4350 0044 8004     		.short	1152
 4351 0046 00000000 		.space	42
 4351      00000000 
 4351      00000000 
 4351      00000000 
 4351      00000000 
 4352              		.section	.data.Radio_UartPort_List,"aw"
 4353              		.align	2
 4354              		.set	.LANCHOR23,. + 0
 4357              	Radio_UartPort_List:
 4358 0000 00       		.byte	0
 4359 0001 00000000 		.space	31
 4359      00000000 
 4359      00000000 
 4359      00000000 
 4359      00000000 
 4360 0020 00000000 		.word	Radio_Port1_UartObj
 4361              		.section	.data.USBRx_Stream,"aw"
 4362              		.align	2
 4363              		.set	.LANCHOR24,. + 0
 4366              	USBRx_Stream:
 4367 0000 00000000 		.word	USB_RxBuf_Tmp
 4368 0004 0000     		.short	0
 4369 0006 8004     		.short	1152
 4370              		.section	.data.UartRx_Stream,"aw"
 4371              		.align	2
 4372              		.set	.LANCHOR25,. + 0
 4375              	UartRx_Stream:
 4376 0000 00000000 		.word	Uart_RxBuf_Tmp
 4377 0004 0000     		.short	0
 4378 0006 8004     		.short	1152
 4379              		.section	.rodata.shellCmdCLI_Disable,"a"
 4380              		.align	2
 4383              	shellCmdCLI_Disable:
 4384 0000 434C495F 		.ascii	"CLI_Disable\000"
 4384      44697361 
 4384      626C6500 
 4385              		.section	.rodata.shellCmdfile_rec,"a"
 4386              		.align	2
 4389              	shellCmdfile_rec:
 4390 0000 66696C65 		.ascii	"file_rec\000"
 4390      5F726563 
 4390      00
ARM GAS  C:\Users\8bit\AppData\Local\Temp\cczcmggF.s 			page 115


 4391              		.section	.rodata.shellDescCLI_Disable,"a"
 4392              		.align	2
 4395              	shellDescCLI_Disable:
 4396 0000 434C4920 		.ascii	"CLI Enable Control\000"
 4396      456E6162 
 4396      6C652043 
 4396      6F6E7472 
 4396      6F6C00
 4397              		.section	.rodata.shellDescfile_rec,"a"
 4398              		.align	2
 4401              	shellDescfile_rec:
 4402 0000 496E2046 		.ascii	"In File Receive Mode\000"
 4402      696C6520 
 4402      52656365 
 4402      69766520 
 4402      4D6F6465 
 4403              		.section	shellCommand,"a"
 4404              		.align	2
 4407              	shellCommandfile_rec:
 4408 0000 00210000 		.word	8448
 4409 0004 00000000 		.word	shellCmdfile_rec
 4410 0008 00000000 		.word	TaskFrameCTL_FileAccept_Enable
 4411 000c 00000000 		.word	shellDescfile_rec
 4414              	shellCommandCLI_Disable:
 4415 0010 00210000 		.word	8448
 4416 0014 00000000 		.word	shellCmdCLI_Disable
 4417 0018 00000000 		.word	TaskFermeCTL_CLI_DisableControl
 4418 001c 00000000 		.word	shellDescCLI_Disable
 4419              		.text
 4420              	.Letext0:
 4421              		.file 3 "c:\\program files (x86)\\gnu arm embedded toolchain\\10 2021.10\\lib\\gcc\\arm-none-eabi\
 4422              		.file 4 "c:\\program files (x86)\\gnu arm embedded toolchain\\10 2021.10\\arm-none-eabi\\include\\
 4423              		.file 5 "c:\\program files (x86)\\gnu arm embedded toolchain\\10 2021.10\\arm-none-eabi\\include\\
 4424              		.file 6 "System/FreeRTOS/portable/GCC/ARM_CM4F/portmacro.h"
 4425              		.file 7 "System/FreeRTOS/include/portable.h"
 4426              		.file 8 "System/FreeRTOS/include/FreeRTOS.h"
 4427              		.file 9 "System/FreeRTOS/include/queue.h"
 4428              		.file 10 "System/FreeRTOS/include/semphr.h"
 4429              		.file 11 "System/FreeRTOS/CMSIS_RTOS/cmsis_os.h"
 4430              		.file 12 "Service/Srv_OsCommon.h"
 4431              		.file 13 "Service/../MAVLink/common/../mavlink_types.h"
 4432              		.file 14 "Service/Srv_ComProto.h"
 4433              		.file 15 "HW_Lib/Port_Def/Bsp_USB_Port_Def.h"
 4434              		.file 16 "HW_Lib/AT32F435/bsp/Bsp_USB.h"
 4435              		.file 17 "HW_Lib/Port_Def/Bsp_GPIO_Port_Def.h"
 4436              		.file 18 "HW_Lib/Port_Def/Bsp_Uart_Port_Def.h"
 4437              		.file 19 "HW_Lib/AT32F435/bsp/Bsp_Uart.h"
 4438              		.file 20 "System/shell/shell.h"
 4439              		.file 21 "Service/Srv_FileAdapter.h"
 4440              		.file 22 "Service/Srv_Upgrade.h"
 4441              		.file 23 "Task/Task_Protocol.h"
 4442              		.file 24 "HW_Lib/AT32F435/drivers/inc/at32f435_437_tmr.h"
 4443              		.file 25 "HW_Lib/AT32F435/drivers/inc/at32f435_437_gpio.h"
 4444              		.file 26 "HW_Lib/AT32F435/drivers/inc/at32f435_437_usart.h"
 4445              		.file 27 "HW_Lib/AT32F435/bsp/Bsp_GPIO.h"
 4446              		.file 28 "HW_Lib/AT32F435/bsp/Bsp_DMA.h"
 4447              		.file 29 "common/Error_Log/../../common/gen_physic_def/imu_data.h"
ARM GAS  C:\Users\8bit\AppData\Local\Temp\cczcmggF.s 			page 116


 4448              		.file 30 "HW_Lib/AT32F435/PinPort_Def/CCRC_AT32_20/HW_Def.h"
 4449              		.file 31 "Device/Dev_Dshot.h"
 4450              		.file 32 "Service/control_data.h"
 4451              		.file 33 "Service/Srv_DataHub.h"
 4452              		.file 34 "System/FreeRTOS/FreeRTOSConfig.h"
 4453              		.file 35 "System/shell/shell_port.h"
 4454              		.file 36 "<built-in>"
 4455              		.file 37 "c:\\program files (x86)\\gnu arm embedded toolchain\\10 2021.10\\arm-none-eabi\\include\
ARM GAS  C:\Users\8bit\AppData\Local\Temp\cczcmggF.s 			page 117


DEFINED SYMBOLS
                            *ABS*:00000000 Task_Protocol.c
C:\Users\8bit\AppData\Local\Temp\cczcmggF.s:20     .text.TaskFrameCTL_Set_RadioPort:00000000 $t
C:\Users\8bit\AppData\Local\Temp\cczcmggF.s:25     .text.TaskFrameCTL_Set_RadioPort:00000000 TaskFrameCTL_Set_RadioPort
C:\Users\8bit\AppData\Local\Temp\cczcmggF.s:86     .text.TaskFrameCTL_Set_RadioPort:0000002c $d
C:\Users\8bit\AppData\Local\Temp\cczcmggF.s:91     .text.TaskFrameCTL_USB_VCP_Connect_Callback:00000000 $t
C:\Users\8bit\AppData\Local\Temp\cczcmggF.s:96     .text.TaskFrameCTL_USB_VCP_Connect_Callback:00000000 TaskFrameCTL_USB_VCP_Connect_Callback
C:\Users\8bit\AppData\Local\Temp\cczcmggF.s:154    .text.TaskFrameCTL_USB_VCP_Connect_Callback:00000020 $d
C:\Users\8bit\AppData\Local\Temp\cczcmggF.s:159    .text.TaskFrameCTL_Upgrade_Enable:00000000 $t
C:\Users\8bit\AppData\Local\Temp\cczcmggF.s:164    .text.TaskFrameCTL_Upgrade_Enable:00000000 TaskFrameCTL_Upgrade_Enable
C:\Users\8bit\AppData\Local\Temp\cczcmggF.s:275    .text.TaskFrameCTL_Upgrade_Enable:00000064 $d
C:\Users\8bit\AppData\Local\Temp\cczcmggF.s:283    .text.TaskFrameCTL_PortFrameOut_Process:00000000 $t
C:\Users\8bit\AppData\Local\Temp\cczcmggF.s:288    .text.TaskFrameCTL_PortFrameOut_Process:00000000 TaskFrameCTL_PortFrameOut_Process
C:\Users\8bit\AppData\Local\Temp\cczcmggF.s:510    .text.TaskFrameCTL_PortFrameOut_Process:000000e8 $d
C:\Users\8bit\AppData\Local\Temp\cczcmggF.s:1884   .text.TaskFrameCTL_MavMsg_Trans:00000000 TaskFrameCTL_MavMsg_Trans
C:\Users\8bit\AppData\Local\Temp\cczcmggF.s:533    .text.TaskFrame_Mav_ExpAtt_Callback:00000000 $t
C:\Users\8bit\AppData\Local\Temp\cczcmggF.s:538    .text.TaskFrame_Mav_ExpAtt_Callback:00000000 TaskFrame_Mav_ExpAtt_Callback
C:\Users\8bit\AppData\Local\Temp\cczcmggF.s:565    .text.TaskFrame_Mav_ExpGyro_Callback:00000000 $t
C:\Users\8bit\AppData\Local\Temp\cczcmggF.s:570    .text.TaskFrame_Mav_ExpGyro_Callback:00000000 TaskFrame_Mav_ExpGyro_Callback
C:\Users\8bit\AppData\Local\Temp\cczcmggF.s:597    .text.TaskFrame_Mav_ExpAlt_Callback:00000000 $t
C:\Users\8bit\AppData\Local\Temp\cczcmggF.s:602    .text.TaskFrame_Mav_ExpAlt_Callback:00000000 TaskFrame_Mav_ExpAlt_Callback
C:\Users\8bit\AppData\Local\Temp\cczcmggF.s:653    .text.TaskFrame_Mav_ExpAlt_Callback:00000028 $d
C:\Users\8bit\AppData\Local\Temp\cczcmggF.s:658    .text.TaskFrame_Mav_PID_Roll_Callback:00000000 $t
C:\Users\8bit\AppData\Local\Temp\cczcmggF.s:663    .text.TaskFrame_Mav_PID_Roll_Callback:00000000 TaskFrame_Mav_PID_Roll_Callback
C:\Users\8bit\AppData\Local\Temp\cczcmggF.s:714    .text.TaskFrame_Mav_PID_Roll_Callback:00000028 $d
C:\Users\8bit\AppData\Local\Temp\cczcmggF.s:719    .text.TaskFrame_Mav_PID_Pitch_Callback:00000000 $t
C:\Users\8bit\AppData\Local\Temp\cczcmggF.s:724    .text.TaskFrame_Mav_PID_Pitch_Callback:00000000 TaskFrame_Mav_PID_Pitch_Callback
C:\Users\8bit\AppData\Local\Temp\cczcmggF.s:775    .text.TaskFrame_Mav_PID_Pitch_Callback:00000028 $d
C:\Users\8bit\AppData\Local\Temp\cczcmggF.s:780    .text.TaskFrame_Mav_PID_GyrX_Callback:00000000 $t
C:\Users\8bit\AppData\Local\Temp\cczcmggF.s:785    .text.TaskFrame_Mav_PID_GyrX_Callback:00000000 TaskFrame_Mav_PID_GyrX_Callback
C:\Users\8bit\AppData\Local\Temp\cczcmggF.s:836    .text.TaskFrame_Mav_PID_GyrX_Callback:00000028 $d
C:\Users\8bit\AppData\Local\Temp\cczcmggF.s:841    .text.TaskFrame_Mav_PID_GyrY_Callback:00000000 $t
C:\Users\8bit\AppData\Local\Temp\cczcmggF.s:846    .text.TaskFrame_Mav_PID_GyrY_Callback:00000000 TaskFrame_Mav_PID_GyrY_Callback
C:\Users\8bit\AppData\Local\Temp\cczcmggF.s:897    .text.TaskFrame_Mav_PID_GyrY_Callback:00000028 $d
C:\Users\8bit\AppData\Local\Temp\cczcmggF.s:902    .text.TaskFrame_Mav_PID_GyrZ_Callback:00000000 $t
C:\Users\8bit\AppData\Local\Temp\cczcmggF.s:907    .text.TaskFrame_Mav_PID_GyrZ_Callback:00000000 TaskFrame_Mav_PID_GyrZ_Callback
C:\Users\8bit\AppData\Local\Temp\cczcmggF.s:958    .text.TaskFrame_Mav_PID_GyrZ_Callback:00000028 $d
C:\Users\8bit\AppData\Local\Temp\cczcmggF.s:963    .text.TaskFrameCTL_MAV_Msg_Init:00000000 $t
C:\Users\8bit\AppData\Local\Temp\cczcmggF.s:968    .text.TaskFrameCTL_MAV_Msg_Init:00000000 TaskFrameCTL_MAV_Msg_Init
C:\Users\8bit\AppData\Local\Temp\cczcmggF.s:1012   .text.TaskFrameCTL_MAV_Msg_Init:00000018 $d
C:\Users\8bit\AppData\Local\Temp\cczcmggF.s:1019   .text.TaskFrameCTL_MAV_Msg_Init:0000001c $t
C:\Users\8bit\AppData\Local\Temp\cczcmggF.s:1519   .text.TaskFrameCTL_MAV_Msg_Init:000002fc $d
C:\Users\8bit\AppData\Local\Temp\cczcmggF.s:1550   .text.TaskFrameCTL_MAV_Msg_Init:00000374 $t
C:\Users\8bit\AppData\Local\Temp\cczcmggF.s:1571   .text.TaskFrameCTL_Port_Tx:00000000 $t
C:\Users\8bit\AppData\Local\Temp\cczcmggF.s:1576   .text.TaskFrameCTL_Port_Tx:00000000 TaskFrameCTL_Port_Tx
C:\Users\8bit\AppData\Local\Temp\cczcmggF.s:1693   .text.TaskFrameCTL_Port_Tx:00000068 $d
C:\Users\8bit\AppData\Local\Temp\cczcmggF.s:1699   .text.TaskFrameCTL_DefaultPort_Trans:00000000 $t
C:\Users\8bit\AppData\Local\Temp\cczcmggF.s:1704   .text.TaskFrameCTL_DefaultPort_Trans:00000000 TaskFrameCTL_DefaultPort_Trans
C:\Users\8bit\AppData\Local\Temp\cczcmggF.s:1797   .text.TaskFrameCTL_DefaultPort_Trans:00000050 $d
C:\Users\8bit\AppData\Local\Temp\cczcmggF.s:1803   .text.TaskFrameCTL_CLI_Trans:00000000 $t
C:\Users\8bit\AppData\Local\Temp\cczcmggF.s:1808   .text.TaskFrameCTL_CLI_Trans:00000000 TaskFrameCTL_CLI_Trans
C:\Users\8bit\AppData\Local\Temp\cczcmggF.s:1874   .text.TaskFrameCTL_CLI_Trans:0000002c $d
C:\Users\8bit\AppData\Local\Temp\cczcmggF.s:1879   .text.TaskFrameCTL_MavMsg_Trans:00000000 $t
C:\Users\8bit\AppData\Local\Temp\cczcmggF.s:1962   .text.TaskFrameCTL_Upgrade_Send:00000000 $t
C:\Users\8bit\AppData\Local\Temp\cczcmggF.s:1967   .text.TaskFrameCTL_Upgrade_Send:00000000 TaskFrameCTL_Upgrade_Send
C:\Users\8bit\AppData\Local\Temp\cczcmggF.s:2030   .text.TaskFrameCTL_Upgrade_Send:0000002c $d
C:\Users\8bit\AppData\Local\Temp\cczcmggF.s:2035   .text.TaskFrameCTL_DefaultPort_Init:00000000 $t
ARM GAS  C:\Users\8bit\AppData\Local\Temp\cczcmggF.s 			page 118


C:\Users\8bit\AppData\Local\Temp\cczcmggF.s:2040   .text.TaskFrameCTL_DefaultPort_Init:00000000 TaskFrameCTL_DefaultPort_Init
C:\Users\8bit\AppData\Local\Temp\cczcmggF.s:2166   .text.TaskFrameCTL_DefaultPort_Init:0000005c $d
C:\Users\8bit\AppData\Local\Temp\cczcmggF.s:2828   .text.TaskFrameCTL_Port_TxCplt_Callback:00000000 TaskFrameCTL_Port_TxCplt_Callback
C:\Users\8bit\AppData\Local\Temp\cczcmggF.s:2429   .text.TaskFrameCTL_Port_Rx_Callback:00000000 TaskFrameCTL_Port_Rx_Callback
C:\Users\8bit\AppData\Local\Temp\cczcmggF.s:2176   .text.TaskFrameCTL_RadioPort_Init:00000000 $t
C:\Users\8bit\AppData\Local\Temp\cczcmggF.s:2181   .text.TaskFrameCTL_RadioPort_Init:00000000 TaskFrameCTL_RadioPort_Init
C:\Users\8bit\AppData\Local\Temp\cczcmggF.s:2416   .text.TaskFrameCTL_RadioPort_Init:000000c8 $d
C:\Users\8bit\AppData\Local\Temp\cczcmggF.s:2424   .text.TaskFrameCTL_Port_Rx_Callback:00000000 $t
C:\Users\8bit\AppData\Local\Temp\cczcmggF.s:2808   .text.TaskFrameCTL_Port_Rx_Callback:00000190 $d
C:\Users\8bit\AppData\Local\Temp\cczcmggF.s:2823   .text.TaskFrameCTL_Port_TxCplt_Callback:00000000 $t
C:\Users\8bit\AppData\Local\Temp\cczcmggF.s:2949   .text.TaskFrameCTL_ConfigureStateCheck:00000000 $t
C:\Users\8bit\AppData\Local\Temp\cczcmggF.s:2954   .text.TaskFrameCTL_ConfigureStateCheck:00000000 TaskFrameCTL_ConfigureStateCheck
C:\Users\8bit\AppData\Local\Temp\cczcmggF.s:3044   .text.TaskFrameCTL_ConfigureStateCheck:00000050 $d
C:\Users\8bit\AppData\Local\Temp\cczcmggF.s:3056   .text.TaskFrameCTL_CLI_Proc:00000000 $t
C:\Users\8bit\AppData\Local\Temp\cczcmggF.s:3061   .text.TaskFrameCTL_CLI_Proc:00000000 TaskFrameCTL_CLI_Proc
C:\Users\8bit\AppData\Local\Temp\cczcmggF.s:3173   .text.TaskFrameCTL_CLI_Proc:00000054 $d
C:\Users\8bit\AppData\Local\Temp\cczcmggF.s:3179   .rodata.TaskFrameCTL_Upgrade_StatePolling.str1.4:00000000 $d
C:\Users\8bit\AppData\Local\Temp\cczcmggF.s:3198   .text.TaskFrameCTL_Upgrade_StatePolling:00000000 $t
C:\Users\8bit\AppData\Local\Temp\cczcmggF.s:3203   .text.TaskFrameCTL_Upgrade_StatePolling:00000000 TaskFrameCTL_Upgrade_StatePolling
C:\Users\8bit\AppData\Local\Temp\cczcmggF.s:3255   .text.TaskFrameCTL_Upgrade_StatePolling:00000026 $d
C:\Users\8bit\AppData\Local\Temp\cczcmggF.s:3263   .text.TaskFrameCTL_Upgrade_StatePolling:0000002e $t
C:\Users\8bit\AppData\Local\Temp\cczcmggF.s:3437   .text.TaskFrameCTL_Upgrade_StatePolling:000000d4 $d
C:\Users\8bit\AppData\Local\Temp\cczcmggF.s:3453   .rodata.TaskFermeCTL_CLI_DisableControl.str1.4:00000000 $d
C:\Users\8bit\AppData\Local\Temp\cczcmggF.s:3460   .text.TaskFermeCTL_CLI_DisableControl:00000000 $t
C:\Users\8bit\AppData\Local\Temp\cczcmggF.s:3465   .text.TaskFermeCTL_CLI_DisableControl:00000000 TaskFermeCTL_CLI_DisableControl
C:\Users\8bit\AppData\Local\Temp\cczcmggF.s:3528   .text.TaskFermeCTL_CLI_DisableControl:00000034 $d
C:\Users\8bit\AppData\Local\Temp\cczcmggF.s:3537   .rodata.TaskFrameCTL_FileAccept_Enable.str1.4:00000000 $d
C:\Users\8bit\AppData\Local\Temp\cczcmggF.s:3568   .text.TaskFrameCTL_FileAccept_Enable:00000000 $t
C:\Users\8bit\AppData\Local\Temp\cczcmggF.s:3573   .text.TaskFrameCTL_FileAccept_Enable:00000000 TaskFrameCTL_FileAccept_Enable
C:\Users\8bit\AppData\Local\Temp\cczcmggF.s:3762   .text.TaskFrameCTL_FileAccept_Enable:000000e0 $d
C:\Users\8bit\AppData\Local\Temp\cczcmggF.s:3783   .text.TaskFrameCTL_Init:00000000 $t
C:\Users\8bit\AppData\Local\Temp\cczcmggF.s:3789   .text.TaskFrameCTL_Init:00000000 TaskFrameCTL_Init
C:\Users\8bit\AppData\Local\Temp\cczcmggF.s:3942   .text.TaskFrameCTL_Init:000000a4 $d
C:\Users\8bit\AppData\Local\Temp\cczcmggF.s:3959   .text.TaskFrameCTL_Core:00000000 $t
C:\Users\8bit\AppData\Local\Temp\cczcmggF.s:3965   .text.TaskFrameCTL_Core:00000000 TaskFrameCTL_Core
C:\Users\8bit\AppData\Local\Temp\cczcmggF.s:4050   .text.TaskFrameCTL_Core:00000054 $d
C:\Users\8bit\AppData\Local\Temp\cczcmggF.s:4407   shellCommand:00000000 shellCommandfile_rec
C:\Users\8bit\AppData\Local\Temp\cczcmggF.s:4401   .rodata.shellDescfile_rec:00000000 shellDescfile_rec
C:\Users\8bit\AppData\Local\Temp\cczcmggF.s:4389   .rodata.shellCmdfile_rec:00000000 shellCmdfile_rec
C:\Users\8bit\AppData\Local\Temp\cczcmggF.s:4414   shellCommand:00000010 shellCommandCLI_Disable
C:\Users\8bit\AppData\Local\Temp\cczcmggF.s:4395   .rodata.shellDescCLI_Disable:00000000 shellDescCLI_Disable
C:\Users\8bit\AppData\Local\Temp\cczcmggF.s:4383   .rodata.shellCmdCLI_Disable:00000000 shellCmdCLI_Disable
C:\Users\8bit\AppData\Local\Temp\cczcmggF.s:4159   .bss.RadioProto_MAV_Altitude:00000000 RadioProto_MAV_Altitude
C:\Users\8bit\AppData\Local\Temp\cczcmggF.s:4166   .bss.RadioProto_MAV_Attitude:00000000 RadioProto_MAV_Attitude
C:\Users\8bit\AppData\Local\Temp\cczcmggF.s:4173   .bss.RadioProto_MAV_MotoChannel:00000000 RadioProto_MAV_MotoChannel
C:\Users\8bit\AppData\Local\Temp\cczcmggF.s:4187   .bss.RadioProto_MAV_RcChannel:00000000 RadioProto_MAV_RcChannel
C:\Users\8bit\AppData\Local\Temp\cczcmggF.s:4194   .bss.RadioProto_MAV_ScaledIMU:00000000 RadioProto_MAV_ScaledIMU
C:\Users\8bit\AppData\Local\Temp\cczcmggF.s:4180   .bss.RadioProto_MAV_RawIMU:00000000 RadioProto_MAV_RawIMU
C:\Users\8bit\AppData\Local\Temp\cczcmggF.s:4214   .bss.TaskProto_MAV_Altitude:00000000 TaskProto_MAV_Altitude
C:\Users\8bit\AppData\Local\Temp\cczcmggF.s:4228   .bss.TaskProto_MAV_Exp_Attitude:00000000 TaskProto_MAV_Exp_Attitude
C:\Users\8bit\AppData\Local\Temp\cczcmggF.s:4221   .bss.TaskProto_MAV_Attitude:00000000 TaskProto_MAV_Attitude
C:\Users\8bit\AppData\Local\Temp\cczcmggF.s:4235   .bss.TaskProto_MAV_MotoChannel:00000000 TaskProto_MAV_MotoChannel
C:\Users\8bit\AppData\Local\Temp\cczcmggF.s:4249   .bss.TaskProto_MAV_RcChannel:00000000 TaskProto_MAV_RcChannel
C:\Users\8bit\AppData\Local\Temp\cczcmggF.s:4256   .bss.TaskProto_MAV_ScaledIMU:00000000 TaskProto_MAV_ScaledIMU
C:\Users\8bit\AppData\Local\Temp\cczcmggF.s:4242   .bss.TaskProto_MAV_RawIMU:00000000 TaskProto_MAV_RawIMU
C:\Users\8bit\AppData\Local\Temp\cczcmggF.s:4131   .bss.InPut_MavData:00000000 InPut_MavData
C:\Users\8bit\AppData\Local\Temp\cczcmggF.s:4078   .Perph_Section:00000000 $d
ARM GAS  C:\Users\8bit\AppData\Local\Temp\cczcmggF.s 			page 119


C:\Users\8bit\AppData\Local\Temp\cczcmggF.s:4082   .Perph_Section:00000000 VCP_Attach_State_PipeDataObj
C:\Users\8bit\AppData\Local\Temp\cczcmggF.s:4087   .Perph_Section:00000004 CLIRxBuf
C:\Users\8bit\AppData\Local\Temp\cczcmggF.s:4091   .Perph_Section:00000204 MavShareBuf
C:\Users\8bit\AppData\Local\Temp\cczcmggF.s:4094   .bss.CLIPrintBuf:00000000 $d
C:\Users\8bit\AppData\Local\Temp\cczcmggF.s:4098   .bss.CLIPrintBuf:00000000 CLIPrintBuf
C:\Users\8bit\AppData\Local\Temp\cczcmggF.s:4101   .bss.CLIProcBuf:00000000 $d
C:\Users\8bit\AppData\Local\Temp\cczcmggF.s:4104   .bss.CLIProcBuf:00000000 CLIProcBuf
C:\Users\8bit\AppData\Local\Temp\cczcmggF.s:4107   .bss.DefaultPort_MavMsgInput_Obj:00000000 $d
C:\Users\8bit\AppData\Local\Temp\cczcmggF.s:4111   .bss.DefaultPort_MavMsgInput_Obj:00000000 DefaultPort_MavMsgInput_Obj
C:\Users\8bit\AppData\Local\Temp\cczcmggF.s:4117   .bss.FrameCTL_MavProto_Enable:00000000 FrameCTL_MavProto_Enable
C:\Users\8bit\AppData\Local\Temp\cczcmggF.s:4118   .bss.FrameCTL_MavProto_Enable:00000000 $d
C:\Users\8bit\AppData\Local\Temp\cczcmggF.s:4120   .bss.FrameCTL_Period:00000000 $d
C:\Users\8bit\AppData\Local\Temp\cczcmggF.s:4124   .bss.FrameCTL_Period:00000000 FrameCTL_Period
C:\Users\8bit\AppData\Local\Temp\cczcmggF.s:4127   .bss.InPut_MavData:00000000 $d
C:\Users\8bit\AppData\Local\Temp\cczcmggF.s:4134   .bss.InUsePort_MavMsgInput_Obj:00000000 $d
C:\Users\8bit\AppData\Local\Temp\cczcmggF.s:4138   .bss.InUsePort_MavMsgInput_Obj:00000000 InUsePort_MavMsgInput_Obj
C:\Users\8bit\AppData\Local\Temp\cczcmggF.s:4141   .bss.PortMonitor:00000000 $d
C:\Users\8bit\AppData\Local\Temp\cczcmggF.s:4145   .bss.PortMonitor:00000000 PortMonitor
C:\Users\8bit\AppData\Local\Temp\cczcmggF.s:4148   .bss.RadioPort_MavMsgInput_Obj:00000000 $d
C:\Users\8bit\AppData\Local\Temp\cczcmggF.s:4152   .bss.RadioPort_MavMsgInput_Obj:00000000 RadioPort_MavMsgInput_Obj
C:\Users\8bit\AppData\Local\Temp\cczcmggF.s:4155   .bss.RadioProto_MAV_Altitude:00000000 $d
C:\Users\8bit\AppData\Local\Temp\cczcmggF.s:4162   .bss.RadioProto_MAV_Attitude:00000000 $d
C:\Users\8bit\AppData\Local\Temp\cczcmggF.s:4169   .bss.RadioProto_MAV_MotoChannel:00000000 $d
C:\Users\8bit\AppData\Local\Temp\cczcmggF.s:4176   .bss.RadioProto_MAV_RawIMU:00000000 $d
C:\Users\8bit\AppData\Local\Temp\cczcmggF.s:4183   .bss.RadioProto_MAV_RcChannel:00000000 $d
C:\Users\8bit\AppData\Local\Temp\cczcmggF.s:4190   .bss.RadioProto_MAV_ScaledIMU:00000000 $d
C:\Users\8bit\AppData\Local\Temp\cczcmggF.s:4197   .bss.RadioRxBuff:00000000 $d
C:\Users\8bit\AppData\Local\Temp\cczcmggF.s:4200   .bss.RadioRxBuff:00000000 RadioRxBuff
C:\Users\8bit\AppData\Local\Temp\cczcmggF.s:4203   .bss.Radio_Addr:00000000 $d
C:\Users\8bit\AppData\Local\Temp\cczcmggF.s:4207   .bss.Radio_Addr:00000000 Radio_Addr
C:\Users\8bit\AppData\Local\Temp\cczcmggF.s:4210   .bss.TaskProto_MAV_Altitude:00000000 $d
C:\Users\8bit\AppData\Local\Temp\cczcmggF.s:4217   .bss.TaskProto_MAV_Attitude:00000000 $d
C:\Users\8bit\AppData\Local\Temp\cczcmggF.s:4224   .bss.TaskProto_MAV_Exp_Attitude:00000000 $d
C:\Users\8bit\AppData\Local\Temp\cczcmggF.s:4231   .bss.TaskProto_MAV_MotoChannel:00000000 $d
C:\Users\8bit\AppData\Local\Temp\cczcmggF.s:4238   .bss.TaskProto_MAV_RawIMU:00000000 $d
C:\Users\8bit\AppData\Local\Temp\cczcmggF.s:4245   .bss.TaskProto_MAV_RcChannel:00000000 $d
C:\Users\8bit\AppData\Local\Temp\cczcmggF.s:4252   .bss.TaskProto_MAV_ScaledIMU:00000000 $d
C:\Users\8bit\AppData\Local\Temp\cczcmggF.s:4259   .bss.USB_RxBuf_Tmp:00000000 $d
C:\Users\8bit\AppData\Local\Temp\cczcmggF.s:4262   .bss.USB_RxBuf_Tmp:00000000 USB_RxBuf_Tmp
C:\Users\8bit\AppData\Local\Temp\cczcmggF.s:4265   .bss.USB_VCP_Addr:00000000 $d
C:\Users\8bit\AppData\Local\Temp\cczcmggF.s:4269   .bss.USB_VCP_Addr:00000000 USB_VCP_Addr
C:\Users\8bit\AppData\Local\Temp\cczcmggF.s:4272   .bss.Uart_RxBuf_Tmp:00000000 $d
C:\Users\8bit\AppData\Local\Temp\cczcmggF.s:4275   .bss.Uart_RxBuf_Tmp:00000000 Uart_RxBuf_Tmp
C:\Users\8bit\AppData\Local\Temp\cczcmggF.s:4278   .bss.Upgrade_Monitor:00000000 $d
C:\Users\8bit\AppData\Local\Temp\cczcmggF.s:4282   .bss.Upgrade_Monitor:00000000 Upgrade_Monitor
C:\Users\8bit\AppData\Local\Temp\cczcmggF.s:4285   .data.CLI_Monitor:00000000 $d
C:\Users\8bit\AppData\Local\Temp\cczcmggF.s:4289   .data.CLI_Monitor:00000000 CLI_Monitor
C:\Users\8bit\AppData\Local\Temp\cczcmggF.s:4309   .data.CLI_RX_Stream:00000000 CLI_RX_Stream
C:\Users\8bit\AppData\Local\Temp\cczcmggF.s:4301   .data.CLI_Proc_Stream:00000000 CLI_Proc_Stream
C:\Users\8bit\AppData\Local\Temp\cczcmggF.s:4298   .data.CLI_Proc_Stream:00000000 $d
C:\Users\8bit\AppData\Local\Temp\cczcmggF.s:4306   .data.CLI_RX_Stream:00000000 $d
C:\Users\8bit\AppData\Local\Temp\cczcmggF.s:4314   .data.MavStream:00000000 $d
C:\Users\8bit\AppData\Local\Temp\cczcmggF.s:4318   .data.MavStream:00000000 MavStream
C:\Users\8bit\AppData\Local\Temp\cczcmggF.s:4323   .data.Radio_Port1_UartObj:00000000 $d
C:\Users\8bit\AppData\Local\Temp\cczcmggF.s:4326   .data.Radio_Port1_UartObj:00000000 Radio_Port1_UartObj
C:\Users\8bit\AppData\Local\Temp\cczcmggF.s:4353   .data.Radio_UartPort_List:00000000 $d
C:\Users\8bit\AppData\Local\Temp\cczcmggF.s:4357   .data.Radio_UartPort_List:00000000 Radio_UartPort_List
ARM GAS  C:\Users\8bit\AppData\Local\Temp\cczcmggF.s 			page 120


C:\Users\8bit\AppData\Local\Temp\cczcmggF.s:4362   .data.USBRx_Stream:00000000 $d
C:\Users\8bit\AppData\Local\Temp\cczcmggF.s:4366   .data.USBRx_Stream:00000000 USBRx_Stream
C:\Users\8bit\AppData\Local\Temp\cczcmggF.s:4371   .data.UartRx_Stream:00000000 $d
C:\Users\8bit\AppData\Local\Temp\cczcmggF.s:4375   .data.UartRx_Stream:00000000 UartRx_Stream
C:\Users\8bit\AppData\Local\Temp\cczcmggF.s:4380   .rodata.shellCmdCLI_Disable:00000000 $d
C:\Users\8bit\AppData\Local\Temp\cczcmggF.s:4386   .rodata.shellCmdfile_rec:00000000 $d
C:\Users\8bit\AppData\Local\Temp\cczcmggF.s:4392   .rodata.shellDescCLI_Disable:00000000 $d
C:\Users\8bit\AppData\Local\Temp\cczcmggF.s:4398   .rodata.shellDescfile_rec:00000000 $d
C:\Users\8bit\AppData\Local\Temp\cczcmggF.s:4404   shellCommand:00000000 $d

UNDEFINED SYMBOLS
SrvOsCommon
SrvDataHub
SrvComProto
osSemaphoreWait
BspUart
BspUSB_VCP
osSemaphoreCreate
memcpy
memset
memmove
SrvUpgrade
osSemaphoreRelease
DataPipe_SendTo
VCP_Connect_hub_DataPipe
VCP_Connect_smp_DataPipe
Shell_GetInstence
shellHandler
shellPrint
AppVer
HWVer
Shell_Init
Uart1_Tx_Port
Uart1_Rx_Port
