ARM GAS  C:\Users\8bit\AppData\Local\Temp\ccqwqzi2.s 			page 1


   1              		.cpu cortex-m4
   2              		.arch armv7e-m
   3              		.fpu fpv4-sp-d16
   4              		.eabi_attribute 27, 1
   5              		.eabi_attribute 28, 1
   6              		.eabi_attribute 20, 1
   7              		.eabi_attribute 21, 1
   8              		.eabi_attribute 23, 3
   9              		.eabi_attribute 24, 1
  10              		.eabi_attribute 25, 1
  11              		.eabi_attribute 26, 1
  12              		.eabi_attribute 30, 1
  13              		.eabi_attribute 34, 1
  14              		.eabi_attribute 18, 4
  15              		.file	"Task_Protocol.c"
  16              		.text
  17              	.Ltext0:
  18              		.cfi_sections	.debug_frame
  19              		.section	.text.TaskFrameCTL_Set_RadioPort,"ax",%progbits
  20              		.align	1
  21              		.syntax unified
  22              		.thumb
  23              		.thumb_func
  25              	TaskFrameCTL_Set_RadioPort:
  26              	.LVL0:
  27              	.LFB2079:
  28              		.file 1 "Task/Task_Protocol.c"
   1:Task/Task_Protocol.c **** #include "Task_Protocol.h"
   2:Task/Task_Protocol.c **** #include "Srv_OsCommon.h"
   3:Task/Task_Protocol.c **** #include "HW_Def.h"
   4:Task/Task_Protocol.c **** #include "Srv_ComProto.h"
   5:Task/Task_Protocol.c **** #include "Srv_DataHub.h"
   6:Task/Task_Protocol.c **** #include "Srv_FileAdapter.h"
   7:Task/Task_Protocol.c **** #include "DataPipe.h"
   8:Task/Task_Protocol.c **** #include "Storage.h"
   9:Task/Task_Protocol.c **** #include "debug_util.h"
  10:Task/Task_Protocol.c **** #include "pid.h"
  11:Task/Task_Protocol.c **** 
  12:Task/Task_Protocol.c **** #define PROTO_STREAM_BUF_SIZE (1024 + 128)
  13:Task/Task_Protocol.c **** #define SLIENT_TIMEOUT 200              /* unit: ms 200ms */
  14:Task/Task_Protocol.c **** #define TUNNING_TIMEOUT 2000            /* unit: ms 1S */
  15:Task/Task_Protocol.c **** 
  16:Task/Task_Protocol.c **** #define CLI_FUNC_BUF_SIZE 512
  17:Task/Task_Protocol.c **** #define RADIO_BUFF_SIZE PROTO_STREAM_BUF_SIZE
  18:Task/Task_Protocol.c **** 
  19:Task/Task_Protocol.c **** #if (RADIO_UART_NUM > 0)
  20:Task/Task_Protocol.c **** static uint8_t RadioRxBuff[RADIO_UART_NUM][RADIO_BUFF_SIZE];
  21:Task/Task_Protocol.c **** 
  22:Task/Task_Protocol.c **** static BspUARTObj_TypeDef Radio_Port1_UartObj = {
  23:Task/Task_Protocol.c ****     .instance = RADIO_PORT,
  24:Task/Task_Protocol.c ****     .baudrate = RADIO_PORT_BAUD,
  25:Task/Task_Protocol.c ****     .tx_io = {
  26:Task/Task_Protocol.c ****         .init_state = RADIO_TX_PIN_INIT_STATE,
  27:Task/Task_Protocol.c ****         .pin = RADIO_TX_PIN,
  28:Task/Task_Protocol.c ****         .port = RADIO_TX_PORT,
  29:Task/Task_Protocol.c ****         .alternate = RADIO_TX_PIN_ALT,
  30:Task/Task_Protocol.c ****     }, 
ARM GAS  C:\Users\8bit\AppData\Local\Temp\ccqwqzi2.s 			page 2


  31:Task/Task_Protocol.c ****     .rx_io = {
  32:Task/Task_Protocol.c ****         .init_state = RADIO_RX_PIN_INIT_STATE,
  33:Task/Task_Protocol.c ****         .pin = RADIO_RX_PIN,
  34:Task/Task_Protocol.c ****         .port = RADIO_RX_PORT,
  35:Task/Task_Protocol.c ****         .alternate = RADIO_RX_PIN_ALT,
  36:Task/Task_Protocol.c ****     }, 
  37:Task/Task_Protocol.c ****     .pin_swap = false,
  38:Task/Task_Protocol.c ****     .rx_dma = RADIO_RX_DMA,
  39:Task/Task_Protocol.c ****     .rx_stream = RADIO_RX_DMA_STREAM,
  40:Task/Task_Protocol.c ****     .tx_dma = RADIO_TX_DMA,
  41:Task/Task_Protocol.c ****     .tx_stream = RADIO_TX_DMA_STREAM,
  42:Task/Task_Protocol.c ****     .rx_buf = RadioRxBuff[0],
  43:Task/Task_Protocol.c ****     .rx_size = RADIO_BUFF_SIZE,
  44:Task/Task_Protocol.c **** };
  45:Task/Task_Protocol.c **** 
  46:Task/Task_Protocol.c **** static FrameCTL_UartPortMonitor_TypeDef Radio_UartPort_List[RADIO_UART_NUM] = {
  47:Task/Task_Protocol.c ****     [0] = {.init_state = false,
  48:Task/Task_Protocol.c ****            .Obj = &Radio_Port1_UartObj},
  49:Task/Task_Protocol.c **** };
  50:Task/Task_Protocol.c **** #endif
  51:Task/Task_Protocol.c **** 
  52:Task/Task_Protocol.c **** typedef struct
  53:Task/Task_Protocol.c **** {
  54:Task/Task_Protocol.c ****     FrameCTL_MavATTIn_TypeDef exp_att;
  55:Task/Task_Protocol.c ****     FrameCTL_MavGyrIn_TypeDef exp_gyr;
  56:Task/Task_Protocol.c ****     FrameCTL_MavAltIn_TypeDef exp_alt;
  57:Task/Task_Protocol.c ****     
  58:Task/Task_Protocol.c ****     FrameCTL_MavPIDIn_TypeDef pid_roll;
  59:Task/Task_Protocol.c ****     FrameCTL_MavPIDIn_TypeDef pid_pitch;
  60:Task/Task_Protocol.c **** 
  61:Task/Task_Protocol.c ****     FrameCTL_MavPIDIn_TypeDef pid_gyr_x;
  62:Task/Task_Protocol.c ****     FrameCTL_MavPIDIn_TypeDef pid_gyr_y;
  63:Task/Task_Protocol.c ****     FrameCTL_MavPIDIn_TypeDef pid_gyr_z;
  64:Task/Task_Protocol.c **** } FrameCTL_MavTunningMonitor_TypeDef;
  65:Task/Task_Protocol.c **** 
  66:Task/Task_Protocol.c **** /* internal variable */
  67:Task/Task_Protocol.c **** FrameCTL_MavTunningMonitor_TypeDef InPut_MavData;
  68:Task/Task_Protocol.c **** 
  69:Task/Task_Protocol.c **** /* MAVLink message List */
  70:Task/Task_Protocol.c **** SrvComProto_MsgInfo_TypeDef TaskProto_MAV_RawIMU;
  71:Task/Task_Protocol.c **** SrvComProto_MsgInfo_TypeDef TaskProto_MAV_ScaledIMU;
  72:Task/Task_Protocol.c **** SrvComProto_MsgInfo_TypeDef TaskProto_MAV_RcChannel;
  73:Task/Task_Protocol.c **** SrvComProto_MsgInfo_TypeDef TaskProto_MAV_MotoChannel;
  74:Task/Task_Protocol.c **** SrvComProto_MsgInfo_TypeDef TaskProto_MAV_Attitude;
  75:Task/Task_Protocol.c **** SrvComProto_MsgInfo_TypeDef TaskProto_MAV_Exp_Attitude;
  76:Task/Task_Protocol.c **** SrvComProto_MsgInfo_TypeDef TaskProto_MAV_Altitude;
  77:Task/Task_Protocol.c **** 
  78:Task/Task_Protocol.c **** SrvComProto_MsgInfo_TypeDef RadioProto_MAV_RawIMU;
  79:Task/Task_Protocol.c **** SrvComProto_MsgInfo_TypeDef RadioProto_MAV_ScaledIMU;
  80:Task/Task_Protocol.c **** SrvComProto_MsgInfo_TypeDef RadioProto_MAV_RcChannel;
  81:Task/Task_Protocol.c **** SrvComProto_MsgInfo_TypeDef RadioProto_MAV_MotoChannel;
  82:Task/Task_Protocol.c **** SrvComProto_MsgInfo_TypeDef RadioProto_MAV_Attitude;
  83:Task/Task_Protocol.c **** SrvComProto_MsgInfo_TypeDef RadioProto_MAV_Altitude;
  84:Task/Task_Protocol.c **** 
  85:Task/Task_Protocol.c **** static SrvComProto_MsgObj_TypeDef *InUsePort_MavMsgInput_Obj;
  86:Task/Task_Protocol.c **** static SrvComProto_MsgObj_TypeDef DefaultPort_MavMsgInput_Obj;
  87:Task/Task_Protocol.c **** static SrvComProto_MsgObj_TypeDef RadioPort_MavMsgInput_Obj;
ARM GAS  C:\Users\8bit\AppData\Local\Temp\ccqwqzi2.s 			page 3


  88:Task/Task_Protocol.c **** 
  89:Task/Task_Protocol.c **** static bool FrameCTL_MavProto_Enable = false;
  90:Task/Task_Protocol.c **** static FrameCTL_PortMonitor_TypeDef PortMonitor = {.init = false};
  91:Task/Task_Protocol.c **** static uint32_t FrameCTL_Period = 0;
  92:Task/Task_Protocol.c **** static __attribute__((section(".Perph_Section"))) uint8_t MavShareBuf[1024];
  93:Task/Task_Protocol.c **** static __attribute__((section(".Perph_Section"))) uint8_t CLIRxBuf[CLI_FUNC_BUF_SIZE];
  94:Task/Task_Protocol.c **** static uint8_t CLIProcBuf[CLI_FUNC_BUF_SIZE];
  95:Task/Task_Protocol.c **** static uint8_t CLIPrintBuf[CLI_FUNC_BUF_SIZE];
  96:Task/Task_Protocol.c **** static uint8_t Uart_RxBuf_Tmp[PROTO_STREAM_BUF_SIZE];
  97:Task/Task_Protocol.c **** static uint8_t USB_RxBuf_Tmp[PROTO_STREAM_BUF_SIZE];
  98:Task/Task_Protocol.c **** static uint32_t Radio_Addr = 0;
  99:Task/Task_Protocol.c **** static uint32_t USB_VCP_Addr = 0;
 100:Task/Task_Protocol.c **** DataPipe_CreateDataObj(bool, VCP_Attach_State);
 101:Task/Task_Protocol.c **** 
 102:Task/Task_Protocol.c **** static SrvComProto_Stream_TypeDef UartRx_Stream = {
 103:Task/Task_Protocol.c ****     .p_buf = Uart_RxBuf_Tmp,
 104:Task/Task_Protocol.c ****     .size = 0,
 105:Task/Task_Protocol.c ****     .max_size = sizeof(Uart_RxBuf_Tmp),
 106:Task/Task_Protocol.c **** };
 107:Task/Task_Protocol.c **** 
 108:Task/Task_Protocol.c **** static SrvComProto_Stream_TypeDef USBRx_Stream = {
 109:Task/Task_Protocol.c ****     .p_buf = USB_RxBuf_Tmp,
 110:Task/Task_Protocol.c ****     .size = 0,
 111:Task/Task_Protocol.c ****     .max_size = sizeof(USB_RxBuf_Tmp),
 112:Task/Task_Protocol.c **** };
 113:Task/Task_Protocol.c **** 
 114:Task/Task_Protocol.c **** static SrvComProto_Stream_TypeDef MavStream = {
 115:Task/Task_Protocol.c ****     .p_buf = MavShareBuf,
 116:Task/Task_Protocol.c ****     .size = 0,
 117:Task/Task_Protocol.c ****     .max_size = sizeof(MavShareBuf),
 118:Task/Task_Protocol.c **** };
 119:Task/Task_Protocol.c **** 
 120:Task/Task_Protocol.c **** static SrvComProto_Stream_TypeDef CLI_RX_Stream = {
 121:Task/Task_Protocol.c ****     .p_buf = CLIRxBuf,
 122:Task/Task_Protocol.c ****     .size = 0,
 123:Task/Task_Protocol.c ****     .max_size = sizeof(CLIRxBuf),
 124:Task/Task_Protocol.c **** };
 125:Task/Task_Protocol.c **** 
 126:Task/Task_Protocol.c **** static SrvComProto_Stream_TypeDef CLI_Proc_Stream = {
 127:Task/Task_Protocol.c ****     .p_buf = CLIProcBuf,
 128:Task/Task_Protocol.c ****     .size = 0,
 129:Task/Task_Protocol.c ****     .max_size = sizeof(CLIProcBuf),
 130:Task/Task_Protocol.c **** };
 131:Task/Task_Protocol.c **** 
 132:Task/Task_Protocol.c **** static FrameCTL_CLIMonitor_TypeDef CLI_Monitor = {
 133:Task/Task_Protocol.c ****     .port_addr = 0,
 134:Task/Task_Protocol.c ****     .p_rx_stream = &CLI_RX_Stream,
 135:Task/Task_Protocol.c ****     .p_proc_stream = &CLI_Proc_Stream,
 136:Task/Task_Protocol.c ****     .slient_type = Slient_Disable,
 137:Task/Task_Protocol.c ****     .slient_timeout = 0,
 138:Task/Task_Protocol.c **** };
 139:Task/Task_Protocol.c **** 
 140:Task/Task_Protocol.c **** static FrameCTL_UpgradeMonitor_TypeDef Upgrade_Monitor = {
 141:Task/Task_Protocol.c ****     .is_enable = false,
 142:Task/Task_Protocol.c ****     .flash_enable = false,
 143:Task/Task_Protocol.c **** };
 144:Task/Task_Protocol.c **** 
ARM GAS  C:\Users\8bit\AppData\Local\Temp\ccqwqzi2.s 			page 4


 145:Task/Task_Protocol.c **** /* upgrade section */
 146:Task/Task_Protocol.c **** static bool TaskFrameCTL_Upgrade_Enable(bool state, FileInfo_TypeDef file_info, uint32_t port_addr,
 147:Task/Task_Protocol.c **** static void TaskFrameCTL_Upgrade_StatePolling(bool cli);
 148:Task/Task_Protocol.c **** 
 149:Task/Task_Protocol.c **** /* frame section */
 150:Task/Task_Protocol.c **** static void TaskFrameCTL_PortFrameOut_Process(void);
 151:Task/Task_Protocol.c **** static void TaskFrameCTL_MavMsg_Trans(FrameCTL_Monitor_TypeDef *Obj, uint8_t *p_data, uint16_t size
 152:Task/Task_Protocol.c **** 
 153:Task/Task_Protocol.c **** /* mavlinke frame decode callback */
 154:Task/Task_Protocol.c **** static bool TaskFrame_Mav_ExpAtt_Callback(void const *mav_data, void *cus_data);
 155:Task/Task_Protocol.c **** static bool TaskFrame_Mav_ExpGyro_Callback(void const *mav_data, void *cus_data);
 156:Task/Task_Protocol.c **** static bool TaskFrame_Mav_ExpAlt_Callback(void const *mav_data, void *cus_data);
 157:Task/Task_Protocol.c **** static bool TaskFrame_Mav_PID_Roll_Callback(void const *mav_data, void *cus_data);
 158:Task/Task_Protocol.c **** static bool TaskFrame_Mav_PID_Pitch_Callback(void const *mav_data, void *cus_data);
 159:Task/Task_Protocol.c **** static bool TaskFrame_Mav_PID_GyrX_Callback(void const *mav_data, void *cus_data);
 160:Task/Task_Protocol.c **** static bool TaskFrame_Mav_PID_GyrY_Callback(void const *mav_data, void *cus_data);
 161:Task/Task_Protocol.c **** static bool TaskFrame_Mav_PID_GyrZ_Callback(void const *mav_data, void *cus_data);
 162:Task/Task_Protocol.c **** 
 163:Task/Task_Protocol.c **** /* default vcp port section */
 164:Task/Task_Protocol.c **** static void TaskFrameCTL_DefaultPort_Init(FrameCTL_PortMonitor_TypeDef *monitor);
 165:Task/Task_Protocol.c **** static void TaskFrameCTL_RadioPort_Init(FrameCTL_PortMonitor_TypeDef *monitor);
 166:Task/Task_Protocol.c **** static bool TaskFrameCTL_MAV_Msg_Init(void);
 167:Task/Task_Protocol.c **** static void TaskFrameCTL_Port_Rx_Callback(uint32_t RecObj_addr, uint8_t *p_data, uint16_t size);
 168:Task/Task_Protocol.c **** static void TaskFrameCTL_Port_TxCplt_Callback(uint32_t RecObj_addr, uint8_t *p_data, uint32_t *size
 169:Task/Task_Protocol.c **** static void TaskFrameCTL_USB_VCP_Connect_Callback(uint32_t Obj_addr, uint32_t *time_stamp);
 170:Task/Task_Protocol.c **** static uint32_t TaskFrameCTL_Set_RadioPort(FrameCTL_PortType_List port_type, uint16_t index);
 171:Task/Task_Protocol.c **** static bool TaskFrameCTL_Port_Tx(uint32_t obj_addr, uint8_t *p_data, uint16_t size);
 172:Task/Task_Protocol.c **** static bool TaskFrameCTL_DefaultPort_Trans(uint8_t *p_data, uint16_t size);
 173:Task/Task_Protocol.c **** static void TaskFrameCTL_ConfigureStateCheck(void);
 174:Task/Task_Protocol.c **** static void TaskFrameCTL_CLI_Proc(void);
 175:Task/Task_Protocol.c **** static int TaskFrameCTL_CLI_Trans(const uint8_t *p_data, uint16_t size);
 176:Task/Task_Protocol.c **** 
 177:Task/Task_Protocol.c **** void TaskFrameCTL_Init(uint32_t period)
 178:Task/Task_Protocol.c **** {
 179:Task/Task_Protocol.c ****     FrameCTL_Period = FrameCTL_MAX_Period;
 180:Task/Task_Protocol.c **** 
 181:Task/Task_Protocol.c ****     /* USB VCP as defaut port to tune parameter and frame porotcol */
 182:Task/Task_Protocol.c ****     memset(&PortMonitor, 0, sizeof(PortMonitor));
 183:Task/Task_Protocol.c ****     memset(&DefaultPort_MavMsgInput_Obj, 0, sizeof(SrvComProto_MsgObj_TypeDef));
 184:Task/Task_Protocol.c ****     memset(&RadioPort_MavMsgInput_Obj, 0, sizeof(SrvComProto_MsgObj_TypeDef));
 185:Task/Task_Protocol.c **** 
 186:Task/Task_Protocol.c ****     /* param init */
 187:Task/Task_Protocol.c ****     memset(&InPut_MavData, 0, sizeof(FrameCTL_MavTunningMonitor_TypeDef));
 188:Task/Task_Protocol.c **** 
 189:Task/Task_Protocol.c ****     TaskFrameCTL_DefaultPort_Init(&PortMonitor);
 190:Task/Task_Protocol.c ****     TaskFrameCTL_RadioPort_Init(&PortMonitor);
 191:Task/Task_Protocol.c ****     Radio_Addr = TaskFrameCTL_Set_RadioPort(Port_Uart, 0);
 192:Task/Task_Protocol.c **** 
 193:Task/Task_Protocol.c ****     PortMonitor.init = true;
 194:Task/Task_Protocol.c ****     
 195:Task/Task_Protocol.c ****     /* init radio protocol*/
 196:Task/Task_Protocol.c ****     FrameCTL_MavProto_Enable = TaskFrameCTL_MAV_Msg_Init();
 197:Task/Task_Protocol.c **** 
 198:Task/Task_Protocol.c ****     if(period && (period <= FrameCTL_MAX_Period))
 199:Task/Task_Protocol.c ****     {
 200:Task/Task_Protocol.c ****         FrameCTL_Period = period;
 201:Task/Task_Protocol.c ****     }
ARM GAS  C:\Users\8bit\AppData\Local\Temp\ccqwqzi2.s 			page 5


 202:Task/Task_Protocol.c **** 
 203:Task/Task_Protocol.c ****     /* Shell Init */
 204:Task/Task_Protocol.c ****     Shell_Init(TaskFrameCTL_CLI_Trans, CLI_Monitor.p_proc_stream->p_buf, CLI_Monitor.p_proc_stream-
 205:Task/Task_Protocol.c **** 
 206:Task/Task_Protocol.c ****     memset(&VCP_Connect_smp_DataPipe, 0, sizeof(VCP_Connect_smp_DataPipe));
 207:Task/Task_Protocol.c ****     memset(DataPipe_DataObjAddr(VCP_Attach_State), 0, sizeof(DataPipe_DataObj(VCP_Attach_State)));
 208:Task/Task_Protocol.c **** 
 209:Task/Task_Protocol.c ****     VCP_Connect_smp_DataPipe.data_addr = (uint32_t)DataPipe_DataObjAddr(VCP_Attach_State);
 210:Task/Task_Protocol.c ****     VCP_Connect_smp_DataPipe.data_size = sizeof(DataPipe_DataObj(VCP_Attach_State));
 211:Task/Task_Protocol.c **** 
 212:Task/Task_Protocol.c ****     SrvOsCommon.delay_ms(50);
 213:Task/Task_Protocol.c ****     DataPipe_Enable(&VCP_Connect_smp_DataPipe);
 214:Task/Task_Protocol.c **** 
 215:Task/Task_Protocol.c ****     /* init upgrade */
 216:Task/Task_Protocol.c ****     memset(&Upgrade_Monitor.file_info, 0, sizeof(Upgrade_Monitor.file_info));
 217:Task/Task_Protocol.c **** }
 218:Task/Task_Protocol.c **** 
 219:Task/Task_Protocol.c **** void TaskFrameCTL_Core(void const *arg)
 220:Task/Task_Protocol.c **** {
 221:Task/Task_Protocol.c ****     uint32_t per_time = SrvOsCommon.get_os_ms();
 222:Task/Task_Protocol.c ****     bool cli_state = false;
 223:Task/Task_Protocol.c **** 
 224:Task/Task_Protocol.c ****     while(1)
 225:Task/Task_Protocol.c ****     {
 226:Task/Task_Protocol.c ****         TaskFrameCTL_ConfigureStateCheck();
 227:Task/Task_Protocol.c ****         SrvDataHub.get_cli_state(&cli_state);
 228:Task/Task_Protocol.c **** 
 229:Task/Task_Protocol.c ****         if (!Upgrade_Monitor.is_enable)
 230:Task/Task_Protocol.c ****         {
 231:Task/Task_Protocol.c ****             if (!cli_state)
 232:Task/Task_Protocol.c ****             {
 233:Task/Task_Protocol.c ****                 /* frame protocol process */
 234:Task/Task_Protocol.c ****                 TaskFrameCTL_PortFrameOut_Process();
 235:Task/Task_Protocol.c ****             }
 236:Task/Task_Protocol.c ****             else
 237:Task/Task_Protocol.c ****                 /* command line process */
 238:Task/Task_Protocol.c ****                 TaskFrameCTL_CLI_Proc();
 239:Task/Task_Protocol.c ****         }
 240:Task/Task_Protocol.c ****         else
 241:Task/Task_Protocol.c ****             /* upgrade process */
 242:Task/Task_Protocol.c ****             TaskFrameCTL_Upgrade_StatePolling(cli_state);
 243:Task/Task_Protocol.c **** 
 244:Task/Task_Protocol.c ****         SrvOsCommon.precise_delay(&per_time, FrameCTL_Period);
 245:Task/Task_Protocol.c ****     }
 246:Task/Task_Protocol.c **** }
 247:Task/Task_Protocol.c **** 
 248:Task/Task_Protocol.c **** /*************************** ByPass Mode is still in developping *********************************/
 249:Task/Task_Protocol.c **** /************************************** radio section ********************************************/
 250:Task/Task_Protocol.c **** static void TaskFrameCTL_DefaultPort_Init(FrameCTL_PortMonitor_TypeDef *monitor)
 251:Task/Task_Protocol.c **** {
 252:Task/Task_Protocol.c ****     if(monitor)
 253:Task/Task_Protocol.c ****     {
 254:Task/Task_Protocol.c ****         if(BspUSB_VCP.init((uint32_t)&(monitor->VCP_Port.RecObj)) != BspUSB_Error_None)
 255:Task/Task_Protocol.c ****         {
 256:Task/Task_Protocol.c ****             /* init default port VCP first */
 257:Task/Task_Protocol.c ****             monitor->VCP_Port.init_state = false;
 258:Task/Task_Protocol.c ****             return;
ARM GAS  C:\Users\8bit\AppData\Local\Temp\ccqwqzi2.s 			page 6


 259:Task/Task_Protocol.c ****         }
 260:Task/Task_Protocol.c ****         else
 261:Task/Task_Protocol.c ****             monitor->VCP_Port.init_state = true;
 262:Task/Task_Protocol.c **** 
 263:Task/Task_Protocol.c ****         /* create USB VCP Tx semaphore */
 264:Task/Task_Protocol.c ****         osSemaphoreDef(DefaultPort_Tx);
 265:Task/Task_Protocol.c ****         monitor->VCP_Port.p_tx_semphr = osSemaphoreCreate(osSemaphore(DefaultPort_Tx), 1);
 266:Task/Task_Protocol.c **** 
 267:Task/Task_Protocol.c ****         if(monitor->VCP_Port.p_tx_semphr == NULL)
 268:Task/Task_Protocol.c ****         {
 269:Task/Task_Protocol.c ****             monitor->VCP_Port.init_state = false;
 270:Task/Task_Protocol.c ****             return;
 271:Task/Task_Protocol.c ****         }
 272:Task/Task_Protocol.c **** 
 273:Task/Task_Protocol.c ****         BspUSB_VCP.set_tx_cpl_callback(TaskFrameCTL_Port_TxCplt_Callback);
 274:Task/Task_Protocol.c ****         BspUSB_VCP.set_rx_callback(TaskFrameCTL_Port_Rx_Callback);
 275:Task/Task_Protocol.c ****         BspUSB_VCP.set_connect_callback(TaskFrameCTL_USB_VCP_Connect_Callback);
 276:Task/Task_Protocol.c **** 
 277:Task/Task_Protocol.c ****         monitor->VCP_Port.RecObj.PortObj_addr = (uint32_t)&(monitor->VCP_Port);
 278:Task/Task_Protocol.c ****         monitor->VCP_Port.RecObj.type = Port_USB;
 279:Task/Task_Protocol.c **** 
 280:Task/Task_Protocol.c ****         USB_VCP_Addr = (uint32_t)&(monitor->VCP_Port);
 281:Task/Task_Protocol.c ****     }
 282:Task/Task_Protocol.c **** }
 283:Task/Task_Protocol.c **** 
 284:Task/Task_Protocol.c **** static bool TaskFrameCTL_DefaultPort_Trans(uint8_t *p_data, uint16_t size)
 285:Task/Task_Protocol.c **** {
 286:Task/Task_Protocol.c ****     bool state = false;
 287:Task/Task_Protocol.c **** 
 288:Task/Task_Protocol.c ****     /* when attach to host device then send data */
 289:Task/Task_Protocol.c ****     if (PortMonitor.VCP_Port.init_state && \
 290:Task/Task_Protocol.c ****         PortMonitor.vcp_connect_state && \
 291:Task/Task_Protocol.c ****         PortMonitor.VCP_Port.p_tx_semphr && \
 292:Task/Task_Protocol.c ****         p_data && size)
 293:Task/Task_Protocol.c ****     {
 294:Task/Task_Protocol.c ****         state = true;
 295:Task/Task_Protocol.c ****         osSemaphoreWait(PortMonitor.VCP_Port.p_tx_semphr, 0);
 296:Task/Task_Protocol.c ****         if ((BspUSB_VCP.send(p_data, size) != BspUSB_Error_None) || \
 297:Task/Task_Protocol.c ****             (osSemaphoreWait(PortMonitor.VCP_Port.p_tx_semphr, FrameCTL_Port_Tx_TimeOut) != osOK))
 298:Task/Task_Protocol.c ****             state = false;
 299:Task/Task_Protocol.c ****     }
 300:Task/Task_Protocol.c **** 
 301:Task/Task_Protocol.c ****     return state;
 302:Task/Task_Protocol.c **** }
 303:Task/Task_Protocol.c **** 
 304:Task/Task_Protocol.c **** /************************************** radio port section *************************/
 305:Task/Task_Protocol.c **** static void TaskFrameCTL_RadioPort_Init(FrameCTL_PortMonitor_TypeDef *monitor)
 306:Task/Task_Protocol.c **** {
 307:Task/Task_Protocol.c ****     if(monitor)
 308:Task/Task_Protocol.c ****     {
 309:Task/Task_Protocol.c **** #if (RADIO_UART_NUM > 0)
 310:Task/Task_Protocol.c ****         monitor->uart_port_num = RADIO_UART_NUM;
 311:Task/Task_Protocol.c ****         monitor->Uart_Port = Radio_UartPort_List;
 312:Task/Task_Protocol.c ****         
 313:Task/Task_Protocol.c ****         for(uint8_t i = 0; i < monitor->uart_port_num; i++)
 314:Task/Task_Protocol.c ****         {
 315:Task/Task_Protocol.c **** #if defined STM32H743xx
ARM GAS  C:\Users\8bit\AppData\Local\Temp\ccqwqzi2.s 			page 7


 316:Task/Task_Protocol.c ****             /* create port obj element */
 317:Task/Task_Protocol.c ****             monitor->Uart_Port[i].Obj->hdl = SrvOsCommon.malloc(UART_HandleType_Size);
 318:Task/Task_Protocol.c ****             if(monitor->Uart_Port[i].Obj->hdl == NULL)
 319:Task/Task_Protocol.c ****             {
 320:Task/Task_Protocol.c ****                 SrvOsCommon.free(monitor->Uart_Port[i].Obj->hdl);
 321:Task/Task_Protocol.c ****                 return;
 322:Task/Task_Protocol.c ****             }
 323:Task/Task_Protocol.c **** 
 324:Task/Task_Protocol.c ****             monitor->Uart_Port[i].Obj->rx_dma_hdl = SrvOsCommon.malloc(UART_DMA_Handle_Size);
 325:Task/Task_Protocol.c ****             if(monitor->Uart_Port[i].Obj->rx_dma_hdl == NULL)
 326:Task/Task_Protocol.c ****             {
 327:Task/Task_Protocol.c ****                 SrvOsCommon.free(monitor->Uart_Port[i].Obj->rx_dma_hdl);
 328:Task/Task_Protocol.c ****                 SrvOsCommon.free(monitor->Uart_Port[i].Obj->hdl);
 329:Task/Task_Protocol.c ****                 return;
 330:Task/Task_Protocol.c ****             }
 331:Task/Task_Protocol.c **** 
 332:Task/Task_Protocol.c ****             monitor->Uart_Port[i].Obj->tx_dma_hdl = SrvOsCommon.malloc(UART_DMA_Handle_Size);
 333:Task/Task_Protocol.c ****             if(monitor->Uart_Port[i].Obj->tx_dma_hdl == NULL)
 334:Task/Task_Protocol.c ****             {
 335:Task/Task_Protocol.c ****                 SrvOsCommon.free(monitor->Uart_Port[i].Obj->rx_dma_hdl);
 336:Task/Task_Protocol.c ****                 SrvOsCommon.free(monitor->Uart_Port[i].Obj->tx_dma_hdl);
 337:Task/Task_Protocol.c ****                 SrvOsCommon.free(monitor->Uart_Port[i].Obj->hdl);
 338:Task/Task_Protocol.c ****                 return;
 339:Task/Task_Protocol.c ****             }
 340:Task/Task_Protocol.c **** #endif
 341:Task/Task_Protocol.c **** 
 342:Task/Task_Protocol.c ****             if(BspUart.init(monitor->Uart_Port[i].Obj))
 343:Task/Task_Protocol.c ****             {
 344:Task/Task_Protocol.c ****                 monitor->Uart_Port[i].init_state = true;
 345:Task/Task_Protocol.c ****                 memset(&monitor->Uart_Port[i].RecObj, 0, sizeof(FrameCTL_PortProtoObj_TypeDef));
 346:Task/Task_Protocol.c ****                 memset(&monitor->Uart_Port[i].ByPass_Mode, 0, sizeof(Port_Bypass_TypeDef));
 347:Task/Task_Protocol.c ****                 
 348:Task/Task_Protocol.c ****                 monitor->Uart_Port[i].RecObj.type = Port_Uart;
 349:Task/Task_Protocol.c ****                 monitor->Uart_Port[i].RecObj.port_index = i;
 350:Task/Task_Protocol.c ****                 
 351:Task/Task_Protocol.c ****                 monitor->Uart_Port[i].Obj->cust_data_addr = (uint32_t)&(monitor->Uart_Port[i].RecOb
 352:Task/Task_Protocol.c ****             
 353:Task/Task_Protocol.c ****                 /* create semaphore for send */
 354:Task/Task_Protocol.c ****                 osSemaphoreDef(Uart_Port_Tmp);
 355:Task/Task_Protocol.c ****                 monitor->Uart_Port[i].p_tx_semphr = osSemaphoreCreate(osSemaphore(Uart_Port_Tmp), 1
 356:Task/Task_Protocol.c **** 
 357:Task/Task_Protocol.c ****                 if(monitor->Uart_Port[i].p_tx_semphr)
 358:Task/Task_Protocol.c ****                 {
 359:Task/Task_Protocol.c ****                     /* set callback */
 360:Task/Task_Protocol.c ****                     BspUart.set_rx_callback(monitor->Uart_Port[i].Obj, TaskFrameCTL_Port_Rx_Callbac
 361:Task/Task_Protocol.c ****                     BspUart.set_tx_callback(monitor->Uart_Port[i].Obj, TaskFrameCTL_Port_TxCplt_Cal
 362:Task/Task_Protocol.c **** 
 363:Task/Task_Protocol.c ****                     monitor->Uart_Port[i].RecObj.PortObj_addr = (uint32_t)&(monitor->Uart_Port[i]);
 364:Task/Task_Protocol.c ****                     monitor->Uart_Port[i].init_state = true;
 365:Task/Task_Protocol.c ****                 }
 366:Task/Task_Protocol.c ****                 else
 367:Task/Task_Protocol.c ****                 {
 368:Task/Task_Protocol.c ****                     monitor->Uart_Port[i].init_state = false;
 369:Task/Task_Protocol.c ****                     monitor->uart_port_num --;
 370:Task/Task_Protocol.c ****                 }
 371:Task/Task_Protocol.c ****             }
 372:Task/Task_Protocol.c ****             else
ARM GAS  C:\Users\8bit\AppData\Local\Temp\ccqwqzi2.s 			page 8


 373:Task/Task_Protocol.c ****             {
 374:Task/Task_Protocol.c ****                 monitor->Uart_Port[i].init_state = false;
 375:Task/Task_Protocol.c ****                 monitor->uart_port_num --;
 376:Task/Task_Protocol.c ****             }
 377:Task/Task_Protocol.c ****         }
 378:Task/Task_Protocol.c **** #else
 379:Task/Task_Protocol.c ****         monitor->uart_port_num = 0;
 380:Task/Task_Protocol.c **** #endif
 381:Task/Task_Protocol.c ****     }
 382:Task/Task_Protocol.c **** }
 383:Task/Task_Protocol.c **** 
 384:Task/Task_Protocol.c **** static uint32_t TaskFrameCTL_Set_RadioPort(FrameCTL_PortType_List port_type, uint16_t index)
 385:Task/Task_Protocol.c **** {
  29              		.loc 1 385 1 view -0
  30              		.cfi_startproc
  31              		@ args = 0, pretend = 0, frame = 0
  32              		@ frame_needed = 0, uses_anonymous_args = 0
  33              		@ link register save eliminated.
 386:Task/Task_Protocol.c ****     uint32_t port_hdl = 0;
  34              		.loc 1 386 5 view .LVU1
 387:Task/Task_Protocol.c **** 
 388:Task/Task_Protocol.c ****     switch((uint8_t) port_type)
  35              		.loc 1 388 5 view .LVU2
  36 0000 0228     		cmp	r0, #2
  37 0002 01D0     		beq	.L6
 386:Task/Task_Protocol.c ****     uint32_t port_hdl = 0;
  38              		.loc 1 386 14 is_stmt 0 view .LVU3
  39 0004 0020     		movs	r0, #0
  40              	.LVL1:
 386:Task/Task_Protocol.c ****     uint32_t port_hdl = 0;
  41              		.loc 1 386 14 view .LVU4
  42 0006 7047     		bx	lr
  43              	.LVL2:
  44              	.L6:
 389:Task/Task_Protocol.c ****     {
 390:Task/Task_Protocol.c ****         case Port_Uart:
 391:Task/Task_Protocol.c ****             if((index < PortMonitor.uart_port_num) && PortMonitor.Uart_Port[index].init_state)
  45              		.loc 1 391 13 is_stmt 1 view .LVU5
  46              		.loc 1 391 36 is_stmt 0 view .LVU6
  47 0008 084B     		ldr	r3, .L7
  48 000a 9B78     		ldrb	r3, [r3, #2]	@ zero_extendqisi2
  49              		.loc 1 391 15 view .LVU7
  50 000c 8B42     		cmp	r3, r1
  51 000e 09D9     		bls	.L4
  52              		.loc 1 391 66 discriminator 1 view .LVU8
  53 0010 064B     		ldr	r3, .L7
  54 0012 9B6B     		ldr	r3, [r3, #56]
  55              		.loc 1 391 76 discriminator 1 view .LVU9
  56 0014 01EBC101 		add	r1, r1, r1, lsl #3
  57              	.LVL3:
  58              		.loc 1 391 76 discriminator 1 view .LVU10
  59 0018 03EB8100 		add	r0, r3, r1, lsl #2
  60              	.LVL4:
  61              		.loc 1 391 83 discriminator 1 view .LVU11
  62 001c 13F82130 		ldrb	r3, [r3, r1, lsl #2]	@ zero_extendqisi2
  63              		.loc 1 391 52 discriminator 1 view .LVU12
  64 0020 13B1     		cbz	r3, .L5
ARM GAS  C:\Users\8bit\AppData\Local\Temp\ccqwqzi2.s 			page 9


 392:Task/Task_Protocol.c ****             {
 393:Task/Task_Protocol.c ****                 port_hdl = (uint32_t)&(PortMonitor.Uart_Port[index]);
  65              		.loc 1 393 17 is_stmt 1 view .LVU13
  66              	.LVL5:
  67              		.loc 1 393 17 is_stmt 0 view .LVU14
  68 0022 7047     		bx	lr
  69              	.LVL6:
  70              	.L4:
 386:Task/Task_Protocol.c **** 
  71              		.loc 1 386 14 view .LVU15
  72 0024 0020     		movs	r0, #0
  73              	.LVL7:
 386:Task/Task_Protocol.c **** 
  74              		.loc 1 386 14 view .LVU16
  75 0026 7047     		bx	lr
  76              	.LVL8:
  77              	.L5:
 386:Task/Task_Protocol.c **** 
  78              		.loc 1 386 14 view .LVU17
  79 0028 0020     		movs	r0, #0
 394:Task/Task_Protocol.c ****             }
 395:Task/Task_Protocol.c ****             break;
 396:Task/Task_Protocol.c **** 
 397:Task/Task_Protocol.c ****         default: break;
 398:Task/Task_Protocol.c ****     }
 399:Task/Task_Protocol.c **** 
 400:Task/Task_Protocol.c ****     return port_hdl;
  80              		.loc 1 400 5 is_stmt 1 view .LVU18
 401:Task/Task_Protocol.c **** }
  81              		.loc 1 401 1 is_stmt 0 view .LVU19
  82 002a 7047     		bx	lr
  83              	.L8:
  84              		.align	2
  85              	.L7:
  86 002c 00000000 		.word	.LANCHOR0
  87              		.cfi_endproc
  88              	.LFE2079:
  90              		.section	.text.TaskFrameCTL_USB_VCP_Connect_Callback,"ax",%progbits
  91              		.align	1
  92              		.syntax unified
  93              		.thumb
  94              		.thumb_func
  96              	TaskFrameCTL_USB_VCP_Connect_Callback:
  97              	.LVL9:
  98              	.LFB2083:
 402:Task/Task_Protocol.c **** 
 403:Task/Task_Protocol.c **** /************************************** receive process callback section *************************/
 404:Task/Task_Protocol.c **** static bool TaskFrameCTL_Port_Tx(uint32_t obj_addr, uint8_t *p_data, uint16_t size)
 405:Task/Task_Protocol.c **** {
 406:Task/Task_Protocol.c ****     bool state = false;
 407:Task/Task_Protocol.c **** 
 408:Task/Task_Protocol.c ****     FrameCTL_UartPortMonitor_TypeDef *p_UartPort = NULL;
 409:Task/Task_Protocol.c **** 
 410:Task/Task_Protocol.c ****     if(obj_addr && p_data && size)
 411:Task/Task_Protocol.c ****     {
 412:Task/Task_Protocol.c ****         state = true;
 413:Task/Task_Protocol.c ****         p_UartPort = (FrameCTL_UartPortMonitor_TypeDef *)obj_addr;
ARM GAS  C:\Users\8bit\AppData\Local\Temp\ccqwqzi2.s 			page 10


 414:Task/Task_Protocol.c **** 
 415:Task/Task_Protocol.c ****         /* when FC attach to some host usb device then send nothing through the radio */
 416:Task/Task_Protocol.c ****         if(p_UartPort->init_state && p_UartPort->Obj && p_UartPort->p_tx_semphr && !PortMonitor.vcp
 417:Task/Task_Protocol.c ****         {
 418:Task/Task_Protocol.c ****             osSemaphoreWait(p_UartPort->p_tx_semphr, 0);
 419:Task/Task_Protocol.c ****             if ((!BspUart.send(p_UartPort->Obj, p_data, size)) || \
 420:Task/Task_Protocol.c ****                 (osSemaphoreWait(p_UartPort->p_tx_semphr, FrameCTL_Port_Tx_TimeOut) != osOK))
 421:Task/Task_Protocol.c ****                 state = false;
 422:Task/Task_Protocol.c ****         }
 423:Task/Task_Protocol.c ****         else
 424:Task/Task_Protocol.c ****             state = false;
 425:Task/Task_Protocol.c ****     }
 426:Task/Task_Protocol.c **** 
 427:Task/Task_Protocol.c ****     return state;
 428:Task/Task_Protocol.c **** }
 429:Task/Task_Protocol.c **** 
 430:Task/Task_Protocol.c **** static void TaskFrameCTL_Port_Rx_Callback(uint32_t RecObj_addr, uint8_t *p_data, uint16_t size)
 431:Task/Task_Protocol.c **** {
 432:Task/Task_Protocol.c ****     SrvComProto_Msg_StreamIn_TypeDef stream_in;
 433:Task/Task_Protocol.c ****     SrvComProto_Stream_TypeDef *p_stream = NULL;
 434:Task/Task_Protocol.c ****     FrameCTL_PortProtoObj_TypeDef *p_RecObj = NULL;
 435:Task/Task_Protocol.c ****     InUsePort_MavMsgInput_Obj = NULL;
 436:Task/Task_Protocol.c ****     bool cli_state = false;
 437:Task/Task_Protocol.c **** 
 438:Task/Task_Protocol.c ****     /* use mavlink protocol tuning the flight parameter */
 439:Task/Task_Protocol.c ****     if(p_data && size && RecObj_addr)
 440:Task/Task_Protocol.c ****     {
 441:Task/Task_Protocol.c ****         SrvDataHub.get_cli_state(&cli_state);
 442:Task/Task_Protocol.c **** 
 443:Task/Task_Protocol.c ****         p_RecObj = (FrameCTL_PortProtoObj_TypeDef *)RecObj_addr;
 444:Task/Task_Protocol.c ****         p_RecObj->time_stamp = SrvOsCommon.get_os_ms();
 445:Task/Task_Protocol.c **** 
 446:Task/Task_Protocol.c ****         switch((uint8_t) p_RecObj->type)
 447:Task/Task_Protocol.c ****         {
 448:Task/Task_Protocol.c ****             case Port_USB:
 449:Task/Task_Protocol.c ****                 p_stream = &USBRx_Stream;
 450:Task/Task_Protocol.c ****                 InUsePort_MavMsgInput_Obj = &DefaultPort_MavMsgInput_Obj;
 451:Task/Task_Protocol.c **** 
 452:Task/Task_Protocol.c ****                 if (cli_state && !Upgrade_Monitor.is_enable)
 453:Task/Task_Protocol.c ****                     TaskFrameCTL_DefaultPort_Trans(p_data, size);
 454:Task/Task_Protocol.c ****                 break;
 455:Task/Task_Protocol.c **** 
 456:Task/Task_Protocol.c ****             case Port_Uart:
 457:Task/Task_Protocol.c ****                 p_stream = &UartRx_Stream;
 458:Task/Task_Protocol.c ****                 InUsePort_MavMsgInput_Obj = &RadioPort_MavMsgInput_Obj;
 459:Task/Task_Protocol.c ****                 
 460:Task/Task_Protocol.c ****                 if (cli_state && !Upgrade_Monitor.is_enable)
 461:Task/Task_Protocol.c ****                     TaskFrameCTL_Port_Tx(p_RecObj->PortObj_addr, p_data, size);
 462:Task/Task_Protocol.c ****                 break;
 463:Task/Task_Protocol.c **** 
 464:Task/Task_Protocol.c ****             default:
 465:Task/Task_Protocol.c ****                 return;
 466:Task/Task_Protocol.c ****         }
 467:Task/Task_Protocol.c **** 
 468:Task/Task_Protocol.c ****         if ((p_stream->size + size) <= p_stream->max_size)
 469:Task/Task_Protocol.c ****         {
 470:Task/Task_Protocol.c ****             memcpy(p_stream->p_buf + p_stream->size, p_data, size);
ARM GAS  C:\Users\8bit\AppData\Local\Temp\ccqwqzi2.s 			page 11


 471:Task/Task_Protocol.c ****             p_stream->size += size;
 472:Task/Task_Protocol.c ****         }
 473:Task/Task_Protocol.c ****         else
 474:Task/Task_Protocol.c ****         {
 475:Task/Task_Protocol.c ****             memset(p_stream->p_buf, 0, p_stream->size);
 476:Task/Task_Protocol.c ****             p_stream->size = 0;
 477:Task/Task_Protocol.c ****             return;
 478:Task/Task_Protocol.c ****         }
 479:Task/Task_Protocol.c **** 
 480:Task/Task_Protocol.c ****         /* when file adapter is enable then halt cli and mavlink frame receive */
 481:Task/Task_Protocol.c ****         /* and check for upgrade data incoming */
 482:Task/Task_Protocol.c ****         if (Upgrade_Monitor.is_enable && (Upgrade_Monitor.port_addr == p_RecObj->PortObj_addr))
 483:Task/Task_Protocol.c ****         {
 484:Task/Task_Protocol.c ****             if (SrvUpgrade.push_data(SrvOsCommon.get_os_ms(), p_stream->p_buf, p_stream->size))
 485:Task/Task_Protocol.c ****             {
 486:Task/Task_Protocol.c ****                 memset(p_stream->p_buf, 0, p_stream->max_size);
 487:Task/Task_Protocol.c ****                 p_stream->size = 0;
 488:Task/Task_Protocol.c ****             }
 489:Task/Task_Protocol.c **** 
 490:Task/Task_Protocol.c ****             return;
 491:Task/Task_Protocol.c ****         }
 492:Task/Task_Protocol.c **** 
 493:Task/Task_Protocol.c ****         stream_in = SrvComProto.msg_decode(InUsePort_MavMsgInput_Obj, p_stream->p_buf, p_stream->si
 494:Task/Task_Protocol.c ****     
 495:Task/Task_Protocol.c ****         /* noticed when drone is under disarmed state we can`t tune or send cli to drone for safety
 496:Task/Task_Protocol.c ****         if(stream_in.valid)
 497:Task/Task_Protocol.c ****         {
 498:Task/Task_Protocol.c ****             /* tag on recive time stamp */
 499:Task/Task_Protocol.c ****             /* first come first serve */
 500:Task/Task_Protocol.c ****             /* in case two different port tuning the same function or same parameter at the same ti
 501:Task/Task_Protocol.c ****             /* if attach to configrator or in tunning then lock moto */
 502:Task/Task_Protocol.c ****             if(!cli_state)
 503:Task/Task_Protocol.c ****             {
 504:Task/Task_Protocol.c ****                 if (stream_in.pac_type == ComFrame_MavMsg)
 505:Task/Task_Protocol.c ****                 {
 506:Task/Task_Protocol.c ****                     /* check mavlink message frame type */
 507:Task/Task_Protocol.c ****                     /* only process mavlink message when cli is disabled */
 508:Task/Task_Protocol.c **** 
 509:Task/Task_Protocol.c ****                     /* after mavlink message processed */
 510:Task/Task_Protocol.c ****                     /* deal with stream buffer */
 511:Task/Task_Protocol.c ****                     if (p_stream->size > stream_in.size)
 512:Task/Task_Protocol.c ****                     {
 513:Task/Task_Protocol.c ****                         memmove(p_stream->p_buf, (stream_in.p_buf + stream_in.size), (p_stream->siz
 514:Task/Task_Protocol.c ****                     }
 515:Task/Task_Protocol.c ****                     else
 516:Task/Task_Protocol.c ****                         memset(p_stream->p_buf, 0, p_stream->size);
 517:Task/Task_Protocol.c **** 
 518:Task/Task_Protocol.c ****                     p_stream->size -= stream_in.size;
 519:Task/Task_Protocol.c ****                 }
 520:Task/Task_Protocol.c ****             }
 521:Task/Task_Protocol.c ****             
 522:Task/Task_Protocol.c ****             if(stream_in.pac_type == ComFrame_CLI)
 523:Task/Task_Protocol.c ****             {
 524:Task/Task_Protocol.c ****                 /* set current mode as cli mode */
 525:Task/Task_Protocol.c ****                 /* all command line end up with "\r\n" */
 526:Task/Task_Protocol.c ****                 /* push string into cli shared stream */
 527:Task/Task_Protocol.c ****                 if(((CLI_Monitor.port_addr == 0) || (CLI_Monitor.port_addr == p_RecObj->PortObj_add
ARM GAS  C:\Users\8bit\AppData\Local\Temp\ccqwqzi2.s 			page 12


 528:Task/Task_Protocol.c ****                    (CLI_Monitor.p_rx_stream->size + p_stream->size) <= CLI_Monitor.p_rx_stream->max
 529:Task/Task_Protocol.c ****                 {
 530:Task/Task_Protocol.c ****                     SrvDataHub.set_cli_state(true);
 531:Task/Task_Protocol.c **** 
 532:Task/Task_Protocol.c ****                     CLI_Monitor.type = p_RecObj->type;
 533:Task/Task_Protocol.c ****                     CLI_Monitor.port_addr = p_RecObj->PortObj_addr;
 534:Task/Task_Protocol.c ****                     memcpy(CLI_Monitor.p_rx_stream->p_buf + CLI_Monitor.p_rx_stream->size, stream_i
 535:Task/Task_Protocol.c ****                     CLI_Monitor.p_rx_stream->size += p_stream->size;
 536:Task/Task_Protocol.c **** 
 537:Task/Task_Protocol.c ****                     /* clear CLI command */
 538:Task/Task_Protocol.c ****                     p_stream->size = 0;
 539:Task/Task_Protocol.c ****                     memset(p_stream->p_buf, 0, p_stream->size);
 540:Task/Task_Protocol.c ****                 }
 541:Task/Task_Protocol.c ****             }
 542:Task/Task_Protocol.c ****         }
 543:Task/Task_Protocol.c ****     }
 544:Task/Task_Protocol.c **** }
 545:Task/Task_Protocol.c **** 
 546:Task/Task_Protocol.c **** static void TaskFrameCTL_Port_TxCplt_Callback(uint32_t Obj_addr, uint8_t *p_data, uint32_t *size)
 547:Task/Task_Protocol.c **** {
 548:Task/Task_Protocol.c ****     UNUSED(p_data);
 549:Task/Task_Protocol.c ****     UNUSED(size);
 550:Task/Task_Protocol.c **** 
 551:Task/Task_Protocol.c ****     FrameCTL_PortProtoObj_TypeDef *p_Obj = NULL;
 552:Task/Task_Protocol.c ****     FrameCTL_UartPortMonitor_TypeDef *p_UartPortObj = NULL;
 553:Task/Task_Protocol.c ****     FrameCTL_VCPPortMonitor_TypeDef *p_USBPortObj = NULL;
 554:Task/Task_Protocol.c ****     osSemaphoreId semID = NULL;
 555:Task/Task_Protocol.c ****     uint32_t *p_rls_err_cnt = NULL;
 556:Task/Task_Protocol.c **** 
 557:Task/Task_Protocol.c ****     if(Obj_addr)
 558:Task/Task_Protocol.c ****     {
 559:Task/Task_Protocol.c ****         p_Obj = (FrameCTL_PortProtoObj_TypeDef *)Obj_addr;
 560:Task/Task_Protocol.c **** 
 561:Task/Task_Protocol.c ****         if(p_Obj->PortObj_addr)
 562:Task/Task_Protocol.c ****         {
 563:Task/Task_Protocol.c ****             switch((uint8_t) p_Obj->type)
 564:Task/Task_Protocol.c ****             {
 565:Task/Task_Protocol.c ****                 case Port_USB:
 566:Task/Task_Protocol.c ****                     p_USBPortObj = (FrameCTL_VCPPortMonitor_TypeDef *)(p_Obj->PortObj_addr);
 567:Task/Task_Protocol.c **** 
 568:Task/Task_Protocol.c ****                     if(p_USBPortObj->init_state && p_USBPortObj->p_tx_semphr)
 569:Task/Task_Protocol.c ****                     {
 570:Task/Task_Protocol.c ****                         semID = p_USBPortObj->p_tx_semphr;
 571:Task/Task_Protocol.c ****                         p_rls_err_cnt = &p_USBPortObj->tx_semphr_rls_err;
 572:Task/Task_Protocol.c ****                     }
 573:Task/Task_Protocol.c ****                     break;
 574:Task/Task_Protocol.c **** 
 575:Task/Task_Protocol.c ****                 case Port_Uart:
 576:Task/Task_Protocol.c ****                     p_UartPortObj = (FrameCTL_UartPortMonitor_TypeDef *)(p_Obj->PortObj_addr);
 577:Task/Task_Protocol.c **** 
 578:Task/Task_Protocol.c ****                     if(p_UartPortObj->init_state && p_UartPortObj->p_tx_semphr)
 579:Task/Task_Protocol.c ****                     {
 580:Task/Task_Protocol.c ****                         semID = p_UartPortObj->p_tx_semphr;
 581:Task/Task_Protocol.c ****                         p_rls_err_cnt = &p_UartPortObj->tx_semphr_rls_err;
 582:Task/Task_Protocol.c ****                     }
 583:Task/Task_Protocol.c ****                     break;
 584:Task/Task_Protocol.c **** 
ARM GAS  C:\Users\8bit\AppData\Local\Temp\ccqwqzi2.s 			page 13


 585:Task/Task_Protocol.c ****                 default:
 586:Task/Task_Protocol.c ****                     return;
 587:Task/Task_Protocol.c ****             }
 588:Task/Task_Protocol.c ****             
 589:Task/Task_Protocol.c ****             if(semID && p_rls_err_cnt && (osSemaphoreRelease(semID) != osOK))
 590:Task/Task_Protocol.c ****                 (*p_rls_err_cnt) ++;
 591:Task/Task_Protocol.c ****         }
 592:Task/Task_Protocol.c ****     }
 593:Task/Task_Protocol.c **** }
 594:Task/Task_Protocol.c **** 
 595:Task/Task_Protocol.c **** /************************************** USB Only Callback section *********************************
 596:Task/Task_Protocol.c **** /*
 597:Task/Task_Protocol.c ****  * use usb sof interrupt
 598:Task/Task_Protocol.c ****  * as long as usb port attach to computer or other host device
 599:Task/Task_Protocol.c ****  * flight controller will receive sof interrupt
 600:Task/Task_Protocol.c ****  * if flight controller continue to receive this interrupt it must be attach to computer
 601:Task/Task_Protocol.c ****  */
 602:Task/Task_Protocol.c **** static void TaskFrameCTL_USB_VCP_Connect_Callback(uint32_t Obj_addr, uint32_t *time_stamp)
 603:Task/Task_Protocol.c **** {
  99              		.loc 1 603 1 is_stmt 1 view -0
 100              		.cfi_startproc
 101              		@ args = 0, pretend = 0, frame = 0
 102              		@ frame_needed = 0, uses_anonymous_args = 0
 604:Task/Task_Protocol.c ****     FrameCTL_PortProtoObj_TypeDef *p_Obj = NULL;
 103              		.loc 1 604 5 view .LVU21
 605:Task/Task_Protocol.c **** 
 606:Task/Task_Protocol.c ****     if (Obj_addr)
 104              		.loc 1 606 5 view .LVU22
 105              		.loc 1 606 8 is_stmt 0 view .LVU23
 106 0000 60B1     		cbz	r0, .L12
 603:Task/Task_Protocol.c ****     FrameCTL_PortProtoObj_TypeDef *p_Obj = NULL;
 107              		.loc 1 603 1 view .LVU24
 108 0002 10B5     		push	{r4, lr}
 109              	.LCFI0:
 110              		.cfi_def_cfa_offset 8
 111              		.cfi_offset 4, -8
 112              		.cfi_offset 14, -4
 113 0004 0C46     		mov	r4, r1
 607:Task/Task_Protocol.c ****     {
 608:Task/Task_Protocol.c ****         p_Obj = (FrameCTL_PortProtoObj_TypeDef *)Obj_addr;
 114              		.loc 1 608 9 is_stmt 1 view .LVU25
 115              	.LVL10:
 609:Task/Task_Protocol.c **** 
 610:Task/Task_Protocol.c ****         if (p_Obj->PortObj_addr && (p_Obj->type == Port_USB))
 116              		.loc 1 610 9 view .LVU26
 117              		.loc 1 610 18 is_stmt 0 view .LVU27
 118 0006 4268     		ldr	r2, [r0, #4]
 119              		.loc 1 610 12 view .LVU28
 120 0008 12B1     		cbz	r2, .L9
 121              		.loc 1 610 42 discriminator 1 view .LVU29
 122 000a 0378     		ldrb	r3, [r0]	@ zero_extendqisi2
 123              		.loc 1 610 33 discriminator 1 view .LVU30
 124 000c 012B     		cmp	r3, #1
 125 000e 00D0     		beq	.L15
 126              	.LVL11:
 127              	.L9:
 611:Task/Task_Protocol.c ****             *time_stamp = SrvOsCommon.get_os_ms();
ARM GAS  C:\Users\8bit\AppData\Local\Temp\ccqwqzi2.s 			page 14


 612:Task/Task_Protocol.c ****     }
 613:Task/Task_Protocol.c **** }
 128              		.loc 1 613 1 view .LVU31
 129 0010 10BD     		pop	{r4, pc}
 130              	.LVL12:
 131              	.L15:
 611:Task/Task_Protocol.c ****             *time_stamp = SrvOsCommon.get_os_ms();
 132              		.loc 1 611 13 is_stmt 1 view .LVU32
 611:Task/Task_Protocol.c ****             *time_stamp = SrvOsCommon.get_os_ms();
 133              		.loc 1 611 38 is_stmt 0 view .LVU33
 134 0012 034B     		ldr	r3, .L16
 135 0014 1B68     		ldr	r3, [r3]
 611:Task/Task_Protocol.c ****             *time_stamp = SrvOsCommon.get_os_ms();
 136              		.loc 1 611 27 view .LVU34
 137 0016 9847     		blx	r3
 138              	.LVL13:
 611:Task/Task_Protocol.c ****             *time_stamp = SrvOsCommon.get_os_ms();
 139              		.loc 1 611 25 view .LVU35
 140 0018 2060     		str	r0, [r4]
 141              		.loc 1 613 1 view .LVU36
 142 001a F9E7     		b	.L9
 143              	.LVL14:
 144              	.L12:
 145              	.LCFI1:
 146              		.cfi_def_cfa_offset 0
 147              		.cfi_restore 4
 148              		.cfi_restore 14
 149              		.loc 1 613 1 view .LVU37
 150 001c 7047     		bx	lr
 151              	.L17:
 152 001e 00BF     		.align	2
 153              	.L16:
 154 0020 00000000 		.word	SrvOsCommon
 155              		.cfi_endproc
 156              	.LFE2083:
 158              		.section	.text.TaskFrameCTL_Upgrade_Enable,"ax",%progbits
 159              		.align	1
 160              		.syntax unified
 161              		.thumb
 162              		.thumb_func
 164              	TaskFrameCTL_Upgrade_Enable:
 165              	.LVL15:
 166              	.LFB2085:
 614:Task/Task_Protocol.c **** 
 615:Task/Task_Protocol.c **** /************************************** upgrade protocol section **********************************
 616:Task/Task_Protocol.c **** static void TaskFrameCTL_Upgrade_Send(uint8_t *p_buf, uint16_t size)
 617:Task/Task_Protocol.c **** {
 618:Task/Task_Protocol.c ****     if (Upgrade_Monitor.port_addr && p_buf && size)
 619:Task/Task_Protocol.c ****     {
 620:Task/Task_Protocol.c ****         if(p_buf && size)
 621:Task/Task_Protocol.c ****         {
 622:Task/Task_Protocol.c ****             switch ((uint8_t) Upgrade_Monitor.port_type)
 623:Task/Task_Protocol.c ****             {
 624:Task/Task_Protocol.c ****                 case Port_Uart:
 625:Task/Task_Protocol.c ****                     TaskFrameCTL_Port_Tx(Upgrade_Monitor.port_addr, (uint8_t *)p_buf, size);
 626:Task/Task_Protocol.c ****                     break;
 627:Task/Task_Protocol.c ****             
ARM GAS  C:\Users\8bit\AppData\Local\Temp\ccqwqzi2.s 			page 15


 628:Task/Task_Protocol.c ****                 case Port_USB:
 629:Task/Task_Protocol.c ****                     TaskFrameCTL_DefaultPort_Trans((uint8_t *)p_buf, size);
 630:Task/Task_Protocol.c ****                     break; 
 631:Task/Task_Protocol.c **** 
 632:Task/Task_Protocol.c ****                 default:
 633:Task/Task_Protocol.c ****                     break;
 634:Task/Task_Protocol.c ****             }
 635:Task/Task_Protocol.c ****         }
 636:Task/Task_Protocol.c **** 
 637:Task/Task_Protocol.c ****         return 0;
 638:Task/Task_Protocol.c ****     }
 639:Task/Task_Protocol.c **** }
 640:Task/Task_Protocol.c **** 
 641:Task/Task_Protocol.c **** static bool TaskFrameCTL_Upgrade_Enable(bool state, FileInfo_TypeDef file_info, uint32_t port_addr,
 642:Task/Task_Protocol.c **** {
 167              		.loc 1 642 1 is_stmt 1 view -0
 168              		.cfi_startproc
 169              		@ args = 8, pretend = 0, frame = 24
 170              		@ frame_needed = 0, uses_anonymous_args = 0
 171              		.loc 1 642 1 is_stmt 0 view .LVU39
 172 0000 30B5     		push	{r4, r5, lr}
 173              	.LCFI2:
 174              		.cfi_def_cfa_offset 12
 175              		.cfi_offset 4, -12
 176              		.cfi_offset 5, -8
 177              		.cfi_offset 14, -4
 178 0002 87B0     		sub	sp, sp, #28
 179              	.LCFI3:
 180              		.cfi_def_cfa_offset 40
 181 0004 0546     		mov	r5, r0
 182 0006 0DF1040C 		add	ip, sp, #4
 183 000a 8CE80E00 		stm	ip, {r1, r2, r3}
 643:Task/Task_Protocol.c ****     bool arm_state = DRONE_ARM;
 184              		.loc 1 643 5 is_stmt 1 view .LVU40
 185              		.loc 1 643 10 is_stmt 0 view .LVU41
 186 000e 0123     		movs	r3, #1
 187 0010 8DF81730 		strb	r3, [sp, #23]
 644:Task/Task_Protocol.c **** 
 645:Task/Task_Protocol.c ****     /* check arm state first */
 646:Task/Task_Protocol.c ****     /* if is under disarm state then disable upgrade enabling */
 647:Task/Task_Protocol.c ****     if (SrvDataHub.get_arm_state(&arm_state) && (arm_state == DRONE_ARM))
 188              		.loc 1 647 5 is_stmt 1 view .LVU42
 189              		.loc 1 647 19 is_stmt 0 view .LVU43
 190 0014 134B     		ldr	r3, .L24
 191 0016 5B6D     		ldr	r3, [r3, #84]
 192              		.loc 1 647 9 view .LVU44
 193 0018 0DF11700 		add	r0, sp, #23
 194              	.LVL16:
 195              		.loc 1 647 9 view .LVU45
 196 001c 9847     		blx	r3
 197              	.LVL17:
 198              		.loc 1 647 8 view .LVU46
 199 001e 0446     		mov	r4, r0
 200 0020 10B1     		cbz	r0, .L19
 201              		.loc 1 647 60 discriminator 1 view .LVU47
 202 0022 9DF81740 		ldrb	r4, [sp, #23]	@ zero_extendqisi2
 203              		.loc 1 647 46 discriminator 1 view .LVU48
ARM GAS  C:\Users\8bit\AppData\Local\Temp\ccqwqzi2.s 			page 16


 204 0026 14B9     		cbnz	r4, .L23
 205              	.L19:
 648:Task/Task_Protocol.c ****     {
 649:Task/Task_Protocol.c ****         Upgrade_Monitor.is_enable = state;
 650:Task/Task_Protocol.c ****         Upgrade_Monitor.port_addr = port_addr;
 651:Task/Task_Protocol.c ****         Upgrade_Monitor.port_type = port_type;
 652:Task/Task_Protocol.c ****         
 653:Task/Task_Protocol.c ****         if (!state)
 654:Task/Task_Protocol.c ****         {
 655:Task/Task_Protocol.c ****             Upgrade_Monitor.port_addr = 0;
 656:Task/Task_Protocol.c ****             Upgrade_Monitor.port_type = Port_None;
 657:Task/Task_Protocol.c **** 
 658:Task/Task_Protocol.c ****             SrvOsCommon.enter_critical();
 659:Task/Task_Protocol.c ****             SrvDataHub.set_upgrade_state(true);
 660:Task/Task_Protocol.c ****             SrvOsCommon.exit_critical();
 661:Task/Task_Protocol.c ****         }
 662:Task/Task_Protocol.c ****         else
 663:Task/Task_Protocol.c ****             Upgrade_Monitor.file_info = file_info;
 664:Task/Task_Protocol.c **** 
 665:Task/Task_Protocol.c ****         /* suspend Telemetry task */
 666:Task/Task_Protocol.c ****         /* when upgrade finish or abort resume telemtry task */
 667:Task/Task_Protocol.c **** 
 668:Task/Task_Protocol.c ****         return true;
 669:Task/Task_Protocol.c ****     }
 670:Task/Task_Protocol.c **** 
 671:Task/Task_Protocol.c ****     return false;
 672:Task/Task_Protocol.c **** }
 206              		.loc 1 672 1 view .LVU49
 207 0028 2046     		mov	r0, r4
 208 002a 07B0     		add	sp, sp, #28
 209              	.LCFI4:
 210              		.cfi_remember_state
 211              		.cfi_def_cfa_offset 12
 212              		@ sp needed
 213 002c 30BD     		pop	{r4, r5, pc}
 214              	.LVL18:
 215              	.L23:
 216              	.LCFI5:
 217              		.cfi_restore_state
 649:Task/Task_Protocol.c ****         Upgrade_Monitor.port_addr = port_addr;
 218              		.loc 1 649 9 is_stmt 1 view .LVU50
 649:Task/Task_Protocol.c ****         Upgrade_Monitor.port_addr = port_addr;
 219              		.loc 1 649 35 is_stmt 0 view .LVU51
 220 002e 0E4B     		ldr	r3, .L24+4
 221 0030 1D70     		strb	r5, [r3]
 650:Task/Task_Protocol.c ****         Upgrade_Monitor.port_type = port_type;
 222              		.loc 1 650 9 is_stmt 1 view .LVU52
 650:Task/Task_Protocol.c ****         Upgrade_Monitor.port_type = port_type;
 223              		.loc 1 650 35 is_stmt 0 view .LVU53
 224 0032 0A9A     		ldr	r2, [sp, #40]
 225 0034 1A61     		str	r2, [r3, #16]
 651:Task/Task_Protocol.c ****         
 226              		.loc 1 651 9 is_stmt 1 view .LVU54
 651:Task/Task_Protocol.c ****         
 227              		.loc 1 651 35 is_stmt 0 view .LVU55
 228 0036 9DF82C20 		ldrb	r2, [sp, #44]	@ zero_extendqisi2
 229 003a 1A75     		strb	r2, [r3, #20]
ARM GAS  C:\Users\8bit\AppData\Local\Temp\ccqwqzi2.s 			page 17


 653:Task/Task_Protocol.c ****         {
 230              		.loc 1 653 9 is_stmt 1 view .LVU56
 653:Task/Task_Protocol.c ****         {
 231              		.loc 1 653 12 is_stmt 0 view .LVU57
 232 003c 65B9     		cbnz	r5, .L20
 655:Task/Task_Protocol.c ****             Upgrade_Monitor.port_type = Port_None;
 233              		.loc 1 655 13 is_stmt 1 view .LVU58
 655:Task/Task_Protocol.c ****             Upgrade_Monitor.port_type = Port_None;
 234              		.loc 1 655 39 is_stmt 0 view .LVU59
 235 003e 0022     		movs	r2, #0
 236 0040 1A61     		str	r2, [r3, #16]
 656:Task/Task_Protocol.c **** 
 237              		.loc 1 656 13 is_stmt 1 view .LVU60
 656:Task/Task_Protocol.c **** 
 238              		.loc 1 656 39 is_stmt 0 view .LVU61
 239 0042 1A75     		strb	r2, [r3, #20]
 658:Task/Task_Protocol.c ****             SrvDataHub.set_upgrade_state(true);
 240              		.loc 1 658 13 is_stmt 1 view .LVU62
 658:Task/Task_Protocol.c ****             SrvDataHub.set_upgrade_state(true);
 241              		.loc 1 658 24 is_stmt 0 view .LVU63
 242 0044 094D     		ldr	r5, .L24+8
 243 0046 2B6B     		ldr	r3, [r5, #48]
 658:Task/Task_Protocol.c ****             SrvDataHub.set_upgrade_state(true);
 244              		.loc 1 658 13 view .LVU64
 245 0048 9847     		blx	r3
 246              	.LVL19:
 659:Task/Task_Protocol.c ****             SrvOsCommon.exit_critical();
 247              		.loc 1 659 13 is_stmt 1 view .LVU65
 659:Task/Task_Protocol.c ****             SrvOsCommon.exit_critical();
 248              		.loc 1 659 23 is_stmt 0 view .LVU66
 249 004a 064B     		ldr	r3, .L24
 250 004c DB68     		ldr	r3, [r3, #12]
 659:Task/Task_Protocol.c ****             SrvOsCommon.exit_critical();
 251              		.loc 1 659 13 view .LVU67
 252 004e 0120     		movs	r0, #1
 253 0050 9847     		blx	r3
 254              	.LVL20:
 660:Task/Task_Protocol.c ****         }
 255              		.loc 1 660 13 is_stmt 1 view .LVU68
 660:Task/Task_Protocol.c ****         }
 256              		.loc 1 660 24 is_stmt 0 view .LVU69
 257 0052 6B6B     		ldr	r3, [r5, #52]
 660:Task/Task_Protocol.c ****         }
 258              		.loc 1 660 13 view .LVU70
 259 0054 9847     		blx	r3
 260              	.LVL21:
 261 0056 E7E7     		b	.L19
 262              	.L20:
 663:Task/Task_Protocol.c **** 
 263              		.loc 1 663 13 is_stmt 1 view .LVU71
 663:Task/Task_Protocol.c **** 
 264              		.loc 1 663 39 is_stmt 0 view .LVU72
 265 0058 054B     		ldr	r3, .L24+12
 266 005a 01AA     		add	r2, sp, #4
 267 005c 07CA     		ldm	r2, {r0, r1, r2}
 268 005e 83E80700 		stm	r3, {r0, r1, r2}
 668:Task/Task_Protocol.c ****     }
ARM GAS  C:\Users\8bit\AppData\Local\Temp\ccqwqzi2.s 			page 18


 269              		.loc 1 668 9 is_stmt 1 view .LVU73
 668:Task/Task_Protocol.c ****     }
 270              		.loc 1 668 16 is_stmt 0 view .LVU74
 271 0062 E1E7     		b	.L19
 272              	.L25:
 273              		.align	2
 274              	.L24:
 275 0064 00000000 		.word	SrvDataHub
 276 0068 00000000 		.word	.LANCHOR1
 277 006c 00000000 		.word	SrvOsCommon
 278 0070 04000000 		.word	.LANCHOR1+4
 279              		.cfi_endproc
 280              	.LFE2085:
 282              		.section	.text.TaskFrameCTL_PortFrameOut_Process,"ax",%progbits
 283              		.align	1
 284              		.syntax unified
 285              		.thumb
 286              		.thumb_func
 288              	TaskFrameCTL_PortFrameOut_Process:
 289              	.LFB2088:
 673:Task/Task_Protocol.c **** 
 674:Task/Task_Protocol.c **** static void TaskFrameCTL_Upgrade_StatePolling(bool cli)
 675:Task/Task_Protocol.c **** {
 676:Task/Task_Protocol.c ****     SrvUpgrade_Stage_List stage;
 677:Task/Task_Protocol.c ****     uint32_t sys_time = SrvOsCommon.get_os_ms();
 678:Task/Task_Protocol.c ****     Shell *shell_obj = Shell_GetInstence();
 679:Task/Task_Protocol.c ****     uint16_t logout_size = 0;
 680:Task/Task_Protocol.c **** 
 681:Task/Task_Protocol.c ****     stage = SrvUpgrade.polling(sys_time, TaskFrameCTL_Upgrade_Send);
 682:Task/Task_Protocol.c **** 
 683:Task/Task_Protocol.c ****     switch ((uint8_t) stage)
 684:Task/Task_Protocol.c ****     {
 685:Task/Task_Protocol.c ****         case Stage_TimeOut:
 686:Task/Task_Protocol.c ****             if (cli && shell_obj)
 687:Task/Task_Protocol.c ****                 shellPrint(shell_obj, "\r\n");
 688:Task/Task_Protocol.c ****                 shellPrint(shell_obj, "[ Upgrade ] Communicate time out\r\n");
 689:Task/Task_Protocol.c ****         case Stage_Adapter_Error:
 690:Task/Task_Protocol.c ****             if (cli && shell_obj)
 691:Task/Task_Protocol.c ****                 shellPrint(shell_obj, "[ Upgrade ] Error\r\n");
 692:Task/Task_Protocol.c ****             
 693:Task/Task_Protocol.c ****             Upgrade_Monitor.is_enable = false;
 694:Task/Task_Protocol.c ****             memset(&Upgrade_Monitor.file_info, 0, sizeof(Upgrade_Monitor.file_info));
 695:Task/Task_Protocol.c ****             Upgrade_Monitor.port_addr = 0;
 696:Task/Task_Protocol.c ****             SrvOsCommon.enter_critical();
 697:Task/Task_Protocol.c ****             SrvDataHub.set_upgrade_state(false);
 698:Task/Task_Protocol.c ****             SrvOsCommon.exit_critical();
 699:Task/Task_Protocol.c ****             break;
 700:Task/Task_Protocol.c **** 
 701:Task/Task_Protocol.c ****         case Stage_Reboot:
 702:Task/Task_Protocol.c ****             if (cli && shell_obj)
 703:Task/Task_Protocol.c ****             {
 704:Task/Task_Protocol.c ****                 SrvOsCommon.delay_ms(10);
 705:Task/Task_Protocol.c ****                 shellPrint(shell_obj, "[ Upgrade ] Firmware Updating\r\n");
 706:Task/Task_Protocol.c ****                 shellPrint(shell_obj, "[ Upgrade ] DO NOT POWER OFF\r\n");
 707:Task/Task_Protocol.c ****                 SrvOsCommon.delay_ms(20);
 708:Task/Task_Protocol.c ****             }
 709:Task/Task_Protocol.c **** 
ARM GAS  C:\Users\8bit\AppData\Local\Temp\ccqwqzi2.s 			page 19


 710:Task/Task_Protocol.c ****             Upgrade_Monitor.is_enable = false;
 711:Task/Task_Protocol.c ****             SrvOsCommon.reboot();
 712:Task/Task_Protocol.c ****             break;
 713:Task/Task_Protocol.c **** 
 714:Task/Task_Protocol.c ****         case Stage_Process_PortData:
 715:Task/Task_Protocol.c ****             logout_size = SrvUpgrade.get_log(CLIPrintBuf, sizeof(CLIPrintBuf));
 716:Task/Task_Protocol.c ****             if (logout_size)
 717:Task/Task_Protocol.c ****             {
 718:Task/Task_Protocol.c ****                 if (cli && shell_obj)
 719:Task/Task_Protocol.c ****                 {
 720:Task/Task_Protocol.c ****                     SrvOsCommon.delay_ms(10);
 721:Task/Task_Protocol.c ****                     shellPrint(shell_obj, "[ Upgrade Info ] %s", CLIPrintBuf);
 722:Task/Task_Protocol.c ****                 }
 723:Task/Task_Protocol.c **** 
 724:Task/Task_Protocol.c ****                 SrvUpgrade.clear_log();
 725:Task/Task_Protocol.c ****             }
 726:Task/Task_Protocol.c ****             break;
 727:Task/Task_Protocol.c **** 
 728:Task/Task_Protocol.c ****         default:
 729:Task/Task_Protocol.c ****             break;
 730:Task/Task_Protocol.c ****     }
 731:Task/Task_Protocol.c **** }
 732:Task/Task_Protocol.c **** 
 733:Task/Task_Protocol.c **** /************************************** frame protocol section ************************************
 734:Task/Task_Protocol.c **** static bool TaskFrameCTL_MAV_Msg_Init(void)
 735:Task/Task_Protocol.c **** {
 736:Task/Task_Protocol.c ****     if (SrvComProto.get_msg_type() == SrvComProto_Type_MAV)
 737:Task/Task_Protocol.c ****     {
 738:Task/Task_Protocol.c ****         SrvComProto_MavPackInfo_TypeDef PckInfo;
 739:Task/Task_Protocol.c ****         /* create mavlink output message object */
 740:Task/Task_Protocol.c ****         memset(&PckInfo, 0, sizeof(PckInfo));
 741:Task/Task_Protocol.c ****         memset(&TaskProto_MAV_RawIMU, 0, sizeof(TaskProto_MAV_RawIMU));
 742:Task/Task_Protocol.c ****         memset(&TaskProto_MAV_ScaledIMU, 0, sizeof(TaskProto_MAV_ScaledIMU));
 743:Task/Task_Protocol.c ****         memset(&TaskProto_MAV_RcChannel, 0, sizeof(TaskProto_MAV_RcChannel));
 744:Task/Task_Protocol.c ****         memset(&TaskProto_MAV_MotoChannel, 0, sizeof(TaskProto_MAV_MotoChannel));
 745:Task/Task_Protocol.c ****         memset(&TaskProto_MAV_Attitude, 0, sizeof(TaskProto_MAV_Attitude));
 746:Task/Task_Protocol.c ****  
 747:Task/Task_Protocol.c ****         memset(&PckInfo, 0, sizeof(PckInfo));
 748:Task/Task_Protocol.c ****         memset(&RadioProto_MAV_RawIMU, 0, sizeof(TaskProto_MAV_RawIMU));
 749:Task/Task_Protocol.c ****         memset(&RadioProto_MAV_ScaledIMU, 0, sizeof(TaskProto_MAV_ScaledIMU));
 750:Task/Task_Protocol.c ****         memset(&RadioProto_MAV_RcChannel, 0, sizeof(TaskProto_MAV_RcChannel));
 751:Task/Task_Protocol.c ****         memset(&RadioProto_MAV_MotoChannel, 0, sizeof(TaskProto_MAV_MotoChannel));
 752:Task/Task_Protocol.c ****         memset(&RadioProto_MAV_Attitude, 0, sizeof(TaskProto_MAV_Attitude));
 753:Task/Task_Protocol.c ****  
 754:Task/Task_Protocol.c ****         // period 10Ms 100Hz
 755:Task/Task_Protocol.c ****         PckInfo.system_id = MAV_SysID_Drone;
 756:Task/Task_Protocol.c ****         PckInfo.component_id = MAV_CompoID_Raw_IMU;
 757:Task/Task_Protocol.c ****         PckInfo.chan = 0;
 758:Task/Task_Protocol.c ****         SrvComProto.mav_msg_obj_init(&TaskProto_MAV_RawIMU, PckInfo, 10);
 759:Task/Task_Protocol.c ****         SrvComProto.mav_msg_enable_ctl(&TaskProto_MAV_RawIMU, false);
 760:Task/Task_Protocol.c ****  
 761:Task/Task_Protocol.c ****         SrvComProto.mav_msg_obj_init(&RadioProto_MAV_RawIMU, PckInfo, 10);
 762:Task/Task_Protocol.c ****         SrvComProto.mav_msg_enable_ctl(&RadioProto_MAV_RawIMU, false);
 763:Task/Task_Protocol.c ****              
 764:Task/Task_Protocol.c ****         // period 10Ms 100Hz
 765:Task/Task_Protocol.c ****         PckInfo.system_id = MAV_SysID_Drone;
 766:Task/Task_Protocol.c ****         PckInfo.component_id = MAV_CompoID_Scaled_IMU;
ARM GAS  C:\Users\8bit\AppData\Local\Temp\ccqwqzi2.s 			page 20


 767:Task/Task_Protocol.c ****         PckInfo.chan = 0;
 768:Task/Task_Protocol.c ****         SrvComProto.mav_msg_obj_init(&TaskProto_MAV_ScaledIMU, PckInfo, 10);
 769:Task/Task_Protocol.c ****         SrvComProto.mav_msg_enable_ctl(&TaskProto_MAV_ScaledIMU, true);
 770:Task/Task_Protocol.c **** 
 771:Task/Task_Protocol.c ****         SrvComProto.mav_msg_obj_init(&RadioProto_MAV_ScaledIMU, PckInfo, 10);
 772:Task/Task_Protocol.c ****         SrvComProto.mav_msg_enable_ctl(&RadioProto_MAV_ScaledIMU, true);
 773:Task/Task_Protocol.c ****         
 774:Task/Task_Protocol.c ****         // period 20Ms 50Hz
 775:Task/Task_Protocol.c ****         PckInfo.system_id = MAV_SysID_Drone;
 776:Task/Task_Protocol.c ****         PckInfo.component_id = MAV_CompoID_RC_Channel;
 777:Task/Task_Protocol.c ****         PckInfo.chan = 0;
 778:Task/Task_Protocol.c ****         SrvComProto.mav_msg_obj_init(&TaskProto_MAV_RcChannel, PckInfo, 20);
 779:Task/Task_Protocol.c ****         SrvComProto.mav_msg_enable_ctl(&TaskProto_MAV_RcChannel, true);
 780:Task/Task_Protocol.c **** 
 781:Task/Task_Protocol.c ****         SrvComProto.mav_msg_obj_init(&RadioProto_MAV_RcChannel, PckInfo, 20);
 782:Task/Task_Protocol.c ****         SrvComProto.mav_msg_enable_ctl(&RadioProto_MAV_RcChannel, true);
 783:Task/Task_Protocol.c ****         
 784:Task/Task_Protocol.c ****         // period 10Ms 100Hz
 785:Task/Task_Protocol.c ****         PckInfo.system_id = MAV_SysID_Drone;
 786:Task/Task_Protocol.c ****         PckInfo.component_id = MAV_CompoID_MotoCtl;
 787:Task/Task_Protocol.c ****         PckInfo.chan = 0;
 788:Task/Task_Protocol.c ****         SrvComProto.mav_msg_obj_init(&TaskProto_MAV_MotoChannel, PckInfo, 10);
 789:Task/Task_Protocol.c ****         SrvComProto.mav_msg_enable_ctl(&TaskProto_MAV_MotoChannel, false);
 790:Task/Task_Protocol.c **** 
 791:Task/Task_Protocol.c ****         SrvComProto.mav_msg_obj_init(&RadioProto_MAV_MotoChannel, PckInfo, 10);
 792:Task/Task_Protocol.c ****         SrvComProto.mav_msg_enable_ctl(&RadioProto_MAV_MotoChannel, false);
 793:Task/Task_Protocol.c ****         
 794:Task/Task_Protocol.c ****         // period 20Ms 50Hz
 795:Task/Task_Protocol.c ****         PckInfo.system_id = MAV_SysID_Drone;
 796:Task/Task_Protocol.c ****         PckInfo.component_id = MAV_CompoID_Attitude;
 797:Task/Task_Protocol.c ****         PckInfo.chan = 0;
 798:Task/Task_Protocol.c ****         SrvComProto.mav_msg_obj_init(&TaskProto_MAV_Attitude, PckInfo, 20);
 799:Task/Task_Protocol.c ****         SrvComProto.mav_msg_enable_ctl(&TaskProto_MAV_Attitude, true);
 800:Task/Task_Protocol.c **** 
 801:Task/Task_Protocol.c ****         SrvComProto.mav_msg_obj_init(&RadioProto_MAV_Attitude, PckInfo, 20);
 802:Task/Task_Protocol.c ****         SrvComProto.mav_msg_enable_ctl(&RadioProto_MAV_Attitude, true);
 803:Task/Task_Protocol.c ****                
 804:Task/Task_Protocol.c ****         // period 20Ms 50Hz
 805:Task/Task_Protocol.c ****         PckInfo.system_id = MAV_SysID_Drone;
 806:Task/Task_Protocol.c ****         PckInfo.component_id = MAV_CompoID_Exp_Attitude;
 807:Task/Task_Protocol.c ****         PckInfo.chan = 0;
 808:Task/Task_Protocol.c ****         SrvComProto.mav_msg_obj_init(&TaskProto_MAV_Exp_Attitude, PckInfo, 20);
 809:Task/Task_Protocol.c ****         SrvComProto.mav_msg_enable_ctl(&TaskProto_MAV_Exp_Attitude, true);
 810:Task/Task_Protocol.c ****  
 811:Task/Task_Protocol.c ****         // period 100MS 10Hz
 812:Task/Task_Protocol.c ****         PckInfo.system_id = MAV_SysID_Drone;
 813:Task/Task_Protocol.c ****         PckInfo.component_id = MAV_CompoID_Altitude;
 814:Task/Task_Protocol.c ****         PckInfo.chan = 0;
 815:Task/Task_Protocol.c ****         SrvComProto.mav_msg_obj_init(&TaskProto_MAV_Altitude, PckInfo, 100);
 816:Task/Task_Protocol.c ****         SrvComProto.mav_msg_enable_ctl(&TaskProto_MAV_Altitude, true);
 817:Task/Task_Protocol.c **** 
 818:Task/Task_Protocol.c ****         SrvComProto.mav_msg_obj_init(&RadioProto_MAV_Altitude, PckInfo, 100);
 819:Task/Task_Protocol.c ****         SrvComProto.mav_msg_enable_ctl(&RadioProto_MAV_Altitude, true);
 820:Task/Task_Protocol.c **** 
 821:Task/Task_Protocol.c ****         /* create mavlink input message object */
 822:Task/Task_Protocol.c ****         /* default(VCP) port */
 823:Task/Task_Protocol.c ****         /* when VCP port is been attached only can do parameter tunning function */
ARM GAS  C:\Users\8bit\AppData\Local\Temp\ccqwqzi2.s 			page 21


 824:Task/Task_Protocol.c ****         SrvComProto.mav_msg_set_input_callback(&DefaultPort_MavMsgInput_Obj, MavIn_Msg_PID_Para_Rol
 825:Task/Task_Protocol.c ****         SrvComProto.mav_msg_set_input_callback(&DefaultPort_MavMsgInput_Obj, MavIn_Msg_PID_Para_Pit
 826:Task/Task_Protocol.c ****         SrvComProto.mav_msg_set_input_callback(&DefaultPort_MavMsgInput_Obj, MavIn_Msg_PID_Para_Gyr
 827:Task/Task_Protocol.c ****         SrvComProto.mav_msg_set_input_callback(&DefaultPort_MavMsgInput_Obj, MavIn_Msg_PID_Para_Gyr
 828:Task/Task_Protocol.c ****         SrvComProto.mav_msg_set_input_callback(&DefaultPort_MavMsgInput_Obj, MavIn_Msg_PID_Para_Gyr
 829:Task/Task_Protocol.c **** 
 830:Task/Task_Protocol.c ****         /* radio port */
 831:Task/Task_Protocol.c ****         /* radio control mode can be used */
 832:Task/Task_Protocol.c ****         SrvComProto.mav_msg_set_input_callback(&RadioPort_MavMsgInput_Obj, MavIn_Msg_Att,          
 833:Task/Task_Protocol.c ****         SrvComProto.mav_msg_set_input_callback(&RadioPort_MavMsgInput_Obj, MavIn_Msg_Gyr,          
 834:Task/Task_Protocol.c ****         SrvComProto.mav_msg_set_input_callback(&RadioPort_MavMsgInput_Obj, MavIn_Msg_Alt,          
 835:Task/Task_Protocol.c ****         SrvComProto.mav_msg_set_input_callback(&RadioPort_MavMsgInput_Obj, MavIn_Msg_PID_Para_Roll,
 836:Task/Task_Protocol.c ****         SrvComProto.mav_msg_set_input_callback(&RadioPort_MavMsgInput_Obj, MavIn_Msg_PID_Para_Pitch
 837:Task/Task_Protocol.c ****         SrvComProto.mav_msg_set_input_callback(&RadioPort_MavMsgInput_Obj, MavIn_Msg_PID_Para_GyrX,
 838:Task/Task_Protocol.c ****         SrvComProto.mav_msg_set_input_callback(&RadioPort_MavMsgInput_Obj, MavIn_Msg_PID_Para_GyrY,
 839:Task/Task_Protocol.c ****         SrvComProto.mav_msg_set_input_callback(&RadioPort_MavMsgInput_Obj, MavIn_Msg_PID_Para_GyrZ,
 840:Task/Task_Protocol.c ****         return true;
 841:Task/Task_Protocol.c ****     }
 842:Task/Task_Protocol.c **** 
 843:Task/Task_Protocol.c ****     return false;
 844:Task/Task_Protocol.c **** }
 845:Task/Task_Protocol.c **** 
 846:Task/Task_Protocol.c **** static void TaskFrameCTL_PortFrameOut_Process(void)
 847:Task/Task_Protocol.c **** {
 290              		.loc 1 847 1 is_stmt 1 view -0
 291              		.cfi_startproc
 292              		@ args = 0, pretend = 0, frame = 16
 293              		@ frame_needed = 0, uses_anonymous_args = 0
 294 0000 F0B5     		push	{r4, r5, r6, r7, lr}
 295              	.LCFI6:
 296              		.cfi_def_cfa_offset 20
 297              		.cfi_offset 4, -20
 298              		.cfi_offset 5, -16
 299              		.cfi_offset 6, -12
 300              		.cfi_offset 7, -8
 301              		.cfi_offset 14, -4
 302 0002 85B0     		sub	sp, sp, #20
 303              	.LCFI7:
 304              		.cfi_def_cfa_offset 40
 848:Task/Task_Protocol.c ****     FrameCTL_Monitor_TypeDef proto_monitor;
 305              		.loc 1 848 5 view .LVU76
 849:Task/Task_Protocol.c ****     void *proto_arg = (void *)&proto_monitor;
 306              		.loc 1 849 5 view .LVU77
 307              	.LVL22:
 850:Task/Task_Protocol.c ****     bool arm_state = false;
 308              		.loc 1 850 5 view .LVU78
 309              		.loc 1 850 10 is_stmt 0 view .LVU79
 310 0004 0023     		movs	r3, #0
 311 0006 8DF80730 		strb	r3, [sp, #7]
 851:Task/Task_Protocol.c ****     bool CLI_state = false;
 312              		.loc 1 851 5 is_stmt 1 view .LVU80
 313              		.loc 1 851 10 is_stmt 0 view .LVU81
 314 000a 8DF80630 		strb	r3, [sp, #6]
 852:Task/Task_Protocol.c **** 
 853:Task/Task_Protocol.c ****     proto_monitor.frame_type = ComFrame_MavMsg;
 315              		.loc 1 853 5 is_stmt 1 view .LVU82
 316              		.loc 1 853 30 is_stmt 0 view .LVU83
ARM GAS  C:\Users\8bit\AppData\Local\Temp\ccqwqzi2.s 			page 22


 317 000e 0223     		movs	r3, #2
 318 0010 8DF80830 		strb	r3, [sp, #8]
 854:Task/Task_Protocol.c ****     SrvDataHub.get_cli_state(&CLI_state);
 319              		.loc 1 854 5 is_stmt 1 view .LVU84
 320              		.loc 1 854 15 is_stmt 0 view .LVU85
 321 0014 344B     		ldr	r3, .L30
 322 0016 5B69     		ldr	r3, [r3, #20]
 323              		.loc 1 854 5 view .LVU86
 324 0018 0DF10600 		add	r0, sp, #6
 325 001c 9847     		blx	r3
 326              	.LVL23:
 855:Task/Task_Protocol.c **** 
 856:Task/Task_Protocol.c ****     if(FrameCTL_MavProto_Enable)
 327              		.loc 1 856 5 is_stmt 1 view .LVU87
 328              		.loc 1 856 8 is_stmt 0 view .LVU88
 329 001e 334B     		ldr	r3, .L30+4
 330 0020 1B78     		ldrb	r3, [r3]	@ zero_extendqisi2
 331              		.loc 1 856 7 view .LVU89
 332 0022 002B     		cmp	r3, #0
 333 0024 5ED0     		beq	.L26
 857:Task/Task_Protocol.c ****     {
 858:Task/Task_Protocol.c ****         /* when attach to configrator then disable radio port trans use default port trans mav data
 859:Task/Task_Protocol.c ****         /* check other port init state */
 860:Task/Task_Protocol.c **** 
 861:Task/Task_Protocol.c ****         /* if in tunning than halt general frame protocol */
 862:Task/Task_Protocol.c ****         SrvDataHub.get_arm_state(&arm_state);
 334              		.loc 1 862 9 is_stmt 1 view .LVU90
 335              		.loc 1 862 19 is_stmt 0 view .LVU91
 336 0026 304B     		ldr	r3, .L30
 337 0028 5B6D     		ldr	r3, [r3, #84]
 338              		.loc 1 862 9 view .LVU92
 339 002a 0DF10700 		add	r0, sp, #7
 340 002e 9847     		blx	r3
 341              	.LVL24:
 863:Task/Task_Protocol.c **** 
 864:Task/Task_Protocol.c ****         if (((FrameCTL_UartPortMonitor_TypeDef *)Radio_Addr)->init_state)
 342              		.loc 1 864 9 is_stmt 1 view .LVU93
 343              		.loc 1 864 14 is_stmt 0 view .LVU94
 344 0030 2F4B     		ldr	r3, .L30+8
 345 0032 1B68     		ldr	r3, [r3]
 346              		.loc 1 864 61 view .LVU95
 347 0034 1A78     		ldrb	r2, [r3]	@ zero_extendqisi2
 348              		.loc 1 864 12 view .LVU96
 349 0036 22B3     		cbz	r2, .L28
 865:Task/Task_Protocol.c ****         {
 866:Task/Task_Protocol.c ****             /* Proto mavlink message through Radio */
 867:Task/Task_Protocol.c ****             proto_monitor.port_type = Port_Uart;
 350              		.loc 1 867 13 is_stmt 1 view .LVU97
 351              		.loc 1 867 37 is_stmt 0 view .LVU98
 352 0038 0222     		movs	r2, #2
 353 003a 8DF80920 		strb	r2, [sp, #9]
 868:Task/Task_Protocol.c ****             proto_monitor.port_addr = Radio_Addr;
 354              		.loc 1 868 13 is_stmt 1 view .LVU99
 355              		.loc 1 868 37 is_stmt 0 view .LVU100
 356 003e 0393     		str	r3, [sp, #12]
 869:Task/Task_Protocol.c ****             SrvComProto.mav_msg_stream(&RadioProto_MAV_RawIMU,    &MavStream, proto_arg, (ComProto_
 357              		.loc 1 869 13 is_stmt 1 view .LVU101
ARM GAS  C:\Users\8bit\AppData\Local\Temp\ccqwqzi2.s 			page 23


 358              		.loc 1 869 24 is_stmt 0 view .LVU102
 359 0040 2C4E     		ldr	r6, .L30+12
 360              		.loc 1 869 13 view .LVU103
 361 0042 2D4D     		ldr	r5, .L30+16
 362 0044 2D4C     		ldr	r4, .L30+20
 363 0046 2B46     		mov	r3, r5
 364 0048 02AA     		add	r2, sp, #8
 365              	.LVL25:
 366              		.loc 1 869 13 view .LVU104
 367 004a 2146     		mov	r1, r4
 368 004c 2C48     		ldr	r0, .L30+24
 369 004e 7769     		ldr	r7, [r6, #20]
 370 0050 B847     		blx	r7
 371              	.LVL26:
 870:Task/Task_Protocol.c ****             SrvComProto.mav_msg_stream(&RadioProto_MAV_ScaledIMU, &MavStream, proto_arg, (ComProto_
 372              		.loc 1 870 13 is_stmt 1 view .LVU105
 373 0052 2B46     		mov	r3, r5
 374 0054 02AA     		add	r2, sp, #8
 375              	.LVL27:
 376              		.loc 1 870 13 is_stmt 0 view .LVU106
 377 0056 2146     		mov	r1, r4
 378 0058 2A48     		ldr	r0, .L30+28
 379 005a 7769     		ldr	r7, [r6, #20]
 380 005c B847     		blx	r7
 381              	.LVL28:
 871:Task/Task_Protocol.c ****             SrvComProto.mav_msg_stream(&RadioProto_MAV_Attitude,  &MavStream, proto_arg, (ComProto_
 382              		.loc 1 871 13 is_stmt 1 view .LVU107
 383 005e 2B46     		mov	r3, r5
 384 0060 02AA     		add	r2, sp, #8
 385              	.LVL29:
 386              		.loc 1 871 13 is_stmt 0 view .LVU108
 387 0062 2146     		mov	r1, r4
 388 0064 2848     		ldr	r0, .L30+32
 389 0066 7769     		ldr	r7, [r6, #20]
 390 0068 B847     		blx	r7
 391              	.LVL30:
 872:Task/Task_Protocol.c ****             SrvComProto.mav_msg_stream(&RadioProto_MAV_RcChannel, &MavStream, proto_arg, (ComProto_
 392              		.loc 1 872 13 is_stmt 1 view .LVU109
 393 006a 2B46     		mov	r3, r5
 394 006c 02AA     		add	r2, sp, #8
 395              	.LVL31:
 396              		.loc 1 872 13 is_stmt 0 view .LVU110
 397 006e 2146     		mov	r1, r4
 398 0070 2648     		ldr	r0, .L30+36
 399 0072 7769     		ldr	r7, [r6, #20]
 400 0074 B847     		blx	r7
 401              	.LVL32:
 873:Task/Task_Protocol.c ****             SrvComProto.mav_msg_stream(&RadioProto_MAV_Altitude,  &MavStream, proto_arg, (ComProto_
 402              		.loc 1 873 13 is_stmt 1 view .LVU111
 403              		.loc 1 873 24 is_stmt 0 view .LVU112
 404 0076 7669     		ldr	r6, [r6, #20]
 405              		.loc 1 873 13 view .LVU113
 406 0078 2B46     		mov	r3, r5
 407 007a 02AA     		add	r2, sp, #8
 408              	.LVL33:
 409              		.loc 1 873 13 view .LVU114
 410 007c 2146     		mov	r1, r4
ARM GAS  C:\Users\8bit\AppData\Local\Temp\ccqwqzi2.s 			page 24


 411 007e 2448     		ldr	r0, .L30+40
 412 0080 B047     		blx	r6
 413              	.LVL34:
 414              	.L28:
 874:Task/Task_Protocol.c ****         }
 875:Task/Task_Protocol.c **** 
 876:Task/Task_Protocol.c ****         if (PortMonitor.VCP_Port.init_state)
 415              		.loc 1 876 9 is_stmt 1 view .LVU115
 416              		.loc 1 876 33 is_stmt 0 view .LVU116
 417 0082 244B     		ldr	r3, .L30+44
 418 0084 1B7A     		ldrb	r3, [r3, #8]	@ zero_extendqisi2
 419              		.loc 1 876 12 view .LVU117
 420 0086 002B     		cmp	r3, #0
 421 0088 2CD0     		beq	.L26
 877:Task/Task_Protocol.c ****         {
 878:Task/Task_Protocol.c ****             /* Proto mavlink message through default port */
 879:Task/Task_Protocol.c ****             proto_monitor.port_type = Port_USB;
 422              		.loc 1 879 13 is_stmt 1 view .LVU118
 423              		.loc 1 879 37 is_stmt 0 view .LVU119
 424 008a 0123     		movs	r3, #1
 425 008c 8DF80930 		strb	r3, [sp, #9]
 880:Task/Task_Protocol.c ****             proto_monitor.port_addr = USB_VCP_Addr;
 426              		.loc 1 880 13 is_stmt 1 view .LVU120
 427              		.loc 1 880 37 is_stmt 0 view .LVU121
 428 0090 214B     		ldr	r3, .L30+48
 429 0092 1B68     		ldr	r3, [r3]
 430 0094 0393     		str	r3, [sp, #12]
 881:Task/Task_Protocol.c ****             SrvComProto.mav_msg_stream(&TaskProto_MAV_RawIMU,       &MavStream, proto_arg, (ComProt
 431              		.loc 1 881 13 is_stmt 1 view .LVU122
 432              		.loc 1 881 24 is_stmt 0 view .LVU123
 433 0096 174E     		ldr	r6, .L30+12
 434              		.loc 1 881 13 view .LVU124
 435 0098 174D     		ldr	r5, .L30+16
 436 009a 184C     		ldr	r4, .L30+20
 437 009c 2B46     		mov	r3, r5
 438 009e 02AA     		add	r2, sp, #8
 439              	.LVL35:
 440              		.loc 1 881 13 view .LVU125
 441 00a0 2146     		mov	r1, r4
 442 00a2 1E48     		ldr	r0, .L30+52
 443 00a4 7769     		ldr	r7, [r6, #20]
 444 00a6 B847     		blx	r7
 445              	.LVL36:
 882:Task/Task_Protocol.c ****             SrvComProto.mav_msg_stream(&TaskProto_MAV_ScaledIMU,    &MavStream, proto_arg, (ComProt
 446              		.loc 1 882 13 is_stmt 1 view .LVU126
 447 00a8 2B46     		mov	r3, r5
 448 00aa 02AA     		add	r2, sp, #8
 449              	.LVL37:
 450              		.loc 1 882 13 is_stmt 0 view .LVU127
 451 00ac 2146     		mov	r1, r4
 452 00ae 1C48     		ldr	r0, .L30+56
 453 00b0 7769     		ldr	r7, [r6, #20]
 454 00b2 B847     		blx	r7
 455              	.LVL38:
 883:Task/Task_Protocol.c ****             SrvComProto.mav_msg_stream(&TaskProto_MAV_Attitude,     &MavStream, proto_arg, (ComProt
 456              		.loc 1 883 13 is_stmt 1 view .LVU128
 457 00b4 2B46     		mov	r3, r5
ARM GAS  C:\Users\8bit\AppData\Local\Temp\ccqwqzi2.s 			page 25


 458 00b6 02AA     		add	r2, sp, #8
 459              	.LVL39:
 460              		.loc 1 883 13 is_stmt 0 view .LVU129
 461 00b8 2146     		mov	r1, r4
 462 00ba 1A48     		ldr	r0, .L30+60
 463 00bc 7769     		ldr	r7, [r6, #20]
 464 00be B847     		blx	r7
 465              	.LVL40:
 884:Task/Task_Protocol.c ****             SrvComProto.mav_msg_stream(&TaskProto_MAV_RcChannel,    &MavStream, proto_arg, (ComProt
 466              		.loc 1 884 13 is_stmt 1 view .LVU130
 467 00c0 2B46     		mov	r3, r5
 468 00c2 02AA     		add	r2, sp, #8
 469              	.LVL41:
 470              		.loc 1 884 13 is_stmt 0 view .LVU131
 471 00c4 2146     		mov	r1, r4
 472 00c6 1848     		ldr	r0, .L30+64
 473 00c8 7769     		ldr	r7, [r6, #20]
 474 00ca B847     		blx	r7
 475              	.LVL42:
 885:Task/Task_Protocol.c ****             SrvComProto.mav_msg_stream(&TaskProto_MAV_Altitude,     &MavStream, proto_arg, (ComProt
 476              		.loc 1 885 13 is_stmt 1 view .LVU132
 477 00cc 2B46     		mov	r3, r5
 478 00ce 02AA     		add	r2, sp, #8
 479              	.LVL43:
 480              		.loc 1 885 13 is_stmt 0 view .LVU133
 481 00d0 2146     		mov	r1, r4
 482 00d2 1648     		ldr	r0, .L30+68
 483 00d4 7769     		ldr	r7, [r6, #20]
 484 00d6 B847     		blx	r7
 485              	.LVL44:
 886:Task/Task_Protocol.c ****             SrvComProto.mav_msg_stream(&TaskProto_MAV_Exp_Attitude, &MavStream, proto_arg, (ComProt
 486              		.loc 1 886 13 is_stmt 1 view .LVU134
 487              		.loc 1 886 24 is_stmt 0 view .LVU135
 488 00d8 7669     		ldr	r6, [r6, #20]
 489              		.loc 1 886 13 view .LVU136
 490 00da 2B46     		mov	r3, r5
 491 00dc 02AA     		add	r2, sp, #8
 492              	.LVL45:
 493              		.loc 1 886 13 view .LVU137
 494 00de 2146     		mov	r1, r4
 495 00e0 1348     		ldr	r0, .L30+72
 496 00e2 B047     		blx	r6
 497              	.LVL46:
 498              	.L26:
 887:Task/Task_Protocol.c ****         }
 888:Task/Task_Protocol.c ****     }
 889:Task/Task_Protocol.c **** }
 499              		.loc 1 889 1 view .LVU138
 500 00e4 05B0     		add	sp, sp, #20
 501              	.LCFI8:
 502              		.cfi_def_cfa_offset 20
 503              		@ sp needed
 504 00e6 F0BD     		pop	{r4, r5, r6, r7, pc}
 505              	.LVL47:
 506              	.L31:
 507              		.loc 1 889 1 view .LVU139
 508              		.align	2
ARM GAS  C:\Users\8bit\AppData\Local\Temp\ccqwqzi2.s 			page 26


 509              	.L30:
 510 00e8 00000000 		.word	SrvDataHub
 511 00ec 00000000 		.word	.LANCHOR2
 512 00f0 00000000 		.word	.LANCHOR3
 513 00f4 00000000 		.word	SrvComProto
 514 00f8 00000000 		.word	TaskFrameCTL_MavMsg_Trans
 515 00fc 00000000 		.word	.LANCHOR4
 516 0100 00000000 		.word	.LANCHOR5
 517 0104 00000000 		.word	.LANCHOR6
 518 0108 00000000 		.word	.LANCHOR7
 519 010c 00000000 		.word	.LANCHOR8
 520 0110 00000000 		.word	.LANCHOR9
 521 0114 00000000 		.word	.LANCHOR0
 522 0118 00000000 		.word	.LANCHOR10
 523 011c 00000000 		.word	.LANCHOR11
 524 0120 00000000 		.word	.LANCHOR12
 525 0124 00000000 		.word	.LANCHOR13
 526 0128 00000000 		.word	.LANCHOR14
 527 012c 00000000 		.word	.LANCHOR15
 528 0130 00000000 		.word	.LANCHOR16
 529              		.cfi_endproc
 530              	.LFE2088:
 532              		.section	.text.TaskFrame_Mav_ExpAtt_Callback,"ax",%progbits
 533              		.align	1
 534              		.syntax unified
 535              		.thumb
 536              		.thumb_func
 538              	TaskFrame_Mav_ExpAtt_Callback:
 539              	.LVL48:
 540              	.LFB2092:
 890:Task/Task_Protocol.c **** 
 891:Task/Task_Protocol.c **** static void TaskFrameCTL_CLI_Proc(void)
 892:Task/Task_Protocol.c **** {
 893:Task/Task_Protocol.c ****     uint16_t rx_stream_size = 0;
 894:Task/Task_Protocol.c ****     bool arm_state;
 895:Task/Task_Protocol.c ****     Shell *shell_obj = Shell_GetInstence();
 896:Task/Task_Protocol.c **** 
 897:Task/Task_Protocol.c ****     /* check CLI stream */
 898:Task/Task_Protocol.c ****     if(shell_obj && CLI_Monitor.p_rx_stream->p_buf && CLI_Monitor.p_rx_stream->size)
 899:Task/Task_Protocol.c ****     {
 900:Task/Task_Protocol.c ****         rx_stream_size = CLI_Monitor.p_rx_stream->size;
 901:Task/Task_Protocol.c **** 
 902:Task/Task_Protocol.c ****         /* if drone is under disarm state then CLI disable */
 903:Task/Task_Protocol.c ****         SrvDataHub.get_arm_state(&arm_state);
 904:Task/Task_Protocol.c ****         if (arm_state == DRONE_DISARM)
 905:Task/Task_Protocol.c ****             return;
 906:Task/Task_Protocol.c **** 
 907:Task/Task_Protocol.c ****         for(uint16_t i = 0; i < rx_stream_size; i++)
 908:Task/Task_Protocol.c ****         {
 909:Task/Task_Protocol.c ****             shellHandler(shell_obj, CLI_Monitor.p_rx_stream->p_buf[i]);
 910:Task/Task_Protocol.c ****             CLI_Monitor.p_rx_stream->p_buf[i] = 0;
 911:Task/Task_Protocol.c ****             CLI_Monitor.p_rx_stream->size --;
 912:Task/Task_Protocol.c ****         }
 913:Task/Task_Protocol.c ****     }
 914:Task/Task_Protocol.c **** }
 915:Task/Task_Protocol.c **** 
 916:Task/Task_Protocol.c **** static void TaskFrameCTL_MavMsg_Trans(FrameCTL_Monitor_TypeDef *Obj, uint8_t *p_data, uint16_t size
ARM GAS  C:\Users\8bit\AppData\Local\Temp\ccqwqzi2.s 			page 27


 917:Task/Task_Protocol.c **** {
 918:Task/Task_Protocol.c ****     if(Obj && (Obj->frame_type == ComFrame_MavMsg) && Obj->port_addr && p_data && size)
 919:Task/Task_Protocol.c ****     {
 920:Task/Task_Protocol.c ****         switch((uint8_t)(Obj->port_type))
 921:Task/Task_Protocol.c ****         {
 922:Task/Task_Protocol.c ****             case Port_Uart:
 923:Task/Task_Protocol.c ****                 TaskFrameCTL_Port_Tx(Obj->port_addr, p_data, size);
 924:Task/Task_Protocol.c ****                 break;
 925:Task/Task_Protocol.c **** 
 926:Task/Task_Protocol.c ****             case Port_USB:
 927:Task/Task_Protocol.c ****                 TaskFrameCTL_DefaultPort_Trans(p_data, size);
 928:Task/Task_Protocol.c ****                 break;
 929:Task/Task_Protocol.c **** 
 930:Task/Task_Protocol.c ****             default:
 931:Task/Task_Protocol.c ****                 return;
 932:Task/Task_Protocol.c ****         }
 933:Task/Task_Protocol.c ****     }
 934:Task/Task_Protocol.c **** }
 935:Task/Task_Protocol.c **** 
 936:Task/Task_Protocol.c **** static void TaskFrameCTL_ConfigureStateCheck(void)
 937:Task/Task_Protocol.c **** {
 938:Task/Task_Protocol.c ****     uint32_t tunning_time_stamp = 0;
 939:Task/Task_Protocol.c ****     uint32_t tunning_port = 0;
 940:Task/Task_Protocol.c ****     bool tunning_state = false;
 941:Task/Task_Protocol.c ****     uint32_t cur_time = SrvOsCommon.get_os_ms();
 942:Task/Task_Protocol.c ****     bool lst_vcp_state = false;
 943:Task/Task_Protocol.c **** 
 944:Task/Task_Protocol.c ****     PortMonitor.vcp_connect_state = false;
 945:Task/Task_Protocol.c **** 
 946:Task/Task_Protocol.c ****     /* check usb vcp attach state */
 947:Task/Task_Protocol.c ****     if (BspUSB_VCP.check_connect)
 948:Task/Task_Protocol.c ****         PortMonitor.vcp_connect_state = BspUSB_VCP.check_connect(cur_time, FrameCTL_Period);
 949:Task/Task_Protocol.c **** 
 950:Task/Task_Protocol.c ****     SrvDataHub.get_vcp_attach_state(&lst_vcp_state);
 951:Task/Task_Protocol.c **** 
 952:Task/Task_Protocol.c ****     /* if vcp connect state is change update vcp state to data hub */
 953:Task/Task_Protocol.c ****     if (lst_vcp_state != PortMonitor.vcp_connect_state)
 954:Task/Task_Protocol.c ****     {
 955:Task/Task_Protocol.c ****         DataPipe_DataObj(VCP_Attach_State) = PortMonitor.vcp_connect_state;
 956:Task/Task_Protocol.c ****         DataPipe_SendTo(&VCP_Connect_smp_DataPipe, &VCP_Connect_hub_DataPipe);
 957:Task/Task_Protocol.c ****     }
 958:Task/Task_Protocol.c **** }
 959:Task/Task_Protocol.c **** 
 960:Task/Task_Protocol.c **** /***************************************** Frame mavlink Receive Callback *************************
 961:Task/Task_Protocol.c **** static bool TaskFrame_Mav_ExpAtt_Callback(void const *mav_data, void *cus_data)
 962:Task/Task_Protocol.c **** {
 541              		.loc 1 962 1 is_stmt 1 view -0
 542              		.cfi_startproc
 543              		@ args = 0, pretend = 0, frame = 0
 544              		@ frame_needed = 0, uses_anonymous_args = 0
 545              		@ link register save eliminated.
 963:Task/Task_Protocol.c ****     if (mav_data == NULL)
 546              		.loc 1 963 5 view .LVU141
 547              		.loc 1 963 8 is_stmt 0 view .LVU142
 548 0000 08B1     		cbz	r0, .L34
 964:Task/Task_Protocol.c ****         return false;
 965:Task/Task_Protocol.c **** 
ARM GAS  C:\Users\8bit\AppData\Local\Temp\ccqwqzi2.s 			page 28


 966:Task/Task_Protocol.c ****     return true;
 549              		.loc 1 966 12 view .LVU143
 550 0002 0120     		movs	r0, #1
 551              	.LVL49:
 552              		.loc 1 966 12 view .LVU144
 553 0004 7047     		bx	lr
 554              	.LVL50:
 555              	.L34:
 964:Task/Task_Protocol.c ****         return false;
 556              		.loc 1 964 16 view .LVU145
 557 0006 0020     		movs	r0, #0
 558              	.LVL51:
 967:Task/Task_Protocol.c **** }
 559              		.loc 1 967 1 view .LVU146
 560 0008 7047     		bx	lr
 561              		.cfi_endproc
 562              	.LFE2092:
 564              		.section	.text.TaskFrame_Mav_ExpGyro_Callback,"ax",%progbits
 565              		.align	1
 566              		.syntax unified
 567              		.thumb
 568              		.thumb_func
 570              	TaskFrame_Mav_ExpGyro_Callback:
 571              	.LVL52:
 572              	.LFB2093:
 968:Task/Task_Protocol.c **** 
 969:Task/Task_Protocol.c **** static bool TaskFrame_Mav_ExpGyro_Callback(void const *mav_data, void *cus_data)
 970:Task/Task_Protocol.c **** {
 573              		.loc 1 970 1 is_stmt 1 view -0
 574              		.cfi_startproc
 575              		@ args = 0, pretend = 0, frame = 0
 576              		@ frame_needed = 0, uses_anonymous_args = 0
 577              		@ link register save eliminated.
 971:Task/Task_Protocol.c ****     if (mav_data == NULL)
 578              		.loc 1 971 5 view .LVU148
 579              		.loc 1 971 8 is_stmt 0 view .LVU149
 580 0000 08B1     		cbz	r0, .L37
 972:Task/Task_Protocol.c ****         return false;
 973:Task/Task_Protocol.c **** 
 974:Task/Task_Protocol.c ****     return true;
 581              		.loc 1 974 12 view .LVU150
 582 0002 0120     		movs	r0, #1
 583              	.LVL53:
 584              		.loc 1 974 12 view .LVU151
 585 0004 7047     		bx	lr
 586              	.LVL54:
 587              	.L37:
 972:Task/Task_Protocol.c ****         return false;
 588              		.loc 1 972 16 view .LVU152
 589 0006 0020     		movs	r0, #0
 590              	.LVL55:
 975:Task/Task_Protocol.c **** }
 591              		.loc 1 975 1 view .LVU153
 592 0008 7047     		bx	lr
 593              		.cfi_endproc
 594              	.LFE2093:
 596              		.section	.text.TaskFrame_Mav_ExpAlt_Callback,"ax",%progbits
ARM GAS  C:\Users\8bit\AppData\Local\Temp\ccqwqzi2.s 			page 29


 597              		.align	1
 598              		.syntax unified
 599              		.thumb
 600              		.thumb_func
 602              	TaskFrame_Mav_ExpAlt_Callback:
 603              	.LVL56:
 604              	.LFB2094:
 976:Task/Task_Protocol.c **** 
 977:Task/Task_Protocol.c **** static bool TaskFrame_Mav_ExpAlt_Callback(void const *mav_data, void *cus_data)
 978:Task/Task_Protocol.c **** {
 605              		.loc 1 978 1 is_stmt 1 view -0
 606              		.cfi_startproc
 607              		@ args = 0, pretend = 0, frame = 8
 608              		@ frame_needed = 0, uses_anonymous_args = 0
 609              		.loc 1 978 1 is_stmt 0 view .LVU155
 610 0000 00B5     		push	{lr}
 611              	.LCFI9:
 612              		.cfi_def_cfa_offset 4
 613              		.cfi_offset 14, -4
 614 0002 83B0     		sub	sp, sp, #12
 615              	.LCFI10:
 616              		.cfi_def_cfa_offset 16
 979:Task/Task_Protocol.c ****     bool arm_state = DRONE_ARM;
 617              		.loc 1 979 5 is_stmt 1 view .LVU156
 618              		.loc 1 979 10 is_stmt 0 view .LVU157
 619 0004 0123     		movs	r3, #1
 620 0006 8DF80730 		strb	r3, [sp, #7]
 980:Task/Task_Protocol.c **** 
 981:Task/Task_Protocol.c ****     if ((mav_data == NULL) || \
 621              		.loc 1 981 5 is_stmt 1 view .LVU158
 622              		.loc 1 981 8 is_stmt 0 view .LVU159
 623 000a 40B1     		cbz	r0, .L39
 982:Task/Task_Protocol.c ****         (SrvDataHub.get_arm_state(&arm_state)) || \
 624              		.loc 1 982 20 discriminator 1 view .LVU160
 625 000c 064B     		ldr	r3, .L42
 626 000e 5B6D     		ldr	r3, [r3, #84]
 627              		.loc 1 982 10 discriminator 1 view .LVU161
 628 0010 0DF10700 		add	r0, sp, #7
 629              	.LVL57:
 630              		.loc 1 982 10 discriminator 1 view .LVU162
 631 0014 9847     		blx	r3
 632              	.LVL58:
 981:Task/Task_Protocol.c ****         (SrvDataHub.get_arm_state(&arm_state)) || \
 633              		.loc 1 981 28 discriminator 1 view .LVU163
 634 0016 10B9     		cbnz	r0, .L39
 983:Task/Task_Protocol.c ****         (arm_state == DRONE_DISARM))
 635              		.loc 1 983 20 view .LVU164
 636 0018 9DF80700 		ldrb	r0, [sp, #7]	@ zero_extendqisi2
 982:Task/Task_Protocol.c ****         (SrvDataHub.get_arm_state(&arm_state)) || \
 637              		.loc 1 982 48 view .LVU165
 638 001c 00B9     		cbnz	r0, .L40
 639              	.L39:
 984:Task/Task_Protocol.c ****         return false;
 640              		.loc 1 984 9 is_stmt 1 view .LVU166
 641              		.loc 1 984 16 is_stmt 0 view .LVU167
 642 001e 0020     		movs	r0, #0
 643              	.L40:
ARM GAS  C:\Users\8bit\AppData\Local\Temp\ccqwqzi2.s 			page 30


 985:Task/Task_Protocol.c **** 
 986:Task/Task_Protocol.c ****     return true;
 987:Task/Task_Protocol.c **** }
 644              		.loc 1 987 1 view .LVU168
 645 0020 03B0     		add	sp, sp, #12
 646              	.LCFI11:
 647              		.cfi_def_cfa_offset 4
 648              		@ sp needed
 649 0022 5DF804FB 		ldr	pc, [sp], #4
 650              	.L43:
 651 0026 00BF     		.align	2
 652              	.L42:
 653 0028 00000000 		.word	SrvDataHub
 654              		.cfi_endproc
 655              	.LFE2094:
 657              		.section	.text.TaskFrame_Mav_PID_Roll_Callback,"ax",%progbits
 658              		.align	1
 659              		.syntax unified
 660              		.thumb
 661              		.thumb_func
 663              	TaskFrame_Mav_PID_Roll_Callback:
 664              	.LVL59:
 665              	.LFB2095:
 988:Task/Task_Protocol.c **** 
 989:Task/Task_Protocol.c **** static bool TaskFrame_Mav_PID_Roll_Callback(void const *mav_data, void *cus_data)
 990:Task/Task_Protocol.c **** {
 666              		.loc 1 990 1 is_stmt 1 view -0
 667              		.cfi_startproc
 668              		@ args = 0, pretend = 0, frame = 8
 669              		@ frame_needed = 0, uses_anonymous_args = 0
 670              		.loc 1 990 1 is_stmt 0 view .LVU170
 671 0000 00B5     		push	{lr}
 672              	.LCFI12:
 673              		.cfi_def_cfa_offset 4
 674              		.cfi_offset 14, -4
 675 0002 83B0     		sub	sp, sp, #12
 676              	.LCFI13:
 677              		.cfi_def_cfa_offset 16
 991:Task/Task_Protocol.c ****     bool arm_state = DRONE_ARM;
 678              		.loc 1 991 5 is_stmt 1 view .LVU171
 679              		.loc 1 991 10 is_stmt 0 view .LVU172
 680 0004 0123     		movs	r3, #1
 681 0006 8DF80730 		strb	r3, [sp, #7]
 992:Task/Task_Protocol.c **** 
 993:Task/Task_Protocol.c ****     if ((mav_data == NULL) || \
 682              		.loc 1 993 5 is_stmt 1 view .LVU173
 683              		.loc 1 993 8 is_stmt 0 view .LVU174
 684 000a 40B1     		cbz	r0, .L45
 994:Task/Task_Protocol.c ****         (SrvDataHub.get_arm_state(&arm_state)) || \
 685              		.loc 1 994 20 discriminator 1 view .LVU175
 686 000c 064B     		ldr	r3, .L48
 687 000e 5B6D     		ldr	r3, [r3, #84]
 688              		.loc 1 994 10 discriminator 1 view .LVU176
 689 0010 0DF10700 		add	r0, sp, #7
 690              	.LVL60:
 691              		.loc 1 994 10 discriminator 1 view .LVU177
 692 0014 9847     		blx	r3
ARM GAS  C:\Users\8bit\AppData\Local\Temp\ccqwqzi2.s 			page 31


 693              	.LVL61:
 993:Task/Task_Protocol.c ****         (SrvDataHub.get_arm_state(&arm_state)) || \
 694              		.loc 1 993 28 discriminator 1 view .LVU178
 695 0016 10B9     		cbnz	r0, .L45
 995:Task/Task_Protocol.c ****         (arm_state == DRONE_DISARM))
 696              		.loc 1 995 20 view .LVU179
 697 0018 9DF80700 		ldrb	r0, [sp, #7]	@ zero_extendqisi2
 994:Task/Task_Protocol.c ****         (SrvDataHub.get_arm_state(&arm_state)) || \
 698              		.loc 1 994 48 view .LVU180
 699 001c 00B9     		cbnz	r0, .L46
 700              	.L45:
 996:Task/Task_Protocol.c ****         return false;
 701              		.loc 1 996 9 is_stmt 1 view .LVU181
 702              		.loc 1 996 16 is_stmt 0 view .LVU182
 703 001e 0020     		movs	r0, #0
 704              	.L46:
 997:Task/Task_Protocol.c **** 
 998:Task/Task_Protocol.c ****     return true;
 999:Task/Task_Protocol.c **** }
 705              		.loc 1 999 1 view .LVU183
 706 0020 03B0     		add	sp, sp, #12
 707              	.LCFI14:
 708              		.cfi_def_cfa_offset 4
 709              		@ sp needed
 710 0022 5DF804FB 		ldr	pc, [sp], #4
 711              	.L49:
 712 0026 00BF     		.align	2
 713              	.L48:
 714 0028 00000000 		.word	SrvDataHub
 715              		.cfi_endproc
 716              	.LFE2095:
 718              		.section	.text.TaskFrame_Mav_PID_Pitch_Callback,"ax",%progbits
 719              		.align	1
 720              		.syntax unified
 721              		.thumb
 722              		.thumb_func
 724              	TaskFrame_Mav_PID_Pitch_Callback:
 725              	.LVL62:
 726              	.LFB2096:
1000:Task/Task_Protocol.c **** 
1001:Task/Task_Protocol.c **** static bool TaskFrame_Mav_PID_Pitch_Callback(void const *mav_data, void *cus_data)
1002:Task/Task_Protocol.c **** {
 727              		.loc 1 1002 1 is_stmt 1 view -0
 728              		.cfi_startproc
 729              		@ args = 0, pretend = 0, frame = 8
 730              		@ frame_needed = 0, uses_anonymous_args = 0
 731              		.loc 1 1002 1 is_stmt 0 view .LVU185
 732 0000 00B5     		push	{lr}
 733              	.LCFI15:
 734              		.cfi_def_cfa_offset 4
 735              		.cfi_offset 14, -4
 736 0002 83B0     		sub	sp, sp, #12
 737              	.LCFI16:
 738              		.cfi_def_cfa_offset 16
1003:Task/Task_Protocol.c ****     bool arm_state = DRONE_ARM;
 739              		.loc 1 1003 5 is_stmt 1 view .LVU186
 740              		.loc 1 1003 10 is_stmt 0 view .LVU187
ARM GAS  C:\Users\8bit\AppData\Local\Temp\ccqwqzi2.s 			page 32


 741 0004 0123     		movs	r3, #1
 742 0006 8DF80730 		strb	r3, [sp, #7]
1004:Task/Task_Protocol.c **** 
1005:Task/Task_Protocol.c ****     if ((mav_data == NULL) || \
 743              		.loc 1 1005 5 is_stmt 1 view .LVU188
 744              		.loc 1 1005 8 is_stmt 0 view .LVU189
 745 000a 40B1     		cbz	r0, .L51
1006:Task/Task_Protocol.c ****         (SrvDataHub.get_arm_state(&arm_state)) || \
 746              		.loc 1 1006 20 discriminator 1 view .LVU190
 747 000c 064B     		ldr	r3, .L54
 748 000e 5B6D     		ldr	r3, [r3, #84]
 749              		.loc 1 1006 10 discriminator 1 view .LVU191
 750 0010 0DF10700 		add	r0, sp, #7
 751              	.LVL63:
 752              		.loc 1 1006 10 discriminator 1 view .LVU192
 753 0014 9847     		blx	r3
 754              	.LVL64:
1005:Task/Task_Protocol.c ****         (SrvDataHub.get_arm_state(&arm_state)) || \
 755              		.loc 1 1005 28 discriminator 1 view .LVU193
 756 0016 10B9     		cbnz	r0, .L51
1007:Task/Task_Protocol.c ****         (arm_state == DRONE_DISARM))
 757              		.loc 1 1007 20 view .LVU194
 758 0018 9DF80700 		ldrb	r0, [sp, #7]	@ zero_extendqisi2
1006:Task/Task_Protocol.c ****         (SrvDataHub.get_arm_state(&arm_state)) || \
 759              		.loc 1 1006 48 view .LVU195
 760 001c 00B9     		cbnz	r0, .L52
 761              	.L51:
1008:Task/Task_Protocol.c ****         return false;
 762              		.loc 1 1008 9 is_stmt 1 view .LVU196
 763              		.loc 1 1008 16 is_stmt 0 view .LVU197
 764 001e 0020     		movs	r0, #0
 765              	.L52:
1009:Task/Task_Protocol.c **** 
1010:Task/Task_Protocol.c ****     return true;
1011:Task/Task_Protocol.c **** }
 766              		.loc 1 1011 1 view .LVU198
 767 0020 03B0     		add	sp, sp, #12
 768              	.LCFI17:
 769              		.cfi_def_cfa_offset 4
 770              		@ sp needed
 771 0022 5DF804FB 		ldr	pc, [sp], #4
 772              	.L55:
 773 0026 00BF     		.align	2
 774              	.L54:
 775 0028 00000000 		.word	SrvDataHub
 776              		.cfi_endproc
 777              	.LFE2096:
 779              		.section	.text.TaskFrame_Mav_PID_GyrX_Callback,"ax",%progbits
 780              		.align	1
 781              		.syntax unified
 782              		.thumb
 783              		.thumb_func
 785              	TaskFrame_Mav_PID_GyrX_Callback:
 786              	.LVL65:
 787              	.LFB2097:
1012:Task/Task_Protocol.c **** 
1013:Task/Task_Protocol.c **** static bool TaskFrame_Mav_PID_GyrX_Callback(void const *mav_data, void *cus_data)
ARM GAS  C:\Users\8bit\AppData\Local\Temp\ccqwqzi2.s 			page 33


1014:Task/Task_Protocol.c **** {
 788              		.loc 1 1014 1 is_stmt 1 view -0
 789              		.cfi_startproc
 790              		@ args = 0, pretend = 0, frame = 8
 791              		@ frame_needed = 0, uses_anonymous_args = 0
 792              		.loc 1 1014 1 is_stmt 0 view .LVU200
 793 0000 00B5     		push	{lr}
 794              	.LCFI18:
 795              		.cfi_def_cfa_offset 4
 796              		.cfi_offset 14, -4
 797 0002 83B0     		sub	sp, sp, #12
 798              	.LCFI19:
 799              		.cfi_def_cfa_offset 16
1015:Task/Task_Protocol.c ****     bool arm_state = DRONE_ARM;
 800              		.loc 1 1015 5 is_stmt 1 view .LVU201
 801              		.loc 1 1015 10 is_stmt 0 view .LVU202
 802 0004 0123     		movs	r3, #1
 803 0006 8DF80730 		strb	r3, [sp, #7]
1016:Task/Task_Protocol.c **** 
1017:Task/Task_Protocol.c ****     if ((mav_data == NULL) || \
 804              		.loc 1 1017 5 is_stmt 1 view .LVU203
 805              		.loc 1 1017 8 is_stmt 0 view .LVU204
 806 000a 40B1     		cbz	r0, .L57
1018:Task/Task_Protocol.c ****         (SrvDataHub.get_arm_state(&arm_state)) || \
 807              		.loc 1 1018 20 discriminator 1 view .LVU205
 808 000c 064B     		ldr	r3, .L60
 809 000e 5B6D     		ldr	r3, [r3, #84]
 810              		.loc 1 1018 10 discriminator 1 view .LVU206
 811 0010 0DF10700 		add	r0, sp, #7
 812              	.LVL66:
 813              		.loc 1 1018 10 discriminator 1 view .LVU207
 814 0014 9847     		blx	r3
 815              	.LVL67:
1017:Task/Task_Protocol.c ****         (SrvDataHub.get_arm_state(&arm_state)) || \
 816              		.loc 1 1017 28 discriminator 1 view .LVU208
 817 0016 10B9     		cbnz	r0, .L57
1019:Task/Task_Protocol.c ****         (arm_state == DRONE_DISARM))
 818              		.loc 1 1019 20 view .LVU209
 819 0018 9DF80700 		ldrb	r0, [sp, #7]	@ zero_extendqisi2
1018:Task/Task_Protocol.c ****         (SrvDataHub.get_arm_state(&arm_state)) || \
 820              		.loc 1 1018 48 view .LVU210
 821 001c 00B9     		cbnz	r0, .L58
 822              	.L57:
1020:Task/Task_Protocol.c ****         return false;
 823              		.loc 1 1020 9 is_stmt 1 view .LVU211
 824              		.loc 1 1020 16 is_stmt 0 view .LVU212
 825 001e 0020     		movs	r0, #0
 826              	.L58:
1021:Task/Task_Protocol.c **** 
1022:Task/Task_Protocol.c ****     return true;
1023:Task/Task_Protocol.c **** }
 827              		.loc 1 1023 1 view .LVU213
 828 0020 03B0     		add	sp, sp, #12
 829              	.LCFI20:
 830              		.cfi_def_cfa_offset 4
 831              		@ sp needed
 832 0022 5DF804FB 		ldr	pc, [sp], #4
ARM GAS  C:\Users\8bit\AppData\Local\Temp\ccqwqzi2.s 			page 34


 833              	.L61:
 834 0026 00BF     		.align	2
 835              	.L60:
 836 0028 00000000 		.word	SrvDataHub
 837              		.cfi_endproc
 838              	.LFE2097:
 840              		.section	.text.TaskFrame_Mav_PID_GyrY_Callback,"ax",%progbits
 841              		.align	1
 842              		.syntax unified
 843              		.thumb
 844              		.thumb_func
 846              	TaskFrame_Mav_PID_GyrY_Callback:
 847              	.LVL68:
 848              	.LFB2098:
1024:Task/Task_Protocol.c **** 
1025:Task/Task_Protocol.c **** static bool TaskFrame_Mav_PID_GyrY_Callback(void const *mav_data, void *cus_data)
1026:Task/Task_Protocol.c **** {
 849              		.loc 1 1026 1 is_stmt 1 view -0
 850              		.cfi_startproc
 851              		@ args = 0, pretend = 0, frame = 8
 852              		@ frame_needed = 0, uses_anonymous_args = 0
 853              		.loc 1 1026 1 is_stmt 0 view .LVU215
 854 0000 00B5     		push	{lr}
 855              	.LCFI21:
 856              		.cfi_def_cfa_offset 4
 857              		.cfi_offset 14, -4
 858 0002 83B0     		sub	sp, sp, #12
 859              	.LCFI22:
 860              		.cfi_def_cfa_offset 16
1027:Task/Task_Protocol.c ****     bool arm_state = DRONE_ARM;
 861              		.loc 1 1027 5 is_stmt 1 view .LVU216
 862              		.loc 1 1027 10 is_stmt 0 view .LVU217
 863 0004 0123     		movs	r3, #1
 864 0006 8DF80730 		strb	r3, [sp, #7]
1028:Task/Task_Protocol.c **** 
1029:Task/Task_Protocol.c ****     if ((mav_data == NULL) || \
 865              		.loc 1 1029 5 is_stmt 1 view .LVU218
 866              		.loc 1 1029 8 is_stmt 0 view .LVU219
 867 000a 40B1     		cbz	r0, .L63
1030:Task/Task_Protocol.c ****         (SrvDataHub.get_arm_state(&arm_state)) || \
 868              		.loc 1 1030 20 discriminator 1 view .LVU220
 869 000c 064B     		ldr	r3, .L66
 870 000e 5B6D     		ldr	r3, [r3, #84]
 871              		.loc 1 1030 10 discriminator 1 view .LVU221
 872 0010 0DF10700 		add	r0, sp, #7
 873              	.LVL69:
 874              		.loc 1 1030 10 discriminator 1 view .LVU222
 875 0014 9847     		blx	r3
 876              	.LVL70:
1029:Task/Task_Protocol.c ****         (SrvDataHub.get_arm_state(&arm_state)) || \
 877              		.loc 1 1029 28 discriminator 1 view .LVU223
 878 0016 10B9     		cbnz	r0, .L63
1031:Task/Task_Protocol.c ****         (arm_state == DRONE_DISARM))
 879              		.loc 1 1031 20 view .LVU224
 880 0018 9DF80700 		ldrb	r0, [sp, #7]	@ zero_extendqisi2
1030:Task/Task_Protocol.c ****         (SrvDataHub.get_arm_state(&arm_state)) || \
 881              		.loc 1 1030 48 view .LVU225
ARM GAS  C:\Users\8bit\AppData\Local\Temp\ccqwqzi2.s 			page 35


 882 001c 00B9     		cbnz	r0, .L64
 883              	.L63:
1032:Task/Task_Protocol.c ****         return false;
 884              		.loc 1 1032 9 is_stmt 1 view .LVU226
 885              		.loc 1 1032 16 is_stmt 0 view .LVU227
 886 001e 0020     		movs	r0, #0
 887              	.L64:
1033:Task/Task_Protocol.c **** 
1034:Task/Task_Protocol.c ****     return true;
1035:Task/Task_Protocol.c **** }
 888              		.loc 1 1035 1 view .LVU228
 889 0020 03B0     		add	sp, sp, #12
 890              	.LCFI23:
 891              		.cfi_def_cfa_offset 4
 892              		@ sp needed
 893 0022 5DF804FB 		ldr	pc, [sp], #4
 894              	.L67:
 895 0026 00BF     		.align	2
 896              	.L66:
 897 0028 00000000 		.word	SrvDataHub
 898              		.cfi_endproc
 899              	.LFE2098:
 901              		.section	.text.TaskFrame_Mav_PID_GyrZ_Callback,"ax",%progbits
 902              		.align	1
 903              		.syntax unified
 904              		.thumb
 905              		.thumb_func
 907              	TaskFrame_Mav_PID_GyrZ_Callback:
 908              	.LVL71:
 909              	.LFB2099:
1036:Task/Task_Protocol.c **** 
1037:Task/Task_Protocol.c **** static bool TaskFrame_Mav_PID_GyrZ_Callback(void const *mav_data, void *cus_data)
1038:Task/Task_Protocol.c **** {
 910              		.loc 1 1038 1 is_stmt 1 view -0
 911              		.cfi_startproc
 912              		@ args = 0, pretend = 0, frame = 8
 913              		@ frame_needed = 0, uses_anonymous_args = 0
 914              		.loc 1 1038 1 is_stmt 0 view .LVU230
 915 0000 00B5     		push	{lr}
 916              	.LCFI24:
 917              		.cfi_def_cfa_offset 4
 918              		.cfi_offset 14, -4
 919 0002 83B0     		sub	sp, sp, #12
 920              	.LCFI25:
 921              		.cfi_def_cfa_offset 16
1039:Task/Task_Protocol.c ****     bool arm_state = DRONE_ARM;
 922              		.loc 1 1039 5 is_stmt 1 view .LVU231
 923              		.loc 1 1039 10 is_stmt 0 view .LVU232
 924 0004 0123     		movs	r3, #1
 925 0006 8DF80730 		strb	r3, [sp, #7]
1040:Task/Task_Protocol.c **** 
1041:Task/Task_Protocol.c ****     if ((mav_data == NULL) || \
 926              		.loc 1 1041 5 is_stmt 1 view .LVU233
 927              		.loc 1 1041 8 is_stmt 0 view .LVU234
 928 000a 40B1     		cbz	r0, .L69
1042:Task/Task_Protocol.c ****         (SrvDataHub.get_arm_state(&arm_state)) || \
 929              		.loc 1 1042 20 discriminator 1 view .LVU235
ARM GAS  C:\Users\8bit\AppData\Local\Temp\ccqwqzi2.s 			page 36


 930 000c 064B     		ldr	r3, .L72
 931 000e 5B6D     		ldr	r3, [r3, #84]
 932              		.loc 1 1042 10 discriminator 1 view .LVU236
 933 0010 0DF10700 		add	r0, sp, #7
 934              	.LVL72:
 935              		.loc 1 1042 10 discriminator 1 view .LVU237
 936 0014 9847     		blx	r3
 937              	.LVL73:
1041:Task/Task_Protocol.c ****         (SrvDataHub.get_arm_state(&arm_state)) || \
 938              		.loc 1 1041 28 discriminator 1 view .LVU238
 939 0016 10B9     		cbnz	r0, .L69
1043:Task/Task_Protocol.c ****         (arm_state == DRONE_DISARM))
 940              		.loc 1 1043 20 view .LVU239
 941 0018 9DF80700 		ldrb	r0, [sp, #7]	@ zero_extendqisi2
1042:Task/Task_Protocol.c ****         (SrvDataHub.get_arm_state(&arm_state)) || \
 942              		.loc 1 1042 48 view .LVU240
 943 001c 00B9     		cbnz	r0, .L70
 944              	.L69:
1044:Task/Task_Protocol.c ****         return false;
 945              		.loc 1 1044 9 is_stmt 1 view .LVU241
 946              		.loc 1 1044 16 is_stmt 0 view .LVU242
 947 001e 0020     		movs	r0, #0
 948              	.L70:
1045:Task/Task_Protocol.c **** 
1046:Task/Task_Protocol.c ****     return true;
1047:Task/Task_Protocol.c **** }
 949              		.loc 1 1047 1 view .LVU243
 950 0020 03B0     		add	sp, sp, #12
 951              	.LCFI26:
 952              		.cfi_def_cfa_offset 4
 953              		@ sp needed
 954 0022 5DF804FB 		ldr	pc, [sp], #4
 955              	.L73:
 956 0026 00BF     		.align	2
 957              	.L72:
 958 0028 00000000 		.word	SrvDataHub
 959              		.cfi_endproc
 960              	.LFE2099:
 962              		.section	.text.TaskFrameCTL_MAV_Msg_Init,"ax",%progbits
 963              		.align	1
 964              		.syntax unified
 965              		.thumb
 966              		.thumb_func
 968              	TaskFrameCTL_MAV_Msg_Init:
 969              	.LFB2087:
 735:Task/Task_Protocol.c ****     if (SrvComProto.get_msg_type() == SrvComProto_Type_MAV)
 970              		.loc 1 735 1 is_stmt 1 view -0
 971              		.cfi_startproc
 972              		@ args = 0, pretend = 0, frame = 8
 973              		@ frame_needed = 0, uses_anonymous_args = 0
 974 0000 2DE9F04F 		push	{r4, r5, r6, r7, r8, r9, r10, fp, lr}
 975              	.LCFI27:
 976              		.cfi_def_cfa_offset 36
 977              		.cfi_offset 4, -36
 978              		.cfi_offset 5, -32
 979              		.cfi_offset 6, -28
 980              		.cfi_offset 7, -24
ARM GAS  C:\Users\8bit\AppData\Local\Temp\ccqwqzi2.s 			page 37


 981              		.cfi_offset 8, -20
 982              		.cfi_offset 9, -16
 983              		.cfi_offset 10, -12
 984              		.cfi_offset 11, -8
 985              		.cfi_offset 14, -4
 986 0004 83B0     		sub	sp, sp, #12
 987              	.LCFI28:
 988              		.cfi_def_cfa_offset 48
 736:Task/Task_Protocol.c ****     {
 989              		.loc 1 736 5 view .LVU245
 736:Task/Task_Protocol.c ****     {
 990              		.loc 1 736 20 is_stmt 0 view .LVU246
 991 0006 044B     		ldr	r3, .L79
 992 0008 5B68     		ldr	r3, [r3, #4]
 736:Task/Task_Protocol.c ****     {
 993              		.loc 1 736 9 view .LVU247
 994 000a 9847     		blx	r3
 995              	.LVL74:
 736:Task/Task_Protocol.c ****     {
 996              		.loc 1 736 8 view .LVU248
 997 000c 0228     		cmp	r0, #2
 998 000e 05D0     		beq	.L78
 843:Task/Task_Protocol.c **** }
 999              		.loc 1 843 12 view .LVU249
 1000 0010 0020     		movs	r0, #0
 1001              	.L75:
 844:Task/Task_Protocol.c **** 
 1002              		.loc 1 844 1 discriminator 1 view .LVU250
 1003 0012 03B0     		add	sp, sp, #12
 1004              	.LCFI29:
 1005              		.cfi_remember_state
 1006              		.cfi_def_cfa_offset 36
 1007              		@ sp needed
 1008 0014 BDE8F08F 		pop	{r4, r5, r6, r7, r8, r9, r10, fp, pc}
 1009              	.L80:
 1010              		.align	2
 1011              	.L79:
 1012 0018 00000000 		.word	SrvComProto
 1013              	.L78:
 1014              	.LCFI30:
 1015              		.cfi_restore_state
 1016              	.LBB4:
 738:Task/Task_Protocol.c ****         /* create mavlink output message object */
 1017              		.loc 1 738 9 is_stmt 1 view .LVU251
 740:Task/Task_Protocol.c ****         memset(&TaskProto_MAV_RawIMU, 0, sizeof(TaskProto_MAV_RawIMU));
 1018              		.loc 1 740 9 view .LVU252
 1019 001c 0024     		movs	r4, #0
 1020 001e ADF80440 		strh	r4, [sp, #4]	@ movhi
 1021 0022 8DF80640 		strb	r4, [sp, #6]
 741:Task/Task_Protocol.c ****         memset(&TaskProto_MAV_ScaledIMU, 0, sizeof(TaskProto_MAV_ScaledIMU));
 1022              		.loc 1 741 9 view .LVU253
 1023 0026 DFF83CB3 		ldr	fp, .L81+104
 1024 002a CBF80040 		str	r4, [fp]
 1025 002e CBF80440 		str	r4, [fp, #4]
 1026 0032 CBF80840 		str	r4, [fp, #8]
 1027 0036 CBF80C40 		str	r4, [fp, #12]
 1028 003a CBF81040 		str	r4, [fp, #16]
ARM GAS  C:\Users\8bit\AppData\Local\Temp\ccqwqzi2.s 			page 38


 1029 003e CBF81440 		str	r4, [fp, #20]
 1030 0042 CBF81840 		str	r4, [fp, #24]
 742:Task/Task_Protocol.c ****         memset(&TaskProto_MAV_RcChannel, 0, sizeof(TaskProto_MAV_RcChannel));
 1031              		.loc 1 742 9 view .LVU254
 1032 0046 DFF82093 		ldr	r9, .L81+108
 1033 004a C9F80040 		str	r4, [r9]
 1034 004e C9F80440 		str	r4, [r9, #4]
 1035 0052 C9F80840 		str	r4, [r9, #8]
 1036 0056 C9F80C40 		str	r4, [r9, #12]
 1037 005a C9F81040 		str	r4, [r9, #16]
 1038 005e C9F81440 		str	r4, [r9, #20]
 1039 0062 C9F81840 		str	r4, [r9, #24]
 743:Task/Task_Protocol.c ****         memset(&TaskProto_MAV_MotoChannel, 0, sizeof(TaskProto_MAV_MotoChannel));
 1040              		.loc 1 743 9 view .LVU255
 1041 0066 A54F     		ldr	r7, .L81
 1042 0068 3C60     		str	r4, [r7]
 1043 006a 7C60     		str	r4, [r7, #4]
 1044 006c BC60     		str	r4, [r7, #8]
 1045 006e FC60     		str	r4, [r7, #12]
 1046 0070 3C61     		str	r4, [r7, #16]
 1047 0072 7C61     		str	r4, [r7, #20]
 1048 0074 BC61     		str	r4, [r7, #24]
 744:Task/Task_Protocol.c ****         memset(&TaskProto_MAV_Attitude, 0, sizeof(TaskProto_MAV_Attitude));
 1049              		.loc 1 744 9 view .LVU256
 1050 0076 A24B     		ldr	r3, .L81+4
 1051 0078 1C60     		str	r4, [r3]
 1052 007a 5C60     		str	r4, [r3, #4]
 1053 007c 9C60     		str	r4, [r3, #8]
 1054 007e DC60     		str	r4, [r3, #12]
 1055 0080 1C61     		str	r4, [r3, #16]
 1056 0082 5C61     		str	r4, [r3, #20]
 1057 0084 9C61     		str	r4, [r3, #24]
 745:Task/Task_Protocol.c ****  
 1058              		.loc 1 745 9 view .LVU257
 1059 0086 9F4B     		ldr	r3, .L81+8
 1060 0088 1C60     		str	r4, [r3]
 1061 008a 5C60     		str	r4, [r3, #4]
 1062 008c 9C60     		str	r4, [r3, #8]
 1063 008e DC60     		str	r4, [r3, #12]
 1064 0090 1C61     		str	r4, [r3, #16]
 1065 0092 5C61     		str	r4, [r3, #20]
 1066 0094 9C61     		str	r4, [r3, #24]
 747:Task/Task_Protocol.c ****         memset(&RadioProto_MAV_RawIMU, 0, sizeof(TaskProto_MAV_RawIMU));
 1067              		.loc 1 747 9 view .LVU258
 748:Task/Task_Protocol.c ****         memset(&RadioProto_MAV_ScaledIMU, 0, sizeof(TaskProto_MAV_ScaledIMU));
 1068              		.loc 1 748 9 view .LVU259
 1069 0096 9C4B     		ldr	r3, .L81+12
 1070 0098 1C60     		str	r4, [r3]
 1071 009a 5C60     		str	r4, [r3, #4]
 1072 009c 9C60     		str	r4, [r3, #8]
 1073 009e DC60     		str	r4, [r3, #12]
 1074 00a0 1C61     		str	r4, [r3, #16]
 1075 00a2 5C61     		str	r4, [r3, #20]
 1076 00a4 9C61     		str	r4, [r3, #24]
 749:Task/Task_Protocol.c ****         memset(&RadioProto_MAV_RcChannel, 0, sizeof(TaskProto_MAV_RcChannel));
 1077              		.loc 1 749 9 view .LVU260
 1078 00a6 DFF8C482 		ldr	r8, .L81+112
ARM GAS  C:\Users\8bit\AppData\Local\Temp\ccqwqzi2.s 			page 39


 1079 00aa C8F80040 		str	r4, [r8]
 1080 00ae C8F80440 		str	r4, [r8, #4]
 1081 00b2 C8F80840 		str	r4, [r8, #8]
 1082 00b6 C8F80C40 		str	r4, [r8, #12]
 1083 00ba C8F81040 		str	r4, [r8, #16]
 1084 00be C8F81440 		str	r4, [r8, #20]
 1085 00c2 C8F81840 		str	r4, [r8, #24]
 750:Task/Task_Protocol.c ****         memset(&RadioProto_MAV_MotoChannel, 0, sizeof(TaskProto_MAV_MotoChannel));
 1086              		.loc 1 750 9 view .LVU261
 1087 00c6 914E     		ldr	r6, .L81+16
 1088 00c8 3460     		str	r4, [r6]
 1089 00ca 7460     		str	r4, [r6, #4]
 1090 00cc B460     		str	r4, [r6, #8]
 1091 00ce F460     		str	r4, [r6, #12]
 1092 00d0 3461     		str	r4, [r6, #16]
 1093 00d2 7461     		str	r4, [r6, #20]
 1094 00d4 B461     		str	r4, [r6, #24]
 751:Task/Task_Protocol.c ****         memset(&RadioProto_MAV_Attitude, 0, sizeof(TaskProto_MAV_Attitude));
 1095              		.loc 1 751 9 view .LVU262
 1096 00d6 8E4B     		ldr	r3, .L81+20
 1097 00d8 1C60     		str	r4, [r3]
 1098 00da 5C60     		str	r4, [r3, #4]
 1099 00dc 9C60     		str	r4, [r3, #8]
 1100 00de DC60     		str	r4, [r3, #12]
 1101 00e0 1C61     		str	r4, [r3, #16]
 1102 00e2 5C61     		str	r4, [r3, #20]
 1103 00e4 9C61     		str	r4, [r3, #24]
 752:Task/Task_Protocol.c ****  
 1104              		.loc 1 752 9 view .LVU263
 1105 00e6 8B4B     		ldr	r3, .L81+24
 1106 00e8 1C60     		str	r4, [r3]
 1107 00ea 5C60     		str	r4, [r3, #4]
 1108 00ec 9C60     		str	r4, [r3, #8]
 1109 00ee DC60     		str	r4, [r3, #12]
 1110 00f0 1C61     		str	r4, [r3, #16]
 1111 00f2 5C61     		str	r4, [r3, #20]
 1112 00f4 9C61     		str	r4, [r3, #24]
 755:Task/Task_Protocol.c ****         PckInfo.component_id = MAV_CompoID_Raw_IMU;
 1113              		.loc 1 755 9 view .LVU264
 755:Task/Task_Protocol.c ****         PckInfo.component_id = MAV_CompoID_Raw_IMU;
 1114              		.loc 1 755 27 is_stmt 0 view .LVU265
 1115 00f6 4FF0010A 		mov	r10, #1
 1116 00fa 8DF804A0 		strb	r10, [sp, #4]
 756:Task/Task_Protocol.c ****         PckInfo.chan = 0;
 1117              		.loc 1 756 9 is_stmt 1 view .LVU266
 756:Task/Task_Protocol.c ****         PckInfo.chan = 0;
 1118              		.loc 1 756 30 is_stmt 0 view .LVU267
 1119 00fe 8DF805A0 		strb	r10, [sp, #5]
 757:Task/Task_Protocol.c ****         SrvComProto.mav_msg_obj_init(&TaskProto_MAV_RawIMU, PckInfo, 10);
 1120              		.loc 1 757 9 is_stmt 1 view .LVU268
 758:Task/Task_Protocol.c ****         SrvComProto.mav_msg_enable_ctl(&TaskProto_MAV_RawIMU, false);
 1121              		.loc 1 758 9 view .LVU269
 758:Task/Task_Protocol.c ****         SrvComProto.mav_msg_enable_ctl(&TaskProto_MAV_RawIMU, false);
 1122              		.loc 1 758 20 is_stmt 0 view .LVU270
 1123 0102 854D     		ldr	r5, .L81+28
 1124 0104 EB68     		ldr	r3, [r5, #12]
 758:Task/Task_Protocol.c ****         SrvComProto.mav_msg_enable_ctl(&TaskProto_MAV_RawIMU, false);
ARM GAS  C:\Users\8bit\AppData\Local\Temp\ccqwqzi2.s 			page 40


 1125              		.loc 1 758 9 view .LVU271
 1126 0106 0A22     		movs	r2, #10
 1127 0108 0199     		ldr	r1, [sp, #4]
 1128 010a 5846     		mov	r0, fp
 1129 010c 9847     		blx	r3
 1130              	.LVL75:
 759:Task/Task_Protocol.c ****  
 1131              		.loc 1 759 9 is_stmt 1 view .LVU272
 759:Task/Task_Protocol.c ****  
 1132              		.loc 1 759 20 is_stmt 0 view .LVU273
 1133 010e 2B69     		ldr	r3, [r5, #16]
 759:Task/Task_Protocol.c ****  
 1134              		.loc 1 759 9 view .LVU274
 1135 0110 2146     		mov	r1, r4
 1136 0112 5846     		mov	r0, fp
 1137 0114 9847     		blx	r3
 1138              	.LVL76:
 761:Task/Task_Protocol.c ****         SrvComProto.mav_msg_enable_ctl(&RadioProto_MAV_RawIMU, false);
 1139              		.loc 1 761 9 is_stmt 1 view .LVU275
 761:Task/Task_Protocol.c ****         SrvComProto.mav_msg_enable_ctl(&RadioProto_MAV_RawIMU, false);
 1140              		.loc 1 761 20 is_stmt 0 view .LVU276
 1141 0116 EB68     		ldr	r3, [r5, #12]
 761:Task/Task_Protocol.c ****         SrvComProto.mav_msg_enable_ctl(&RadioProto_MAV_RawIMU, false);
 1142              		.loc 1 761 9 view .LVU277
 1143 0118 0A22     		movs	r2, #10
 1144 011a 0199     		ldr	r1, [sp, #4]
 1145 011c 7A48     		ldr	r0, .L81+12
 1146 011e 9847     		blx	r3
 1147              	.LVL77:
 762:Task/Task_Protocol.c ****              
 1148              		.loc 1 762 9 is_stmt 1 view .LVU278
 762:Task/Task_Protocol.c ****              
 1149              		.loc 1 762 20 is_stmt 0 view .LVU279
 1150 0120 2B69     		ldr	r3, [r5, #16]
 762:Task/Task_Protocol.c ****              
 1151              		.loc 1 762 9 view .LVU280
 1152 0122 2146     		mov	r1, r4
 1153 0124 7848     		ldr	r0, .L81+12
 1154 0126 9847     		blx	r3
 1155              	.LVL78:
 765:Task/Task_Protocol.c ****         PckInfo.component_id = MAV_CompoID_Scaled_IMU;
 1156              		.loc 1 765 9 is_stmt 1 view .LVU281
 765:Task/Task_Protocol.c ****         PckInfo.component_id = MAV_CompoID_Scaled_IMU;
 1157              		.loc 1 765 27 is_stmt 0 view .LVU282
 1158 0128 8DF804A0 		strb	r10, [sp, #4]
 766:Task/Task_Protocol.c ****         PckInfo.chan = 0;
 1159              		.loc 1 766 9 is_stmt 1 view .LVU283
 766:Task/Task_Protocol.c ****         PckInfo.chan = 0;
 1160              		.loc 1 766 30 is_stmt 0 view .LVU284
 1161 012c 4FF00203 		mov	r3, #2
 1162 0130 8DF80530 		strb	r3, [sp, #5]
 767:Task/Task_Protocol.c ****         SrvComProto.mav_msg_obj_init(&TaskProto_MAV_ScaledIMU, PckInfo, 10);
 1163              		.loc 1 767 9 is_stmt 1 view .LVU285
 767:Task/Task_Protocol.c ****         SrvComProto.mav_msg_obj_init(&TaskProto_MAV_ScaledIMU, PckInfo, 10);
 1164              		.loc 1 767 22 is_stmt 0 view .LVU286
 1165 0134 8DF80640 		strb	r4, [sp, #6]
 768:Task/Task_Protocol.c ****         SrvComProto.mav_msg_enable_ctl(&TaskProto_MAV_ScaledIMU, true);
ARM GAS  C:\Users\8bit\AppData\Local\Temp\ccqwqzi2.s 			page 41


 1166              		.loc 1 768 9 is_stmt 1 view .LVU287
 768:Task/Task_Protocol.c ****         SrvComProto.mav_msg_enable_ctl(&TaskProto_MAV_ScaledIMU, true);
 1167              		.loc 1 768 20 is_stmt 0 view .LVU288
 1168 0138 EB68     		ldr	r3, [r5, #12]
 768:Task/Task_Protocol.c ****         SrvComProto.mav_msg_enable_ctl(&TaskProto_MAV_ScaledIMU, true);
 1169              		.loc 1 768 9 view .LVU289
 1170 013a 0A22     		movs	r2, #10
 1171 013c 0199     		ldr	r1, [sp, #4]
 1172 013e 4846     		mov	r0, r9
 1173 0140 9847     		blx	r3
 1174              	.LVL79:
 769:Task/Task_Protocol.c **** 
 1175              		.loc 1 769 9 is_stmt 1 view .LVU290
 769:Task/Task_Protocol.c **** 
 1176              		.loc 1 769 20 is_stmt 0 view .LVU291
 1177 0142 2B69     		ldr	r3, [r5, #16]
 769:Task/Task_Protocol.c **** 
 1178              		.loc 1 769 9 view .LVU292
 1179 0144 5146     		mov	r1, r10
 1180 0146 4846     		mov	r0, r9
 1181 0148 9847     		blx	r3
 1182              	.LVL80:
 771:Task/Task_Protocol.c ****         SrvComProto.mav_msg_enable_ctl(&RadioProto_MAV_ScaledIMU, true);
 1183              		.loc 1 771 9 is_stmt 1 view .LVU293
 771:Task/Task_Protocol.c ****         SrvComProto.mav_msg_enable_ctl(&RadioProto_MAV_ScaledIMU, true);
 1184              		.loc 1 771 20 is_stmt 0 view .LVU294
 1185 014a EB68     		ldr	r3, [r5, #12]
 771:Task/Task_Protocol.c ****         SrvComProto.mav_msg_enable_ctl(&RadioProto_MAV_ScaledIMU, true);
 1186              		.loc 1 771 9 view .LVU295
 1187 014c 0A22     		movs	r2, #10
 1188 014e 0199     		ldr	r1, [sp, #4]
 1189 0150 4046     		mov	r0, r8
 1190 0152 9847     		blx	r3
 1191              	.LVL81:
 772:Task/Task_Protocol.c ****         
 1192              		.loc 1 772 9 is_stmt 1 view .LVU296
 772:Task/Task_Protocol.c ****         
 1193              		.loc 1 772 20 is_stmt 0 view .LVU297
 1194 0154 2B69     		ldr	r3, [r5, #16]
 772:Task/Task_Protocol.c ****         
 1195              		.loc 1 772 9 view .LVU298
 1196 0156 5146     		mov	r1, r10
 1197 0158 4046     		mov	r0, r8
 1198 015a 9847     		blx	r3
 1199              	.LVL82:
 775:Task/Task_Protocol.c ****         PckInfo.component_id = MAV_CompoID_RC_Channel;
 1200              		.loc 1 775 9 is_stmt 1 view .LVU299
 775:Task/Task_Protocol.c ****         PckInfo.component_id = MAV_CompoID_RC_Channel;
 1201              		.loc 1 775 27 is_stmt 0 view .LVU300
 1202 015c 8DF804A0 		strb	r10, [sp, #4]
 776:Task/Task_Protocol.c ****         PckInfo.chan = 0;
 1203              		.loc 1 776 9 is_stmt 1 view .LVU301
 776:Task/Task_Protocol.c ****         PckInfo.chan = 0;
 1204              		.loc 1 776 30 is_stmt 0 view .LVU302
 1205 0160 4FF00803 		mov	r3, #8
 1206 0164 8DF80530 		strb	r3, [sp, #5]
 777:Task/Task_Protocol.c ****         SrvComProto.mav_msg_obj_init(&TaskProto_MAV_RcChannel, PckInfo, 20);
ARM GAS  C:\Users\8bit\AppData\Local\Temp\ccqwqzi2.s 			page 42


 1207              		.loc 1 777 9 is_stmt 1 view .LVU303
 777:Task/Task_Protocol.c ****         SrvComProto.mav_msg_obj_init(&TaskProto_MAV_RcChannel, PckInfo, 20);
 1208              		.loc 1 777 22 is_stmt 0 view .LVU304
 1209 0168 8DF80640 		strb	r4, [sp, #6]
 778:Task/Task_Protocol.c ****         SrvComProto.mav_msg_enable_ctl(&TaskProto_MAV_RcChannel, true);
 1210              		.loc 1 778 9 is_stmt 1 view .LVU305
 778:Task/Task_Protocol.c ****         SrvComProto.mav_msg_enable_ctl(&TaskProto_MAV_RcChannel, true);
 1211              		.loc 1 778 20 is_stmt 0 view .LVU306
 1212 016c EB68     		ldr	r3, [r5, #12]
 778:Task/Task_Protocol.c ****         SrvComProto.mav_msg_enable_ctl(&TaskProto_MAV_RcChannel, true);
 1213              		.loc 1 778 9 view .LVU307
 1214 016e 1422     		movs	r2, #20
 1215 0170 0199     		ldr	r1, [sp, #4]
 1216 0172 3846     		mov	r0, r7
 1217 0174 9847     		blx	r3
 1218              	.LVL83:
 779:Task/Task_Protocol.c **** 
 1219              		.loc 1 779 9 is_stmt 1 view .LVU308
 779:Task/Task_Protocol.c **** 
 1220              		.loc 1 779 20 is_stmt 0 view .LVU309
 1221 0176 2B69     		ldr	r3, [r5, #16]
 779:Task/Task_Protocol.c **** 
 1222              		.loc 1 779 9 view .LVU310
 1223 0178 5146     		mov	r1, r10
 1224 017a 3846     		mov	r0, r7
 1225 017c 9847     		blx	r3
 1226              	.LVL84:
 781:Task/Task_Protocol.c ****         SrvComProto.mav_msg_enable_ctl(&RadioProto_MAV_RcChannel, true);
 1227              		.loc 1 781 9 is_stmt 1 view .LVU311
 781:Task/Task_Protocol.c ****         SrvComProto.mav_msg_enable_ctl(&RadioProto_MAV_RcChannel, true);
 1228              		.loc 1 781 20 is_stmt 0 view .LVU312
 1229 017e EB68     		ldr	r3, [r5, #12]
 781:Task/Task_Protocol.c ****         SrvComProto.mav_msg_enable_ctl(&RadioProto_MAV_RcChannel, true);
 1230              		.loc 1 781 9 view .LVU313
 1231 0180 1422     		movs	r2, #20
 1232 0182 0199     		ldr	r1, [sp, #4]
 1233 0184 3046     		mov	r0, r6
 1234 0186 9847     		blx	r3
 1235              	.LVL85:
 782:Task/Task_Protocol.c ****         
 1236              		.loc 1 782 9 is_stmt 1 view .LVU314
 782:Task/Task_Protocol.c ****         
 1237              		.loc 1 782 20 is_stmt 0 view .LVU315
 1238 0188 2B69     		ldr	r3, [r5, #16]
 782:Task/Task_Protocol.c ****         
 1239              		.loc 1 782 9 view .LVU316
 1240 018a 5146     		mov	r1, r10
 1241 018c 3046     		mov	r0, r6
 1242 018e 9847     		blx	r3
 1243              	.LVL86:
 785:Task/Task_Protocol.c ****         PckInfo.component_id = MAV_CompoID_MotoCtl;
 1244              		.loc 1 785 9 is_stmt 1 view .LVU317
 785:Task/Task_Protocol.c ****         PckInfo.component_id = MAV_CompoID_MotoCtl;
 1245              		.loc 1 785 27 is_stmt 0 view .LVU318
 1246 0190 8DF804A0 		strb	r10, [sp, #4]
 786:Task/Task_Protocol.c ****         PckInfo.chan = 0;
 1247              		.loc 1 786 9 is_stmt 1 view .LVU319
ARM GAS  C:\Users\8bit\AppData\Local\Temp\ccqwqzi2.s 			page 43


 786:Task/Task_Protocol.c ****         PckInfo.chan = 0;
 1248              		.loc 1 786 30 is_stmt 0 view .LVU320
 1249 0194 4FF00903 		mov	r3, #9
 1250 0198 8DF80530 		strb	r3, [sp, #5]
 787:Task/Task_Protocol.c ****         SrvComProto.mav_msg_obj_init(&TaskProto_MAV_MotoChannel, PckInfo, 10);
 1251              		.loc 1 787 9 is_stmt 1 view .LVU321
 787:Task/Task_Protocol.c ****         SrvComProto.mav_msg_obj_init(&TaskProto_MAV_MotoChannel, PckInfo, 10);
 1252              		.loc 1 787 22 is_stmt 0 view .LVU322
 1253 019c 8DF80640 		strb	r4, [sp, #6]
 788:Task/Task_Protocol.c ****         SrvComProto.mav_msg_enable_ctl(&TaskProto_MAV_MotoChannel, false);
 1254              		.loc 1 788 9 is_stmt 1 view .LVU323
 788:Task/Task_Protocol.c ****         SrvComProto.mav_msg_enable_ctl(&TaskProto_MAV_MotoChannel, false);
 1255              		.loc 1 788 20 is_stmt 0 view .LVU324
 1256 01a0 EB68     		ldr	r3, [r5, #12]
 788:Task/Task_Protocol.c ****         SrvComProto.mav_msg_enable_ctl(&TaskProto_MAV_MotoChannel, false);
 1257              		.loc 1 788 9 view .LVU325
 1258 01a2 0A22     		movs	r2, #10
 1259 01a4 0199     		ldr	r1, [sp, #4]
 1260 01a6 5648     		ldr	r0, .L81+4
 1261 01a8 9847     		blx	r3
 1262              	.LVL87:
 789:Task/Task_Protocol.c **** 
 1263              		.loc 1 789 9 is_stmt 1 view .LVU326
 789:Task/Task_Protocol.c **** 
 1264              		.loc 1 789 20 is_stmt 0 view .LVU327
 1265 01aa 2B69     		ldr	r3, [r5, #16]
 789:Task/Task_Protocol.c **** 
 1266              		.loc 1 789 9 view .LVU328
 1267 01ac 2146     		mov	r1, r4
 1268 01ae 5448     		ldr	r0, .L81+4
 1269 01b0 9847     		blx	r3
 1270              	.LVL88:
 791:Task/Task_Protocol.c ****         SrvComProto.mav_msg_enable_ctl(&RadioProto_MAV_MotoChannel, false);
 1271              		.loc 1 791 9 is_stmt 1 view .LVU329
 791:Task/Task_Protocol.c ****         SrvComProto.mav_msg_enable_ctl(&RadioProto_MAV_MotoChannel, false);
 1272              		.loc 1 791 20 is_stmt 0 view .LVU330
 1273 01b2 EB68     		ldr	r3, [r5, #12]
 791:Task/Task_Protocol.c ****         SrvComProto.mav_msg_enable_ctl(&RadioProto_MAV_MotoChannel, false);
 1274              		.loc 1 791 9 view .LVU331
 1275 01b4 0A22     		movs	r2, #10
 1276 01b6 0199     		ldr	r1, [sp, #4]
 1277 01b8 5548     		ldr	r0, .L81+20
 1278 01ba 9847     		blx	r3
 1279              	.LVL89:
 792:Task/Task_Protocol.c ****         
 1280              		.loc 1 792 9 is_stmt 1 view .LVU332
 792:Task/Task_Protocol.c ****         
 1281              		.loc 1 792 20 is_stmt 0 view .LVU333
 1282 01bc 2B69     		ldr	r3, [r5, #16]
 792:Task/Task_Protocol.c ****         
 1283              		.loc 1 792 9 view .LVU334
 1284 01be 2146     		mov	r1, r4
 1285 01c0 5348     		ldr	r0, .L81+20
 1286 01c2 9847     		blx	r3
 1287              	.LVL90:
 795:Task/Task_Protocol.c ****         PckInfo.component_id = MAV_CompoID_Attitude;
 1288              		.loc 1 795 9 is_stmt 1 view .LVU335
ARM GAS  C:\Users\8bit\AppData\Local\Temp\ccqwqzi2.s 			page 44


 795:Task/Task_Protocol.c ****         PckInfo.component_id = MAV_CompoID_Attitude;
 1289              		.loc 1 795 27 is_stmt 0 view .LVU336
 1290 01c4 8DF804A0 		strb	r10, [sp, #4]
 796:Task/Task_Protocol.c ****         PckInfo.chan = 0;
 1291              		.loc 1 796 9 is_stmt 1 view .LVU337
 796:Task/Task_Protocol.c ****         PckInfo.chan = 0;
 1292              		.loc 1 796 30 is_stmt 0 view .LVU338
 1293 01c8 4FF00503 		mov	r3, #5
 1294 01cc 8DF80530 		strb	r3, [sp, #5]
 797:Task/Task_Protocol.c ****         SrvComProto.mav_msg_obj_init(&TaskProto_MAV_Attitude, PckInfo, 20);
 1295              		.loc 1 797 9 is_stmt 1 view .LVU339
 797:Task/Task_Protocol.c ****         SrvComProto.mav_msg_obj_init(&TaskProto_MAV_Attitude, PckInfo, 20);
 1296              		.loc 1 797 22 is_stmt 0 view .LVU340
 1297 01d0 8DF80640 		strb	r4, [sp, #6]
 798:Task/Task_Protocol.c ****         SrvComProto.mav_msg_enable_ctl(&TaskProto_MAV_Attitude, true);
 1298              		.loc 1 798 9 is_stmt 1 view .LVU341
 798:Task/Task_Protocol.c ****         SrvComProto.mav_msg_enable_ctl(&TaskProto_MAV_Attitude, true);
 1299              		.loc 1 798 20 is_stmt 0 view .LVU342
 1300 01d4 EB68     		ldr	r3, [r5, #12]
 798:Task/Task_Protocol.c ****         SrvComProto.mav_msg_enable_ctl(&TaskProto_MAV_Attitude, true);
 1301              		.loc 1 798 9 view .LVU343
 1302 01d6 1422     		movs	r2, #20
 1303 01d8 0199     		ldr	r1, [sp, #4]
 1304 01da 4A48     		ldr	r0, .L81+8
 1305 01dc 9847     		blx	r3
 1306              	.LVL91:
 799:Task/Task_Protocol.c **** 
 1307              		.loc 1 799 9 is_stmt 1 view .LVU344
 799:Task/Task_Protocol.c **** 
 1308              		.loc 1 799 20 is_stmt 0 view .LVU345
 1309 01de 2B69     		ldr	r3, [r5, #16]
 799:Task/Task_Protocol.c **** 
 1310              		.loc 1 799 9 view .LVU346
 1311 01e0 5146     		mov	r1, r10
 1312 01e2 4848     		ldr	r0, .L81+8
 1313 01e4 9847     		blx	r3
 1314              	.LVL92:
 801:Task/Task_Protocol.c ****         SrvComProto.mav_msg_enable_ctl(&RadioProto_MAV_Attitude, true);
 1315              		.loc 1 801 9 is_stmt 1 view .LVU347
 801:Task/Task_Protocol.c ****         SrvComProto.mav_msg_enable_ctl(&RadioProto_MAV_Attitude, true);
 1316              		.loc 1 801 20 is_stmt 0 view .LVU348
 1317 01e6 EB68     		ldr	r3, [r5, #12]
 801:Task/Task_Protocol.c ****         SrvComProto.mav_msg_enable_ctl(&RadioProto_MAV_Attitude, true);
 1318              		.loc 1 801 9 view .LVU349
 1319 01e8 1422     		movs	r2, #20
 1320 01ea 0199     		ldr	r1, [sp, #4]
 1321 01ec 4948     		ldr	r0, .L81+24
 1322 01ee 9847     		blx	r3
 1323              	.LVL93:
 802:Task/Task_Protocol.c ****                
 1324              		.loc 1 802 9 is_stmt 1 view .LVU350
 802:Task/Task_Protocol.c ****                
 1325              		.loc 1 802 20 is_stmt 0 view .LVU351
 1326 01f0 2B69     		ldr	r3, [r5, #16]
 802:Task/Task_Protocol.c ****                
 1327              		.loc 1 802 9 view .LVU352
 1328 01f2 5146     		mov	r1, r10
ARM GAS  C:\Users\8bit\AppData\Local\Temp\ccqwqzi2.s 			page 45


 1329 01f4 4748     		ldr	r0, .L81+24
 1330 01f6 9847     		blx	r3
 1331              	.LVL94:
 805:Task/Task_Protocol.c ****         PckInfo.component_id = MAV_CompoID_Exp_Attitude;
 1332              		.loc 1 805 9 is_stmt 1 view .LVU353
 805:Task/Task_Protocol.c ****         PckInfo.component_id = MAV_CompoID_Exp_Attitude;
 1333              		.loc 1 805 27 is_stmt 0 view .LVU354
 1334 01f8 8DF804A0 		strb	r10, [sp, #4]
 806:Task/Task_Protocol.c ****         PckInfo.chan = 0;
 1335              		.loc 1 806 9 is_stmt 1 view .LVU355
 806:Task/Task_Protocol.c ****         PckInfo.chan = 0;
 1336              		.loc 1 806 30 is_stmt 0 view .LVU356
 1337 01fc 4FF0060B 		mov	fp, #6
 1338 0200 8DF805B0 		strb	fp, [sp, #5]
 807:Task/Task_Protocol.c ****         SrvComProto.mav_msg_obj_init(&TaskProto_MAV_Exp_Attitude, PckInfo, 20);
 1339              		.loc 1 807 9 is_stmt 1 view .LVU357
 807:Task/Task_Protocol.c ****         SrvComProto.mav_msg_obj_init(&TaskProto_MAV_Exp_Attitude, PckInfo, 20);
 1340              		.loc 1 807 22 is_stmt 0 view .LVU358
 1341 0204 8DF80640 		strb	r4, [sp, #6]
 808:Task/Task_Protocol.c ****         SrvComProto.mav_msg_enable_ctl(&TaskProto_MAV_Exp_Attitude, true);
 1342              		.loc 1 808 9 is_stmt 1 view .LVU359
 808:Task/Task_Protocol.c ****         SrvComProto.mav_msg_enable_ctl(&TaskProto_MAV_Exp_Attitude, true);
 1343              		.loc 1 808 20 is_stmt 0 view .LVU360
 1344 0208 EB68     		ldr	r3, [r5, #12]
 808:Task/Task_Protocol.c ****         SrvComProto.mav_msg_enable_ctl(&TaskProto_MAV_Exp_Attitude, true);
 1345              		.loc 1 808 9 view .LVU361
 1346 020a 444E     		ldr	r6, .L81+32
 1347 020c 1422     		movs	r2, #20
 1348 020e 0199     		ldr	r1, [sp, #4]
 1349 0210 3046     		mov	r0, r6
 1350 0212 9847     		blx	r3
 1351              	.LVL95:
 809:Task/Task_Protocol.c ****  
 1352              		.loc 1 809 9 is_stmt 1 view .LVU362
 809:Task/Task_Protocol.c ****  
 1353              		.loc 1 809 20 is_stmt 0 view .LVU363
 1354 0214 2B69     		ldr	r3, [r5, #16]
 809:Task/Task_Protocol.c ****  
 1355              		.loc 1 809 9 view .LVU364
 1356 0216 5146     		mov	r1, r10
 1357 0218 3046     		mov	r0, r6
 1358 021a 9847     		blx	r3
 1359              	.LVL96:
 812:Task/Task_Protocol.c ****         PckInfo.component_id = MAV_CompoID_Altitude;
 1360              		.loc 1 812 9 is_stmt 1 view .LVU365
 812:Task/Task_Protocol.c ****         PckInfo.component_id = MAV_CompoID_Altitude;
 1361              		.loc 1 812 27 is_stmt 0 view .LVU366
 1362 021c 8DF804A0 		strb	r10, [sp, #4]
 813:Task/Task_Protocol.c ****         PckInfo.chan = 0;
 1363              		.loc 1 813 9 is_stmt 1 view .LVU367
 813:Task/Task_Protocol.c ****         PckInfo.chan = 0;
 1364              		.loc 1 813 30 is_stmt 0 view .LVU368
 1365 0220 4FF00709 		mov	r9, #7
 1366 0224 8DF80590 		strb	r9, [sp, #5]
 814:Task/Task_Protocol.c ****         SrvComProto.mav_msg_obj_init(&TaskProto_MAV_Altitude, PckInfo, 100);
 1367              		.loc 1 814 9 is_stmt 1 view .LVU369
 814:Task/Task_Protocol.c ****         SrvComProto.mav_msg_obj_init(&TaskProto_MAV_Altitude, PckInfo, 100);
ARM GAS  C:\Users\8bit\AppData\Local\Temp\ccqwqzi2.s 			page 46


 1368              		.loc 1 814 22 is_stmt 0 view .LVU370
 1369 0228 8DF80640 		strb	r4, [sp, #6]
 815:Task/Task_Protocol.c ****         SrvComProto.mav_msg_enable_ctl(&TaskProto_MAV_Altitude, true);
 1370              		.loc 1 815 9 is_stmt 1 view .LVU371
 815:Task/Task_Protocol.c ****         SrvComProto.mav_msg_enable_ctl(&TaskProto_MAV_Altitude, true);
 1371              		.loc 1 815 20 is_stmt 0 view .LVU372
 1372 022c EB68     		ldr	r3, [r5, #12]
 815:Task/Task_Protocol.c ****         SrvComProto.mav_msg_enable_ctl(&TaskProto_MAV_Altitude, true);
 1373              		.loc 1 815 9 view .LVU373
 1374 022e 3C4E     		ldr	r6, .L81+36
 1375 0230 6422     		movs	r2, #100
 1376 0232 0199     		ldr	r1, [sp, #4]
 1377 0234 3046     		mov	r0, r6
 1378 0236 9847     		blx	r3
 1379              	.LVL97:
 816:Task/Task_Protocol.c **** 
 1380              		.loc 1 816 9 is_stmt 1 view .LVU374
 816:Task/Task_Protocol.c **** 
 1381              		.loc 1 816 20 is_stmt 0 view .LVU375
 1382 0238 2B69     		ldr	r3, [r5, #16]
 816:Task/Task_Protocol.c **** 
 1383              		.loc 1 816 9 view .LVU376
 1384 023a 5146     		mov	r1, r10
 1385 023c 3046     		mov	r0, r6
 1386 023e 9847     		blx	r3
 1387              	.LVL98:
 818:Task/Task_Protocol.c ****         SrvComProto.mav_msg_enable_ctl(&RadioProto_MAV_Altitude, true);
 1388              		.loc 1 818 9 is_stmt 1 view .LVU377
 818:Task/Task_Protocol.c ****         SrvComProto.mav_msg_enable_ctl(&RadioProto_MAV_Altitude, true);
 1389              		.loc 1 818 20 is_stmt 0 view .LVU378
 1390 0240 EB68     		ldr	r3, [r5, #12]
 818:Task/Task_Protocol.c ****         SrvComProto.mav_msg_enable_ctl(&RadioProto_MAV_Altitude, true);
 1391              		.loc 1 818 9 view .LVU379
 1392 0242 384E     		ldr	r6, .L81+40
 1393 0244 6422     		movs	r2, #100
 1394 0246 0199     		ldr	r1, [sp, #4]
 1395 0248 3046     		mov	r0, r6
 1396 024a 9847     		blx	r3
 1397              	.LVL99:
 819:Task/Task_Protocol.c **** 
 1398              		.loc 1 819 9 is_stmt 1 view .LVU380
 819:Task/Task_Protocol.c **** 
 1399              		.loc 1 819 20 is_stmt 0 view .LVU381
 1400 024c 2B69     		ldr	r3, [r5, #16]
 819:Task/Task_Protocol.c **** 
 1401              		.loc 1 819 9 view .LVU382
 1402 024e 5146     		mov	r1, r10
 1403 0250 3046     		mov	r0, r6
 1404 0252 9847     		blx	r3
 1405              	.LVL100:
 824:Task/Task_Protocol.c ****         SrvComProto.mav_msg_set_input_callback(&DefaultPort_MavMsgInput_Obj, MavIn_Msg_PID_Para_Pit
 1406              		.loc 1 824 9 is_stmt 1 view .LVU383
 1407 0254 344E     		ldr	r6, .L81+44
 1408 0256 354B     		ldr	r3, .L81+48
 1409 0258 354A     		ldr	r2, .L81+52
 1410 025a 0821     		movs	r1, #8
 1411 025c 3046     		mov	r0, r6
ARM GAS  C:\Users\8bit\AppData\Local\Temp\ccqwqzi2.s 			page 47


 1412 025e AF69     		ldr	r7, [r5, #24]
 1413 0260 B847     		blx	r7
 1414              	.LVL101:
 825:Task/Task_Protocol.c ****         SrvComProto.mav_msg_set_input_callback(&DefaultPort_MavMsgInput_Obj, MavIn_Msg_PID_Para_Gyr
 1415              		.loc 1 825 9 view .LVU384
 1416 0262 344B     		ldr	r3, .L81+56
 1417 0264 344A     		ldr	r2, .L81+60
 1418 0266 0921     		movs	r1, #9
 1419 0268 3046     		mov	r0, r6
 1420 026a AF69     		ldr	r7, [r5, #24]
 1421 026c B847     		blx	r7
 1422              	.LVL102:
 826:Task/Task_Protocol.c ****         SrvComProto.mav_msg_set_input_callback(&DefaultPort_MavMsgInput_Obj, MavIn_Msg_PID_Para_Gyr
 1423              		.loc 1 826 9 view .LVU385
 1424 026e 334B     		ldr	r3, .L81+64
 1425 0270 334A     		ldr	r2, .L81+68
 1426 0272 0521     		movs	r1, #5
 1427 0274 3046     		mov	r0, r6
 1428 0276 AF69     		ldr	r7, [r5, #24]
 1429 0278 B847     		blx	r7
 1430              	.LVL103:
 827:Task/Task_Protocol.c ****         SrvComProto.mav_msg_set_input_callback(&DefaultPort_MavMsgInput_Obj, MavIn_Msg_PID_Para_Gyr
 1431              		.loc 1 827 9 view .LVU386
 1432 027a 324B     		ldr	r3, .L81+72
 1433 027c 324A     		ldr	r2, .L81+76
 1434 027e 5946     		mov	r1, fp
 1435 0280 3046     		mov	r0, r6
 1436 0282 AF69     		ldr	r7, [r5, #24]
 1437 0284 B847     		blx	r7
 1438              	.LVL104:
 828:Task/Task_Protocol.c **** 
 1439              		.loc 1 828 9 view .LVU387
 1440 0286 DFF8E880 		ldr	r8, .L81+116
 1441 028a 304B     		ldr	r3, .L81+80
 1442 028c 4246     		mov	r2, r8
 1443 028e 4946     		mov	r1, r9
 1444 0290 3046     		mov	r0, r6
 1445 0292 AE69     		ldr	r6, [r5, #24]
 1446 0294 B047     		blx	r6
 1447              	.LVL105:
 832:Task/Task_Protocol.c ****         SrvComProto.mav_msg_set_input_callback(&RadioPort_MavMsgInput_Obj, MavIn_Msg_Gyr,          
 1448              		.loc 1 832 9 view .LVU388
 1449 0296 2E4E     		ldr	r6, .L81+84
 1450 0298 2E4B     		ldr	r3, .L81+88
 1451 029a 2F4A     		ldr	r2, .L81+92
 1452 029c 5146     		mov	r1, r10
 1453 029e 3046     		mov	r0, r6
 1454 02a0 AF69     		ldr	r7, [r5, #24]
 1455 02a2 B847     		blx	r7
 1456              	.LVL106:
 833:Task/Task_Protocol.c ****         SrvComProto.mav_msg_set_input_callback(&RadioPort_MavMsgInput_Obj, MavIn_Msg_Alt,          
 1457              		.loc 1 833 9 view .LVU389
 1458 02a4 2B4F     		ldr	r7, .L81+88
 1459 02a6 07F11003 		add	r3, r7, #16
 1460 02aa 2C4A     		ldr	r2, .L81+96
 1461 02ac 2146     		mov	r1, r4
 1462 02ae 3046     		mov	r0, r6
ARM GAS  C:\Users\8bit\AppData\Local\Temp\ccqwqzi2.s 			page 48


 1463 02b0 AC69     		ldr	r4, [r5, #24]
 1464 02b2 A047     		blx	r4
 1465              	.LVL107:
 834:Task/Task_Protocol.c ****         SrvComProto.mav_msg_set_input_callback(&RadioPort_MavMsgInput_Obj, MavIn_Msg_PID_Para_Roll,
 1466              		.loc 1 834 9 view .LVU390
 834:Task/Task_Protocol.c ****         SrvComProto.mav_msg_set_input_callback(&RadioPort_MavMsgInput_Obj, MavIn_Msg_PID_Para_Roll,
 1467              		.loc 1 834 20 is_stmt 0 view .LVU391
 1468 02b4 AC69     		ldr	r4, [r5, #24]
 834:Task/Task_Protocol.c ****         SrvComProto.mav_msg_set_input_callback(&RadioPort_MavMsgInput_Obj, MavIn_Msg_PID_Para_Roll,
 1469              		.loc 1 834 9 view .LVU392
 1470 02b6 07F11C03 		add	r3, r7, #28
 1471 02ba 294A     		ldr	r2, .L81+100
 1472 02bc 0221     		movs	r1, #2
 1473 02be 3046     		mov	r0, r6
 1474 02c0 A047     		blx	r4
 1475              	.LVL108:
 835:Task/Task_Protocol.c ****         SrvComProto.mav_msg_set_input_callback(&RadioPort_MavMsgInput_Obj, MavIn_Msg_PID_Para_Pitch
 1476              		.loc 1 835 9 is_stmt 1 view .LVU393
 835:Task/Task_Protocol.c ****         SrvComProto.mav_msg_set_input_callback(&RadioPort_MavMsgInput_Obj, MavIn_Msg_PID_Para_Pitch
 1477              		.loc 1 835 20 is_stmt 0 view .LVU394
 1478 02c2 AC69     		ldr	r4, [r5, #24]
 835:Task/Task_Protocol.c ****         SrvComProto.mav_msg_set_input_callback(&RadioPort_MavMsgInput_Obj, MavIn_Msg_PID_Para_Pitch
 1479              		.loc 1 835 9 view .LVU395
 1480 02c4 07F12403 		add	r3, r7, #36
 1481 02c8 194A     		ldr	r2, .L81+52
 1482 02ca 0821     		movs	r1, #8
 1483 02cc 3046     		mov	r0, r6
 1484 02ce A047     		blx	r4
 1485              	.LVL109:
 836:Task/Task_Protocol.c ****         SrvComProto.mav_msg_set_input_callback(&RadioPort_MavMsgInput_Obj, MavIn_Msg_PID_Para_GyrX,
 1486              		.loc 1 836 9 is_stmt 1 view .LVU396
 836:Task/Task_Protocol.c ****         SrvComProto.mav_msg_set_input_callback(&RadioPort_MavMsgInput_Obj, MavIn_Msg_PID_Para_GyrX,
 1487              		.loc 1 836 20 is_stmt 0 view .LVU397
 1488 02d0 AC69     		ldr	r4, [r5, #24]
 836:Task/Task_Protocol.c ****         SrvComProto.mav_msg_set_input_callback(&RadioPort_MavMsgInput_Obj, MavIn_Msg_PID_Para_GyrX,
 1489              		.loc 1 836 9 view .LVU398
 1490 02d2 07F14003 		add	r3, r7, #64
 1491 02d6 184A     		ldr	r2, .L81+60
 1492 02d8 0921     		movs	r1, #9
 1493 02da 3046     		mov	r0, r6
 1494 02dc A047     		blx	r4
 1495              	.LVL110:
 837:Task/Task_Protocol.c ****         SrvComProto.mav_msg_set_input_callback(&RadioPort_MavMsgInput_Obj, MavIn_Msg_PID_Para_GyrY,
 1496              		.loc 1 837 9 is_stmt 1 view .LVU399
 837:Task/Task_Protocol.c ****         SrvComProto.mav_msg_set_input_callback(&RadioPort_MavMsgInput_Obj, MavIn_Msg_PID_Para_GyrY,
 1497              		.loc 1 837 20 is_stmt 0 view .LVU400
 1498 02de AC69     		ldr	r4, [r5, #24]
 837:Task/Task_Protocol.c ****         SrvComProto.mav_msg_set_input_callback(&RadioPort_MavMsgInput_Obj, MavIn_Msg_PID_Para_GyrY,
 1499              		.loc 1 837 9 view .LVU401
 1500 02e0 07F15C03 		add	r3, r7, #92
 1501 02e4 164A     		ldr	r2, .L81+68
 1502 02e6 0521     		movs	r1, #5
 1503 02e8 3046     		mov	r0, r6
 1504 02ea A047     		blx	r4
 1505              	.LVL111:
 838:Task/Task_Protocol.c ****         SrvComProto.mav_msg_set_input_callback(&RadioPort_MavMsgInput_Obj, MavIn_Msg_PID_Para_GyrZ,
 1506              		.loc 1 838 9 is_stmt 1 view .LVU402
ARM GAS  C:\Users\8bit\AppData\Local\Temp\ccqwqzi2.s 			page 49


 838:Task/Task_Protocol.c ****         SrvComProto.mav_msg_set_input_callback(&RadioPort_MavMsgInput_Obj, MavIn_Msg_PID_Para_GyrZ,
 1507              		.loc 1 838 20 is_stmt 0 view .LVU403
 1508 02ec AC69     		ldr	r4, [r5, #24]
 838:Task/Task_Protocol.c ****         SrvComProto.mav_msg_set_input_callback(&RadioPort_MavMsgInput_Obj, MavIn_Msg_PID_Para_GyrZ,
 1509              		.loc 1 838 9 view .LVU404
 1510 02ee 07F17803 		add	r3, r7, #120
 1511 02f2 154A     		ldr	r2, .L81+76
 1512 02f4 5946     		mov	r1, fp
 1513 02f6 3046     		mov	r0, r6
 1514 02f8 3CE0     		b	.L82
 1515              	.L83:
 1516 02fa 00BF     		.align	2
 1517              	.L81:
 1518 02fc 00000000 		.word	.LANCHOR14
 1519 0300 00000000 		.word	.LANCHOR17
 1520 0304 00000000 		.word	.LANCHOR13
 1521 0308 00000000 		.word	.LANCHOR5
 1522 030c 00000000 		.word	.LANCHOR8
 1523 0310 00000000 		.word	.LANCHOR18
 1524 0314 00000000 		.word	.LANCHOR7
 1525 0318 00000000 		.word	SrvComProto
 1526 031c 00000000 		.word	.LANCHOR16
 1527 0320 00000000 		.word	.LANCHOR15
 1528 0324 00000000 		.word	.LANCHOR9
 1529 0328 00000000 		.word	.LANCHOR20
 1530 032c 24000000 		.word	.LANCHOR19+36
 1531 0330 00000000 		.word	TaskFrame_Mav_PID_Roll_Callback
 1532 0334 40000000 		.word	.LANCHOR19+64
 1533 0338 00000000 		.word	TaskFrame_Mav_PID_Pitch_Callback
 1534 033c 5C000000 		.word	.LANCHOR19+92
 1535 0340 00000000 		.word	TaskFrame_Mav_PID_GyrX_Callback
 1536 0344 78000000 		.word	.LANCHOR19+120
 1537 0348 00000000 		.word	TaskFrame_Mav_PID_GyrY_Callback
 1538 034c 94000000 		.word	.LANCHOR19+148
 1539 0350 00000000 		.word	.LANCHOR21
 1540 0354 00000000 		.word	.LANCHOR19
 1541 0358 00000000 		.word	TaskFrame_Mav_ExpAtt_Callback
 1542 035c 00000000 		.word	TaskFrame_Mav_ExpGyro_Callback
 1543 0360 00000000 		.word	TaskFrame_Mav_ExpAlt_Callback
 1544 0364 00000000 		.word	.LANCHOR11
 1545 0368 00000000 		.word	.LANCHOR12
 1546 036c 00000000 		.word	.LANCHOR6
 1547 0370 00000000 		.word	TaskFrame_Mav_PID_GyrZ_Callback
 1548              	.L82:
 1549 0374 A047     		blx	r4
 1550              	.LVL112:
 839:Task/Task_Protocol.c ****         return true;
 1551              		.loc 1 839 9 is_stmt 1 view .LVU405
 839:Task/Task_Protocol.c ****         return true;
 1552              		.loc 1 839 20 is_stmt 0 view .LVU406
 1553 0376 AC69     		ldr	r4, [r5, #24]
 839:Task/Task_Protocol.c ****         return true;
 1554              		.loc 1 839 9 view .LVU407
 1555 0378 07F19403 		add	r3, r7, #148
 1556 037c 4246     		mov	r2, r8
 1557 037e 4946     		mov	r1, r9
 1558 0380 3046     		mov	r0, r6
ARM GAS  C:\Users\8bit\AppData\Local\Temp\ccqwqzi2.s 			page 50


 1559 0382 A047     		blx	r4
 1560              	.LVL113:
 840:Task/Task_Protocol.c ****     }
 1561              		.loc 1 840 9 is_stmt 1 view .LVU408
 840:Task/Task_Protocol.c ****     }
 1562              		.loc 1 840 16 is_stmt 0 view .LVU409
 1563 0384 5046     		mov	r0, r10
 1564 0386 44E6     		b	.L75
 1565              	.LBE4:
 1566              		.cfi_endproc
 1567              	.LFE2087:
 1569              		.section	.text.TaskFrameCTL_Port_Tx,"ax",%progbits
 1570              		.align	1
 1571              		.syntax unified
 1572              		.thumb
 1573              		.thumb_func
 1575              	TaskFrameCTL_Port_Tx:
 1576              	.LVL114:
 1577              	.LFB2080:
 405:Task/Task_Protocol.c ****     bool state = false;
 1578              		.loc 1 405 1 is_stmt 1 view -0
 1579              		.cfi_startproc
 1580              		@ args = 0, pretend = 0, frame = 0
 1581              		@ frame_needed = 0, uses_anonymous_args = 0
 405:Task/Task_Protocol.c ****     bool state = false;
 1582              		.loc 1 405 1 is_stmt 0 view .LVU411
 1583 0000 2DE9F041 		push	{r4, r5, r6, r7, r8, lr}
 1584              	.LCFI31:
 1585              		.cfi_def_cfa_offset 24
 1586              		.cfi_offset 4, -24
 1587              		.cfi_offset 5, -20
 1588              		.cfi_offset 6, -16
 1589              		.cfi_offset 7, -12
 1590              		.cfi_offset 8, -8
 1591              		.cfi_offset 14, -4
 406:Task/Task_Protocol.c **** 
 1592              		.loc 1 406 5 is_stmt 1 view .LVU412
 1593              	.LVL115:
 408:Task/Task_Protocol.c **** 
 1594              		.loc 1 408 5 view .LVU413
 410:Task/Task_Protocol.c ****     {
 1595              		.loc 1 410 5 view .LVU414
 410:Task/Task_Protocol.c ****     {
 1596              		.loc 1 410 7 is_stmt 0 view .LVU415
 1597 0004 20B3     		cbz	r0, .L86
 1598 0006 0E46     		mov	r6, r1
 1599 0008 1546     		mov	r5, r2
 1600 000a 0746     		mov	r7, r0
 410:Task/Task_Protocol.c ****     {
 1601              		.loc 1 410 17 discriminator 1 view .LVU416
 1602 000c 21B3     		cbz	r1, .L87
 410:Task/Task_Protocol.c ****     {
 1603              		.loc 1 410 27 discriminator 2 view .LVU417
 1604 000e 2AB3     		cbz	r2, .L88
 412:Task/Task_Protocol.c ****         p_UartPort = (FrameCTL_UartPortMonitor_TypeDef *)obj_addr;
 1605              		.loc 1 412 9 is_stmt 1 view .LVU418
 1606              	.LVL116:
ARM GAS  C:\Users\8bit\AppData\Local\Temp\ccqwqzi2.s 			page 51


 413:Task/Task_Protocol.c **** 
 1607              		.loc 1 413 9 view .LVU419
 416:Task/Task_Protocol.c ****         {
 1608              		.loc 1 416 9 view .LVU420
 416:Task/Task_Protocol.c ****         {
 1609              		.loc 1 416 22 is_stmt 0 view .LVU421
 1610 0010 0478     		ldrb	r4, [r0]	@ zero_extendqisi2
 416:Task/Task_Protocol.c ****         {
 1611              		.loc 1 416 11 view .LVU422
 1612 0012 F4B1     		cbz	r4, .L85
 416:Task/Task_Protocol.c ****         {
 1613              		.loc 1 416 48 discriminator 1 view .LVU423
 1614 0014 036A     		ldr	r3, [r0, #32]
 416:Task/Task_Protocol.c ****         {
 1615              		.loc 1 416 35 discriminator 1 view .LVU424
 1616 0016 1BB3     		cbz	r3, .L89
 416:Task/Task_Protocol.c ****         {
 1617              		.loc 1 416 67 discriminator 2 view .LVU425
 1618 0018 8069     		ldr	r0, [r0, #24]
 1619              	.LVL117:
 416:Task/Task_Protocol.c ****         {
 1620              		.loc 1 416 54 discriminator 2 view .LVU426
 1621 001a 18B3     		cbz	r0, .L90
 416:Task/Task_Protocol.c ****         {
 1622              		.loc 1 416 96 discriminator 3 view .LVU427
 1623 001c 124B     		ldr	r3, .L95
 1624 001e 93F80180 		ldrb	r8, [r3, #1]	@ zero_extendqisi2
 416:Task/Task_Protocol.c ****         {
 1625              		.loc 1 416 81 discriminator 3 view .LVU428
 1626 0022 B8F1000F 		cmp	r8, #0
 1627 0026 01D0     		beq	.L94
 424:Task/Task_Protocol.c ****     }
 1628              		.loc 1 424 19 view .LVU429
 1629 0028 0024     		movs	r4, #0
 1630 002a 12E0     		b	.L85
 1631              	.L94:
 418:Task/Task_Protocol.c ****             if ((!BspUart.send(p_UartPort->Obj, p_data, size)) || \
 1632              		.loc 1 418 13 is_stmt 1 view .LVU430
 1633 002c 0021     		movs	r1, #0
 1634              	.LVL118:
 418:Task/Task_Protocol.c ****             if ((!BspUart.send(p_UartPort->Obj, p_data, size)) || \
 1635              		.loc 1 418 13 is_stmt 0 view .LVU431
 1636 002e FFF7FEFF 		bl	osSemaphoreWait
 1637              	.LVL119:
 419:Task/Task_Protocol.c ****                 (osSemaphoreWait(p_UartPort->p_tx_semphr, FrameCTL_Port_Tx_TimeOut) != osOK))
 1638              		.loc 1 419 13 is_stmt 1 view .LVU432
 419:Task/Task_Protocol.c ****                 (osSemaphoreWait(p_UartPort->p_tx_semphr, FrameCTL_Port_Tx_TimeOut) != osOK))
 1639              		.loc 1 419 26 is_stmt 0 view .LVU433
 1640 0032 0E4B     		ldr	r3, .L95+4
 1641 0034 DB69     		ldr	r3, [r3, #28]
 419:Task/Task_Protocol.c ****                 (osSemaphoreWait(p_UartPort->p_tx_semphr, FrameCTL_Port_Tx_TimeOut) != osOK))
 1642              		.loc 1 419 19 view .LVU434
 1643 0036 2A46     		mov	r2, r5
 1644 0038 3146     		mov	r1, r6
 1645 003a 386A     		ldr	r0, [r7, #32]
 1646 003c 9847     		blx	r3
 1647              	.LVL120:
ARM GAS  C:\Users\8bit\AppData\Local\Temp\ccqwqzi2.s 			page 52


 419:Task/Task_Protocol.c ****                 (osSemaphoreWait(p_UartPort->p_tx_semphr, FrameCTL_Port_Tx_TimeOut) != osOK))
 1648              		.loc 1 419 16 view .LVU435
 1649 003e 0446     		mov	r4, r0
 1650 0040 38B1     		cbz	r0, .L85
 420:Task/Task_Protocol.c ****                 state = false;
 1651              		.loc 1 420 18 discriminator 1 view .LVU436
 1652 0042 0521     		movs	r1, #5
 1653 0044 B869     		ldr	r0, [r7, #24]
 1654 0046 FFF7FEFF 		bl	osSemaphoreWait
 1655              	.LVL121:
 419:Task/Task_Protocol.c ****                 (osSemaphoreWait(p_UartPort->p_tx_semphr, FrameCTL_Port_Tx_TimeOut) != osOK))
 1656              		.loc 1 419 64 discriminator 1 view .LVU437
 1657 004a 10B1     		cbz	r0, .L85
 421:Task/Task_Protocol.c ****         }
 1658              		.loc 1 421 23 view .LVU438
 1659 004c 4446     		mov	r4, r8
 1660 004e 00E0     		b	.L85
 1661              	.LVL122:
 1662              	.L86:
 406:Task/Task_Protocol.c **** 
 1663              		.loc 1 406 10 view .LVU439
 1664 0050 0024     		movs	r4, #0
 1665              	.LVL123:
 1666              	.L85:
 427:Task/Task_Protocol.c **** }
 1667              		.loc 1 427 5 is_stmt 1 view .LVU440
 428:Task/Task_Protocol.c **** 
 1668              		.loc 1 428 1 is_stmt 0 view .LVU441
 1669 0052 2046     		mov	r0, r4
 1670 0054 BDE8F081 		pop	{r4, r5, r6, r7, r8, pc}
 1671              	.LVL124:
 1672              	.L87:
 406:Task/Task_Protocol.c **** 
 1673              		.loc 1 406 10 view .LVU442
 1674 0058 0024     		movs	r4, #0
 1675 005a FAE7     		b	.L85
 1676              	.L88:
 1677 005c 0024     		movs	r4, #0
 1678 005e F8E7     		b	.L85
 1679              	.LVL125:
 1680              	.L89:
 424:Task/Task_Protocol.c ****     }
 1681              		.loc 1 424 19 view .LVU443
 1682 0060 0024     		movs	r4, #0
 1683 0062 F6E7     		b	.L85
 1684              	.LVL126:
 1685              	.L90:
 424:Task/Task_Protocol.c ****     }
 1686              		.loc 1 424 19 view .LVU444
 1687 0064 0024     		movs	r4, #0
 1688 0066 F4E7     		b	.L85
 1689              	.L96:
 1690              		.align	2
 1691              	.L95:
 1692 0068 00000000 		.word	.LANCHOR0
 1693 006c 00000000 		.word	BspUart
 1694              		.cfi_endproc
ARM GAS  C:\Users\8bit\AppData\Local\Temp\ccqwqzi2.s 			page 53


 1695              	.LFE2080:
 1697              		.section	.text.TaskFrameCTL_DefaultPort_Trans,"ax",%progbits
 1698              		.align	1
 1699              		.syntax unified
 1700              		.thumb
 1701              		.thumb_func
 1703              	TaskFrameCTL_DefaultPort_Trans:
 1704              	.LVL127:
 1705              	.LFB2077:
 285:Task/Task_Protocol.c ****     bool state = false;
 1706              		.loc 1 285 1 is_stmt 1 view -0
 1707              		.cfi_startproc
 1708              		@ args = 0, pretend = 0, frame = 0
 1709              		@ frame_needed = 0, uses_anonymous_args = 0
 285:Task/Task_Protocol.c ****     bool state = false;
 1710              		.loc 1 285 1 is_stmt 0 view .LVU446
 1711 0000 70B5     		push	{r4, r5, r6, lr}
 1712              	.LCFI32:
 1713              		.cfi_def_cfa_offset 16
 1714              		.cfi_offset 4, -16
 1715              		.cfi_offset 5, -12
 1716              		.cfi_offset 6, -8
 1717              		.cfi_offset 14, -4
 286:Task/Task_Protocol.c **** 
 1718              		.loc 1 286 5 is_stmt 1 view .LVU447
 1719              	.LVL128:
 289:Task/Task_Protocol.c ****         PortMonitor.vcp_connect_state && \
 1720              		.loc 1 289 5 view .LVU448
 289:Task/Task_Protocol.c ****         PortMonitor.vcp_connect_state && \
 1721              		.loc 1 289 29 is_stmt 0 view .LVU449
 1722 0002 134B     		ldr	r3, .L107
 1723 0004 1C7A     		ldrb	r4, [r3, #8]	@ zero_extendqisi2
 289:Task/Task_Protocol.c ****         PortMonitor.vcp_connect_state && \
 1724              		.loc 1 289 8 view .LVU450
 1725 0006 44B1     		cbz	r4, .L98
 1726 0008 0646     		mov	r6, r0
 1727 000a 0D46     		mov	r5, r1
 290:Task/Task_Protocol.c ****         PortMonitor.VCP_Port.p_tx_semphr && \
 1728              		.loc 1 290 20 discriminator 1 view .LVU451
 1729 000c 5C78     		ldrb	r4, [r3, #1]	@ zero_extendqisi2
 289:Task/Task_Protocol.c ****         PortMonitor.vcp_connect_state && \
 1730              		.loc 1 289 41 discriminator 1 view .LVU452
 1731 000e 24B1     		cbz	r4, .L98
 291:Task/Task_Protocol.c ****         p_data && size)
 1732              		.loc 1 291 29 view .LVU453
 1733 0010 9869     		ldr	r0, [r3, #24]
 1734              	.LVL129:
 290:Task/Task_Protocol.c ****         PortMonitor.VCP_Port.p_tx_semphr && \
 1735              		.loc 1 290 39 view .LVU454
 1736 0012 C0B1     		cbz	r0, .L99
 291:Task/Task_Protocol.c ****         p_data && size)
 1737              		.loc 1 291 42 view .LVU455
 1738 0014 CEB1     		cbz	r6, .L100
 292:Task/Task_Protocol.c ****     {
 1739              		.loc 1 292 16 view .LVU456
 1740 0016 11B9     		cbnz	r1, .L105
 286:Task/Task_Protocol.c **** 
ARM GAS  C:\Users\8bit\AppData\Local\Temp\ccqwqzi2.s 			page 54


 1741              		.loc 1 286 10 view .LVU457
 1742 0018 0024     		movs	r4, #0
 1743              	.LVL130:
 1744              	.L98:
 301:Task/Task_Protocol.c **** }
 1745              		.loc 1 301 5 is_stmt 1 view .LVU458
 302:Task/Task_Protocol.c **** 
 1746              		.loc 1 302 1 is_stmt 0 view .LVU459
 1747 001a 2046     		mov	r0, r4
 1748 001c 70BD     		pop	{r4, r5, r6, pc}
 1749              	.LVL131:
 1750              	.L105:
 294:Task/Task_Protocol.c ****         osSemaphoreWait(PortMonitor.VCP_Port.p_tx_semphr, 0);
 1751              		.loc 1 294 9 is_stmt 1 view .LVU460
 295:Task/Task_Protocol.c ****         if ((BspUSB_VCP.send(p_data, size) != BspUSB_Error_None) || \
 1752              		.loc 1 295 9 view .LVU461
 1753 001e 0021     		movs	r1, #0
 1754              	.LVL132:
 295:Task/Task_Protocol.c ****         if ((BspUSB_VCP.send(p_data, size) != BspUSB_Error_None) || \
 1755              		.loc 1 295 9 is_stmt 0 view .LVU462
 1756 0020 FFF7FEFF 		bl	osSemaphoreWait
 1757              	.LVL133:
 296:Task/Task_Protocol.c ****             (osSemaphoreWait(PortMonitor.VCP_Port.p_tx_semphr, FrameCTL_Port_Tx_TimeOut) != osOK))
 1758              		.loc 1 296 9 is_stmt 1 view .LVU463
 296:Task/Task_Protocol.c ****             (osSemaphoreWait(PortMonitor.VCP_Port.p_tx_semphr, FrameCTL_Port_Tx_TimeOut) != osOK))
 1759              		.loc 1 296 24 is_stmt 0 view .LVU464
 1760 0024 0B4B     		ldr	r3, .L107+4
 1761 0026 9B68     		ldr	r3, [r3, #8]
 296:Task/Task_Protocol.c ****             (osSemaphoreWait(PortMonitor.VCP_Port.p_tx_semphr, FrameCTL_Port_Tx_TimeOut) != osOK))
 1762              		.loc 1 296 14 view .LVU465
 1763 0028 2946     		mov	r1, r5
 1764 002a 3046     		mov	r0, r6
 1765 002c 9847     		blx	r3
 1766              	.LVL134:
 296:Task/Task_Protocol.c ****             (osSemaphoreWait(PortMonitor.VCP_Port.p_tx_semphr, FrameCTL_Port_Tx_TimeOut) != osOK))
 1767              		.loc 1 296 12 view .LVU466
 1768 002e 08B1     		cbz	r0, .L106
 298:Task/Task_Protocol.c ****     }
 1769              		.loc 1 298 19 view .LVU467
 1770 0030 0024     		movs	r4, #0
 1771 0032 F2E7     		b	.L98
 1772              	.L106:
 297:Task/Task_Protocol.c ****             state = false;
 1773              		.loc 1 297 14 discriminator 1 view .LVU468
 1774 0034 0521     		movs	r1, #5
 1775 0036 064B     		ldr	r3, .L107
 1776 0038 9869     		ldr	r0, [r3, #24]
 1777 003a FFF7FEFF 		bl	osSemaphoreWait
 1778              	.LVL135:
 296:Task/Task_Protocol.c ****             (osSemaphoreWait(PortMonitor.VCP_Port.p_tx_semphr, FrameCTL_Port_Tx_TimeOut) != osOK))
 1779              		.loc 1 296 66 discriminator 1 view .LVU469
 1780 003e 0028     		cmp	r0, #0
 1781 0040 EBD0     		beq	.L98
 298:Task/Task_Protocol.c ****     }
 1782              		.loc 1 298 19 view .LVU470
 1783 0042 0024     		movs	r4, #0
 1784 0044 E9E7     		b	.L98
ARM GAS  C:\Users\8bit\AppData\Local\Temp\ccqwqzi2.s 			page 55


 1785              	.LVL136:
 1786              	.L99:
 286:Task/Task_Protocol.c **** 
 1787              		.loc 1 286 10 view .LVU471
 1788 0046 0024     		movs	r4, #0
 1789 0048 E7E7     		b	.L98
 1790              	.L100:
 1791 004a 0024     		movs	r4, #0
 1792 004c E5E7     		b	.L98
 1793              	.L108:
 1794 004e 00BF     		.align	2
 1795              	.L107:
 1796 0050 00000000 		.word	.LANCHOR0
 1797 0054 00000000 		.word	BspUSB_VCP
 1798              		.cfi_endproc
 1799              	.LFE2077:
 1801              		.section	.text.TaskFrameCTL_CLI_Trans,"ax",%progbits
 1802              		.align	1
 1803              		.syntax unified
 1804              		.thumb
 1805              		.thumb_func
 1807              	TaskFrameCTL_CLI_Trans:
 1808              	.LVL137:
 1809              	.LFB2100:
1048:Task/Task_Protocol.c **** 
1049:Task/Task_Protocol.c **** /***************************************** CLI Section ********************************************
1050:Task/Task_Protocol.c **** static int TaskFrameCTL_CLI_Trans(const uint8_t *p_data, uint16_t size)
1051:Task/Task_Protocol.c **** {
 1810              		.loc 1 1051 1 is_stmt 1 view -0
 1811              		.cfi_startproc
 1812              		@ args = 0, pretend = 0, frame = 0
 1813              		@ frame_needed = 0, uses_anonymous_args = 0
1052:Task/Task_Protocol.c ****     if(p_data && size)
 1814              		.loc 1 1052 5 view .LVU473
 1815              		.loc 1 1052 7 is_stmt 0 view .LVU474
 1816 0000 90B1     		cbz	r0, .L113
1051:Task/Task_Protocol.c ****     if(p_data && size)
 1817              		.loc 1 1051 1 discriminator 1 view .LVU475
 1818 0002 08B5     		push	{r3, lr}
 1819              	.LCFI33:
 1820              		.cfi_def_cfa_offset 8
 1821              		.cfi_offset 3, -8
 1822              		.cfi_offset 14, -4
 1823              		.loc 1 1052 15 discriminator 1 view .LVU476
 1824 0004 59B1     		cbz	r1, .L110
1053:Task/Task_Protocol.c ****     {
1054:Task/Task_Protocol.c ****         switch ((uint8_t) CLI_Monitor.type)
 1825              		.loc 1 1054 9 is_stmt 1 view .LVU477
 1826              		.loc 1 1054 38 is_stmt 0 view .LVU478
 1827 0006 094A     		ldr	r2, .L116
 1828 0008 1278     		ldrb	r2, [r2]	@ zero_extendqisi2
 1829              		.loc 1 1054 9 view .LVU479
 1830 000a 012A     		cmp	r2, #1
 1831 000c 09D0     		beq	.L111
 1832 000e 022A     		cmp	r2, #2
 1833 0010 05D1     		bne	.L110
1055:Task/Task_Protocol.c ****         {
ARM GAS  C:\Users\8bit\AppData\Local\Temp\ccqwqzi2.s 			page 56


1056:Task/Task_Protocol.c ****             case Port_Uart:
1057:Task/Task_Protocol.c ****                 TaskFrameCTL_Port_Tx(CLI_Monitor.port_addr, (uint8_t *)p_data, size);
 1834              		.loc 1 1057 17 is_stmt 1 view .LVU480
 1835 0012 0A46     		mov	r2, r1
 1836 0014 0146     		mov	r1, r0
 1837              	.LVL138:
 1838              		.loc 1 1057 17 is_stmt 0 view .LVU481
 1839 0016 054B     		ldr	r3, .L116
 1840 0018 5868     		ldr	r0, [r3, #4]
 1841              	.LVL139:
 1842              		.loc 1 1057 17 view .LVU482
 1843 001a FFF7FEFF 		bl	TaskFrameCTL_Port_Tx
 1844              	.LVL140:
1058:Task/Task_Protocol.c ****                 break;
 1845              		.loc 1 1058 17 is_stmt 1 view .LVU483
 1846              	.L110:
1059:Task/Task_Protocol.c ****             
1060:Task/Task_Protocol.c ****             case Port_USB:
1061:Task/Task_Protocol.c ****                 TaskFrameCTL_DefaultPort_Trans((uint8_t *)p_data, size);
1062:Task/Task_Protocol.c ****                 break; 
1063:Task/Task_Protocol.c **** 
1064:Task/Task_Protocol.c ****             default:
1065:Task/Task_Protocol.c ****                 break;
1066:Task/Task_Protocol.c ****         }
1067:Task/Task_Protocol.c ****     }
1068:Task/Task_Protocol.c **** 
1069:Task/Task_Protocol.c ****     return 0;
 1847              		.loc 1 1069 5 view .LVU484
1070:Task/Task_Protocol.c **** }
 1848              		.loc 1 1070 1 is_stmt 0 view .LVU485
 1849 001e 0020     		movs	r0, #0
 1850 0020 08BD     		pop	{r3, pc}
 1851              	.LVL141:
 1852              	.L111:
1061:Task/Task_Protocol.c ****                 break; 
 1853              		.loc 1 1061 17 is_stmt 1 view .LVU486
 1854 0022 FFF7FEFF 		bl	TaskFrameCTL_DefaultPort_Trans
 1855              	.LVL142:
1062:Task/Task_Protocol.c **** 
 1856              		.loc 1 1062 17 view .LVU487
 1857 0026 FAE7     		b	.L110
 1858              	.LVL143:
 1859              	.L113:
 1860              	.LCFI34:
 1861              		.cfi_def_cfa_offset 0
 1862              		.cfi_restore 3
 1863              		.cfi_restore 14
1069:Task/Task_Protocol.c **** }
 1864              		.loc 1 1069 5 view .LVU488
 1865              		.loc 1 1070 1 is_stmt 0 view .LVU489
 1866 0028 0020     		movs	r0, #0
 1867              	.LVL144:
 1868              		.loc 1 1070 1 view .LVU490
 1869 002a 7047     		bx	lr
 1870              	.L117:
 1871              		.align	2
 1872              	.L116:
ARM GAS  C:\Users\8bit\AppData\Local\Temp\ccqwqzi2.s 			page 57


 1873 002c 00000000 		.word	.LANCHOR22
 1874              		.cfi_endproc
 1875              	.LFE2100:
 1877              		.section	.text.TaskFrameCTL_MavMsg_Trans,"ax",%progbits
 1878              		.align	1
 1879              		.syntax unified
 1880              		.thumb
 1881              		.thumb_func
 1883              	TaskFrameCTL_MavMsg_Trans:
 1884              	.LVL145:
 1885              	.LFB2090:
 917:Task/Task_Protocol.c ****     if(Obj && (Obj->frame_type == ComFrame_MavMsg) && Obj->port_addr && p_data && size)
 1886              		.loc 1 917 1 is_stmt 1 view -0
 1887              		.cfi_startproc
 1888              		@ args = 0, pretend = 0, frame = 0
 1889              		@ frame_needed = 0, uses_anonymous_args = 0
 918:Task/Task_Protocol.c ****     {
 1890              		.loc 1 918 5 view .LVU492
 918:Task/Task_Protocol.c ****     {
 1891              		.loc 1 918 7 is_stmt 0 view .LVU493
 1892 0000 D8B1     		cbz	r0, .L122
 917:Task/Task_Protocol.c ****     if(Obj && (Obj->frame_type == ComFrame_MavMsg) && Obj->port_addr && p_data && size)
 1893              		.loc 1 917 1 discriminator 1 view .LVU494
 1894 0002 08B5     		push	{r3, lr}
 1895              	.LCFI35:
 1896              		.cfi_def_cfa_offset 8
 1897              		.cfi_offset 3, -8
 1898              		.cfi_offset 14, -4
 1899 0004 0B46     		mov	r3, r1
 1900 0006 0146     		mov	r1, r0
 1901              	.LVL146:
 918:Task/Task_Protocol.c ****     {
 1902              		.loc 1 918 19 discriminator 1 view .LVU495
 1903 0008 0078     		ldrb	r0, [r0]	@ zero_extendqisi2
 1904              	.LVL147:
 918:Task/Task_Protocol.c ****     {
 1905              		.loc 1 918 12 discriminator 1 view .LVU496
 1906 000a 0228     		cmp	r0, #2
 1907 000c 00D0     		beq	.L125
 1908              	.LVL148:
 1909              	.L118:
 934:Task/Task_Protocol.c **** 
 1910              		.loc 1 934 1 view .LVU497
 1911 000e 08BD     		pop	{r3, pc}
 1912              	.LVL149:
 1913              	.L125:
 918:Task/Task_Protocol.c ****     {
 1914              		.loc 1 918 58 discriminator 2 view .LVU498
 1915 0010 4868     		ldr	r0, [r1, #4]
 918:Task/Task_Protocol.c ****     {
 1916              		.loc 1 918 52 discriminator 2 view .LVU499
 1917 0012 0028     		cmp	r0, #0
 1918 0014 FBD0     		beq	.L118
 918:Task/Task_Protocol.c ****     {
 1919              		.loc 1 918 70 discriminator 3 view .LVU500
 1920 0016 002B     		cmp	r3, #0
 1921 0018 F9D0     		beq	.L118
ARM GAS  C:\Users\8bit\AppData\Local\Temp\ccqwqzi2.s 			page 58


 918:Task/Task_Protocol.c ****     {
 1922              		.loc 1 918 80 discriminator 4 view .LVU501
 1923 001a 002A     		cmp	r2, #0
 1924 001c F7D0     		beq	.L118
 920:Task/Task_Protocol.c ****         {
 1925              		.loc 1 920 9 is_stmt 1 view .LVU502
 920:Task/Task_Protocol.c ****         {
 1926              		.loc 1 920 29 is_stmt 0 view .LVU503
 1927 001e 4978     		ldrb	r1, [r1, #1]	@ zero_extendqisi2
 1928              	.LVL150:
 920:Task/Task_Protocol.c ****         {
 1929              		.loc 1 920 9 view .LVU504
 1930 0020 0129     		cmp	r1, #1
 1931 0022 05D0     		beq	.L120
 1932 0024 0229     		cmp	r1, #2
 1933 0026 F2D1     		bne	.L118
 923:Task/Task_Protocol.c ****                 break;
 1934              		.loc 1 923 17 is_stmt 1 view .LVU505
 1935 0028 1946     		mov	r1, r3
 1936 002a FFF7FEFF 		bl	TaskFrameCTL_Port_Tx
 1937              	.LVL151:
 924:Task/Task_Protocol.c **** 
 1938              		.loc 1 924 17 view .LVU506
 1939 002e EEE7     		b	.L118
 1940              	.LVL152:
 1941              	.L120:
 927:Task/Task_Protocol.c ****                 break;
 1942              		.loc 1 927 17 view .LVU507
 1943 0030 1146     		mov	r1, r2
 1944 0032 1846     		mov	r0, r3
 1945 0034 FFF7FEFF 		bl	TaskFrameCTL_DefaultPort_Trans
 1946              	.LVL153:
 928:Task/Task_Protocol.c **** 
 1947              		.loc 1 928 17 view .LVU508
 1948 0038 E9E7     		b	.L118
 1949              	.LVL154:
 1950              	.L122:
 1951              	.LCFI36:
 1952              		.cfi_def_cfa_offset 0
 1953              		.cfi_restore 3
 1954              		.cfi_restore 14
 928:Task/Task_Protocol.c **** 
 1955              		.loc 1 928 17 is_stmt 0 view .LVU509
 1956 003a 7047     		bx	lr
 1957              		.cfi_endproc
 1958              	.LFE2090:
 1960              		.section	.text.TaskFrameCTL_Upgrade_Send,"ax",%progbits
 1961              		.align	1
 1962              		.syntax unified
 1963              		.thumb
 1964              		.thumb_func
 1966              	TaskFrameCTL_Upgrade_Send:
 1967              	.LVL155:
 1968              	.LFB2084:
 617:Task/Task_Protocol.c ****     if (Upgrade_Monitor.port_addr && p_buf && size)
 1969              		.loc 1 617 1 is_stmt 1 view -0
 1970              		.cfi_startproc
ARM GAS  C:\Users\8bit\AppData\Local\Temp\ccqwqzi2.s 			page 59


 1971              		@ args = 0, pretend = 0, frame = 0
 1972              		@ frame_needed = 0, uses_anonymous_args = 0
 617:Task/Task_Protocol.c ****     if (Upgrade_Monitor.port_addr && p_buf && size)
 1973              		.loc 1 617 1 is_stmt 0 view .LVU511
 1974 0000 08B5     		push	{r3, lr}
 1975              	.LCFI37:
 1976              		.cfi_def_cfa_offset 8
 1977              		.cfi_offset 3, -8
 1978              		.cfi_offset 14, -4
 618:Task/Task_Protocol.c ****     {
 1979              		.loc 1 618 5 is_stmt 1 view .LVU512
 618:Task/Task_Protocol.c ****     {
 1980              		.loc 1 618 24 is_stmt 0 view .LVU513
 1981 0002 0A4B     		ldr	r3, .L132
 1982 0004 1B69     		ldr	r3, [r3, #16]
 618:Task/Task_Protocol.c ****     {
 1983              		.loc 1 618 8 view .LVU514
 1984 0006 0BB1     		cbz	r3, .L126
 618:Task/Task_Protocol.c ****     {
 1985              		.loc 1 618 35 discriminator 1 view .LVU515
 1986 0008 00B1     		cbz	r0, .L126
 618:Task/Task_Protocol.c ****     {
 1987              		.loc 1 618 44 discriminator 2 view .LVU516
 1988 000a 01B9     		cbnz	r1, .L131
 1989              	.LVL156:
 1990              	.L126:
 639:Task/Task_Protocol.c **** 
 1991              		.loc 1 639 1 view .LVU517
 1992 000c 08BD     		pop	{r3, pc}
 1993              	.LVL157:
 1994              	.L131:
 620:Task/Task_Protocol.c ****         {
 1995              		.loc 1 620 9 is_stmt 1 view .LVU518
 622:Task/Task_Protocol.c ****             {
 1996              		.loc 1 622 13 view .LVU519
 622:Task/Task_Protocol.c ****             {
 1997              		.loc 1 622 46 is_stmt 0 view .LVU520
 1998 000e 074A     		ldr	r2, .L132
 1999 0010 127D     		ldrb	r2, [r2, #20]	@ zero_extendqisi2
 622:Task/Task_Protocol.c ****             {
 2000              		.loc 1 622 13 view .LVU521
 2001 0012 012A     		cmp	r2, #1
 2002 0014 07D0     		beq	.L128
 2003 0016 022A     		cmp	r2, #2
 2004 0018 F8D1     		bne	.L126
 625:Task/Task_Protocol.c ****                     break;
 2005              		.loc 1 625 21 is_stmt 1 view .LVU522
 2006 001a 0A46     		mov	r2, r1
 2007 001c 0146     		mov	r1, r0
 2008              	.LVL158:
 625:Task/Task_Protocol.c ****                     break;
 2009              		.loc 1 625 21 is_stmt 0 view .LVU523
 2010 001e 1846     		mov	r0, r3
 2011              	.LVL159:
 625:Task/Task_Protocol.c ****                     break;
 2012              		.loc 1 625 21 view .LVU524
 2013 0020 FFF7FEFF 		bl	TaskFrameCTL_Port_Tx
ARM GAS  C:\Users\8bit\AppData\Local\Temp\ccqwqzi2.s 			page 60


 2014              	.LVL160:
 626:Task/Task_Protocol.c ****             
 2015              		.loc 1 626 21 is_stmt 1 view .LVU525
 2016 0024 F2E7     		b	.L126
 2017              	.LVL161:
 2018              	.L128:
 629:Task/Task_Protocol.c ****                     break; 
 2019              		.loc 1 629 21 view .LVU526
 2020 0026 FFF7FEFF 		bl	TaskFrameCTL_DefaultPort_Trans
 2021              	.LVL162:
 630:Task/Task_Protocol.c **** 
 2022              		.loc 1 630 21 view .LVU527
 637:Task/Task_Protocol.c ****     }
 2023              		.loc 1 637 9 view .LVU528
 637:Task/Task_Protocol.c ****     }
 2024              		.loc 1 637 16 is_stmt 0 view .LVU529
 2025 002a EFE7     		b	.L126
 2026              	.L133:
 2027              		.align	2
 2028              	.L132:
 2029 002c 00000000 		.word	.LANCHOR1
 2030              		.cfi_endproc
 2031              	.LFE2084:
 2033              		.section	.text.TaskFrameCTL_DefaultPort_Init,"ax",%progbits
 2034              		.align	1
 2035              		.syntax unified
 2036              		.thumb
 2037              		.thumb_func
 2039              	TaskFrameCTL_DefaultPort_Init:
 2040              	.LVL163:
 2041              	.LFB2076:
 251:Task/Task_Protocol.c ****     if(monitor)
 2042              		.loc 1 251 1 is_stmt 1 view -0
 2043              		.cfi_startproc
 2044              		@ args = 0, pretend = 0, frame = 8
 2045              		@ frame_needed = 0, uses_anonymous_args = 0
 252:Task/Task_Protocol.c ****     {
 2046              		.loc 1 252 5 view .LVU531
 252:Task/Task_Protocol.c ****     {
 2047              		.loc 1 252 7 is_stmt 0 view .LVU532
 2048 0000 50B3     		cbz	r0, .L140
 251:Task/Task_Protocol.c ****     if(monitor)
 2049              		.loc 1 251 1 view .LVU533
 2050 0002 30B5     		push	{r4, r5, lr}
 2051              	.LCFI38:
 2052              		.cfi_def_cfa_offset 12
 2053              		.cfi_offset 4, -12
 2054              		.cfi_offset 5, -8
 2055              		.cfi_offset 14, -4
 2056 0004 83B0     		sub	sp, sp, #12
 2057              	.LCFI39:
 2058              		.cfi_def_cfa_offset 24
 2059 0006 0446     		mov	r4, r0
 2060              	.LBB5:
 254:Task/Task_Protocol.c ****         {
 2061              		.loc 1 254 9 is_stmt 1 view .LVU534
 254:Task/Task_Protocol.c ****         {
ARM GAS  C:\Users\8bit\AppData\Local\Temp\ccqwqzi2.s 			page 61


 2062              		.loc 1 254 22 is_stmt 0 view .LVU535
 2063 0008 144B     		ldr	r3, .L144
 2064 000a 1B68     		ldr	r3, [r3]
 254:Task/Task_Protocol.c ****         {
 2065              		.loc 1 254 12 view .LVU536
 2066 000c 0C30     		adds	r0, r0, #12
 2067              	.LVL164:
 254:Task/Task_Protocol.c ****         {
 2068              		.loc 1 254 12 view .LVU537
 2069 000e 9847     		blx	r3
 2070              	.LVL165:
 254:Task/Task_Protocol.c ****         {
 2071              		.loc 1 254 11 view .LVU538
 2072 0010 18B1     		cbz	r0, .L136
 257:Task/Task_Protocol.c ****             return;
 2073              		.loc 1 257 13 is_stmt 1 view .LVU539
 257:Task/Task_Protocol.c ****             return;
 2074              		.loc 1 257 42 is_stmt 0 view .LVU540
 2075 0012 0023     		movs	r3, #0
 2076 0014 2372     		strb	r3, [r4, #8]
 258:Task/Task_Protocol.c ****         }
 2077              		.loc 1 258 13 is_stmt 1 view .LVU541
 2078              	.L134:
 2079              	.LBE5:
 282:Task/Task_Protocol.c **** 
 2080              		.loc 1 282 1 is_stmt 0 view .LVU542
 2081 0016 03B0     		add	sp, sp, #12
 2082              	.LCFI40:
 2083              		.cfi_remember_state
 2084              		.cfi_def_cfa_offset 12
 2085              		@ sp needed
 2086 0018 30BD     		pop	{r4, r5, pc}
 2087              	.LVL166:
 2088              	.L136:
 2089              	.LCFI41:
 2090              		.cfi_restore_state
 2091              	.LBB6:
 261:Task/Task_Protocol.c **** 
 2092              		.loc 1 261 13 is_stmt 1 view .LVU543
 261:Task/Task_Protocol.c **** 
 2093              		.loc 1 261 42 is_stmt 0 view .LVU544
 2094 001a 0121     		movs	r1, #1
 2095 001c 2172     		strb	r1, [r4, #8]
 264:Task/Task_Protocol.c ****         monitor->VCP_Port.p_tx_semphr = osSemaphoreCreate(osSemaphore(DefaultPort_Tx), 1);
 2096              		.loc 1 264 9 is_stmt 1 view .LVU545
 2097 001e 0023     		movs	r3, #0
 2098 0020 0093     		str	r3, [sp]
 2099 0022 0193     		str	r3, [sp, #4]
 265:Task/Task_Protocol.c **** 
 2100              		.loc 1 265 9 view .LVU546
 265:Task/Task_Protocol.c **** 
 2101              		.loc 1 265 41 is_stmt 0 view .LVU547
 2102 0024 6846     		mov	r0, sp
 2103 0026 FFF7FEFF 		bl	osSemaphoreCreate
 2104              	.LVL167:
 265:Task/Task_Protocol.c **** 
 2105              		.loc 1 265 39 view .LVU548
ARM GAS  C:\Users\8bit\AppData\Local\Temp\ccqwqzi2.s 			page 62


 2106 002a A061     		str	r0, [r4, #24]
 267:Task/Task_Protocol.c ****         {
 2107              		.loc 1 267 9 is_stmt 1 view .LVU549
 267:Task/Task_Protocol.c ****         {
 2108              		.loc 1 267 11 is_stmt 0 view .LVU550
 2109 002c 88B1     		cbz	r0, .L143
 273:Task/Task_Protocol.c ****         BspUSB_VCP.set_rx_callback(TaskFrameCTL_Port_Rx_Callback);
 2110              		.loc 1 273 9 is_stmt 1 view .LVU551
 273:Task/Task_Protocol.c ****         BspUSB_VCP.set_rx_callback(TaskFrameCTL_Port_Rx_Callback);
 2111              		.loc 1 273 19 is_stmt 0 view .LVU552
 2112 002e 0B4D     		ldr	r5, .L144
 2113 0030 2B69     		ldr	r3, [r5, #16]
 273:Task/Task_Protocol.c ****         BspUSB_VCP.set_rx_callback(TaskFrameCTL_Port_Rx_Callback);
 2114              		.loc 1 273 9 view .LVU553
 2115 0032 0B48     		ldr	r0, .L144+4
 2116 0034 9847     		blx	r3
 2117              	.LVL168:
 274:Task/Task_Protocol.c ****         BspUSB_VCP.set_connect_callback(TaskFrameCTL_USB_VCP_Connect_Callback);
 2118              		.loc 1 274 9 is_stmt 1 view .LVU554
 274:Task/Task_Protocol.c ****         BspUSB_VCP.set_connect_callback(TaskFrameCTL_USB_VCP_Connect_Callback);
 2119              		.loc 1 274 19 is_stmt 0 view .LVU555
 2120 0036 EB68     		ldr	r3, [r5, #12]
 274:Task/Task_Protocol.c ****         BspUSB_VCP.set_connect_callback(TaskFrameCTL_USB_VCP_Connect_Callback);
 2121              		.loc 1 274 9 view .LVU556
 2122 0038 0A48     		ldr	r0, .L144+8
 2123 003a 9847     		blx	r3
 2124              	.LVL169:
 275:Task/Task_Protocol.c **** 
 2125              		.loc 1 275 9 is_stmt 1 view .LVU557
 275:Task/Task_Protocol.c **** 
 2126              		.loc 1 275 19 is_stmt 0 view .LVU558
 2127 003c 6B69     		ldr	r3, [r5, #20]
 275:Task/Task_Protocol.c **** 
 2128              		.loc 1 275 9 view .LVU559
 2129 003e 0A48     		ldr	r0, .L144+12
 2130 0040 9847     		blx	r3
 2131              	.LVL170:
 277:Task/Task_Protocol.c ****         monitor->VCP_Port.RecObj.type = Port_USB;
 2132              		.loc 1 277 9 is_stmt 1 view .LVU560
 277:Task/Task_Protocol.c ****         monitor->VCP_Port.RecObj.type = Port_USB;
 2133              		.loc 1 277 59 is_stmt 0 view .LVU561
 2134 0042 04F10803 		add	r3, r4, #8
 277:Task/Task_Protocol.c ****         monitor->VCP_Port.RecObj.type = Port_USB;
 2135              		.loc 1 277 47 view .LVU562
 2136 0046 2361     		str	r3, [r4, #16]
 278:Task/Task_Protocol.c **** 
 2137              		.loc 1 278 9 is_stmt 1 view .LVU563
 278:Task/Task_Protocol.c **** 
 2138              		.loc 1 278 39 is_stmt 0 view .LVU564
 2139 0048 0122     		movs	r2, #1
 2140 004a 2273     		strb	r2, [r4, #12]
 280:Task/Task_Protocol.c ****     }
 2141              		.loc 1 280 9 is_stmt 1 view .LVU565
 280:Task/Task_Protocol.c ****     }
 2142              		.loc 1 280 22 is_stmt 0 view .LVU566
 2143 004c 074A     		ldr	r2, .L144+16
 2144 004e 1360     		str	r3, [r2]
ARM GAS  C:\Users\8bit\AppData\Local\Temp\ccqwqzi2.s 			page 63


 2145 0050 E1E7     		b	.L134
 2146              	.L143:
 269:Task/Task_Protocol.c ****             return;
 2147              		.loc 1 269 13 is_stmt 1 view .LVU567
 269:Task/Task_Protocol.c ****             return;
 2148              		.loc 1 269 42 is_stmt 0 view .LVU568
 2149 0052 0023     		movs	r3, #0
 2150 0054 2372     		strb	r3, [r4, #8]
 270:Task/Task_Protocol.c ****         }
 2151              		.loc 1 270 13 is_stmt 1 view .LVU569
 2152 0056 DEE7     		b	.L134
 2153              	.LVL171:
 2154              	.L140:
 2155              	.LCFI42:
 2156              		.cfi_def_cfa_offset 0
 2157              		.cfi_restore 4
 2158              		.cfi_restore 5
 2159              		.cfi_restore 14
 270:Task/Task_Protocol.c ****         }
 2160              		.loc 1 270 13 is_stmt 0 view .LVU570
 2161 0058 7047     		bx	lr
 2162              	.L145:
 2163 005a 00BF     		.align	2
 2164              	.L144:
 2165 005c 00000000 		.word	BspUSB_VCP
 2166 0060 00000000 		.word	TaskFrameCTL_Port_TxCplt_Callback
 2167 0064 00000000 		.word	TaskFrameCTL_Port_Rx_Callback
 2168 0068 00000000 		.word	TaskFrameCTL_USB_VCP_Connect_Callback
 2169 006c 00000000 		.word	.LANCHOR10
 2170              	.LBE6:
 2171              		.cfi_endproc
 2172              	.LFE2076:
 2174              		.section	.text.TaskFrameCTL_RadioPort_Init,"ax",%progbits
 2175              		.align	1
 2176              		.syntax unified
 2177              		.thumb
 2178              		.thumb_func
 2180              	TaskFrameCTL_RadioPort_Init:
 2181              	.LVL172:
 2182              	.LFB2078:
 306:Task/Task_Protocol.c ****     if(monitor)
 2183              		.loc 1 306 1 is_stmt 1 view -0
 2184              		.cfi_startproc
 2185              		@ args = 0, pretend = 0, frame = 8
 2186              		@ frame_needed = 0, uses_anonymous_args = 0
 307:Task/Task_Protocol.c ****     {
 2187              		.loc 1 307 5 view .LVU572
 307:Task/Task_Protocol.c ****     {
 2188              		.loc 1 307 7 is_stmt 0 view .LVU573
 2189 0000 0028     		cmp	r0, #0
 2190 0002 5FD0     		beq	.L155
 306:Task/Task_Protocol.c ****     if(monitor)
 2191              		.loc 1 306 1 view .LVU574
 2192 0004 F0B5     		push	{r4, r5, r6, r7, lr}
 2193              	.LCFI43:
 2194              		.cfi_def_cfa_offset 20
 2195              		.cfi_offset 4, -20
ARM GAS  C:\Users\8bit\AppData\Local\Temp\ccqwqzi2.s 			page 64


 2196              		.cfi_offset 5, -16
 2197              		.cfi_offset 6, -12
 2198              		.cfi_offset 7, -8
 2199              		.cfi_offset 14, -4
 2200 0006 83B0     		sub	sp, sp, #12
 2201              	.LCFI44:
 2202              		.cfi_def_cfa_offset 32
 2203 0008 0446     		mov	r4, r0
 310:Task/Task_Protocol.c ****         monitor->Uart_Port = Radio_UartPort_List;
 2204              		.loc 1 310 9 is_stmt 1 view .LVU575
 310:Task/Task_Protocol.c ****         monitor->Uart_Port = Radio_UartPort_List;
 2205              		.loc 1 310 32 is_stmt 0 view .LVU576
 2206 000a 0123     		movs	r3, #1
 2207 000c 8370     		strb	r3, [r0, #2]
 311:Task/Task_Protocol.c ****         
 2208              		.loc 1 311 9 is_stmt 1 view .LVU577
 311:Task/Task_Protocol.c ****         
 2209              		.loc 1 311 28 is_stmt 0 view .LVU578
 2210 000e 2E4B     		ldr	r3, .L160
 2211 0010 8363     		str	r3, [r0, #56]
 313:Task/Task_Protocol.c ****         {
 2212              		.loc 1 313 9 is_stmt 1 view .LVU579
 2213              	.LBB7:
 313:Task/Task_Protocol.c ****         {
 2214              		.loc 1 313 13 view .LVU580
 2215              	.LVL173:
 313:Task/Task_Protocol.c ****         {
 2216              		.loc 1 313 21 is_stmt 0 view .LVU581
 2217 0012 0025     		movs	r5, #0
 313:Task/Task_Protocol.c ****         {
 2218              		.loc 1 313 9 view .LVU582
 2219 0014 38E0     		b	.L148
 2220              	.LVL174:
 2221              	.L159:
 2222              	.LBB8:
 344:Task/Task_Protocol.c ****                 memset(&monitor->Uart_Port[i].RecObj, 0, sizeof(FrameCTL_PortProtoObj_TypeDef));
 2223              		.loc 1 344 17 is_stmt 1 view .LVU583
 344:Task/Task_Protocol.c ****                 memset(&monitor->Uart_Port[i].RecObj, 0, sizeof(FrameCTL_PortProtoObj_TypeDef));
 2224              		.loc 1 344 24 is_stmt 0 view .LVU584
 2225 0016 A36B     		ldr	r3, [r4, #56]
 344:Task/Task_Protocol.c ****                 memset(&monitor->Uart_Port[i].RecObj, 0, sizeof(FrameCTL_PortProtoObj_TypeDef));
 2226              		.loc 1 344 50 view .LVU585
 2227 0018 0121     		movs	r1, #1
 2228 001a 9955     		strb	r1, [r3, r6]
 345:Task/Task_Protocol.c ****                 memset(&monitor->Uart_Port[i].ByPass_Mode, 0, sizeof(Port_Bypass_TypeDef));
 2229              		.loc 1 345 17 is_stmt 1 view .LVU586
 345:Task/Task_Protocol.c ****                 memset(&monitor->Uart_Port[i].ByPass_Mode, 0, sizeof(Port_Bypass_TypeDef));
 2230              		.loc 1 345 32 is_stmt 0 view .LVU587
 2231 001c A26B     		ldr	r2, [r4, #56]
 345:Task/Task_Protocol.c ****                 memset(&monitor->Uart_Port[i].ByPass_Mode, 0, sizeof(Port_Bypass_TypeDef));
 2232              		.loc 1 345 43 view .LVU588
 2233 001e 3244     		add	r2, r2, r6
 345:Task/Task_Protocol.c ****                 memset(&monitor->Uart_Port[i].ByPass_Mode, 0, sizeof(Port_Bypass_TypeDef));
 2234              		.loc 1 345 17 view .LVU589
 2235 0020 0023     		movs	r3, #0
 2236 0022 5360     		str	r3, [r2, #4]	@ unaligned
 2237 0024 9360     		str	r3, [r2, #8]	@ unaligned
ARM GAS  C:\Users\8bit\AppData\Local\Temp\ccqwqzi2.s 			page 65


 2238 0026 D360     		str	r3, [r2, #12]	@ unaligned
 346:Task/Task_Protocol.c ****                 
 2239              		.loc 1 346 17 is_stmt 1 view .LVU590
 346:Task/Task_Protocol.c ****                 
 2240              		.loc 1 346 32 is_stmt 0 view .LVU591
 2241 0028 A26B     		ldr	r2, [r4, #56]
 346:Task/Task_Protocol.c ****                 
 2242              		.loc 1 346 43 view .LVU592
 2243 002a 3244     		add	r2, r2, r6
 346:Task/Task_Protocol.c ****                 
 2244              		.loc 1 346 17 view .LVU593
 2245 002c 1361     		str	r3, [r2, #16]	@ unaligned
 2246 002e 5361     		str	r3, [r2, #20]	@ unaligned
 348:Task/Task_Protocol.c ****                 monitor->Uart_Port[i].RecObj.port_index = i;
 2247              		.loc 1 348 17 is_stmt 1 view .LVU594
 348:Task/Task_Protocol.c ****                 monitor->Uart_Port[i].RecObj.port_index = i;
 2248              		.loc 1 348 24 is_stmt 0 view .LVU595
 2249 0030 A26B     		ldr	r2, [r4, #56]
 348:Task/Task_Protocol.c ****                 monitor->Uart_Port[i].RecObj.port_index = i;
 2250              		.loc 1 348 35 view .LVU596
 2251 0032 3244     		add	r2, r2, r6
 348:Task/Task_Protocol.c ****                 monitor->Uart_Port[i].RecObj.port_index = i;
 2252              		.loc 1 348 51 view .LVU597
 2253 0034 0220     		movs	r0, #2
 2254 0036 1071     		strb	r0, [r2, #4]
 349:Task/Task_Protocol.c ****                 
 2255              		.loc 1 349 17 is_stmt 1 view .LVU598
 349:Task/Task_Protocol.c ****                 
 2256              		.loc 1 349 24 is_stmt 0 view .LVU599
 2257 0038 A26B     		ldr	r2, [r4, #56]
 349:Task/Task_Protocol.c ****                 
 2258              		.loc 1 349 35 view .LVU600
 2259 003a 3244     		add	r2, r2, r6
 349:Task/Task_Protocol.c ****                 
 2260              		.loc 1 349 57 view .LVU601
 2261 003c 5571     		strb	r5, [r2, #5]
 351:Task/Task_Protocol.c ****             
 2262              		.loc 1 351 17 is_stmt 1 view .LVU602
 351:Task/Task_Protocol.c ****             
 2263              		.loc 1 351 80 is_stmt 0 view .LVU603
 2264 003e A26B     		ldr	r2, [r4, #56]
 351:Task/Task_Protocol.c ****             
 2265              		.loc 1 351 91 view .LVU604
 2266 0040 3244     		add	r2, r2, r6
 351:Task/Task_Protocol.c ****             
 2267              		.loc 1 351 71 view .LVU605
 2268 0042 101D     		adds	r0, r2, #4
 351:Task/Task_Protocol.c ****             
 2269              		.loc 1 351 38 view .LVU606
 2270 0044 126A     		ldr	r2, [r2, #32]
 351:Task/Task_Protocol.c ****             
 2271              		.loc 1 351 59 view .LVU607
 2272 0046 9064     		str	r0, [r2, #72]
 354:Task/Task_Protocol.c ****                 monitor->Uart_Port[i].p_tx_semphr = osSemaphoreCreate(osSemaphore(Uart_Port_Tmp), 1
 2273              		.loc 1 354 17 is_stmt 1 view .LVU608
 2274 0048 0093     		str	r3, [sp]
 2275 004a 0193     		str	r3, [sp, #4]
ARM GAS  C:\Users\8bit\AppData\Local\Temp\ccqwqzi2.s 			page 66


 355:Task/Task_Protocol.c **** 
 2276              		.loc 1 355 17 view .LVU609
 355:Task/Task_Protocol.c **** 
 2277              		.loc 1 355 24 is_stmt 0 view .LVU610
 2278 004c A76B     		ldr	r7, [r4, #56]
 355:Task/Task_Protocol.c **** 
 2279              		.loc 1 355 35 view .LVU611
 2280 004e 3744     		add	r7, r7, r6
 355:Task/Task_Protocol.c **** 
 2281              		.loc 1 355 53 view .LVU612
 2282 0050 6846     		mov	r0, sp
 2283 0052 FFF7FEFF 		bl	osSemaphoreCreate
 2284              	.LVL175:
 355:Task/Task_Protocol.c **** 
 2285              		.loc 1 355 51 view .LVU613
 2286 0056 B861     		str	r0, [r7, #24]
 357:Task/Task_Protocol.c ****                 {
 2287              		.loc 1 357 17 is_stmt 1 view .LVU614
 357:Task/Task_Protocol.c ****                 {
 2288              		.loc 1 357 27 is_stmt 0 view .LVU615
 2289 0058 A26B     		ldr	r2, [r4, #56]
 357:Task/Task_Protocol.c ****                 {
 2290              		.loc 1 357 38 view .LVU616
 2291 005a 9319     		adds	r3, r2, r6
 357:Task/Task_Protocol.c ****                 {
 2292              		.loc 1 357 41 view .LVU617
 2293 005c 9969     		ldr	r1, [r3, #24]
 357:Task/Task_Protocol.c ****                 {
 2294              		.loc 1 357 19 view .LVU618
 2295 005e 0029     		cmp	r1, #0
 2296 0060 28D0     		beq	.L150
 360:Task/Task_Protocol.c ****                     BspUart.set_tx_callback(monitor->Uart_Port[i].Obj, TaskFrameCTL_Port_TxCplt_Cal
 2297              		.loc 1 360 21 is_stmt 1 view .LVU619
 360:Task/Task_Protocol.c ****                     BspUart.set_tx_callback(monitor->Uart_Port[i].Obj, TaskFrameCTL_Port_TxCplt_Cal
 2298              		.loc 1 360 28 is_stmt 0 view .LVU620
 2299 0062 1A4F     		ldr	r7, .L160+4
 2300 0064 3A6A     		ldr	r2, [r7, #32]
 360:Task/Task_Protocol.c ****                     BspUart.set_tx_callback(monitor->Uart_Port[i].Obj, TaskFrameCTL_Port_TxCplt_Cal
 2301              		.loc 1 360 21 view .LVU621
 2302 0066 1A49     		ldr	r1, .L160+8
 2303 0068 186A     		ldr	r0, [r3, #32]
 2304 006a 9047     		blx	r2
 2305              	.LVL176:
 361:Task/Task_Protocol.c **** 
 2306              		.loc 1 361 21 is_stmt 1 view .LVU622
 361:Task/Task_Protocol.c **** 
 2307              		.loc 1 361 28 is_stmt 0 view .LVU623
 2308 006c 7A6A     		ldr	r2, [r7, #36]
 361:Task/Task_Protocol.c **** 
 2309              		.loc 1 361 52 view .LVU624
 2310 006e A36B     		ldr	r3, [r4, #56]
 361:Task/Task_Protocol.c **** 
 2311              		.loc 1 361 63 view .LVU625
 2312 0070 3344     		add	r3, r3, r6
 361:Task/Task_Protocol.c **** 
 2313              		.loc 1 361 21 view .LVU626
 2314 0072 1849     		ldr	r1, .L160+12
ARM GAS  C:\Users\8bit\AppData\Local\Temp\ccqwqzi2.s 			page 67


 2315 0074 186A     		ldr	r0, [r3, #32]
 2316 0076 9047     		blx	r2
 2317              	.LVL177:
 363:Task/Task_Protocol.c ****                     monitor->Uart_Port[i].init_state = true;
 2318              		.loc 1 363 21 is_stmt 1 view .LVU627
 363:Task/Task_Protocol.c ****                     monitor->Uart_Port[i].init_state = true;
 2319              		.loc 1 363 84 is_stmt 0 view .LVU628
 2320 0078 A36B     		ldr	r3, [r4, #56]
 363:Task/Task_Protocol.c ****                     monitor->Uart_Port[i].init_state = true;
 2321              		.loc 1 363 75 view .LVU629
 2322 007a 3344     		add	r3, r3, r6
 363:Task/Task_Protocol.c ****                     monitor->Uart_Port[i].init_state = true;
 2323              		.loc 1 363 63 view .LVU630
 2324 007c 9B60     		str	r3, [r3, #8]
 364:Task/Task_Protocol.c ****                 }
 2325              		.loc 1 364 21 is_stmt 1 view .LVU631
 364:Task/Task_Protocol.c ****                 }
 2326              		.loc 1 364 28 is_stmt 0 view .LVU632
 2327 007e A36B     		ldr	r3, [r4, #56]
 364:Task/Task_Protocol.c ****                 }
 2328              		.loc 1 364 54 view .LVU633
 2329 0080 0122     		movs	r2, #1
 2330 0082 9A55     		strb	r2, [r3, r6]
 2331              	.L152:
 364:Task/Task_Protocol.c ****                 }
 2332              		.loc 1 364 54 view .LVU634
 2333              	.LBE8:
 313:Task/Task_Protocol.c ****         {
 2334              		.loc 1 313 56 is_stmt 1 discriminator 2 view .LVU635
 313:Task/Task_Protocol.c ****         {
 2335              		.loc 1 313 57 is_stmt 0 discriminator 2 view .LVU636
 2336 0084 0135     		adds	r5, r5, #1
 2337              	.LVL178:
 313:Task/Task_Protocol.c ****         {
 2338              		.loc 1 313 57 discriminator 2 view .LVU637
 2339 0086 EDB2     		uxtb	r5, r5
 2340              	.LVL179:
 2341              	.L148:
 313:Task/Task_Protocol.c ****         {
 2342              		.loc 1 313 28 is_stmt 1 discriminator 1 view .LVU638
 313:Task/Task_Protocol.c ****         {
 2343              		.loc 1 313 39 is_stmt 0 discriminator 1 view .LVU639
 2344 0088 A378     		ldrb	r3, [r4, #2]	@ zero_extendqisi2
 313:Task/Task_Protocol.c ****         {
 2345              		.loc 1 313 9 discriminator 1 view .LVU640
 2346 008a AB42     		cmp	r3, r5
 2347 008c 18D9     		bls	.L158
 342:Task/Task_Protocol.c ****             {
 2348              		.loc 1 342 13 is_stmt 1 view .LVU641
 342:Task/Task_Protocol.c ****             {
 2349              		.loc 1 342 23 is_stmt 0 view .LVU642
 2350 008e 0F4B     		ldr	r3, .L160+4
 2351 0090 1968     		ldr	r1, [r3]
 342:Task/Task_Protocol.c ****             {
 2352              		.loc 1 342 36 view .LVU643
 2353 0092 A36B     		ldr	r3, [r4, #56]
 342:Task/Task_Protocol.c ****             {
ARM GAS  C:\Users\8bit\AppData\Local\Temp\ccqwqzi2.s 			page 68


 2354              		.loc 1 342 47 view .LVU644
 2355 0094 05EBC502 		add	r2, r5, r5, lsl #3
 2356 0098 9600     		lsls	r6, r2, #2
 2357 009a 03EB8203 		add	r3, r3, r2, lsl #2
 342:Task/Task_Protocol.c ****             {
 2358              		.loc 1 342 16 view .LVU645
 2359 009e 186A     		ldr	r0, [r3, #32]
 2360 00a0 8847     		blx	r1
 2361              	.LVL180:
 342:Task/Task_Protocol.c ****             {
 2362              		.loc 1 342 15 view .LVU646
 2363 00a2 0028     		cmp	r0, #0
 2364 00a4 B7D1     		bne	.L159
 374:Task/Task_Protocol.c ****                 monitor->uart_port_num --;
 2365              		.loc 1 374 17 is_stmt 1 view .LVU647
 374:Task/Task_Protocol.c ****                 monitor->uart_port_num --;
 2366              		.loc 1 374 24 is_stmt 0 view .LVU648
 2367 00a6 A36B     		ldr	r3, [r4, #56]
 374:Task/Task_Protocol.c ****                 monitor->uart_port_num --;
 2368              		.loc 1 374 50 view .LVU649
 2369 00a8 0022     		movs	r2, #0
 2370 00aa 9A55     		strb	r2, [r3, r6]
 375:Task/Task_Protocol.c ****             }
 2371              		.loc 1 375 17 is_stmt 1 view .LVU650
 375:Task/Task_Protocol.c ****             }
 2372              		.loc 1 375 24 is_stmt 0 view .LVU651
 2373 00ac A378     		ldrb	r3, [r4, #2]	@ zero_extendqisi2
 375:Task/Task_Protocol.c ****             }
 2374              		.loc 1 375 40 view .LVU652
 2375 00ae 013B     		subs	r3, r3, #1
 2376 00b0 A370     		strb	r3, [r4, #2]
 2377 00b2 E7E7     		b	.L152
 2378              	.L150:
 2379              	.LBB9:
 368:Task/Task_Protocol.c ****                     monitor->uart_port_num --;
 2380              		.loc 1 368 21 is_stmt 1 view .LVU653
 368:Task/Task_Protocol.c ****                     monitor->uart_port_num --;
 2381              		.loc 1 368 54 is_stmt 0 view .LVU654
 2382 00b4 0023     		movs	r3, #0
 2383 00b6 9355     		strb	r3, [r2, r6]
 369:Task/Task_Protocol.c ****                 }
 2384              		.loc 1 369 21 is_stmt 1 view .LVU655
 369:Task/Task_Protocol.c ****                 }
 2385              		.loc 1 369 28 is_stmt 0 view .LVU656
 2386 00b8 A378     		ldrb	r3, [r4, #2]	@ zero_extendqisi2
 369:Task/Task_Protocol.c ****                 }
 2387              		.loc 1 369 44 view .LVU657
 2388 00ba 013B     		subs	r3, r3, #1
 2389 00bc A370     		strb	r3, [r4, #2]
 2390 00be E1E7     		b	.L152
 2391              	.L158:
 369:Task/Task_Protocol.c ****                 }
 2392              		.loc 1 369 44 view .LVU658
 2393              	.LBE9:
 2394              	.LBE7:
 382:Task/Task_Protocol.c **** 
 2395              		.loc 1 382 1 view .LVU659
ARM GAS  C:\Users\8bit\AppData\Local\Temp\ccqwqzi2.s 			page 69


 2396 00c0 03B0     		add	sp, sp, #12
 2397              	.LCFI45:
 2398              		.cfi_def_cfa_offset 20
 2399              		@ sp needed
 2400 00c2 F0BD     		pop	{r4, r5, r6, r7, pc}
 2401              	.LVL181:
 2402              	.L155:
 2403              	.LCFI46:
 2404              		.cfi_def_cfa_offset 0
 2405              		.cfi_restore 4
 2406              		.cfi_restore 5
 2407              		.cfi_restore 6
 2408              		.cfi_restore 7
 2409              		.cfi_restore 14
 382:Task/Task_Protocol.c **** 
 2410              		.loc 1 382 1 view .LVU660
 2411 00c4 7047     		bx	lr
 2412              	.L161:
 2413 00c6 00BF     		.align	2
 2414              	.L160:
 2415 00c8 00000000 		.word	.LANCHOR23
 2416 00cc 00000000 		.word	BspUart
 2417 00d0 00000000 		.word	TaskFrameCTL_Port_Rx_Callback
 2418 00d4 00000000 		.word	TaskFrameCTL_Port_TxCplt_Callback
 2419              		.cfi_endproc
 2420              	.LFE2078:
 2422              		.section	.text.TaskFrameCTL_Port_Rx_Callback,"ax",%progbits
 2423              		.align	1
 2424              		.syntax unified
 2425              		.thumb
 2426              		.thumb_func
 2428              	TaskFrameCTL_Port_Rx_Callback:
 2429              	.LVL182:
 2430              	.LFB2081:
 431:Task/Task_Protocol.c ****     SrvComProto_Msg_StreamIn_TypeDef stream_in;
 2431              		.loc 1 431 1 is_stmt 1 view -0
 2432              		.cfi_startproc
 2433              		@ args = 0, pretend = 0, frame = 16
 2434              		@ frame_needed = 0, uses_anonymous_args = 0
 431:Task/Task_Protocol.c ****     SrvComProto_Msg_StreamIn_TypeDef stream_in;
 2435              		.loc 1 431 1 is_stmt 0 view .LVU662
 2436 0000 F0B5     		push	{r4, r5, r6, r7, lr}
 2437              	.LCFI47:
 2438              		.cfi_def_cfa_offset 20
 2439              		.cfi_offset 4, -20
 2440              		.cfi_offset 5, -16
 2441              		.cfi_offset 6, -12
 2442              		.cfi_offset 7, -8
 2443              		.cfi_offset 14, -4
 2444 0002 85B0     		sub	sp, sp, #20
 2445              	.LCFI48:
 2446              		.cfi_def_cfa_offset 40
 432:Task/Task_Protocol.c ****     SrvComProto_Stream_TypeDef *p_stream = NULL;
 2447              		.loc 1 432 5 is_stmt 1 view .LVU663
 433:Task/Task_Protocol.c ****     FrameCTL_PortProtoObj_TypeDef *p_RecObj = NULL;
 2448              		.loc 1 433 5 view .LVU664
 2449              	.LVL183:
ARM GAS  C:\Users\8bit\AppData\Local\Temp\ccqwqzi2.s 			page 70


 434:Task/Task_Protocol.c ****     InUsePort_MavMsgInput_Obj = NULL;
 2450              		.loc 1 434 5 view .LVU665
 435:Task/Task_Protocol.c ****     bool cli_state = false;
 2451              		.loc 1 435 5 view .LVU666
 435:Task/Task_Protocol.c ****     bool cli_state = false;
 2452              		.loc 1 435 31 is_stmt 0 view .LVU667
 2453 0004 0023     		movs	r3, #0
 2454 0006 624C     		ldr	r4, .L185
 2455 0008 2360     		str	r3, [r4]
 436:Task/Task_Protocol.c **** 
 2456              		.loc 1 436 5 is_stmt 1 view .LVU668
 436:Task/Task_Protocol.c **** 
 2457              		.loc 1 436 10 is_stmt 0 view .LVU669
 2458 000a 8DF80330 		strb	r3, [sp, #3]
 439:Task/Task_Protocol.c ****     {
 2459              		.loc 1 439 5 is_stmt 1 view .LVU670
 439:Task/Task_Protocol.c ****     {
 2460              		.loc 1 439 7 is_stmt 0 view .LVU671
 2461 000e 91B1     		cbz	r1, .L162
 2462 0010 0646     		mov	r6, r0
 2463 0012 1546     		mov	r5, r2
 2464 0014 0C46     		mov	r4, r1
 439:Task/Task_Protocol.c ****     {
 2465              		.loc 1 439 15 discriminator 1 view .LVU672
 2466 0016 72B1     		cbz	r2, .L162
 439:Task/Task_Protocol.c ****     {
 2467              		.loc 1 439 23 discriminator 2 view .LVU673
 2468 0018 68B1     		cbz	r0, .L162
 441:Task/Task_Protocol.c **** 
 2469              		.loc 1 441 9 is_stmt 1 view .LVU674
 441:Task/Task_Protocol.c **** 
 2470              		.loc 1 441 19 is_stmt 0 view .LVU675
 2471 001a 5E4B     		ldr	r3, .L185+4
 2472 001c 5B69     		ldr	r3, [r3, #20]
 441:Task/Task_Protocol.c **** 
 2473              		.loc 1 441 9 view .LVU676
 2474 001e 0DF10300 		add	r0, sp, #3
 2475              	.LVL184:
 441:Task/Task_Protocol.c **** 
 2476              		.loc 1 441 9 view .LVU677
 2477 0022 9847     		blx	r3
 2478              	.LVL185:
 443:Task/Task_Protocol.c ****         p_RecObj->time_stamp = SrvOsCommon.get_os_ms();
 2479              		.loc 1 443 9 is_stmt 1 view .LVU678
 444:Task/Task_Protocol.c **** 
 2480              		.loc 1 444 9 view .LVU679
 444:Task/Task_Protocol.c **** 
 2481              		.loc 1 444 43 is_stmt 0 view .LVU680
 2482 0024 5C4B     		ldr	r3, .L185+8
 2483 0026 1B68     		ldr	r3, [r3]
 444:Task/Task_Protocol.c **** 
 2484              		.loc 1 444 32 view .LVU681
 2485 0028 9847     		blx	r3
 2486              	.LVL186:
 444:Task/Task_Protocol.c **** 
 2487              		.loc 1 444 30 view .LVU682
 2488 002a B060     		str	r0, [r6, #8]
ARM GAS  C:\Users\8bit\AppData\Local\Temp\ccqwqzi2.s 			page 71


 446:Task/Task_Protocol.c ****         {
 2489              		.loc 1 446 9 is_stmt 1 view .LVU683
 446:Task/Task_Protocol.c ****         {
 2490              		.loc 1 446 34 is_stmt 0 view .LVU684
 2491 002c 3378     		ldrb	r3, [r6]	@ zero_extendqisi2
 446:Task/Task_Protocol.c ****         {
 2492              		.loc 1 446 9 view .LVU685
 2493 002e 012B     		cmp	r3, #1
 2494 0030 03D0     		beq	.L164
 2495 0032 022B     		cmp	r3, #2
 2496 0034 12D0     		beq	.L165
 2497              	.LVL187:
 2498              	.L162:
 544:Task/Task_Protocol.c **** 
 2499              		.loc 1 544 1 view .LVU686
 2500 0036 05B0     		add	sp, sp, #20
 2501              	.LCFI49:
 2502              		.cfi_remember_state
 2503              		.cfi_def_cfa_offset 20
 2504              		@ sp needed
 2505 0038 F0BD     		pop	{r4, r5, r6, r7, pc}
 2506              	.LVL188:
 2507              	.L164:
 2508              	.LCFI50:
 2509              		.cfi_restore_state
 449:Task/Task_Protocol.c ****                 InUsePort_MavMsgInput_Obj = &DefaultPort_MavMsgInput_Obj;
 2510              		.loc 1 449 17 is_stmt 1 view .LVU687
 450:Task/Task_Protocol.c **** 
 2511              		.loc 1 450 17 view .LVU688
 450:Task/Task_Protocol.c **** 
 2512              		.loc 1 450 43 is_stmt 0 view .LVU689
 2513 003a 554B     		ldr	r3, .L185
 2514 003c 574A     		ldr	r2, .L185+12
 2515 003e 1A60     		str	r2, [r3]
 452:Task/Task_Protocol.c ****                     TaskFrameCTL_DefaultPort_Trans(p_data, size);
 2516              		.loc 1 452 17 is_stmt 1 view .LVU690
 452:Task/Task_Protocol.c ****                     TaskFrameCTL_DefaultPort_Trans(p_data, size);
 2517              		.loc 1 452 21 is_stmt 0 view .LVU691
 2518 0040 9DF80330 		ldrb	r3, [sp, #3]	@ zero_extendqisi2
 452:Task/Task_Protocol.c ****                     TaskFrameCTL_DefaultPort_Trans(p_data, size);
 2519              		.loc 1 452 20 view .LVU692
 2520 0044 EBB1     		cbz	r3, .L177
 452:Task/Task_Protocol.c ****                     TaskFrameCTL_DefaultPort_Trans(p_data, size);
 2521              		.loc 1 452 50 discriminator 1 view .LVU693
 2522 0046 564B     		ldr	r3, .L185+16
 2523 0048 1B78     		ldrb	r3, [r3]	@ zero_extendqisi2
 452:Task/Task_Protocol.c ****                     TaskFrameCTL_DefaultPort_Trans(p_data, size);
 2524              		.loc 1 452 31 discriminator 1 view .LVU694
 2525 004a 0BB1     		cbz	r3, .L182
 449:Task/Task_Protocol.c ****                 InUsePort_MavMsgInput_Obj = &DefaultPort_MavMsgInput_Obj;
 2526              		.loc 1 449 26 view .LVU695
 2527 004c 554F     		ldr	r7, .L185+20
 2528 004e 19E0     		b	.L167
 2529              	.L182:
 453:Task/Task_Protocol.c ****                 break;
 2530              		.loc 1 453 21 is_stmt 1 view .LVU696
 2531 0050 2946     		mov	r1, r5
ARM GAS  C:\Users\8bit\AppData\Local\Temp\ccqwqzi2.s 			page 72


 2532 0052 2046     		mov	r0, r4
 2533 0054 FFF7FEFF 		bl	TaskFrameCTL_DefaultPort_Trans
 2534              	.LVL189:
 449:Task/Task_Protocol.c ****                 InUsePort_MavMsgInput_Obj = &DefaultPort_MavMsgInput_Obj;
 2535              		.loc 1 449 26 is_stmt 0 view .LVU697
 2536 0058 524F     		ldr	r7, .L185+20
 2537 005a 13E0     		b	.L167
 2538              	.LVL190:
 2539              	.L165:
 457:Task/Task_Protocol.c ****                 InUsePort_MavMsgInput_Obj = &RadioPort_MavMsgInput_Obj;
 2540              		.loc 1 457 17 is_stmt 1 view .LVU698
 458:Task/Task_Protocol.c ****                 
 2541              		.loc 1 458 17 view .LVU699
 458:Task/Task_Protocol.c ****                 
 2542              		.loc 1 458 43 is_stmt 0 view .LVU700
 2543 005c 4C4B     		ldr	r3, .L185
 2544 005e 524A     		ldr	r2, .L185+24
 2545 0060 1A60     		str	r2, [r3]
 460:Task/Task_Protocol.c ****                     TaskFrameCTL_Port_Tx(p_RecObj->PortObj_addr, p_data, size);
 2546              		.loc 1 460 17 is_stmt 1 view .LVU701
 460:Task/Task_Protocol.c ****                     TaskFrameCTL_Port_Tx(p_RecObj->PortObj_addr, p_data, size);
 2547              		.loc 1 460 21 is_stmt 0 view .LVU702
 2548 0062 9DF80330 		ldrb	r3, [sp, #3]	@ zero_extendqisi2
 460:Task/Task_Protocol.c ****                     TaskFrameCTL_Port_Tx(p_RecObj->PortObj_addr, p_data, size);
 2549              		.loc 1 460 20 view .LVU703
 2550 0066 002B     		cmp	r3, #0
 2551 0068 5CD0     		beq	.L179
 460:Task/Task_Protocol.c ****                     TaskFrameCTL_Port_Tx(p_RecObj->PortObj_addr, p_data, size);
 2552              		.loc 1 460 50 discriminator 1 view .LVU704
 2553 006a 4D4B     		ldr	r3, .L185+16
 2554 006c 1B78     		ldrb	r3, [r3]	@ zero_extendqisi2
 460:Task/Task_Protocol.c ****                     TaskFrameCTL_Port_Tx(p_RecObj->PortObj_addr, p_data, size);
 2555              		.loc 1 460 31 discriminator 1 view .LVU705
 2556 006e 0BB1     		cbz	r3, .L183
 457:Task/Task_Protocol.c ****                 InUsePort_MavMsgInput_Obj = &RadioPort_MavMsgInput_Obj;
 2557              		.loc 1 457 26 view .LVU706
 2558 0070 4E4F     		ldr	r7, .L185+28
 2559 0072 07E0     		b	.L167
 2560              	.L183:
 461:Task/Task_Protocol.c ****                 break;
 2561              		.loc 1 461 21 is_stmt 1 view .LVU707
 2562 0074 2A46     		mov	r2, r5
 2563 0076 2146     		mov	r1, r4
 2564 0078 7068     		ldr	r0, [r6, #4]
 2565 007a FFF7FEFF 		bl	TaskFrameCTL_Port_Tx
 2566              	.LVL191:
 457:Task/Task_Protocol.c ****                 InUsePort_MavMsgInput_Obj = &RadioPort_MavMsgInput_Obj;
 2567              		.loc 1 457 26 is_stmt 0 view .LVU708
 2568 007e 4B4F     		ldr	r7, .L185+28
 2569 0080 00E0     		b	.L167
 2570              	.LVL192:
 2571              	.L177:
 449:Task/Task_Protocol.c ****                 InUsePort_MavMsgInput_Obj = &DefaultPort_MavMsgInput_Obj;
 2572              		.loc 1 449 26 view .LVU709
 2573 0082 484F     		ldr	r7, .L185+20
 2574              	.LVL193:
 2575              	.L167:
ARM GAS  C:\Users\8bit\AppData\Local\Temp\ccqwqzi2.s 			page 73


 468:Task/Task_Protocol.c ****         {
 2576              		.loc 1 468 9 is_stmt 1 view .LVU710
 468:Task/Task_Protocol.c ****         {
 2577              		.loc 1 468 22 is_stmt 0 view .LVU711
 2578 0084 BB88     		ldrh	r3, [r7, #4]
 468:Task/Task_Protocol.c ****         {
 2579              		.loc 1 468 29 view .LVU712
 2580 0086 E918     		adds	r1, r5, r3
 468:Task/Task_Protocol.c ****         {
 2581              		.loc 1 468 48 view .LVU713
 2582 0088 FA88     		ldrh	r2, [r7, #6]
 468:Task/Task_Protocol.c ****         {
 2583              		.loc 1 468 12 view .LVU714
 2584 008a 9142     		cmp	r1, r2
 2585 008c 4CDC     		bgt	.L168
 470:Task/Task_Protocol.c ****             p_stream->size += size;
 2586              		.loc 1 470 13 is_stmt 1 view .LVU715
 470:Task/Task_Protocol.c ****             p_stream->size += size;
 2587              		.loc 1 470 28 is_stmt 0 view .LVU716
 2588 008e 3868     		ldr	r0, [r7]
 470:Task/Task_Protocol.c ****             p_stream->size += size;
 2589              		.loc 1 470 13 view .LVU717
 2590 0090 2A46     		mov	r2, r5
 2591 0092 2146     		mov	r1, r4
 2592 0094 1844     		add	r0, r0, r3
 2593 0096 FFF7FEFF 		bl	memcpy
 2594              	.LVL194:
 471:Task/Task_Protocol.c ****         }
 2595              		.loc 1 471 13 is_stmt 1 view .LVU718
 471:Task/Task_Protocol.c ****         }
 2596              		.loc 1 471 28 is_stmt 0 view .LVU719
 2597 009a BB88     		ldrh	r3, [r7, #4]
 2598 009c 2B44     		add	r3, r3, r5
 2599 009e 9BB2     		uxth	r3, r3
 2600 00a0 BB80     		strh	r3, [r7, #4]	@ movhi
 482:Task/Task_Protocol.c ****         {
 2601              		.loc 1 482 9 is_stmt 1 view .LVU720
 482:Task/Task_Protocol.c ****         {
 2602              		.loc 1 482 28 is_stmt 0 view .LVU721
 2603 00a2 3F4A     		ldr	r2, .L185+16
 2604 00a4 1278     		ldrb	r2, [r2]	@ zero_extendqisi2
 482:Task/Task_Protocol.c ****         {
 2605              		.loc 1 482 12 view .LVU722
 2606 00a6 002A     		cmp	r2, #0
 2607 00a8 46D1     		bne	.L169
 2608              	.L170:
 493:Task/Task_Protocol.c ****     
 2609              		.loc 1 493 9 is_stmt 1 view .LVU723
 493:Task/Task_Protocol.c ****     
 2610              		.loc 1 493 32 is_stmt 0 view .LVU724
 2611 00aa 414A     		ldr	r2, .L185+32
 2612 00ac 9468     		ldr	r4, [r2, #8]
 2613              	.LVL195:
 493:Task/Task_Protocol.c ****     
 2614              		.loc 1 493 21 view .LVU725
 2615 00ae 3A68     		ldr	r2, [r7]
 2616 00b0 3749     		ldr	r1, .L185
ARM GAS  C:\Users\8bit\AppData\Local\Temp\ccqwqzi2.s 			page 74


 2617 00b2 0968     		ldr	r1, [r1]
 2618 00b4 01A8     		add	r0, sp, #4
 2619 00b6 A047     		blx	r4
 2620              	.LVL196:
 496:Task/Task_Protocol.c ****         {
 2621              		.loc 1 496 9 is_stmt 1 view .LVU726
 496:Task/Task_Protocol.c ****         {
 2622              		.loc 1 496 21 is_stmt 0 view .LVU727
 2623 00b8 9DF80430 		ldrb	r3, [sp, #4]	@ zero_extendqisi2
 496:Task/Task_Protocol.c ****         {
 2624              		.loc 1 496 11 view .LVU728
 2625 00bc 002B     		cmp	r3, #0
 2626 00be BAD0     		beq	.L162
 502:Task/Task_Protocol.c ****             {
 2627              		.loc 1 502 13 is_stmt 1 view .LVU729
 502:Task/Task_Protocol.c ****             {
 2628              		.loc 1 502 16 is_stmt 0 view .LVU730
 2629 00c0 9DF80330 		ldrb	r3, [sp, #3]	@ zero_extendqisi2
 502:Task/Task_Protocol.c ****             {
 2630              		.loc 1 502 15 view .LVU731
 2631 00c4 1BB9     		cbnz	r3, .L172
 504:Task/Task_Protocol.c ****                 {
 2632              		.loc 1 504 17 is_stmt 1 view .LVU732
 504:Task/Task_Protocol.c ****                 {
 2633              		.loc 1 504 30 is_stmt 0 view .LVU733
 2634 00c6 9DF80530 		ldrb	r3, [sp, #5]	@ zero_extendqisi2
 504:Task/Task_Protocol.c ****                 {
 2635              		.loc 1 504 20 view .LVU734
 2636 00ca 022B     		cmp	r3, #2
 2637 00cc 4CD0     		beq	.L184
 2638              	.L172:
 522:Task/Task_Protocol.c ****             {
 2639              		.loc 1 522 13 is_stmt 1 view .LVU735
 522:Task/Task_Protocol.c ****             {
 2640              		.loc 1 522 25 is_stmt 0 view .LVU736
 2641 00ce 9DF80530 		ldrb	r3, [sp, #5]	@ zero_extendqisi2
 522:Task/Task_Protocol.c ****             {
 2642              		.loc 1 522 15 view .LVU737
 2643 00d2 012B     		cmp	r3, #1
 2644 00d4 AFD1     		bne	.L162
 527:Task/Task_Protocol.c ****                    (CLI_Monitor.p_rx_stream->size + p_stream->size) <= CLI_Monitor.p_rx_stream->max
 2645              		.loc 1 527 17 is_stmt 1 view .LVU738
 527:Task/Task_Protocol.c ****                    (CLI_Monitor.p_rx_stream->size + p_stream->size) <= CLI_Monitor.p_rx_stream->max
 2646              		.loc 1 527 33 is_stmt 0 view .LVU739
 2647 00d6 374B     		ldr	r3, .L185+36
 2648 00d8 5B68     		ldr	r3, [r3, #4]
 527:Task/Task_Protocol.c ****                    (CLI_Monitor.p_rx_stream->size + p_stream->size) <= CLI_Monitor.p_rx_stream->max
 2649              		.loc 1 527 19 view .LVU740
 2650 00da 13B1     		cbz	r3, .L175
 527:Task/Task_Protocol.c ****                    (CLI_Monitor.p_rx_stream->size + p_stream->size) <= CLI_Monitor.p_rx_stream->max
 2651              		.loc 1 527 87 discriminator 2 view .LVU741
 2652 00dc 7268     		ldr	r2, [r6, #4]
 527:Task/Task_Protocol.c ****                    (CLI_Monitor.p_rx_stream->size + p_stream->size) <= CLI_Monitor.p_rx_stream->max
 2653              		.loc 1 527 50 discriminator 2 view .LVU742
 2654 00de 9342     		cmp	r3, r2
 2655 00e0 A9D1     		bne	.L162
 2656              	.L175:
ARM GAS  C:\Users\8bit\AppData\Local\Temp\ccqwqzi2.s 			page 75


 528:Task/Task_Protocol.c ****                 {
 2657              		.loc 1 528 32 discriminator 3 view .LVU743
 2658 00e2 344B     		ldr	r3, .L185+36
 2659 00e4 9A68     		ldr	r2, [r3, #8]
 528:Task/Task_Protocol.c ****                 {
 2660              		.loc 1 528 44 discriminator 3 view .LVU744
 2661 00e6 9388     		ldrh	r3, [r2, #4]
 528:Task/Task_Protocol.c ****                 {
 2662              		.loc 1 528 61 discriminator 3 view .LVU745
 2663 00e8 B988     		ldrh	r1, [r7, #4]
 528:Task/Task_Protocol.c ****                 {
 2664              		.loc 1 528 51 discriminator 3 view .LVU746
 2665 00ea 0B44     		add	r3, r3, r1
 528:Task/Task_Protocol.c ****                 {
 2666              		.loc 1 528 95 discriminator 3 view .LVU747
 2667 00ec D288     		ldrh	r2, [r2, #6]
 527:Task/Task_Protocol.c ****                    (CLI_Monitor.p_rx_stream->size + p_stream->size) <= CLI_Monitor.p_rx_stream->max
 2668              		.loc 1 527 104 discriminator 3 view .LVU748
 2669 00ee 9342     		cmp	r3, r2
 2670 00f0 A1DC     		bgt	.L162
 530:Task/Task_Protocol.c **** 
 2671              		.loc 1 530 21 is_stmt 1 view .LVU749
 530:Task/Task_Protocol.c **** 
 2672              		.loc 1 530 31 is_stmt 0 view .LVU750
 2673 00f2 284B     		ldr	r3, .L185+4
 2674 00f4 9B68     		ldr	r3, [r3, #8]
 530:Task/Task_Protocol.c **** 
 2675              		.loc 1 530 21 view .LVU751
 2676 00f6 0120     		movs	r0, #1
 2677 00f8 9847     		blx	r3
 2678              	.LVL197:
 532:Task/Task_Protocol.c ****                     CLI_Monitor.port_addr = p_RecObj->PortObj_addr;
 2679              		.loc 1 532 21 is_stmt 1 view .LVU752
 532:Task/Task_Protocol.c ****                     CLI_Monitor.port_addr = p_RecObj->PortObj_addr;
 2680              		.loc 1 532 48 is_stmt 0 view .LVU753
 2681 00fa 3278     		ldrb	r2, [r6]	@ zero_extendqisi2
 532:Task/Task_Protocol.c ****                     CLI_Monitor.port_addr = p_RecObj->PortObj_addr;
 2682              		.loc 1 532 38 view .LVU754
 2683 00fc 2D4B     		ldr	r3, .L185+36
 2684 00fe 1A70     		strb	r2, [r3]
 533:Task/Task_Protocol.c ****                     memcpy(CLI_Monitor.p_rx_stream->p_buf + CLI_Monitor.p_rx_stream->size, stream_i
 2685              		.loc 1 533 21 is_stmt 1 view .LVU755
 533:Task/Task_Protocol.c ****                     memcpy(CLI_Monitor.p_rx_stream->p_buf + CLI_Monitor.p_rx_stream->size, stream_i
 2686              		.loc 1 533 53 is_stmt 0 view .LVU756
 2687 0100 7268     		ldr	r2, [r6, #4]
 533:Task/Task_Protocol.c ****                     memcpy(CLI_Monitor.p_rx_stream->p_buf + CLI_Monitor.p_rx_stream->size, stream_i
 2688              		.loc 1 533 43 view .LVU757
 2689 0102 5A60     		str	r2, [r3, #4]
 534:Task/Task_Protocol.c ****                     CLI_Monitor.p_rx_stream->size += p_stream->size;
 2690              		.loc 1 534 21 is_stmt 1 view .LVU758
 534:Task/Task_Protocol.c ****                     CLI_Monitor.p_rx_stream->size += p_stream->size;
 2691              		.loc 1 534 39 is_stmt 0 view .LVU759
 2692 0104 9C68     		ldr	r4, [r3, #8]
 534:Task/Task_Protocol.c ****                     CLI_Monitor.p_rx_stream->size += p_stream->size;
 2693              		.loc 1 534 51 view .LVU760
 2694 0106 2068     		ldr	r0, [r4]
 534:Task/Task_Protocol.c ****                     CLI_Monitor.p_rx_stream->size += p_stream->size;
ARM GAS  C:\Users\8bit\AppData\Local\Temp\ccqwqzi2.s 			page 76


 2695              		.loc 1 534 84 view .LVU761
 2696 0108 A388     		ldrh	r3, [r4, #4]
 534:Task/Task_Protocol.c ****                     CLI_Monitor.p_rx_stream->size += p_stream->size;
 2697              		.loc 1 534 21 view .LVU762
 2698 010a BDF80C20 		ldrh	r2, [sp, #12]
 2699 010e 0299     		ldr	r1, [sp, #8]
 2700 0110 1844     		add	r0, r0, r3
 2701 0112 FFF7FEFF 		bl	memcpy
 2702              	.LVL198:
 535:Task/Task_Protocol.c **** 
 2703              		.loc 1 535 21 is_stmt 1 view .LVU763
 535:Task/Task_Protocol.c **** 
 2704              		.loc 1 535 62 is_stmt 0 view .LVU764
 2705 0116 BB88     		ldrh	r3, [r7, #4]
 535:Task/Task_Protocol.c **** 
 2706              		.loc 1 535 51 view .LVU765
 2707 0118 A288     		ldrh	r2, [r4, #4]
 2708 011a 1344     		add	r3, r3, r2
 2709 011c A380     		strh	r3, [r4, #4]	@ movhi
 538:Task/Task_Protocol.c ****                     memset(p_stream->p_buf, 0, p_stream->size);
 2710              		.loc 1 538 21 is_stmt 1 view .LVU766
 538:Task/Task_Protocol.c ****                     memset(p_stream->p_buf, 0, p_stream->size);
 2711              		.loc 1 538 36 is_stmt 0 view .LVU767
 2712 011e 0023     		movs	r3, #0
 2713 0120 BB80     		strh	r3, [r7, #4]	@ movhi
 539:Task/Task_Protocol.c ****                 }
 2714              		.loc 1 539 21 is_stmt 1 view .LVU768
 2715 0122 88E7     		b	.L162
 2716              	.LVL199:
 2717              	.L179:
 457:Task/Task_Protocol.c ****                 InUsePort_MavMsgInput_Obj = &RadioPort_MavMsgInput_Obj;
 2718              		.loc 1 457 26 is_stmt 0 view .LVU769
 2719 0124 214F     		ldr	r7, .L185+28
 2720 0126 ADE7     		b	.L167
 2721              	.LVL200:
 2722              	.L168:
 475:Task/Task_Protocol.c ****             p_stream->size = 0;
 2723              		.loc 1 475 13 is_stmt 1 view .LVU770
 2724 0128 1A46     		mov	r2, r3
 2725 012a 0021     		movs	r1, #0
 2726 012c 3868     		ldr	r0, [r7]
 2727 012e FFF7FEFF 		bl	memset
 2728              	.LVL201:
 476:Task/Task_Protocol.c ****             return;
 2729              		.loc 1 476 13 view .LVU771
 476:Task/Task_Protocol.c ****             return;
 2730              		.loc 1 476 28 is_stmt 0 view .LVU772
 2731 0132 0023     		movs	r3, #0
 2732 0134 BB80     		strh	r3, [r7, #4]	@ movhi
 477:Task/Task_Protocol.c ****         }
 2733              		.loc 1 477 13 is_stmt 1 view .LVU773
 2734 0136 7EE7     		b	.L162
 2735              	.L169:
 482:Task/Task_Protocol.c ****         {
 2736              		.loc 1 482 58 is_stmt 0 discriminator 1 view .LVU774
 2737 0138 194A     		ldr	r2, .L185+16
 2738 013a 1169     		ldr	r1, [r2, #16]
ARM GAS  C:\Users\8bit\AppData\Local\Temp\ccqwqzi2.s 			page 77


 482:Task/Task_Protocol.c ****         {
 2739              		.loc 1 482 80 discriminator 1 view .LVU775
 2740 013c 7268     		ldr	r2, [r6, #4]
 482:Task/Task_Protocol.c ****         {
 2741              		.loc 1 482 39 discriminator 1 view .LVU776
 2742 013e 9142     		cmp	r1, r2
 2743 0140 B3D1     		bne	.L170
 484:Task/Task_Protocol.c ****             {
 2744              		.loc 1 484 13 is_stmt 1 view .LVU777
 484:Task/Task_Protocol.c ****             {
 2745              		.loc 1 484 27 is_stmt 0 view .LVU778
 2746 0142 1D4B     		ldr	r3, .L185+40
 2747 0144 5C69     		ldr	r4, [r3, #20]
 2748              	.LVL202:
 484:Task/Task_Protocol.c ****             {
 2749              		.loc 1 484 49 view .LVU779
 2750 0146 144B     		ldr	r3, .L185+8
 2751 0148 1B68     		ldr	r3, [r3]
 484:Task/Task_Protocol.c ****             {
 2752              		.loc 1 484 17 view .LVU780
 2753 014a 9847     		blx	r3
 2754              	.LVL203:
 2755 014c BA88     		ldrh	r2, [r7, #4]
 2756 014e 3968     		ldr	r1, [r7]
 2757 0150 A047     		blx	r4
 2758              	.LVL204:
 484:Task/Task_Protocol.c ****             {
 2759              		.loc 1 484 16 view .LVU781
 2760 0152 0028     		cmp	r0, #0
 2761 0154 3FF46FAF 		beq	.L162
 486:Task/Task_Protocol.c ****                 p_stream->size = 0;
 2762              		.loc 1 486 17 is_stmt 1 view .LVU782
 2763 0158 FA88     		ldrh	r2, [r7, #6]
 2764 015a 0021     		movs	r1, #0
 2765 015c 3868     		ldr	r0, [r7]
 2766 015e FFF7FEFF 		bl	memset
 2767              	.LVL205:
 487:Task/Task_Protocol.c ****             }
 2768              		.loc 1 487 17 view .LVU783
 487:Task/Task_Protocol.c ****             }
 2769              		.loc 1 487 32 is_stmt 0 view .LVU784
 2770 0162 0023     		movs	r3, #0
 2771 0164 BB80     		strh	r3, [r7, #4]	@ movhi
 490:Task/Task_Protocol.c ****         }
 2772              		.loc 1 490 13 is_stmt 1 view .LVU785
 2773 0166 66E7     		b	.L162
 2774              	.L184:
 511:Task/Task_Protocol.c ****                     {
 2775              		.loc 1 511 21 view .LVU786
 511:Task/Task_Protocol.c ****                     {
 2776              		.loc 1 511 33 is_stmt 0 view .LVU787
 2777 0168 BA88     		ldrh	r2, [r7, #4]
 511:Task/Task_Protocol.c ****                     {
 2778              		.loc 1 511 51 view .LVU788
 2779 016a BDF80C40 		ldrh	r4, [sp, #12]
 511:Task/Task_Protocol.c ****                     {
 2780              		.loc 1 511 24 view .LVU789
ARM GAS  C:\Users\8bit\AppData\Local\Temp\ccqwqzi2.s 			page 78


 2781 016e A242     		cmp	r2, r4
 2782 0170 09D9     		bls	.L173
 513:Task/Task_Protocol.c ****                     }
 2783              		.loc 1 513 25 is_stmt 1 view .LVU790
 2784 0172 121B     		subs	r2, r2, r4
 2785 0174 0299     		ldr	r1, [sp, #8]
 2786 0176 2144     		add	r1, r1, r4
 2787 0178 3868     		ldr	r0, [r7]
 2788 017a FFF7FEFF 		bl	memmove
 2789              	.LVL206:
 2790              	.L174:
 518:Task/Task_Protocol.c ****                 }
 2791              		.loc 1 518 21 view .LVU791
 518:Task/Task_Protocol.c ****                 }
 2792              		.loc 1 518 36 is_stmt 0 view .LVU792
 2793 017e BB88     		ldrh	r3, [r7, #4]
 2794 0180 1B1B     		subs	r3, r3, r4
 2795 0182 BB80     		strh	r3, [r7, #4]	@ movhi
 2796 0184 A3E7     		b	.L172
 2797              	.L173:
 516:Task/Task_Protocol.c **** 
 2798              		.loc 1 516 25 is_stmt 1 view .LVU793
 2799 0186 0021     		movs	r1, #0
 2800 0188 3868     		ldr	r0, [r7]
 2801 018a FFF7FEFF 		bl	memset
 2802              	.LVL207:
 2803 018e F6E7     		b	.L174
 2804              	.L186:
 2805              		.align	2
 2806              	.L185:
 2807 0190 00000000 		.word	.LANCHOR26
 2808 0194 00000000 		.word	SrvDataHub
 2809 0198 00000000 		.word	SrvOsCommon
 2810 019c 00000000 		.word	.LANCHOR20
 2811 01a0 00000000 		.word	.LANCHOR1
 2812 01a4 00000000 		.word	.LANCHOR24
 2813 01a8 00000000 		.word	.LANCHOR21
 2814 01ac 00000000 		.word	.LANCHOR25
 2815 01b0 00000000 		.word	SrvComProto
 2816 01b4 00000000 		.word	.LANCHOR22
 2817 01b8 00000000 		.word	SrvUpgrade
 2818              		.cfi_endproc
 2819              	.LFE2081:
 2821              		.section	.text.TaskFrameCTL_Port_TxCplt_Callback,"ax",%progbits
 2822              		.align	1
 2823              		.syntax unified
 2824              		.thumb
 2825              		.thumb_func
 2827              	TaskFrameCTL_Port_TxCplt_Callback:
 2828              	.LVL208:
 2829              	.LFB2082:
 547:Task/Task_Protocol.c ****     UNUSED(p_data);
 2830              		.loc 1 547 1 view -0
 2831              		.cfi_startproc
 2832              		@ args = 0, pretend = 0, frame = 0
 2833              		@ frame_needed = 0, uses_anonymous_args = 0
 548:Task/Task_Protocol.c ****     UNUSED(size);
ARM GAS  C:\Users\8bit\AppData\Local\Temp\ccqwqzi2.s 			page 79


 2834              		.loc 1 548 5 view .LVU795
 549:Task/Task_Protocol.c **** 
 2835              		.loc 1 549 5 view .LVU796
 551:Task/Task_Protocol.c ****     FrameCTL_UartPortMonitor_TypeDef *p_UartPortObj = NULL;
 2836              		.loc 1 551 5 view .LVU797
 552:Task/Task_Protocol.c ****     FrameCTL_VCPPortMonitor_TypeDef *p_USBPortObj = NULL;
 2837              		.loc 1 552 5 view .LVU798
 553:Task/Task_Protocol.c ****     osSemaphoreId semID = NULL;
 2838              		.loc 1 553 5 view .LVU799
 554:Task/Task_Protocol.c ****     uint32_t *p_rls_err_cnt = NULL;
 2839              		.loc 1 554 5 view .LVU800
 555:Task/Task_Protocol.c **** 
 2840              		.loc 1 555 5 view .LVU801
 557:Task/Task_Protocol.c ****     {
 2841              		.loc 1 557 5 view .LVU802
 557:Task/Task_Protocol.c ****     {
 2842              		.loc 1 557 7 is_stmt 0 view .LVU803
 2843 0000 18B3     		cbz	r0, .L193
 547:Task/Task_Protocol.c ****     UNUSED(p_data);
 2844              		.loc 1 547 1 view .LVU804
 2845 0002 10B5     		push	{r4, lr}
 2846              	.LCFI51:
 2847              		.cfi_def_cfa_offset 8
 2848              		.cfi_offset 4, -8
 2849              		.cfi_offset 14, -4
 559:Task/Task_Protocol.c **** 
 2850              		.loc 1 559 9 is_stmt 1 view .LVU805
 2851              	.LVL209:
 561:Task/Task_Protocol.c ****         {
 2852              		.loc 1 561 9 view .LVU806
 561:Task/Task_Protocol.c ****         {
 2853              		.loc 1 561 17 is_stmt 0 view .LVU807
 2854 0004 4468     		ldr	r4, [r0, #4]
 561:Task/Task_Protocol.c ****         {
 2855              		.loc 1 561 11 view .LVU808
 2856 0006 24B1     		cbz	r4, .L187
 563:Task/Task_Protocol.c ****             {
 2857              		.loc 1 563 13 is_stmt 1 view .LVU809
 563:Task/Task_Protocol.c ****             {
 2858              		.loc 1 563 35 is_stmt 0 view .LVU810
 2859 0008 0378     		ldrb	r3, [r0]	@ zero_extendqisi2
 563:Task/Task_Protocol.c ****             {
 2860              		.loc 1 563 13 view .LVU811
 2861 000a 012B     		cmp	r3, #1
 2862 000c 02D0     		beq	.L189
 2863 000e 022B     		cmp	r3, #2
 2864 0010 13D0     		beq	.L190
 2865              	.LVL210:
 2866              	.L187:
 593:Task/Task_Protocol.c **** 
 2867              		.loc 1 593 1 view .LVU812
 2868 0012 10BD     		pop	{r4, pc}
 2869              	.LVL211:
 2870              	.L189:
 566:Task/Task_Protocol.c **** 
 2871              		.loc 1 566 21 is_stmt 1 view .LVU813
 568:Task/Task_Protocol.c ****                     {
ARM GAS  C:\Users\8bit\AppData\Local\Temp\ccqwqzi2.s 			page 80


 2872              		.loc 1 568 21 view .LVU814
 568:Task/Task_Protocol.c ****                     {
 2873              		.loc 1 568 36 is_stmt 0 view .LVU815
 2874 0014 2378     		ldrb	r3, [r4]	@ zero_extendqisi2
 568:Task/Task_Protocol.c ****                     {
 2875              		.loc 1 568 23 view .LVU816
 2876 0016 002B     		cmp	r3, #0
 2877 0018 FBD0     		beq	.L187
 568:Task/Task_Protocol.c ****                     {
 2878              		.loc 1 568 64 discriminator 1 view .LVU817
 2879 001a 2069     		ldr	r0, [r4, #16]
 2880              	.LVL212:
 568:Task/Task_Protocol.c ****                     {
 2881              		.loc 1 568 49 discriminator 1 view .LVU818
 2882 001c 0028     		cmp	r0, #0
 2883 001e F8D0     		beq	.L187
 570:Task/Task_Protocol.c ****                         p_rls_err_cnt = &p_USBPortObj->tx_semphr_rls_err;
 2884              		.loc 1 570 25 is_stmt 1 view .LVU819
 2885              	.LVL213:
 571:Task/Task_Protocol.c ****                     }
 2886              		.loc 1 571 25 view .LVU820
 571:Task/Task_Protocol.c ****                     }
 2887              		.loc 1 571 39 is_stmt 0 view .LVU821
 2888 0020 1434     		adds	r4, r4, #20
 2889              	.LVL214:
 2890              	.L191:
 589:Task/Task_Protocol.c ****                 (*p_rls_err_cnt) ++;
 2891              		.loc 1 589 13 is_stmt 1 view .LVU822
 589:Task/Task_Protocol.c ****                 (*p_rls_err_cnt) ++;
 2892              		.loc 1 589 15 is_stmt 0 view .LVU823
 2893 0022 0028     		cmp	r0, #0
 2894 0024 F5D0     		beq	.L187
 589:Task/Task_Protocol.c ****                 (*p_rls_err_cnt) ++;
 2895              		.loc 1 589 22 discriminator 1 view .LVU824
 2896 0026 002C     		cmp	r4, #0
 2897 0028 F3D0     		beq	.L187
 589:Task/Task_Protocol.c ****                 (*p_rls_err_cnt) ++;
 2898              		.loc 1 589 43 discriminator 2 view .LVU825
 2899 002a FFF7FEFF 		bl	osSemaphoreRelease
 2900              	.LVL215:
 589:Task/Task_Protocol.c ****                 (*p_rls_err_cnt) ++;
 2901              		.loc 1 589 39 discriminator 2 view .LVU826
 2902 002e 0028     		cmp	r0, #0
 2903 0030 EFD0     		beq	.L187
 590:Task/Task_Protocol.c ****         }
 2904              		.loc 1 590 17 is_stmt 1 view .LVU827
 590:Task/Task_Protocol.c ****         }
 2905              		.loc 1 590 18 is_stmt 0 view .LVU828
 2906 0032 2368     		ldr	r3, [r4]
 590:Task/Task_Protocol.c ****         }
 2907              		.loc 1 590 34 view .LVU829
 2908 0034 0133     		adds	r3, r3, #1
 2909 0036 2360     		str	r3, [r4]
 2910              	.LVL216:
 590:Task/Task_Protocol.c ****         }
 2911              		.loc 1 590 34 view .LVU830
 2912 0038 EBE7     		b	.L187
ARM GAS  C:\Users\8bit\AppData\Local\Temp\ccqwqzi2.s 			page 81


 2913              	.LVL217:
 2914              	.L190:
 576:Task/Task_Protocol.c **** 
 2915              		.loc 1 576 21 is_stmt 1 view .LVU831
 578:Task/Task_Protocol.c ****                     {
 2916              		.loc 1 578 21 view .LVU832
 578:Task/Task_Protocol.c ****                     {
 2917              		.loc 1 578 37 is_stmt 0 view .LVU833
 2918 003a 2378     		ldrb	r3, [r4]	@ zero_extendqisi2
 578:Task/Task_Protocol.c ****                     {
 2919              		.loc 1 578 23 view .LVU834
 2920 003c 002B     		cmp	r3, #0
 2921 003e E8D0     		beq	.L187
 578:Task/Task_Protocol.c ****                     {
 2922              		.loc 1 578 66 discriminator 1 view .LVU835
 2923 0040 A069     		ldr	r0, [r4, #24]
 2924              	.LVL218:
 578:Task/Task_Protocol.c ****                     {
 2925              		.loc 1 578 50 discriminator 1 view .LVU836
 2926 0042 0028     		cmp	r0, #0
 2927 0044 E5D0     		beq	.L187
 580:Task/Task_Protocol.c ****                         p_rls_err_cnt = &p_UartPortObj->tx_semphr_rls_err;
 2928              		.loc 1 580 25 is_stmt 1 view .LVU837
 2929              	.LVL219:
 581:Task/Task_Protocol.c ****                     }
 2930              		.loc 1 581 25 view .LVU838
 581:Task/Task_Protocol.c ****                     }
 2931              		.loc 1 581 39 is_stmt 0 view .LVU839
 2932 0046 1C34     		adds	r4, r4, #28
 2933              	.LVL220:
 581:Task/Task_Protocol.c ****                     }
 2934              		.loc 1 581 39 view .LVU840
 2935 0048 EBE7     		b	.L191
 2936              	.LVL221:
 2937              	.L193:
 2938              	.LCFI52:
 2939              		.cfi_def_cfa_offset 0
 2940              		.cfi_restore 4
 2941              		.cfi_restore 14
 581:Task/Task_Protocol.c ****                     }
 2942              		.loc 1 581 39 view .LVU841
 2943 004a 7047     		bx	lr
 2944              		.cfi_endproc
 2945              	.LFE2082:
 2947              		.section	.text.TaskFrameCTL_ConfigureStateCheck,"ax",%progbits
 2948              		.align	1
 2949              		.syntax unified
 2950              		.thumb
 2951              		.thumb_func
 2953              	TaskFrameCTL_ConfigureStateCheck:
 2954              	.LFB2091:
 937:Task/Task_Protocol.c ****     uint32_t tunning_time_stamp = 0;
 2955              		.loc 1 937 1 is_stmt 1 view -0
 2956              		.cfi_startproc
 2957              		@ args = 0, pretend = 0, frame = 8
 2958              		@ frame_needed = 0, uses_anonymous_args = 0
 2959 0000 00B5     		push	{lr}
ARM GAS  C:\Users\8bit\AppData\Local\Temp\ccqwqzi2.s 			page 82


 2960              	.LCFI53:
 2961              		.cfi_def_cfa_offset 4
 2962              		.cfi_offset 14, -4
 2963 0002 83B0     		sub	sp, sp, #12
 2964              	.LCFI54:
 2965              		.cfi_def_cfa_offset 16
 938:Task/Task_Protocol.c ****     uint32_t tunning_port = 0;
 2966              		.loc 1 938 5 view .LVU843
 2967              	.LVL222:
 939:Task/Task_Protocol.c ****     bool tunning_state = false;
 2968              		.loc 1 939 5 view .LVU844
 940:Task/Task_Protocol.c ****     uint32_t cur_time = SrvOsCommon.get_os_ms();
 2969              		.loc 1 940 5 view .LVU845
 941:Task/Task_Protocol.c ****     bool lst_vcp_state = false;
 2970              		.loc 1 941 5 view .LVU846
 941:Task/Task_Protocol.c ****     bool lst_vcp_state = false;
 2971              		.loc 1 941 36 is_stmt 0 view .LVU847
 2972 0004 124B     		ldr	r3, .L201
 2973 0006 1B68     		ldr	r3, [r3]
 941:Task/Task_Protocol.c ****     bool lst_vcp_state = false;
 2974              		.loc 1 941 25 view .LVU848
 2975 0008 9847     		blx	r3
 2976              	.LVL223:
 942:Task/Task_Protocol.c **** 
 2977              		.loc 1 942 5 is_stmt 1 view .LVU849
 942:Task/Task_Protocol.c **** 
 2978              		.loc 1 942 10 is_stmt 0 view .LVU850
 2979 000a 0023     		movs	r3, #0
 2980 000c 8DF80730 		strb	r3, [sp, #7]
 944:Task/Task_Protocol.c **** 
 2981              		.loc 1 944 5 is_stmt 1 view .LVU851
 944:Task/Task_Protocol.c **** 
 2982              		.loc 1 944 35 is_stmt 0 view .LVU852
 2983 0010 104A     		ldr	r2, .L201+4
 2984 0012 5370     		strb	r3, [r2, #1]
 947:Task/Task_Protocol.c ****         PortMonitor.vcp_connect_state = BspUSB_VCP.check_connect(cur_time, FrameCTL_Period);
 2985              		.loc 1 947 5 is_stmt 1 view .LVU853
 947:Task/Task_Protocol.c ****         PortMonitor.vcp_connect_state = BspUSB_VCP.check_connect(cur_time, FrameCTL_Period);
 2986              		.loc 1 947 19 is_stmt 0 view .LVU854
 2987 0014 104B     		ldr	r3, .L201+8
 2988 0016 DB69     		ldr	r3, [r3, #28]
 947:Task/Task_Protocol.c ****         PortMonitor.vcp_connect_state = BspUSB_VCP.check_connect(cur_time, FrameCTL_Period);
 2989              		.loc 1 947 8 view .LVU855
 2990 0018 23B1     		cbz	r3, .L197
 948:Task/Task_Protocol.c **** 
 2991              		.loc 1 948 9 is_stmt 1 view .LVU856
 948:Task/Task_Protocol.c **** 
 2992              		.loc 1 948 41 is_stmt 0 view .LVU857
 2993 001a 104A     		ldr	r2, .L201+12
 2994 001c 1168     		ldr	r1, [r2]
 2995 001e 9847     		blx	r3
 2996              	.LVL224:
 948:Task/Task_Protocol.c **** 
 2997              		.loc 1 948 39 view .LVU858
 2998 0020 0C4B     		ldr	r3, .L201+4
 2999 0022 5870     		strb	r0, [r3, #1]
 3000              	.L197:
ARM GAS  C:\Users\8bit\AppData\Local\Temp\ccqwqzi2.s 			page 83


 950:Task/Task_Protocol.c **** 
 3001              		.loc 1 950 5 is_stmt 1 view .LVU859
 950:Task/Task_Protocol.c **** 
 3002              		.loc 1 950 15 is_stmt 0 view .LVU860
 3003 0024 0E4B     		ldr	r3, .L201+16
 3004 0026 9B69     		ldr	r3, [r3, #24]
 950:Task/Task_Protocol.c **** 
 3005              		.loc 1 950 5 view .LVU861
 3006 0028 0DF10700 		add	r0, sp, #7
 3007 002c 9847     		blx	r3
 3008              	.LVL225:
 953:Task/Task_Protocol.c ****     {
 3009              		.loc 1 953 5 is_stmt 1 view .LVU862
 953:Task/Task_Protocol.c ****     {
 3010              		.loc 1 953 37 is_stmt 0 view .LVU863
 3011 002e 094B     		ldr	r3, .L201+4
 3012 0030 5B78     		ldrb	r3, [r3, #1]	@ zero_extendqisi2
 953:Task/Task_Protocol.c ****     {
 3013              		.loc 1 953 23 view .LVU864
 3014 0032 9DF80720 		ldrb	r2, [sp, #7]	@ zero_extendqisi2
 953:Task/Task_Protocol.c ****     {
 3015              		.loc 1 953 8 view .LVU865
 3016 0036 9342     		cmp	r3, r2
 3017 0038 02D1     		bne	.L200
 3018              	.L196:
 958:Task/Task_Protocol.c **** 
 3019              		.loc 1 958 1 view .LVU866
 3020 003a 03B0     		add	sp, sp, #12
 3021              	.LCFI55:
 3022              		.cfi_remember_state
 3023              		.cfi_def_cfa_offset 4
 3024              		@ sp needed
 3025 003c 5DF804FB 		ldr	pc, [sp], #4
 3026              	.L200:
 3027              	.LCFI56:
 3028              		.cfi_restore_state
 955:Task/Task_Protocol.c ****         DataPipe_SendTo(&VCP_Connect_smp_DataPipe, &VCP_Connect_hub_DataPipe);
 3029              		.loc 1 955 9 is_stmt 1 view .LVU867
 955:Task/Task_Protocol.c ****         DataPipe_SendTo(&VCP_Connect_smp_DataPipe, &VCP_Connect_hub_DataPipe);
 3030              		.loc 1 955 44 is_stmt 0 view .LVU868
 3031 0040 084A     		ldr	r2, .L201+20
 3032 0042 1370     		strb	r3, [r2]
 956:Task/Task_Protocol.c ****     }
 3033              		.loc 1 956 9 is_stmt 1 view .LVU869
 3034 0044 0849     		ldr	r1, .L201+24
 3035 0046 0948     		ldr	r0, .L201+28
 3036 0048 FFF7FEFF 		bl	DataPipe_SendTo
 3037              	.LVL226:
 958:Task/Task_Protocol.c **** 
 3038              		.loc 1 958 1 is_stmt 0 view .LVU870
 3039 004c F5E7     		b	.L196
 3040              	.L202:
 3041 004e 00BF     		.align	2
 3042              	.L201:
 3043 0050 00000000 		.word	SrvOsCommon
 3044 0054 00000000 		.word	.LANCHOR0
 3045 0058 00000000 		.word	BspUSB_VCP
ARM GAS  C:\Users\8bit\AppData\Local\Temp\ccqwqzi2.s 			page 84


 3046 005c 00000000 		.word	.LANCHOR27
 3047 0060 00000000 		.word	SrvDataHub
 3048 0064 00000000 		.word	.LANCHOR28
 3049 0068 00000000 		.word	VCP_Connect_hub_DataPipe
 3050 006c 00000000 		.word	VCP_Connect_smp_DataPipe
 3051              		.cfi_endproc
 3052              	.LFE2091:
 3054              		.section	.text.TaskFrameCTL_CLI_Proc,"ax",%progbits
 3055              		.align	1
 3056              		.syntax unified
 3057              		.thumb
 3058              		.thumb_func
 3060              	TaskFrameCTL_CLI_Proc:
 3061              	.LFB2089:
 892:Task/Task_Protocol.c ****     uint16_t rx_stream_size = 0;
 3062              		.loc 1 892 1 is_stmt 1 view -0
 3063              		.cfi_startproc
 3064              		@ args = 0, pretend = 0, frame = 8
 3065              		@ frame_needed = 0, uses_anonymous_args = 0
 3066 0000 F0B5     		push	{r4, r5, r6, r7, lr}
 3067              	.LCFI57:
 3068              		.cfi_def_cfa_offset 20
 3069              		.cfi_offset 4, -20
 3070              		.cfi_offset 5, -16
 3071              		.cfi_offset 6, -12
 3072              		.cfi_offset 7, -8
 3073              		.cfi_offset 14, -4
 3074 0002 83B0     		sub	sp, sp, #12
 3075              	.LCFI58:
 3076              		.cfi_def_cfa_offset 32
 893:Task/Task_Protocol.c ****     bool arm_state;
 3077              		.loc 1 893 5 view .LVU872
 3078              	.LVL227:
 894:Task/Task_Protocol.c ****     Shell *shell_obj = Shell_GetInstence();
 3079              		.loc 1 894 5 view .LVU873
 895:Task/Task_Protocol.c **** 
 3080              		.loc 1 895 5 view .LVU874
 895:Task/Task_Protocol.c **** 
 3081              		.loc 1 895 24 is_stmt 0 view .LVU875
 3082 0004 FFF7FEFF 		bl	Shell_GetInstence
 3083              	.LVL228:
 898:Task/Task_Protocol.c ****     {
 3084              		.loc 1 898 5 is_stmt 1 view .LVU876
 898:Task/Task_Protocol.c ****     {
 3085              		.loc 1 898 7 is_stmt 0 view .LVU877
 3086 0008 10B3     		cbz	r0, .L203
 3087 000a 0646     		mov	r6, r0
 898:Task/Task_Protocol.c ****     {
 3088              		.loc 1 898 32 discriminator 1 view .LVU878
 3089 000c 114B     		ldr	r3, .L210
 3090 000e 9B68     		ldr	r3, [r3, #8]
 898:Task/Task_Protocol.c ****     {
 3091              		.loc 1 898 44 discriminator 1 view .LVU879
 3092 0010 1A68     		ldr	r2, [r3]
 898:Task/Task_Protocol.c ****     {
 3093              		.loc 1 898 18 discriminator 1 view .LVU880
 3094 0012 EAB1     		cbz	r2, .L203
ARM GAS  C:\Users\8bit\AppData\Local\Temp\ccqwqzi2.s 			page 85


 898:Task/Task_Protocol.c ****     {
 3095              		.loc 1 898 78 discriminator 2 view .LVU881
 3096 0014 9F88     		ldrh	r7, [r3, #4]
 898:Task/Task_Protocol.c ****     {
 3097              		.loc 1 898 52 discriminator 2 view .LVU882
 3098 0016 DFB1     		cbz	r7, .L203
 900:Task/Task_Protocol.c **** 
 3099              		.loc 1 900 9 is_stmt 1 view .LVU883
 3100              	.LVL229:
 903:Task/Task_Protocol.c ****         if (arm_state == DRONE_DISARM)
 3101              		.loc 1 903 9 view .LVU884
 903:Task/Task_Protocol.c ****         if (arm_state == DRONE_DISARM)
 3102              		.loc 1 903 19 is_stmt 0 view .LVU885
 3103 0018 0F4B     		ldr	r3, .L210+4
 3104 001a 5B6D     		ldr	r3, [r3, #84]
 903:Task/Task_Protocol.c ****         if (arm_state == DRONE_DISARM)
 3105              		.loc 1 903 9 view .LVU886
 3106 001c 0DF10700 		add	r0, sp, #7
 3107              	.LVL230:
 903:Task/Task_Protocol.c ****         if (arm_state == DRONE_DISARM)
 3108              		.loc 1 903 9 view .LVU887
 3109 0020 9847     		blx	r3
 3110              	.LVL231:
 904:Task/Task_Protocol.c ****             return;
 3111              		.loc 1 904 9 is_stmt 1 view .LVU888
 904:Task/Task_Protocol.c ****             return;
 3112              		.loc 1 904 23 is_stmt 0 view .LVU889
 3113 0022 9DF80730 		ldrb	r3, [sp, #7]	@ zero_extendqisi2
 904:Task/Task_Protocol.c ****             return;
 3114              		.loc 1 904 12 view .LVU890
 3115 0026 9BB1     		cbz	r3, .L203
 3116              	.LBB10:
 907:Task/Task_Protocol.c ****         {
 3117              		.loc 1 907 22 view .LVU891
 3118 0028 0024     		movs	r4, #0
 3119 002a 0FE0     		b	.L205
 3120              	.LVL232:
 3121              	.L207:
 909:Task/Task_Protocol.c ****             CLI_Monitor.p_rx_stream->p_buf[i] = 0;
 3122              		.loc 1 909 13 is_stmt 1 discriminator 3 view .LVU892
 909:Task/Task_Protocol.c ****             CLI_Monitor.p_rx_stream->p_buf[i] = 0;
 3123              		.loc 1 909 48 is_stmt 0 discriminator 3 view .LVU893
 3124 002c 094D     		ldr	r5, .L210
 3125 002e AB68     		ldr	r3, [r5, #8]
 909:Task/Task_Protocol.c ****             CLI_Monitor.p_rx_stream->p_buf[i] = 0;
 3126              		.loc 1 909 60 discriminator 3 view .LVU894
 3127 0030 1B68     		ldr	r3, [r3]
 909:Task/Task_Protocol.c ****             CLI_Monitor.p_rx_stream->p_buf[i] = 0;
 3128              		.loc 1 909 13 discriminator 3 view .LVU895
 3129 0032 195D     		ldrb	r1, [r3, r4]	@ zero_extendqisi2
 3130 0034 3046     		mov	r0, r6
 3131 0036 FFF7FEFF 		bl	shellHandler
 3132              	.LVL233:
 910:Task/Task_Protocol.c ****             CLI_Monitor.p_rx_stream->size --;
 3133              		.loc 1 910 13 is_stmt 1 discriminator 3 view .LVU896
 910:Task/Task_Protocol.c ****             CLI_Monitor.p_rx_stream->size --;
 3134              		.loc 1 910 24 is_stmt 0 discriminator 3 view .LVU897
ARM GAS  C:\Users\8bit\AppData\Local\Temp\ccqwqzi2.s 			page 86


 3135 003a AB68     		ldr	r3, [r5, #8]
 910:Task/Task_Protocol.c ****             CLI_Monitor.p_rx_stream->size --;
 3136              		.loc 1 910 36 discriminator 3 view .LVU898
 3137 003c 1A68     		ldr	r2, [r3]
 910:Task/Task_Protocol.c ****             CLI_Monitor.p_rx_stream->size --;
 3138              		.loc 1 910 47 discriminator 3 view .LVU899
 3139 003e 0021     		movs	r1, #0
 3140 0040 1155     		strb	r1, [r2, r4]
 911:Task/Task_Protocol.c ****         }
 3141              		.loc 1 911 13 is_stmt 1 discriminator 3 view .LVU900
 911:Task/Task_Protocol.c ****         }
 3142              		.loc 1 911 36 is_stmt 0 discriminator 3 view .LVU901
 3143 0042 9A88     		ldrh	r2, [r3, #4]
 911:Task/Task_Protocol.c ****         }
 3144              		.loc 1 911 43 discriminator 3 view .LVU902
 3145 0044 013A     		subs	r2, r2, #1
 3146 0046 9A80     		strh	r2, [r3, #4]	@ movhi
 907:Task/Task_Protocol.c ****         {
 3147              		.loc 1 907 49 is_stmt 1 discriminator 3 view .LVU903
 907:Task/Task_Protocol.c ****         {
 3148              		.loc 1 907 50 is_stmt 0 discriminator 3 view .LVU904
 3149 0048 0134     		adds	r4, r4, #1
 3150              	.LVL234:
 907:Task/Task_Protocol.c ****         {
 3151              		.loc 1 907 50 discriminator 3 view .LVU905
 3152 004a A4B2     		uxth	r4, r4
 3153              	.LVL235:
 3154              	.L205:
 907:Task/Task_Protocol.c ****         {
 3155              		.loc 1 907 29 is_stmt 1 discriminator 1 view .LVU906
 907:Task/Task_Protocol.c ****         {
 3156              		.loc 1 907 9 is_stmt 0 discriminator 1 view .LVU907
 3157 004c A742     		cmp	r7, r4
 3158 004e EDD8     		bhi	.L207
 3159              	.LVL236:
 3160              	.L203:
 907:Task/Task_Protocol.c ****         {
 3161              		.loc 1 907 9 discriminator 1 view .LVU908
 3162              	.LBE10:
 914:Task/Task_Protocol.c **** 
 3163              		.loc 1 914 1 view .LVU909
 3164 0050 03B0     		add	sp, sp, #12
 3165              	.LCFI59:
 3166              		.cfi_def_cfa_offset 20
 3167              		@ sp needed
 3168 0052 F0BD     		pop	{r4, r5, r6, r7, pc}
 3169              	.L211:
 3170              		.align	2
 3171              	.L210:
 3172 0054 00000000 		.word	.LANCHOR22
 3173 0058 00000000 		.word	SrvDataHub
 3174              		.cfi_endproc
 3175              	.LFE2089:
 3177              		.section	.rodata.TaskFrameCTL_Upgrade_StatePolling.str1.4,"aMS",%progbits,1
 3178              		.align	2
 3179              	.LC0:
 3180 0000 0D0A00   		.ascii	"\015\012\000"
ARM GAS  C:\Users\8bit\AppData\Local\Temp\ccqwqzi2.s 			page 87


 3181 0003 00       		.align	2
 3182              	.LC1:
 3183 0004 5B205570 		.ascii	"[ Upgrade ] Communicate time out\015\012\000"
 3183      67726164 
 3183      65205D20 
 3183      436F6D6D 
 3183      756E6963 
 3184 0027 00       		.align	2
 3185              	.LC2:
 3186 0028 5B205570 		.ascii	"[ Upgrade ] Error\015\012\000"
 3186      67726164 
 3186      65205D20 
 3186      4572726F 
 3186      720D0A00 
 3187              		.align	2
 3188              	.LC3:
 3189 003c 5B205570 		.ascii	"[ Upgrade ] Firmware Updating\015\012\000"
 3189      67726164 
 3189      65205D20 
 3189      4669726D 
 3189      77617265 
 3190              		.align	2
 3191              	.LC4:
 3192 005c 5B205570 		.ascii	"[ Upgrade ] DO NOT POWER OFF\015\012\000"
 3192      67726164 
 3192      65205D20 
 3192      444F204E 
 3192      4F542050 
 3193 007b 00       		.align	2
 3194              	.LC5:
 3195 007c 5B205570 		.ascii	"[ Upgrade Info ] %s\000"
 3195      67726164 
 3195      6520496E 
 3195      666F205D 
 3195      20257300 
 3196              		.section	.text.TaskFrameCTL_Upgrade_StatePolling,"ax",%progbits
 3197              		.align	1
 3198              		.syntax unified
 3199              		.thumb
 3200              		.thumb_func
 3202              	TaskFrameCTL_Upgrade_StatePolling:
 3203              	.LVL237:
 3204              	.LFB2086:
 675:Task/Task_Protocol.c ****     SrvUpgrade_Stage_List stage;
 3205              		.loc 1 675 1 is_stmt 1 view -0
 3206              		.cfi_startproc
 3207              		@ args = 0, pretend = 0, frame = 0
 3208              		@ frame_needed = 0, uses_anonymous_args = 0
 675:Task/Task_Protocol.c ****     SrvUpgrade_Stage_List stage;
 3209              		.loc 1 675 1 is_stmt 0 view .LVU911
 3210 0000 70B5     		push	{r4, r5, r6, lr}
 3211              	.LCFI60:
 3212              		.cfi_def_cfa_offset 16
 3213              		.cfi_offset 4, -16
 3214              		.cfi_offset 5, -12
 3215              		.cfi_offset 6, -8
 3216              		.cfi_offset 14, -4
ARM GAS  C:\Users\8bit\AppData\Local\Temp\ccqwqzi2.s 			page 88


 3217 0002 0546     		mov	r5, r0
 676:Task/Task_Protocol.c ****     uint32_t sys_time = SrvOsCommon.get_os_ms();
 3218              		.loc 1 676 5 is_stmt 1 view .LVU912
 677:Task/Task_Protocol.c ****     Shell *shell_obj = Shell_GetInstence();
 3219              		.loc 1 677 5 view .LVU913
 677:Task/Task_Protocol.c ****     Shell *shell_obj = Shell_GetInstence();
 3220              		.loc 1 677 36 is_stmt 0 view .LVU914
 3221 0004 334B     		ldr	r3, .L224
 3222 0006 1B68     		ldr	r3, [r3]
 677:Task/Task_Protocol.c ****     Shell *shell_obj = Shell_GetInstence();
 3223              		.loc 1 677 25 view .LVU915
 3224 0008 9847     		blx	r3
 3225              	.LVL238:
 677:Task/Task_Protocol.c ****     Shell *shell_obj = Shell_GetInstence();
 3226              		.loc 1 677 25 view .LVU916
 3227 000a 0446     		mov	r4, r0
 3228              	.LVL239:
 678:Task/Task_Protocol.c ****     uint16_t logout_size = 0;
 3229              		.loc 1 678 5 is_stmt 1 view .LVU917
 678:Task/Task_Protocol.c ****     uint16_t logout_size = 0;
 3230              		.loc 1 678 24 is_stmt 0 view .LVU918
 3231 000c FFF7FEFF 		bl	Shell_GetInstence
 3232              	.LVL240:
 678:Task/Task_Protocol.c ****     uint16_t logout_size = 0;
 3233              		.loc 1 678 24 view .LVU919
 3234 0010 0646     		mov	r6, r0
 3235              	.LVL241:
 679:Task/Task_Protocol.c **** 
 3236              		.loc 1 679 5 is_stmt 1 view .LVU920
 681:Task/Task_Protocol.c **** 
 3237              		.loc 1 681 5 view .LVU921
 681:Task/Task_Protocol.c **** 
 3238              		.loc 1 681 23 is_stmt 0 view .LVU922
 3239 0012 314B     		ldr	r3, .L224+4
 3240 0014 5B68     		ldr	r3, [r3, #4]
 681:Task/Task_Protocol.c **** 
 3241              		.loc 1 681 13 view .LVU923
 3242 0016 3149     		ldr	r1, .L224+8
 3243 0018 2046     		mov	r0, r4
 3244              	.LVL242:
 681:Task/Task_Protocol.c **** 
 3245              		.loc 1 681 13 view .LVU924
 3246 001a 9847     		blx	r3
 3247              	.LVL243:
 683:Task/Task_Protocol.c ****     {
 3248              		.loc 1 683 5 is_stmt 1 view .LVU925
 3249 001c 431E     		subs	r3, r0, #1
 3250 001e 072B     		cmp	r3, #7
 3251 0020 27D8     		bhi	.L212
 3252 0022 DFE803F0 		tbb	[pc, r3]
 3253              	.L215:
 3254 0026 27       		.byte	(.L218-.L215)/2
 3255 0027 26       		.byte	(.L212-.L215)/2
 3256 0028 0E       		.byte	(.L217-.L215)/2
 3257 0029 26       		.byte	(.L212-.L215)/2
 3258 002a 3F       		.byte	(.L216-.L215)/2
 3259 002b 26       		.byte	(.L212-.L215)/2
ARM GAS  C:\Users\8bit\AppData\Local\Temp\ccqwqzi2.s 			page 89


 3260 002c 26       		.byte	(.L212-.L215)/2
 3261 002d 04       		.byte	(.L214-.L215)/2
 3262              		.p2align 1
 3263              	.L214:
 686:Task/Task_Protocol.c ****                 shellPrint(shell_obj, "\r\n");
 3264              		.loc 1 686 13 view .LVU926
 686:Task/Task_Protocol.c ****                 shellPrint(shell_obj, "\r\n");
 3265              		.loc 1 686 16 is_stmt 0 view .LVU927
 3266 002e 25B1     		cbz	r5, .L219
 686:Task/Task_Protocol.c ****                 shellPrint(shell_obj, "\r\n");
 3267              		.loc 1 686 21 discriminator 1 view .LVU928
 3268 0030 1EB1     		cbz	r6, .L219
 687:Task/Task_Protocol.c ****                 shellPrint(shell_obj, "[ Upgrade ] Communicate time out\r\n");
 3269              		.loc 1 687 17 is_stmt 1 view .LVU929
 3270 0032 2B49     		ldr	r1, .L224+12
 3271 0034 3046     		mov	r0, r6
 3272              	.LVL244:
 687:Task/Task_Protocol.c ****                 shellPrint(shell_obj, "[ Upgrade ] Communicate time out\r\n");
 3273              		.loc 1 687 17 is_stmt 0 view .LVU930
 3274 0036 FFF7FEFF 		bl	shellPrint
 3275              	.LVL245:
 3276              	.L219:
 688:Task/Task_Protocol.c ****         case Stage_Adapter_Error:
 3277              		.loc 1 688 17 is_stmt 1 view .LVU931
 3278 003a 2A49     		ldr	r1, .L224+16
 3279 003c 3046     		mov	r0, r6
 3280 003e FFF7FEFF 		bl	shellPrint
 3281              	.LVL246:
 3282              	.L217:
 690:Task/Task_Protocol.c ****                 shellPrint(shell_obj, "[ Upgrade ] Error\r\n");
 3283              		.loc 1 690 13 view .LVU932
 690:Task/Task_Protocol.c ****                 shellPrint(shell_obj, "[ Upgrade ] Error\r\n");
 3284              		.loc 1 690 16 is_stmt 0 view .LVU933
 3285 0042 25B1     		cbz	r5, .L220
 690:Task/Task_Protocol.c ****                 shellPrint(shell_obj, "[ Upgrade ] Error\r\n");
 3286              		.loc 1 690 21 discriminator 1 view .LVU934
 3287 0044 1EB1     		cbz	r6, .L220
 691:Task/Task_Protocol.c ****             
 3288              		.loc 1 691 17 is_stmt 1 view .LVU935
 3289 0046 2849     		ldr	r1, .L224+20
 3290 0048 3046     		mov	r0, r6
 3291 004a FFF7FEFF 		bl	shellPrint
 3292              	.LVL247:
 3293              	.L220:
 693:Task/Task_Protocol.c ****             memset(&Upgrade_Monitor.file_info, 0, sizeof(Upgrade_Monitor.file_info));
 3294              		.loc 1 693 13 view .LVU936
 693:Task/Task_Protocol.c ****             memset(&Upgrade_Monitor.file_info, 0, sizeof(Upgrade_Monitor.file_info));
 3295              		.loc 1 693 39 is_stmt 0 view .LVU937
 3296 004e 274A     		ldr	r2, .L224+24
 3297 0050 0024     		movs	r4, #0
 3298              	.LVL248:
 693:Task/Task_Protocol.c ****             memset(&Upgrade_Monitor.file_info, 0, sizeof(Upgrade_Monitor.file_info));
 3299              		.loc 1 693 39 view .LVU938
 3300 0052 1346     		mov	r3, r2
 3301 0054 03F8044B 		strb	r4, [r3], #4
 694:Task/Task_Protocol.c ****             Upgrade_Monitor.port_addr = 0;
 3302              		.loc 1 694 13 is_stmt 1 view .LVU939
ARM GAS  C:\Users\8bit\AppData\Local\Temp\ccqwqzi2.s 			page 90


 3303 0058 5460     		str	r4, [r2, #4]
 3304 005a 5C60     		str	r4, [r3, #4]
 3305 005c 9C60     		str	r4, [r3, #8]
 695:Task/Task_Protocol.c ****             SrvOsCommon.enter_critical();
 3306              		.loc 1 695 13 view .LVU940
 695:Task/Task_Protocol.c ****             SrvOsCommon.enter_critical();
 3307              		.loc 1 695 39 is_stmt 0 view .LVU941
 3308 005e 1461     		str	r4, [r2, #16]
 696:Task/Task_Protocol.c ****             SrvDataHub.set_upgrade_state(false);
 3309              		.loc 1 696 13 is_stmt 1 view .LVU942
 696:Task/Task_Protocol.c ****             SrvDataHub.set_upgrade_state(false);
 3310              		.loc 1 696 24 is_stmt 0 view .LVU943
 3311 0060 1C4D     		ldr	r5, .L224
 3312 0062 2B6B     		ldr	r3, [r5, #48]
 696:Task/Task_Protocol.c ****             SrvDataHub.set_upgrade_state(false);
 3313              		.loc 1 696 13 view .LVU944
 3314 0064 9847     		blx	r3
 3315              	.LVL249:
 697:Task/Task_Protocol.c ****             SrvOsCommon.exit_critical();
 3316              		.loc 1 697 13 is_stmt 1 view .LVU945
 697:Task/Task_Protocol.c ****             SrvOsCommon.exit_critical();
 3317              		.loc 1 697 23 is_stmt 0 view .LVU946
 3318 0066 224B     		ldr	r3, .L224+28
 3319 0068 DB68     		ldr	r3, [r3, #12]
 697:Task/Task_Protocol.c ****             SrvOsCommon.exit_critical();
 3320              		.loc 1 697 13 view .LVU947
 3321 006a 2046     		mov	r0, r4
 3322 006c 9847     		blx	r3
 3323              	.LVL250:
 698:Task/Task_Protocol.c ****             break;
 3324              		.loc 1 698 13 is_stmt 1 view .LVU948
 698:Task/Task_Protocol.c ****             break;
 3325              		.loc 1 698 24 is_stmt 0 view .LVU949
 3326 006e 6B6B     		ldr	r3, [r5, #52]
 698:Task/Task_Protocol.c ****             break;
 3327              		.loc 1 698 13 view .LVU950
 3328 0070 9847     		blx	r3
 3329              	.LVL251:
 699:Task/Task_Protocol.c **** 
 3330              		.loc 1 699 13 is_stmt 1 view .LVU951
 3331              	.L212:
 731:Task/Task_Protocol.c **** 
 3332              		.loc 1 731 1 is_stmt 0 view .LVU952
 3333 0072 70BD     		pop	{r4, r5, r6, pc}
 3334              	.LVL252:
 3335              	.L218:
 702:Task/Task_Protocol.c ****             {
 3336              		.loc 1 702 13 is_stmt 1 view .LVU953
 702:Task/Task_Protocol.c ****             {
 3337              		.loc 1 702 16 is_stmt 0 view .LVU954
 3338 0074 7DB1     		cbz	r5, .L221
 702:Task/Task_Protocol.c ****             {
 3339              		.loc 1 702 21 discriminator 1 view .LVU955
 3340 0076 76B1     		cbz	r6, .L221
 704:Task/Task_Protocol.c ****                 shellPrint(shell_obj, "[ Upgrade ] Firmware Updating\r\n");
 3341              		.loc 1 704 17 is_stmt 1 view .LVU956
 704:Task/Task_Protocol.c ****                 shellPrint(shell_obj, "[ Upgrade ] Firmware Updating\r\n");
ARM GAS  C:\Users\8bit\AppData\Local\Temp\ccqwqzi2.s 			page 91


 3342              		.loc 1 704 28 is_stmt 0 view .LVU957
 3343 0078 164C     		ldr	r4, .L224
 3344              	.LVL253:
 704:Task/Task_Protocol.c ****                 shellPrint(shell_obj, "[ Upgrade ] Firmware Updating\r\n");
 3345              		.loc 1 704 28 view .LVU958
 3346 007a 6368     		ldr	r3, [r4, #4]
 704:Task/Task_Protocol.c ****                 shellPrint(shell_obj, "[ Upgrade ] Firmware Updating\r\n");
 3347              		.loc 1 704 17 view .LVU959
 3348 007c 0A20     		movs	r0, #10
 3349              	.LVL254:
 704:Task/Task_Protocol.c ****                 shellPrint(shell_obj, "[ Upgrade ] Firmware Updating\r\n");
 3350              		.loc 1 704 17 view .LVU960
 3351 007e 9847     		blx	r3
 3352              	.LVL255:
 705:Task/Task_Protocol.c ****                 shellPrint(shell_obj, "[ Upgrade ] DO NOT POWER OFF\r\n");
 3353              		.loc 1 705 17 is_stmt 1 view .LVU961
 3354 0080 1C49     		ldr	r1, .L224+32
 3355 0082 3046     		mov	r0, r6
 3356 0084 FFF7FEFF 		bl	shellPrint
 3357              	.LVL256:
 706:Task/Task_Protocol.c ****                 SrvOsCommon.delay_ms(20);
 3358              		.loc 1 706 17 view .LVU962
 3359 0088 1B49     		ldr	r1, .L224+36
 3360 008a 3046     		mov	r0, r6
 3361 008c FFF7FEFF 		bl	shellPrint
 3362              	.LVL257:
 707:Task/Task_Protocol.c ****             }
 3363              		.loc 1 707 17 view .LVU963
 707:Task/Task_Protocol.c ****             }
 3364              		.loc 1 707 28 is_stmt 0 view .LVU964
 3365 0090 6368     		ldr	r3, [r4, #4]
 707:Task/Task_Protocol.c ****             }
 3366              		.loc 1 707 17 view .LVU965
 3367 0092 1420     		movs	r0, #20
 3368 0094 9847     		blx	r3
 3369              	.LVL258:
 3370              	.L221:
 710:Task/Task_Protocol.c ****             SrvOsCommon.reboot();
 3371              		.loc 1 710 13 is_stmt 1 view .LVU966
 710:Task/Task_Protocol.c ****             SrvOsCommon.reboot();
 3372              		.loc 1 710 39 is_stmt 0 view .LVU967
 3373 0096 154B     		ldr	r3, .L224+24
 3374 0098 0022     		movs	r2, #0
 3375 009a 1A70     		strb	r2, [r3]
 711:Task/Task_Protocol.c ****             break;
 3376              		.loc 1 711 13 is_stmt 1 view .LVU968
 711:Task/Task_Protocol.c ****             break;
 3377              		.loc 1 711 24 is_stmt 0 view .LVU969
 3378 009c 0D4B     		ldr	r3, .L224
 3379 009e 5B6C     		ldr	r3, [r3, #68]
 711:Task/Task_Protocol.c ****             break;
 3380              		.loc 1 711 13 view .LVU970
 3381 00a0 9847     		blx	r3
 3382              	.LVL259:
 712:Task/Task_Protocol.c **** 
 3383              		.loc 1 712 13 is_stmt 1 view .LVU971
 3384 00a2 E6E7     		b	.L212
ARM GAS  C:\Users\8bit\AppData\Local\Temp\ccqwqzi2.s 			page 92


 3385              	.LVL260:
 3386              	.L216:
 715:Task/Task_Protocol.c ****             if (logout_size)
 3387              		.loc 1 715 13 view .LVU972
 715:Task/Task_Protocol.c ****             if (logout_size)
 3388              		.loc 1 715 37 is_stmt 0 view .LVU973
 3389 00a4 0C4B     		ldr	r3, .L224+4
 3390 00a6 DB68     		ldr	r3, [r3, #12]
 715:Task/Task_Protocol.c ****             if (logout_size)
 3391              		.loc 1 715 27 view .LVU974
 3392 00a8 4FF40071 		mov	r1, #512
 3393 00ac 1348     		ldr	r0, .L224+40
 3394              	.LVL261:
 715:Task/Task_Protocol.c ****             if (logout_size)
 3395              		.loc 1 715 27 view .LVU975
 3396 00ae 9847     		blx	r3
 3397              	.LVL262:
 716:Task/Task_Protocol.c ****             {
 3398              		.loc 1 716 13 is_stmt 1 view .LVU976
 716:Task/Task_Protocol.c ****             {
 3399              		.loc 1 716 16 is_stmt 0 view .LVU977
 3400 00b0 0028     		cmp	r0, #0
 3401 00b2 DED0     		beq	.L212
 718:Task/Task_Protocol.c ****                 {
 3402              		.loc 1 718 17 is_stmt 1 view .LVU978
 718:Task/Task_Protocol.c ****                 {
 3403              		.loc 1 718 20 is_stmt 0 view .LVU979
 3404 00b4 4DB1     		cbz	r5, .L222
 718:Task/Task_Protocol.c ****                 {
 3405              		.loc 1 718 25 discriminator 1 view .LVU980
 3406 00b6 46B1     		cbz	r6, .L222
 720:Task/Task_Protocol.c ****                     shellPrint(shell_obj, "[ Upgrade Info ] %s", CLIPrintBuf);
 3407              		.loc 1 720 21 is_stmt 1 view .LVU981
 720:Task/Task_Protocol.c ****                     shellPrint(shell_obj, "[ Upgrade Info ] %s", CLIPrintBuf);
 3408              		.loc 1 720 32 is_stmt 0 view .LVU982
 3409 00b8 064B     		ldr	r3, .L224
 3410 00ba 5B68     		ldr	r3, [r3, #4]
 720:Task/Task_Protocol.c ****                     shellPrint(shell_obj, "[ Upgrade Info ] %s", CLIPrintBuf);
 3411              		.loc 1 720 21 view .LVU983
 3412 00bc 0A20     		movs	r0, #10
 3413              	.LVL263:
 720:Task/Task_Protocol.c ****                     shellPrint(shell_obj, "[ Upgrade Info ] %s", CLIPrintBuf);
 3414              		.loc 1 720 21 view .LVU984
 3415 00be 9847     		blx	r3
 3416              	.LVL264:
 721:Task/Task_Protocol.c ****                 }
 3417              		.loc 1 721 21 is_stmt 1 view .LVU985
 3418 00c0 0E4A     		ldr	r2, .L224+40
 3419 00c2 0F49     		ldr	r1, .L224+44
 3420 00c4 3046     		mov	r0, r6
 3421 00c6 FFF7FEFF 		bl	shellPrint
 3422              	.LVL265:
 3423              	.L222:
 724:Task/Task_Protocol.c ****             }
 3424              		.loc 1 724 17 view .LVU986
 724:Task/Task_Protocol.c ****             }
 3425              		.loc 1 724 27 is_stmt 0 view .LVU987
ARM GAS  C:\Users\8bit\AppData\Local\Temp\ccqwqzi2.s 			page 93


 3426 00ca 034B     		ldr	r3, .L224+4
 3427 00cc 1B69     		ldr	r3, [r3, #16]
 724:Task/Task_Protocol.c ****             }
 3428              		.loc 1 724 17 view .LVU988
 3429 00ce 9847     		blx	r3
 3430              	.LVL266:
 731:Task/Task_Protocol.c **** 
 3431              		.loc 1 731 1 view .LVU989
 3432 00d0 CFE7     		b	.L212
 3433              	.L225:
 3434 00d2 00BF     		.align	2
 3435              	.L224:
 3436 00d4 00000000 		.word	SrvOsCommon
 3437 00d8 00000000 		.word	SrvUpgrade
 3438 00dc 00000000 		.word	TaskFrameCTL_Upgrade_Send
 3439 00e0 00000000 		.word	.LC0
 3440 00e4 04000000 		.word	.LC1
 3441 00e8 28000000 		.word	.LC2
 3442 00ec 00000000 		.word	.LANCHOR1
 3443 00f0 00000000 		.word	SrvDataHub
 3444 00f4 3C000000 		.word	.LC3
 3445 00f8 5C000000 		.word	.LC4
 3446 00fc 00000000 		.word	.LANCHOR29
 3447 0100 7C000000 		.word	.LC5
 3448              		.cfi_endproc
 3449              	.LFE2086:
 3451              		.section	.rodata.TaskFermeCTL_CLI_DisableControl.str1.4,"aMS",%progbits,1
 3452              		.align	2
 3453              	.LC6:
 3454 0000 0D0A0D0A 		.ascii	"\015\012\015\012\000"
 3454      00
 3455 0005 000000   		.align	2
 3456              	.LC7:
 3457 0008 5B20434C 		.ascii	"[ CLI Disabled ]\015\012\000"
 3457      49204469 
 3457      7361626C 
 3457      6564205D 
 3457      0D0A00
 3458              		.section	.text.TaskFermeCTL_CLI_DisableControl,"ax",%progbits
 3459              		.align	1
 3460              		.syntax unified
 3461              		.thumb
 3462              		.thumb_func
 3464              	TaskFermeCTL_CLI_DisableControl:
 3465              	.LFB2101:
1071:Task/Task_Protocol.c **** 
1072:Task/Task_Protocol.c **** static void TaskFermeCTL_CLI_DisableControl(void)
1073:Task/Task_Protocol.c **** {
 3466              		.loc 1 1073 1 is_stmt 1 view -0
 3467              		.cfi_startproc
 3468              		@ args = 0, pretend = 0, frame = 0
 3469              		@ frame_needed = 0, uses_anonymous_args = 0
 3470 0000 38B5     		push	{r3, r4, r5, lr}
 3471              	.LCFI61:
 3472              		.cfi_def_cfa_offset 16
 3473              		.cfi_offset 3, -16
 3474              		.cfi_offset 4, -12
ARM GAS  C:\Users\8bit\AppData\Local\Temp\ccqwqzi2.s 			page 94


 3475              		.cfi_offset 5, -8
 3476              		.cfi_offset 14, -4
1074:Task/Task_Protocol.c ****     Shell *shell_obj = Shell_GetInstence();
 3477              		.loc 1 1074 5 view .LVU991
 3478              		.loc 1 1074 24 is_stmt 0 view .LVU992
 3479 0002 FFF7FEFF 		bl	Shell_GetInstence
 3480              	.LVL267:
1075:Task/Task_Protocol.c ****     
1076:Task/Task_Protocol.c ****     if (shell_obj)
 3481              		.loc 1 1076 5 is_stmt 1 view .LVU993
 3482              		.loc 1 1076 8 is_stmt 0 view .LVU994
 3483 0006 98B1     		cbz	r0, .L226
 3484 0008 0446     		mov	r4, r0
1077:Task/Task_Protocol.c ****     {
1078:Task/Task_Protocol.c ****         shellPrint(shell_obj, "\r\n\r\n");
 3485              		.loc 1 1078 9 is_stmt 1 view .LVU995
 3486 000a 0A49     		ldr	r1, .L229
 3487 000c FFF7FEFF 		bl	shellPrint
 3488              	.LVL268:
1079:Task/Task_Protocol.c ****         
1080:Task/Task_Protocol.c ****         SrvOsCommon.enter_critical();
 3489              		.loc 1 1080 9 view .LVU996
 3490              		.loc 1 1080 20 is_stmt 0 view .LVU997
 3491 0010 094D     		ldr	r5, .L229+4
 3492 0012 2B6B     		ldr	r3, [r5, #48]
 3493              		.loc 1 1080 9 view .LVU998
 3494 0014 9847     		blx	r3
 3495              	.LVL269:
1081:Task/Task_Protocol.c ****         SrvDataHub.set_cli_state(false);
 3496              		.loc 1 1081 9 is_stmt 1 view .LVU999
 3497              		.loc 1 1081 19 is_stmt 0 view .LVU1000
 3498 0016 094B     		ldr	r3, .L229+8
 3499 0018 9B68     		ldr	r3, [r3, #8]
 3500              		.loc 1 1081 9 view .LVU1001
 3501 001a 0020     		movs	r0, #0
 3502 001c 9847     		blx	r3
 3503              	.LVL270:
1082:Task/Task_Protocol.c ****         SrvOsCommon.exit_critical();
 3504              		.loc 1 1082 9 is_stmt 1 view .LVU1002
 3505              		.loc 1 1082 20 is_stmt 0 view .LVU1003
 3506 001e 6B6B     		ldr	r3, [r5, #52]
 3507              		.loc 1 1082 9 view .LVU1004
 3508 0020 9847     		blx	r3
 3509              	.LVL271:
1083:Task/Task_Protocol.c **** 
1084:Task/Task_Protocol.c ****         shellPrint(shell_obj, "[ CLI Disabled ]\r\n");
 3510              		.loc 1 1084 9 is_stmt 1 view .LVU1005
 3511 0022 0749     		ldr	r1, .L229+12
 3512 0024 2046     		mov	r0, r4
 3513 0026 FFF7FEFF 		bl	shellPrint
 3514              	.LVL272:
1085:Task/Task_Protocol.c ****         CLI_Monitor.port_addr = 0;
 3515              		.loc 1 1085 9 view .LVU1006
 3516              		.loc 1 1085 31 is_stmt 0 view .LVU1007
 3517 002a 064B     		ldr	r3, .L229+16
 3518 002c 0022     		movs	r2, #0
 3519 002e 5A60     		str	r2, [r3, #4]
ARM GAS  C:\Users\8bit\AppData\Local\Temp\ccqwqzi2.s 			page 95


 3520              	.LVL273:
 3521              	.L226:
1086:Task/Task_Protocol.c ****     }
1087:Task/Task_Protocol.c **** }
 3522              		.loc 1 1087 1 view .LVU1008
 3523 0030 38BD     		pop	{r3, r4, r5, pc}
 3524              	.L230:
 3525 0032 00BF     		.align	2
 3526              	.L229:
 3527 0034 00000000 		.word	.LC6
 3528 0038 00000000 		.word	SrvOsCommon
 3529 003c 00000000 		.word	SrvDataHub
 3530 0040 08000000 		.word	.LC7
 3531 0044 00000000 		.word	.LANCHOR22
 3532              		.cfi_endproc
 3533              	.LFE2101:
 3535              		.section	.rodata.TaskFrameCTL_FileAccept_Enable.str1.4,"aMS",%progbits,1
 3536              		.align	2
 3537              	.LC8:
 3538 0000 5B204669 		.ascii	"[ File Adapter Enable ]\015\012\000"
 3538      6C652041 
 3538      64617074 
 3538      65722045 
 3538      6E61626C 
 3539 001a 0000     		.align	2
 3540              	.LC9:
 3541 001c 5B204669 		.ascii	"[ File Type List Down Below ]\015\012\000"
 3541      6C652054 
 3541      79706520 
 3541      4C697374 
 3541      20446F77 
 3542              		.align	2
 3543              	.LC10:
 3544 003c 0931202D 		.ascii	"\0111 ---- App    Firmware File\015\012\000"
 3544      2D2D2D20 
 3544      41707020 
 3544      20202046 
 3544      69726D77 
 3545 005b 00       		.align	2
 3546              	.LC11:
 3547 005c 5B205761 		.ascii	"[ Waitting App Firmware ]\015\012\000"
 3547      69747469 
 3547      6E672041 
 3547      70702046 
 3547      69726D77 
 3548              		.align	2
 3549              	.LC12:
 3550 0078 5B20594D 		.ascii	"[ YMODEM Enable ]\015\012\000"
 3550      4F44454D 
 3550      20456E61 
 3550      626C6520 
 3550      5D0D0A00 
 3551              		.align	2
 3552              	.LC13:
 3553 008c 556E6B6E 		.ascii	"Unknown File Type\015\012\000"
 3553      6F776E20 
 3553      46696C65 
ARM GAS  C:\Users\8bit\AppData\Local\Temp\ccqwqzi2.s 			page 96


 3553      20547970 
 3553      650D0A00 
 3554              		.align	2
 3555              	.LC14:
 3556 00a0 44697361 		.ascii	"Disable File Adapter\015\012\000"
 3556      626C6520 
 3556      46696C65 
 3556      20416461 
 3556      70746572 
 3557 00b7 00       		.align	2
 3558              	.LC15:
 3559 00b8 4661696C 		.ascii	"Failed to enable upgrade mode\015\012\000"
 3559      65642074 
 3559      6F20656E 
 3559      61626C65 
 3559      20757067 
 3560              		.section	.text.TaskFrameCTL_FileAccept_Enable,"ax",%progbits
 3561              		.align	1
 3562              		.syntax unified
 3563              		.thumb
 3564              		.thumb_func
 3566              	TaskFrameCTL_FileAccept_Enable:
 3567              	.LVL274:
 3568              	.LFB2102:
1088:Task/Task_Protocol.c **** SHELL_EXPORT_CMD(SHELL_CMD_PERMISSION(0) | SHELL_CMD_TYPE(SHELL_TYPE_CMD_FUNC) | SHELL_CMD_DISABLE_
1089:Task/Task_Protocol.c **** 
1090:Task/Task_Protocol.c **** static void TaskFrameCTL_FileAccept_Enable(uint8_t type)
1091:Task/Task_Protocol.c **** {
 3569              		.loc 1 1091 1 is_stmt 1 view -0
 3570              		.cfi_startproc
 3571              		@ args = 0, pretend = 0, frame = 16
 3572              		@ frame_needed = 0, uses_anonymous_args = 0
 3573              		.loc 1 1091 1 is_stmt 0 view .LVU1010
 3574 0000 30B5     		push	{r4, r5, lr}
 3575              	.LCFI62:
 3576              		.cfi_def_cfa_offset 12
 3577              		.cfi_offset 4, -12
 3578              		.cfi_offset 5, -8
 3579              		.cfi_offset 14, -4
 3580 0002 87B0     		sub	sp, sp, #28
 3581              	.LCFI63:
 3582              		.cfi_def_cfa_offset 40
 3583 0004 0546     		mov	r5, r0
1092:Task/Task_Protocol.c ****     Shell *shell_obj = Shell_GetInstence();
 3584              		.loc 1 1092 5 is_stmt 1 view .LVU1011
 3585              		.loc 1 1092 24 is_stmt 0 view .LVU1012
 3586 0006 FFF7FEFF 		bl	Shell_GetInstence
 3587              	.LVL275:
1093:Task/Task_Protocol.c ****     FileInfo_TypeDef Info_tmp;
 3588              		.loc 1 1093 5 is_stmt 1 view .LVU1013
1094:Task/Task_Protocol.c **** 
1095:Task/Task_Protocol.c ****     memset(&Info_tmp, 0, sizeof(FileInfo_TypeDef));
 3589              		.loc 1 1095 5 view .LVU1014
 3590 000a 0023     		movs	r3, #0
 3591 000c 0393     		str	r3, [sp, #12]
 3592 000e 0493     		str	r3, [sp, #16]
 3593 0010 0593     		str	r3, [sp, #20]
ARM GAS  C:\Users\8bit\AppData\Local\Temp\ccqwqzi2.s 			page 97


1096:Task/Task_Protocol.c ****     if (shell_obj)
 3594              		.loc 1 1096 5 view .LVU1015
 3595              		.loc 1 1096 8 is_stmt 0 view .LVU1016
 3596 0012 0028     		cmp	r0, #0
 3597 0014 52D0     		beq	.L231
 3598 0016 0446     		mov	r4, r0
1097:Task/Task_Protocol.c ****     {
1098:Task/Task_Protocol.c ****         shellPrint(shell_obj, "\r\n\r\n");
 3599              		.loc 1 1098 9 is_stmt 1 view .LVU1017
 3600 0018 2C49     		ldr	r1, .L240
 3601 001a FFF7FEFF 		bl	shellPrint
 3602              	.LVL276:
1099:Task/Task_Protocol.c ****         shellPrint(shell_obj, "[ File Adapter Enable ]\r\n");
 3603              		.loc 1 1099 9 view .LVU1018
 3604 001e 2C49     		ldr	r1, .L240+4
 3605 0020 2046     		mov	r0, r4
 3606 0022 FFF7FEFF 		bl	shellPrint
 3607              	.LVL277:
1100:Task/Task_Protocol.c ****         shellPrint(shell_obj, "[ File Type List Down Below ]\r\n");
 3608              		.loc 1 1100 9 view .LVU1019
 3609 0026 2B49     		ldr	r1, .L240+8
 3610 0028 2046     		mov	r0, r4
 3611 002a FFF7FEFF 		bl	shellPrint
 3612              	.LVL278:
1101:Task/Task_Protocol.c ****         shellPrint(shell_obj, "\t1 ---- App    Firmware File\r\n");
 3613              		.loc 1 1101 9 view .LVU1020
 3614 002e 2A49     		ldr	r1, .L240+12
 3615 0030 2046     		mov	r0, r4
 3616 0032 FFF7FEFF 		bl	shellPrint
 3617              	.LVL279:
1102:Task/Task_Protocol.c ****         shellPrint(shell_obj, "\r\n");
 3618              		.loc 1 1102 9 view .LVU1021
 3619 0036 2949     		ldr	r1, .L240+16
 3620 0038 2046     		mov	r0, r4
 3621 003a FFF7FEFF 		bl	shellPrint
 3622              	.LVL280:
1103:Task/Task_Protocol.c ****     
1104:Task/Task_Protocol.c ****         switch (type)
 3623              		.loc 1 1104 9 view .LVU1022
 3624 003e 012D     		cmp	r5, #1
 3625 0040 34D1     		bne	.L233
1105:Task/Task_Protocol.c ****         {
1106:Task/Task_Protocol.c ****             case FileType_APP:
1107:Task/Task_Protocol.c ****                 shellPrint(shell_obj, "[ Waitting App Firmware ]\r\n");
 3626              		.loc 1 1107 17 view .LVU1023
 3627 0042 2749     		ldr	r1, .L240+20
 3628 0044 2046     		mov	r0, r4
 3629 0046 FFF7FEFF 		bl	shellPrint
 3630              	.LVL281:
1108:Task/Task_Protocol.c ****                 break;
 3631              		.loc 1 1108 17 view .LVU1024
1109:Task/Task_Protocol.c **** 
1110:Task/Task_Protocol.c ****             default:
1111:Task/Task_Protocol.c ****                 shellPrint(shell_obj, "Unknown File Type\r\n");
1112:Task/Task_Protocol.c ****                 shellPrint(shell_obj, "Disable File Adapter\r\n");
1113:Task/Task_Protocol.c ****                 return;
1114:Task/Task_Protocol.c ****         }
ARM GAS  C:\Users\8bit\AppData\Local\Temp\ccqwqzi2.s 			page 98


1115:Task/Task_Protocol.c ****         
1116:Task/Task_Protocol.c ****         shellPrint(shell_obj, "[ YMODEM Enable ]\r\n");
 3632              		.loc 1 1116 9 view .LVU1025
 3633 004a 2649     		ldr	r1, .L240+24
 3634 004c 2046     		mov	r0, r4
 3635 004e FFF7FEFF 		bl	shellPrint
 3636              	.LVL282:
1117:Task/Task_Protocol.c **** 
1118:Task/Task_Protocol.c ****         Info_tmp.File_Type = type;
 3637              		.loc 1 1118 9 view .LVU1026
 3638              		.loc 1 1118 28 is_stmt 0 view .LVU1027
 3639 0052 8DF80C50 		strb	r5, [sp, #12]
1119:Task/Task_Protocol.c ****         Info_tmp.Adapter_Type = SrvFileAdapter_Frame_YModem;
 3640              		.loc 1 1119 9 is_stmt 1 view .LVU1028
 3641              		.loc 1 1119 31 is_stmt 0 view .LVU1029
 3642 0056 0120     		movs	r0, #1
 3643 0058 8DF80D00 		strb	r0, [sp, #13]
1120:Task/Task_Protocol.c ****         Info_tmp.SW_Ver[0] = AppVer[0];
 3644              		.loc 1 1120 9 is_stmt 1 view .LVU1030
 3645              		.loc 1 1120 36 is_stmt 0 view .LVU1031
 3646 005c 224B     		ldr	r3, .L240+28
 3647 005e 1A78     		ldrb	r2, [r3]	@ zero_extendqisi2
 3648              		.loc 1 1120 28 view .LVU1032
 3649 0060 8DF80E20 		strb	r2, [sp, #14]
1121:Task/Task_Protocol.c ****         Info_tmp.SW_Ver[1] = AppVer[1];
 3650              		.loc 1 1121 9 is_stmt 1 view .LVU1033
 3651              		.loc 1 1121 36 is_stmt 0 view .LVU1034
 3652 0064 5A78     		ldrb	r2, [r3, #1]	@ zero_extendqisi2
 3653              		.loc 1 1121 28 view .LVU1035
 3654 0066 8DF80F20 		strb	r2, [sp, #15]
1122:Task/Task_Protocol.c ****         Info_tmp.SW_Ver[2] = AppVer[2];
 3655              		.loc 1 1122 9 is_stmt 1 view .LVU1036
 3656              		.loc 1 1122 36 is_stmt 0 view .LVU1037
 3657 006a 9B78     		ldrb	r3, [r3, #2]	@ zero_extendqisi2
 3658              		.loc 1 1122 28 view .LVU1038
 3659 006c 8DF81030 		strb	r3, [sp, #16]
1123:Task/Task_Protocol.c ****         Info_tmp.HW_Ver[0] = HWVer[0];
 3660              		.loc 1 1123 9 is_stmt 1 view .LVU1039
 3661              		.loc 1 1123 35 is_stmt 0 view .LVU1040
 3662 0070 1E4B     		ldr	r3, .L240+32
 3663 0072 1A78     		ldrb	r2, [r3]	@ zero_extendqisi2
 3664              		.loc 1 1123 28 view .LVU1041
 3665 0074 8DF81120 		strb	r2, [sp, #17]
1124:Task/Task_Protocol.c ****         Info_tmp.HW_Ver[1] = HWVer[1];
 3666              		.loc 1 1124 9 is_stmt 1 view .LVU1042
 3667              		.loc 1 1124 35 is_stmt 0 view .LVU1043
 3668 0078 5A78     		ldrb	r2, [r3, #1]	@ zero_extendqisi2
 3669              		.loc 1 1124 28 view .LVU1044
 3670 007a 8DF81220 		strb	r2, [sp, #18]
1125:Task/Task_Protocol.c ****         Info_tmp.HW_Ver[2] = HWVer[2];
 3671              		.loc 1 1125 9 is_stmt 1 view .LVU1045
 3672              		.loc 1 1125 35 is_stmt 0 view .LVU1046
 3673 007e 9B78     		ldrb	r3, [r3, #2]	@ zero_extendqisi2
 3674              		.loc 1 1125 28 view .LVU1047
 3675 0080 8DF81330 		strb	r3, [sp, #19]
1126:Task/Task_Protocol.c ****         Info_tmp.File_Size = 0;
 3676              		.loc 1 1126 9 is_stmt 1 view .LVU1048
ARM GAS  C:\Users\8bit\AppData\Local\Temp\ccqwqzi2.s 			page 99


 3677              		.loc 1 1126 28 is_stmt 0 view .LVU1049
 3678 0084 0023     		movs	r3, #0
 3679 0086 0593     		str	r3, [sp, #20]
1127:Task/Task_Protocol.c **** 
1128:Task/Task_Protocol.c ****         if (!TaskFrameCTL_Upgrade_Enable(true, Info_tmp, CLI_Monitor.port_addr, CLI_Monitor.type))
 3680              		.loc 1 1128 9 is_stmt 1 view .LVU1050
 3681              		.loc 1 1128 92 is_stmt 0 view .LVU1051
 3682 0088 194B     		ldr	r3, .L240+36
 3683 008a 1A78     		ldrb	r2, [r3]	@ zero_extendqisi2
 3684              		.loc 1 1128 14 view .LVU1052
 3685 008c 0192     		str	r2, [sp, #4]
 3686 008e 5B68     		ldr	r3, [r3, #4]
 3687 0090 0093     		str	r3, [sp]
 3688 0092 06AB     		add	r3, sp, #24
 3689 0094 13E90E00 		ldmdb	r3, {r1, r2, r3}
 3690 0098 FFF7FEFF 		bl	TaskFrameCTL_Upgrade_Enable
 3691              	.LVL283:
 3692              		.loc 1 1128 12 view .LVU1053
 3693 009c 80B1     		cbz	r0, .L239
 3694              	.L234:
1129:Task/Task_Protocol.c ****             /* failed to switch to upgrade mode */
1130:Task/Task_Protocol.c ****             shellPrint(shell_obj, "Failed to enable upgrade mode\r\n");
1131:Task/Task_Protocol.c **** 
1132:Task/Task_Protocol.c ****         SrvUpgrade.set_fileinfo(Upgrade_Monitor.file_info);
 3695              		.loc 1 1132 9 is_stmt 1 view .LVU1054
 3696              		.loc 1 1132 19 is_stmt 0 view .LVU1055
 3697 009e 154B     		ldr	r3, .L240+40
 3698 00a0 9C68     		ldr	r4, [r3, #8]
 3699              	.LVL284:
 3700              		.loc 1 1132 9 view .LVU1056
 3701 00a2 154B     		ldr	r3, .L240+44
 3702 00a4 93E80700 		ldm	r3, {r0, r1, r2}
 3703 00a8 A047     		blx	r4
 3704              	.LVL285:
 3705 00aa 07E0     		b	.L231
 3706              	.LVL286:
 3707              	.L233:
1111:Task/Task_Protocol.c ****                 shellPrint(shell_obj, "Disable File Adapter\r\n");
 3708              		.loc 1 1111 17 is_stmt 1 view .LVU1057
 3709 00ac 1349     		ldr	r1, .L240+48
 3710 00ae 2046     		mov	r0, r4
 3711 00b0 FFF7FEFF 		bl	shellPrint
 3712              	.LVL287:
1112:Task/Task_Protocol.c ****                 return;
 3713              		.loc 1 1112 17 view .LVU1058
 3714 00b4 1249     		ldr	r1, .L240+52
 3715 00b6 2046     		mov	r0, r4
 3716 00b8 FFF7FEFF 		bl	shellPrint
 3717              	.LVL288:
1113:Task/Task_Protocol.c ****         }
 3718              		.loc 1 1113 17 view .LVU1059
 3719              	.L231:
1133:Task/Task_Protocol.c ****     }
1134:Task/Task_Protocol.c **** }
 3720              		.loc 1 1134 1 is_stmt 0 view .LVU1060
 3721 00bc 07B0     		add	sp, sp, #28
 3722              	.LCFI64:
ARM GAS  C:\Users\8bit\AppData\Local\Temp\ccqwqzi2.s 			page 100


 3723              		.cfi_remember_state
 3724              		.cfi_def_cfa_offset 12
 3725              		@ sp needed
 3726 00be 30BD     		pop	{r4, r5, pc}
 3727              	.LVL289:
 3728              	.L239:
 3729              	.LCFI65:
 3730              		.cfi_restore_state
1130:Task/Task_Protocol.c **** 
 3731              		.loc 1 1130 13 is_stmt 1 view .LVU1061
 3732 00c0 1049     		ldr	r1, .L240+56
 3733 00c2 2046     		mov	r0, r4
 3734 00c4 FFF7FEFF 		bl	shellPrint
 3735              	.LVL290:
 3736 00c8 E9E7     		b	.L234
 3737              	.L241:
 3738 00ca 00BF     		.align	2
 3739              	.L240:
 3740 00cc 00000000 		.word	.LC6
 3741 00d0 00000000 		.word	.LC8
 3742 00d4 1C000000 		.word	.LC9
 3743 00d8 3C000000 		.word	.LC10
 3744 00dc 00000000 		.word	.LC0
 3745 00e0 5C000000 		.word	.LC11
 3746 00e4 78000000 		.word	.LC12
 3747 00e8 00000000 		.word	AppVer
 3748 00ec 00000000 		.word	HWVer
 3749 00f0 00000000 		.word	.LANCHOR22
 3750 00f4 00000000 		.word	SrvUpgrade
 3751 00f8 04000000 		.word	.LANCHOR1+4
 3752 00fc 8C000000 		.word	.LC13
 3753 0100 A0000000 		.word	.LC14
 3754 0104 B8000000 		.word	.LC15
 3755              		.cfi_endproc
 3756              	.LFE2102:
 3758              		.section	.text.TaskFrameCTL_Init,"ax",%progbits
 3759              		.align	1
 3760              		.global	TaskFrameCTL_Init
 3761              		.syntax unified
 3762              		.thumb
 3763              		.thumb_func
 3765              	TaskFrameCTL_Init:
 3766              	.LVL291:
 3767              	.LFB2074:
 178:Task/Task_Protocol.c ****     FrameCTL_Period = FrameCTL_MAX_Period;
 3768              		.loc 1 178 1 view -0
 3769              		.cfi_startproc
 3770              		@ args = 0, pretend = 0, frame = 0
 3771              		@ frame_needed = 0, uses_anonymous_args = 0
 178:Task/Task_Protocol.c ****     FrameCTL_Period = FrameCTL_MAX_Period;
 3772              		.loc 1 178 1 is_stmt 0 view .LVU1063
 3773 0000 70B5     		push	{r4, r5, r6, lr}
 3774              	.LCFI66:
 3775              		.cfi_def_cfa_offset 16
 3776              		.cfi_offset 4, -16
 3777              		.cfi_offset 5, -12
 3778              		.cfi_offset 6, -8
ARM GAS  C:\Users\8bit\AppData\Local\Temp\ccqwqzi2.s 			page 101


 3779              		.cfi_offset 14, -4
 3780 0002 0546     		mov	r5, r0
 179:Task/Task_Protocol.c **** 
 3781              		.loc 1 179 5 is_stmt 1 view .LVU1064
 179:Task/Task_Protocol.c **** 
 3782              		.loc 1 179 21 is_stmt 0 view .LVU1065
 3783 0004 274B     		ldr	r3, .L245
 3784 0006 0522     		movs	r2, #5
 3785 0008 1A60     		str	r2, [r3]
 182:Task/Task_Protocol.c ****     memset(&DefaultPort_MavMsgInput_Obj, 0, sizeof(SrvComProto_MsgObj_TypeDef));
 3786              		.loc 1 182 5 is_stmt 1 view .LVU1066
 3787 000a 274C     		ldr	r4, .L245+4
 3788 000c 3C22     		movs	r2, #60
 3789 000e 0021     		movs	r1, #0
 3790 0010 2046     		mov	r0, r4
 3791              	.LVL292:
 182:Task/Task_Protocol.c ****     memset(&DefaultPort_MavMsgInput_Obj, 0, sizeof(SrvComProto_MsgObj_TypeDef));
 3792              		.loc 1 182 5 is_stmt 0 view .LVU1067
 3793 0012 FFF7FEFF 		bl	memset
 3794              	.LVL293:
 183:Task/Task_Protocol.c ****     memset(&RadioPort_MavMsgInput_Obj, 0, sizeof(SrvComProto_MsgObj_TypeDef));
 3795              		.loc 1 183 5 is_stmt 1 view .LVU1068
 3796 0016 9026     		movs	r6, #144
 3797 0018 3246     		mov	r2, r6
 3798 001a 0021     		movs	r1, #0
 3799 001c 2348     		ldr	r0, .L245+8
 3800 001e FFF7FEFF 		bl	memset
 3801              	.LVL294:
 184:Task/Task_Protocol.c **** 
 3802              		.loc 1 184 5 view .LVU1069
 3803 0022 3246     		mov	r2, r6
 3804 0024 0021     		movs	r1, #0
 3805 0026 2248     		ldr	r0, .L245+12
 3806 0028 FFF7FEFF 		bl	memset
 3807              	.LVL295:
 187:Task/Task_Protocol.c **** 
 3808              		.loc 1 187 5 view .LVU1070
 3809 002c B022     		movs	r2, #176
 3810 002e 0021     		movs	r1, #0
 3811 0030 2048     		ldr	r0, .L245+16
 3812 0032 FFF7FEFF 		bl	memset
 3813              	.LVL296:
 189:Task/Task_Protocol.c ****     TaskFrameCTL_RadioPort_Init(&PortMonitor);
 3814              		.loc 1 189 5 view .LVU1071
 3815 0036 2046     		mov	r0, r4
 3816 0038 FFF7FEFF 		bl	TaskFrameCTL_DefaultPort_Init
 3817              	.LVL297:
 190:Task/Task_Protocol.c ****     Radio_Addr = TaskFrameCTL_Set_RadioPort(Port_Uart, 0);
 3818              		.loc 1 190 5 view .LVU1072
 3819 003c 2046     		mov	r0, r4
 3820 003e FFF7FEFF 		bl	TaskFrameCTL_RadioPort_Init
 3821              	.LVL298:
 191:Task/Task_Protocol.c **** 
 3822              		.loc 1 191 5 view .LVU1073
 191:Task/Task_Protocol.c **** 
 3823              		.loc 1 191 18 is_stmt 0 view .LVU1074
 3824 0042 0021     		movs	r1, #0
ARM GAS  C:\Users\8bit\AppData\Local\Temp\ccqwqzi2.s 			page 102


 3825 0044 0220     		movs	r0, #2
 3826 0046 FFF7FEFF 		bl	TaskFrameCTL_Set_RadioPort
 3827              	.LVL299:
 191:Task/Task_Protocol.c **** 
 3828              		.loc 1 191 16 view .LVU1075
 3829 004a 1B4B     		ldr	r3, .L245+20
 3830 004c 1860     		str	r0, [r3]
 193:Task/Task_Protocol.c ****     
 3831              		.loc 1 193 5 is_stmt 1 view .LVU1076
 193:Task/Task_Protocol.c ****     
 3832              		.loc 1 193 22 is_stmt 0 view .LVU1077
 3833 004e 0123     		movs	r3, #1
 3834 0050 2370     		strb	r3, [r4]
 196:Task/Task_Protocol.c **** 
 3835              		.loc 1 196 5 is_stmt 1 view .LVU1078
 196:Task/Task_Protocol.c **** 
 3836              		.loc 1 196 32 is_stmt 0 view .LVU1079
 3837 0052 FFF7FEFF 		bl	TaskFrameCTL_MAV_Msg_Init
 3838              	.LVL300:
 196:Task/Task_Protocol.c **** 
 3839              		.loc 1 196 30 view .LVU1080
 3840 0056 194B     		ldr	r3, .L245+24
 3841 0058 1870     		strb	r0, [r3]
 198:Task/Task_Protocol.c ****     {
 3842              		.loc 1 198 5 is_stmt 1 view .LVU1081
 198:Task/Task_Protocol.c ****     {
 3843              		.loc 1 198 15 is_stmt 0 view .LVU1082
 3844 005a 6B1E     		subs	r3, r5, #1
 198:Task/Task_Protocol.c ****     {
 3845              		.loc 1 198 7 view .LVU1083
 3846 005c 042B     		cmp	r3, #4
 3847 005e 01D8     		bhi	.L243
 200:Task/Task_Protocol.c ****     }
 3848              		.loc 1 200 9 is_stmt 1 view .LVU1084
 200:Task/Task_Protocol.c ****     }
 3849              		.loc 1 200 25 is_stmt 0 view .LVU1085
 3850 0060 104B     		ldr	r3, .L245
 3851 0062 1D60     		str	r5, [r3]
 3852              	.L243:
 204:Task/Task_Protocol.c **** 
 3853              		.loc 1 204 5 is_stmt 1 view .LVU1086
 204:Task/Task_Protocol.c **** 
 3854              		.loc 1 204 51 is_stmt 0 view .LVU1087
 3855 0064 164B     		ldr	r3, .L245+28
 3856 0066 DB68     		ldr	r3, [r3, #12]
 204:Task/Task_Protocol.c **** 
 3857              		.loc 1 204 5 view .LVU1088
 3858 0068 DA88     		ldrh	r2, [r3, #6]
 3859 006a 1968     		ldr	r1, [r3]
 3860 006c 1548     		ldr	r0, .L245+32
 3861 006e FFF7FEFF 		bl	Shell_Init
 3862              	.LVL301:
 206:Task/Task_Protocol.c ****     memset(DataPipe_DataObjAddr(VCP_Attach_State), 0, sizeof(DataPipe_DataObj(VCP_Attach_State)));
 3863              		.loc 1 206 5 is_stmt 1 view .LVU1089
 3864 0072 154D     		ldr	r5, .L245+36
 3865              	.LVL302:
 206:Task/Task_Protocol.c ****     memset(DataPipe_DataObjAddr(VCP_Attach_State), 0, sizeof(DataPipe_DataObj(VCP_Attach_State)));
ARM GAS  C:\Users\8bit\AppData\Local\Temp\ccqwqzi2.s 			page 103


 3866              		.loc 1 206 5 is_stmt 0 view .LVU1090
 3867 0074 2722     		movs	r2, #39
 3868 0076 0021     		movs	r1, #0
 3869 0078 2846     		mov	r0, r5
 3870 007a FFF7FEFF 		bl	memset
 3871              	.LVL303:
 207:Task/Task_Protocol.c **** 
 3872              		.loc 1 207 5 is_stmt 1 view .LVU1091
 3873 007e 134B     		ldr	r3, .L245+40
 3874 0080 0024     		movs	r4, #0
 3875 0082 1C70     		strb	r4, [r3]
 209:Task/Task_Protocol.c ****     VCP_Connect_smp_DataPipe.data_size = sizeof(DataPipe_DataObj(VCP_Attach_State));
 3876              		.loc 1 209 5 view .LVU1092
 209:Task/Task_Protocol.c ****     VCP_Connect_smp_DataPipe.data_size = sizeof(DataPipe_DataObj(VCP_Attach_State));
 3877              		.loc 1 209 40 is_stmt 0 view .LVU1093
 3878 0084 C5F80D30 		str	r3, [r5, #13]	@ unaligned
 210:Task/Task_Protocol.c **** 
 3879              		.loc 1 210 5 is_stmt 1 view .LVU1094
 210:Task/Task_Protocol.c **** 
 3880              		.loc 1 210 40 is_stmt 0 view .LVU1095
 3881 0088 0123     		movs	r3, #1
 3882 008a 6B74     		strb	r3, [r5, #17]
 3883 008c AC74     		strb	r4, [r5, #18]
 212:Task/Task_Protocol.c ****     DataPipe_Enable(&VCP_Connect_smp_DataPipe);
 3884              		.loc 1 212 5 is_stmt 1 view .LVU1096
 212:Task/Task_Protocol.c ****     DataPipe_Enable(&VCP_Connect_smp_DataPipe);
 3885              		.loc 1 212 16 is_stmt 0 view .LVU1097
 3886 008e 104B     		ldr	r3, .L245+44
 3887 0090 5B68     		ldr	r3, [r3, #4]
 212:Task/Task_Protocol.c ****     DataPipe_Enable(&VCP_Connect_smp_DataPipe);
 3888              		.loc 1 212 5 view .LVU1098
 3889 0092 3220     		movs	r0, #50
 3890 0094 9847     		blx	r3
 3891              	.LVL304:
 213:Task/Task_Protocol.c **** 
 3892              		.loc 1 213 5 is_stmt 1 view .LVU1099
 3893              	.LBB11:
 3894              	.LBI11:
 3895              		.file 2 "System/DataPipe/DataPipe.h"
   1:System/DataPipe/DataPipe.h **** #ifndef __DATAPIPE_H
   2:System/DataPipe/DataPipe.h **** #define __DATAPIPE_H
   3:System/DataPipe/DataPipe.h **** 
   4:System/DataPipe/DataPipe.h **** #ifdef __cplusplus
   5:System/DataPipe/DataPipe.h **** extern "C" {
   6:System/DataPipe/DataPipe.h **** #endif
   7:System/DataPipe/DataPipe.h **** 
   8:System/DataPipe/DataPipe.h **** #include <stdint.h>
   9:System/DataPipe/DataPipe.h **** #include <string.h>
  10:System/DataPipe/DataPipe.h **** #include <stdbool.h>
  11:System/DataPipe/DataPipe.h **** 
  12:System/DataPipe/DataPipe.h **** typedef void (*Pipe_TransFinish_Callback)(void *pipe_obj);
  13:System/DataPipe/DataPipe.h **** typedef void (*Pipe_TransError_Callback)(void *pipe_obj);
  14:System/DataPipe/DataPipe.h **** typedef void (*Pipe_TimeOutProc_Callback)(void *pipe_obj);
  15:System/DataPipe/DataPipe.h **** 
  16:System/DataPipe/DataPipe.h **** #define DataPipeHandleToObj(x) ((DataPipeObj_TypeDef *)x)
  17:System/DataPipe/DataPipe.h **** #define DataPipe_CreateDataObj(type, name) static type name##_##PipeDataObj __attribute__((section(
  18:System/DataPipe/DataPipe.h **** #define DataPipe_DataObjAddr(name) (&name##_##PipeDataObj)
ARM GAS  C:\Users\8bit\AppData\Local\Temp\ccqwqzi2.s 			page 104


  19:System/DataPipe/DataPipe.h **** #define DataPipe_DataObj(name) name##_##PipeDataObj
  20:System/DataPipe/DataPipe.h **** #define DataPipe_DataSize(name) sizeof(name##_##PipeDataObj)
  21:System/DataPipe/DataPipe.h **** 
  22:System/DataPipe/DataPipe.h **** typedef enum
  23:System/DataPipe/DataPipe.h **** {
  24:System/DataPipe/DataPipe.h ****     Pipe_UnReady = 0,
  25:System/DataPipe/DataPipe.h ****     Pipe_Ready,
  26:System/DataPipe/DataPipe.h ****     Pipe_Busy,
  27:System/DataPipe/DataPipe.h ****     Pipe_Error,
  28:System/DataPipe/DataPipe.h **** } DataPipe_State_List;
  29:System/DataPipe/DataPipe.h **** 
  30:System/DataPipe/DataPipe.h **** #pragma pack(1)
  31:System/DataPipe/DataPipe.h **** typedef struct
  32:System/DataPipe/DataPipe.h **** {
  33:System/DataPipe/DataPipe.h ****     uint32_t min_rx_interval;
  34:System/DataPipe/DataPipe.h ****     uint32_t detect_interval;
  35:System/DataPipe/DataPipe.h ****     uint32_t rx_ms_rt;
  36:System/DataPipe/DataPipe.h **** 
  37:System/DataPipe/DataPipe.h ****     bool enable;
  38:System/DataPipe/DataPipe.h **** 
  39:System/DataPipe/DataPipe.h ****     uint32_t data_addr;
  40:System/DataPipe/DataPipe.h ****     uint16_t data_size;
  41:System/DataPipe/DataPipe.h **** 
  42:System/DataPipe/DataPipe.h ****     Pipe_TransFinish_Callback trans_finish_cb;
  43:System/DataPipe/DataPipe.h ****     Pipe_TransError_Callback trans_error_cb;
  44:System/DataPipe/DataPipe.h **** 
  45:System/DataPipe/DataPipe.h ****     uint32_t tx_cnt;
  46:System/DataPipe/DataPipe.h ****     uint32_t rx_cnt;
  47:System/DataPipe/DataPipe.h ****     uint32_t er_cnt;
  48:System/DataPipe/DataPipe.h **** } DataPipeObj_TypeDef;
  49:System/DataPipe/DataPipe.h **** #pragma pack()
  50:System/DataPipe/DataPipe.h **** 
  51:System/DataPipe/DataPipe.h **** typedef struct
  52:System/DataPipe/DataPipe.h **** {
  53:System/DataPipe/DataPipe.h ****     DataPipeObj_TypeDef *org;
  54:System/DataPipe/DataPipe.h ****     DataPipeObj_TypeDef *dst;
  55:System/DataPipe/DataPipe.h **** } Data_PlugedPipeObj_TypeDef;
  56:System/DataPipe/DataPipe.h **** 
  57:System/DataPipe/DataPipe.h **** bool DataPipe_Init(void);
  58:System/DataPipe/DataPipe.h **** bool DataPipe_DeInit(void);
  59:System/DataPipe/DataPipe.h **** bool DataPipe_SendTo(DataPipeObj_TypeDef *p_org, DataPipeObj_TypeDef *p_dst);
  60:System/DataPipe/DataPipe.h **** bool DataPipe_DealError(void);
  61:System/DataPipe/DataPipe.h **** 
  62:System/DataPipe/DataPipe.h **** inline bool DataPipe_Enable(DataPipeObj_TypeDef *obj)
 3896              		.loc 2 62 13 view .LVU1100
 3897              	.LBB12:
  63:System/DataPipe/DataPipe.h **** {
  64:System/DataPipe/DataPipe.h ****     if (obj == NULL)
 3898              		.loc 2 64 5 view .LVU1101
  65:System/DataPipe/DataPipe.h ****         return false;
  66:System/DataPipe/DataPipe.h **** 
  67:System/DataPipe/DataPipe.h ****     obj->enable = true;
 3899              		.loc 2 67 5 view .LVU1102
 3900              		.loc 2 67 17 is_stmt 0 view .LVU1103
 3901 0096 0123     		movs	r3, #1
 3902 0098 2B73     		strb	r3, [r5, #12]
  68:System/DataPipe/DataPipe.h **** 
ARM GAS  C:\Users\8bit\AppData\Local\Temp\ccqwqzi2.s 			page 105


  69:System/DataPipe/DataPipe.h ****     return true;
 3903              		.loc 2 69 5 is_stmt 1 view .LVU1104
 3904              	.LVL305:
 3905              		.loc 2 69 5 is_stmt 0 view .LVU1105
 3906              	.LBE12:
 3907              	.LBE11:
 216:Task/Task_Protocol.c **** }
 3908              		.loc 1 216 5 is_stmt 1 view .LVU1106
 3909 009a 0E4A     		ldr	r2, .L245+48
 3910 009c 5460     		str	r4, [r2, #4]
 3911 009e 9460     		str	r4, [r2, #8]
 3912 00a0 D460     		str	r4, [r2, #12]
 217:Task/Task_Protocol.c **** 
 3913              		.loc 1 217 1 is_stmt 0 view .LVU1107
 3914 00a2 70BD     		pop	{r4, r5, r6, pc}
 3915              	.L246:
 3916              		.align	2
 3917              	.L245:
 3918 00a4 00000000 		.word	.LANCHOR27
 3919 00a8 00000000 		.word	.LANCHOR0
 3920 00ac 00000000 		.word	.LANCHOR20
 3921 00b0 00000000 		.word	.LANCHOR21
 3922 00b4 00000000 		.word	.LANCHOR19
 3923 00b8 00000000 		.word	.LANCHOR3
 3924 00bc 00000000 		.word	.LANCHOR2
 3925 00c0 00000000 		.word	.LANCHOR22
 3926 00c4 00000000 		.word	TaskFrameCTL_CLI_Trans
 3927 00c8 00000000 		.word	VCP_Connect_smp_DataPipe
 3928 00cc 00000000 		.word	.LANCHOR28
 3929 00d0 00000000 		.word	SrvOsCommon
 3930 00d4 00000000 		.word	.LANCHOR1
 3931              		.cfi_endproc
 3932              	.LFE2074:
 3934              		.section	.text.TaskFrameCTL_Core,"ax",%progbits
 3935              		.align	1
 3936              		.global	TaskFrameCTL_Core
 3937              		.syntax unified
 3938              		.thumb
 3939              		.thumb_func
 3941              	TaskFrameCTL_Core:
 3942              	.LVL306:
 3943              	.LFB2075:
 220:Task/Task_Protocol.c ****     uint32_t per_time = SrvOsCommon.get_os_ms();
 3944              		.loc 1 220 1 is_stmt 1 view -0
 3945              		.cfi_startproc
 3946              		@ Volatile: function does not return.
 3947              		@ args = 0, pretend = 0, frame = 8
 3948              		@ frame_needed = 0, uses_anonymous_args = 0
 220:Task/Task_Protocol.c ****     uint32_t per_time = SrvOsCommon.get_os_ms();
 3949              		.loc 1 220 1 is_stmt 0 view .LVU1109
 3950 0000 00B5     		push	{lr}
 3951              	.LCFI67:
 3952              		.cfi_def_cfa_offset 4
 3953              		.cfi_offset 14, -4
 3954 0002 83B0     		sub	sp, sp, #12
 3955              	.LCFI68:
 3956              		.cfi_def_cfa_offset 16
ARM GAS  C:\Users\8bit\AppData\Local\Temp\ccqwqzi2.s 			page 106


 221:Task/Task_Protocol.c ****     bool cli_state = false;
 3957              		.loc 1 221 5 is_stmt 1 view .LVU1110
 221:Task/Task_Protocol.c ****     bool cli_state = false;
 3958              		.loc 1 221 36 is_stmt 0 view .LVU1111
 3959 0004 134B     		ldr	r3, .L253
 3960 0006 1B68     		ldr	r3, [r3]
 221:Task/Task_Protocol.c ****     bool cli_state = false;
 3961              		.loc 1 221 25 view .LVU1112
 3962 0008 9847     		blx	r3
 3963              	.LVL307:
 221:Task/Task_Protocol.c ****     bool cli_state = false;
 3964              		.loc 1 221 14 view .LVU1113
 3965 000a 0190     		str	r0, [sp, #4]
 222:Task/Task_Protocol.c **** 
 3966              		.loc 1 222 5 is_stmt 1 view .LVU1114
 222:Task/Task_Protocol.c **** 
 3967              		.loc 1 222 10 is_stmt 0 view .LVU1115
 3968 000c 0023     		movs	r3, #0
 3969 000e 8DF80330 		strb	r3, [sp, #3]
 3970 0012 0CE0     		b	.L251
 3971              	.L249:
 238:Task/Task_Protocol.c ****         }
 3972              		.loc 1 238 17 is_stmt 1 view .LVU1116
 3973 0014 FFF7FEFF 		bl	TaskFrameCTL_CLI_Proc
 3974              	.LVL308:
 3975 0018 03E0     		b	.L250
 3976              	.L248:
 242:Task/Task_Protocol.c **** 
 3977              		.loc 1 242 13 view .LVU1117
 3978 001a 9DF80300 		ldrb	r0, [sp, #3]	@ zero_extendqisi2
 3979 001e FFF7FEFF 		bl	TaskFrameCTL_Upgrade_StatePolling
 3980              	.LVL309:
 3981              	.L250:
 244:Task/Task_Protocol.c ****     }
 3982              		.loc 1 244 9 view .LVU1118
 244:Task/Task_Protocol.c ****     }
 3983              		.loc 1 244 20 is_stmt 0 view .LVU1119
 3984 0022 0C4B     		ldr	r3, .L253
 3985 0024 9B68     		ldr	r3, [r3, #8]
 244:Task/Task_Protocol.c ****     }
 3986              		.loc 1 244 9 view .LVU1120
 3987 0026 0C4A     		ldr	r2, .L253+4
 3988 0028 1168     		ldr	r1, [r2]
 3989 002a 01A8     		add	r0, sp, #4
 3990 002c 9847     		blx	r3
 3991              	.LVL310:
 224:Task/Task_Protocol.c ****     {
 3992              		.loc 1 224 10 is_stmt 1 view .LVU1121
 3993              	.L251:
 224:Task/Task_Protocol.c ****     {
 3994              		.loc 1 224 5 view .LVU1122
 226:Task/Task_Protocol.c ****         SrvDataHub.get_cli_state(&cli_state);
 3995              		.loc 1 226 9 view .LVU1123
 3996 002e FFF7FEFF 		bl	TaskFrameCTL_ConfigureStateCheck
 3997              	.LVL311:
 227:Task/Task_Protocol.c **** 
 3998              		.loc 1 227 9 view .LVU1124
ARM GAS  C:\Users\8bit\AppData\Local\Temp\ccqwqzi2.s 			page 107


 227:Task/Task_Protocol.c **** 
 3999              		.loc 1 227 19 is_stmt 0 view .LVU1125
 4000 0032 0A4B     		ldr	r3, .L253+8
 4001 0034 5B69     		ldr	r3, [r3, #20]
 227:Task/Task_Protocol.c **** 
 4002              		.loc 1 227 9 view .LVU1126
 4003 0036 0DF10300 		add	r0, sp, #3
 4004 003a 9847     		blx	r3
 4005              	.LVL312:
 229:Task/Task_Protocol.c ****         {
 4006              		.loc 1 229 9 is_stmt 1 view .LVU1127
 229:Task/Task_Protocol.c ****         {
 4007              		.loc 1 229 29 is_stmt 0 view .LVU1128
 4008 003c 084B     		ldr	r3, .L253+12
 4009 003e 1B78     		ldrb	r3, [r3]	@ zero_extendqisi2
 229:Task/Task_Protocol.c ****         {
 4010              		.loc 1 229 12 view .LVU1129
 4011 0040 002B     		cmp	r3, #0
 4012 0042 EAD1     		bne	.L248
 231:Task/Task_Protocol.c ****             {
 4013              		.loc 1 231 13 is_stmt 1 view .LVU1130
 231:Task/Task_Protocol.c ****             {
 4014              		.loc 1 231 17 is_stmt 0 view .LVU1131
 4015 0044 9DF80330 		ldrb	r3, [sp, #3]	@ zero_extendqisi2
 231:Task/Task_Protocol.c ****             {
 4016              		.loc 1 231 16 view .LVU1132
 4017 0048 002B     		cmp	r3, #0
 4018 004a E3D1     		bne	.L249
 234:Task/Task_Protocol.c ****             }
 4019              		.loc 1 234 17 is_stmt 1 view .LVU1133
 4020 004c FFF7FEFF 		bl	TaskFrameCTL_PortFrameOut_Process
 4021              	.LVL313:
 4022 0050 E7E7     		b	.L250
 4023              	.L254:
 4024 0052 00BF     		.align	2
 4025              	.L253:
 4026 0054 00000000 		.word	SrvOsCommon
 4027 0058 00000000 		.word	.LANCHOR27
 4028 005c 00000000 		.word	SrvDataHub
 4029 0060 00000000 		.word	.LANCHOR1
 4030              		.cfi_endproc
 4031              	.LFE2075:
 4033              		.global	shellCommandfile_rec
 4034              		.global	shellDescfile_rec
 4035              		.global	shellCmdfile_rec
 4036              		.global	shellCommandCLI_Disable
 4037              		.global	shellDescCLI_Disable
 4038              		.global	shellCmdCLI_Disable
 4039              		.global	RadioProto_MAV_Altitude
 4040              		.global	RadioProto_MAV_Attitude
 4041              		.global	RadioProto_MAV_MotoChannel
 4042              		.global	RadioProto_MAV_RcChannel
 4043              		.global	RadioProto_MAV_ScaledIMU
 4044              		.global	RadioProto_MAV_RawIMU
 4045              		.global	TaskProto_MAV_Altitude
 4046              		.global	TaskProto_MAV_Exp_Attitude
 4047              		.global	TaskProto_MAV_Attitude
ARM GAS  C:\Users\8bit\AppData\Local\Temp\ccqwqzi2.s 			page 108


 4048              		.global	TaskProto_MAV_MotoChannel
 4049              		.global	TaskProto_MAV_RcChannel
 4050              		.global	TaskProto_MAV_ScaledIMU
 4051              		.global	TaskProto_MAV_RawIMU
 4052              		.global	InPut_MavData
 4053              		.section	.Perph_Section,"aw"
 4054              		.align	2
 4055              		.set	.LANCHOR28,. + 0
 4058              	VCP_Attach_State_PipeDataObj:
 4059 0000 00       		.space	1
 4060 0001 000000   		.space	3
 4063              	CLIRxBuf:
 4064 0004 00000000 		.space	512
 4064      00000000 
 4064      00000000 
 4064      00000000 
 4064      00000000 
 4067              	MavShareBuf:
 4068 0204 00000000 		.space	1024
 4068      00000000 
 4068      00000000 
 4068      00000000 
 4068      00000000 
 4069              		.section	.bss.CLIPrintBuf,"aw",%nobits
 4070              		.align	2
 4071              		.set	.LANCHOR29,. + 0
 4074              	CLIPrintBuf:
 4075 0000 00000000 		.space	512
 4075      00000000 
 4075      00000000 
 4075      00000000 
 4075      00000000 
 4076              		.section	.bss.CLIProcBuf,"aw",%nobits
 4077              		.align	2
 4080              	CLIProcBuf:
 4081 0000 00000000 		.space	512
 4081      00000000 
 4081      00000000 
 4081      00000000 
 4081      00000000 
 4082              		.section	.bss.DefaultPort_MavMsgInput_Obj,"aw",%nobits
 4083              		.align	2
 4084              		.set	.LANCHOR20,. + 0
 4087              	DefaultPort_MavMsgInput_Obj:
 4088 0000 00000000 		.space	144
 4088      00000000 
 4088      00000000 
 4088      00000000 
 4088      00000000 
 4089              		.section	.bss.FrameCTL_MavProto_Enable,"aw",%nobits
 4090              		.set	.LANCHOR2,. + 0
 4093              	FrameCTL_MavProto_Enable:
 4094 0000 00       		.space	1
 4095              		.section	.bss.FrameCTL_Period,"aw",%nobits
 4096              		.align	2
 4097              		.set	.LANCHOR27,. + 0
 4100              	FrameCTL_Period:
ARM GAS  C:\Users\8bit\AppData\Local\Temp\ccqwqzi2.s 			page 109


 4101 0000 00000000 		.space	4
 4102              		.section	.bss.InPut_MavData,"aw",%nobits
 4103              		.align	2
 4104              		.set	.LANCHOR19,. + 0
 4107              	InPut_MavData:
 4108 0000 00000000 		.space	176
 4108      00000000 
 4108      00000000 
 4108      00000000 
 4108      00000000 
 4109              		.section	.bss.InUsePort_MavMsgInput_Obj,"aw",%nobits
 4110              		.align	2
 4111              		.set	.LANCHOR26,. + 0
 4114              	InUsePort_MavMsgInput_Obj:
 4115 0000 00000000 		.space	4
 4116              		.section	.bss.PortMonitor,"aw",%nobits
 4117              		.align	2
 4118              		.set	.LANCHOR0,. + 0
 4121              	PortMonitor:
 4122 0000 00000000 		.space	60
 4122      00000000 
 4122      00000000 
 4122      00000000 
 4122      00000000 
 4123              		.section	.bss.RadioPort_MavMsgInput_Obj,"aw",%nobits
 4124              		.align	2
 4125              		.set	.LANCHOR21,. + 0
 4128              	RadioPort_MavMsgInput_Obj:
 4129 0000 00000000 		.space	144
 4129      00000000 
 4129      00000000 
 4129      00000000 
 4129      00000000 
 4130              		.section	.bss.RadioProto_MAV_Altitude,"aw",%nobits
 4131              		.align	2
 4132              		.set	.LANCHOR9,. + 0
 4135              	RadioProto_MAV_Altitude:
 4136 0000 00000000 		.space	28
 4136      00000000 
 4136      00000000 
 4136      00000000 
 4136      00000000 
 4137              		.section	.bss.RadioProto_MAV_Attitude,"aw",%nobits
 4138              		.align	2
 4139              		.set	.LANCHOR7,. + 0
 4142              	RadioProto_MAV_Attitude:
 4143 0000 00000000 		.space	28
 4143      00000000 
 4143      00000000 
 4143      00000000 
 4143      00000000 
 4144              		.section	.bss.RadioProto_MAV_MotoChannel,"aw",%nobits
 4145              		.align	2
 4146              		.set	.LANCHOR18,. + 0
 4149              	RadioProto_MAV_MotoChannel:
 4150 0000 00000000 		.space	28
 4150      00000000 
ARM GAS  C:\Users\8bit\AppData\Local\Temp\ccqwqzi2.s 			page 110


 4150      00000000 
 4150      00000000 
 4150      00000000 
 4151              		.section	.bss.RadioProto_MAV_RawIMU,"aw",%nobits
 4152              		.align	2
 4153              		.set	.LANCHOR5,. + 0
 4156              	RadioProto_MAV_RawIMU:
 4157 0000 00000000 		.space	28
 4157      00000000 
 4157      00000000 
 4157      00000000 
 4157      00000000 
 4158              		.section	.bss.RadioProto_MAV_RcChannel,"aw",%nobits
 4159              		.align	2
 4160              		.set	.LANCHOR8,. + 0
 4163              	RadioProto_MAV_RcChannel:
 4164 0000 00000000 		.space	28
 4164      00000000 
 4164      00000000 
 4164      00000000 
 4164      00000000 
 4165              		.section	.bss.RadioProto_MAV_ScaledIMU,"aw",%nobits
 4166              		.align	2
 4167              		.set	.LANCHOR6,. + 0
 4170              	RadioProto_MAV_ScaledIMU:
 4171 0000 00000000 		.space	28
 4171      00000000 
 4171      00000000 
 4171      00000000 
 4171      00000000 
 4172              		.section	.bss.RadioRxBuff,"aw",%nobits
 4173              		.align	2
 4176              	RadioRxBuff:
 4177 0000 00000000 		.space	1152
 4177      00000000 
 4177      00000000 
 4177      00000000 
 4177      00000000 
 4178              		.section	.bss.Radio_Addr,"aw",%nobits
 4179              		.align	2
 4180              		.set	.LANCHOR3,. + 0
 4183              	Radio_Addr:
 4184 0000 00000000 		.space	4
 4185              		.section	.bss.TaskProto_MAV_Altitude,"aw",%nobits
 4186              		.align	2
 4187              		.set	.LANCHOR15,. + 0
 4190              	TaskProto_MAV_Altitude:
 4191 0000 00000000 		.space	28
 4191      00000000 
 4191      00000000 
 4191      00000000 
 4191      00000000 
 4192              		.section	.bss.TaskProto_MAV_Attitude,"aw",%nobits
 4193              		.align	2
 4194              		.set	.LANCHOR13,. + 0
 4197              	TaskProto_MAV_Attitude:
 4198 0000 00000000 		.space	28
ARM GAS  C:\Users\8bit\AppData\Local\Temp\ccqwqzi2.s 			page 111


 4198      00000000 
 4198      00000000 
 4198      00000000 
 4198      00000000 
 4199              		.section	.bss.TaskProto_MAV_Exp_Attitude,"aw",%nobits
 4200              		.align	2
 4201              		.set	.LANCHOR16,. + 0
 4204              	TaskProto_MAV_Exp_Attitude:
 4205 0000 00000000 		.space	28
 4205      00000000 
 4205      00000000 
 4205      00000000 
 4205      00000000 
 4206              		.section	.bss.TaskProto_MAV_MotoChannel,"aw",%nobits
 4207              		.align	2
 4208              		.set	.LANCHOR17,. + 0
 4211              	TaskProto_MAV_MotoChannel:
 4212 0000 00000000 		.space	28
 4212      00000000 
 4212      00000000 
 4212      00000000 
 4212      00000000 
 4213              		.section	.bss.TaskProto_MAV_RawIMU,"aw",%nobits
 4214              		.align	2
 4215              		.set	.LANCHOR11,. + 0
 4218              	TaskProto_MAV_RawIMU:
 4219 0000 00000000 		.space	28
 4219      00000000 
 4219      00000000 
 4219      00000000 
 4219      00000000 
 4220              		.section	.bss.TaskProto_MAV_RcChannel,"aw",%nobits
 4221              		.align	2
 4222              		.set	.LANCHOR14,. + 0
 4225              	TaskProto_MAV_RcChannel:
 4226 0000 00000000 		.space	28
 4226      00000000 
 4226      00000000 
 4226      00000000 
 4226      00000000 
 4227              		.section	.bss.TaskProto_MAV_ScaledIMU,"aw",%nobits
 4228              		.align	2
 4229              		.set	.LANCHOR12,. + 0
 4232              	TaskProto_MAV_ScaledIMU:
 4233 0000 00000000 		.space	28
 4233      00000000 
 4233      00000000 
 4233      00000000 
 4233      00000000 
 4234              		.section	.bss.USB_RxBuf_Tmp,"aw",%nobits
 4235              		.align	2
 4238              	USB_RxBuf_Tmp:
 4239 0000 00000000 		.space	1152
 4239      00000000 
 4239      00000000 
 4239      00000000 
 4239      00000000 
ARM GAS  C:\Users\8bit\AppData\Local\Temp\ccqwqzi2.s 			page 112


 4240              		.section	.bss.USB_VCP_Addr,"aw",%nobits
 4241              		.align	2
 4242              		.set	.LANCHOR10,. + 0
 4245              	USB_VCP_Addr:
 4246 0000 00000000 		.space	4
 4247              		.section	.bss.Uart_RxBuf_Tmp,"aw",%nobits
 4248              		.align	2
 4251              	Uart_RxBuf_Tmp:
 4252 0000 00000000 		.space	1152
 4252      00000000 
 4252      00000000 
 4252      00000000 
 4252      00000000 
 4253              		.section	.bss.Upgrade_Monitor,"aw",%nobits
 4254              		.align	2
 4255              		.set	.LANCHOR1,. + 0
 4258              	Upgrade_Monitor:
 4259 0000 00000000 		.space	24
 4259      00000000 
 4259      00000000 
 4259      00000000 
 4259      00000000 
 4260              		.section	.data.CLI_Monitor,"aw"
 4261              		.align	2
 4262              		.set	.LANCHOR22,. + 0
 4265              	CLI_Monitor:
 4266 0000 00000000 		.space	4
 4267 0004 00000000 		.word	0
 4268 0008 00000000 		.word	CLI_RX_Stream
 4269 000c 00000000 		.word	CLI_Proc_Stream
 4270 0010 00       		.byte	0
 4271 0011 00       		.space	1
 4272 0012 0000     		.short	0
 4273              		.section	.data.CLI_Proc_Stream,"aw"
 4274              		.align	2
 4277              	CLI_Proc_Stream:
 4278 0000 00000000 		.word	CLIProcBuf
 4279 0004 0000     		.short	0
 4280 0006 0002     		.short	512
 4281              		.section	.data.CLI_RX_Stream,"aw"
 4282              		.align	2
 4285              	CLI_RX_Stream:
 4286 0000 04000000 		.word	CLIRxBuf
 4287 0004 0000     		.short	0
 4288 0006 0002     		.short	512
 4289              		.section	.data.MavStream,"aw"
 4290              		.align	2
 4291              		.set	.LANCHOR4,. + 0
 4294              	MavStream:
 4295 0000 04020000 		.word	MavShareBuf
 4296 0004 0000     		.short	0
 4297 0006 0004     		.short	1024
 4298              		.section	.data.Radio_Port1_UartObj,"aw"
 4299              		.align	2
 4302              	Radio_Port1_UartObj:
 4303 0000 00080700 		.word	460800
 4304 0004 00       		.byte	0
ARM GAS  C:\Users\8bit\AppData\Local\Temp\ccqwqzi2.s 			page 113


 4305 0005 000000   		.space	3
 4306 0008 00100140 		.word	1073811456
 4307 000c 00000000 		.space	4
 4308 0010 01       		.byte	1
 4309 0011 00       		.byte	0
 4310 0012 00000000 		.space	6
 4310      0000
 4311 0018 01       		.byte	1
 4312 0019 01       		.byte	1
 4313 001a 00000000 		.space	6
 4313      0000
 4314 0020 00000000 		.word	Uart1_Tx_Port
 4315 0024 0002     		.short	512
 4316 0026 00       		.byte	0
 4317 0027 00       		.space	1
 4318 0028 07000000 		.word	7
 4319 002c 00000000 		.word	Uart1_Rx_Port
 4320 0030 0004     		.short	1024
 4321 0032 00       		.byte	0
 4322 0033 00       		.space	1
 4323 0034 07000000 		.word	7
 4324 0038 00000000 		.space	8
 4324      00000000 
 4325 0040 00000000 		.word	RadioRxBuff
 4326 0044 8004     		.short	1152
 4327 0046 00000000 		.space	42
 4327      00000000 
 4327      00000000 
 4327      00000000 
 4327      00000000 
 4328              		.section	.data.Radio_UartPort_List,"aw"
 4329              		.align	2
 4330              		.set	.LANCHOR23,. + 0
 4333              	Radio_UartPort_List:
 4334 0000 00       		.byte	0
 4335 0001 00000000 		.space	31
 4335      00000000 
 4335      00000000 
 4335      00000000 
 4335      00000000 
 4336 0020 00000000 		.word	Radio_Port1_UartObj
 4337              		.section	.data.USBRx_Stream,"aw"
 4338              		.align	2
 4339              		.set	.LANCHOR24,. + 0
 4342              	USBRx_Stream:
 4343 0000 00000000 		.word	USB_RxBuf_Tmp
 4344 0004 0000     		.short	0
 4345 0006 8004     		.short	1152
 4346              		.section	.data.UartRx_Stream,"aw"
 4347              		.align	2
 4348              		.set	.LANCHOR25,. + 0
 4351              	UartRx_Stream:
 4352 0000 00000000 		.word	Uart_RxBuf_Tmp
 4353 0004 0000     		.short	0
 4354 0006 8004     		.short	1152
 4355              		.section	.rodata.shellCmdCLI_Disable,"a"
 4356              		.align	2
ARM GAS  C:\Users\8bit\AppData\Local\Temp\ccqwqzi2.s 			page 114


 4359              	shellCmdCLI_Disable:
 4360 0000 434C495F 		.ascii	"CLI_Disable\000"
 4360      44697361 
 4360      626C6500 
 4361              		.section	.rodata.shellCmdfile_rec,"a"
 4362              		.align	2
 4365              	shellCmdfile_rec:
 4366 0000 66696C65 		.ascii	"file_rec\000"
 4366      5F726563 
 4366      00
 4367              		.section	.rodata.shellDescCLI_Disable,"a"
 4368              		.align	2
 4371              	shellDescCLI_Disable:
 4372 0000 434C4920 		.ascii	"CLI Enable Control\000"
 4372      456E6162 
 4372      6C652043 
 4372      6F6E7472 
 4372      6F6C00
 4373              		.section	.rodata.shellDescfile_rec,"a"
 4374              		.align	2
 4377              	shellDescfile_rec:
 4378 0000 496E2046 		.ascii	"In File Receive Mode\000"
 4378      696C6520 
 4378      52656365 
 4378      69766520 
 4378      4D6F6465 
 4379              		.section	shellCommand,"a"
 4380              		.align	2
 4383              	shellCommandfile_rec:
 4384 0000 00210000 		.word	8448
 4385 0004 00000000 		.word	shellCmdfile_rec
 4386 0008 00000000 		.word	TaskFrameCTL_FileAccept_Enable
 4387 000c 00000000 		.word	shellDescfile_rec
 4390              	shellCommandCLI_Disable:
 4391 0010 00210000 		.word	8448
 4392 0014 00000000 		.word	shellCmdCLI_Disable
 4393 0018 00000000 		.word	TaskFermeCTL_CLI_DisableControl
 4394 001c 00000000 		.word	shellDescCLI_Disable
 4395              		.text
 4396              	.Letext0:
 4397              		.file 3 "c:\\program files (x86)\\gnu arm embedded toolchain\\10 2021.10\\lib\\gcc\\arm-none-eabi\
 4398              		.file 4 "c:\\program files (x86)\\gnu arm embedded toolchain\\10 2021.10\\arm-none-eabi\\include\\
 4399              		.file 5 "c:\\program files (x86)\\gnu arm embedded toolchain\\10 2021.10\\arm-none-eabi\\include\\
 4400              		.file 6 "System/FreeRTOS/portable/GCC/ARM_CM4F/portmacro.h"
 4401              		.file 7 "System/FreeRTOS/include/portable.h"
 4402              		.file 8 "System/FreeRTOS/include/FreeRTOS.h"
 4403              		.file 9 "System/FreeRTOS/include/queue.h"
 4404              		.file 10 "System/FreeRTOS/include/semphr.h"
 4405              		.file 11 "System/FreeRTOS/CMSIS_RTOS/cmsis_os.h"
 4406              		.file 12 "Service/Srv_OsCommon.h"
 4407              		.file 13 "Service/../MAVLink/common/../mavlink_types.h"
 4408              		.file 14 "Service/Srv_ComProto.h"
 4409              		.file 15 "HW_Lib/Port_Def/Bsp_USB_Port_Def.h"
 4410              		.file 16 "HW_Lib/AT32F435/bsp/Bsp_USB.h"
 4411              		.file 17 "HW_Lib/Port_Def/Bsp_GPIO_Port_Def.h"
 4412              		.file 18 "HW_Lib/Port_Def/Bsp_Uart_Port_Def.h"
 4413              		.file 19 "HW_Lib/AT32F435/bsp/Bsp_Uart.h"
ARM GAS  C:\Users\8bit\AppData\Local\Temp\ccqwqzi2.s 			page 115


 4414              		.file 20 "System/shell/shell.h"
 4415              		.file 21 "Service/Srv_FileAdapter.h"
 4416              		.file 22 "Service/Srv_Upgrade.h"
 4417              		.file 23 "Task/Task_Protocol.h"
 4418              		.file 24 "HW_Lib/AT32F435/drivers/inc/at32f435_437_tmr.h"
 4419              		.file 25 "HW_Lib/AT32F435/drivers/inc/at32f435_437_gpio.h"
 4420              		.file 26 "HW_Lib/AT32F435/drivers/inc/at32f435_437_usart.h"
 4421              		.file 27 "HW_Lib/AT32F435/bsp/Bsp_GPIO.h"
 4422              		.file 28 "HW_Lib/AT32F435/bsp/Bsp_DMA.h"
 4423              		.file 29 "common/Error_Log/../../common/gen_physic_def/imu_data.h"
 4424              		.file 30 "HW_Lib/AT32F435/PinPort_Def/CCRC_AT32_20/HW_Def.h"
 4425              		.file 31 "Device/Dev_Dshot.h"
 4426              		.file 32 "Service/control_data.h"
 4427              		.file 33 "Service/Srv_DataHub.h"
 4428              		.file 34 "System/FreeRTOS/FreeRTOSConfig.h"
 4429              		.file 35 "System/shell/shell_port.h"
 4430              		.file 36 "<built-in>"
 4431              		.file 37 "c:\\program files (x86)\\gnu arm embedded toolchain\\10 2021.10\\arm-none-eabi\\include\
ARM GAS  C:\Users\8bit\AppData\Local\Temp\ccqwqzi2.s 			page 116


DEFINED SYMBOLS
                            *ABS*:00000000 Task_Protocol.c
C:\Users\8bit\AppData\Local\Temp\ccqwqzi2.s:20     .text.TaskFrameCTL_Set_RadioPort:00000000 $t
C:\Users\8bit\AppData\Local\Temp\ccqwqzi2.s:25     .text.TaskFrameCTL_Set_RadioPort:00000000 TaskFrameCTL_Set_RadioPort
C:\Users\8bit\AppData\Local\Temp\ccqwqzi2.s:86     .text.TaskFrameCTL_Set_RadioPort:0000002c $d
C:\Users\8bit\AppData\Local\Temp\ccqwqzi2.s:91     .text.TaskFrameCTL_USB_VCP_Connect_Callback:00000000 $t
C:\Users\8bit\AppData\Local\Temp\ccqwqzi2.s:96     .text.TaskFrameCTL_USB_VCP_Connect_Callback:00000000 TaskFrameCTL_USB_VCP_Connect_Callback
C:\Users\8bit\AppData\Local\Temp\ccqwqzi2.s:154    .text.TaskFrameCTL_USB_VCP_Connect_Callback:00000020 $d
C:\Users\8bit\AppData\Local\Temp\ccqwqzi2.s:159    .text.TaskFrameCTL_Upgrade_Enable:00000000 $t
C:\Users\8bit\AppData\Local\Temp\ccqwqzi2.s:164    .text.TaskFrameCTL_Upgrade_Enable:00000000 TaskFrameCTL_Upgrade_Enable
C:\Users\8bit\AppData\Local\Temp\ccqwqzi2.s:275    .text.TaskFrameCTL_Upgrade_Enable:00000064 $d
C:\Users\8bit\AppData\Local\Temp\ccqwqzi2.s:283    .text.TaskFrameCTL_PortFrameOut_Process:00000000 $t
C:\Users\8bit\AppData\Local\Temp\ccqwqzi2.s:288    .text.TaskFrameCTL_PortFrameOut_Process:00000000 TaskFrameCTL_PortFrameOut_Process
C:\Users\8bit\AppData\Local\Temp\ccqwqzi2.s:510    .text.TaskFrameCTL_PortFrameOut_Process:000000e8 $d
C:\Users\8bit\AppData\Local\Temp\ccqwqzi2.s:1883   .text.TaskFrameCTL_MavMsg_Trans:00000000 TaskFrameCTL_MavMsg_Trans
C:\Users\8bit\AppData\Local\Temp\ccqwqzi2.s:533    .text.TaskFrame_Mav_ExpAtt_Callback:00000000 $t
C:\Users\8bit\AppData\Local\Temp\ccqwqzi2.s:538    .text.TaskFrame_Mav_ExpAtt_Callback:00000000 TaskFrame_Mav_ExpAtt_Callback
C:\Users\8bit\AppData\Local\Temp\ccqwqzi2.s:565    .text.TaskFrame_Mav_ExpGyro_Callback:00000000 $t
C:\Users\8bit\AppData\Local\Temp\ccqwqzi2.s:570    .text.TaskFrame_Mav_ExpGyro_Callback:00000000 TaskFrame_Mav_ExpGyro_Callback
C:\Users\8bit\AppData\Local\Temp\ccqwqzi2.s:597    .text.TaskFrame_Mav_ExpAlt_Callback:00000000 $t
C:\Users\8bit\AppData\Local\Temp\ccqwqzi2.s:602    .text.TaskFrame_Mav_ExpAlt_Callback:00000000 TaskFrame_Mav_ExpAlt_Callback
C:\Users\8bit\AppData\Local\Temp\ccqwqzi2.s:653    .text.TaskFrame_Mav_ExpAlt_Callback:00000028 $d
C:\Users\8bit\AppData\Local\Temp\ccqwqzi2.s:658    .text.TaskFrame_Mav_PID_Roll_Callback:00000000 $t
C:\Users\8bit\AppData\Local\Temp\ccqwqzi2.s:663    .text.TaskFrame_Mav_PID_Roll_Callback:00000000 TaskFrame_Mav_PID_Roll_Callback
C:\Users\8bit\AppData\Local\Temp\ccqwqzi2.s:714    .text.TaskFrame_Mav_PID_Roll_Callback:00000028 $d
C:\Users\8bit\AppData\Local\Temp\ccqwqzi2.s:719    .text.TaskFrame_Mav_PID_Pitch_Callback:00000000 $t
C:\Users\8bit\AppData\Local\Temp\ccqwqzi2.s:724    .text.TaskFrame_Mav_PID_Pitch_Callback:00000000 TaskFrame_Mav_PID_Pitch_Callback
C:\Users\8bit\AppData\Local\Temp\ccqwqzi2.s:775    .text.TaskFrame_Mav_PID_Pitch_Callback:00000028 $d
C:\Users\8bit\AppData\Local\Temp\ccqwqzi2.s:780    .text.TaskFrame_Mav_PID_GyrX_Callback:00000000 $t
C:\Users\8bit\AppData\Local\Temp\ccqwqzi2.s:785    .text.TaskFrame_Mav_PID_GyrX_Callback:00000000 TaskFrame_Mav_PID_GyrX_Callback
C:\Users\8bit\AppData\Local\Temp\ccqwqzi2.s:836    .text.TaskFrame_Mav_PID_GyrX_Callback:00000028 $d
C:\Users\8bit\AppData\Local\Temp\ccqwqzi2.s:841    .text.TaskFrame_Mav_PID_GyrY_Callback:00000000 $t
C:\Users\8bit\AppData\Local\Temp\ccqwqzi2.s:846    .text.TaskFrame_Mav_PID_GyrY_Callback:00000000 TaskFrame_Mav_PID_GyrY_Callback
C:\Users\8bit\AppData\Local\Temp\ccqwqzi2.s:897    .text.TaskFrame_Mav_PID_GyrY_Callback:00000028 $d
C:\Users\8bit\AppData\Local\Temp\ccqwqzi2.s:902    .text.TaskFrame_Mav_PID_GyrZ_Callback:00000000 $t
C:\Users\8bit\AppData\Local\Temp\ccqwqzi2.s:907    .text.TaskFrame_Mav_PID_GyrZ_Callback:00000000 TaskFrame_Mav_PID_GyrZ_Callback
C:\Users\8bit\AppData\Local\Temp\ccqwqzi2.s:958    .text.TaskFrame_Mav_PID_GyrZ_Callback:00000028 $d
C:\Users\8bit\AppData\Local\Temp\ccqwqzi2.s:963    .text.TaskFrameCTL_MAV_Msg_Init:00000000 $t
C:\Users\8bit\AppData\Local\Temp\ccqwqzi2.s:968    .text.TaskFrameCTL_MAV_Msg_Init:00000000 TaskFrameCTL_MAV_Msg_Init
C:\Users\8bit\AppData\Local\Temp\ccqwqzi2.s:1012   .text.TaskFrameCTL_MAV_Msg_Init:00000018 $d
C:\Users\8bit\AppData\Local\Temp\ccqwqzi2.s:1019   .text.TaskFrameCTL_MAV_Msg_Init:0000001c $t
C:\Users\8bit\AppData\Local\Temp\ccqwqzi2.s:1518   .text.TaskFrameCTL_MAV_Msg_Init:000002fc $d
C:\Users\8bit\AppData\Local\Temp\ccqwqzi2.s:1549   .text.TaskFrameCTL_MAV_Msg_Init:00000374 $t
C:\Users\8bit\AppData\Local\Temp\ccqwqzi2.s:1570   .text.TaskFrameCTL_Port_Tx:00000000 $t
C:\Users\8bit\AppData\Local\Temp\ccqwqzi2.s:1575   .text.TaskFrameCTL_Port_Tx:00000000 TaskFrameCTL_Port_Tx
C:\Users\8bit\AppData\Local\Temp\ccqwqzi2.s:1692   .text.TaskFrameCTL_Port_Tx:00000068 $d
C:\Users\8bit\AppData\Local\Temp\ccqwqzi2.s:1698   .text.TaskFrameCTL_DefaultPort_Trans:00000000 $t
C:\Users\8bit\AppData\Local\Temp\ccqwqzi2.s:1703   .text.TaskFrameCTL_DefaultPort_Trans:00000000 TaskFrameCTL_DefaultPort_Trans
C:\Users\8bit\AppData\Local\Temp\ccqwqzi2.s:1796   .text.TaskFrameCTL_DefaultPort_Trans:00000050 $d
C:\Users\8bit\AppData\Local\Temp\ccqwqzi2.s:1802   .text.TaskFrameCTL_CLI_Trans:00000000 $t
C:\Users\8bit\AppData\Local\Temp\ccqwqzi2.s:1807   .text.TaskFrameCTL_CLI_Trans:00000000 TaskFrameCTL_CLI_Trans
C:\Users\8bit\AppData\Local\Temp\ccqwqzi2.s:1873   .text.TaskFrameCTL_CLI_Trans:0000002c $d
C:\Users\8bit\AppData\Local\Temp\ccqwqzi2.s:1878   .text.TaskFrameCTL_MavMsg_Trans:00000000 $t
C:\Users\8bit\AppData\Local\Temp\ccqwqzi2.s:1961   .text.TaskFrameCTL_Upgrade_Send:00000000 $t
C:\Users\8bit\AppData\Local\Temp\ccqwqzi2.s:1966   .text.TaskFrameCTL_Upgrade_Send:00000000 TaskFrameCTL_Upgrade_Send
C:\Users\8bit\AppData\Local\Temp\ccqwqzi2.s:2029   .text.TaskFrameCTL_Upgrade_Send:0000002c $d
C:\Users\8bit\AppData\Local\Temp\ccqwqzi2.s:2034   .text.TaskFrameCTL_DefaultPort_Init:00000000 $t
ARM GAS  C:\Users\8bit\AppData\Local\Temp\ccqwqzi2.s 			page 117


C:\Users\8bit\AppData\Local\Temp\ccqwqzi2.s:2039   .text.TaskFrameCTL_DefaultPort_Init:00000000 TaskFrameCTL_DefaultPort_Init
C:\Users\8bit\AppData\Local\Temp\ccqwqzi2.s:2165   .text.TaskFrameCTL_DefaultPort_Init:0000005c $d
C:\Users\8bit\AppData\Local\Temp\ccqwqzi2.s:2827   .text.TaskFrameCTL_Port_TxCplt_Callback:00000000 TaskFrameCTL_Port_TxCplt_Callback
C:\Users\8bit\AppData\Local\Temp\ccqwqzi2.s:2428   .text.TaskFrameCTL_Port_Rx_Callback:00000000 TaskFrameCTL_Port_Rx_Callback
C:\Users\8bit\AppData\Local\Temp\ccqwqzi2.s:2175   .text.TaskFrameCTL_RadioPort_Init:00000000 $t
C:\Users\8bit\AppData\Local\Temp\ccqwqzi2.s:2180   .text.TaskFrameCTL_RadioPort_Init:00000000 TaskFrameCTL_RadioPort_Init
C:\Users\8bit\AppData\Local\Temp\ccqwqzi2.s:2415   .text.TaskFrameCTL_RadioPort_Init:000000c8 $d
C:\Users\8bit\AppData\Local\Temp\ccqwqzi2.s:2423   .text.TaskFrameCTL_Port_Rx_Callback:00000000 $t
C:\Users\8bit\AppData\Local\Temp\ccqwqzi2.s:2807   .text.TaskFrameCTL_Port_Rx_Callback:00000190 $d
C:\Users\8bit\AppData\Local\Temp\ccqwqzi2.s:2822   .text.TaskFrameCTL_Port_TxCplt_Callback:00000000 $t
C:\Users\8bit\AppData\Local\Temp\ccqwqzi2.s:2948   .text.TaskFrameCTL_ConfigureStateCheck:00000000 $t
C:\Users\8bit\AppData\Local\Temp\ccqwqzi2.s:2953   .text.TaskFrameCTL_ConfigureStateCheck:00000000 TaskFrameCTL_ConfigureStateCheck
C:\Users\8bit\AppData\Local\Temp\ccqwqzi2.s:3043   .text.TaskFrameCTL_ConfigureStateCheck:00000050 $d
C:\Users\8bit\AppData\Local\Temp\ccqwqzi2.s:3055   .text.TaskFrameCTL_CLI_Proc:00000000 $t
C:\Users\8bit\AppData\Local\Temp\ccqwqzi2.s:3060   .text.TaskFrameCTL_CLI_Proc:00000000 TaskFrameCTL_CLI_Proc
C:\Users\8bit\AppData\Local\Temp\ccqwqzi2.s:3172   .text.TaskFrameCTL_CLI_Proc:00000054 $d
C:\Users\8bit\AppData\Local\Temp\ccqwqzi2.s:3178   .rodata.TaskFrameCTL_Upgrade_StatePolling.str1.4:00000000 $d
C:\Users\8bit\AppData\Local\Temp\ccqwqzi2.s:3197   .text.TaskFrameCTL_Upgrade_StatePolling:00000000 $t
C:\Users\8bit\AppData\Local\Temp\ccqwqzi2.s:3202   .text.TaskFrameCTL_Upgrade_StatePolling:00000000 TaskFrameCTL_Upgrade_StatePolling
C:\Users\8bit\AppData\Local\Temp\ccqwqzi2.s:3254   .text.TaskFrameCTL_Upgrade_StatePolling:00000026 $d
C:\Users\8bit\AppData\Local\Temp\ccqwqzi2.s:3262   .text.TaskFrameCTL_Upgrade_StatePolling:0000002e $t
C:\Users\8bit\AppData\Local\Temp\ccqwqzi2.s:3436   .text.TaskFrameCTL_Upgrade_StatePolling:000000d4 $d
C:\Users\8bit\AppData\Local\Temp\ccqwqzi2.s:3452   .rodata.TaskFermeCTL_CLI_DisableControl.str1.4:00000000 $d
C:\Users\8bit\AppData\Local\Temp\ccqwqzi2.s:3459   .text.TaskFermeCTL_CLI_DisableControl:00000000 $t
C:\Users\8bit\AppData\Local\Temp\ccqwqzi2.s:3464   .text.TaskFermeCTL_CLI_DisableControl:00000000 TaskFermeCTL_CLI_DisableControl
C:\Users\8bit\AppData\Local\Temp\ccqwqzi2.s:3527   .text.TaskFermeCTL_CLI_DisableControl:00000034 $d
C:\Users\8bit\AppData\Local\Temp\ccqwqzi2.s:3536   .rodata.TaskFrameCTL_FileAccept_Enable.str1.4:00000000 $d
C:\Users\8bit\AppData\Local\Temp\ccqwqzi2.s:3561   .text.TaskFrameCTL_FileAccept_Enable:00000000 $t
C:\Users\8bit\AppData\Local\Temp\ccqwqzi2.s:3566   .text.TaskFrameCTL_FileAccept_Enable:00000000 TaskFrameCTL_FileAccept_Enable
C:\Users\8bit\AppData\Local\Temp\ccqwqzi2.s:3740   .text.TaskFrameCTL_FileAccept_Enable:000000cc $d
C:\Users\8bit\AppData\Local\Temp\ccqwqzi2.s:3759   .text.TaskFrameCTL_Init:00000000 $t
C:\Users\8bit\AppData\Local\Temp\ccqwqzi2.s:3765   .text.TaskFrameCTL_Init:00000000 TaskFrameCTL_Init
C:\Users\8bit\AppData\Local\Temp\ccqwqzi2.s:3918   .text.TaskFrameCTL_Init:000000a4 $d
C:\Users\8bit\AppData\Local\Temp\ccqwqzi2.s:3935   .text.TaskFrameCTL_Core:00000000 $t
C:\Users\8bit\AppData\Local\Temp\ccqwqzi2.s:3941   .text.TaskFrameCTL_Core:00000000 TaskFrameCTL_Core
C:\Users\8bit\AppData\Local\Temp\ccqwqzi2.s:4026   .text.TaskFrameCTL_Core:00000054 $d
C:\Users\8bit\AppData\Local\Temp\ccqwqzi2.s:4383   shellCommand:00000000 shellCommandfile_rec
C:\Users\8bit\AppData\Local\Temp\ccqwqzi2.s:4377   .rodata.shellDescfile_rec:00000000 shellDescfile_rec
C:\Users\8bit\AppData\Local\Temp\ccqwqzi2.s:4365   .rodata.shellCmdfile_rec:00000000 shellCmdfile_rec
C:\Users\8bit\AppData\Local\Temp\ccqwqzi2.s:4390   shellCommand:00000010 shellCommandCLI_Disable
C:\Users\8bit\AppData\Local\Temp\ccqwqzi2.s:4371   .rodata.shellDescCLI_Disable:00000000 shellDescCLI_Disable
C:\Users\8bit\AppData\Local\Temp\ccqwqzi2.s:4359   .rodata.shellCmdCLI_Disable:00000000 shellCmdCLI_Disable
C:\Users\8bit\AppData\Local\Temp\ccqwqzi2.s:4135   .bss.RadioProto_MAV_Altitude:00000000 RadioProto_MAV_Altitude
C:\Users\8bit\AppData\Local\Temp\ccqwqzi2.s:4142   .bss.RadioProto_MAV_Attitude:00000000 RadioProto_MAV_Attitude
C:\Users\8bit\AppData\Local\Temp\ccqwqzi2.s:4149   .bss.RadioProto_MAV_MotoChannel:00000000 RadioProto_MAV_MotoChannel
C:\Users\8bit\AppData\Local\Temp\ccqwqzi2.s:4163   .bss.RadioProto_MAV_RcChannel:00000000 RadioProto_MAV_RcChannel
C:\Users\8bit\AppData\Local\Temp\ccqwqzi2.s:4170   .bss.RadioProto_MAV_ScaledIMU:00000000 RadioProto_MAV_ScaledIMU
C:\Users\8bit\AppData\Local\Temp\ccqwqzi2.s:4156   .bss.RadioProto_MAV_RawIMU:00000000 RadioProto_MAV_RawIMU
C:\Users\8bit\AppData\Local\Temp\ccqwqzi2.s:4190   .bss.TaskProto_MAV_Altitude:00000000 TaskProto_MAV_Altitude
C:\Users\8bit\AppData\Local\Temp\ccqwqzi2.s:4204   .bss.TaskProto_MAV_Exp_Attitude:00000000 TaskProto_MAV_Exp_Attitude
C:\Users\8bit\AppData\Local\Temp\ccqwqzi2.s:4197   .bss.TaskProto_MAV_Attitude:00000000 TaskProto_MAV_Attitude
C:\Users\8bit\AppData\Local\Temp\ccqwqzi2.s:4211   .bss.TaskProto_MAV_MotoChannel:00000000 TaskProto_MAV_MotoChannel
C:\Users\8bit\AppData\Local\Temp\ccqwqzi2.s:4225   .bss.TaskProto_MAV_RcChannel:00000000 TaskProto_MAV_RcChannel
C:\Users\8bit\AppData\Local\Temp\ccqwqzi2.s:4232   .bss.TaskProto_MAV_ScaledIMU:00000000 TaskProto_MAV_ScaledIMU
C:\Users\8bit\AppData\Local\Temp\ccqwqzi2.s:4218   .bss.TaskProto_MAV_RawIMU:00000000 TaskProto_MAV_RawIMU
C:\Users\8bit\AppData\Local\Temp\ccqwqzi2.s:4107   .bss.InPut_MavData:00000000 InPut_MavData
C:\Users\8bit\AppData\Local\Temp\ccqwqzi2.s:4054   .Perph_Section:00000000 $d
ARM GAS  C:\Users\8bit\AppData\Local\Temp\ccqwqzi2.s 			page 118


C:\Users\8bit\AppData\Local\Temp\ccqwqzi2.s:4058   .Perph_Section:00000000 VCP_Attach_State_PipeDataObj
C:\Users\8bit\AppData\Local\Temp\ccqwqzi2.s:4063   .Perph_Section:00000004 CLIRxBuf
C:\Users\8bit\AppData\Local\Temp\ccqwqzi2.s:4067   .Perph_Section:00000204 MavShareBuf
C:\Users\8bit\AppData\Local\Temp\ccqwqzi2.s:4070   .bss.CLIPrintBuf:00000000 $d
C:\Users\8bit\AppData\Local\Temp\ccqwqzi2.s:4074   .bss.CLIPrintBuf:00000000 CLIPrintBuf
C:\Users\8bit\AppData\Local\Temp\ccqwqzi2.s:4077   .bss.CLIProcBuf:00000000 $d
C:\Users\8bit\AppData\Local\Temp\ccqwqzi2.s:4080   .bss.CLIProcBuf:00000000 CLIProcBuf
C:\Users\8bit\AppData\Local\Temp\ccqwqzi2.s:4083   .bss.DefaultPort_MavMsgInput_Obj:00000000 $d
C:\Users\8bit\AppData\Local\Temp\ccqwqzi2.s:4087   .bss.DefaultPort_MavMsgInput_Obj:00000000 DefaultPort_MavMsgInput_Obj
C:\Users\8bit\AppData\Local\Temp\ccqwqzi2.s:4093   .bss.FrameCTL_MavProto_Enable:00000000 FrameCTL_MavProto_Enable
C:\Users\8bit\AppData\Local\Temp\ccqwqzi2.s:4094   .bss.FrameCTL_MavProto_Enable:00000000 $d
C:\Users\8bit\AppData\Local\Temp\ccqwqzi2.s:4096   .bss.FrameCTL_Period:00000000 $d
C:\Users\8bit\AppData\Local\Temp\ccqwqzi2.s:4100   .bss.FrameCTL_Period:00000000 FrameCTL_Period
C:\Users\8bit\AppData\Local\Temp\ccqwqzi2.s:4103   .bss.InPut_MavData:00000000 $d
C:\Users\8bit\AppData\Local\Temp\ccqwqzi2.s:4110   .bss.InUsePort_MavMsgInput_Obj:00000000 $d
C:\Users\8bit\AppData\Local\Temp\ccqwqzi2.s:4114   .bss.InUsePort_MavMsgInput_Obj:00000000 InUsePort_MavMsgInput_Obj
C:\Users\8bit\AppData\Local\Temp\ccqwqzi2.s:4117   .bss.PortMonitor:00000000 $d
C:\Users\8bit\AppData\Local\Temp\ccqwqzi2.s:4121   .bss.PortMonitor:00000000 PortMonitor
C:\Users\8bit\AppData\Local\Temp\ccqwqzi2.s:4124   .bss.RadioPort_MavMsgInput_Obj:00000000 $d
C:\Users\8bit\AppData\Local\Temp\ccqwqzi2.s:4128   .bss.RadioPort_MavMsgInput_Obj:00000000 RadioPort_MavMsgInput_Obj
C:\Users\8bit\AppData\Local\Temp\ccqwqzi2.s:4131   .bss.RadioProto_MAV_Altitude:00000000 $d
C:\Users\8bit\AppData\Local\Temp\ccqwqzi2.s:4138   .bss.RadioProto_MAV_Attitude:00000000 $d
C:\Users\8bit\AppData\Local\Temp\ccqwqzi2.s:4145   .bss.RadioProto_MAV_MotoChannel:00000000 $d
C:\Users\8bit\AppData\Local\Temp\ccqwqzi2.s:4152   .bss.RadioProto_MAV_RawIMU:00000000 $d
C:\Users\8bit\AppData\Local\Temp\ccqwqzi2.s:4159   .bss.RadioProto_MAV_RcChannel:00000000 $d
C:\Users\8bit\AppData\Local\Temp\ccqwqzi2.s:4166   .bss.RadioProto_MAV_ScaledIMU:00000000 $d
C:\Users\8bit\AppData\Local\Temp\ccqwqzi2.s:4173   .bss.RadioRxBuff:00000000 $d
C:\Users\8bit\AppData\Local\Temp\ccqwqzi2.s:4176   .bss.RadioRxBuff:00000000 RadioRxBuff
C:\Users\8bit\AppData\Local\Temp\ccqwqzi2.s:4179   .bss.Radio_Addr:00000000 $d
C:\Users\8bit\AppData\Local\Temp\ccqwqzi2.s:4183   .bss.Radio_Addr:00000000 Radio_Addr
C:\Users\8bit\AppData\Local\Temp\ccqwqzi2.s:4186   .bss.TaskProto_MAV_Altitude:00000000 $d
C:\Users\8bit\AppData\Local\Temp\ccqwqzi2.s:4193   .bss.TaskProto_MAV_Attitude:00000000 $d
C:\Users\8bit\AppData\Local\Temp\ccqwqzi2.s:4200   .bss.TaskProto_MAV_Exp_Attitude:00000000 $d
C:\Users\8bit\AppData\Local\Temp\ccqwqzi2.s:4207   .bss.TaskProto_MAV_MotoChannel:00000000 $d
C:\Users\8bit\AppData\Local\Temp\ccqwqzi2.s:4214   .bss.TaskProto_MAV_RawIMU:00000000 $d
C:\Users\8bit\AppData\Local\Temp\ccqwqzi2.s:4221   .bss.TaskProto_MAV_RcChannel:00000000 $d
C:\Users\8bit\AppData\Local\Temp\ccqwqzi2.s:4228   .bss.TaskProto_MAV_ScaledIMU:00000000 $d
C:\Users\8bit\AppData\Local\Temp\ccqwqzi2.s:4235   .bss.USB_RxBuf_Tmp:00000000 $d
C:\Users\8bit\AppData\Local\Temp\ccqwqzi2.s:4238   .bss.USB_RxBuf_Tmp:00000000 USB_RxBuf_Tmp
C:\Users\8bit\AppData\Local\Temp\ccqwqzi2.s:4241   .bss.USB_VCP_Addr:00000000 $d
C:\Users\8bit\AppData\Local\Temp\ccqwqzi2.s:4245   .bss.USB_VCP_Addr:00000000 USB_VCP_Addr
C:\Users\8bit\AppData\Local\Temp\ccqwqzi2.s:4248   .bss.Uart_RxBuf_Tmp:00000000 $d
C:\Users\8bit\AppData\Local\Temp\ccqwqzi2.s:4251   .bss.Uart_RxBuf_Tmp:00000000 Uart_RxBuf_Tmp
C:\Users\8bit\AppData\Local\Temp\ccqwqzi2.s:4254   .bss.Upgrade_Monitor:00000000 $d
C:\Users\8bit\AppData\Local\Temp\ccqwqzi2.s:4258   .bss.Upgrade_Monitor:00000000 Upgrade_Monitor
C:\Users\8bit\AppData\Local\Temp\ccqwqzi2.s:4261   .data.CLI_Monitor:00000000 $d
C:\Users\8bit\AppData\Local\Temp\ccqwqzi2.s:4265   .data.CLI_Monitor:00000000 CLI_Monitor
C:\Users\8bit\AppData\Local\Temp\ccqwqzi2.s:4285   .data.CLI_RX_Stream:00000000 CLI_RX_Stream
C:\Users\8bit\AppData\Local\Temp\ccqwqzi2.s:4277   .data.CLI_Proc_Stream:00000000 CLI_Proc_Stream
C:\Users\8bit\AppData\Local\Temp\ccqwqzi2.s:4274   .data.CLI_Proc_Stream:00000000 $d
C:\Users\8bit\AppData\Local\Temp\ccqwqzi2.s:4282   .data.CLI_RX_Stream:00000000 $d
C:\Users\8bit\AppData\Local\Temp\ccqwqzi2.s:4290   .data.MavStream:00000000 $d
C:\Users\8bit\AppData\Local\Temp\ccqwqzi2.s:4294   .data.MavStream:00000000 MavStream
C:\Users\8bit\AppData\Local\Temp\ccqwqzi2.s:4299   .data.Radio_Port1_UartObj:00000000 $d
C:\Users\8bit\AppData\Local\Temp\ccqwqzi2.s:4302   .data.Radio_Port1_UartObj:00000000 Radio_Port1_UartObj
C:\Users\8bit\AppData\Local\Temp\ccqwqzi2.s:4329   .data.Radio_UartPort_List:00000000 $d
C:\Users\8bit\AppData\Local\Temp\ccqwqzi2.s:4333   .data.Radio_UartPort_List:00000000 Radio_UartPort_List
ARM GAS  C:\Users\8bit\AppData\Local\Temp\ccqwqzi2.s 			page 119


C:\Users\8bit\AppData\Local\Temp\ccqwqzi2.s:4338   .data.USBRx_Stream:00000000 $d
C:\Users\8bit\AppData\Local\Temp\ccqwqzi2.s:4342   .data.USBRx_Stream:00000000 USBRx_Stream
C:\Users\8bit\AppData\Local\Temp\ccqwqzi2.s:4347   .data.UartRx_Stream:00000000 $d
C:\Users\8bit\AppData\Local\Temp\ccqwqzi2.s:4351   .data.UartRx_Stream:00000000 UartRx_Stream
C:\Users\8bit\AppData\Local\Temp\ccqwqzi2.s:4356   .rodata.shellCmdCLI_Disable:00000000 $d
C:\Users\8bit\AppData\Local\Temp\ccqwqzi2.s:4362   .rodata.shellCmdfile_rec:00000000 $d
C:\Users\8bit\AppData\Local\Temp\ccqwqzi2.s:4368   .rodata.shellDescCLI_Disable:00000000 $d
C:\Users\8bit\AppData\Local\Temp\ccqwqzi2.s:4374   .rodata.shellDescfile_rec:00000000 $d
C:\Users\8bit\AppData\Local\Temp\ccqwqzi2.s:4380   shellCommand:00000000 $d

UNDEFINED SYMBOLS
SrvOsCommon
SrvDataHub
SrvComProto
osSemaphoreWait
BspUart
BspUSB_VCP
osSemaphoreCreate
memcpy
memset
memmove
SrvUpgrade
osSemaphoreRelease
DataPipe_SendTo
VCP_Connect_hub_DataPipe
VCP_Connect_smp_DataPipe
Shell_GetInstence
shellHandler
shellPrint
AppVer
HWVer
Shell_Init
Uart1_Tx_Port
Uart1_Rx_Port
