ARM GAS  C:\Users\HUAV\AppData\Local\Temp\ccdeIiG8.s 			page 1


   1              		.cpu cortex-m7
   2              		.arch armv7e-m
   3              		.fpu fpv5-d16
   4              		.eabi_attribute 28, 1
   5              		.eabi_attribute 20, 1
   6              		.eabi_attribute 21, 1
   7              		.eabi_attribute 23, 3
   8              		.eabi_attribute 24, 1
   9              		.eabi_attribute 25, 1
  10              		.eabi_attribute 26, 1
  11              		.eabi_attribute 30, 1
  12              		.eabi_attribute 34, 1
  13              		.eabi_attribute 18, 4
  14              		.file	"Task_Manager.c"
  15              		.text
  16              	.Ltext0:
  17              		.cfi_sections	.debug_frame
  18              		.global	__aeabi_uldivmod
  19              		.section	.text.Test2,"ax",%progbits
  20              		.align	1
  21              		.global	Test2
  22              		.syntax unified
  23              		.thumb
  24              		.thumb_func
  26              	Test2:
  27              	.LVL0:
  28              	.LFB152:
  29              		.file 1 "Task/Task_Manager.c"
   1:Task/Task_Manager.c **** #include "Task_Manager.h"
   2:Task/Task_Manager.c **** #include "Task_Protocol.h"
   3:Task/Task_Manager.c **** #include "Task_SensorInertial.h"
   4:Task/Task_Manager.c **** #include "scheduler.h"
   5:Task/Task_Manager.c **** #include "debug_util.h"
   6:Task/Task_Manager.c **** #include "IO_Definition.h"
   7:Task/Task_Manager.c **** #include "runtime.h"
   8:Task/Task_Manager.c **** #include "Dev_Led.h"
   9:Task/Task_Manager.c **** #include "DiskIO.h"
  10:Task/Task_Manager.c **** 
  11:Task/Task_Manager.c **** Task_Handle TaskProtocol_Handle = NULL;
  12:Task/Task_Manager.c **** Task_Handle TaskInertial_Handle = NULL;
  13:Task/Task_Manager.c **** Task_Handle Test_Task = NULL;
  14:Task/Task_Manager.c **** Task_Handle Test2_Task = NULL;
  15:Task/Task_Manager.c **** 
  16:Task/Task_Manager.c **** void Test2(Task_Handle handle);
  17:Task/Task_Manager.c **** 
  18:Task/Task_Manager.c **** void test_PC0_ctl(void)
  19:Task/Task_Manager.c **** {
  20:Task/Task_Manager.c ****     DebugPin.ctl(Debug_PC0, true);
  21:Task/Task_Manager.c ****     DebugPin.ctl(Debug_PC0, false);
  22:Task/Task_Manager.c **** }
  23:Task/Task_Manager.c **** 
  24:Task/Task_Manager.c **** void test_PC1_ctl(void)
  25:Task/Task_Manager.c **** {
  26:Task/Task_Manager.c ****     DebugPin.ctl(Debug_PC1, true);
  27:Task/Task_Manager.c ****     DebugPin.ctl(Debug_PC1, false);
  28:Task/Task_Manager.c **** }
  29:Task/Task_Manager.c **** 
ARM GAS  C:\Users\HUAV\AppData\Local\Temp\ccdeIiG8.s 			page 2


  30:Task/Task_Manager.c **** void test_PC2_ctl(void)
  31:Task/Task_Manager.c **** {
  32:Task/Task_Manager.c ****     DebugPin.ctl(Debug_PC2, true);
  33:Task/Task_Manager.c ****     DebugPin.ctl(Debug_PC2, false);
  34:Task/Task_Manager.c **** }
  35:Task/Task_Manager.c **** 
  36:Task/Task_Manager.c **** void Task_Manager_Init(void)
  37:Task/Task_Manager.c **** {
  38:Task/Task_Manager.c ****     DevLED.init(Led1);
  39:Task/Task_Manager.c ****     DevLED.init(Led2);
  40:Task/Task_Manager.c ****     DevLED.init(Led3);
  41:Task/Task_Manager.c **** 
  42:Task/Task_Manager.c ****     DebugPin.init(Debug_PC0);
  43:Task/Task_Manager.c ****     DebugPin.init(Debug_PC1);
  44:Task/Task_Manager.c ****     DebugPin.init(Debug_PC2);
  45:Task/Task_Manager.c ****     DebugPin.init(Debug_PC3);
  46:Task/Task_Manager.c ****     DebugPin.init(Debug_PB3);
  47:Task/Task_Manager.c ****     DebugPin.init(Debug_PB4);
  48:Task/Task_Manager.c ****     DebugPin.init(Debug_PB5);
  49:Task/Task_Manager.c ****     DebugPin.init(Debug_PB6);
  50:Task/Task_Manager.c ****     DebugPin.init(Debug_PB10);
  51:Task/Task_Manager.c **** 
  52:Task/Task_Manager.c ****     TaskProtocol_Init();
  53:Task/Task_Manager.c ****     TaskInertial_Init();
  54:Task/Task_Manager.c **** 
  55:Task/Task_Manager.c ****     Disk_Init(TaskProto_PushProtocolQueue);
  56:Task/Task_Manager.c **** }
  57:Task/Task_Manager.c **** 
  58:Task/Task_Manager.c **** void Task_Manager_CreateTask(void)
  59:Task/Task_Manager.c **** {
  60:Task/Task_Manager.c ****     TaskInertial_Handle = Os_CreateTask("Inertial Sample", TASK_EXEC_2KHZ, Task_Group_0, Task_Group
  61:Task/Task_Manager.c ****     TaskProtocol_Handle = Os_CreateTask("Protocl", TASK_EXEC_20HZ, Task_Group_1, Task_Priority_0, T
  62:Task/Task_Manager.c ****     Test2_Task = Os_CreateTask("test2", TASK_EXEC_1KHZ, Task_Group_0, Task_Group_2, Test2, 256);
  63:Task/Task_Manager.c **** }
  64:Task/Task_Manager.c **** 
  65:Task/Task_Manager.c **** void Test2(Task_Handle handle)
  66:Task/Task_Manager.c **** {
  30              		.loc 1 66 1 view -0
  31              		.cfi_startproc
  32              		@ args = 0, pretend = 0, frame = 0
  33              		@ frame_needed = 0, uses_anonymous_args = 0
  34              		.loc 1 66 1 is_stmt 0 view .LVU1
  35 0000 38B5     		push	{r3, r4, r5, lr}
  36              	.LCFI0:
  37              		.cfi_def_cfa_offset 16
  38              		.cfi_offset 3, -16
  39              		.cfi_offset 4, -12
  40              		.cfi_offset 5, -8
  41              		.cfi_offset 14, -4
  67:Task/Task_Manager.c ****     SYSTEM_RunTime Rt = 0;
  42              		.loc 1 67 5 is_stmt 1 view .LVU2
  43              	.LVL1:
  68:Task/Task_Manager.c ****     static SYSTEM_RunTime Lst_Rt = 0;
  44              		.loc 1 68 5 view .LVU3
  69:Task/Task_Manager.c ****     static bool led_state = false;
  45              		.loc 1 69 5 view .LVU4
  70:Task/Task_Manager.c **** 
ARM GAS  C:\Users\HUAV\AppData\Local\Temp\ccdeIiG8.s 			page 3


  71:Task/Task_Manager.c ****     DebugPin.ctl(Debug_PB4, true);
  46              		.loc 1 71 5 view .LVU5
  47              		.loc 1 71 13 is_stmt 0 view .LVU6
  48 0002 174D     		ldr	r5, .L4
  49 0004 6B68     		ldr	r3, [r5, #4]
  50              		.loc 1 71 5 view .LVU7
  51 0006 174C     		ldr	r4, .L4+4
  52 0008 0122     		movs	r2, #1
  53 000a 94E80300 		ldm	r4, {r0, r1}
  54              	.LVL2:
  55              		.loc 1 71 5 view .LVU8
  56 000e 9847     		blx	r3
  57              	.LVL3:
  72:Task/Task_Manager.c ****     DebugPin.ctl(Debug_PB4, false);
  58              		.loc 1 72 5 is_stmt 1 view .LVU9
  59              		.loc 1 72 13 is_stmt 0 view .LVU10
  60 0010 6B68     		ldr	r3, [r5, #4]
  61              		.loc 1 72 5 view .LVU11
  62 0012 0022     		movs	r2, #0
  63 0014 94E80300 		ldm	r4, {r0, r1}
  64 0018 9847     		blx	r3
  65              	.LVL4:
  73:Task/Task_Manager.c **** 
  74:Task/Task_Manager.c ****     Rt = Get_CurrentRunningMs();
  66              		.loc 1 74 5 is_stmt 1 view .LVU12
  67              		.loc 1 74 10 is_stmt 0 view .LVU13
  68 001a FFF7FEFF 		bl	Get_CurrentRunningMs
  69              	.LVL5:
  70 001e 0546     		mov	r5, r0
  71 0020 0C46     		mov	r4, r1
  72              	.LVL6:
  75:Task/Task_Manager.c **** 
  76:Task/Task_Manager.c ****     if ((Rt % 100 == 0) && (Lst_Rt != Rt))
  73              		.loc 1 76 5 is_stmt 1 view .LVU14
  74              		.loc 1 76 13 is_stmt 0 view .LVU15
  75 0022 6422     		movs	r2, #100
  76 0024 0023     		movs	r3, #0
  77 0026 FFF7FEFF 		bl	__aeabi_uldivmod
  78              	.LVL7:
  79              		.loc 1 76 8 view .LVU16
  80 002a 1343     		orrs	r3, r3, r2
  81 002c 0ED1     		bne	.L2
  82              		.loc 1 76 36 discriminator 1 view .LVU17
  83 002e 0E4B     		ldr	r3, .L4+8
  84 0030 1A68     		ldr	r2, [r3]
  85 0032 5B68     		ldr	r3, [r3, #4]
  86              		.loc 1 76 25 discriminator 1 view .LVU18
  87 0034 A342     		cmp	r3, r4
  88 0036 08BF     		it	eq
  89 0038 AA42     		cmpeq	r2, r5
  90 003a 07D0     		beq	.L2
  77:Task/Task_Manager.c ****     {
  78:Task/Task_Manager.c ****         led_state = !led_state;
  91              		.loc 1 78 9 is_stmt 1 view .LVU19
  92 003c 0B4A     		ldr	r2, .L4+12
  93 003e 1378     		ldrb	r3, [r2]	@ zero_extendqisi2
  94 0040 83F00103 		eor	r3, r3, #1
ARM GAS  C:\Users\HUAV\AppData\Local\Temp\ccdeIiG8.s 			page 4


  95              		.loc 1 78 19 is_stmt 0 view .LVU20
  96 0044 1370     		strb	r3, [r2]
  79:Task/Task_Manager.c ****         Lst_Rt = Rt;
  97              		.loc 1 79 9 is_stmt 1 view .LVU21
  98              		.loc 1 79 16 is_stmt 0 view .LVU22
  99 0046 084B     		ldr	r3, .L4+8
 100 0048 1D60     		str	r5, [r3]
 101 004a 5C60     		str	r4, [r3, #4]
 102              	.L2:
  80:Task/Task_Manager.c ****     }
  81:Task/Task_Manager.c **** 
  82:Task/Task_Manager.c ****     DevLED.ctl(Led1, led_state);
 103              		.loc 1 82 5 is_stmt 1 view .LVU23
 104              		.loc 1 82 11 is_stmt 0 view .LVU24
 105 004c 084B     		ldr	r3, .L4+16
 106 004e 5C68     		ldr	r4, [r3, #4]
 107              	.LVL8:
 108              		.loc 1 82 5 view .LVU25
 109 0050 084B     		ldr	r3, .L4+20
 110 0052 064A     		ldr	r2, .L4+12
 111 0054 1278     		ldrb	r2, [r2]	@ zero_extendqisi2
 112 0056 93E80300 		ldm	r3, {r0, r1}
 113 005a A047     		blx	r4
 114              	.LVL9:
  83:Task/Task_Manager.c ****     // DevLED.ctl(Led3, led_state);
  84:Task/Task_Manager.c **** }
 115              		.loc 1 84 1 view .LVU26
 116 005c 38BD     		pop	{r3, r4, r5, pc}
 117              	.L5:
 118              		.loc 1 84 1 view .LVU27
 119 005e 00BF     		.align	2
 120              	.L4:
 121 0060 00000000 		.word	DebugPin
 122 0064 00000000 		.word	Debug_PB4
 123 0068 00000000 		.word	.LANCHOR0
 124 006c 00000000 		.word	.LANCHOR1
 125 0070 00000000 		.word	DevLED
 126 0074 00000000 		.word	Led1
 127              		.cfi_endproc
 128              	.LFE152:
 130              		.section	.text.test_PC0_ctl,"ax",%progbits
 131              		.align	1
 132              		.global	test_PC0_ctl
 133              		.syntax unified
 134              		.thumb
 135              		.thumb_func
 137              	test_PC0_ctl:
 138              	.LFB147:
  19:Task/Task_Manager.c ****     DebugPin.ctl(Debug_PC0, true);
 139              		.loc 1 19 1 is_stmt 1 view -0
 140              		.cfi_startproc
 141              		@ args = 0, pretend = 0, frame = 0
 142              		@ frame_needed = 0, uses_anonymous_args = 0
 143 0000 38B5     		push	{r3, r4, r5, lr}
 144              	.LCFI1:
 145              		.cfi_def_cfa_offset 16
 146              		.cfi_offset 3, -16
ARM GAS  C:\Users\HUAV\AppData\Local\Temp\ccdeIiG8.s 			page 5


 147              		.cfi_offset 4, -12
 148              		.cfi_offset 5, -8
 149              		.cfi_offset 14, -4
  20:Task/Task_Manager.c ****     DebugPin.ctl(Debug_PC0, false);
 150              		.loc 1 20 5 view .LVU29
  20:Task/Task_Manager.c ****     DebugPin.ctl(Debug_PC0, false);
 151              		.loc 1 20 13 is_stmt 0 view .LVU30
 152 0002 064D     		ldr	r5, .L8
 153 0004 6B68     		ldr	r3, [r5, #4]
  20:Task/Task_Manager.c ****     DebugPin.ctl(Debug_PC0, false);
 154              		.loc 1 20 5 view .LVU31
 155 0006 064C     		ldr	r4, .L8+4
 156 0008 0122     		movs	r2, #1
 157 000a 94E80300 		ldm	r4, {r0, r1}
 158 000e 9847     		blx	r3
 159              	.LVL10:
  21:Task/Task_Manager.c **** }
 160              		.loc 1 21 5 is_stmt 1 view .LVU32
  21:Task/Task_Manager.c **** }
 161              		.loc 1 21 13 is_stmt 0 view .LVU33
 162 0010 6B68     		ldr	r3, [r5, #4]
  21:Task/Task_Manager.c **** }
 163              		.loc 1 21 5 view .LVU34
 164 0012 0022     		movs	r2, #0
 165 0014 94E80300 		ldm	r4, {r0, r1}
 166 0018 9847     		blx	r3
 167              	.LVL11:
  22:Task/Task_Manager.c **** 
 168              		.loc 1 22 1 view .LVU35
 169 001a 38BD     		pop	{r3, r4, r5, pc}
 170              	.L9:
 171              		.align	2
 172              	.L8:
 173 001c 00000000 		.word	DebugPin
 174 0020 00000000 		.word	Debug_PC0
 175              		.cfi_endproc
 176              	.LFE147:
 178              		.section	.text.test_PC1_ctl,"ax",%progbits
 179              		.align	1
 180              		.global	test_PC1_ctl
 181              		.syntax unified
 182              		.thumb
 183              		.thumb_func
 185              	test_PC1_ctl:
 186              	.LFB148:
  25:Task/Task_Manager.c ****     DebugPin.ctl(Debug_PC1, true);
 187              		.loc 1 25 1 is_stmt 1 view -0
 188              		.cfi_startproc
 189              		@ args = 0, pretend = 0, frame = 0
 190              		@ frame_needed = 0, uses_anonymous_args = 0
 191 0000 38B5     		push	{r3, r4, r5, lr}
 192              	.LCFI2:
 193              		.cfi_def_cfa_offset 16
 194              		.cfi_offset 3, -16
 195              		.cfi_offset 4, -12
 196              		.cfi_offset 5, -8
 197              		.cfi_offset 14, -4
ARM GAS  C:\Users\HUAV\AppData\Local\Temp\ccdeIiG8.s 			page 6


  26:Task/Task_Manager.c ****     DebugPin.ctl(Debug_PC1, false);
 198              		.loc 1 26 5 view .LVU37
  26:Task/Task_Manager.c ****     DebugPin.ctl(Debug_PC1, false);
 199              		.loc 1 26 13 is_stmt 0 view .LVU38
 200 0002 064D     		ldr	r5, .L12
 201 0004 6B68     		ldr	r3, [r5, #4]
  26:Task/Task_Manager.c ****     DebugPin.ctl(Debug_PC1, false);
 202              		.loc 1 26 5 view .LVU39
 203 0006 064C     		ldr	r4, .L12+4
 204 0008 0122     		movs	r2, #1
 205 000a 94E80300 		ldm	r4, {r0, r1}
 206 000e 9847     		blx	r3
 207              	.LVL12:
  27:Task/Task_Manager.c **** }
 208              		.loc 1 27 5 is_stmt 1 view .LVU40
  27:Task/Task_Manager.c **** }
 209              		.loc 1 27 13 is_stmt 0 view .LVU41
 210 0010 6B68     		ldr	r3, [r5, #4]
  27:Task/Task_Manager.c **** }
 211              		.loc 1 27 5 view .LVU42
 212 0012 0022     		movs	r2, #0
 213 0014 94E80300 		ldm	r4, {r0, r1}
 214 0018 9847     		blx	r3
 215              	.LVL13:
  28:Task/Task_Manager.c **** 
 216              		.loc 1 28 1 view .LVU43
 217 001a 38BD     		pop	{r3, r4, r5, pc}
 218              	.L13:
 219              		.align	2
 220              	.L12:
 221 001c 00000000 		.word	DebugPin
 222 0020 00000000 		.word	Debug_PC1
 223              		.cfi_endproc
 224              	.LFE148:
 226              		.section	.text.test_PC2_ctl,"ax",%progbits
 227              		.align	1
 228              		.global	test_PC2_ctl
 229              		.syntax unified
 230              		.thumb
 231              		.thumb_func
 233              	test_PC2_ctl:
 234              	.LFB149:
  31:Task/Task_Manager.c ****     DebugPin.ctl(Debug_PC2, true);
 235              		.loc 1 31 1 is_stmt 1 view -0
 236              		.cfi_startproc
 237              		@ args = 0, pretend = 0, frame = 0
 238              		@ frame_needed = 0, uses_anonymous_args = 0
 239 0000 38B5     		push	{r3, r4, r5, lr}
 240              	.LCFI3:
 241              		.cfi_def_cfa_offset 16
 242              		.cfi_offset 3, -16
 243              		.cfi_offset 4, -12
 244              		.cfi_offset 5, -8
 245              		.cfi_offset 14, -4
  32:Task/Task_Manager.c ****     DebugPin.ctl(Debug_PC2, false);
 246              		.loc 1 32 5 view .LVU45
  32:Task/Task_Manager.c ****     DebugPin.ctl(Debug_PC2, false);
ARM GAS  C:\Users\HUAV\AppData\Local\Temp\ccdeIiG8.s 			page 7


 247              		.loc 1 32 13 is_stmt 0 view .LVU46
 248 0002 064D     		ldr	r5, .L16
 249 0004 6B68     		ldr	r3, [r5, #4]
  32:Task/Task_Manager.c ****     DebugPin.ctl(Debug_PC2, false);
 250              		.loc 1 32 5 view .LVU47
 251 0006 064C     		ldr	r4, .L16+4
 252 0008 0122     		movs	r2, #1
 253 000a 94E80300 		ldm	r4, {r0, r1}
 254 000e 9847     		blx	r3
 255              	.LVL14:
  33:Task/Task_Manager.c **** }
 256              		.loc 1 33 5 is_stmt 1 view .LVU48
  33:Task/Task_Manager.c **** }
 257              		.loc 1 33 13 is_stmt 0 view .LVU49
 258 0010 6B68     		ldr	r3, [r5, #4]
  33:Task/Task_Manager.c **** }
 259              		.loc 1 33 5 view .LVU50
 260 0012 0022     		movs	r2, #0
 261 0014 94E80300 		ldm	r4, {r0, r1}
 262 0018 9847     		blx	r3
 263              	.LVL15:
  34:Task/Task_Manager.c **** 
 264              		.loc 1 34 1 view .LVU51
 265 001a 38BD     		pop	{r3, r4, r5, pc}
 266              	.L17:
 267              		.align	2
 268              	.L16:
 269 001c 00000000 		.word	DebugPin
 270 0020 00000000 		.word	Debug_PC2
 271              		.cfi_endproc
 272              	.LFE149:
 274              		.section	.text.Task_Manager_Init,"ax",%progbits
 275              		.align	1
 276              		.global	Task_Manager_Init
 277              		.syntax unified
 278              		.thumb
 279              		.thumb_func
 281              	Task_Manager_Init:
 282              	.LFB150:
  37:Task/Task_Manager.c ****     DevLED.init(Led1);
 283              		.loc 1 37 1 is_stmt 1 view -0
 284              		.cfi_startproc
 285              		@ args = 0, pretend = 0, frame = 0
 286              		@ frame_needed = 0, uses_anonymous_args = 0
 287 0000 10B5     		push	{r4, lr}
 288              	.LCFI4:
 289              		.cfi_def_cfa_offset 8
 290              		.cfi_offset 4, -8
 291              		.cfi_offset 14, -4
  38:Task/Task_Manager.c ****     DevLED.init(Led2);
 292              		.loc 1 38 5 view .LVU53
  38:Task/Task_Manager.c ****     DevLED.init(Led2);
 293              		.loc 1 38 11 is_stmt 0 view .LVU54
 294 0002 234C     		ldr	r4, .L20
 295 0004 2268     		ldr	r2, [r4]
  38:Task/Task_Manager.c ****     DevLED.init(Led2);
 296              		.loc 1 38 5 view .LVU55
ARM GAS  C:\Users\HUAV\AppData\Local\Temp\ccdeIiG8.s 			page 8


 297 0006 234B     		ldr	r3, .L20+4
 298 0008 93E80300 		ldm	r3, {r0, r1}
 299 000c 9047     		blx	r2
 300              	.LVL16:
  39:Task/Task_Manager.c ****     DevLED.init(Led3);
 301              		.loc 1 39 5 is_stmt 1 view .LVU56
  39:Task/Task_Manager.c ****     DevLED.init(Led3);
 302              		.loc 1 39 11 is_stmt 0 view .LVU57
 303 000e 2268     		ldr	r2, [r4]
  39:Task/Task_Manager.c ****     DevLED.init(Led3);
 304              		.loc 1 39 5 view .LVU58
 305 0010 214B     		ldr	r3, .L20+8
 306 0012 93E80300 		ldm	r3, {r0, r1}
 307 0016 9047     		blx	r2
 308              	.LVL17:
  40:Task/Task_Manager.c **** 
 309              		.loc 1 40 5 is_stmt 1 view .LVU59
  40:Task/Task_Manager.c **** 
 310              		.loc 1 40 11 is_stmt 0 view .LVU60
 311 0018 2268     		ldr	r2, [r4]
  40:Task/Task_Manager.c **** 
 312              		.loc 1 40 5 view .LVU61
 313 001a 204B     		ldr	r3, .L20+12
 314 001c 93E80300 		ldm	r3, {r0, r1}
 315 0020 9047     		blx	r2
 316              	.LVL18:
  42:Task/Task_Manager.c ****     DebugPin.init(Debug_PC1);
 317              		.loc 1 42 5 is_stmt 1 view .LVU62
  42:Task/Task_Manager.c ****     DebugPin.init(Debug_PC1);
 318              		.loc 1 42 13 is_stmt 0 view .LVU63
 319 0022 1F4C     		ldr	r4, .L20+16
 320 0024 2268     		ldr	r2, [r4]
  42:Task/Task_Manager.c ****     DebugPin.init(Debug_PC1);
 321              		.loc 1 42 5 view .LVU64
 322 0026 1F4B     		ldr	r3, .L20+20
 323 0028 93E80300 		ldm	r3, {r0, r1}
 324 002c 9047     		blx	r2
 325              	.LVL19:
  43:Task/Task_Manager.c ****     DebugPin.init(Debug_PC2);
 326              		.loc 1 43 5 is_stmt 1 view .LVU65
  43:Task/Task_Manager.c ****     DebugPin.init(Debug_PC2);
 327              		.loc 1 43 13 is_stmt 0 view .LVU66
 328 002e 2268     		ldr	r2, [r4]
  43:Task/Task_Manager.c ****     DebugPin.init(Debug_PC2);
 329              		.loc 1 43 5 view .LVU67
 330 0030 1D4B     		ldr	r3, .L20+24
 331 0032 93E80300 		ldm	r3, {r0, r1}
 332 0036 9047     		blx	r2
 333              	.LVL20:
  44:Task/Task_Manager.c ****     DebugPin.init(Debug_PC3);
 334              		.loc 1 44 5 is_stmt 1 view .LVU68
  44:Task/Task_Manager.c ****     DebugPin.init(Debug_PC3);
 335              		.loc 1 44 13 is_stmt 0 view .LVU69
 336 0038 2268     		ldr	r2, [r4]
  44:Task/Task_Manager.c ****     DebugPin.init(Debug_PC3);
 337              		.loc 1 44 5 view .LVU70
 338 003a 1C4B     		ldr	r3, .L20+28
ARM GAS  C:\Users\HUAV\AppData\Local\Temp\ccdeIiG8.s 			page 9


 339 003c 93E80300 		ldm	r3, {r0, r1}
 340 0040 9047     		blx	r2
 341              	.LVL21:
  45:Task/Task_Manager.c ****     DebugPin.init(Debug_PB3);
 342              		.loc 1 45 5 is_stmt 1 view .LVU71
  45:Task/Task_Manager.c ****     DebugPin.init(Debug_PB3);
 343              		.loc 1 45 13 is_stmt 0 view .LVU72
 344 0042 2268     		ldr	r2, [r4]
  45:Task/Task_Manager.c ****     DebugPin.init(Debug_PB3);
 345              		.loc 1 45 5 view .LVU73
 346 0044 1A4B     		ldr	r3, .L20+32
 347 0046 93E80300 		ldm	r3, {r0, r1}
 348 004a 9047     		blx	r2
 349              	.LVL22:
  46:Task/Task_Manager.c ****     DebugPin.init(Debug_PB4);
 350              		.loc 1 46 5 is_stmt 1 view .LVU74
  46:Task/Task_Manager.c ****     DebugPin.init(Debug_PB4);
 351              		.loc 1 46 13 is_stmt 0 view .LVU75
 352 004c 2268     		ldr	r2, [r4]
  46:Task/Task_Manager.c ****     DebugPin.init(Debug_PB4);
 353              		.loc 1 46 5 view .LVU76
 354 004e 194B     		ldr	r3, .L20+36
 355 0050 93E80300 		ldm	r3, {r0, r1}
 356 0054 9047     		blx	r2
 357              	.LVL23:
  47:Task/Task_Manager.c ****     DebugPin.init(Debug_PB5);
 358              		.loc 1 47 5 is_stmt 1 view .LVU77
  47:Task/Task_Manager.c ****     DebugPin.init(Debug_PB5);
 359              		.loc 1 47 13 is_stmt 0 view .LVU78
 360 0056 2268     		ldr	r2, [r4]
  47:Task/Task_Manager.c ****     DebugPin.init(Debug_PB5);
 361              		.loc 1 47 5 view .LVU79
 362 0058 174B     		ldr	r3, .L20+40
 363 005a 93E80300 		ldm	r3, {r0, r1}
 364 005e 9047     		blx	r2
 365              	.LVL24:
  48:Task/Task_Manager.c ****     DebugPin.init(Debug_PB6);
 366              		.loc 1 48 5 is_stmt 1 view .LVU80
  48:Task/Task_Manager.c ****     DebugPin.init(Debug_PB6);
 367              		.loc 1 48 13 is_stmt 0 view .LVU81
 368 0060 2268     		ldr	r2, [r4]
  48:Task/Task_Manager.c ****     DebugPin.init(Debug_PB6);
 369              		.loc 1 48 5 view .LVU82
 370 0062 164B     		ldr	r3, .L20+44
 371 0064 93E80300 		ldm	r3, {r0, r1}
 372 0068 9047     		blx	r2
 373              	.LVL25:
  49:Task/Task_Manager.c ****     DebugPin.init(Debug_PB10);
 374              		.loc 1 49 5 is_stmt 1 view .LVU83
  49:Task/Task_Manager.c ****     DebugPin.init(Debug_PB10);
 375              		.loc 1 49 13 is_stmt 0 view .LVU84
 376 006a 2268     		ldr	r2, [r4]
  49:Task/Task_Manager.c ****     DebugPin.init(Debug_PB10);
 377              		.loc 1 49 5 view .LVU85
 378 006c 144B     		ldr	r3, .L20+48
 379 006e 93E80300 		ldm	r3, {r0, r1}
 380 0072 9047     		blx	r2
ARM GAS  C:\Users\HUAV\AppData\Local\Temp\ccdeIiG8.s 			page 10


 381              	.LVL26:
  50:Task/Task_Manager.c **** 
 382              		.loc 1 50 5 is_stmt 1 view .LVU86
  50:Task/Task_Manager.c **** 
 383              		.loc 1 50 13 is_stmt 0 view .LVU87
 384 0074 2268     		ldr	r2, [r4]
  50:Task/Task_Manager.c **** 
 385              		.loc 1 50 5 view .LVU88
 386 0076 134B     		ldr	r3, .L20+52
 387 0078 93E80300 		ldm	r3, {r0, r1}
 388 007c 9047     		blx	r2
 389              	.LVL27:
  52:Task/Task_Manager.c ****     TaskInertial_Init();
 390              		.loc 1 52 5 is_stmt 1 view .LVU89
 391 007e FFF7FEFF 		bl	TaskProtocol_Init
 392              	.LVL28:
  53:Task/Task_Manager.c **** 
 393              		.loc 1 53 5 view .LVU90
 394 0082 FFF7FEFF 		bl	TaskInertial_Init
 395              	.LVL29:
  55:Task/Task_Manager.c **** }
 396              		.loc 1 55 5 view .LVU91
 397 0086 1048     		ldr	r0, .L20+56
 398 0088 FFF7FEFF 		bl	Disk_Init
 399              	.LVL30:
  56:Task/Task_Manager.c **** 
 400              		.loc 1 56 1 is_stmt 0 view .LVU92
 401 008c 10BD     		pop	{r4, pc}
 402              	.L21:
 403 008e 00BF     		.align	2
 404              	.L20:
 405 0090 00000000 		.word	DevLED
 406 0094 00000000 		.word	Led1
 407 0098 00000000 		.word	Led2
 408 009c 00000000 		.word	Led3
 409 00a0 00000000 		.word	DebugPin
 410 00a4 00000000 		.word	Debug_PC0
 411 00a8 00000000 		.word	Debug_PC1
 412 00ac 00000000 		.word	Debug_PC2
 413 00b0 00000000 		.word	Debug_PC3
 414 00b4 00000000 		.word	Debug_PB3
 415 00b8 00000000 		.word	Debug_PB4
 416 00bc 00000000 		.word	Debug_PB5
 417 00c0 00000000 		.word	Debug_PB6
 418 00c4 00000000 		.word	Debug_PB10
 419 00c8 00000000 		.word	TaskProto_PushProtocolQueue
 420              		.cfi_endproc
 421              	.LFE150:
 423              		.section	.rodata.Task_Manager_CreateTask.str1.4,"aMS",%progbits,1
 424              		.align	2
 425              	.LC0:
 426 0000 496E6572 		.ascii	"Inertial Sample\000"
 426      7469616C 
 426      2053616D 
 426      706C6500 
 427              		.align	2
 428              	.LC1:
ARM GAS  C:\Users\HUAV\AppData\Local\Temp\ccdeIiG8.s 			page 11


 429 0010 50726F74 		.ascii	"Protocl\000"
 429      6F636C00 
 430              		.align	2
 431              	.LC2:
 432 0018 74657374 		.ascii	"test2\000"
 432      3200
 433              		.section	.text.Task_Manager_CreateTask,"ax",%progbits
 434              		.align	1
 435              		.global	Task_Manager_CreateTask
 436              		.syntax unified
 437              		.thumb
 438              		.thumb_func
 440              	Task_Manager_CreateTask:
 441              	.LFB151:
  59:Task/Task_Manager.c ****     TaskInertial_Handle = Os_CreateTask("Inertial Sample", TASK_EXEC_2KHZ, Task_Group_0, Task_Group
 442              		.loc 1 59 1 is_stmt 1 view -0
 443              		.cfi_startproc
 444              		@ args = 0, pretend = 0, frame = 0
 445              		@ frame_needed = 0, uses_anonymous_args = 0
 446 0000 00B5     		push	{lr}
 447              	.LCFI5:
 448              		.cfi_def_cfa_offset 4
 449              		.cfi_offset 14, -4
 450 0002 83B0     		sub	sp, sp, #12
 451              	.LCFI6:
 452              		.cfi_def_cfa_offset 16
  60:Task/Task_Manager.c ****     TaskProtocol_Handle = Os_CreateTask("Protocl", TASK_EXEC_20HZ, Task_Group_1, Task_Priority_0, T
 453              		.loc 1 60 5 view .LVU94
  60:Task/Task_Manager.c ****     TaskProtocol_Handle = Os_CreateTask("Protocl", TASK_EXEC_20HZ, Task_Group_1, Task_Priority_0, T
 454              		.loc 1 60 27 is_stmt 0 view .LVU95
 455 0004 4FF40053 		mov	r3, #8192
 456 0008 0193     		str	r3, [sp, #4]
 457 000a 144B     		ldr	r3, .L24
 458 000c 0093     		str	r3, [sp]
 459 000e 0023     		movs	r3, #0
 460 0010 1A46     		mov	r2, r3
 461 0012 4FF4FA61 		mov	r1, #2000
 462 0016 1248     		ldr	r0, .L24+4
 463 0018 FFF7FEFF 		bl	Os_CreateTask
 464              	.LVL31:
  60:Task/Task_Manager.c ****     TaskProtocol_Handle = Os_CreateTask("Protocl", TASK_EXEC_20HZ, Task_Group_1, Task_Priority_0, T
 465              		.loc 1 60 25 view .LVU96
 466 001c 114B     		ldr	r3, .L24+8
 467 001e 1860     		str	r0, [r3]
  61:Task/Task_Manager.c ****     Test2_Task = Os_CreateTask("test2", TASK_EXEC_1KHZ, Task_Group_0, Task_Group_2, Test2, 256);
 468              		.loc 1 61 5 is_stmt 1 view .LVU97
  61:Task/Task_Manager.c ****     Test2_Task = Os_CreateTask("test2", TASK_EXEC_1KHZ, Task_Group_0, Task_Group_2, Test2, 256);
 469              		.loc 1 61 27 is_stmt 0 view .LVU98
 470 0020 4FF48053 		mov	r3, #4096
 471 0024 0193     		str	r3, [sp, #4]
 472 0026 104B     		ldr	r3, .L24+12
 473 0028 0093     		str	r3, [sp]
 474 002a 0023     		movs	r3, #0
 475 002c 0122     		movs	r2, #1
 476 002e 1421     		movs	r1, #20
 477 0030 0E48     		ldr	r0, .L24+16
 478 0032 FFF7FEFF 		bl	Os_CreateTask
ARM GAS  C:\Users\HUAV\AppData\Local\Temp\ccdeIiG8.s 			page 12


 479              	.LVL32:
  61:Task/Task_Manager.c ****     Test2_Task = Os_CreateTask("test2", TASK_EXEC_1KHZ, Task_Group_0, Task_Group_2, Test2, 256);
 480              		.loc 1 61 25 view .LVU99
 481 0036 0E4B     		ldr	r3, .L24+20
 482 0038 1860     		str	r0, [r3]
  62:Task/Task_Manager.c **** }
 483              		.loc 1 62 5 is_stmt 1 view .LVU100
  62:Task/Task_Manager.c **** }
 484              		.loc 1 62 18 is_stmt 0 view .LVU101
 485 003a 4FF48073 		mov	r3, #256
 486 003e 0193     		str	r3, [sp, #4]
 487 0040 0C4B     		ldr	r3, .L24+24
 488 0042 0093     		str	r3, [sp]
 489 0044 0223     		movs	r3, #2
 490 0046 0022     		movs	r2, #0
 491 0048 4FF47A71 		mov	r1, #1000
 492 004c 0A48     		ldr	r0, .L24+28
 493 004e FFF7FEFF 		bl	Os_CreateTask
 494              	.LVL33:
  62:Task/Task_Manager.c **** }
 495              		.loc 1 62 16 view .LVU102
 496 0052 0A4B     		ldr	r3, .L24+32
 497 0054 1860     		str	r0, [r3]
  63:Task/Task_Manager.c **** 
 498              		.loc 1 63 1 view .LVU103
 499 0056 03B0     		add	sp, sp, #12
 500              	.LCFI7:
 501              		.cfi_def_cfa_offset 4
 502              		@ sp needed
 503 0058 5DF804FB 		ldr	pc, [sp], #4
 504              	.L25:
 505              		.align	2
 506              	.L24:
 507 005c 00000000 		.word	TaskInertical_Core
 508 0060 00000000 		.word	.LC0
 509 0064 00000000 		.word	.LANCHOR2
 510 0068 00000000 		.word	TaskProtocol_Core
 511 006c 10000000 		.word	.LC1
 512 0070 00000000 		.word	.LANCHOR3
 513 0074 00000000 		.word	Test2
 514 0078 18000000 		.word	.LC2
 515 007c 00000000 		.word	.LANCHOR4
 516              		.cfi_endproc
 517              	.LFE151:
 519              		.global	Test2_Task
 520              		.global	Test_Task
 521              		.global	TaskInertial_Handle
 522              		.global	TaskProtocol_Handle
 523              		.section	.bss.Lst_Rt.1,"aw",%nobits
 524              		.align	3
 525              		.set	.LANCHOR0,. + 0
 528              	Lst_Rt.1:
 529 0000 00000000 		.space	8
 529      00000000 
 530              		.section	.bss.TaskInertial_Handle,"aw",%nobits
 531              		.align	2
 532              		.set	.LANCHOR2,. + 0
ARM GAS  C:\Users\HUAV\AppData\Local\Temp\ccdeIiG8.s 			page 13


 535              	TaskInertial_Handle:
 536 0000 00000000 		.space	4
 537              		.section	.bss.TaskProtocol_Handle,"aw",%nobits
 538              		.align	2
 539              		.set	.LANCHOR3,. + 0
 542              	TaskProtocol_Handle:
 543 0000 00000000 		.space	4
 544              		.section	.bss.Test2_Task,"aw",%nobits
 545              		.align	2
 546              		.set	.LANCHOR4,. + 0
 549              	Test2_Task:
 550 0000 00000000 		.space	4
 551              		.section	.bss.Test_Task,"aw",%nobits
 552              		.align	2
 555              	Test_Task:
 556 0000 00000000 		.space	4
 557              		.section	.bss.led_state.0,"aw",%nobits
 558              		.set	.LANCHOR1,. + 0
 561              	led_state.0:
 562 0000 00       		.space	1
 563              		.text
 564              	.Letext0:
 565              		.file 2 "c:\\program files (x86)\\gnu arm embedded toolchain\\10 2021.10\\arm-none-eabi\\include\\
 566              		.file 3 "c:\\program files (x86)\\gnu arm embedded toolchain\\10 2021.10\\arm-none-eabi\\include\\
 567              		.file 4 "System/runtime/runtime.h"
 568              		.file 5 "HAL_Lib/CMSIS/Device/ST/STM32H7xx/Include/stm32h743xx.h"
 569              		.file 6 "HAL_Lib/STM32H7xx_HAL_Driver/Inc/stm32h7xx_hal_gpio.h"
 570              		.file 7 "System/scheduler/scheduler.h"
 571              		.file 8 "Service/imu_data.h"
 572              		.file 9 "Bsp/Bsp_GPIO.h"
 573              		.file 10 "debug/debug_util.h"
 574              		.file 11 "Task/Task_Manager.h"
 575              		.file 12 "Device/Dev_Led.h"
 576              		.file 13 "IO_Def/IO_Definition.h"
 577              		.file 14 "Task/Task_Protocol.h"
 578              		.file 15 "Task/Task_SensorInertial.h"
 579              		.file 16 "System/diskio/DiskIO.h"
ARM GAS  C:\Users\HUAV\AppData\Local\Temp\ccdeIiG8.s 			page 14


DEFINED SYMBOLS
                            *ABS*:00000000 Task_Manager.c
C:\Users\HUAV\AppData\Local\Temp\ccdeIiG8.s:20     .text.Test2:00000000 $t
C:\Users\HUAV\AppData\Local\Temp\ccdeIiG8.s:26     .text.Test2:00000000 Test2
C:\Users\HUAV\AppData\Local\Temp\ccdeIiG8.s:121    .text.Test2:00000060 $d
C:\Users\HUAV\AppData\Local\Temp\ccdeIiG8.s:131    .text.test_PC0_ctl:00000000 $t
C:\Users\HUAV\AppData\Local\Temp\ccdeIiG8.s:137    .text.test_PC0_ctl:00000000 test_PC0_ctl
C:\Users\HUAV\AppData\Local\Temp\ccdeIiG8.s:173    .text.test_PC0_ctl:0000001c $d
C:\Users\HUAV\AppData\Local\Temp\ccdeIiG8.s:179    .text.test_PC1_ctl:00000000 $t
C:\Users\HUAV\AppData\Local\Temp\ccdeIiG8.s:185    .text.test_PC1_ctl:00000000 test_PC1_ctl
C:\Users\HUAV\AppData\Local\Temp\ccdeIiG8.s:221    .text.test_PC1_ctl:0000001c $d
C:\Users\HUAV\AppData\Local\Temp\ccdeIiG8.s:227    .text.test_PC2_ctl:00000000 $t
C:\Users\HUAV\AppData\Local\Temp\ccdeIiG8.s:233    .text.test_PC2_ctl:00000000 test_PC2_ctl
C:\Users\HUAV\AppData\Local\Temp\ccdeIiG8.s:269    .text.test_PC2_ctl:0000001c $d
C:\Users\HUAV\AppData\Local\Temp\ccdeIiG8.s:275    .text.Task_Manager_Init:00000000 $t
C:\Users\HUAV\AppData\Local\Temp\ccdeIiG8.s:281    .text.Task_Manager_Init:00000000 Task_Manager_Init
C:\Users\HUAV\AppData\Local\Temp\ccdeIiG8.s:405    .text.Task_Manager_Init:00000090 $d
C:\Users\HUAV\AppData\Local\Temp\ccdeIiG8.s:424    .rodata.Task_Manager_CreateTask.str1.4:00000000 $d
C:\Users\HUAV\AppData\Local\Temp\ccdeIiG8.s:434    .text.Task_Manager_CreateTask:00000000 $t
C:\Users\HUAV\AppData\Local\Temp\ccdeIiG8.s:440    .text.Task_Manager_CreateTask:00000000 Task_Manager_CreateTask
C:\Users\HUAV\AppData\Local\Temp\ccdeIiG8.s:507    .text.Task_Manager_CreateTask:0000005c $d
C:\Users\HUAV\AppData\Local\Temp\ccdeIiG8.s:549    .bss.Test2_Task:00000000 Test2_Task
C:\Users\HUAV\AppData\Local\Temp\ccdeIiG8.s:555    .bss.Test_Task:00000000 Test_Task
C:\Users\HUAV\AppData\Local\Temp\ccdeIiG8.s:535    .bss.TaskInertial_Handle:00000000 TaskInertial_Handle
C:\Users\HUAV\AppData\Local\Temp\ccdeIiG8.s:542    .bss.TaskProtocol_Handle:00000000 TaskProtocol_Handle
C:\Users\HUAV\AppData\Local\Temp\ccdeIiG8.s:524    .bss.Lst_Rt.1:00000000 $d
C:\Users\HUAV\AppData\Local\Temp\ccdeIiG8.s:528    .bss.Lst_Rt.1:00000000 Lst_Rt.1
C:\Users\HUAV\AppData\Local\Temp\ccdeIiG8.s:531    .bss.TaskInertial_Handle:00000000 $d
C:\Users\HUAV\AppData\Local\Temp\ccdeIiG8.s:538    .bss.TaskProtocol_Handle:00000000 $d
C:\Users\HUAV\AppData\Local\Temp\ccdeIiG8.s:545    .bss.Test2_Task:00000000 $d
C:\Users\HUAV\AppData\Local\Temp\ccdeIiG8.s:552    .bss.Test_Task:00000000 $d
C:\Users\HUAV\AppData\Local\Temp\ccdeIiG8.s:561    .bss.led_state.0:00000000 led_state.0
C:\Users\HUAV\AppData\Local\Temp\ccdeIiG8.s:562    .bss.led_state.0:00000000 $d

UNDEFINED SYMBOLS
__aeabi_uldivmod
Get_CurrentRunningMs
DebugPin
Debug_PB4
DevLED
Led1
Debug_PC0
Debug_PC1
Debug_PC2
TaskProtocol_Init
TaskInertial_Init
Disk_Init
Led2
Led3
Debug_PC3
Debug_PB3
Debug_PB5
Debug_PB6
Debug_PB10
TaskProto_PushProtocolQueue
Os_CreateTask
TaskInertical_Core
ARM GAS  C:\Users\HUAV\AppData\Local\Temp\ccdeIiG8.s 			page 15


TaskProtocol_Core
