ARM GAS  /var/folders/lx/hc4sn_b53233_zkc9xbbl97r0000gp/T//ccRTj0wY.s 			page 1


   1              		.cpu cortex-m7
   2              		.eabi_attribute 28, 1
   3              		.eabi_attribute 20, 1
   4              		.eabi_attribute 21, 1
   5              		.eabi_attribute 23, 3
   6              		.eabi_attribute 24, 1
   7              		.eabi_attribute 25, 1
   8              		.eabi_attribute 26, 1
   9              		.eabi_attribute 30, 1
  10              		.eabi_attribute 34, 1
  11              		.eabi_attribute 18, 4
  12              		.file	"usbd_desc.c"
  13              		.text
  14              	.Ltext0:
  15              		.cfi_sections	.debug_frame
  16              		.section	.text.USBD_FS_DeviceDescriptor,"ax",%progbits
  17              		.align	1
  18              		.global	USBD_FS_DeviceDescriptor
  19              		.arch armv7e-m
  20              		.syntax unified
  21              		.thumb
  22              		.thumb_func
  23              		.fpu fpv5-d16
  25              	USBD_FS_DeviceDescriptor:
  26              	.LVL0:
  27              	.LFB148:
  28              		.file 1 "USB/USB_DEVICE/App/usbd_desc.c"
   1:USB/USB_DEVICE/App/usbd_desc.c **** /* USER CODE BEGIN Header */
   2:USB/USB_DEVICE/App/usbd_desc.c **** /**
   3:USB/USB_DEVICE/App/usbd_desc.c ****  ******************************************************************************
   4:USB/USB_DEVICE/App/usbd_desc.c ****  * @file           : App/usbd_desc.c
   5:USB/USB_DEVICE/App/usbd_desc.c ****  * @version        : v1.0_Cube
   6:USB/USB_DEVICE/App/usbd_desc.c ****  * @brief          : This file implements the USB device descriptors.
   7:USB/USB_DEVICE/App/usbd_desc.c ****  ******************************************************************************
   8:USB/USB_DEVICE/App/usbd_desc.c ****  * @attention
   9:USB/USB_DEVICE/App/usbd_desc.c ****  *
  10:USB/USB_DEVICE/App/usbd_desc.c ****  * <h2><center>&copy; Copyright (c) 2022 STMicroelectronics.
  11:USB/USB_DEVICE/App/usbd_desc.c ****  * All rights reserved.</center></h2>
  12:USB/USB_DEVICE/App/usbd_desc.c ****  *
  13:USB/USB_DEVICE/App/usbd_desc.c ****  * This software component is licensed by ST under Ultimate Liberty license
  14:USB/USB_DEVICE/App/usbd_desc.c ****  * SLA0044, the "License"; You may not use this file except in compliance with
  15:USB/USB_DEVICE/App/usbd_desc.c ****  * the License. You may obtain a copy of the License at:
  16:USB/USB_DEVICE/App/usbd_desc.c ****  *                             www.st.com/SLA0044
  17:USB/USB_DEVICE/App/usbd_desc.c ****  *
  18:USB/USB_DEVICE/App/usbd_desc.c ****  ******************************************************************************
  19:USB/USB_DEVICE/App/usbd_desc.c ****  */
  20:USB/USB_DEVICE/App/usbd_desc.c **** /* USER CODE END Header */
  21:USB/USB_DEVICE/App/usbd_desc.c **** 
  22:USB/USB_DEVICE/App/usbd_desc.c **** /* Includes ------------------------------------------------------------------*/
  23:USB/USB_DEVICE/App/usbd_desc.c **** #include "usbd_core.h"
  24:USB/USB_DEVICE/App/usbd_desc.c **** #include "usbd_desc.h"
  25:USB/USB_DEVICE/App/usbd_desc.c **** #include "usbd_conf.h"
  26:USB/USB_DEVICE/App/usbd_desc.c **** 
  27:USB/USB_DEVICE/App/usbd_desc.c **** /* USER CODE BEGIN INCLUDE */
  28:USB/USB_DEVICE/App/usbd_desc.c **** 
  29:USB/USB_DEVICE/App/usbd_desc.c **** /* USER CODE END INCLUDE */
  30:USB/USB_DEVICE/App/usbd_desc.c **** 
ARM GAS  /var/folders/lx/hc4sn_b53233_zkc9xbbl97r0000gp/T//ccRTj0wY.s 			page 2


  31:USB/USB_DEVICE/App/usbd_desc.c **** /* Private typedef -----------------------------------------------------------*/
  32:USB/USB_DEVICE/App/usbd_desc.c **** /* Private define ------------------------------------------------------------*/
  33:USB/USB_DEVICE/App/usbd_desc.c **** /* Private macro -------------------------------------------------------------*/
  34:USB/USB_DEVICE/App/usbd_desc.c **** 
  35:USB/USB_DEVICE/App/usbd_desc.c **** /* USER CODE BEGIN PV */
  36:USB/USB_DEVICE/App/usbd_desc.c **** /* Private variables ---------------------------------------------------------*/
  37:USB/USB_DEVICE/App/usbd_desc.c **** 
  38:USB/USB_DEVICE/App/usbd_desc.c **** /* USER CODE END PV */
  39:USB/USB_DEVICE/App/usbd_desc.c **** 
  40:USB/USB_DEVICE/App/usbd_desc.c **** /** @addtogroup STM32_USB_OTG_DEVICE_LIBRARY
  41:USB/USB_DEVICE/App/usbd_desc.c ****  * @{
  42:USB/USB_DEVICE/App/usbd_desc.c ****  */
  43:USB/USB_DEVICE/App/usbd_desc.c **** 
  44:USB/USB_DEVICE/App/usbd_desc.c **** /** @addtogroup USBD_DESC
  45:USB/USB_DEVICE/App/usbd_desc.c ****  * @{
  46:USB/USB_DEVICE/App/usbd_desc.c ****  */
  47:USB/USB_DEVICE/App/usbd_desc.c **** 
  48:USB/USB_DEVICE/App/usbd_desc.c **** /** @defgroup USBD_DESC_Private_TypesDefinitions USBD_DESC_Private_TypesDefinitions
  49:USB/USB_DEVICE/App/usbd_desc.c ****  * @brief Private types.
  50:USB/USB_DEVICE/App/usbd_desc.c ****  * @{
  51:USB/USB_DEVICE/App/usbd_desc.c ****  */
  52:USB/USB_DEVICE/App/usbd_desc.c **** 
  53:USB/USB_DEVICE/App/usbd_desc.c **** /* USER CODE BEGIN PRIVATE_TYPES */
  54:USB/USB_DEVICE/App/usbd_desc.c **** 
  55:USB/USB_DEVICE/App/usbd_desc.c **** /* USER CODE END PRIVATE_TYPES */
  56:USB/USB_DEVICE/App/usbd_desc.c **** 
  57:USB/USB_DEVICE/App/usbd_desc.c **** /**
  58:USB/USB_DEVICE/App/usbd_desc.c ****  * @}
  59:USB/USB_DEVICE/App/usbd_desc.c ****  */
  60:USB/USB_DEVICE/App/usbd_desc.c **** 
  61:USB/USB_DEVICE/App/usbd_desc.c **** /** @defgroup USBD_DESC_Private_Defines USBD_DESC_Private_Defines
  62:USB/USB_DEVICE/App/usbd_desc.c ****  * @brief Private defines.
  63:USB/USB_DEVICE/App/usbd_desc.c ****  * @{
  64:USB/USB_DEVICE/App/usbd_desc.c ****  */
  65:USB/USB_DEVICE/App/usbd_desc.c **** 
  66:USB/USB_DEVICE/App/usbd_desc.c **** #define USBD_VID 1155
  67:USB/USB_DEVICE/App/usbd_desc.c **** #define USBD_LANGID_STRING 1033
  68:USB/USB_DEVICE/App/usbd_desc.c **** #define USBD_MANUFACTURER_STRING "8_B!T0"
  69:USB/USB_DEVICE/App/usbd_desc.c **** #define USBD_PID_FS 22336
  70:USB/USB_DEVICE/App/usbd_desc.c **** #define USBD_PRODUCT_STRING_FS "H7FC"
  71:USB/USB_DEVICE/App/usbd_desc.c **** #define USBD_CONFIGURATION_STRING_FS "CDC Config"
  72:USB/USB_DEVICE/App/usbd_desc.c **** #define USBD_INTERFACE_STRING_FS "CDC Interface"
  73:USB/USB_DEVICE/App/usbd_desc.c **** 
  74:USB/USB_DEVICE/App/usbd_desc.c **** /* USER CODE BEGIN PRIVATE_DEFINES */
  75:USB/USB_DEVICE/App/usbd_desc.c **** 
  76:USB/USB_DEVICE/App/usbd_desc.c **** /* USER CODE END PRIVATE_DEFINES */
  77:USB/USB_DEVICE/App/usbd_desc.c **** 
  78:USB/USB_DEVICE/App/usbd_desc.c **** /**
  79:USB/USB_DEVICE/App/usbd_desc.c ****  * @}
  80:USB/USB_DEVICE/App/usbd_desc.c ****  */
  81:USB/USB_DEVICE/App/usbd_desc.c **** 
  82:USB/USB_DEVICE/App/usbd_desc.c **** /* USER CODE BEGIN 0 */
  83:USB/USB_DEVICE/App/usbd_desc.c **** 
  84:USB/USB_DEVICE/App/usbd_desc.c **** /* USER CODE END 0 */
  85:USB/USB_DEVICE/App/usbd_desc.c **** 
  86:USB/USB_DEVICE/App/usbd_desc.c **** /** @defgroup USBD_DESC_Private_Macros USBD_DESC_Private_Macros
  87:USB/USB_DEVICE/App/usbd_desc.c ****  * @brief Private macros.
ARM GAS  /var/folders/lx/hc4sn_b53233_zkc9xbbl97r0000gp/T//ccRTj0wY.s 			page 3


  88:USB/USB_DEVICE/App/usbd_desc.c ****  * @{
  89:USB/USB_DEVICE/App/usbd_desc.c ****  */
  90:USB/USB_DEVICE/App/usbd_desc.c **** 
  91:USB/USB_DEVICE/App/usbd_desc.c **** /* USER CODE BEGIN PRIVATE_MACRO */
  92:USB/USB_DEVICE/App/usbd_desc.c **** 
  93:USB/USB_DEVICE/App/usbd_desc.c **** /* USER CODE END PRIVATE_MACRO */
  94:USB/USB_DEVICE/App/usbd_desc.c **** 
  95:USB/USB_DEVICE/App/usbd_desc.c **** /**
  96:USB/USB_DEVICE/App/usbd_desc.c ****  * @}
  97:USB/USB_DEVICE/App/usbd_desc.c ****  */
  98:USB/USB_DEVICE/App/usbd_desc.c **** 
  99:USB/USB_DEVICE/App/usbd_desc.c **** /** @defgroup USBD_DESC_Private_FunctionPrototypes USBD_DESC_Private_FunctionPrototypes
 100:USB/USB_DEVICE/App/usbd_desc.c ****  * @brief Private functions declaration.
 101:USB/USB_DEVICE/App/usbd_desc.c ****  * @{
 102:USB/USB_DEVICE/App/usbd_desc.c ****  */
 103:USB/USB_DEVICE/App/usbd_desc.c **** 
 104:USB/USB_DEVICE/App/usbd_desc.c **** static void Get_SerialNum(void);
 105:USB/USB_DEVICE/App/usbd_desc.c **** static void IntToUnicode(uint32_t value, uint8_t *pbuf, uint8_t len);
 106:USB/USB_DEVICE/App/usbd_desc.c **** 
 107:USB/USB_DEVICE/App/usbd_desc.c **** /**
 108:USB/USB_DEVICE/App/usbd_desc.c ****  * @}
 109:USB/USB_DEVICE/App/usbd_desc.c ****  */
 110:USB/USB_DEVICE/App/usbd_desc.c **** 
 111:USB/USB_DEVICE/App/usbd_desc.c **** /** @defgroup USBD_DESC_Private_FunctionPrototypes USBD_DESC_Private_FunctionPrototypes
 112:USB/USB_DEVICE/App/usbd_desc.c ****  * @brief Private functions declaration for FS.
 113:USB/USB_DEVICE/App/usbd_desc.c ****  * @{
 114:USB/USB_DEVICE/App/usbd_desc.c ****  */
 115:USB/USB_DEVICE/App/usbd_desc.c **** 
 116:USB/USB_DEVICE/App/usbd_desc.c **** uint8_t *USBD_FS_DeviceDescriptor(USBD_SpeedTypeDef speed, uint16_t *length);
 117:USB/USB_DEVICE/App/usbd_desc.c **** uint8_t *USBD_FS_LangIDStrDescriptor(USBD_SpeedTypeDef speed, uint16_t *length);
 118:USB/USB_DEVICE/App/usbd_desc.c **** uint8_t *USBD_FS_ManufacturerStrDescriptor(USBD_SpeedTypeDef speed, uint16_t *length);
 119:USB/USB_DEVICE/App/usbd_desc.c **** uint8_t *USBD_FS_ProductStrDescriptor(USBD_SpeedTypeDef speed, uint16_t *length);
 120:USB/USB_DEVICE/App/usbd_desc.c **** uint8_t *USBD_FS_SerialStrDescriptor(USBD_SpeedTypeDef speed, uint16_t *length);
 121:USB/USB_DEVICE/App/usbd_desc.c **** uint8_t *USBD_FS_ConfigStrDescriptor(USBD_SpeedTypeDef speed, uint16_t *length);
 122:USB/USB_DEVICE/App/usbd_desc.c **** uint8_t *USBD_FS_InterfaceStrDescriptor(USBD_SpeedTypeDef speed, uint16_t *length);
 123:USB/USB_DEVICE/App/usbd_desc.c **** 
 124:USB/USB_DEVICE/App/usbd_desc.c **** /**
 125:USB/USB_DEVICE/App/usbd_desc.c ****  * @}
 126:USB/USB_DEVICE/App/usbd_desc.c ****  */
 127:USB/USB_DEVICE/App/usbd_desc.c **** 
 128:USB/USB_DEVICE/App/usbd_desc.c **** /** @defgroup USBD_DESC_Private_Variables USBD_DESC_Private_Variables
 129:USB/USB_DEVICE/App/usbd_desc.c ****  * @brief Private variables.
 130:USB/USB_DEVICE/App/usbd_desc.c ****  * @{
 131:USB/USB_DEVICE/App/usbd_desc.c ****  */
 132:USB/USB_DEVICE/App/usbd_desc.c **** 
 133:USB/USB_DEVICE/App/usbd_desc.c **** USBD_DescriptorsTypeDef FS_Desc =
 134:USB/USB_DEVICE/App/usbd_desc.c ****     {
 135:USB/USB_DEVICE/App/usbd_desc.c ****         USBD_FS_DeviceDescriptor, USBD_FS_LangIDStrDescriptor, USBD_FS_ManufacturerStrDescriptor, U
 136:USB/USB_DEVICE/App/usbd_desc.c **** 
 137:USB/USB_DEVICE/App/usbd_desc.c **** #if defined(__ICCARM__) /* IAR Compiler */
 138:USB/USB_DEVICE/App/usbd_desc.c **** #pragma data_alignment = 4
 139:USB/USB_DEVICE/App/usbd_desc.c **** #endif /* defined ( __ICCARM__ ) */
 140:USB/USB_DEVICE/App/usbd_desc.c **** /** USB standard device descriptor. */
 141:USB/USB_DEVICE/App/usbd_desc.c **** __ALIGN_BEGIN uint8_t USBD_FS_DeviceDesc[USB_LEN_DEV_DESC] __ALIGN_END =
 142:USB/USB_DEVICE/App/usbd_desc.c ****     {
 143:USB/USB_DEVICE/App/usbd_desc.c ****         0x12,                 /*bLength */
 144:USB/USB_DEVICE/App/usbd_desc.c ****         USB_DESC_TYPE_DEVICE, /*bDescriptorType*/
ARM GAS  /var/folders/lx/hc4sn_b53233_zkc9xbbl97r0000gp/T//ccRTj0wY.s 			page 4


 145:USB/USB_DEVICE/App/usbd_desc.c ****         0x00,                 /*bcdUSB */
 146:USB/USB_DEVICE/App/usbd_desc.c ****         0x02,
 147:USB/USB_DEVICE/App/usbd_desc.c ****         0x02,                /*bDeviceClass*/
 148:USB/USB_DEVICE/App/usbd_desc.c ****         0x02,                /*bDeviceSubClass*/
 149:USB/USB_DEVICE/App/usbd_desc.c ****         0x00,                /*bDeviceProtocol*/
 150:USB/USB_DEVICE/App/usbd_desc.c ****         USB_MAX_EP0_SIZE,    /*bMaxPacketSize*/
 151:USB/USB_DEVICE/App/usbd_desc.c ****         LOBYTE(USBD_VID),    /*idVendor*/
 152:USB/USB_DEVICE/App/usbd_desc.c ****         HIBYTE(USBD_VID),    /*idVendor*/
 153:USB/USB_DEVICE/App/usbd_desc.c ****         LOBYTE(USBD_PID_FS), /*idProduct*/
 154:USB/USB_DEVICE/App/usbd_desc.c ****         HIBYTE(USBD_PID_FS), /*idProduct*/
 155:USB/USB_DEVICE/App/usbd_desc.c ****         0x00,                /*bcdDevice rel. 2.00*/
 156:USB/USB_DEVICE/App/usbd_desc.c ****         0x02,
 157:USB/USB_DEVICE/App/usbd_desc.c ****         USBD_IDX_MFC_STR,          /*Index of manufacturer  string*/
 158:USB/USB_DEVICE/App/usbd_desc.c ****         USBD_IDX_PRODUCT_STR,      /*Index of product string*/
 159:USB/USB_DEVICE/App/usbd_desc.c ****         USBD_IDX_SERIAL_STR,       /*Index of serial number string*/
 160:USB/USB_DEVICE/App/usbd_desc.c ****         USBD_MAX_NUM_CONFIGURATION /*bNumConfigurations*/
 161:USB/USB_DEVICE/App/usbd_desc.c **** };
 162:USB/USB_DEVICE/App/usbd_desc.c **** 
 163:USB/USB_DEVICE/App/usbd_desc.c **** /* USB_DeviceDescriptor */
 164:USB/USB_DEVICE/App/usbd_desc.c **** 
 165:USB/USB_DEVICE/App/usbd_desc.c **** /**
 166:USB/USB_DEVICE/App/usbd_desc.c ****  * @}
 167:USB/USB_DEVICE/App/usbd_desc.c ****  */
 168:USB/USB_DEVICE/App/usbd_desc.c **** 
 169:USB/USB_DEVICE/App/usbd_desc.c **** /** @defgroup USBD_DESC_Private_Variables USBD_DESC_Private_Variables
 170:USB/USB_DEVICE/App/usbd_desc.c ****  * @brief Private variables.
 171:USB/USB_DEVICE/App/usbd_desc.c ****  * @{
 172:USB/USB_DEVICE/App/usbd_desc.c ****  */
 173:USB/USB_DEVICE/App/usbd_desc.c **** 
 174:USB/USB_DEVICE/App/usbd_desc.c **** #if defined(__ICCARM__) /* IAR Compiler */
 175:USB/USB_DEVICE/App/usbd_desc.c **** #pragma data_alignment = 4
 176:USB/USB_DEVICE/App/usbd_desc.c **** #endif /* defined ( __ICCARM__ ) */
 177:USB/USB_DEVICE/App/usbd_desc.c **** 
 178:USB/USB_DEVICE/App/usbd_desc.c **** /** USB lang indentifier descriptor. */
 179:USB/USB_DEVICE/App/usbd_desc.c **** __ALIGN_BEGIN uint8_t USBD_LangIDDesc[USB_LEN_LANGID_STR_DESC] __ALIGN_END =
 180:USB/USB_DEVICE/App/usbd_desc.c ****     {
 181:USB/USB_DEVICE/App/usbd_desc.c ****         USB_LEN_LANGID_STR_DESC,
 182:USB/USB_DEVICE/App/usbd_desc.c ****         USB_DESC_TYPE_STRING,
 183:USB/USB_DEVICE/App/usbd_desc.c ****         LOBYTE(USBD_LANGID_STRING),
 184:USB/USB_DEVICE/App/usbd_desc.c ****         HIBYTE(USBD_LANGID_STRING)};
 185:USB/USB_DEVICE/App/usbd_desc.c **** 
 186:USB/USB_DEVICE/App/usbd_desc.c **** #if defined(__ICCARM__) /* IAR Compiler */
 187:USB/USB_DEVICE/App/usbd_desc.c **** #pragma data_alignment = 4
 188:USB/USB_DEVICE/App/usbd_desc.c **** #endif /* defined ( __ICCARM__ ) */
 189:USB/USB_DEVICE/App/usbd_desc.c **** /* Internal string descriptor. */
 190:USB/USB_DEVICE/App/usbd_desc.c **** __ALIGN_BEGIN uint8_t USBD_StrDesc[USBD_MAX_STR_DESC_SIZ] __ALIGN_END;
 191:USB/USB_DEVICE/App/usbd_desc.c **** 
 192:USB/USB_DEVICE/App/usbd_desc.c **** #if defined(__ICCARM__) /*!< IAR Compiler */
 193:USB/USB_DEVICE/App/usbd_desc.c **** #pragma data_alignment = 4
 194:USB/USB_DEVICE/App/usbd_desc.c **** #endif
 195:USB/USB_DEVICE/App/usbd_desc.c **** __ALIGN_BEGIN uint8_t USBD_StringSerial[USB_SIZ_STRING_SERIAL] __ALIGN_END = {
 196:USB/USB_DEVICE/App/usbd_desc.c ****     USB_SIZ_STRING_SERIAL,
 197:USB/USB_DEVICE/App/usbd_desc.c ****     USB_DESC_TYPE_STRING,
 198:USB/USB_DEVICE/App/usbd_desc.c **** };
 199:USB/USB_DEVICE/App/usbd_desc.c **** 
 200:USB/USB_DEVICE/App/usbd_desc.c **** /**
 201:USB/USB_DEVICE/App/usbd_desc.c ****  * @}
ARM GAS  /var/folders/lx/hc4sn_b53233_zkc9xbbl97r0000gp/T//ccRTj0wY.s 			page 5


 202:USB/USB_DEVICE/App/usbd_desc.c ****  */
 203:USB/USB_DEVICE/App/usbd_desc.c **** 
 204:USB/USB_DEVICE/App/usbd_desc.c **** /** @defgroup USBD_DESC_Private_Functions USBD_DESC_Private_Functions
 205:USB/USB_DEVICE/App/usbd_desc.c ****  * @brief Private functions.
 206:USB/USB_DEVICE/App/usbd_desc.c ****  * @{
 207:USB/USB_DEVICE/App/usbd_desc.c ****  */
 208:USB/USB_DEVICE/App/usbd_desc.c **** 
 209:USB/USB_DEVICE/App/usbd_desc.c **** /**
 210:USB/USB_DEVICE/App/usbd_desc.c ****  * @brief  Return the device descriptor
 211:USB/USB_DEVICE/App/usbd_desc.c ****  * @param  speed : Current device speed
 212:USB/USB_DEVICE/App/usbd_desc.c ****  * @param  length : Pointer to data length variable
 213:USB/USB_DEVICE/App/usbd_desc.c ****  * @retval Pointer to descriptor buffer
 214:USB/USB_DEVICE/App/usbd_desc.c ****  */
 215:USB/USB_DEVICE/App/usbd_desc.c **** uint8_t *USBD_FS_DeviceDescriptor(USBD_SpeedTypeDef speed, uint16_t *length)
 216:USB/USB_DEVICE/App/usbd_desc.c **** {
  29              		.loc 1 216 1 view -0
  30              		.cfi_startproc
  31              		@ args = 0, pretend = 0, frame = 0
  32              		@ frame_needed = 0, uses_anonymous_args = 0
  33              		@ link register save eliminated.
 217:USB/USB_DEVICE/App/usbd_desc.c ****   UNUSED(speed);
  34              		.loc 1 217 3 view .LVU1
 218:USB/USB_DEVICE/App/usbd_desc.c ****   *length = sizeof(USBD_FS_DeviceDesc);
  35              		.loc 1 218 3 view .LVU2
  36              		.loc 1 218 11 is_stmt 0 view .LVU3
  37 0000 1223     		movs	r3, #18
  38 0002 0B80     		strh	r3, [r1]	@ movhi
 219:USB/USB_DEVICE/App/usbd_desc.c ****   return USBD_FS_DeviceDesc;
  39              		.loc 1 219 3 is_stmt 1 view .LVU4
 220:USB/USB_DEVICE/App/usbd_desc.c **** }
  40              		.loc 1 220 1 is_stmt 0 view .LVU5
  41 0004 0048     		ldr	r0, .L2
  42              	.LVL1:
  43              		.loc 1 220 1 view .LVU6
  44 0006 7047     		bx	lr
  45              	.L3:
  46              		.align	2
  47              	.L2:
  48 0008 00000000 		.word	.LANCHOR0
  49              		.cfi_endproc
  50              	.LFE148:
  52              		.section	.text.USBD_FS_LangIDStrDescriptor,"ax",%progbits
  53              		.align	1
  54              		.global	USBD_FS_LangIDStrDescriptor
  55              		.syntax unified
  56              		.thumb
  57              		.thumb_func
  58              		.fpu fpv5-d16
  60              	USBD_FS_LangIDStrDescriptor:
  61              	.LVL2:
  62              	.LFB149:
 221:USB/USB_DEVICE/App/usbd_desc.c **** 
 222:USB/USB_DEVICE/App/usbd_desc.c **** /**
 223:USB/USB_DEVICE/App/usbd_desc.c ****  * @brief  Return the LangID string descriptor
 224:USB/USB_DEVICE/App/usbd_desc.c ****  * @param  speed : Current device speed
 225:USB/USB_DEVICE/App/usbd_desc.c ****  * @param  length : Pointer to data length variable
 226:USB/USB_DEVICE/App/usbd_desc.c ****  * @retval Pointer to descriptor buffer
ARM GAS  /var/folders/lx/hc4sn_b53233_zkc9xbbl97r0000gp/T//ccRTj0wY.s 			page 6


 227:USB/USB_DEVICE/App/usbd_desc.c ****  */
 228:USB/USB_DEVICE/App/usbd_desc.c **** uint8_t *USBD_FS_LangIDStrDescriptor(USBD_SpeedTypeDef speed, uint16_t *length)
 229:USB/USB_DEVICE/App/usbd_desc.c **** {
  63              		.loc 1 229 1 is_stmt 1 view -0
  64              		.cfi_startproc
  65              		@ args = 0, pretend = 0, frame = 0
  66              		@ frame_needed = 0, uses_anonymous_args = 0
  67              		@ link register save eliminated.
 230:USB/USB_DEVICE/App/usbd_desc.c ****   UNUSED(speed);
  68              		.loc 1 230 3 view .LVU8
 231:USB/USB_DEVICE/App/usbd_desc.c ****   *length = sizeof(USBD_LangIDDesc);
  69              		.loc 1 231 3 view .LVU9
  70              		.loc 1 231 11 is_stmt 0 view .LVU10
  71 0000 0423     		movs	r3, #4
  72 0002 0B80     		strh	r3, [r1]	@ movhi
 232:USB/USB_DEVICE/App/usbd_desc.c ****   return USBD_LangIDDesc;
  73              		.loc 1 232 3 is_stmt 1 view .LVU11
 233:USB/USB_DEVICE/App/usbd_desc.c **** }
  74              		.loc 1 233 1 is_stmt 0 view .LVU12
  75 0004 0048     		ldr	r0, .L5
  76              	.LVL3:
  77              		.loc 1 233 1 view .LVU13
  78 0006 7047     		bx	lr
  79              	.L6:
  80              		.align	2
  81              	.L5:
  82 0008 00000000 		.word	.LANCHOR1
  83              		.cfi_endproc
  84              	.LFE149:
  86              		.section	.text.IntToUnicode,"ax",%progbits
  87              		.align	1
  88              		.syntax unified
  89              		.thumb
  90              		.thumb_func
  91              		.fpu fpv5-d16
  93              	IntToUnicode:
  94              	.LVL4:
  95              	.LFB156:
 234:USB/USB_DEVICE/App/usbd_desc.c **** 
 235:USB/USB_DEVICE/App/usbd_desc.c **** /**
 236:USB/USB_DEVICE/App/usbd_desc.c ****  * @brief  Return the product string descriptor
 237:USB/USB_DEVICE/App/usbd_desc.c ****  * @param  speed : Current device speed
 238:USB/USB_DEVICE/App/usbd_desc.c ****  * @param  length : Pointer to data length variable
 239:USB/USB_DEVICE/App/usbd_desc.c ****  * @retval Pointer to descriptor buffer
 240:USB/USB_DEVICE/App/usbd_desc.c ****  */
 241:USB/USB_DEVICE/App/usbd_desc.c **** uint8_t *USBD_FS_ProductStrDescriptor(USBD_SpeedTypeDef speed, uint16_t *length)
 242:USB/USB_DEVICE/App/usbd_desc.c **** {
 243:USB/USB_DEVICE/App/usbd_desc.c ****   if (speed == 0)
 244:USB/USB_DEVICE/App/usbd_desc.c ****   {
 245:USB/USB_DEVICE/App/usbd_desc.c ****     USBD_GetString((uint8_t *)USBD_PRODUCT_STRING_FS, USBD_StrDesc, length);
 246:USB/USB_DEVICE/App/usbd_desc.c ****   }
 247:USB/USB_DEVICE/App/usbd_desc.c ****   else
 248:USB/USB_DEVICE/App/usbd_desc.c ****   {
 249:USB/USB_DEVICE/App/usbd_desc.c ****     USBD_GetString((uint8_t *)USBD_PRODUCT_STRING_FS, USBD_StrDesc, length);
 250:USB/USB_DEVICE/App/usbd_desc.c ****   }
 251:USB/USB_DEVICE/App/usbd_desc.c ****   return USBD_StrDesc;
 252:USB/USB_DEVICE/App/usbd_desc.c **** }
ARM GAS  /var/folders/lx/hc4sn_b53233_zkc9xbbl97r0000gp/T//ccRTj0wY.s 			page 7


 253:USB/USB_DEVICE/App/usbd_desc.c **** 
 254:USB/USB_DEVICE/App/usbd_desc.c **** /**
 255:USB/USB_DEVICE/App/usbd_desc.c ****  * @brief  Return the manufacturer string descriptor
 256:USB/USB_DEVICE/App/usbd_desc.c ****  * @param  speed : Current device speed
 257:USB/USB_DEVICE/App/usbd_desc.c ****  * @param  length : Pointer to data length variable
 258:USB/USB_DEVICE/App/usbd_desc.c ****  * @retval Pointer to descriptor buffer
 259:USB/USB_DEVICE/App/usbd_desc.c ****  */
 260:USB/USB_DEVICE/App/usbd_desc.c **** uint8_t *USBD_FS_ManufacturerStrDescriptor(USBD_SpeedTypeDef speed, uint16_t *length)
 261:USB/USB_DEVICE/App/usbd_desc.c **** {
 262:USB/USB_DEVICE/App/usbd_desc.c ****   UNUSED(speed);
 263:USB/USB_DEVICE/App/usbd_desc.c ****   USBD_GetString((uint8_t *)USBD_MANUFACTURER_STRING, USBD_StrDesc, length);
 264:USB/USB_DEVICE/App/usbd_desc.c ****   return USBD_StrDesc;
 265:USB/USB_DEVICE/App/usbd_desc.c **** }
 266:USB/USB_DEVICE/App/usbd_desc.c **** 
 267:USB/USB_DEVICE/App/usbd_desc.c **** /**
 268:USB/USB_DEVICE/App/usbd_desc.c ****  * @brief  Return the serial number string descriptor
 269:USB/USB_DEVICE/App/usbd_desc.c ****  * @param  speed : Current device speed
 270:USB/USB_DEVICE/App/usbd_desc.c ****  * @param  length : Pointer to data length variable
 271:USB/USB_DEVICE/App/usbd_desc.c ****  * @retval Pointer to descriptor buffer
 272:USB/USB_DEVICE/App/usbd_desc.c ****  */
 273:USB/USB_DEVICE/App/usbd_desc.c **** uint8_t *USBD_FS_SerialStrDescriptor(USBD_SpeedTypeDef speed, uint16_t *length)
 274:USB/USB_DEVICE/App/usbd_desc.c **** {
 275:USB/USB_DEVICE/App/usbd_desc.c ****   UNUSED(speed);
 276:USB/USB_DEVICE/App/usbd_desc.c ****   *length = USB_SIZ_STRING_SERIAL;
 277:USB/USB_DEVICE/App/usbd_desc.c **** 
 278:USB/USB_DEVICE/App/usbd_desc.c ****   /* Update the serial number string descriptor with the data from the unique
 279:USB/USB_DEVICE/App/usbd_desc.c ****    * ID */
 280:USB/USB_DEVICE/App/usbd_desc.c ****   Get_SerialNum();
 281:USB/USB_DEVICE/App/usbd_desc.c ****   /* USER CODE BEGIN USBD_FS_SerialStrDescriptor */
 282:USB/USB_DEVICE/App/usbd_desc.c **** 
 283:USB/USB_DEVICE/App/usbd_desc.c ****   /* USER CODE END USBD_FS_SerialStrDescriptor */
 284:USB/USB_DEVICE/App/usbd_desc.c ****   return (uint8_t *)USBD_StringSerial;
 285:USB/USB_DEVICE/App/usbd_desc.c **** }
 286:USB/USB_DEVICE/App/usbd_desc.c **** 
 287:USB/USB_DEVICE/App/usbd_desc.c **** /**
 288:USB/USB_DEVICE/App/usbd_desc.c ****  * @brief  Return the configuration string descriptor
 289:USB/USB_DEVICE/App/usbd_desc.c ****  * @param  speed : Current device speed
 290:USB/USB_DEVICE/App/usbd_desc.c ****  * @param  length : Pointer to data length variable
 291:USB/USB_DEVICE/App/usbd_desc.c ****  * @retval Pointer to descriptor buffer
 292:USB/USB_DEVICE/App/usbd_desc.c ****  */
 293:USB/USB_DEVICE/App/usbd_desc.c **** uint8_t *USBD_FS_ConfigStrDescriptor(USBD_SpeedTypeDef speed, uint16_t *length)
 294:USB/USB_DEVICE/App/usbd_desc.c **** {
 295:USB/USB_DEVICE/App/usbd_desc.c ****   if (speed == USBD_SPEED_HIGH)
 296:USB/USB_DEVICE/App/usbd_desc.c ****   {
 297:USB/USB_DEVICE/App/usbd_desc.c ****     USBD_GetString((uint8_t *)USBD_CONFIGURATION_STRING_FS, USBD_StrDesc, length);
 298:USB/USB_DEVICE/App/usbd_desc.c ****   }
 299:USB/USB_DEVICE/App/usbd_desc.c ****   else
 300:USB/USB_DEVICE/App/usbd_desc.c ****   {
 301:USB/USB_DEVICE/App/usbd_desc.c ****     USBD_GetString((uint8_t *)USBD_CONFIGURATION_STRING_FS, USBD_StrDesc, length);
 302:USB/USB_DEVICE/App/usbd_desc.c ****   }
 303:USB/USB_DEVICE/App/usbd_desc.c ****   return USBD_StrDesc;
 304:USB/USB_DEVICE/App/usbd_desc.c **** }
 305:USB/USB_DEVICE/App/usbd_desc.c **** 
 306:USB/USB_DEVICE/App/usbd_desc.c **** /**
 307:USB/USB_DEVICE/App/usbd_desc.c ****  * @brief  Return the interface string descriptor
 308:USB/USB_DEVICE/App/usbd_desc.c ****  * @param  speed : Current device speed
 309:USB/USB_DEVICE/App/usbd_desc.c ****  * @param  length : Pointer to data length variable
ARM GAS  /var/folders/lx/hc4sn_b53233_zkc9xbbl97r0000gp/T//ccRTj0wY.s 			page 8


 310:USB/USB_DEVICE/App/usbd_desc.c ****  * @retval Pointer to descriptor buffer
 311:USB/USB_DEVICE/App/usbd_desc.c ****  */
 312:USB/USB_DEVICE/App/usbd_desc.c **** uint8_t *USBD_FS_InterfaceStrDescriptor(USBD_SpeedTypeDef speed, uint16_t *length)
 313:USB/USB_DEVICE/App/usbd_desc.c **** {
 314:USB/USB_DEVICE/App/usbd_desc.c ****   if (speed == 0)
 315:USB/USB_DEVICE/App/usbd_desc.c ****   {
 316:USB/USB_DEVICE/App/usbd_desc.c ****     USBD_GetString((uint8_t *)USBD_INTERFACE_STRING_FS, USBD_StrDesc, length);
 317:USB/USB_DEVICE/App/usbd_desc.c ****   }
 318:USB/USB_DEVICE/App/usbd_desc.c ****   else
 319:USB/USB_DEVICE/App/usbd_desc.c ****   {
 320:USB/USB_DEVICE/App/usbd_desc.c ****     USBD_GetString((uint8_t *)USBD_INTERFACE_STRING_FS, USBD_StrDesc, length);
 321:USB/USB_DEVICE/App/usbd_desc.c ****   }
 322:USB/USB_DEVICE/App/usbd_desc.c ****   return USBD_StrDesc;
 323:USB/USB_DEVICE/App/usbd_desc.c **** }
 324:USB/USB_DEVICE/App/usbd_desc.c **** 
 325:USB/USB_DEVICE/App/usbd_desc.c **** /**
 326:USB/USB_DEVICE/App/usbd_desc.c ****  * @brief  Create the serial number string descriptor
 327:USB/USB_DEVICE/App/usbd_desc.c ****  * @param  None
 328:USB/USB_DEVICE/App/usbd_desc.c ****  * @retval None
 329:USB/USB_DEVICE/App/usbd_desc.c ****  */
 330:USB/USB_DEVICE/App/usbd_desc.c **** static void Get_SerialNum(void)
 331:USB/USB_DEVICE/App/usbd_desc.c **** {
 332:USB/USB_DEVICE/App/usbd_desc.c ****   uint32_t deviceserial0, deviceserial1, deviceserial2;
 333:USB/USB_DEVICE/App/usbd_desc.c **** 
 334:USB/USB_DEVICE/App/usbd_desc.c ****   deviceserial0 = *(uint32_t *)DEVICE_ID1;
 335:USB/USB_DEVICE/App/usbd_desc.c ****   deviceserial1 = *(uint32_t *)DEVICE_ID2;
 336:USB/USB_DEVICE/App/usbd_desc.c ****   deviceserial2 = *(uint32_t *)DEVICE_ID3;
 337:USB/USB_DEVICE/App/usbd_desc.c **** 
 338:USB/USB_DEVICE/App/usbd_desc.c ****   deviceserial0 += deviceserial2;
 339:USB/USB_DEVICE/App/usbd_desc.c **** 
 340:USB/USB_DEVICE/App/usbd_desc.c ****   if (deviceserial0 != 0)
 341:USB/USB_DEVICE/App/usbd_desc.c ****   {
 342:USB/USB_DEVICE/App/usbd_desc.c ****     IntToUnicode(deviceserial0, &USBD_StringSerial[2], 8);
 343:USB/USB_DEVICE/App/usbd_desc.c ****     IntToUnicode(deviceserial1, &USBD_StringSerial[18], 4);
 344:USB/USB_DEVICE/App/usbd_desc.c ****   }
 345:USB/USB_DEVICE/App/usbd_desc.c **** }
 346:USB/USB_DEVICE/App/usbd_desc.c **** 
 347:USB/USB_DEVICE/App/usbd_desc.c **** /**
 348:USB/USB_DEVICE/App/usbd_desc.c ****  * @brief  Convert Hex 32Bits value into char
 349:USB/USB_DEVICE/App/usbd_desc.c ****  * @param  value: value to convert
 350:USB/USB_DEVICE/App/usbd_desc.c ****  * @param  pbuf: pointer to the buffer
 351:USB/USB_DEVICE/App/usbd_desc.c ****  * @param  len: buffer length
 352:USB/USB_DEVICE/App/usbd_desc.c ****  * @retval None
 353:USB/USB_DEVICE/App/usbd_desc.c ****  */
 354:USB/USB_DEVICE/App/usbd_desc.c **** static void IntToUnicode(uint32_t value, uint8_t *pbuf, uint8_t len)
 355:USB/USB_DEVICE/App/usbd_desc.c **** {
  96              		.loc 1 355 1 is_stmt 1 view -0
  97              		.cfi_startproc
  98              		@ args = 0, pretend = 0, frame = 0
  99              		@ frame_needed = 0, uses_anonymous_args = 0
 356:USB/USB_DEVICE/App/usbd_desc.c ****   uint8_t idx = 0;
 100              		.loc 1 356 3 view .LVU15
 357:USB/USB_DEVICE/App/usbd_desc.c **** 
 358:USB/USB_DEVICE/App/usbd_desc.c ****   for (idx = 0; idx < len; idx++)
 101              		.loc 1 358 3 view .LVU16
 102              		.loc 1 358 12 is_stmt 0 view .LVU17
 103 0000 0023     		movs	r3, #0
ARM GAS  /var/folders/lx/hc4sn_b53233_zkc9xbbl97r0000gp/T//ccRTj0wY.s 			page 9


 104              	.LVL5:
 105              		.loc 1 358 17 is_stmt 1 view .LVU18
 106              		.loc 1 358 3 is_stmt 0 view .LVU19
 107 0002 9342     		cmp	r3, r2
 108 0004 1ED2     		bcs	.L15
 355:USB/USB_DEVICE/App/usbd_desc.c ****   uint8_t idx = 0;
 109              		.loc 1 355 1 view .LVU20
 110 0006 00B5     		push	{lr}
 111              	.LCFI0:
 112              		.cfi_def_cfa_offset 4
 113              		.cfi_offset 14, -4
 114 0008 10E0     		b	.L11
 115              	.L9:
 359:USB/USB_DEVICE/App/usbd_desc.c ****   {
 360:USB/USB_DEVICE/App/usbd_desc.c ****     if (((value >> 28)) < 0xA)
 361:USB/USB_DEVICE/App/usbd_desc.c ****     {
 362:USB/USB_DEVICE/App/usbd_desc.c ****       pbuf[2 * idx] = (value >> 28) + '0';
 363:USB/USB_DEVICE/App/usbd_desc.c ****     }
 364:USB/USB_DEVICE/App/usbd_desc.c ****     else
 365:USB/USB_DEVICE/App/usbd_desc.c ****     {
 366:USB/USB_DEVICE/App/usbd_desc.c ****       pbuf[2 * idx] = (value >> 28) + 'A' - 10;
 116              		.loc 1 366 7 is_stmt 1 view .LVU21
 117              		.loc 1 366 43 is_stmt 0 view .LVU22
 118 000a 0CF1370C 		add	ip, ip, #55
 119              		.loc 1 366 21 view .LVU23
 120 000e 01F813C0 		strb	ip, [r1, r3, lsl #1]
 121              	.L10:
 367:USB/USB_DEVICE/App/usbd_desc.c ****     }
 368:USB/USB_DEVICE/App/usbd_desc.c **** 
 369:USB/USB_DEVICE/App/usbd_desc.c ****     value = value << 4;
 122              		.loc 1 369 5 is_stmt 1 discriminator 2 view .LVU24
 123              		.loc 1 369 11 is_stmt 0 discriminator 2 view .LVU25
 124 0012 0001     		lsls	r0, r0, #4
 125              	.LVL6:
 370:USB/USB_DEVICE/App/usbd_desc.c **** 
 371:USB/USB_DEVICE/App/usbd_desc.c ****     pbuf[2 * idx + 1] = 0;
 126              		.loc 1 371 5 is_stmt 1 discriminator 2 view .LVU26
 127              		.loc 1 371 12 is_stmt 0 discriminator 2 view .LVU27
 128 0014 4FEA430C 		lsl	ip, r3, #1
 129              		.loc 1 371 9 discriminator 2 view .LVU28
 130 0018 0CF1010C 		add	ip, ip, #1
 131              		.loc 1 371 23 discriminator 2 view .LVU29
 132 001c 4FF0000E 		mov	lr, #0
 133 0020 01F80CE0 		strb	lr, [r1, ip]
 358:USB/USB_DEVICE/App/usbd_desc.c ****   {
 134              		.loc 1 358 28 is_stmt 1 discriminator 2 view .LVU30
 358:USB/USB_DEVICE/App/usbd_desc.c ****   {
 135              		.loc 1 358 31 is_stmt 0 discriminator 2 view .LVU31
 136 0024 0133     		adds	r3, r3, #1
 137              	.LVL7:
 358:USB/USB_DEVICE/App/usbd_desc.c ****   {
 138              		.loc 1 358 31 discriminator 2 view .LVU32
 139 0026 DBB2     		uxtb	r3, r3
 140              	.LVL8:
 358:USB/USB_DEVICE/App/usbd_desc.c ****   {
 141              		.loc 1 358 17 is_stmt 1 discriminator 2 view .LVU33
 358:USB/USB_DEVICE/App/usbd_desc.c ****   {
ARM GAS  /var/folders/lx/hc4sn_b53233_zkc9xbbl97r0000gp/T//ccRTj0wY.s 			page 10


 142              		.loc 1 358 3 is_stmt 0 discriminator 2 view .LVU34
 143 0028 9342     		cmp	r3, r2
 144 002a 09D2     		bcs	.L16
 145              	.L11:
 360:USB/USB_DEVICE/App/usbd_desc.c ****     {
 146              		.loc 1 360 5 is_stmt 1 view .LVU35
 360:USB/USB_DEVICE/App/usbd_desc.c ****     {
 147              		.loc 1 360 17 is_stmt 0 view .LVU36
 148 002c 4FEA107C 		lsr	ip, r0, #28
 360:USB/USB_DEVICE/App/usbd_desc.c ****     {
 149              		.loc 1 360 8 view .LVU37
 150 0030 B0F1204F 		cmp	r0, #-1610612736
 151 0034 E9D2     		bcs	.L9
 362:USB/USB_DEVICE/App/usbd_desc.c ****     }
 152              		.loc 1 362 7 is_stmt 1 view .LVU38
 362:USB/USB_DEVICE/App/usbd_desc.c ****     }
 153              		.loc 1 362 37 is_stmt 0 view .LVU39
 154 0036 0CF1300C 		add	ip, ip, #48
 362:USB/USB_DEVICE/App/usbd_desc.c ****     }
 155              		.loc 1 362 21 view .LVU40
 156 003a 01F813C0 		strb	ip, [r1, r3, lsl #1]
 157 003e E8E7     		b	.L10
 158              	.L16:
 372:USB/USB_DEVICE/App/usbd_desc.c ****   }
 373:USB/USB_DEVICE/App/usbd_desc.c **** }
 159              		.loc 1 373 1 view .LVU41
 160 0040 5DF804FB 		ldr	pc, [sp], #4
 161              	.L15:
 162              	.LCFI1:
 163              		.cfi_def_cfa_offset 0
 164              		.cfi_restore 14
 165              		.loc 1 373 1 view .LVU42
 166 0044 7047     		bx	lr
 167              		.cfi_endproc
 168              	.LFE156:
 170              		.section	.text.Get_SerialNum,"ax",%progbits
 171              		.align	1
 172              		.syntax unified
 173              		.thumb
 174              		.thumb_func
 175              		.fpu fpv5-d16
 177              	Get_SerialNum:
 178              	.LFB155:
 331:USB/USB_DEVICE/App/usbd_desc.c ****   uint32_t deviceserial0, deviceserial1, deviceserial2;
 179              		.loc 1 331 1 is_stmt 1 view -0
 180              		.cfi_startproc
 181              		@ args = 0, pretend = 0, frame = 0
 182              		@ frame_needed = 0, uses_anonymous_args = 0
 183 0000 38B5     		push	{r3, r4, r5, lr}
 184              	.LCFI2:
 185              		.cfi_def_cfa_offset 16
 186              		.cfi_offset 3, -16
 187              		.cfi_offset 4, -12
 188              		.cfi_offset 5, -8
 189              		.cfi_offset 14, -4
 332:USB/USB_DEVICE/App/usbd_desc.c **** 
 190              		.loc 1 332 3 view .LVU44
ARM GAS  /var/folders/lx/hc4sn_b53233_zkc9xbbl97r0000gp/T//ccRTj0wY.s 			page 11


 334:USB/USB_DEVICE/App/usbd_desc.c ****   deviceserial1 = *(uint32_t *)DEVICE_ID2;
 191              		.loc 1 334 3 view .LVU45
 334:USB/USB_DEVICE/App/usbd_desc.c ****   deviceserial1 = *(uint32_t *)DEVICE_ID2;
 192              		.loc 1 334 17 is_stmt 0 view .LVU46
 193 0002 0B4B     		ldr	r3, .L21
 194 0004 D3F80008 		ldr	r0, [r3, #2048]
 195              	.LVL9:
 335:USB/USB_DEVICE/App/usbd_desc.c ****   deviceserial2 = *(uint32_t *)DEVICE_ID3;
 196              		.loc 1 335 3 is_stmt 1 view .LVU47
 335:USB/USB_DEVICE/App/usbd_desc.c ****   deviceserial2 = *(uint32_t *)DEVICE_ID3;
 197              		.loc 1 335 17 is_stmt 0 view .LVU48
 198 0008 D3F80448 		ldr	r4, [r3, #2052]
 199              	.LVL10:
 336:USB/USB_DEVICE/App/usbd_desc.c **** 
 200              		.loc 1 336 3 is_stmt 1 view .LVU49
 336:USB/USB_DEVICE/App/usbd_desc.c **** 
 201              		.loc 1 336 17 is_stmt 0 view .LVU50
 202 000c D3F80838 		ldr	r3, [r3, #2056]
 203              	.LVL11:
 338:USB/USB_DEVICE/App/usbd_desc.c **** 
 204              		.loc 1 338 3 is_stmt 1 view .LVU51
 340:USB/USB_DEVICE/App/usbd_desc.c ****   {
 205              		.loc 1 340 3 view .LVU52
 340:USB/USB_DEVICE/App/usbd_desc.c ****   {
 206              		.loc 1 340 6 is_stmt 0 view .LVU53
 207 0010 C018     		adds	r0, r0, r3
 208              	.LVL12:
 340:USB/USB_DEVICE/App/usbd_desc.c ****   {
 209              		.loc 1 340 6 view .LVU54
 210 0012 00D1     		bne	.L20
 211              	.LVL13:
 212              	.L17:
 345:USB/USB_DEVICE/App/usbd_desc.c **** 
 213              		.loc 1 345 1 view .LVU55
 214 0014 38BD     		pop	{r3, r4, r5, pc}
 215              	.LVL14:
 216              	.L20:
 342:USB/USB_DEVICE/App/usbd_desc.c ****     IntToUnicode(deviceserial1, &USBD_StringSerial[18], 4);
 217              		.loc 1 342 5 is_stmt 1 view .LVU56
 218 0016 074D     		ldr	r5, .L21+4
 219 0018 0822     		movs	r2, #8
 220 001a A91C     		adds	r1, r5, #2
 221 001c FFF7FEFF 		bl	IntToUnicode
 222              	.LVL15:
 343:USB/USB_DEVICE/App/usbd_desc.c ****   }
 223              		.loc 1 343 5 view .LVU57
 224 0020 0422     		movs	r2, #4
 225 0022 05F11201 		add	r1, r5, #18
 226 0026 2046     		mov	r0, r4
 227 0028 FFF7FEFF 		bl	IntToUnicode
 228              	.LVL16:
 345:USB/USB_DEVICE/App/usbd_desc.c **** 
 229              		.loc 1 345 1 is_stmt 0 view .LVU58
 230 002c F2E7     		b	.L17
 231              	.L22:
 232 002e 00BF     		.align	2
 233              	.L21:
ARM GAS  /var/folders/lx/hc4sn_b53233_zkc9xbbl97r0000gp/T//ccRTj0wY.s 			page 12


 234 0030 00E0F11F 		.word	535945216
 235 0034 00000000 		.word	.LANCHOR2
 236              		.cfi_endproc
 237              	.LFE155:
 239              		.section	.text.USBD_FS_SerialStrDescriptor,"ax",%progbits
 240              		.align	1
 241              		.global	USBD_FS_SerialStrDescriptor
 242              		.syntax unified
 243              		.thumb
 244              		.thumb_func
 245              		.fpu fpv5-d16
 247              	USBD_FS_SerialStrDescriptor:
 248              	.LVL17:
 249              	.LFB152:
 274:USB/USB_DEVICE/App/usbd_desc.c ****   UNUSED(speed);
 250              		.loc 1 274 1 is_stmt 1 view -0
 251              		.cfi_startproc
 252              		@ args = 0, pretend = 0, frame = 0
 253              		@ frame_needed = 0, uses_anonymous_args = 0
 274:USB/USB_DEVICE/App/usbd_desc.c ****   UNUSED(speed);
 254              		.loc 1 274 1 is_stmt 0 view .LVU60
 255 0000 08B5     		push	{r3, lr}
 256              	.LCFI3:
 257              		.cfi_def_cfa_offset 8
 258              		.cfi_offset 3, -8
 259              		.cfi_offset 14, -4
 275:USB/USB_DEVICE/App/usbd_desc.c ****   *length = USB_SIZ_STRING_SERIAL;
 260              		.loc 1 275 3 is_stmt 1 view .LVU61
 276:USB/USB_DEVICE/App/usbd_desc.c **** 
 261              		.loc 1 276 3 view .LVU62
 276:USB/USB_DEVICE/App/usbd_desc.c **** 
 262              		.loc 1 276 11 is_stmt 0 view .LVU63
 263 0002 1A23     		movs	r3, #26
 264 0004 0B80     		strh	r3, [r1]	@ movhi
 280:USB/USB_DEVICE/App/usbd_desc.c ****   /* USER CODE BEGIN USBD_FS_SerialStrDescriptor */
 265              		.loc 1 280 3 is_stmt 1 view .LVU64
 266 0006 FFF7FEFF 		bl	Get_SerialNum
 267              	.LVL18:
 284:USB/USB_DEVICE/App/usbd_desc.c **** }
 268              		.loc 1 284 3 view .LVU65
 285:USB/USB_DEVICE/App/usbd_desc.c **** 
 269              		.loc 1 285 1 is_stmt 0 view .LVU66
 270 000a 0148     		ldr	r0, .L25
 271 000c 08BD     		pop	{r3, pc}
 272              	.L26:
 273 000e 00BF     		.align	2
 274              	.L25:
 275 0010 00000000 		.word	.LANCHOR2
 276              		.cfi_endproc
 277              	.LFE152:
 279              		.section	.rodata.USBD_FS_ProductStrDescriptor.str1.4,"aMS",%progbits,1
 280              		.align	2
 281              	.LC0:
 282 0000 48374643 		.ascii	"H7FC\000"
 282      00
 283              		.section	.text.USBD_FS_ProductStrDescriptor,"ax",%progbits
 284              		.align	1
ARM GAS  /var/folders/lx/hc4sn_b53233_zkc9xbbl97r0000gp/T//ccRTj0wY.s 			page 13


 285              		.global	USBD_FS_ProductStrDescriptor
 286              		.syntax unified
 287              		.thumb
 288              		.thumb_func
 289              		.fpu fpv5-d16
 291              	USBD_FS_ProductStrDescriptor:
 292              	.LVL19:
 293              	.LFB150:
 242:USB/USB_DEVICE/App/usbd_desc.c ****   if (speed == 0)
 294              		.loc 1 242 1 is_stmt 1 view -0
 295              		.cfi_startproc
 296              		@ args = 0, pretend = 0, frame = 0
 297              		@ frame_needed = 0, uses_anonymous_args = 0
 242:USB/USB_DEVICE/App/usbd_desc.c ****   if (speed == 0)
 298              		.loc 1 242 1 is_stmt 0 view .LVU68
 299 0000 08B5     		push	{r3, lr}
 300              	.LCFI4:
 301              		.cfi_def_cfa_offset 8
 302              		.cfi_offset 3, -8
 303              		.cfi_offset 14, -4
 304 0002 0A46     		mov	r2, r1
 243:USB/USB_DEVICE/App/usbd_desc.c ****   {
 305              		.loc 1 243 3 is_stmt 1 view .LVU69
 243:USB/USB_DEVICE/App/usbd_desc.c ****   {
 306              		.loc 1 243 6 is_stmt 0 view .LVU70
 307 0004 28B9     		cbnz	r0, .L28
 245:USB/USB_DEVICE/App/usbd_desc.c ****   }
 308              		.loc 1 245 5 is_stmt 1 view .LVU71
 309 0006 0549     		ldr	r1, .L31
 310              	.LVL20:
 245:USB/USB_DEVICE/App/usbd_desc.c ****   }
 311              		.loc 1 245 5 is_stmt 0 view .LVU72
 312 0008 0548     		ldr	r0, .L31+4
 313              	.LVL21:
 245:USB/USB_DEVICE/App/usbd_desc.c ****   }
 314              		.loc 1 245 5 view .LVU73
 315 000a FFF7FEFF 		bl	USBD_GetString
 316              	.LVL22:
 317              	.L29:
 251:USB/USB_DEVICE/App/usbd_desc.c **** }
 318              		.loc 1 251 3 is_stmt 1 view .LVU74
 252:USB/USB_DEVICE/App/usbd_desc.c **** 
 319              		.loc 1 252 1 is_stmt 0 view .LVU75
 320 000e 0348     		ldr	r0, .L31
 321 0010 08BD     		pop	{r3, pc}
 322              	.LVL23:
 323              	.L28:
 249:USB/USB_DEVICE/App/usbd_desc.c ****   }
 324              		.loc 1 249 5 is_stmt 1 view .LVU76
 325 0012 0249     		ldr	r1, .L31
 326              	.LVL24:
 249:USB/USB_DEVICE/App/usbd_desc.c ****   }
 327              		.loc 1 249 5 is_stmt 0 view .LVU77
 328 0014 0248     		ldr	r0, .L31+4
 329              	.LVL25:
 249:USB/USB_DEVICE/App/usbd_desc.c ****   }
 330              		.loc 1 249 5 view .LVU78
ARM GAS  /var/folders/lx/hc4sn_b53233_zkc9xbbl97r0000gp/T//ccRTj0wY.s 			page 14


 331 0016 FFF7FEFF 		bl	USBD_GetString
 332              	.LVL26:
 249:USB/USB_DEVICE/App/usbd_desc.c ****   }
 333              		.loc 1 249 5 view .LVU79
 334 001a F8E7     		b	.L29
 335              	.L32:
 336              		.align	2
 337              	.L31:
 338 001c 00000000 		.word	.LANCHOR3
 339 0020 00000000 		.word	.LC0
 340              		.cfi_endproc
 341              	.LFE150:
 343              		.section	.rodata.USBD_FS_ManufacturerStrDescriptor.str1.4,"aMS",%progbits,1
 344              		.align	2
 345              	.LC1:
 346 0000 385F4221 		.ascii	"8_B!T0\000"
 346      543000
 347              		.section	.text.USBD_FS_ManufacturerStrDescriptor,"ax",%progbits
 348              		.align	1
 349              		.global	USBD_FS_ManufacturerStrDescriptor
 350              		.syntax unified
 351              		.thumb
 352              		.thumb_func
 353              		.fpu fpv5-d16
 355              	USBD_FS_ManufacturerStrDescriptor:
 356              	.LVL27:
 357              	.LFB151:
 261:USB/USB_DEVICE/App/usbd_desc.c ****   UNUSED(speed);
 358              		.loc 1 261 1 is_stmt 1 view -0
 359              		.cfi_startproc
 360              		@ args = 0, pretend = 0, frame = 0
 361              		@ frame_needed = 0, uses_anonymous_args = 0
 261:USB/USB_DEVICE/App/usbd_desc.c ****   UNUSED(speed);
 362              		.loc 1 261 1 is_stmt 0 view .LVU81
 363 0000 10B5     		push	{r4, lr}
 364              	.LCFI5:
 365              		.cfi_def_cfa_offset 8
 366              		.cfi_offset 4, -8
 367              		.cfi_offset 14, -4
 368 0002 0A46     		mov	r2, r1
 262:USB/USB_DEVICE/App/usbd_desc.c ****   USBD_GetString((uint8_t *)USBD_MANUFACTURER_STRING, USBD_StrDesc, length);
 369              		.loc 1 262 3 is_stmt 1 view .LVU82
 263:USB/USB_DEVICE/App/usbd_desc.c ****   return USBD_StrDesc;
 370              		.loc 1 263 3 view .LVU83
 371 0004 034C     		ldr	r4, .L35
 372 0006 2146     		mov	r1, r4
 373              	.LVL28:
 263:USB/USB_DEVICE/App/usbd_desc.c ****   return USBD_StrDesc;
 374              		.loc 1 263 3 is_stmt 0 view .LVU84
 375 0008 0348     		ldr	r0, .L35+4
 376              	.LVL29:
 263:USB/USB_DEVICE/App/usbd_desc.c ****   return USBD_StrDesc;
 377              		.loc 1 263 3 view .LVU85
 378 000a FFF7FEFF 		bl	USBD_GetString
 379              	.LVL30:
 264:USB/USB_DEVICE/App/usbd_desc.c **** }
 380              		.loc 1 264 3 is_stmt 1 view .LVU86
ARM GAS  /var/folders/lx/hc4sn_b53233_zkc9xbbl97r0000gp/T//ccRTj0wY.s 			page 15


 265:USB/USB_DEVICE/App/usbd_desc.c **** 
 381              		.loc 1 265 1 is_stmt 0 view .LVU87
 382 000e 2046     		mov	r0, r4
 383 0010 10BD     		pop	{r4, pc}
 384              	.L36:
 385 0012 00BF     		.align	2
 386              	.L35:
 387 0014 00000000 		.word	.LANCHOR3
 388 0018 00000000 		.word	.LC1
 389              		.cfi_endproc
 390              	.LFE151:
 392              		.section	.rodata.USBD_FS_ConfigStrDescriptor.str1.4,"aMS",%progbits,1
 393              		.align	2
 394              	.LC2:
 395 0000 43444320 		.ascii	"CDC Config\000"
 395      436F6E66 
 395      696700
 396              		.section	.text.USBD_FS_ConfigStrDescriptor,"ax",%progbits
 397              		.align	1
 398              		.global	USBD_FS_ConfigStrDescriptor
 399              		.syntax unified
 400              		.thumb
 401              		.thumb_func
 402              		.fpu fpv5-d16
 404              	USBD_FS_ConfigStrDescriptor:
 405              	.LVL31:
 406              	.LFB153:
 294:USB/USB_DEVICE/App/usbd_desc.c ****   if (speed == USBD_SPEED_HIGH)
 407              		.loc 1 294 1 is_stmt 1 view -0
 408              		.cfi_startproc
 409              		@ args = 0, pretend = 0, frame = 0
 410              		@ frame_needed = 0, uses_anonymous_args = 0
 294:USB/USB_DEVICE/App/usbd_desc.c ****   if (speed == USBD_SPEED_HIGH)
 411              		.loc 1 294 1 is_stmt 0 view .LVU89
 412 0000 08B5     		push	{r3, lr}
 413              	.LCFI6:
 414              		.cfi_def_cfa_offset 8
 415              		.cfi_offset 3, -8
 416              		.cfi_offset 14, -4
 417 0002 0A46     		mov	r2, r1
 295:USB/USB_DEVICE/App/usbd_desc.c ****   {
 418              		.loc 1 295 3 is_stmt 1 view .LVU90
 295:USB/USB_DEVICE/App/usbd_desc.c ****   {
 419              		.loc 1 295 6 is_stmt 0 view .LVU91
 420 0004 28B9     		cbnz	r0, .L38
 297:USB/USB_DEVICE/App/usbd_desc.c ****   }
 421              		.loc 1 297 5 is_stmt 1 view .LVU92
 422 0006 0549     		ldr	r1, .L41
 423              	.LVL32:
 297:USB/USB_DEVICE/App/usbd_desc.c ****   }
 424              		.loc 1 297 5 is_stmt 0 view .LVU93
 425 0008 0548     		ldr	r0, .L41+4
 426              	.LVL33:
 297:USB/USB_DEVICE/App/usbd_desc.c ****   }
 427              		.loc 1 297 5 view .LVU94
 428 000a FFF7FEFF 		bl	USBD_GetString
 429              	.LVL34:
ARM GAS  /var/folders/lx/hc4sn_b53233_zkc9xbbl97r0000gp/T//ccRTj0wY.s 			page 16


 430              	.L39:
 303:USB/USB_DEVICE/App/usbd_desc.c **** }
 431              		.loc 1 303 3 is_stmt 1 view .LVU95
 304:USB/USB_DEVICE/App/usbd_desc.c **** 
 432              		.loc 1 304 1 is_stmt 0 view .LVU96
 433 000e 0348     		ldr	r0, .L41
 434 0010 08BD     		pop	{r3, pc}
 435              	.LVL35:
 436              	.L38:
 301:USB/USB_DEVICE/App/usbd_desc.c ****   }
 437              		.loc 1 301 5 is_stmt 1 view .LVU97
 438 0012 0249     		ldr	r1, .L41
 439              	.LVL36:
 301:USB/USB_DEVICE/App/usbd_desc.c ****   }
 440              		.loc 1 301 5 is_stmt 0 view .LVU98
 441 0014 0248     		ldr	r0, .L41+4
 442              	.LVL37:
 301:USB/USB_DEVICE/App/usbd_desc.c ****   }
 443              		.loc 1 301 5 view .LVU99
 444 0016 FFF7FEFF 		bl	USBD_GetString
 445              	.LVL38:
 301:USB/USB_DEVICE/App/usbd_desc.c ****   }
 446              		.loc 1 301 5 view .LVU100
 447 001a F8E7     		b	.L39
 448              	.L42:
 449              		.align	2
 450              	.L41:
 451 001c 00000000 		.word	.LANCHOR3
 452 0020 00000000 		.word	.LC2
 453              		.cfi_endproc
 454              	.LFE153:
 456              		.section	.rodata.USBD_FS_InterfaceStrDescriptor.str1.4,"aMS",%progbits,1
 457              		.align	2
 458              	.LC3:
 459 0000 43444320 		.ascii	"CDC Interface\000"
 459      496E7465 
 459      72666163 
 459      6500
 460              		.section	.text.USBD_FS_InterfaceStrDescriptor,"ax",%progbits
 461              		.align	1
 462              		.global	USBD_FS_InterfaceStrDescriptor
 463              		.syntax unified
 464              		.thumb
 465              		.thumb_func
 466              		.fpu fpv5-d16
 468              	USBD_FS_InterfaceStrDescriptor:
 469              	.LVL39:
 470              	.LFB154:
 313:USB/USB_DEVICE/App/usbd_desc.c ****   if (speed == 0)
 471              		.loc 1 313 1 is_stmt 1 view -0
 472              		.cfi_startproc
 473              		@ args = 0, pretend = 0, frame = 0
 474              		@ frame_needed = 0, uses_anonymous_args = 0
 313:USB/USB_DEVICE/App/usbd_desc.c ****   if (speed == 0)
 475              		.loc 1 313 1 is_stmt 0 view .LVU102
 476 0000 08B5     		push	{r3, lr}
 477              	.LCFI7:
ARM GAS  /var/folders/lx/hc4sn_b53233_zkc9xbbl97r0000gp/T//ccRTj0wY.s 			page 17


 478              		.cfi_def_cfa_offset 8
 479              		.cfi_offset 3, -8
 480              		.cfi_offset 14, -4
 481 0002 0A46     		mov	r2, r1
 314:USB/USB_DEVICE/App/usbd_desc.c ****   {
 482              		.loc 1 314 3 is_stmt 1 view .LVU103
 314:USB/USB_DEVICE/App/usbd_desc.c ****   {
 483              		.loc 1 314 6 is_stmt 0 view .LVU104
 484 0004 28B9     		cbnz	r0, .L44
 316:USB/USB_DEVICE/App/usbd_desc.c ****   }
 485              		.loc 1 316 5 is_stmt 1 view .LVU105
 486 0006 0549     		ldr	r1, .L47
 487              	.LVL40:
 316:USB/USB_DEVICE/App/usbd_desc.c ****   }
 488              		.loc 1 316 5 is_stmt 0 view .LVU106
 489 0008 0548     		ldr	r0, .L47+4
 490              	.LVL41:
 316:USB/USB_DEVICE/App/usbd_desc.c ****   }
 491              		.loc 1 316 5 view .LVU107
 492 000a FFF7FEFF 		bl	USBD_GetString
 493              	.LVL42:
 494              	.L45:
 322:USB/USB_DEVICE/App/usbd_desc.c **** }
 495              		.loc 1 322 3 is_stmt 1 view .LVU108
 323:USB/USB_DEVICE/App/usbd_desc.c **** 
 496              		.loc 1 323 1 is_stmt 0 view .LVU109
 497 000e 0348     		ldr	r0, .L47
 498 0010 08BD     		pop	{r3, pc}
 499              	.LVL43:
 500              	.L44:
 320:USB/USB_DEVICE/App/usbd_desc.c ****   }
 501              		.loc 1 320 5 is_stmt 1 view .LVU110
 502 0012 0249     		ldr	r1, .L47
 503              	.LVL44:
 320:USB/USB_DEVICE/App/usbd_desc.c ****   }
 504              		.loc 1 320 5 is_stmt 0 view .LVU111
 505 0014 0248     		ldr	r0, .L47+4
 506              	.LVL45:
 320:USB/USB_DEVICE/App/usbd_desc.c ****   }
 507              		.loc 1 320 5 view .LVU112
 508 0016 FFF7FEFF 		bl	USBD_GetString
 509              	.LVL46:
 320:USB/USB_DEVICE/App/usbd_desc.c ****   }
 510              		.loc 1 320 5 view .LVU113
 511 001a F8E7     		b	.L45
 512              	.L48:
 513              		.align	2
 514              	.L47:
 515 001c 00000000 		.word	.LANCHOR3
 516 0020 00000000 		.word	.LC3
 517              		.cfi_endproc
 518              	.LFE154:
 520              		.global	USBD_StringSerial
 521              		.global	USBD_StrDesc
 522              		.global	USBD_LangIDDesc
 523              		.global	USBD_FS_DeviceDesc
 524              		.global	FS_Desc
ARM GAS  /var/folders/lx/hc4sn_b53233_zkc9xbbl97r0000gp/T//ccRTj0wY.s 			page 18


 525              		.section	.bss.USBD_StrDesc,"aw",%nobits
 526              		.align	2
 527              		.set	.LANCHOR3,. + 0
 530              	USBD_StrDesc:
 531 0000 00000000 		.space	1024
 531      00000000 
 531      00000000 
 531      00000000 
 531      00000000 
 532              		.section	.data.FS_Desc,"aw"
 533              		.align	2
 536              	FS_Desc:
 537 0000 00000000 		.word	USBD_FS_DeviceDescriptor
 538 0004 00000000 		.word	USBD_FS_LangIDStrDescriptor
 539 0008 00000000 		.word	USBD_FS_ManufacturerStrDescriptor
 540 000c 00000000 		.word	USBD_FS_ProductStrDescriptor
 541 0010 00000000 		.word	USBD_FS_SerialStrDescriptor
 542 0014 00000000 		.word	USBD_FS_ConfigStrDescriptor
 543 0018 00000000 		.word	USBD_FS_InterfaceStrDescriptor
 544              		.section	.data.USBD_FS_DeviceDesc,"aw"
 545              		.align	2
 546              		.set	.LANCHOR0,. + 0
 549              	USBD_FS_DeviceDesc:
 550 0000 12010002 		.ascii	"\022\001\000\002\002\002\000@\203\004@W\000\002\001"
 550      02020040 
 550      83044057 
 550      000201
 551 000f 020301   		.ascii	"\002\003\001"
 552              		.section	.data.USBD_LangIDDesc,"aw"
 553              		.align	2
 554              		.set	.LANCHOR1,. + 0
 557              	USBD_LangIDDesc:
 558 0000 04030904 		.ascii	"\004\003\011\004"
 559              		.section	.data.USBD_StringSerial,"aw"
 560              		.align	2
 561              		.set	.LANCHOR2,. + 0
 564              	USBD_StringSerial:
 565 0000 1A0300   		.ascii	"\032\003\000"
 566 0003 00000000 		.space	23
 566      00000000 
 566      00000000 
 566      00000000 
 566      00000000 
 567              		.text
 568              	.Letext0:
 569              		.file 2 "/usr/local/arm-none-eabi-gcc/gcc-arm-none-eabi-10-2020-q4-major/arm-none-eabi/include/mac
 570              		.file 3 "/usr/local/arm-none-eabi-gcc/gcc-arm-none-eabi-10-2020-q4-major/arm-none-eabi/include/sys
 571              		.file 4 "USB/STM32_USB_Device_Library/Core/Inc/usbd_def.h"
 572              		.file 5 "USB/USB_DEVICE/App/usbd_desc.h"
 573              		.file 6 "USB/STM32_USB_Device_Library/Core/Inc/usbd_ctlreq.h"
ARM GAS  /var/folders/lx/hc4sn_b53233_zkc9xbbl97r0000gp/T//ccRTj0wY.s 			page 19


DEFINED SYMBOLS
                            *ABS*:0000000000000000 usbd_desc.c
/var/folders/lx/hc4sn_b53233_zkc9xbbl97r0000gp/T//ccRTj0wY.s:17     .text.USBD_FS_DeviceDescriptor:0000000000000000 $t
/var/folders/lx/hc4sn_b53233_zkc9xbbl97r0000gp/T//ccRTj0wY.s:25     .text.USBD_FS_DeviceDescriptor:0000000000000000 USBD_FS_DeviceDescriptor
/var/folders/lx/hc4sn_b53233_zkc9xbbl97r0000gp/T//ccRTj0wY.s:48     .text.USBD_FS_DeviceDescriptor:0000000000000008 $d
/var/folders/lx/hc4sn_b53233_zkc9xbbl97r0000gp/T//ccRTj0wY.s:53     .text.USBD_FS_LangIDStrDescriptor:0000000000000000 $t
/var/folders/lx/hc4sn_b53233_zkc9xbbl97r0000gp/T//ccRTj0wY.s:60     .text.USBD_FS_LangIDStrDescriptor:0000000000000000 USBD_FS_LangIDStrDescriptor
/var/folders/lx/hc4sn_b53233_zkc9xbbl97r0000gp/T//ccRTj0wY.s:82     .text.USBD_FS_LangIDStrDescriptor:0000000000000008 $d
/var/folders/lx/hc4sn_b53233_zkc9xbbl97r0000gp/T//ccRTj0wY.s:87     .text.IntToUnicode:0000000000000000 $t
/var/folders/lx/hc4sn_b53233_zkc9xbbl97r0000gp/T//ccRTj0wY.s:93     .text.IntToUnicode:0000000000000000 IntToUnicode
/var/folders/lx/hc4sn_b53233_zkc9xbbl97r0000gp/T//ccRTj0wY.s:171    .text.Get_SerialNum:0000000000000000 $t
/var/folders/lx/hc4sn_b53233_zkc9xbbl97r0000gp/T//ccRTj0wY.s:177    .text.Get_SerialNum:0000000000000000 Get_SerialNum
/var/folders/lx/hc4sn_b53233_zkc9xbbl97r0000gp/T//ccRTj0wY.s:234    .text.Get_SerialNum:0000000000000030 $d
/var/folders/lx/hc4sn_b53233_zkc9xbbl97r0000gp/T//ccRTj0wY.s:240    .text.USBD_FS_SerialStrDescriptor:0000000000000000 $t
/var/folders/lx/hc4sn_b53233_zkc9xbbl97r0000gp/T//ccRTj0wY.s:247    .text.USBD_FS_SerialStrDescriptor:0000000000000000 USBD_FS_SerialStrDescriptor
/var/folders/lx/hc4sn_b53233_zkc9xbbl97r0000gp/T//ccRTj0wY.s:275    .text.USBD_FS_SerialStrDescriptor:0000000000000010 $d
/var/folders/lx/hc4sn_b53233_zkc9xbbl97r0000gp/T//ccRTj0wY.s:280    .rodata.USBD_FS_ProductStrDescriptor.str1.4:0000000000000000 $d
/var/folders/lx/hc4sn_b53233_zkc9xbbl97r0000gp/T//ccRTj0wY.s:284    .text.USBD_FS_ProductStrDescriptor:0000000000000000 $t
/var/folders/lx/hc4sn_b53233_zkc9xbbl97r0000gp/T//ccRTj0wY.s:291    .text.USBD_FS_ProductStrDescriptor:0000000000000000 USBD_FS_ProductStrDescriptor
/var/folders/lx/hc4sn_b53233_zkc9xbbl97r0000gp/T//ccRTj0wY.s:338    .text.USBD_FS_ProductStrDescriptor:000000000000001c $d
/var/folders/lx/hc4sn_b53233_zkc9xbbl97r0000gp/T//ccRTj0wY.s:344    .rodata.USBD_FS_ManufacturerStrDescriptor.str1.4:0000000000000000 $d
/var/folders/lx/hc4sn_b53233_zkc9xbbl97r0000gp/T//ccRTj0wY.s:348    .text.USBD_FS_ManufacturerStrDescriptor:0000000000000000 $t
/var/folders/lx/hc4sn_b53233_zkc9xbbl97r0000gp/T//ccRTj0wY.s:355    .text.USBD_FS_ManufacturerStrDescriptor:0000000000000000 USBD_FS_ManufacturerStrDescriptor
/var/folders/lx/hc4sn_b53233_zkc9xbbl97r0000gp/T//ccRTj0wY.s:387    .text.USBD_FS_ManufacturerStrDescriptor:0000000000000014 $d
/var/folders/lx/hc4sn_b53233_zkc9xbbl97r0000gp/T//ccRTj0wY.s:393    .rodata.USBD_FS_ConfigStrDescriptor.str1.4:0000000000000000 $d
/var/folders/lx/hc4sn_b53233_zkc9xbbl97r0000gp/T//ccRTj0wY.s:397    .text.USBD_FS_ConfigStrDescriptor:0000000000000000 $t
/var/folders/lx/hc4sn_b53233_zkc9xbbl97r0000gp/T//ccRTj0wY.s:404    .text.USBD_FS_ConfigStrDescriptor:0000000000000000 USBD_FS_ConfigStrDescriptor
/var/folders/lx/hc4sn_b53233_zkc9xbbl97r0000gp/T//ccRTj0wY.s:451    .text.USBD_FS_ConfigStrDescriptor:000000000000001c $d
/var/folders/lx/hc4sn_b53233_zkc9xbbl97r0000gp/T//ccRTj0wY.s:457    .rodata.USBD_FS_InterfaceStrDescriptor.str1.4:0000000000000000 $d
/var/folders/lx/hc4sn_b53233_zkc9xbbl97r0000gp/T//ccRTj0wY.s:461    .text.USBD_FS_InterfaceStrDescriptor:0000000000000000 $t
/var/folders/lx/hc4sn_b53233_zkc9xbbl97r0000gp/T//ccRTj0wY.s:468    .text.USBD_FS_InterfaceStrDescriptor:0000000000000000 USBD_FS_InterfaceStrDescriptor
/var/folders/lx/hc4sn_b53233_zkc9xbbl97r0000gp/T//ccRTj0wY.s:515    .text.USBD_FS_InterfaceStrDescriptor:000000000000001c $d
/var/folders/lx/hc4sn_b53233_zkc9xbbl97r0000gp/T//ccRTj0wY.s:564    .data.USBD_StringSerial:0000000000000000 USBD_StringSerial
/var/folders/lx/hc4sn_b53233_zkc9xbbl97r0000gp/T//ccRTj0wY.s:530    .bss.USBD_StrDesc:0000000000000000 USBD_StrDesc
/var/folders/lx/hc4sn_b53233_zkc9xbbl97r0000gp/T//ccRTj0wY.s:557    .data.USBD_LangIDDesc:0000000000000000 USBD_LangIDDesc
/var/folders/lx/hc4sn_b53233_zkc9xbbl97r0000gp/T//ccRTj0wY.s:549    .data.USBD_FS_DeviceDesc:0000000000000000 USBD_FS_DeviceDesc
/var/folders/lx/hc4sn_b53233_zkc9xbbl97r0000gp/T//ccRTj0wY.s:536    .data.FS_Desc:0000000000000000 FS_Desc
/var/folders/lx/hc4sn_b53233_zkc9xbbl97r0000gp/T//ccRTj0wY.s:526    .bss.USBD_StrDesc:0000000000000000 $d
/var/folders/lx/hc4sn_b53233_zkc9xbbl97r0000gp/T//ccRTj0wY.s:533    .data.FS_Desc:0000000000000000 $d
/var/folders/lx/hc4sn_b53233_zkc9xbbl97r0000gp/T//ccRTj0wY.s:545    .data.USBD_FS_DeviceDesc:0000000000000000 $d
/var/folders/lx/hc4sn_b53233_zkc9xbbl97r0000gp/T//ccRTj0wY.s:553    .data.USBD_LangIDDesc:0000000000000000 $d
/var/folders/lx/hc4sn_b53233_zkc9xbbl97r0000gp/T//ccRTj0wY.s:560    .data.USBD_StringSerial:0000000000000000 $d

UNDEFINED SYMBOLS
USBD_GetString
