ARM GAS  C:\Users\HUAV\AppData\Local\Temp\ccmJY7Py.s 			page 1


   1              		.cpu cortex-m7
   2              		.eabi_attribute 28, 1
   3              		.eabi_attribute 20, 1
   4              		.eabi_attribute 21, 1
   5              		.eabi_attribute 23, 3
   6              		.eabi_attribute 24, 1
   7              		.eabi_attribute 25, 1
   8              		.eabi_attribute 26, 1
   9              		.eabi_attribute 30, 1
  10              		.eabi_attribute 34, 1
  11              		.eabi_attribute 18, 4
  12              		.file	"usbd_conf.c"
  13              		.text
  14              	.Ltext0:
  15              		.cfi_sections	.debug_frame
  16              		.section	.text.HAL_PCD_MspInit,"ax",%progbits
  17              		.align	1
  18              		.global	HAL_PCD_MspInit
  19              		.arch armv7e-m
  20              		.syntax unified
  21              		.thumb
  22              		.thumb_func
  23              		.fpu fpv5-d16
  25              	HAL_PCD_MspInit:
  26              	.LVL0:
  27              	.LFB148:
  28              		.file 1 "USB/USB_DEVICE/Target/usbd_conf.c"
   1:USB/USB_DEVICE/Target/usbd_conf.c **** /* USER CODE BEGIN Header */
   2:USB/USB_DEVICE/Target/usbd_conf.c **** /**
   3:USB/USB_DEVICE/Target/usbd_conf.c ****  ******************************************************************************
   4:USB/USB_DEVICE/Target/usbd_conf.c ****  * @file           : Target/usbd_conf.c
   5:USB/USB_DEVICE/Target/usbd_conf.c ****  * @version        : v1.0_Cube
   6:USB/USB_DEVICE/Target/usbd_conf.c ****  * @brief          : This file implements the board support package for the USB device library
   7:USB/USB_DEVICE/Target/usbd_conf.c ****  ******************************************************************************
   8:USB/USB_DEVICE/Target/usbd_conf.c ****  * @attention
   9:USB/USB_DEVICE/Target/usbd_conf.c ****  *
  10:USB/USB_DEVICE/Target/usbd_conf.c ****  * <h2><center>&copy; Copyright (c) 2022 STMicroelectronics.
  11:USB/USB_DEVICE/Target/usbd_conf.c ****  * All rights reserved.</center></h2>
  12:USB/USB_DEVICE/Target/usbd_conf.c ****  *
  13:USB/USB_DEVICE/Target/usbd_conf.c ****  * This software component is licensed by ST under Ultimate Liberty license
  14:USB/USB_DEVICE/Target/usbd_conf.c ****  * SLA0044, the "License"; You may not use this file except in compliance with
  15:USB/USB_DEVICE/Target/usbd_conf.c ****  * the License. You may obtain a copy of the License at:
  16:USB/USB_DEVICE/Target/usbd_conf.c ****  *                             www.st.com/SLA0044
  17:USB/USB_DEVICE/Target/usbd_conf.c ****  *
  18:USB/USB_DEVICE/Target/usbd_conf.c ****  ******************************************************************************
  19:USB/USB_DEVICE/Target/usbd_conf.c ****  */
  20:USB/USB_DEVICE/Target/usbd_conf.c **** /* USER CODE END Header */
  21:USB/USB_DEVICE/Target/usbd_conf.c **** 
  22:USB/USB_DEVICE/Target/usbd_conf.c **** /* Includes ------------------------------------------------------------------*/
  23:USB/USB_DEVICE/Target/usbd_conf.c **** #include "stm32h7xx.h"
  24:USB/USB_DEVICE/Target/usbd_conf.c **** #include "stm32h7xx_hal.h"
  25:USB/USB_DEVICE/Target/usbd_conf.c **** #include "usbd_def.h"
  26:USB/USB_DEVICE/Target/usbd_conf.c **** #include "usbd_core.h"
  27:USB/USB_DEVICE/Target/usbd_conf.c **** #include "usbd_cdc.h"
  28:USB/USB_DEVICE/Target/usbd_conf.c **** 
  29:USB/USB_DEVICE/Target/usbd_conf.c **** /* USER CODE BEGIN Includes */
  30:USB/USB_DEVICE/Target/usbd_conf.c **** 
ARM GAS  C:\Users\HUAV\AppData\Local\Temp\ccmJY7Py.s 			page 2


  31:USB/USB_DEVICE/Target/usbd_conf.c **** /* USER CODE END Includes */
  32:USB/USB_DEVICE/Target/usbd_conf.c **** 
  33:USB/USB_DEVICE/Target/usbd_conf.c **** /* Private typedef -----------------------------------------------------------*/
  34:USB/USB_DEVICE/Target/usbd_conf.c **** /* Private define ------------------------------------------------------------*/
  35:USB/USB_DEVICE/Target/usbd_conf.c **** /* Private macro -------------------------------------------------------------*/
  36:USB/USB_DEVICE/Target/usbd_conf.c **** 
  37:USB/USB_DEVICE/Target/usbd_conf.c **** /* USER CODE BEGIN PV */
  38:USB/USB_DEVICE/Target/usbd_conf.c **** /* Private variables ---------------------------------------------------------*/
  39:USB/USB_DEVICE/Target/usbd_conf.c **** 
  40:USB/USB_DEVICE/Target/usbd_conf.c **** /* USER CODE END PV */
  41:USB/USB_DEVICE/Target/usbd_conf.c **** 
  42:USB/USB_DEVICE/Target/usbd_conf.c **** PCD_HandleTypeDef hpcd_USB_OTG_FS;
  43:USB/USB_DEVICE/Target/usbd_conf.c **** 
  44:USB/USB_DEVICE/Target/usbd_conf.c **** /* External functions --------------------------------------------------------*/
  45:USB/USB_DEVICE/Target/usbd_conf.c **** 
  46:USB/USB_DEVICE/Target/usbd_conf.c **** /* USER CODE BEGIN 0 */
  47:USB/USB_DEVICE/Target/usbd_conf.c **** 
  48:USB/USB_DEVICE/Target/usbd_conf.c **** /* USER CODE END 0 */
  49:USB/USB_DEVICE/Target/usbd_conf.c **** 
  50:USB/USB_DEVICE/Target/usbd_conf.c **** /* USER CODE BEGIN PFP */
  51:USB/USB_DEVICE/Target/usbd_conf.c **** /* Private function prototypes -----------------------------------------------*/
  52:USB/USB_DEVICE/Target/usbd_conf.c **** USBD_StatusTypeDef USBD_Get_USB_Status(HAL_StatusTypeDef hal_status);
  53:USB/USB_DEVICE/Target/usbd_conf.c **** 
  54:USB/USB_DEVICE/Target/usbd_conf.c **** /* USER CODE END PFP */
  55:USB/USB_DEVICE/Target/usbd_conf.c **** 
  56:USB/USB_DEVICE/Target/usbd_conf.c **** /* Private functions ---------------------------------------------------------*/
  57:USB/USB_DEVICE/Target/usbd_conf.c **** 
  58:USB/USB_DEVICE/Target/usbd_conf.c **** /* USER CODE BEGIN 1 */
  59:USB/USB_DEVICE/Target/usbd_conf.c **** /* USER CODE END 1 */
  60:USB/USB_DEVICE/Target/usbd_conf.c **** 
  61:USB/USB_DEVICE/Target/usbd_conf.c **** /*******************************************************************************
  62:USB/USB_DEVICE/Target/usbd_conf.c ****                        LL Driver Callbacks (PCD -> USB Device Library)
  63:USB/USB_DEVICE/Target/usbd_conf.c **** *******************************************************************************/
  64:USB/USB_DEVICE/Target/usbd_conf.c **** /* MSP Init */
  65:USB/USB_DEVICE/Target/usbd_conf.c **** 
  66:USB/USB_DEVICE/Target/usbd_conf.c **** void HAL_PCD_MspInit(PCD_HandleTypeDef *pcdHandle)
  67:USB/USB_DEVICE/Target/usbd_conf.c **** {
  29              		.loc 1 67 1 view -0
  30              		.cfi_startproc
  31              		@ args = 0, pretend = 0, frame = 216
  32              		@ frame_needed = 0, uses_anonymous_args = 0
  33              		.loc 1 67 1 is_stmt 0 view .LVU1
  34 0000 30B5     		push	{r4, r5, lr}
  35              	.LCFI0:
  36              		.cfi_def_cfa_offset 12
  37              		.cfi_offset 4, -12
  38              		.cfi_offset 5, -8
  39              		.cfi_offset 14, -4
  40 0002 B7B0     		sub	sp, sp, #220
  41              	.LCFI1:
  42              		.cfi_def_cfa_offset 232
  43 0004 0446     		mov	r4, r0
  68:USB/USB_DEVICE/Target/usbd_conf.c ****   GPIO_InitTypeDef GPIO_InitStruct = {0};
  44              		.loc 1 68 3 is_stmt 1 view .LVU2
  45              		.loc 1 68 20 is_stmt 0 view .LVU3
  46 0006 0021     		movs	r1, #0
  47 0008 3191     		str	r1, [sp, #196]
ARM GAS  C:\Users\HUAV\AppData\Local\Temp\ccmJY7Py.s 			page 3


  48 000a 3291     		str	r1, [sp, #200]
  49 000c 3391     		str	r1, [sp, #204]
  50 000e 3491     		str	r1, [sp, #208]
  51 0010 3591     		str	r1, [sp, #212]
  69:USB/USB_DEVICE/Target/usbd_conf.c ****   RCC_PeriphCLKInitTypeDef PeriphClkInitStruct = {0};
  52              		.loc 1 69 3 is_stmt 1 view .LVU4
  53              		.loc 1 69 28 is_stmt 0 view .LVU5
  54 0012 BC22     		movs	r2, #188
  55 0014 02A8     		add	r0, sp, #8
  56              	.LVL1:
  57              		.loc 1 69 28 view .LVU6
  58 0016 FFF7FEFF 		bl	memset
  59              	.LVL2:
  70:USB/USB_DEVICE/Target/usbd_conf.c ****   if (pcdHandle->Instance == USB_OTG_FS)
  60              		.loc 1 70 3 is_stmt 1 view .LVU7
  61              		.loc 1 70 16 is_stmt 0 view .LVU8
  62 001a 2268     		ldr	r2, [r4]
  63              		.loc 1 70 6 view .LVU9
  64 001c 204B     		ldr	r3, .L7
  65 001e 9A42     		cmp	r2, r3
  66 0020 01D0     		beq	.L6
  67              	.LVL3:
  68              	.L1:
  71:USB/USB_DEVICE/Target/usbd_conf.c ****   {
  72:USB/USB_DEVICE/Target/usbd_conf.c ****     /* USER CODE BEGIN USB_OTG_FS_MspInit 0 */
  73:USB/USB_DEVICE/Target/usbd_conf.c **** 
  74:USB/USB_DEVICE/Target/usbd_conf.c ****     /* USER CODE END USB_OTG_FS_MspInit 0 */
  75:USB/USB_DEVICE/Target/usbd_conf.c ****     /** Initializes the peripherals clock
  76:USB/USB_DEVICE/Target/usbd_conf.c ****      */
  77:USB/USB_DEVICE/Target/usbd_conf.c ****     PeriphClkInitStruct.PeriphClockSelection = RCC_PERIPHCLK_USB;
  78:USB/USB_DEVICE/Target/usbd_conf.c ****     PeriphClkInitStruct.UsbClockSelection = RCC_USBCLKSOURCE_HSI48;
  79:USB/USB_DEVICE/Target/usbd_conf.c ****     if (HAL_RCCEx_PeriphCLKConfig(&PeriphClkInitStruct) != HAL_OK)
  80:USB/USB_DEVICE/Target/usbd_conf.c ****       return;
  81:USB/USB_DEVICE/Target/usbd_conf.c **** 
  82:USB/USB_DEVICE/Target/usbd_conf.c ****     /** Enable USB Voltage detector
  83:USB/USB_DEVICE/Target/usbd_conf.c ****      */
  84:USB/USB_DEVICE/Target/usbd_conf.c ****     HAL_PWREx_EnableUSBVoltageDetector();
  85:USB/USB_DEVICE/Target/usbd_conf.c **** 
  86:USB/USB_DEVICE/Target/usbd_conf.c ****     __HAL_RCC_GPIOA_CLK_ENABLE();
  87:USB/USB_DEVICE/Target/usbd_conf.c ****     /**USB_OTG_FS GPIO Configuration
  88:USB/USB_DEVICE/Target/usbd_conf.c ****     PA11     ------> USB_OTG_FS_DM
  89:USB/USB_DEVICE/Target/usbd_conf.c ****     PA12     ------> USB_OTG_FS_DP
  90:USB/USB_DEVICE/Target/usbd_conf.c ****     */
  91:USB/USB_DEVICE/Target/usbd_conf.c ****     GPIO_InitStruct.Pin = GPIO_PIN_11 | GPIO_PIN_12;
  92:USB/USB_DEVICE/Target/usbd_conf.c ****     GPIO_InitStruct.Mode = GPIO_MODE_AF_PP;
  93:USB/USB_DEVICE/Target/usbd_conf.c ****     GPIO_InitStruct.Pull = GPIO_NOPULL;
  94:USB/USB_DEVICE/Target/usbd_conf.c ****     GPIO_InitStruct.Speed = GPIO_SPEED_FREQ_LOW;
  95:USB/USB_DEVICE/Target/usbd_conf.c ****     GPIO_InitStruct.Alternate = GPIO_AF10_OTG1_FS;
  96:USB/USB_DEVICE/Target/usbd_conf.c ****     HAL_GPIO_Init(GPIOA, &GPIO_InitStruct);
  97:USB/USB_DEVICE/Target/usbd_conf.c **** 
  98:USB/USB_DEVICE/Target/usbd_conf.c ****     /* Peripheral clock enable */
  99:USB/USB_DEVICE/Target/usbd_conf.c ****     __HAL_RCC_USB_OTG_FS_CLK_ENABLE();
 100:USB/USB_DEVICE/Target/usbd_conf.c **** 
 101:USB/USB_DEVICE/Target/usbd_conf.c ****     /* Peripheral interrupt init */
 102:USB/USB_DEVICE/Target/usbd_conf.c ****     HAL_NVIC_SetPriority(OTG_FS_IRQn, 3, 0);
 103:USB/USB_DEVICE/Target/usbd_conf.c ****     HAL_NVIC_EnableIRQ(OTG_FS_IRQn);
 104:USB/USB_DEVICE/Target/usbd_conf.c ****     /* USER CODE BEGIN USB_OTG_FS_MspInit 1 */
ARM GAS  C:\Users\HUAV\AppData\Local\Temp\ccmJY7Py.s 			page 4


 105:USB/USB_DEVICE/Target/usbd_conf.c **** 
 106:USB/USB_DEVICE/Target/usbd_conf.c ****     /* USER CODE END USB_OTG_FS_MspInit 1 */
 107:USB/USB_DEVICE/Target/usbd_conf.c ****   }
 108:USB/USB_DEVICE/Target/usbd_conf.c **** }
  69              		.loc 1 108 1 view .LVU10
  70 0022 37B0     		add	sp, sp, #220
  71              	.LCFI2:
  72              		.cfi_remember_state
  73              		.cfi_def_cfa_offset 12
  74              		@ sp needed
  75 0024 30BD     		pop	{r4, r5, pc}
  76              	.LVL4:
  77              	.L6:
  78              	.LCFI3:
  79              		.cfi_restore_state
  77:USB/USB_DEVICE/Target/usbd_conf.c ****     PeriphClkInitStruct.UsbClockSelection = RCC_USBCLKSOURCE_HSI48;
  80              		.loc 1 77 5 is_stmt 1 view .LVU11
  77:USB/USB_DEVICE/Target/usbd_conf.c ****     PeriphClkInitStruct.UsbClockSelection = RCC_USBCLKSOURCE_HSI48;
  81              		.loc 1 77 46 is_stmt 0 view .LVU12
  82 0026 4FF48023 		mov	r3, #262144
  83 002a 0293     		str	r3, [sp, #8]
  78:USB/USB_DEVICE/Target/usbd_conf.c ****     if (HAL_RCCEx_PeriphCLKConfig(&PeriphClkInitStruct) != HAL_OK)
  84              		.loc 1 78 5 is_stmt 1 view .LVU13
  78:USB/USB_DEVICE/Target/usbd_conf.c ****     if (HAL_RCCEx_PeriphCLKConfig(&PeriphClkInitStruct) != HAL_OK)
  85              		.loc 1 78 43 is_stmt 0 view .LVU14
  86 002c 4FF44013 		mov	r3, #3145728
  87 0030 2393     		str	r3, [sp, #140]
  79:USB/USB_DEVICE/Target/usbd_conf.c ****       return;
  88              		.loc 1 79 5 is_stmt 1 view .LVU15
  79:USB/USB_DEVICE/Target/usbd_conf.c ****       return;
  89              		.loc 1 79 9 is_stmt 0 view .LVU16
  90 0032 02A8     		add	r0, sp, #8
  91 0034 FFF7FEFF 		bl	HAL_RCCEx_PeriphCLKConfig
  92              	.LVL5:
  79:USB/USB_DEVICE/Target/usbd_conf.c ****       return;
  93              		.loc 1 79 8 view .LVU17
  94 0038 0028     		cmp	r0, #0
  95 003a F2D1     		bne	.L1
  84:USB/USB_DEVICE/Target/usbd_conf.c **** 
  96              		.loc 1 84 5 is_stmt 1 view .LVU18
  97 003c FFF7FEFF 		bl	HAL_PWREx_EnableUSBVoltageDetector
  98              	.LVL6:
  86:USB/USB_DEVICE/Target/usbd_conf.c ****     /**USB_OTG_FS GPIO Configuration
  99              		.loc 1 86 5 view .LVU19
 100              	.LBB2:
  86:USB/USB_DEVICE/Target/usbd_conf.c ****     /**USB_OTG_FS GPIO Configuration
 101              		.loc 1 86 5 view .LVU20
  86:USB/USB_DEVICE/Target/usbd_conf.c ****     /**USB_OTG_FS GPIO Configuration
 102              		.loc 1 86 5 view .LVU21
 103 0040 184C     		ldr	r4, .L7+4
 104              	.LVL7:
  86:USB/USB_DEVICE/Target/usbd_conf.c ****     /**USB_OTG_FS GPIO Configuration
 105              		.loc 1 86 5 is_stmt 0 view .LVU22
 106 0042 D4F8E030 		ldr	r3, [r4, #224]
 107 0046 43F00103 		orr	r3, r3, #1
 108 004a C4F8E030 		str	r3, [r4, #224]
  86:USB/USB_DEVICE/Target/usbd_conf.c ****     /**USB_OTG_FS GPIO Configuration
ARM GAS  C:\Users\HUAV\AppData\Local\Temp\ccmJY7Py.s 			page 5


 109              		.loc 1 86 5 is_stmt 1 view .LVU23
 110 004e D4F8E030 		ldr	r3, [r4, #224]
 111 0052 03F00103 		and	r3, r3, #1
 112 0056 0093     		str	r3, [sp]
  86:USB/USB_DEVICE/Target/usbd_conf.c ****     /**USB_OTG_FS GPIO Configuration
 113              		.loc 1 86 5 view .LVU24
 114 0058 009B     		ldr	r3, [sp]
 115              	.LBE2:
  86:USB/USB_DEVICE/Target/usbd_conf.c ****     /**USB_OTG_FS GPIO Configuration
 116              		.loc 1 86 5 view .LVU25
  91:USB/USB_DEVICE/Target/usbd_conf.c ****     GPIO_InitStruct.Mode = GPIO_MODE_AF_PP;
 117              		.loc 1 91 5 view .LVU26
  91:USB/USB_DEVICE/Target/usbd_conf.c ****     GPIO_InitStruct.Mode = GPIO_MODE_AF_PP;
 118              		.loc 1 91 25 is_stmt 0 view .LVU27
 119 005a 4FF4C053 		mov	r3, #6144
 120 005e 3193     		str	r3, [sp, #196]
  92:USB/USB_DEVICE/Target/usbd_conf.c ****     GPIO_InitStruct.Pull = GPIO_NOPULL;
 121              		.loc 1 92 5 is_stmt 1 view .LVU28
  92:USB/USB_DEVICE/Target/usbd_conf.c ****     GPIO_InitStruct.Pull = GPIO_NOPULL;
 122              		.loc 1 92 26 is_stmt 0 view .LVU29
 123 0060 0223     		movs	r3, #2
 124 0062 3293     		str	r3, [sp, #200]
  93:USB/USB_DEVICE/Target/usbd_conf.c ****     GPIO_InitStruct.Speed = GPIO_SPEED_FREQ_LOW;
 125              		.loc 1 93 5 is_stmt 1 view .LVU30
  93:USB/USB_DEVICE/Target/usbd_conf.c ****     GPIO_InitStruct.Speed = GPIO_SPEED_FREQ_LOW;
 126              		.loc 1 93 26 is_stmt 0 view .LVU31
 127 0064 0025     		movs	r5, #0
 128 0066 3395     		str	r5, [sp, #204]
  94:USB/USB_DEVICE/Target/usbd_conf.c ****     GPIO_InitStruct.Alternate = GPIO_AF10_OTG1_FS;
 129              		.loc 1 94 5 is_stmt 1 view .LVU32
  94:USB/USB_DEVICE/Target/usbd_conf.c ****     GPIO_InitStruct.Alternate = GPIO_AF10_OTG1_FS;
 130              		.loc 1 94 27 is_stmt 0 view .LVU33
 131 0068 3495     		str	r5, [sp, #208]
  95:USB/USB_DEVICE/Target/usbd_conf.c ****     HAL_GPIO_Init(GPIOA, &GPIO_InitStruct);
 132              		.loc 1 95 5 is_stmt 1 view .LVU34
  95:USB/USB_DEVICE/Target/usbd_conf.c ****     HAL_GPIO_Init(GPIOA, &GPIO_InitStruct);
 133              		.loc 1 95 31 is_stmt 0 view .LVU35
 134 006a 0A23     		movs	r3, #10
 135 006c 3593     		str	r3, [sp, #212]
  96:USB/USB_DEVICE/Target/usbd_conf.c **** 
 136              		.loc 1 96 5 is_stmt 1 view .LVU36
 137 006e 31A9     		add	r1, sp, #196
 138 0070 0D48     		ldr	r0, .L7+8
 139 0072 FFF7FEFF 		bl	HAL_GPIO_Init
 140              	.LVL8:
  99:USB/USB_DEVICE/Target/usbd_conf.c **** 
 141              		.loc 1 99 5 view .LVU37
 142              	.LBB3:
  99:USB/USB_DEVICE/Target/usbd_conf.c **** 
 143              		.loc 1 99 5 view .LVU38
  99:USB/USB_DEVICE/Target/usbd_conf.c **** 
 144              		.loc 1 99 5 view .LVU39
 145 0076 D4F8D830 		ldr	r3, [r4, #216]
 146 007a 43F00063 		orr	r3, r3, #134217728
 147 007e C4F8D830 		str	r3, [r4, #216]
  99:USB/USB_DEVICE/Target/usbd_conf.c **** 
 148              		.loc 1 99 5 view .LVU40
ARM GAS  C:\Users\HUAV\AppData\Local\Temp\ccmJY7Py.s 			page 6


 149 0082 D4F8D830 		ldr	r3, [r4, #216]
 150 0086 03F00063 		and	r3, r3, #134217728
 151 008a 0193     		str	r3, [sp, #4]
  99:USB/USB_DEVICE/Target/usbd_conf.c **** 
 152              		.loc 1 99 5 view .LVU41
 153 008c 019B     		ldr	r3, [sp, #4]
 154              	.LBE3:
  99:USB/USB_DEVICE/Target/usbd_conf.c **** 
 155              		.loc 1 99 5 view .LVU42
 102:USB/USB_DEVICE/Target/usbd_conf.c ****     HAL_NVIC_EnableIRQ(OTG_FS_IRQn);
 156              		.loc 1 102 5 view .LVU43
 157 008e 2A46     		mov	r2, r5
 158 0090 0321     		movs	r1, #3
 159 0092 6520     		movs	r0, #101
 160 0094 FFF7FEFF 		bl	HAL_NVIC_SetPriority
 161              	.LVL9:
 103:USB/USB_DEVICE/Target/usbd_conf.c ****     /* USER CODE BEGIN USB_OTG_FS_MspInit 1 */
 162              		.loc 1 103 5 view .LVU44
 163 0098 6520     		movs	r0, #101
 164 009a FFF7FEFF 		bl	HAL_NVIC_EnableIRQ
 165              	.LVL10:
 166 009e C0E7     		b	.L1
 167              	.L8:
 168              		.align	2
 169              	.L7:
 170 00a0 00000840 		.word	1074266112
 171 00a4 00440258 		.word	1476543488
 172 00a8 00000258 		.word	1476526080
 173              		.cfi_endproc
 174              	.LFE148:
 176              		.section	.text.HAL_PCD_MspDeInit,"ax",%progbits
 177              		.align	1
 178              		.global	HAL_PCD_MspDeInit
 179              		.syntax unified
 180              		.thumb
 181              		.thumb_func
 182              		.fpu fpv5-d16
 184              	HAL_PCD_MspDeInit:
 185              	.LVL11:
 186              	.LFB149:
 109:USB/USB_DEVICE/Target/usbd_conf.c **** 
 110:USB/USB_DEVICE/Target/usbd_conf.c **** void HAL_PCD_MspDeInit(PCD_HandleTypeDef *pcdHandle)
 111:USB/USB_DEVICE/Target/usbd_conf.c **** {
 187              		.loc 1 111 1 view -0
 188              		.cfi_startproc
 189              		@ args = 0, pretend = 0, frame = 0
 190              		@ frame_needed = 0, uses_anonymous_args = 0
 191              		.loc 1 111 1 is_stmt 0 view .LVU46
 192 0000 08B5     		push	{r3, lr}
 193              	.LCFI4:
 194              		.cfi_def_cfa_offset 8
 195              		.cfi_offset 3, -8
 196              		.cfi_offset 14, -4
 112:USB/USB_DEVICE/Target/usbd_conf.c ****   if (pcdHandle->Instance == USB_OTG_FS)
 197              		.loc 1 112 3 is_stmt 1 view .LVU47
 198              		.loc 1 112 16 is_stmt 0 view .LVU48
 199 0002 0268     		ldr	r2, [r0]
ARM GAS  C:\Users\HUAV\AppData\Local\Temp\ccmJY7Py.s 			page 7


 200              		.loc 1 112 6 view .LVU49
 201 0004 094B     		ldr	r3, .L13
 202 0006 9A42     		cmp	r2, r3
 203 0008 00D0     		beq	.L12
 204              	.LVL12:
 205              	.L9:
 113:USB/USB_DEVICE/Target/usbd_conf.c ****   {
 114:USB/USB_DEVICE/Target/usbd_conf.c ****     /* USER CODE BEGIN USB_OTG_FS_MspDeInit 0 */
 115:USB/USB_DEVICE/Target/usbd_conf.c **** 
 116:USB/USB_DEVICE/Target/usbd_conf.c ****     /* USER CODE END USB_OTG_FS_MspDeInit 0 */
 117:USB/USB_DEVICE/Target/usbd_conf.c ****     /* Peripheral clock disable */
 118:USB/USB_DEVICE/Target/usbd_conf.c ****     __HAL_RCC_USB_OTG_FS_CLK_DISABLE();
 119:USB/USB_DEVICE/Target/usbd_conf.c **** 
 120:USB/USB_DEVICE/Target/usbd_conf.c ****     /**USB_OTG_FS GPIO Configuration
 121:USB/USB_DEVICE/Target/usbd_conf.c ****     PA11     ------> USB_OTG_FS_DM
 122:USB/USB_DEVICE/Target/usbd_conf.c ****     PA12     ------> USB_OTG_FS_DP
 123:USB/USB_DEVICE/Target/usbd_conf.c ****     */
 124:USB/USB_DEVICE/Target/usbd_conf.c ****     HAL_GPIO_DeInit(GPIOA, GPIO_PIN_11 | GPIO_PIN_12);
 125:USB/USB_DEVICE/Target/usbd_conf.c **** 
 126:USB/USB_DEVICE/Target/usbd_conf.c ****     /* Peripheral interrupt Deinit*/
 127:USB/USB_DEVICE/Target/usbd_conf.c ****     HAL_NVIC_DisableIRQ(OTG_FS_IRQn);
 128:USB/USB_DEVICE/Target/usbd_conf.c **** 
 129:USB/USB_DEVICE/Target/usbd_conf.c ****     /* USER CODE BEGIN USB_OTG_FS_MspDeInit 1 */
 130:USB/USB_DEVICE/Target/usbd_conf.c **** 
 131:USB/USB_DEVICE/Target/usbd_conf.c ****     /* USER CODE END USB_OTG_FS_MspDeInit 1 */
 132:USB/USB_DEVICE/Target/usbd_conf.c ****   }
 133:USB/USB_DEVICE/Target/usbd_conf.c **** }
 206              		.loc 1 133 1 view .LVU50
 207 000a 08BD     		pop	{r3, pc}
 208              	.LVL13:
 209              	.L12:
 118:USB/USB_DEVICE/Target/usbd_conf.c **** 
 210              		.loc 1 118 5 is_stmt 1 view .LVU51
 211 000c 084A     		ldr	r2, .L13+4
 212 000e D2F8D830 		ldr	r3, [r2, #216]
 213 0012 23F00063 		bic	r3, r3, #134217728
 214 0016 C2F8D830 		str	r3, [r2, #216]
 124:USB/USB_DEVICE/Target/usbd_conf.c **** 
 215              		.loc 1 124 5 view .LVU52
 216 001a 4FF4C051 		mov	r1, #6144
 217 001e 0548     		ldr	r0, .L13+8
 218              	.LVL14:
 124:USB/USB_DEVICE/Target/usbd_conf.c **** 
 219              		.loc 1 124 5 is_stmt 0 view .LVU53
 220 0020 FFF7FEFF 		bl	HAL_GPIO_DeInit
 221              	.LVL15:
 127:USB/USB_DEVICE/Target/usbd_conf.c **** 
 222              		.loc 1 127 5 is_stmt 1 view .LVU54
 223 0024 6520     		movs	r0, #101
 224 0026 FFF7FEFF 		bl	HAL_NVIC_DisableIRQ
 225              	.LVL16:
 226              		.loc 1 133 1 is_stmt 0 view .LVU55
 227 002a EEE7     		b	.L9
 228              	.L14:
 229              		.align	2
 230              	.L13:
 231 002c 00000840 		.word	1074266112
ARM GAS  C:\Users\HUAV\AppData\Local\Temp\ccmJY7Py.s 			page 8


 232 0030 00440258 		.word	1476543488
 233 0034 00000258 		.word	1476526080
 234              		.cfi_endproc
 235              	.LFE149:
 237              		.section	.text.HAL_PCD_SetupStageCallback,"ax",%progbits
 238              		.align	1
 239              		.global	HAL_PCD_SetupStageCallback
 240              		.syntax unified
 241              		.thumb
 242              		.thumb_func
 243              		.fpu fpv5-d16
 245              	HAL_PCD_SetupStageCallback:
 246              	.LVL17:
 247              	.LFB150:
 134:USB/USB_DEVICE/Target/usbd_conf.c **** 
 135:USB/USB_DEVICE/Target/usbd_conf.c **** /**
 136:USB/USB_DEVICE/Target/usbd_conf.c ****  * @brief  Setup stage callback
 137:USB/USB_DEVICE/Target/usbd_conf.c ****  * @param  hpcd: PCD handle
 138:USB/USB_DEVICE/Target/usbd_conf.c ****  * @retval None
 139:USB/USB_DEVICE/Target/usbd_conf.c ****  */
 140:USB/USB_DEVICE/Target/usbd_conf.c **** #if (USE_HAL_PCD_REGISTER_CALLBACKS == 1U)
 141:USB/USB_DEVICE/Target/usbd_conf.c **** static void PCD_SetupStageCallback(PCD_HandleTypeDef *hpcd)
 142:USB/USB_DEVICE/Target/usbd_conf.c **** #else
 143:USB/USB_DEVICE/Target/usbd_conf.c **** void HAL_PCD_SetupStageCallback(PCD_HandleTypeDef *hpcd)
 144:USB/USB_DEVICE/Target/usbd_conf.c **** #endif /* USE_HAL_PCD_REGISTER_CALLBACKS */
 145:USB/USB_DEVICE/Target/usbd_conf.c **** {
 248              		.loc 1 145 1 is_stmt 1 view -0
 249              		.cfi_startproc
 250              		@ args = 0, pretend = 0, frame = 0
 251              		@ frame_needed = 0, uses_anonymous_args = 0
 252              		.loc 1 145 1 is_stmt 0 view .LVU57
 253 0000 08B5     		push	{r3, lr}
 254              	.LCFI5:
 255              		.cfi_def_cfa_offset 8
 256              		.cfi_offset 3, -8
 257              		.cfi_offset 14, -4
 146:USB/USB_DEVICE/Target/usbd_conf.c ****   USBD_LL_SetupStage((USBD_HandleTypeDef *)hpcd->pData, (uint8_t *)hpcd->Setup);
 258              		.loc 1 146 3 is_stmt 1 view .LVU58
 259 0002 00F57171 		add	r1, r0, #964
 260 0006 D0F80404 		ldr	r0, [r0, #1028]
 261              	.LVL18:
 262              		.loc 1 146 3 is_stmt 0 view .LVU59
 263 000a FFF7FEFF 		bl	USBD_LL_SetupStage
 264              	.LVL19:
 147:USB/USB_DEVICE/Target/usbd_conf.c **** }
 265              		.loc 1 147 1 view .LVU60
 266 000e 08BD     		pop	{r3, pc}
 267              		.cfi_endproc
 268              	.LFE150:
 270              		.section	.text.HAL_PCD_DataOutStageCallback,"ax",%progbits
 271              		.align	1
 272              		.global	HAL_PCD_DataOutStageCallback
 273              		.syntax unified
 274              		.thumb
 275              		.thumb_func
 276              		.fpu fpv5-d16
 278              	HAL_PCD_DataOutStageCallback:
ARM GAS  C:\Users\HUAV\AppData\Local\Temp\ccmJY7Py.s 			page 9


 279              	.LVL20:
 280              	.LFB151:
 148:USB/USB_DEVICE/Target/usbd_conf.c **** 
 149:USB/USB_DEVICE/Target/usbd_conf.c **** /**
 150:USB/USB_DEVICE/Target/usbd_conf.c ****  * @brief  Data Out stage callback.
 151:USB/USB_DEVICE/Target/usbd_conf.c ****  * @param  hpcd: PCD handle
 152:USB/USB_DEVICE/Target/usbd_conf.c ****  * @param  epnum: Endpoint number
 153:USB/USB_DEVICE/Target/usbd_conf.c ****  * @retval None
 154:USB/USB_DEVICE/Target/usbd_conf.c ****  */
 155:USB/USB_DEVICE/Target/usbd_conf.c **** #if (USE_HAL_PCD_REGISTER_CALLBACKS == 1U)
 156:USB/USB_DEVICE/Target/usbd_conf.c **** static void PCD_DataOutStageCallback(PCD_HandleTypeDef *hpcd, uint8_t epnum)
 157:USB/USB_DEVICE/Target/usbd_conf.c **** #else
 158:USB/USB_DEVICE/Target/usbd_conf.c **** void HAL_PCD_DataOutStageCallback(PCD_HandleTypeDef *hpcd, uint8_t epnum)
 159:USB/USB_DEVICE/Target/usbd_conf.c **** #endif /* USE_HAL_PCD_REGISTER_CALLBACKS */
 160:USB/USB_DEVICE/Target/usbd_conf.c **** {
 281              		.loc 1 160 1 is_stmt 1 view -0
 282              		.cfi_startproc
 283              		@ args = 0, pretend = 0, frame = 0
 284              		@ frame_needed = 0, uses_anonymous_args = 0
 285              		.loc 1 160 1 is_stmt 0 view .LVU62
 286 0000 08B5     		push	{r3, lr}
 287              	.LCFI6:
 288              		.cfi_def_cfa_offset 8
 289              		.cfi_offset 3, -8
 290              		.cfi_offset 14, -4
 161:USB/USB_DEVICE/Target/usbd_conf.c ****   USBD_LL_DataOutStage((USBD_HandleTypeDef *)hpcd->pData, epnum, hpcd->OUT_ep[epnum].xfer_buff);
 291              		.loc 1 161 3 is_stmt 1 view .LVU63
 292 0002 C1EBC103 		rsb	r3, r1, r1, lsl #3
 293 0006 00EB8303 		add	r3, r0, r3, lsl #2
 294 000a D3F80822 		ldr	r2, [r3, #520]
 295 000e D0F80404 		ldr	r0, [r0, #1028]
 296              	.LVL21:
 297              		.loc 1 161 3 is_stmt 0 view .LVU64
 298 0012 FFF7FEFF 		bl	USBD_LL_DataOutStage
 299              	.LVL22:
 162:USB/USB_DEVICE/Target/usbd_conf.c **** }
 300              		.loc 1 162 1 view .LVU65
 301 0016 08BD     		pop	{r3, pc}
 302              		.cfi_endproc
 303              	.LFE151:
 305              		.section	.text.HAL_PCD_DataInStageCallback,"ax",%progbits
 306              		.align	1
 307              		.global	HAL_PCD_DataInStageCallback
 308              		.syntax unified
 309              		.thumb
 310              		.thumb_func
 311              		.fpu fpv5-d16
 313              	HAL_PCD_DataInStageCallback:
 314              	.LVL23:
 315              	.LFB152:
 163:USB/USB_DEVICE/Target/usbd_conf.c **** 
 164:USB/USB_DEVICE/Target/usbd_conf.c **** /**
 165:USB/USB_DEVICE/Target/usbd_conf.c ****  * @brief  Data In stage callback.
 166:USB/USB_DEVICE/Target/usbd_conf.c ****  * @param  hpcd: PCD handle
 167:USB/USB_DEVICE/Target/usbd_conf.c ****  * @param  epnum: Endpoint number
 168:USB/USB_DEVICE/Target/usbd_conf.c ****  * @retval None
 169:USB/USB_DEVICE/Target/usbd_conf.c ****  */
ARM GAS  C:\Users\HUAV\AppData\Local\Temp\ccmJY7Py.s 			page 10


 170:USB/USB_DEVICE/Target/usbd_conf.c **** #if (USE_HAL_PCD_REGISTER_CALLBACKS == 1U)
 171:USB/USB_DEVICE/Target/usbd_conf.c **** static void PCD_DataInStageCallback(PCD_HandleTypeDef *hpcd, uint8_t epnum)
 172:USB/USB_DEVICE/Target/usbd_conf.c **** #else
 173:USB/USB_DEVICE/Target/usbd_conf.c **** void HAL_PCD_DataInStageCallback(PCD_HandleTypeDef *hpcd, uint8_t epnum)
 174:USB/USB_DEVICE/Target/usbd_conf.c **** #endif /* USE_HAL_PCD_REGISTER_CALLBACKS */
 175:USB/USB_DEVICE/Target/usbd_conf.c **** {
 316              		.loc 1 175 1 is_stmt 1 view -0
 317              		.cfi_startproc
 318              		@ args = 0, pretend = 0, frame = 0
 319              		@ frame_needed = 0, uses_anonymous_args = 0
 320              		.loc 1 175 1 is_stmt 0 view .LVU67
 321 0000 08B5     		push	{r3, lr}
 322              	.LCFI7:
 323              		.cfi_def_cfa_offset 8
 324              		.cfi_offset 3, -8
 325              		.cfi_offset 14, -4
 176:USB/USB_DEVICE/Target/usbd_conf.c ****   USBD_LL_DataInStage((USBD_HandleTypeDef *)hpcd->pData, epnum, hpcd->IN_ep[epnum].xfer_buff);
 326              		.loc 1 176 3 is_stmt 1 view .LVU68
 327 0002 C1EBC103 		rsb	r3, r1, r1, lsl #3
 328 0006 00EB8303 		add	r3, r0, r3, lsl #2
 329 000a 9A6C     		ldr	r2, [r3, #72]
 330 000c D0F80404 		ldr	r0, [r0, #1028]
 331              	.LVL24:
 332              		.loc 1 176 3 is_stmt 0 view .LVU69
 333 0010 FFF7FEFF 		bl	USBD_LL_DataInStage
 334              	.LVL25:
 177:USB/USB_DEVICE/Target/usbd_conf.c **** }
 335              		.loc 1 177 1 view .LVU70
 336 0014 08BD     		pop	{r3, pc}
 337              		.cfi_endproc
 338              	.LFE152:
 340              		.section	.text.HAL_PCD_SOFCallback,"ax",%progbits
 341              		.align	1
 342              		.global	HAL_PCD_SOFCallback
 343              		.syntax unified
 344              		.thumb
 345              		.thumb_func
 346              		.fpu fpv5-d16
 348              	HAL_PCD_SOFCallback:
 349              	.LVL26:
 350              	.LFB153:
 178:USB/USB_DEVICE/Target/usbd_conf.c **** 
 179:USB/USB_DEVICE/Target/usbd_conf.c **** /**
 180:USB/USB_DEVICE/Target/usbd_conf.c ****  * @brief  SOF callback.
 181:USB/USB_DEVICE/Target/usbd_conf.c ****  * @param  hpcd: PCD handle
 182:USB/USB_DEVICE/Target/usbd_conf.c ****  * @retval None
 183:USB/USB_DEVICE/Target/usbd_conf.c ****  */
 184:USB/USB_DEVICE/Target/usbd_conf.c **** #if (USE_HAL_PCD_REGISTER_CALLBACKS == 1U)
 185:USB/USB_DEVICE/Target/usbd_conf.c **** static void PCD_SOFCallback(PCD_HandleTypeDef *hpcd)
 186:USB/USB_DEVICE/Target/usbd_conf.c **** #else
 187:USB/USB_DEVICE/Target/usbd_conf.c **** void HAL_PCD_SOFCallback(PCD_HandleTypeDef *hpcd)
 188:USB/USB_DEVICE/Target/usbd_conf.c **** #endif /* USE_HAL_PCD_REGISTER_CALLBACKS */
 189:USB/USB_DEVICE/Target/usbd_conf.c **** {
 351              		.loc 1 189 1 is_stmt 1 view -0
 352              		.cfi_startproc
 353              		@ args = 0, pretend = 0, frame = 0
 354              		@ frame_needed = 0, uses_anonymous_args = 0
ARM GAS  C:\Users\HUAV\AppData\Local\Temp\ccmJY7Py.s 			page 11


 355              		.loc 1 189 1 is_stmt 0 view .LVU72
 356 0000 08B5     		push	{r3, lr}
 357              	.LCFI8:
 358              		.cfi_def_cfa_offset 8
 359              		.cfi_offset 3, -8
 360              		.cfi_offset 14, -4
 190:USB/USB_DEVICE/Target/usbd_conf.c ****   USBD_LL_SOF((USBD_HandleTypeDef *)hpcd->pData);
 361              		.loc 1 190 3 is_stmt 1 view .LVU73
 362 0002 D0F80404 		ldr	r0, [r0, #1028]
 363              	.LVL27:
 364              		.loc 1 190 3 is_stmt 0 view .LVU74
 365 0006 FFF7FEFF 		bl	USBD_LL_SOF
 366              	.LVL28:
 191:USB/USB_DEVICE/Target/usbd_conf.c **** }
 367              		.loc 1 191 1 view .LVU75
 368 000a 08BD     		pop	{r3, pc}
 369              		.cfi_endproc
 370              	.LFE153:
 372              		.section	.text.HAL_PCD_ResetCallback,"ax",%progbits
 373              		.align	1
 374              		.global	HAL_PCD_ResetCallback
 375              		.syntax unified
 376              		.thumb
 377              		.thumb_func
 378              		.fpu fpv5-d16
 380              	HAL_PCD_ResetCallback:
 381              	.LVL29:
 382              	.LFB154:
 192:USB/USB_DEVICE/Target/usbd_conf.c **** 
 193:USB/USB_DEVICE/Target/usbd_conf.c **** /**
 194:USB/USB_DEVICE/Target/usbd_conf.c ****  * @brief  Reset callback.
 195:USB/USB_DEVICE/Target/usbd_conf.c ****  * @param  hpcd: PCD handle
 196:USB/USB_DEVICE/Target/usbd_conf.c ****  * @retval None
 197:USB/USB_DEVICE/Target/usbd_conf.c ****  */
 198:USB/USB_DEVICE/Target/usbd_conf.c **** #if (USE_HAL_PCD_REGISTER_CALLBACKS == 1U)
 199:USB/USB_DEVICE/Target/usbd_conf.c **** static void PCD_ResetCallback(PCD_HandleTypeDef *hpcd)
 200:USB/USB_DEVICE/Target/usbd_conf.c **** #else
 201:USB/USB_DEVICE/Target/usbd_conf.c **** void HAL_PCD_ResetCallback(PCD_HandleTypeDef *hpcd)
 202:USB/USB_DEVICE/Target/usbd_conf.c **** #endif /* USE_HAL_PCD_REGISTER_CALLBACKS */
 203:USB/USB_DEVICE/Target/usbd_conf.c **** {
 383              		.loc 1 203 1 is_stmt 1 view -0
 384              		.cfi_startproc
 385              		@ args = 0, pretend = 0, frame = 0
 386              		@ frame_needed = 0, uses_anonymous_args = 0
 387              		.loc 1 203 1 is_stmt 0 view .LVU77
 388 0000 10B5     		push	{r4, lr}
 389              	.LCFI9:
 390              		.cfi_def_cfa_offset 8
 391              		.cfi_offset 4, -8
 392              		.cfi_offset 14, -4
 393 0002 0446     		mov	r4, r0
 204:USB/USB_DEVICE/Target/usbd_conf.c ****   USBD_SpeedTypeDef speed = USBD_SPEED_FULL;
 394              		.loc 1 204 3 is_stmt 1 view .LVU78
 395              	.LVL30:
 205:USB/USB_DEVICE/Target/usbd_conf.c **** 
 206:USB/USB_DEVICE/Target/usbd_conf.c ****   if (hpcd->Init.speed == PCD_SPEED_HIGH)
 396              		.loc 1 206 3 view .LVU79
ARM GAS  C:\Users\HUAV\AppData\Local\Temp\ccmJY7Py.s 			page 12


 397              		.loc 1 206 17 is_stmt 0 view .LVU80
 398 0004 C368     		ldr	r3, [r0, #12]
 399              		.loc 1 206 6 view .LVU81
 400 0006 5BB1     		cbz	r3, .L26
 207:USB/USB_DEVICE/Target/usbd_conf.c ****   {
 208:USB/USB_DEVICE/Target/usbd_conf.c ****     speed = USBD_SPEED_HIGH;
 209:USB/USB_DEVICE/Target/usbd_conf.c ****   }
 210:USB/USB_DEVICE/Target/usbd_conf.c ****   else if (hpcd->Init.speed == PCD_SPEED_FULL)
 401              		.loc 1 210 8 is_stmt 1 view .LVU82
 402              		.loc 1 210 11 is_stmt 0 view .LVU83
 403 0008 022B     		cmp	r3, #2
 404 000a 08D1     		bne	.L23
 211:USB/USB_DEVICE/Target/usbd_conf.c ****   {
 212:USB/USB_DEVICE/Target/usbd_conf.c ****     speed = USBD_SPEED_FULL;
 405              		.loc 1 212 11 view .LVU84
 406 000c 0121     		movs	r1, #1
 407              	.L24:
 408              	.LVL31:
 213:USB/USB_DEVICE/Target/usbd_conf.c ****   }
 214:USB/USB_DEVICE/Target/usbd_conf.c ****   else
 215:USB/USB_DEVICE/Target/usbd_conf.c ****     return;
 216:USB/USB_DEVICE/Target/usbd_conf.c **** 
 217:USB/USB_DEVICE/Target/usbd_conf.c ****   /* Set Speed. */
 218:USB/USB_DEVICE/Target/usbd_conf.c ****   USBD_LL_SetSpeed((USBD_HandleTypeDef *)hpcd->pData, speed);
 409              		.loc 1 218 3 is_stmt 1 view .LVU85
 410 000e D4F80404 		ldr	r0, [r4, #1028]
 411              	.LVL32:
 412              		.loc 1 218 3 is_stmt 0 view .LVU86
 413 0012 FFF7FEFF 		bl	USBD_LL_SetSpeed
 414              	.LVL33:
 219:USB/USB_DEVICE/Target/usbd_conf.c **** 
 220:USB/USB_DEVICE/Target/usbd_conf.c ****   /* Reset Device. */
 221:USB/USB_DEVICE/Target/usbd_conf.c ****   USBD_LL_Reset((USBD_HandleTypeDef *)hpcd->pData);
 415              		.loc 1 221 3 is_stmt 1 view .LVU87
 416 0016 D4F80404 		ldr	r0, [r4, #1028]
 417 001a FFF7FEFF 		bl	USBD_LL_Reset
 418              	.LVL34:
 419              	.L23:
 222:USB/USB_DEVICE/Target/usbd_conf.c **** }
 420              		.loc 1 222 1 is_stmt 0 view .LVU88
 421 001e 10BD     		pop	{r4, pc}
 422              	.LVL35:
 423              	.L26:
 208:USB/USB_DEVICE/Target/usbd_conf.c ****   }
 424              		.loc 1 208 11 view .LVU89
 425 0020 0021     		movs	r1, #0
 426 0022 F4E7     		b	.L24
 427              		.cfi_endproc
 428              	.LFE154:
 430              		.section	.text.HAL_PCD_SuspendCallback,"ax",%progbits
 431              		.align	1
 432              		.global	HAL_PCD_SuspendCallback
 433              		.syntax unified
 434              		.thumb
 435              		.thumb_func
 436              		.fpu fpv5-d16
 438              	HAL_PCD_SuspendCallback:
ARM GAS  C:\Users\HUAV\AppData\Local\Temp\ccmJY7Py.s 			page 13


 439              	.LVL36:
 440              	.LFB155:
 223:USB/USB_DEVICE/Target/usbd_conf.c **** 
 224:USB/USB_DEVICE/Target/usbd_conf.c **** /**
 225:USB/USB_DEVICE/Target/usbd_conf.c ****  * @brief  Suspend callback.
 226:USB/USB_DEVICE/Target/usbd_conf.c ****  * When Low power mode is enabled the debug cannot be used (IAR, Keil doesn't support it)
 227:USB/USB_DEVICE/Target/usbd_conf.c ****  * @param  hpcd: PCD handle
 228:USB/USB_DEVICE/Target/usbd_conf.c ****  * @retval None
 229:USB/USB_DEVICE/Target/usbd_conf.c ****  */
 230:USB/USB_DEVICE/Target/usbd_conf.c **** #if (USE_HAL_PCD_REGISTER_CALLBACKS == 1U)
 231:USB/USB_DEVICE/Target/usbd_conf.c **** static void PCD_SuspendCallback(PCD_HandleTypeDef *hpcd)
 232:USB/USB_DEVICE/Target/usbd_conf.c **** #else
 233:USB/USB_DEVICE/Target/usbd_conf.c **** void HAL_PCD_SuspendCallback(PCD_HandleTypeDef *hpcd)
 234:USB/USB_DEVICE/Target/usbd_conf.c **** #endif /* USE_HAL_PCD_REGISTER_CALLBACKS */
 235:USB/USB_DEVICE/Target/usbd_conf.c **** {
 441              		.loc 1 235 1 is_stmt 1 view -0
 442              		.cfi_startproc
 443              		@ args = 0, pretend = 0, frame = 0
 444              		@ frame_needed = 0, uses_anonymous_args = 0
 445              		.loc 1 235 1 is_stmt 0 view .LVU91
 446 0000 10B5     		push	{r4, lr}
 447              	.LCFI10:
 448              		.cfi_def_cfa_offset 8
 449              		.cfi_offset 4, -8
 450              		.cfi_offset 14, -4
 451 0002 0446     		mov	r4, r0
 236:USB/USB_DEVICE/Target/usbd_conf.c ****   /* Inform USB library that core enters in suspend Mode. */
 237:USB/USB_DEVICE/Target/usbd_conf.c ****   USBD_LL_Suspend((USBD_HandleTypeDef *)hpcd->pData);
 452              		.loc 1 237 3 is_stmt 1 view .LVU92
 453 0004 D0F80404 		ldr	r0, [r0, #1028]
 454              	.LVL37:
 455              		.loc 1 237 3 is_stmt 0 view .LVU93
 456 0008 FFF7FEFF 		bl	USBD_LL_Suspend
 457              	.LVL38:
 238:USB/USB_DEVICE/Target/usbd_conf.c ****   __HAL_PCD_GATE_PHYCLOCK(hpcd);
 458              		.loc 1 238 3 is_stmt 1 view .LVU94
 459 000c 2268     		ldr	r2, [r4]
 460 000e D2F8003E 		ldr	r3, [r2, #3584]
 461 0012 43F00103 		orr	r3, r3, #1
 462 0016 C2F8003E 		str	r3, [r2, #3584]
 239:USB/USB_DEVICE/Target/usbd_conf.c ****   /* Enter in STOP mode. */
 240:USB/USB_DEVICE/Target/usbd_conf.c ****   /* USER CODE BEGIN 2 */
 241:USB/USB_DEVICE/Target/usbd_conf.c ****   if (hpcd->Init.low_power_enable)
 463              		.loc 1 241 3 view .LVU95
 464              		.loc 1 241 17 is_stmt 0 view .LVU96
 465 001a 236A     		ldr	r3, [r4, #32]
 466              		.loc 1 241 6 view .LVU97
 467 001c 23B1     		cbz	r3, .L28
 242:USB/USB_DEVICE/Target/usbd_conf.c ****   {
 243:USB/USB_DEVICE/Target/usbd_conf.c ****     /* Set SLEEPDEEP bit and SleepOnExit of Cortex System Control Register. */
 244:USB/USB_DEVICE/Target/usbd_conf.c ****     SCB->SCR |= (uint32_t)((uint32_t)(SCB_SCR_SLEEPDEEP_Msk | SCB_SCR_SLEEPONEXIT_Msk));
 468              		.loc 1 244 5 is_stmt 1 view .LVU98
 469              		.loc 1 244 14 is_stmt 0 view .LVU99
 470 001e 034A     		ldr	r2, .L31
 471 0020 1369     		ldr	r3, [r2, #16]
 472 0022 43F00603 		orr	r3, r3, #6
 473 0026 1361     		str	r3, [r2, #16]
ARM GAS  C:\Users\HUAV\AppData\Local\Temp\ccmJY7Py.s 			page 14


 474              	.L28:
 245:USB/USB_DEVICE/Target/usbd_conf.c ****   }
 246:USB/USB_DEVICE/Target/usbd_conf.c ****   /* USER CODE END 2 */
 247:USB/USB_DEVICE/Target/usbd_conf.c **** }
 475              		.loc 1 247 1 view .LVU100
 476 0028 10BD     		pop	{r4, pc}
 477              	.LVL39:
 478              	.L32:
 479              		.loc 1 247 1 view .LVU101
 480 002a 00BF     		.align	2
 481              	.L31:
 482 002c 00ED00E0 		.word	-536810240
 483              		.cfi_endproc
 484              	.LFE155:
 486              		.section	.text.HAL_PCD_ResumeCallback,"ax",%progbits
 487              		.align	1
 488              		.global	HAL_PCD_ResumeCallback
 489              		.syntax unified
 490              		.thumb
 491              		.thumb_func
 492              		.fpu fpv5-d16
 494              	HAL_PCD_ResumeCallback:
 495              	.LVL40:
 496              	.LFB156:
 248:USB/USB_DEVICE/Target/usbd_conf.c **** 
 249:USB/USB_DEVICE/Target/usbd_conf.c **** /**
 250:USB/USB_DEVICE/Target/usbd_conf.c ****  * @brief  Resume callback.
 251:USB/USB_DEVICE/Target/usbd_conf.c ****  * When Low power mode is enabled the debug cannot be used (IAR, Keil doesn't support it)
 252:USB/USB_DEVICE/Target/usbd_conf.c ****  * @param  hpcd: PCD handle
 253:USB/USB_DEVICE/Target/usbd_conf.c ****  * @retval None
 254:USB/USB_DEVICE/Target/usbd_conf.c ****  */
 255:USB/USB_DEVICE/Target/usbd_conf.c **** #if (USE_HAL_PCD_REGISTER_CALLBACKS == 1U)
 256:USB/USB_DEVICE/Target/usbd_conf.c **** static void PCD_ResumeCallback(PCD_HandleTypeDef *hpcd)
 257:USB/USB_DEVICE/Target/usbd_conf.c **** #else
 258:USB/USB_DEVICE/Target/usbd_conf.c **** void HAL_PCD_ResumeCallback(PCD_HandleTypeDef *hpcd)
 259:USB/USB_DEVICE/Target/usbd_conf.c **** #endif /* USE_HAL_PCD_REGISTER_CALLBACKS */
 260:USB/USB_DEVICE/Target/usbd_conf.c **** {
 497              		.loc 1 260 1 is_stmt 1 view -0
 498              		.cfi_startproc
 499              		@ args = 0, pretend = 0, frame = 0
 500              		@ frame_needed = 0, uses_anonymous_args = 0
 501              		.loc 1 260 1 is_stmt 0 view .LVU103
 502 0000 08B5     		push	{r3, lr}
 503              	.LCFI11:
 504              		.cfi_def_cfa_offset 8
 505              		.cfi_offset 3, -8
 506              		.cfi_offset 14, -4
 261:USB/USB_DEVICE/Target/usbd_conf.c ****   /* USER CODE BEGIN 3 */
 262:USB/USB_DEVICE/Target/usbd_conf.c **** 
 263:USB/USB_DEVICE/Target/usbd_conf.c ****   /* USER CODE END 3 */
 264:USB/USB_DEVICE/Target/usbd_conf.c ****   USBD_LL_Resume((USBD_HandleTypeDef *)hpcd->pData);
 507              		.loc 1 264 3 is_stmt 1 view .LVU104
 508 0002 D0F80404 		ldr	r0, [r0, #1028]
 509              	.LVL41:
 510              		.loc 1 264 3 is_stmt 0 view .LVU105
 511 0006 FFF7FEFF 		bl	USBD_LL_Resume
 512              	.LVL42:
ARM GAS  C:\Users\HUAV\AppData\Local\Temp\ccmJY7Py.s 			page 15


 265:USB/USB_DEVICE/Target/usbd_conf.c **** }
 513              		.loc 1 265 1 view .LVU106
 514 000a 08BD     		pop	{r3, pc}
 515              		.cfi_endproc
 516              	.LFE156:
 518              		.section	.text.HAL_PCD_ISOOUTIncompleteCallback,"ax",%progbits
 519              		.align	1
 520              		.global	HAL_PCD_ISOOUTIncompleteCallback
 521              		.syntax unified
 522              		.thumb
 523              		.thumb_func
 524              		.fpu fpv5-d16
 526              	HAL_PCD_ISOOUTIncompleteCallback:
 527              	.LVL43:
 528              	.LFB157:
 266:USB/USB_DEVICE/Target/usbd_conf.c **** 
 267:USB/USB_DEVICE/Target/usbd_conf.c **** /**
 268:USB/USB_DEVICE/Target/usbd_conf.c ****  * @brief  ISOOUTIncomplete callback.
 269:USB/USB_DEVICE/Target/usbd_conf.c ****  * @param  hpcd: PCD handle
 270:USB/USB_DEVICE/Target/usbd_conf.c ****  * @param  epnum: Endpoint number
 271:USB/USB_DEVICE/Target/usbd_conf.c ****  * @retval None
 272:USB/USB_DEVICE/Target/usbd_conf.c ****  */
 273:USB/USB_DEVICE/Target/usbd_conf.c **** #if (USE_HAL_PCD_REGISTER_CALLBACKS == 1U)
 274:USB/USB_DEVICE/Target/usbd_conf.c **** static void PCD_ISOOUTIncompleteCallback(PCD_HandleTypeDef *hpcd, uint8_t epnum)
 275:USB/USB_DEVICE/Target/usbd_conf.c **** #else
 276:USB/USB_DEVICE/Target/usbd_conf.c **** void HAL_PCD_ISOOUTIncompleteCallback(PCD_HandleTypeDef *hpcd, uint8_t epnum)
 277:USB/USB_DEVICE/Target/usbd_conf.c **** #endif /* USE_HAL_PCD_REGISTER_CALLBACKS */
 278:USB/USB_DEVICE/Target/usbd_conf.c **** {
 529              		.loc 1 278 1 is_stmt 1 view -0
 530              		.cfi_startproc
 531              		@ args = 0, pretend = 0, frame = 0
 532              		@ frame_needed = 0, uses_anonymous_args = 0
 533              		.loc 1 278 1 is_stmt 0 view .LVU108
 534 0000 08B5     		push	{r3, lr}
 535              	.LCFI12:
 536              		.cfi_def_cfa_offset 8
 537              		.cfi_offset 3, -8
 538              		.cfi_offset 14, -4
 279:USB/USB_DEVICE/Target/usbd_conf.c ****   USBD_LL_IsoOUTIncomplete((USBD_HandleTypeDef *)hpcd->pData, epnum);
 539              		.loc 1 279 3 is_stmt 1 view .LVU109
 540 0002 D0F80404 		ldr	r0, [r0, #1028]
 541              	.LVL44:
 542              		.loc 1 279 3 is_stmt 0 view .LVU110
 543 0006 FFF7FEFF 		bl	USBD_LL_IsoOUTIncomplete
 544              	.LVL45:
 280:USB/USB_DEVICE/Target/usbd_conf.c **** }
 545              		.loc 1 280 1 view .LVU111
 546 000a 08BD     		pop	{r3, pc}
 547              		.cfi_endproc
 548              	.LFE157:
 550              		.section	.text.HAL_PCD_ISOINIncompleteCallback,"ax",%progbits
 551              		.align	1
 552              		.global	HAL_PCD_ISOINIncompleteCallback
 553              		.syntax unified
 554              		.thumb
 555              		.thumb_func
 556              		.fpu fpv5-d16
ARM GAS  C:\Users\HUAV\AppData\Local\Temp\ccmJY7Py.s 			page 16


 558              	HAL_PCD_ISOINIncompleteCallback:
 559              	.LVL46:
 560              	.LFB158:
 281:USB/USB_DEVICE/Target/usbd_conf.c **** 
 282:USB/USB_DEVICE/Target/usbd_conf.c **** /**
 283:USB/USB_DEVICE/Target/usbd_conf.c ****  * @brief  ISOINIncomplete callback.
 284:USB/USB_DEVICE/Target/usbd_conf.c ****  * @param  hpcd: PCD handle
 285:USB/USB_DEVICE/Target/usbd_conf.c ****  * @param  epnum: Endpoint number
 286:USB/USB_DEVICE/Target/usbd_conf.c ****  * @retval None
 287:USB/USB_DEVICE/Target/usbd_conf.c ****  */
 288:USB/USB_DEVICE/Target/usbd_conf.c **** #if (USE_HAL_PCD_REGISTER_CALLBACKS == 1U)
 289:USB/USB_DEVICE/Target/usbd_conf.c **** static void PCD_ISOINIncompleteCallback(PCD_HandleTypeDef *hpcd, uint8_t epnum)
 290:USB/USB_DEVICE/Target/usbd_conf.c **** #else
 291:USB/USB_DEVICE/Target/usbd_conf.c **** void HAL_PCD_ISOINIncompleteCallback(PCD_HandleTypeDef *hpcd, uint8_t epnum)
 292:USB/USB_DEVICE/Target/usbd_conf.c **** #endif /* USE_HAL_PCD_REGISTER_CALLBACKS */
 293:USB/USB_DEVICE/Target/usbd_conf.c **** {
 561              		.loc 1 293 1 is_stmt 1 view -0
 562              		.cfi_startproc
 563              		@ args = 0, pretend = 0, frame = 0
 564              		@ frame_needed = 0, uses_anonymous_args = 0
 565              		.loc 1 293 1 is_stmt 0 view .LVU113
 566 0000 08B5     		push	{r3, lr}
 567              	.LCFI13:
 568              		.cfi_def_cfa_offset 8
 569              		.cfi_offset 3, -8
 570              		.cfi_offset 14, -4
 294:USB/USB_DEVICE/Target/usbd_conf.c ****   USBD_LL_IsoINIncomplete((USBD_HandleTypeDef *)hpcd->pData, epnum);
 571              		.loc 1 294 3 is_stmt 1 view .LVU114
 572 0002 D0F80404 		ldr	r0, [r0, #1028]
 573              	.LVL47:
 574              		.loc 1 294 3 is_stmt 0 view .LVU115
 575 0006 FFF7FEFF 		bl	USBD_LL_IsoINIncomplete
 576              	.LVL48:
 295:USB/USB_DEVICE/Target/usbd_conf.c **** }
 577              		.loc 1 295 1 view .LVU116
 578 000a 08BD     		pop	{r3, pc}
 579              		.cfi_endproc
 580              	.LFE158:
 582              		.section	.text.HAL_PCD_ConnectCallback,"ax",%progbits
 583              		.align	1
 584              		.global	HAL_PCD_ConnectCallback
 585              		.syntax unified
 586              		.thumb
 587              		.thumb_func
 588              		.fpu fpv5-d16
 590              	HAL_PCD_ConnectCallback:
 591              	.LVL49:
 592              	.LFB159:
 296:USB/USB_DEVICE/Target/usbd_conf.c **** 
 297:USB/USB_DEVICE/Target/usbd_conf.c **** /**
 298:USB/USB_DEVICE/Target/usbd_conf.c ****  * @brief  Connect callback.
 299:USB/USB_DEVICE/Target/usbd_conf.c ****  * @param  hpcd: PCD handle
 300:USB/USB_DEVICE/Target/usbd_conf.c ****  * @retval None
 301:USB/USB_DEVICE/Target/usbd_conf.c ****  */
 302:USB/USB_DEVICE/Target/usbd_conf.c **** #if (USE_HAL_PCD_REGISTER_CALLBACKS == 1U)
 303:USB/USB_DEVICE/Target/usbd_conf.c **** static void PCD_ConnectCallback(PCD_HandleTypeDef *hpcd)
 304:USB/USB_DEVICE/Target/usbd_conf.c **** #else
ARM GAS  C:\Users\HUAV\AppData\Local\Temp\ccmJY7Py.s 			page 17


 305:USB/USB_DEVICE/Target/usbd_conf.c **** void HAL_PCD_ConnectCallback(PCD_HandleTypeDef *hpcd)
 306:USB/USB_DEVICE/Target/usbd_conf.c **** #endif /* USE_HAL_PCD_REGISTER_CALLBACKS */
 307:USB/USB_DEVICE/Target/usbd_conf.c **** {
 593              		.loc 1 307 1 is_stmt 1 view -0
 594              		.cfi_startproc
 595              		@ args = 0, pretend = 0, frame = 0
 596              		@ frame_needed = 0, uses_anonymous_args = 0
 597              		.loc 1 307 1 is_stmt 0 view .LVU118
 598 0000 08B5     		push	{r3, lr}
 599              	.LCFI14:
 600              		.cfi_def_cfa_offset 8
 601              		.cfi_offset 3, -8
 602              		.cfi_offset 14, -4
 308:USB/USB_DEVICE/Target/usbd_conf.c ****   USBD_LL_DevConnected((USBD_HandleTypeDef *)hpcd->pData);
 603              		.loc 1 308 3 is_stmt 1 view .LVU119
 604 0002 D0F80404 		ldr	r0, [r0, #1028]
 605              	.LVL50:
 606              		.loc 1 308 3 is_stmt 0 view .LVU120
 607 0006 FFF7FEFF 		bl	USBD_LL_DevConnected
 608              	.LVL51:
 309:USB/USB_DEVICE/Target/usbd_conf.c **** }
 609              		.loc 1 309 1 view .LVU121
 610 000a 08BD     		pop	{r3, pc}
 611              		.cfi_endproc
 612              	.LFE159:
 614              		.section	.text.HAL_PCD_DisconnectCallback,"ax",%progbits
 615              		.align	1
 616              		.global	HAL_PCD_DisconnectCallback
 617              		.syntax unified
 618              		.thumb
 619              		.thumb_func
 620              		.fpu fpv5-d16
 622              	HAL_PCD_DisconnectCallback:
 623              	.LVL52:
 624              	.LFB160:
 310:USB/USB_DEVICE/Target/usbd_conf.c **** 
 311:USB/USB_DEVICE/Target/usbd_conf.c **** /**
 312:USB/USB_DEVICE/Target/usbd_conf.c ****  * @brief  Disconnect callback.
 313:USB/USB_DEVICE/Target/usbd_conf.c ****  * @param  hpcd: PCD handle
 314:USB/USB_DEVICE/Target/usbd_conf.c ****  * @retval None
 315:USB/USB_DEVICE/Target/usbd_conf.c ****  */
 316:USB/USB_DEVICE/Target/usbd_conf.c **** #if (USE_HAL_PCD_REGISTER_CALLBACKS == 1U)
 317:USB/USB_DEVICE/Target/usbd_conf.c **** static void PCD_DisconnectCallback(PCD_HandleTypeDef *hpcd)
 318:USB/USB_DEVICE/Target/usbd_conf.c **** #else
 319:USB/USB_DEVICE/Target/usbd_conf.c **** void HAL_PCD_DisconnectCallback(PCD_HandleTypeDef *hpcd)
 320:USB/USB_DEVICE/Target/usbd_conf.c **** #endif /* USE_HAL_PCD_REGISTER_CALLBACKS */
 321:USB/USB_DEVICE/Target/usbd_conf.c **** {
 625              		.loc 1 321 1 is_stmt 1 view -0
 626              		.cfi_startproc
 627              		@ args = 0, pretend = 0, frame = 0
 628              		@ frame_needed = 0, uses_anonymous_args = 0
 629              		.loc 1 321 1 is_stmt 0 view .LVU123
 630 0000 08B5     		push	{r3, lr}
 631              	.LCFI15:
 632              		.cfi_def_cfa_offset 8
 633              		.cfi_offset 3, -8
 634              		.cfi_offset 14, -4
ARM GAS  C:\Users\HUAV\AppData\Local\Temp\ccmJY7Py.s 			page 18


 322:USB/USB_DEVICE/Target/usbd_conf.c ****   USBD_LL_DevDisconnected((USBD_HandleTypeDef *)hpcd->pData);
 635              		.loc 1 322 3 is_stmt 1 view .LVU124
 636 0002 D0F80404 		ldr	r0, [r0, #1028]
 637              	.LVL53:
 638              		.loc 1 322 3 is_stmt 0 view .LVU125
 639 0006 FFF7FEFF 		bl	USBD_LL_DevDisconnected
 640              	.LVL54:
 323:USB/USB_DEVICE/Target/usbd_conf.c **** }
 641              		.loc 1 323 1 view .LVU126
 642 000a 08BD     		pop	{r3, pc}
 643              		.cfi_endproc
 644              	.LFE160:
 646              		.section	.text.USBD_LL_Init,"ax",%progbits
 647              		.align	1
 648              		.global	USBD_LL_Init
 649              		.syntax unified
 650              		.thumb
 651              		.thumb_func
 652              		.fpu fpv5-d16
 654              	USBD_LL_Init:
 655              	.LVL55:
 656              	.LFB161:
 324:USB/USB_DEVICE/Target/usbd_conf.c **** 
 325:USB/USB_DEVICE/Target/usbd_conf.c **** /*******************************************************************************
 326:USB/USB_DEVICE/Target/usbd_conf.c ****                        LL Driver Interface (USB Device Library --> PCD)
 327:USB/USB_DEVICE/Target/usbd_conf.c **** *******************************************************************************/
 328:USB/USB_DEVICE/Target/usbd_conf.c **** 
 329:USB/USB_DEVICE/Target/usbd_conf.c **** /**
 330:USB/USB_DEVICE/Target/usbd_conf.c ****  * @brief  Initializes the low level portion of the device driver.
 331:USB/USB_DEVICE/Target/usbd_conf.c ****  * @param  pdev: Device handle
 332:USB/USB_DEVICE/Target/usbd_conf.c ****  * @retval USBD status
 333:USB/USB_DEVICE/Target/usbd_conf.c ****  */
 334:USB/USB_DEVICE/Target/usbd_conf.c **** USBD_StatusTypeDef USBD_LL_Init(USBD_HandleTypeDef *pdev)
 335:USB/USB_DEVICE/Target/usbd_conf.c **** {
 657              		.loc 1 335 1 is_stmt 1 view -0
 658              		.cfi_startproc
 659              		@ args = 0, pretend = 0, frame = 0
 660              		@ frame_needed = 0, uses_anonymous_args = 0
 336:USB/USB_DEVICE/Target/usbd_conf.c ****   /* Init USB Ip. */
 337:USB/USB_DEVICE/Target/usbd_conf.c ****   if (pdev->id == DEVICE_FS)
 661              		.loc 1 337 3 view .LVU128
 662              		.loc 1 337 11 is_stmt 0 view .LVU129
 663 0000 0278     		ldrb	r2, [r0]	@ zero_extendqisi2
 664              		.loc 1 337 6 view .LVU130
 665 0002 0AB1     		cbz	r2, .L51
 338:USB/USB_DEVICE/Target/usbd_conf.c ****   {
 339:USB/USB_DEVICE/Target/usbd_conf.c ****     /* Link the driver to the stack. */
 340:USB/USB_DEVICE/Target/usbd_conf.c ****     hpcd_USB_OTG_FS.pData = pdev;
 341:USB/USB_DEVICE/Target/usbd_conf.c ****     pdev->pData = &hpcd_USB_OTG_FS;
 342:USB/USB_DEVICE/Target/usbd_conf.c **** 
 343:USB/USB_DEVICE/Target/usbd_conf.c ****     hpcd_USB_OTG_FS.Instance = USB_OTG_FS;
 344:USB/USB_DEVICE/Target/usbd_conf.c ****     hpcd_USB_OTG_FS.Init.dev_endpoints = 9;
 345:USB/USB_DEVICE/Target/usbd_conf.c ****     hpcd_USB_OTG_FS.Init.speed = PCD_SPEED_FULL;
 346:USB/USB_DEVICE/Target/usbd_conf.c ****     hpcd_USB_OTG_FS.Init.dma_enable = DISABLE;
 347:USB/USB_DEVICE/Target/usbd_conf.c ****     hpcd_USB_OTG_FS.Init.phy_itface = PCD_PHY_EMBEDDED;
 348:USB/USB_DEVICE/Target/usbd_conf.c ****     hpcd_USB_OTG_FS.Init.Sof_enable = DISABLE;
 349:USB/USB_DEVICE/Target/usbd_conf.c ****     hpcd_USB_OTG_FS.Init.low_power_enable = DISABLE;
ARM GAS  C:\Users\HUAV\AppData\Local\Temp\ccmJY7Py.s 			page 19


 350:USB/USB_DEVICE/Target/usbd_conf.c ****     hpcd_USB_OTG_FS.Init.lpm_enable = DISABLE;
 351:USB/USB_DEVICE/Target/usbd_conf.c ****     hpcd_USB_OTG_FS.Init.battery_charging_enable = DISABLE;
 352:USB/USB_DEVICE/Target/usbd_conf.c ****     hpcd_USB_OTG_FS.Init.vbus_sensing_enable = DISABLE;
 353:USB/USB_DEVICE/Target/usbd_conf.c ****     hpcd_USB_OTG_FS.Init.use_dedicated_ep1 = DISABLE;
 354:USB/USB_DEVICE/Target/usbd_conf.c ****     if (HAL_PCD_Init(&hpcd_USB_OTG_FS) != HAL_OK)
 355:USB/USB_DEVICE/Target/usbd_conf.c ****       return;
 356:USB/USB_DEVICE/Target/usbd_conf.c **** 
 357:USB/USB_DEVICE/Target/usbd_conf.c **** #if (USE_HAL_PCD_REGISTER_CALLBACKS == 1U)
 358:USB/USB_DEVICE/Target/usbd_conf.c ****     /* Register USB PCD CallBacks */
 359:USB/USB_DEVICE/Target/usbd_conf.c ****     HAL_PCD_RegisterCallback(&hpcd_USB_OTG_FS, HAL_PCD_SOF_CB_ID, PCD_SOFCallback);
 360:USB/USB_DEVICE/Target/usbd_conf.c ****     HAL_PCD_RegisterCallback(&hpcd_USB_OTG_FS, HAL_PCD_SETUPSTAGE_CB_ID, PCD_SetupStageCallback);
 361:USB/USB_DEVICE/Target/usbd_conf.c ****     HAL_PCD_RegisterCallback(&hpcd_USB_OTG_FS, HAL_PCD_RESET_CB_ID, PCD_ResetCallback);
 362:USB/USB_DEVICE/Target/usbd_conf.c ****     HAL_PCD_RegisterCallback(&hpcd_USB_OTG_FS, HAL_PCD_SUSPEND_CB_ID, PCD_SuspendCallback);
 363:USB/USB_DEVICE/Target/usbd_conf.c ****     HAL_PCD_RegisterCallback(&hpcd_USB_OTG_FS, HAL_PCD_RESUME_CB_ID, PCD_ResumeCallback);
 364:USB/USB_DEVICE/Target/usbd_conf.c ****     HAL_PCD_RegisterCallback(&hpcd_USB_OTG_FS, HAL_PCD_CONNECT_CB_ID, PCD_ConnectCallback);
 365:USB/USB_DEVICE/Target/usbd_conf.c ****     HAL_PCD_RegisterCallback(&hpcd_USB_OTG_FS, HAL_PCD_DISCONNECT_CB_ID, PCD_DisconnectCallback);
 366:USB/USB_DEVICE/Target/usbd_conf.c **** 
 367:USB/USB_DEVICE/Target/usbd_conf.c ****     HAL_PCD_RegisterDataOutStageCallback(&hpcd_USB_OTG_FS, PCD_DataOutStageCallback);
 368:USB/USB_DEVICE/Target/usbd_conf.c ****     HAL_PCD_RegisterDataInStageCallback(&hpcd_USB_OTG_FS, PCD_DataInStageCallback);
 369:USB/USB_DEVICE/Target/usbd_conf.c ****     HAL_PCD_RegisterIsoOutIncpltCallback(&hpcd_USB_OTG_FS, PCD_ISOOUTIncompleteCallback);
 370:USB/USB_DEVICE/Target/usbd_conf.c ****     HAL_PCD_RegisterIsoInIncpltCallback(&hpcd_USB_OTG_FS, PCD_ISOINIncompleteCallback);
 371:USB/USB_DEVICE/Target/usbd_conf.c **** #endif /* USE_HAL_PCD_REGISTER_CALLBACKS */
 372:USB/USB_DEVICE/Target/usbd_conf.c ****     HAL_PCDEx_SetRxFiFo(&hpcd_USB_OTG_FS, 0x80);
 373:USB/USB_DEVICE/Target/usbd_conf.c ****     HAL_PCDEx_SetTxFiFo(&hpcd_USB_OTG_FS, 0, 0x40);
 374:USB/USB_DEVICE/Target/usbd_conf.c ****     HAL_PCDEx_SetTxFiFo(&hpcd_USB_OTG_FS, 1, 0x80);
 375:USB/USB_DEVICE/Target/usbd_conf.c ****   }
 376:USB/USB_DEVICE/Target/usbd_conf.c ****   return USBD_OK;
 666              		.loc 1 376 3 is_stmt 1 view .LVU131
 667              		.loc 1 376 10 is_stmt 0 view .LVU132
 668 0004 0020     		movs	r0, #0
 669              	.LVL56:
 377:USB/USB_DEVICE/Target/usbd_conf.c **** }
 670              		.loc 1 377 1 view .LVU133
 671 0006 7047     		bx	lr
 672              	.LVL57:
 673              	.L51:
 335:USB/USB_DEVICE/Target/usbd_conf.c ****   /* Init USB Ip. */
 674              		.loc 1 335 1 view .LVU134
 675 0008 10B5     		push	{r4, lr}
 676              	.LCFI16:
 677              		.cfi_def_cfa_offset 8
 678              		.cfi_offset 4, -8
 679              		.cfi_offset 14, -4
 680 000a 0346     		mov	r3, r0
 340:USB/USB_DEVICE/Target/usbd_conf.c ****     pdev->pData = &hpcd_USB_OTG_FS;
 681              		.loc 1 340 5 is_stmt 1 view .LVU135
 340:USB/USB_DEVICE/Target/usbd_conf.c ****     pdev->pData = &hpcd_USB_OTG_FS;
 682              		.loc 1 340 27 is_stmt 0 view .LVU136
 683 000c 1448     		ldr	r0, .L52
 684              	.LVL58:
 340:USB/USB_DEVICE/Target/usbd_conf.c ****     pdev->pData = &hpcd_USB_OTG_FS;
 685              		.loc 1 340 27 view .LVU137
 686 000e C0F80434 		str	r3, [r0, #1028]
 341:USB/USB_DEVICE/Target/usbd_conf.c **** 
 687              		.loc 1 341 5 is_stmt 1 view .LVU138
 341:USB/USB_DEVICE/Target/usbd_conf.c **** 
 688              		.loc 1 341 17 is_stmt 0 view .LVU139
ARM GAS  C:\Users\HUAV\AppData\Local\Temp\ccmJY7Py.s 			page 20


 689 0012 C3F8C402 		str	r0, [r3, #708]
 343:USB/USB_DEVICE/Target/usbd_conf.c ****     hpcd_USB_OTG_FS.Init.dev_endpoints = 9;
 690              		.loc 1 343 5 is_stmt 1 view .LVU140
 343:USB/USB_DEVICE/Target/usbd_conf.c ****     hpcd_USB_OTG_FS.Init.dev_endpoints = 9;
 691              		.loc 1 343 30 is_stmt 0 view .LVU141
 692 0016 134B     		ldr	r3, .L52+4
 693              	.LVL59:
 343:USB/USB_DEVICE/Target/usbd_conf.c ****     hpcd_USB_OTG_FS.Init.dev_endpoints = 9;
 694              		.loc 1 343 30 view .LVU142
 695 0018 0360     		str	r3, [r0]
 344:USB/USB_DEVICE/Target/usbd_conf.c ****     hpcd_USB_OTG_FS.Init.speed = PCD_SPEED_FULL;
 696              		.loc 1 344 5 is_stmt 1 view .LVU143
 344:USB/USB_DEVICE/Target/usbd_conf.c ****     hpcd_USB_OTG_FS.Init.speed = PCD_SPEED_FULL;
 697              		.loc 1 344 40 is_stmt 0 view .LVU144
 698 001a 0923     		movs	r3, #9
 699 001c 4360     		str	r3, [r0, #4]
 345:USB/USB_DEVICE/Target/usbd_conf.c ****     hpcd_USB_OTG_FS.Init.dma_enable = DISABLE;
 700              		.loc 1 345 5 is_stmt 1 view .LVU145
 345:USB/USB_DEVICE/Target/usbd_conf.c ****     hpcd_USB_OTG_FS.Init.dma_enable = DISABLE;
 701              		.loc 1 345 32 is_stmt 0 view .LVU146
 702 001e 0222     		movs	r2, #2
 703 0020 C260     		str	r2, [r0, #12]
 346:USB/USB_DEVICE/Target/usbd_conf.c ****     hpcd_USB_OTG_FS.Init.phy_itface = PCD_PHY_EMBEDDED;
 704              		.loc 1 346 5 is_stmt 1 view .LVU147
 346:USB/USB_DEVICE/Target/usbd_conf.c ****     hpcd_USB_OTG_FS.Init.phy_itface = PCD_PHY_EMBEDDED;
 705              		.loc 1 346 37 is_stmt 0 view .LVU148
 706 0022 0023     		movs	r3, #0
 707 0024 0361     		str	r3, [r0, #16]
 347:USB/USB_DEVICE/Target/usbd_conf.c ****     hpcd_USB_OTG_FS.Init.Sof_enable = DISABLE;
 708              		.loc 1 347 5 is_stmt 1 view .LVU149
 347:USB/USB_DEVICE/Target/usbd_conf.c ****     hpcd_USB_OTG_FS.Init.Sof_enable = DISABLE;
 709              		.loc 1 347 37 is_stmt 0 view .LVU150
 710 0026 8261     		str	r2, [r0, #24]
 348:USB/USB_DEVICE/Target/usbd_conf.c ****     hpcd_USB_OTG_FS.Init.low_power_enable = DISABLE;
 711              		.loc 1 348 5 is_stmt 1 view .LVU151
 348:USB/USB_DEVICE/Target/usbd_conf.c ****     hpcd_USB_OTG_FS.Init.low_power_enable = DISABLE;
 712              		.loc 1 348 37 is_stmt 0 view .LVU152
 713 0028 C361     		str	r3, [r0, #28]
 349:USB/USB_DEVICE/Target/usbd_conf.c ****     hpcd_USB_OTG_FS.Init.lpm_enable = DISABLE;
 714              		.loc 1 349 5 is_stmt 1 view .LVU153
 349:USB/USB_DEVICE/Target/usbd_conf.c ****     hpcd_USB_OTG_FS.Init.lpm_enable = DISABLE;
 715              		.loc 1 349 43 is_stmt 0 view .LVU154
 716 002a 0362     		str	r3, [r0, #32]
 350:USB/USB_DEVICE/Target/usbd_conf.c ****     hpcd_USB_OTG_FS.Init.battery_charging_enable = DISABLE;
 717              		.loc 1 350 5 is_stmt 1 view .LVU155
 350:USB/USB_DEVICE/Target/usbd_conf.c ****     hpcd_USB_OTG_FS.Init.battery_charging_enable = DISABLE;
 718              		.loc 1 350 37 is_stmt 0 view .LVU156
 719 002c 4362     		str	r3, [r0, #36]
 351:USB/USB_DEVICE/Target/usbd_conf.c ****     hpcd_USB_OTG_FS.Init.vbus_sensing_enable = DISABLE;
 720              		.loc 1 351 5 is_stmt 1 view .LVU157
 351:USB/USB_DEVICE/Target/usbd_conf.c ****     hpcd_USB_OTG_FS.Init.vbus_sensing_enable = DISABLE;
 721              		.loc 1 351 50 is_stmt 0 view .LVU158
 722 002e 8362     		str	r3, [r0, #40]
 352:USB/USB_DEVICE/Target/usbd_conf.c ****     hpcd_USB_OTG_FS.Init.use_dedicated_ep1 = DISABLE;
 723              		.loc 1 352 5 is_stmt 1 view .LVU159
 352:USB/USB_DEVICE/Target/usbd_conf.c ****     hpcd_USB_OTG_FS.Init.use_dedicated_ep1 = DISABLE;
 724              		.loc 1 352 46 is_stmt 0 view .LVU160
ARM GAS  C:\Users\HUAV\AppData\Local\Temp\ccmJY7Py.s 			page 21


 725 0030 C362     		str	r3, [r0, #44]
 353:USB/USB_DEVICE/Target/usbd_conf.c ****     if (HAL_PCD_Init(&hpcd_USB_OTG_FS) != HAL_OK)
 726              		.loc 1 353 5 is_stmt 1 view .LVU161
 353:USB/USB_DEVICE/Target/usbd_conf.c ****     if (HAL_PCD_Init(&hpcd_USB_OTG_FS) != HAL_OK)
 727              		.loc 1 353 44 is_stmt 0 view .LVU162
 728 0032 0363     		str	r3, [r0, #48]
 354:USB/USB_DEVICE/Target/usbd_conf.c ****       return;
 729              		.loc 1 354 5 is_stmt 1 view .LVU163
 354:USB/USB_DEVICE/Target/usbd_conf.c ****       return;
 730              		.loc 1 354 9 is_stmt 0 view .LVU164
 731 0034 FFF7FEFF 		bl	HAL_PCD_Init
 732              	.LVL60:
 354:USB/USB_DEVICE/Target/usbd_conf.c ****       return;
 733              		.loc 1 354 8 view .LVU165
 734 0038 00B1     		cbz	r0, .L45
 735              	.L43:
 736              		.loc 1 377 1 view .LVU166
 737 003a 10BD     		pop	{r4, pc}
 738              	.L45:
 372:USB/USB_DEVICE/Target/usbd_conf.c ****     HAL_PCDEx_SetTxFiFo(&hpcd_USB_OTG_FS, 0, 0x40);
 739              		.loc 1 372 5 is_stmt 1 view .LVU167
 740 003c 084C     		ldr	r4, .L52
 741 003e 8021     		movs	r1, #128
 742 0040 2046     		mov	r0, r4
 743 0042 FFF7FEFF 		bl	HAL_PCDEx_SetRxFiFo
 744              	.LVL61:
 373:USB/USB_DEVICE/Target/usbd_conf.c ****     HAL_PCDEx_SetTxFiFo(&hpcd_USB_OTG_FS, 1, 0x80);
 745              		.loc 1 373 5 view .LVU168
 746 0046 4022     		movs	r2, #64
 747 0048 0021     		movs	r1, #0
 748 004a 2046     		mov	r0, r4
 749 004c FFF7FEFF 		bl	HAL_PCDEx_SetTxFiFo
 750              	.LVL62:
 374:USB/USB_DEVICE/Target/usbd_conf.c ****   }
 751              		.loc 1 374 5 view .LVU169
 752 0050 8022     		movs	r2, #128
 753 0052 0121     		movs	r1, #1
 754 0054 2046     		mov	r0, r4
 755 0056 FFF7FEFF 		bl	HAL_PCDEx_SetTxFiFo
 756              	.LVL63:
 376:USB/USB_DEVICE/Target/usbd_conf.c **** }
 757              		.loc 1 376 3 view .LVU170
 376:USB/USB_DEVICE/Target/usbd_conf.c **** }
 758              		.loc 1 376 10 is_stmt 0 view .LVU171
 759 005a 0020     		movs	r0, #0
 760 005c EDE7     		b	.L43
 761              	.L53:
 762 005e 00BF     		.align	2
 763              	.L52:
 764 0060 00000000 		.word	.LANCHOR0
 765 0064 00000840 		.word	1074266112
 766              		.cfi_endproc
 767              	.LFE161:
 769              		.section	.text.USBD_LL_IsStallEP,"ax",%progbits
 770              		.align	1
 771              		.global	USBD_LL_IsStallEP
 772              		.syntax unified
ARM GAS  C:\Users\HUAV\AppData\Local\Temp\ccmJY7Py.s 			page 22


 773              		.thumb
 774              		.thumb_func
 775              		.fpu fpv5-d16
 777              	USBD_LL_IsStallEP:
 778              	.LVL64:
 779              	.LFB170:
 378:USB/USB_DEVICE/Target/usbd_conf.c **** 
 379:USB/USB_DEVICE/Target/usbd_conf.c **** /**
 380:USB/USB_DEVICE/Target/usbd_conf.c ****  * @brief  De-Initializes the low level portion of the device driver.
 381:USB/USB_DEVICE/Target/usbd_conf.c ****  * @param  pdev: Device handle
 382:USB/USB_DEVICE/Target/usbd_conf.c ****  * @retval USBD status
 383:USB/USB_DEVICE/Target/usbd_conf.c ****  */
 384:USB/USB_DEVICE/Target/usbd_conf.c **** USBD_StatusTypeDef USBD_LL_DeInit(USBD_HandleTypeDef *pdev)
 385:USB/USB_DEVICE/Target/usbd_conf.c **** {
 386:USB/USB_DEVICE/Target/usbd_conf.c ****   HAL_StatusTypeDef hal_status = HAL_OK;
 387:USB/USB_DEVICE/Target/usbd_conf.c ****   USBD_StatusTypeDef usb_status = USBD_OK;
 388:USB/USB_DEVICE/Target/usbd_conf.c **** 
 389:USB/USB_DEVICE/Target/usbd_conf.c ****   hal_status = HAL_PCD_DeInit(pdev->pData);
 390:USB/USB_DEVICE/Target/usbd_conf.c **** 
 391:USB/USB_DEVICE/Target/usbd_conf.c ****   usb_status = USBD_Get_USB_Status(hal_status);
 392:USB/USB_DEVICE/Target/usbd_conf.c **** 
 393:USB/USB_DEVICE/Target/usbd_conf.c ****   return usb_status;
 394:USB/USB_DEVICE/Target/usbd_conf.c **** }
 395:USB/USB_DEVICE/Target/usbd_conf.c **** 
 396:USB/USB_DEVICE/Target/usbd_conf.c **** /**
 397:USB/USB_DEVICE/Target/usbd_conf.c ****  * @brief  Starts the low level portion of the device driver.
 398:USB/USB_DEVICE/Target/usbd_conf.c ****  * @param  pdev: Device handle
 399:USB/USB_DEVICE/Target/usbd_conf.c ****  * @retval USBD status
 400:USB/USB_DEVICE/Target/usbd_conf.c ****  */
 401:USB/USB_DEVICE/Target/usbd_conf.c **** USBD_StatusTypeDef USBD_LL_Start(USBD_HandleTypeDef *pdev)
 402:USB/USB_DEVICE/Target/usbd_conf.c **** {
 403:USB/USB_DEVICE/Target/usbd_conf.c ****   HAL_StatusTypeDef hal_status = HAL_OK;
 404:USB/USB_DEVICE/Target/usbd_conf.c ****   USBD_StatusTypeDef usb_status = USBD_OK;
 405:USB/USB_DEVICE/Target/usbd_conf.c **** 
 406:USB/USB_DEVICE/Target/usbd_conf.c ****   hal_status = HAL_PCD_Start(pdev->pData);
 407:USB/USB_DEVICE/Target/usbd_conf.c **** 
 408:USB/USB_DEVICE/Target/usbd_conf.c ****   usb_status = USBD_Get_USB_Status(hal_status);
 409:USB/USB_DEVICE/Target/usbd_conf.c **** 
 410:USB/USB_DEVICE/Target/usbd_conf.c ****   return usb_status;
 411:USB/USB_DEVICE/Target/usbd_conf.c **** }
 412:USB/USB_DEVICE/Target/usbd_conf.c **** 
 413:USB/USB_DEVICE/Target/usbd_conf.c **** /**
 414:USB/USB_DEVICE/Target/usbd_conf.c ****  * @brief  Stops the low level portion of the device driver.
 415:USB/USB_DEVICE/Target/usbd_conf.c ****  * @param  pdev: Device handle
 416:USB/USB_DEVICE/Target/usbd_conf.c ****  * @retval USBD status
 417:USB/USB_DEVICE/Target/usbd_conf.c ****  */
 418:USB/USB_DEVICE/Target/usbd_conf.c **** USBD_StatusTypeDef USBD_LL_Stop(USBD_HandleTypeDef *pdev)
 419:USB/USB_DEVICE/Target/usbd_conf.c **** {
 420:USB/USB_DEVICE/Target/usbd_conf.c ****   HAL_StatusTypeDef hal_status = HAL_OK;
 421:USB/USB_DEVICE/Target/usbd_conf.c ****   USBD_StatusTypeDef usb_status = USBD_OK;
 422:USB/USB_DEVICE/Target/usbd_conf.c **** 
 423:USB/USB_DEVICE/Target/usbd_conf.c ****   hal_status = HAL_PCD_Stop(pdev->pData);
 424:USB/USB_DEVICE/Target/usbd_conf.c **** 
 425:USB/USB_DEVICE/Target/usbd_conf.c ****   usb_status = USBD_Get_USB_Status(hal_status);
 426:USB/USB_DEVICE/Target/usbd_conf.c **** 
 427:USB/USB_DEVICE/Target/usbd_conf.c ****   return usb_status;
 428:USB/USB_DEVICE/Target/usbd_conf.c **** }
ARM GAS  C:\Users\HUAV\AppData\Local\Temp\ccmJY7Py.s 			page 23


 429:USB/USB_DEVICE/Target/usbd_conf.c **** 
 430:USB/USB_DEVICE/Target/usbd_conf.c **** /**
 431:USB/USB_DEVICE/Target/usbd_conf.c ****  * @brief  Opens an endpoint of the low level driver.
 432:USB/USB_DEVICE/Target/usbd_conf.c ****  * @param  pdev: Device handle
 433:USB/USB_DEVICE/Target/usbd_conf.c ****  * @param  ep_addr: Endpoint number
 434:USB/USB_DEVICE/Target/usbd_conf.c ****  * @param  ep_type: Endpoint type
 435:USB/USB_DEVICE/Target/usbd_conf.c ****  * @param  ep_mps: Endpoint max packet size
 436:USB/USB_DEVICE/Target/usbd_conf.c ****  * @retval USBD status
 437:USB/USB_DEVICE/Target/usbd_conf.c ****  */
 438:USB/USB_DEVICE/Target/usbd_conf.c **** USBD_StatusTypeDef USBD_LL_OpenEP(USBD_HandleTypeDef *pdev, uint8_t ep_addr, uint8_t ep_type, uint1
 439:USB/USB_DEVICE/Target/usbd_conf.c **** {
 440:USB/USB_DEVICE/Target/usbd_conf.c ****   HAL_StatusTypeDef hal_status = HAL_OK;
 441:USB/USB_DEVICE/Target/usbd_conf.c ****   USBD_StatusTypeDef usb_status = USBD_OK;
 442:USB/USB_DEVICE/Target/usbd_conf.c **** 
 443:USB/USB_DEVICE/Target/usbd_conf.c ****   hal_status = HAL_PCD_EP_Open(pdev->pData, ep_addr, ep_mps, ep_type);
 444:USB/USB_DEVICE/Target/usbd_conf.c **** 
 445:USB/USB_DEVICE/Target/usbd_conf.c ****   usb_status = USBD_Get_USB_Status(hal_status);
 446:USB/USB_DEVICE/Target/usbd_conf.c **** 
 447:USB/USB_DEVICE/Target/usbd_conf.c ****   return usb_status;
 448:USB/USB_DEVICE/Target/usbd_conf.c **** }
 449:USB/USB_DEVICE/Target/usbd_conf.c **** 
 450:USB/USB_DEVICE/Target/usbd_conf.c **** /**
 451:USB/USB_DEVICE/Target/usbd_conf.c ****  * @brief  Closes an endpoint of the low level driver.
 452:USB/USB_DEVICE/Target/usbd_conf.c ****  * @param  pdev: Device handle
 453:USB/USB_DEVICE/Target/usbd_conf.c ****  * @param  ep_addr: Endpoint number
 454:USB/USB_DEVICE/Target/usbd_conf.c ****  * @retval USBD status
 455:USB/USB_DEVICE/Target/usbd_conf.c ****  */
 456:USB/USB_DEVICE/Target/usbd_conf.c **** USBD_StatusTypeDef USBD_LL_CloseEP(USBD_HandleTypeDef *pdev, uint8_t ep_addr)
 457:USB/USB_DEVICE/Target/usbd_conf.c **** {
 458:USB/USB_DEVICE/Target/usbd_conf.c ****   HAL_StatusTypeDef hal_status = HAL_OK;
 459:USB/USB_DEVICE/Target/usbd_conf.c ****   USBD_StatusTypeDef usb_status = USBD_OK;
 460:USB/USB_DEVICE/Target/usbd_conf.c **** 
 461:USB/USB_DEVICE/Target/usbd_conf.c ****   hal_status = HAL_PCD_EP_Close(pdev->pData, ep_addr);
 462:USB/USB_DEVICE/Target/usbd_conf.c **** 
 463:USB/USB_DEVICE/Target/usbd_conf.c ****   usb_status = USBD_Get_USB_Status(hal_status);
 464:USB/USB_DEVICE/Target/usbd_conf.c **** 
 465:USB/USB_DEVICE/Target/usbd_conf.c ****   return usb_status;
 466:USB/USB_DEVICE/Target/usbd_conf.c **** }
 467:USB/USB_DEVICE/Target/usbd_conf.c **** 
 468:USB/USB_DEVICE/Target/usbd_conf.c **** /**
 469:USB/USB_DEVICE/Target/usbd_conf.c ****  * @brief  Flushes an endpoint of the Low Level Driver.
 470:USB/USB_DEVICE/Target/usbd_conf.c ****  * @param  pdev: Device handle
 471:USB/USB_DEVICE/Target/usbd_conf.c ****  * @param  ep_addr: Endpoint number
 472:USB/USB_DEVICE/Target/usbd_conf.c ****  * @retval USBD status
 473:USB/USB_DEVICE/Target/usbd_conf.c ****  */
 474:USB/USB_DEVICE/Target/usbd_conf.c **** USBD_StatusTypeDef USBD_LL_FlushEP(USBD_HandleTypeDef *pdev, uint8_t ep_addr)
 475:USB/USB_DEVICE/Target/usbd_conf.c **** {
 476:USB/USB_DEVICE/Target/usbd_conf.c ****   HAL_StatusTypeDef hal_status = HAL_OK;
 477:USB/USB_DEVICE/Target/usbd_conf.c ****   USBD_StatusTypeDef usb_status = USBD_OK;
 478:USB/USB_DEVICE/Target/usbd_conf.c **** 
 479:USB/USB_DEVICE/Target/usbd_conf.c ****   hal_status = HAL_PCD_EP_Flush(pdev->pData, ep_addr);
 480:USB/USB_DEVICE/Target/usbd_conf.c **** 
 481:USB/USB_DEVICE/Target/usbd_conf.c ****   usb_status = USBD_Get_USB_Status(hal_status);
 482:USB/USB_DEVICE/Target/usbd_conf.c **** 
 483:USB/USB_DEVICE/Target/usbd_conf.c ****   return usb_status;
 484:USB/USB_DEVICE/Target/usbd_conf.c **** }
 485:USB/USB_DEVICE/Target/usbd_conf.c **** 
ARM GAS  C:\Users\HUAV\AppData\Local\Temp\ccmJY7Py.s 			page 24


 486:USB/USB_DEVICE/Target/usbd_conf.c **** /**
 487:USB/USB_DEVICE/Target/usbd_conf.c ****  * @brief  Sets a Stall condition on an endpoint of the Low Level Driver.
 488:USB/USB_DEVICE/Target/usbd_conf.c ****  * @param  pdev: Device handle
 489:USB/USB_DEVICE/Target/usbd_conf.c ****  * @param  ep_addr: Endpoint number
 490:USB/USB_DEVICE/Target/usbd_conf.c ****  * @retval USBD status
 491:USB/USB_DEVICE/Target/usbd_conf.c ****  */
 492:USB/USB_DEVICE/Target/usbd_conf.c **** USBD_StatusTypeDef USBD_LL_StallEP(USBD_HandleTypeDef *pdev, uint8_t ep_addr)
 493:USB/USB_DEVICE/Target/usbd_conf.c **** {
 494:USB/USB_DEVICE/Target/usbd_conf.c ****   HAL_StatusTypeDef hal_status = HAL_OK;
 495:USB/USB_DEVICE/Target/usbd_conf.c ****   USBD_StatusTypeDef usb_status = USBD_OK;
 496:USB/USB_DEVICE/Target/usbd_conf.c **** 
 497:USB/USB_DEVICE/Target/usbd_conf.c ****   hal_status = HAL_PCD_EP_SetStall(pdev->pData, ep_addr);
 498:USB/USB_DEVICE/Target/usbd_conf.c **** 
 499:USB/USB_DEVICE/Target/usbd_conf.c ****   usb_status = USBD_Get_USB_Status(hal_status);
 500:USB/USB_DEVICE/Target/usbd_conf.c **** 
 501:USB/USB_DEVICE/Target/usbd_conf.c ****   return usb_status;
 502:USB/USB_DEVICE/Target/usbd_conf.c **** }
 503:USB/USB_DEVICE/Target/usbd_conf.c **** 
 504:USB/USB_DEVICE/Target/usbd_conf.c **** /**
 505:USB/USB_DEVICE/Target/usbd_conf.c ****  * @brief  Clears a Stall condition on an endpoint of the Low Level Driver.
 506:USB/USB_DEVICE/Target/usbd_conf.c ****  * @param  pdev: Device handle
 507:USB/USB_DEVICE/Target/usbd_conf.c ****  * @param  ep_addr: Endpoint number
 508:USB/USB_DEVICE/Target/usbd_conf.c ****  * @retval USBD status
 509:USB/USB_DEVICE/Target/usbd_conf.c ****  */
 510:USB/USB_DEVICE/Target/usbd_conf.c **** USBD_StatusTypeDef USBD_LL_ClearStallEP(USBD_HandleTypeDef *pdev, uint8_t ep_addr)
 511:USB/USB_DEVICE/Target/usbd_conf.c **** {
 512:USB/USB_DEVICE/Target/usbd_conf.c ****   HAL_StatusTypeDef hal_status = HAL_OK;
 513:USB/USB_DEVICE/Target/usbd_conf.c ****   USBD_StatusTypeDef usb_status = USBD_OK;
 514:USB/USB_DEVICE/Target/usbd_conf.c **** 
 515:USB/USB_DEVICE/Target/usbd_conf.c ****   hal_status = HAL_PCD_EP_ClrStall(pdev->pData, ep_addr);
 516:USB/USB_DEVICE/Target/usbd_conf.c **** 
 517:USB/USB_DEVICE/Target/usbd_conf.c ****   usb_status = USBD_Get_USB_Status(hal_status);
 518:USB/USB_DEVICE/Target/usbd_conf.c **** 
 519:USB/USB_DEVICE/Target/usbd_conf.c ****   return usb_status;
 520:USB/USB_DEVICE/Target/usbd_conf.c **** }
 521:USB/USB_DEVICE/Target/usbd_conf.c **** 
 522:USB/USB_DEVICE/Target/usbd_conf.c **** /**
 523:USB/USB_DEVICE/Target/usbd_conf.c ****  * @brief  Returns Stall condition.
 524:USB/USB_DEVICE/Target/usbd_conf.c ****  * @param  pdev: Device handle
 525:USB/USB_DEVICE/Target/usbd_conf.c ****  * @param  ep_addr: Endpoint number
 526:USB/USB_DEVICE/Target/usbd_conf.c ****  * @retval Stall (1: Yes, 0: No)
 527:USB/USB_DEVICE/Target/usbd_conf.c ****  */
 528:USB/USB_DEVICE/Target/usbd_conf.c **** uint8_t USBD_LL_IsStallEP(USBD_HandleTypeDef *pdev, uint8_t ep_addr)
 529:USB/USB_DEVICE/Target/usbd_conf.c **** {
 780              		.loc 1 529 1 is_stmt 1 view -0
 781              		.cfi_startproc
 782              		@ args = 0, pretend = 0, frame = 0
 783              		@ frame_needed = 0, uses_anonymous_args = 0
 784              		@ link register save eliminated.
 530:USB/USB_DEVICE/Target/usbd_conf.c ****   PCD_HandleTypeDef *hpcd = (PCD_HandleTypeDef *)pdev->pData;
 785              		.loc 1 530 3 view .LVU173
 786              		.loc 1 530 22 is_stmt 0 view .LVU174
 787 0000 D0F8C432 		ldr	r3, [r0, #708]
 788              	.LVL65:
 531:USB/USB_DEVICE/Target/usbd_conf.c **** 
 532:USB/USB_DEVICE/Target/usbd_conf.c ****   if ((ep_addr & 0x80) == 0x80)
 789              		.loc 1 532 3 is_stmt 1 view .LVU175
ARM GAS  C:\Users\HUAV\AppData\Local\Temp\ccmJY7Py.s 			page 25


 790              		.loc 1 532 6 is_stmt 0 view .LVU176
 791 0004 11F0800F 		tst	r1, #128
 792 0008 08D1     		bne	.L57
 533:USB/USB_DEVICE/Target/usbd_conf.c ****   {
 534:USB/USB_DEVICE/Target/usbd_conf.c ****     return hpcd->IN_ep[ep_addr & 0x7F].is_stall;
 535:USB/USB_DEVICE/Target/usbd_conf.c ****   }
 536:USB/USB_DEVICE/Target/usbd_conf.c ****   else
 537:USB/USB_DEVICE/Target/usbd_conf.c ****   {
 538:USB/USB_DEVICE/Target/usbd_conf.c ****     return hpcd->OUT_ep[ep_addr & 0x7F].is_stall;
 793              		.loc 1 538 5 is_stmt 1 view .LVU177
 794              		.loc 1 538 33 is_stmt 0 view .LVU178
 795 000a 01F07F01 		and	r1, r1, #127
 796              	.LVL66:
 797              		.loc 1 538 40 view .LVU179
 798 000e C1EBC101 		rsb	r1, r1, r1, lsl #3
 799 0012 03EB8101 		add	r1, r3, r1, lsl #2
 800 0016 91F8FE01 		ldrb	r0, [r1, #510]	@ zero_extendqisi2
 801              	.LVL67:
 539:USB/USB_DEVICE/Target/usbd_conf.c ****   }
 540:USB/USB_DEVICE/Target/usbd_conf.c **** }
 802              		.loc 1 540 1 view .LVU180
 803 001a 7047     		bx	lr
 804              	.LVL68:
 805              	.L57:
 534:USB/USB_DEVICE/Target/usbd_conf.c ****   }
 806              		.loc 1 534 5 is_stmt 1 view .LVU181
 534:USB/USB_DEVICE/Target/usbd_conf.c ****   }
 807              		.loc 1 534 32 is_stmt 0 view .LVU182
 808 001c 01F07F01 		and	r1, r1, #127
 809              	.LVL69:
 534:USB/USB_DEVICE/Target/usbd_conf.c ****   }
 810              		.loc 1 534 39 view .LVU183
 811 0020 C1EBC101 		rsb	r1, r1, r1, lsl #3
 812 0024 03EB8101 		add	r1, r3, r1, lsl #2
 813 0028 91F83E00 		ldrb	r0, [r1, #62]	@ zero_extendqisi2
 814              	.LVL70:
 534:USB/USB_DEVICE/Target/usbd_conf.c ****   }
 815              		.loc 1 534 39 view .LVU184
 816 002c 7047     		bx	lr
 817              		.cfi_endproc
 818              	.LFE170:
 820              		.section	.text.USBD_LL_GetRxDataSize,"ax",%progbits
 821              		.align	1
 822              		.global	USBD_LL_GetRxDataSize
 823              		.syntax unified
 824              		.thumb
 825              		.thumb_func
 826              		.fpu fpv5-d16
 828              	USBD_LL_GetRxDataSize:
 829              	.LVL71:
 830              	.LFB174:
 541:USB/USB_DEVICE/Target/usbd_conf.c **** 
 542:USB/USB_DEVICE/Target/usbd_conf.c **** /**
 543:USB/USB_DEVICE/Target/usbd_conf.c ****  * @brief  Assigns a USB address to the device.
 544:USB/USB_DEVICE/Target/usbd_conf.c ****  * @param  pdev: Device handle
 545:USB/USB_DEVICE/Target/usbd_conf.c ****  * @param  dev_addr: Device address
 546:USB/USB_DEVICE/Target/usbd_conf.c ****  * @retval USBD status
ARM GAS  C:\Users\HUAV\AppData\Local\Temp\ccmJY7Py.s 			page 26


 547:USB/USB_DEVICE/Target/usbd_conf.c ****  */
 548:USB/USB_DEVICE/Target/usbd_conf.c **** USBD_StatusTypeDef USBD_LL_SetUSBAddress(USBD_HandleTypeDef *pdev, uint8_t dev_addr)
 549:USB/USB_DEVICE/Target/usbd_conf.c **** {
 550:USB/USB_DEVICE/Target/usbd_conf.c ****   HAL_StatusTypeDef hal_status = HAL_OK;
 551:USB/USB_DEVICE/Target/usbd_conf.c ****   USBD_StatusTypeDef usb_status = USBD_OK;
 552:USB/USB_DEVICE/Target/usbd_conf.c **** 
 553:USB/USB_DEVICE/Target/usbd_conf.c ****   hal_status = HAL_PCD_SetAddress(pdev->pData, dev_addr);
 554:USB/USB_DEVICE/Target/usbd_conf.c **** 
 555:USB/USB_DEVICE/Target/usbd_conf.c ****   usb_status = USBD_Get_USB_Status(hal_status);
 556:USB/USB_DEVICE/Target/usbd_conf.c **** 
 557:USB/USB_DEVICE/Target/usbd_conf.c ****   return usb_status;
 558:USB/USB_DEVICE/Target/usbd_conf.c **** }
 559:USB/USB_DEVICE/Target/usbd_conf.c **** 
 560:USB/USB_DEVICE/Target/usbd_conf.c **** /**
 561:USB/USB_DEVICE/Target/usbd_conf.c ****  * @brief  Transmits data over an endpoint.
 562:USB/USB_DEVICE/Target/usbd_conf.c ****  * @param  pdev: Device handle
 563:USB/USB_DEVICE/Target/usbd_conf.c ****  * @param  ep_addr: Endpoint number
 564:USB/USB_DEVICE/Target/usbd_conf.c ****  * @param  pbuf: Pointer to data to be sent
 565:USB/USB_DEVICE/Target/usbd_conf.c ****  * @param  size: Data size
 566:USB/USB_DEVICE/Target/usbd_conf.c ****  * @retval USBD status
 567:USB/USB_DEVICE/Target/usbd_conf.c ****  */
 568:USB/USB_DEVICE/Target/usbd_conf.c **** USBD_StatusTypeDef USBD_LL_Transmit(USBD_HandleTypeDef *pdev, uint8_t ep_addr, uint8_t *pbuf, uint3
 569:USB/USB_DEVICE/Target/usbd_conf.c **** {
 570:USB/USB_DEVICE/Target/usbd_conf.c ****   HAL_StatusTypeDef hal_status = HAL_OK;
 571:USB/USB_DEVICE/Target/usbd_conf.c ****   USBD_StatusTypeDef usb_status = USBD_OK;
 572:USB/USB_DEVICE/Target/usbd_conf.c **** 
 573:USB/USB_DEVICE/Target/usbd_conf.c ****   hal_status = HAL_PCD_EP_Transmit(pdev->pData, ep_addr, pbuf, size);
 574:USB/USB_DEVICE/Target/usbd_conf.c **** 
 575:USB/USB_DEVICE/Target/usbd_conf.c ****   usb_status = USBD_Get_USB_Status(hal_status);
 576:USB/USB_DEVICE/Target/usbd_conf.c **** 
 577:USB/USB_DEVICE/Target/usbd_conf.c ****   return usb_status;
 578:USB/USB_DEVICE/Target/usbd_conf.c **** }
 579:USB/USB_DEVICE/Target/usbd_conf.c **** 
 580:USB/USB_DEVICE/Target/usbd_conf.c **** /**
 581:USB/USB_DEVICE/Target/usbd_conf.c ****  * @brief  Prepares an endpoint for reception.
 582:USB/USB_DEVICE/Target/usbd_conf.c ****  * @param  pdev: Device handle
 583:USB/USB_DEVICE/Target/usbd_conf.c ****  * @param  ep_addr: Endpoint number
 584:USB/USB_DEVICE/Target/usbd_conf.c ****  * @param  pbuf: Pointer to data to be received
 585:USB/USB_DEVICE/Target/usbd_conf.c ****  * @param  size: Data size
 586:USB/USB_DEVICE/Target/usbd_conf.c ****  * @retval USBD status
 587:USB/USB_DEVICE/Target/usbd_conf.c ****  */
 588:USB/USB_DEVICE/Target/usbd_conf.c **** USBD_StatusTypeDef USBD_LL_PrepareReceive(USBD_HandleTypeDef *pdev, uint8_t ep_addr, uint8_t *pbuf,
 589:USB/USB_DEVICE/Target/usbd_conf.c **** {
 590:USB/USB_DEVICE/Target/usbd_conf.c ****   HAL_StatusTypeDef hal_status = HAL_OK;
 591:USB/USB_DEVICE/Target/usbd_conf.c ****   USBD_StatusTypeDef usb_status = USBD_OK;
 592:USB/USB_DEVICE/Target/usbd_conf.c **** 
 593:USB/USB_DEVICE/Target/usbd_conf.c ****   hal_status = HAL_PCD_EP_Receive(pdev->pData, ep_addr, pbuf, size);
 594:USB/USB_DEVICE/Target/usbd_conf.c **** 
 595:USB/USB_DEVICE/Target/usbd_conf.c ****   usb_status = USBD_Get_USB_Status(hal_status);
 596:USB/USB_DEVICE/Target/usbd_conf.c **** 
 597:USB/USB_DEVICE/Target/usbd_conf.c ****   return usb_status;
 598:USB/USB_DEVICE/Target/usbd_conf.c **** }
 599:USB/USB_DEVICE/Target/usbd_conf.c **** 
 600:USB/USB_DEVICE/Target/usbd_conf.c **** /**
 601:USB/USB_DEVICE/Target/usbd_conf.c ****  * @brief  Returns the last transfered packet size.
 602:USB/USB_DEVICE/Target/usbd_conf.c ****  * @param  pdev: Device handle
 603:USB/USB_DEVICE/Target/usbd_conf.c ****  * @param  ep_addr: Endpoint number
ARM GAS  C:\Users\HUAV\AppData\Local\Temp\ccmJY7Py.s 			page 27


 604:USB/USB_DEVICE/Target/usbd_conf.c ****  * @retval Recived Data Size
 605:USB/USB_DEVICE/Target/usbd_conf.c ****  */
 606:USB/USB_DEVICE/Target/usbd_conf.c **** uint32_t USBD_LL_GetRxDataSize(USBD_HandleTypeDef *pdev, uint8_t ep_addr)
 607:USB/USB_DEVICE/Target/usbd_conf.c **** {
 831              		.loc 1 607 1 is_stmt 1 view -0
 832              		.cfi_startproc
 833              		@ args = 0, pretend = 0, frame = 0
 834              		@ frame_needed = 0, uses_anonymous_args = 0
 835              		.loc 1 607 1 is_stmt 0 view .LVU186
 836 0000 08B5     		push	{r3, lr}
 837              	.LCFI17:
 838              		.cfi_def_cfa_offset 8
 839              		.cfi_offset 3, -8
 840              		.cfi_offset 14, -4
 608:USB/USB_DEVICE/Target/usbd_conf.c ****   return HAL_PCD_EP_GetRxCount((PCD_HandleTypeDef *)pdev->pData, ep_addr);
 841              		.loc 1 608 3 is_stmt 1 view .LVU187
 842              		.loc 1 608 10 is_stmt 0 view .LVU188
 843 0002 D0F8C402 		ldr	r0, [r0, #708]
 844              	.LVL72:
 845              		.loc 1 608 10 view .LVU189
 846 0006 FFF7FEFF 		bl	HAL_PCD_EP_GetRxCount
 847              	.LVL73:
 609:USB/USB_DEVICE/Target/usbd_conf.c **** }
 848              		.loc 1 609 1 view .LVU190
 849 000a 08BD     		pop	{r3, pc}
 850              		.cfi_endproc
 851              	.LFE174:
 853              		.section	.text.USBD_static_malloc,"ax",%progbits
 854              		.align	1
 855              		.global	USBD_static_malloc
 856              		.syntax unified
 857              		.thumb
 858              		.thumb_func
 859              		.fpu fpv5-d16
 861              	USBD_static_malloc:
 862              	.LVL74:
 863              	.LFB175:
 610:USB/USB_DEVICE/Target/usbd_conf.c **** /**
 611:USB/USB_DEVICE/Target/usbd_conf.c ****  * @brief  Static single allocation.
 612:USB/USB_DEVICE/Target/usbd_conf.c ****  * @param  size: Size of allocated memory
 613:USB/USB_DEVICE/Target/usbd_conf.c ****  * @retval None
 614:USB/USB_DEVICE/Target/usbd_conf.c ****  */
 615:USB/USB_DEVICE/Target/usbd_conf.c **** void *USBD_static_malloc(uint32_t size)
 616:USB/USB_DEVICE/Target/usbd_conf.c **** {
 864              		.loc 1 616 1 is_stmt 1 view -0
 865              		.cfi_startproc
 866              		@ args = 0, pretend = 0, frame = 0
 867              		@ frame_needed = 0, uses_anonymous_args = 0
 868              		@ link register save eliminated.
 617:USB/USB_DEVICE/Target/usbd_conf.c ****   static uint32_t mem[(sizeof(USBD_CDC_HandleTypeDef) / 4) + 1]; /* On 32-bit boundary */
 869              		.loc 1 617 3 view .LVU192
 618:USB/USB_DEVICE/Target/usbd_conf.c ****   return mem;
 870              		.loc 1 618 3 view .LVU193
 619:USB/USB_DEVICE/Target/usbd_conf.c **** }
 871              		.loc 1 619 1 is_stmt 0 view .LVU194
 872 0000 0048     		ldr	r0, .L61
 873              	.LVL75:
ARM GAS  C:\Users\HUAV\AppData\Local\Temp\ccmJY7Py.s 			page 28


 874              		.loc 1 619 1 view .LVU195
 875 0002 7047     		bx	lr
 876              	.L62:
 877              		.align	2
 878              	.L61:
 879 0004 00000000 		.word	.LANCHOR1
 880              		.cfi_endproc
 881              	.LFE175:
 883              		.section	.text.USBD_static_free,"ax",%progbits
 884              		.align	1
 885              		.global	USBD_static_free
 886              		.syntax unified
 887              		.thumb
 888              		.thumb_func
 889              		.fpu fpv5-d16
 891              	USBD_static_free:
 892              	.LVL76:
 893              	.LFB176:
 620:USB/USB_DEVICE/Target/usbd_conf.c **** 
 621:USB/USB_DEVICE/Target/usbd_conf.c **** /**
 622:USB/USB_DEVICE/Target/usbd_conf.c ****  * @brief  Dummy memory free
 623:USB/USB_DEVICE/Target/usbd_conf.c ****  * @param  p: Pointer to allocated  memory address
 624:USB/USB_DEVICE/Target/usbd_conf.c ****  * @retval None
 625:USB/USB_DEVICE/Target/usbd_conf.c ****  */
 626:USB/USB_DEVICE/Target/usbd_conf.c **** void USBD_static_free(void *p)
 627:USB/USB_DEVICE/Target/usbd_conf.c **** {
 894              		.loc 1 627 1 is_stmt 1 view -0
 895              		.cfi_startproc
 896              		@ args = 0, pretend = 0, frame = 0
 897              		@ frame_needed = 0, uses_anonymous_args = 0
 898              		@ link register save eliminated.
 628:USB/USB_DEVICE/Target/usbd_conf.c **** }
 899              		.loc 1 628 1 view .LVU197
 900 0000 7047     		bx	lr
 901              		.cfi_endproc
 902              	.LFE176:
 904              		.section	.text.USBD_LL_Delay,"ax",%progbits
 905              		.align	1
 906              		.global	USBD_LL_Delay
 907              		.syntax unified
 908              		.thumb
 909              		.thumb_func
 910              		.fpu fpv5-d16
 912              	USBD_LL_Delay:
 913              	.LVL77:
 914              	.LFB177:
 629:USB/USB_DEVICE/Target/usbd_conf.c **** 
 630:USB/USB_DEVICE/Target/usbd_conf.c **** /**
 631:USB/USB_DEVICE/Target/usbd_conf.c ****  * @brief  Delays routine for the USB device library.
 632:USB/USB_DEVICE/Target/usbd_conf.c ****  * @param  Delay: Delay in ms
 633:USB/USB_DEVICE/Target/usbd_conf.c ****  * @retval None
 634:USB/USB_DEVICE/Target/usbd_conf.c ****  */
 635:USB/USB_DEVICE/Target/usbd_conf.c **** void USBD_LL_Delay(uint32_t Delay)
 636:USB/USB_DEVICE/Target/usbd_conf.c **** {
 915              		.loc 1 636 1 view -0
 916              		.cfi_startproc
 917              		@ args = 0, pretend = 0, frame = 0
ARM GAS  C:\Users\HUAV\AppData\Local\Temp\ccmJY7Py.s 			page 29


 918              		@ frame_needed = 0, uses_anonymous_args = 0
 919              		.loc 1 636 1 is_stmt 0 view .LVU199
 920 0000 08B5     		push	{r3, lr}
 921              	.LCFI18:
 922              		.cfi_def_cfa_offset 8
 923              		.cfi_offset 3, -8
 924              		.cfi_offset 14, -4
 637:USB/USB_DEVICE/Target/usbd_conf.c ****   HAL_Delay(Delay);
 925              		.loc 1 637 3 is_stmt 1 view .LVU200
 926 0002 FFF7FEFF 		bl	HAL_Delay
 927              	.LVL78:
 638:USB/USB_DEVICE/Target/usbd_conf.c **** }
 928              		.loc 1 638 1 is_stmt 0 view .LVU201
 929 0006 08BD     		pop	{r3, pc}
 930              		.cfi_endproc
 931              	.LFE177:
 933              		.section	.text.USBD_Get_USB_Status,"ax",%progbits
 934              		.align	1
 935              		.global	USBD_Get_USB_Status
 936              		.syntax unified
 937              		.thumb
 938              		.thumb_func
 939              		.fpu fpv5-d16
 941              	USBD_Get_USB_Status:
 942              	.LVL79:
 943              	.LFB178:
 639:USB/USB_DEVICE/Target/usbd_conf.c **** 
 640:USB/USB_DEVICE/Target/usbd_conf.c **** /**
 641:USB/USB_DEVICE/Target/usbd_conf.c ****  * @brief  Retuns the USB status depending on the HAL status:
 642:USB/USB_DEVICE/Target/usbd_conf.c ****  * @param  hal_status: HAL status
 643:USB/USB_DEVICE/Target/usbd_conf.c ****  * @retval USB status
 644:USB/USB_DEVICE/Target/usbd_conf.c ****  */
 645:USB/USB_DEVICE/Target/usbd_conf.c **** USBD_StatusTypeDef USBD_Get_USB_Status(HAL_StatusTypeDef hal_status)
 646:USB/USB_DEVICE/Target/usbd_conf.c **** {
 944              		.loc 1 646 1 is_stmt 1 view -0
 945              		.cfi_startproc
 946              		@ args = 0, pretend = 0, frame = 0
 947              		@ frame_needed = 0, uses_anonymous_args = 0
 948              		@ link register save eliminated.
 647:USB/USB_DEVICE/Target/usbd_conf.c ****   USBD_StatusTypeDef usb_status = USBD_OK;
 949              		.loc 1 647 3 view .LVU203
 648:USB/USB_DEVICE/Target/usbd_conf.c **** 
 649:USB/USB_DEVICE/Target/usbd_conf.c ****   switch (hal_status)
 950              		.loc 1 649 3 view .LVU204
 951 0000 0328     		cmp	r0, #3
 952 0002 05D8     		bhi	.L72
 953 0004 DFE800F0 		tbb	[pc, r0]
 954              	.L69:
 955 0008 05       		.byte	(.L67-.L69)/2
 956 0009 04       		.byte	(.L72-.L69)/2
 957 000a 02       		.byte	(.L70-.L69)/2
 958 000b 05       		.byte	(.L67-.L69)/2
 959              		.p2align 1
 960              	.L70:
 650:USB/USB_DEVICE/Target/usbd_conf.c ****   {
 651:USB/USB_DEVICE/Target/usbd_conf.c ****   case HAL_OK:
 652:USB/USB_DEVICE/Target/usbd_conf.c ****     usb_status = USBD_OK;
ARM GAS  C:\Users\HUAV\AppData\Local\Temp\ccmJY7Py.s 			page 30


 653:USB/USB_DEVICE/Target/usbd_conf.c ****     break;
 654:USB/USB_DEVICE/Target/usbd_conf.c ****   case HAL_ERROR:
 655:USB/USB_DEVICE/Target/usbd_conf.c ****     usb_status = USBD_FAIL;
 656:USB/USB_DEVICE/Target/usbd_conf.c ****     break;
 657:USB/USB_DEVICE/Target/usbd_conf.c ****   case HAL_BUSY:
 658:USB/USB_DEVICE/Target/usbd_conf.c ****     usb_status = USBD_BUSY;
 961              		.loc 1 658 5 view .LVU205
 962              	.LVL80:
 659:USB/USB_DEVICE/Target/usbd_conf.c ****     break;
 963              		.loc 1 659 5 view .LVU206
 658:USB/USB_DEVICE/Target/usbd_conf.c ****     break;
 964              		.loc 1 658 16 is_stmt 0 view .LVU207
 965 000c 0120     		movs	r0, #1
 966              	.LVL81:
 967              		.loc 1 659 5 view .LVU208
 968 000e 7047     		bx	lr
 969              	.LVL82:
 970              	.L72:
 655:USB/USB_DEVICE/Target/usbd_conf.c ****     break;
 971              		.loc 1 655 16 view .LVU209
 972 0010 0320     		movs	r0, #3
 973              	.LVL83:
 974              	.L67:
 660:USB/USB_DEVICE/Target/usbd_conf.c ****   case HAL_TIMEOUT:
 661:USB/USB_DEVICE/Target/usbd_conf.c ****     usb_status = USBD_FAIL;
 662:USB/USB_DEVICE/Target/usbd_conf.c ****     break;
 663:USB/USB_DEVICE/Target/usbd_conf.c ****   default:
 664:USB/USB_DEVICE/Target/usbd_conf.c ****     usb_status = USBD_FAIL;
 665:USB/USB_DEVICE/Target/usbd_conf.c ****     break;
 666:USB/USB_DEVICE/Target/usbd_conf.c ****   }
 667:USB/USB_DEVICE/Target/usbd_conf.c ****   return usb_status;
 975              		.loc 1 667 3 is_stmt 1 view .LVU210
 668:USB/USB_DEVICE/Target/usbd_conf.c **** }
 976              		.loc 1 668 1 is_stmt 0 view .LVU211
 977 0012 7047     		bx	lr
 978              		.cfi_endproc
 979              	.LFE178:
 981              		.section	.text.USBD_LL_DeInit,"ax",%progbits
 982              		.align	1
 983              		.global	USBD_LL_DeInit
 984              		.syntax unified
 985              		.thumb
 986              		.thumb_func
 987              		.fpu fpv5-d16
 989              	USBD_LL_DeInit:
 990              	.LVL84:
 991              	.LFB162:
 385:USB/USB_DEVICE/Target/usbd_conf.c ****   HAL_StatusTypeDef hal_status = HAL_OK;
 992              		.loc 1 385 1 is_stmt 1 view -0
 993              		.cfi_startproc
 994              		@ args = 0, pretend = 0, frame = 0
 995              		@ frame_needed = 0, uses_anonymous_args = 0
 385:USB/USB_DEVICE/Target/usbd_conf.c ****   HAL_StatusTypeDef hal_status = HAL_OK;
 996              		.loc 1 385 1 is_stmt 0 view .LVU213
 997 0000 08B5     		push	{r3, lr}
 998              	.LCFI19:
 999              		.cfi_def_cfa_offset 8
ARM GAS  C:\Users\HUAV\AppData\Local\Temp\ccmJY7Py.s 			page 31


 1000              		.cfi_offset 3, -8
 1001              		.cfi_offset 14, -4
 386:USB/USB_DEVICE/Target/usbd_conf.c ****   USBD_StatusTypeDef usb_status = USBD_OK;
 1002              		.loc 1 386 3 is_stmt 1 view .LVU214
 1003              	.LVL85:
 387:USB/USB_DEVICE/Target/usbd_conf.c **** 
 1004              		.loc 1 387 3 view .LVU215
 389:USB/USB_DEVICE/Target/usbd_conf.c **** 
 1005              		.loc 1 389 3 view .LVU216
 389:USB/USB_DEVICE/Target/usbd_conf.c **** 
 1006              		.loc 1 389 16 is_stmt 0 view .LVU217
 1007 0002 D0F8C402 		ldr	r0, [r0, #708]
 1008              	.LVL86:
 389:USB/USB_DEVICE/Target/usbd_conf.c **** 
 1009              		.loc 1 389 16 view .LVU218
 1010 0006 FFF7FEFF 		bl	HAL_PCD_DeInit
 1011              	.LVL87:
 391:USB/USB_DEVICE/Target/usbd_conf.c **** 
 1012              		.loc 1 391 3 is_stmt 1 view .LVU219
 391:USB/USB_DEVICE/Target/usbd_conf.c **** 
 1013              		.loc 1 391 16 is_stmt 0 view .LVU220
 1014 000a FFF7FEFF 		bl	USBD_Get_USB_Status
 1015              	.LVL88:
 393:USB/USB_DEVICE/Target/usbd_conf.c **** }
 1016              		.loc 1 393 3 is_stmt 1 view .LVU221
 394:USB/USB_DEVICE/Target/usbd_conf.c **** 
 1017              		.loc 1 394 1 is_stmt 0 view .LVU222
 1018 000e 08BD     		pop	{r3, pc}
 1019              		.cfi_endproc
 1020              	.LFE162:
 1022              		.section	.text.USBD_LL_Start,"ax",%progbits
 1023              		.align	1
 1024              		.global	USBD_LL_Start
 1025              		.syntax unified
 1026              		.thumb
 1027              		.thumb_func
 1028              		.fpu fpv5-d16
 1030              	USBD_LL_Start:
 1031              	.LVL89:
 1032              	.LFB163:
 402:USB/USB_DEVICE/Target/usbd_conf.c ****   HAL_StatusTypeDef hal_status = HAL_OK;
 1033              		.loc 1 402 1 is_stmt 1 view -0
 1034              		.cfi_startproc
 1035              		@ args = 0, pretend = 0, frame = 0
 1036              		@ frame_needed = 0, uses_anonymous_args = 0
 402:USB/USB_DEVICE/Target/usbd_conf.c ****   HAL_StatusTypeDef hal_status = HAL_OK;
 1037              		.loc 1 402 1 is_stmt 0 view .LVU224
 1038 0000 08B5     		push	{r3, lr}
 1039              	.LCFI20:
 1040              		.cfi_def_cfa_offset 8
 1041              		.cfi_offset 3, -8
 1042              		.cfi_offset 14, -4
 403:USB/USB_DEVICE/Target/usbd_conf.c ****   USBD_StatusTypeDef usb_status = USBD_OK;
 1043              		.loc 1 403 3 is_stmt 1 view .LVU225
 1044              	.LVL90:
 404:USB/USB_DEVICE/Target/usbd_conf.c **** 
 1045              		.loc 1 404 3 view .LVU226
ARM GAS  C:\Users\HUAV\AppData\Local\Temp\ccmJY7Py.s 			page 32


 406:USB/USB_DEVICE/Target/usbd_conf.c **** 
 1046              		.loc 1 406 3 view .LVU227
 406:USB/USB_DEVICE/Target/usbd_conf.c **** 
 1047              		.loc 1 406 16 is_stmt 0 view .LVU228
 1048 0002 D0F8C402 		ldr	r0, [r0, #708]
 1049              	.LVL91:
 406:USB/USB_DEVICE/Target/usbd_conf.c **** 
 1050              		.loc 1 406 16 view .LVU229
 1051 0006 FFF7FEFF 		bl	HAL_PCD_Start
 1052              	.LVL92:
 408:USB/USB_DEVICE/Target/usbd_conf.c **** 
 1053              		.loc 1 408 3 is_stmt 1 view .LVU230
 408:USB/USB_DEVICE/Target/usbd_conf.c **** 
 1054              		.loc 1 408 16 is_stmt 0 view .LVU231
 1055 000a FFF7FEFF 		bl	USBD_Get_USB_Status
 1056              	.LVL93:
 410:USB/USB_DEVICE/Target/usbd_conf.c **** }
 1057              		.loc 1 410 3 is_stmt 1 view .LVU232
 411:USB/USB_DEVICE/Target/usbd_conf.c **** 
 1058              		.loc 1 411 1 is_stmt 0 view .LVU233
 1059 000e 08BD     		pop	{r3, pc}
 1060              		.cfi_endproc
 1061              	.LFE163:
 1063              		.section	.text.USBD_LL_Stop,"ax",%progbits
 1064              		.align	1
 1065              		.global	USBD_LL_Stop
 1066              		.syntax unified
 1067              		.thumb
 1068              		.thumb_func
 1069              		.fpu fpv5-d16
 1071              	USBD_LL_Stop:
 1072              	.LVL94:
 1073              	.LFB164:
 419:USB/USB_DEVICE/Target/usbd_conf.c ****   HAL_StatusTypeDef hal_status = HAL_OK;
 1074              		.loc 1 419 1 is_stmt 1 view -0
 1075              		.cfi_startproc
 1076              		@ args = 0, pretend = 0, frame = 0
 1077              		@ frame_needed = 0, uses_anonymous_args = 0
 419:USB/USB_DEVICE/Target/usbd_conf.c ****   HAL_StatusTypeDef hal_status = HAL_OK;
 1078              		.loc 1 419 1 is_stmt 0 view .LVU235
 1079 0000 08B5     		push	{r3, lr}
 1080              	.LCFI21:
 1081              		.cfi_def_cfa_offset 8
 1082              		.cfi_offset 3, -8
 1083              		.cfi_offset 14, -4
 420:USB/USB_DEVICE/Target/usbd_conf.c ****   USBD_StatusTypeDef usb_status = USBD_OK;
 1084              		.loc 1 420 3 is_stmt 1 view .LVU236
 1085              	.LVL95:
 421:USB/USB_DEVICE/Target/usbd_conf.c **** 
 1086              		.loc 1 421 3 view .LVU237
 423:USB/USB_DEVICE/Target/usbd_conf.c **** 
 1087              		.loc 1 423 3 view .LVU238
 423:USB/USB_DEVICE/Target/usbd_conf.c **** 
 1088              		.loc 1 423 16 is_stmt 0 view .LVU239
 1089 0002 D0F8C402 		ldr	r0, [r0, #708]
 1090              	.LVL96:
 423:USB/USB_DEVICE/Target/usbd_conf.c **** 
ARM GAS  C:\Users\HUAV\AppData\Local\Temp\ccmJY7Py.s 			page 33


 1091              		.loc 1 423 16 view .LVU240
 1092 0006 FFF7FEFF 		bl	HAL_PCD_Stop
 1093              	.LVL97:
 425:USB/USB_DEVICE/Target/usbd_conf.c **** 
 1094              		.loc 1 425 3 is_stmt 1 view .LVU241
 425:USB/USB_DEVICE/Target/usbd_conf.c **** 
 1095              		.loc 1 425 16 is_stmt 0 view .LVU242
 1096 000a FFF7FEFF 		bl	USBD_Get_USB_Status
 1097              	.LVL98:
 427:USB/USB_DEVICE/Target/usbd_conf.c **** }
 1098              		.loc 1 427 3 is_stmt 1 view .LVU243
 428:USB/USB_DEVICE/Target/usbd_conf.c **** 
 1099              		.loc 1 428 1 is_stmt 0 view .LVU244
 1100 000e 08BD     		pop	{r3, pc}
 1101              		.cfi_endproc
 1102              	.LFE164:
 1104              		.section	.text.USBD_LL_OpenEP,"ax",%progbits
 1105              		.align	1
 1106              		.global	USBD_LL_OpenEP
 1107              		.syntax unified
 1108              		.thumb
 1109              		.thumb_func
 1110              		.fpu fpv5-d16
 1112              	USBD_LL_OpenEP:
 1113              	.LVL99:
 1114              	.LFB165:
 439:USB/USB_DEVICE/Target/usbd_conf.c ****   HAL_StatusTypeDef hal_status = HAL_OK;
 1115              		.loc 1 439 1 is_stmt 1 view -0
 1116              		.cfi_startproc
 1117              		@ args = 0, pretend = 0, frame = 0
 1118              		@ frame_needed = 0, uses_anonymous_args = 0
 439:USB/USB_DEVICE/Target/usbd_conf.c ****   HAL_StatusTypeDef hal_status = HAL_OK;
 1119              		.loc 1 439 1 is_stmt 0 view .LVU246
 1120 0000 08B5     		push	{r3, lr}
 1121              	.LCFI22:
 1122              		.cfi_def_cfa_offset 8
 1123              		.cfi_offset 3, -8
 1124              		.cfi_offset 14, -4
 1125 0002 9446     		mov	ip, r2
 1126 0004 1A46     		mov	r2, r3
 1127              	.LVL100:
 440:USB/USB_DEVICE/Target/usbd_conf.c ****   USBD_StatusTypeDef usb_status = USBD_OK;
 1128              		.loc 1 440 3 is_stmt 1 view .LVU247
 441:USB/USB_DEVICE/Target/usbd_conf.c **** 
 1129              		.loc 1 441 3 view .LVU248
 443:USB/USB_DEVICE/Target/usbd_conf.c **** 
 1130              		.loc 1 443 3 view .LVU249
 443:USB/USB_DEVICE/Target/usbd_conf.c **** 
 1131              		.loc 1 443 16 is_stmt 0 view .LVU250
 1132 0006 6346     		mov	r3, ip
 1133              	.LVL101:
 443:USB/USB_DEVICE/Target/usbd_conf.c **** 
 1134              		.loc 1 443 16 view .LVU251
 1135 0008 D0F8C402 		ldr	r0, [r0, #708]
 1136              	.LVL102:
 443:USB/USB_DEVICE/Target/usbd_conf.c **** 
 1137              		.loc 1 443 16 view .LVU252
ARM GAS  C:\Users\HUAV\AppData\Local\Temp\ccmJY7Py.s 			page 34


 1138 000c FFF7FEFF 		bl	HAL_PCD_EP_Open
 1139              	.LVL103:
 445:USB/USB_DEVICE/Target/usbd_conf.c **** 
 1140              		.loc 1 445 3 is_stmt 1 view .LVU253
 445:USB/USB_DEVICE/Target/usbd_conf.c **** 
 1141              		.loc 1 445 16 is_stmt 0 view .LVU254
 1142 0010 FFF7FEFF 		bl	USBD_Get_USB_Status
 1143              	.LVL104:
 447:USB/USB_DEVICE/Target/usbd_conf.c **** }
 1144              		.loc 1 447 3 is_stmt 1 view .LVU255
 448:USB/USB_DEVICE/Target/usbd_conf.c **** 
 1145              		.loc 1 448 1 is_stmt 0 view .LVU256
 1146 0014 08BD     		pop	{r3, pc}
 1147              		.cfi_endproc
 1148              	.LFE165:
 1150              		.section	.text.USBD_LL_CloseEP,"ax",%progbits
 1151              		.align	1
 1152              		.global	USBD_LL_CloseEP
 1153              		.syntax unified
 1154              		.thumb
 1155              		.thumb_func
 1156              		.fpu fpv5-d16
 1158              	USBD_LL_CloseEP:
 1159              	.LVL105:
 1160              	.LFB166:
 457:USB/USB_DEVICE/Target/usbd_conf.c ****   HAL_StatusTypeDef hal_status = HAL_OK;
 1161              		.loc 1 457 1 is_stmt 1 view -0
 1162              		.cfi_startproc
 1163              		@ args = 0, pretend = 0, frame = 0
 1164              		@ frame_needed = 0, uses_anonymous_args = 0
 457:USB/USB_DEVICE/Target/usbd_conf.c ****   HAL_StatusTypeDef hal_status = HAL_OK;
 1165              		.loc 1 457 1 is_stmt 0 view .LVU258
 1166 0000 08B5     		push	{r3, lr}
 1167              	.LCFI23:
 1168              		.cfi_def_cfa_offset 8
 1169              		.cfi_offset 3, -8
 1170              		.cfi_offset 14, -4
 458:USB/USB_DEVICE/Target/usbd_conf.c ****   USBD_StatusTypeDef usb_status = USBD_OK;
 1171              		.loc 1 458 3 is_stmt 1 view .LVU259
 1172              	.LVL106:
 459:USB/USB_DEVICE/Target/usbd_conf.c **** 
 1173              		.loc 1 459 3 view .LVU260
 461:USB/USB_DEVICE/Target/usbd_conf.c **** 
 1174              		.loc 1 461 3 view .LVU261
 461:USB/USB_DEVICE/Target/usbd_conf.c **** 
 1175              		.loc 1 461 16 is_stmt 0 view .LVU262
 1176 0002 D0F8C402 		ldr	r0, [r0, #708]
 1177              	.LVL107:
 461:USB/USB_DEVICE/Target/usbd_conf.c **** 
 1178              		.loc 1 461 16 view .LVU263
 1179 0006 FFF7FEFF 		bl	HAL_PCD_EP_Close
 1180              	.LVL108:
 463:USB/USB_DEVICE/Target/usbd_conf.c **** 
 1181              		.loc 1 463 3 is_stmt 1 view .LVU264
 463:USB/USB_DEVICE/Target/usbd_conf.c **** 
 1182              		.loc 1 463 16 is_stmt 0 view .LVU265
 1183 000a FFF7FEFF 		bl	USBD_Get_USB_Status
ARM GAS  C:\Users\HUAV\AppData\Local\Temp\ccmJY7Py.s 			page 35


 1184              	.LVL109:
 465:USB/USB_DEVICE/Target/usbd_conf.c **** }
 1185              		.loc 1 465 3 is_stmt 1 view .LVU266
 466:USB/USB_DEVICE/Target/usbd_conf.c **** 
 1186              		.loc 1 466 1 is_stmt 0 view .LVU267
 1187 000e 08BD     		pop	{r3, pc}
 1188              		.cfi_endproc
 1189              	.LFE166:
 1191              		.section	.text.USBD_LL_FlushEP,"ax",%progbits
 1192              		.align	1
 1193              		.global	USBD_LL_FlushEP
 1194              		.syntax unified
 1195              		.thumb
 1196              		.thumb_func
 1197              		.fpu fpv5-d16
 1199              	USBD_LL_FlushEP:
 1200              	.LVL110:
 1201              	.LFB167:
 475:USB/USB_DEVICE/Target/usbd_conf.c ****   HAL_StatusTypeDef hal_status = HAL_OK;
 1202              		.loc 1 475 1 is_stmt 1 view -0
 1203              		.cfi_startproc
 1204              		@ args = 0, pretend = 0, frame = 0
 1205              		@ frame_needed = 0, uses_anonymous_args = 0
 475:USB/USB_DEVICE/Target/usbd_conf.c ****   HAL_StatusTypeDef hal_status = HAL_OK;
 1206              		.loc 1 475 1 is_stmt 0 view .LVU269
 1207 0000 08B5     		push	{r3, lr}
 1208              	.LCFI24:
 1209              		.cfi_def_cfa_offset 8
 1210              		.cfi_offset 3, -8
 1211              		.cfi_offset 14, -4
 476:USB/USB_DEVICE/Target/usbd_conf.c ****   USBD_StatusTypeDef usb_status = USBD_OK;
 1212              		.loc 1 476 3 is_stmt 1 view .LVU270
 1213              	.LVL111:
 477:USB/USB_DEVICE/Target/usbd_conf.c **** 
 1214              		.loc 1 477 3 view .LVU271
 479:USB/USB_DEVICE/Target/usbd_conf.c **** 
 1215              		.loc 1 479 3 view .LVU272
 479:USB/USB_DEVICE/Target/usbd_conf.c **** 
 1216              		.loc 1 479 16 is_stmt 0 view .LVU273
 1217 0002 D0F8C402 		ldr	r0, [r0, #708]
 1218              	.LVL112:
 479:USB/USB_DEVICE/Target/usbd_conf.c **** 
 1219              		.loc 1 479 16 view .LVU274
 1220 0006 FFF7FEFF 		bl	HAL_PCD_EP_Flush
 1221              	.LVL113:
 481:USB/USB_DEVICE/Target/usbd_conf.c **** 
 1222              		.loc 1 481 3 is_stmt 1 view .LVU275
 481:USB/USB_DEVICE/Target/usbd_conf.c **** 
 1223              		.loc 1 481 16 is_stmt 0 view .LVU276
 1224 000a FFF7FEFF 		bl	USBD_Get_USB_Status
 1225              	.LVL114:
 483:USB/USB_DEVICE/Target/usbd_conf.c **** }
 1226              		.loc 1 483 3 is_stmt 1 view .LVU277
 484:USB/USB_DEVICE/Target/usbd_conf.c **** 
 1227              		.loc 1 484 1 is_stmt 0 view .LVU278
 1228 000e 08BD     		pop	{r3, pc}
 1229              		.cfi_endproc
ARM GAS  C:\Users\HUAV\AppData\Local\Temp\ccmJY7Py.s 			page 36


 1230              	.LFE167:
 1232              		.section	.text.USBD_LL_StallEP,"ax",%progbits
 1233              		.align	1
 1234              		.global	USBD_LL_StallEP
 1235              		.syntax unified
 1236              		.thumb
 1237              		.thumb_func
 1238              		.fpu fpv5-d16
 1240              	USBD_LL_StallEP:
 1241              	.LVL115:
 1242              	.LFB168:
 493:USB/USB_DEVICE/Target/usbd_conf.c ****   HAL_StatusTypeDef hal_status = HAL_OK;
 1243              		.loc 1 493 1 is_stmt 1 view -0
 1244              		.cfi_startproc
 1245              		@ args = 0, pretend = 0, frame = 0
 1246              		@ frame_needed = 0, uses_anonymous_args = 0
 493:USB/USB_DEVICE/Target/usbd_conf.c ****   HAL_StatusTypeDef hal_status = HAL_OK;
 1247              		.loc 1 493 1 is_stmt 0 view .LVU280
 1248 0000 08B5     		push	{r3, lr}
 1249              	.LCFI25:
 1250              		.cfi_def_cfa_offset 8
 1251              		.cfi_offset 3, -8
 1252              		.cfi_offset 14, -4
 494:USB/USB_DEVICE/Target/usbd_conf.c ****   USBD_StatusTypeDef usb_status = USBD_OK;
 1253              		.loc 1 494 3 is_stmt 1 view .LVU281
 1254              	.LVL116:
 495:USB/USB_DEVICE/Target/usbd_conf.c **** 
 1255              		.loc 1 495 3 view .LVU282
 497:USB/USB_DEVICE/Target/usbd_conf.c **** 
 1256              		.loc 1 497 3 view .LVU283
 497:USB/USB_DEVICE/Target/usbd_conf.c **** 
 1257              		.loc 1 497 16 is_stmt 0 view .LVU284
 1258 0002 D0F8C402 		ldr	r0, [r0, #708]
 1259              	.LVL117:
 497:USB/USB_DEVICE/Target/usbd_conf.c **** 
 1260              		.loc 1 497 16 view .LVU285
 1261 0006 FFF7FEFF 		bl	HAL_PCD_EP_SetStall
 1262              	.LVL118:
 499:USB/USB_DEVICE/Target/usbd_conf.c **** 
 1263              		.loc 1 499 3 is_stmt 1 view .LVU286
 499:USB/USB_DEVICE/Target/usbd_conf.c **** 
 1264              		.loc 1 499 16 is_stmt 0 view .LVU287
 1265 000a FFF7FEFF 		bl	USBD_Get_USB_Status
 1266              	.LVL119:
 501:USB/USB_DEVICE/Target/usbd_conf.c **** }
 1267              		.loc 1 501 3 is_stmt 1 view .LVU288
 502:USB/USB_DEVICE/Target/usbd_conf.c **** 
 1268              		.loc 1 502 1 is_stmt 0 view .LVU289
 1269 000e 08BD     		pop	{r3, pc}
 1270              		.cfi_endproc
 1271              	.LFE168:
 1273              		.section	.text.USBD_LL_ClearStallEP,"ax",%progbits
 1274              		.align	1
 1275              		.global	USBD_LL_ClearStallEP
 1276              		.syntax unified
 1277              		.thumb
 1278              		.thumb_func
ARM GAS  C:\Users\HUAV\AppData\Local\Temp\ccmJY7Py.s 			page 37


 1279              		.fpu fpv5-d16
 1281              	USBD_LL_ClearStallEP:
 1282              	.LVL120:
 1283              	.LFB169:
 511:USB/USB_DEVICE/Target/usbd_conf.c ****   HAL_StatusTypeDef hal_status = HAL_OK;
 1284              		.loc 1 511 1 is_stmt 1 view -0
 1285              		.cfi_startproc
 1286              		@ args = 0, pretend = 0, frame = 0
 1287              		@ frame_needed = 0, uses_anonymous_args = 0
 511:USB/USB_DEVICE/Target/usbd_conf.c ****   HAL_StatusTypeDef hal_status = HAL_OK;
 1288              		.loc 1 511 1 is_stmt 0 view .LVU291
 1289 0000 08B5     		push	{r3, lr}
 1290              	.LCFI26:
 1291              		.cfi_def_cfa_offset 8
 1292              		.cfi_offset 3, -8
 1293              		.cfi_offset 14, -4
 512:USB/USB_DEVICE/Target/usbd_conf.c ****   USBD_StatusTypeDef usb_status = USBD_OK;
 1294              		.loc 1 512 3 is_stmt 1 view .LVU292
 1295              	.LVL121:
 513:USB/USB_DEVICE/Target/usbd_conf.c **** 
 1296              		.loc 1 513 3 view .LVU293
 515:USB/USB_DEVICE/Target/usbd_conf.c **** 
 1297              		.loc 1 515 3 view .LVU294
 515:USB/USB_DEVICE/Target/usbd_conf.c **** 
 1298              		.loc 1 515 16 is_stmt 0 view .LVU295
 1299 0002 D0F8C402 		ldr	r0, [r0, #708]
 1300              	.LVL122:
 515:USB/USB_DEVICE/Target/usbd_conf.c **** 
 1301              		.loc 1 515 16 view .LVU296
 1302 0006 FFF7FEFF 		bl	HAL_PCD_EP_ClrStall
 1303              	.LVL123:
 517:USB/USB_DEVICE/Target/usbd_conf.c **** 
 1304              		.loc 1 517 3 is_stmt 1 view .LVU297
 517:USB/USB_DEVICE/Target/usbd_conf.c **** 
 1305              		.loc 1 517 16 is_stmt 0 view .LVU298
 1306 000a FFF7FEFF 		bl	USBD_Get_USB_Status
 1307              	.LVL124:
 519:USB/USB_DEVICE/Target/usbd_conf.c **** }
 1308              		.loc 1 519 3 is_stmt 1 view .LVU299
 520:USB/USB_DEVICE/Target/usbd_conf.c **** 
 1309              		.loc 1 520 1 is_stmt 0 view .LVU300
 1310 000e 08BD     		pop	{r3, pc}
 1311              		.cfi_endproc
 1312              	.LFE169:
 1314              		.section	.text.USBD_LL_SetUSBAddress,"ax",%progbits
 1315              		.align	1
 1316              		.global	USBD_LL_SetUSBAddress
 1317              		.syntax unified
 1318              		.thumb
 1319              		.thumb_func
 1320              		.fpu fpv5-d16
 1322              	USBD_LL_SetUSBAddress:
 1323              	.LVL125:
 1324              	.LFB171:
 549:USB/USB_DEVICE/Target/usbd_conf.c ****   HAL_StatusTypeDef hal_status = HAL_OK;
 1325              		.loc 1 549 1 is_stmt 1 view -0
 1326              		.cfi_startproc
ARM GAS  C:\Users\HUAV\AppData\Local\Temp\ccmJY7Py.s 			page 38


 1327              		@ args = 0, pretend = 0, frame = 0
 1328              		@ frame_needed = 0, uses_anonymous_args = 0
 549:USB/USB_DEVICE/Target/usbd_conf.c ****   HAL_StatusTypeDef hal_status = HAL_OK;
 1329              		.loc 1 549 1 is_stmt 0 view .LVU302
 1330 0000 08B5     		push	{r3, lr}
 1331              	.LCFI27:
 1332              		.cfi_def_cfa_offset 8
 1333              		.cfi_offset 3, -8
 1334              		.cfi_offset 14, -4
 550:USB/USB_DEVICE/Target/usbd_conf.c ****   USBD_StatusTypeDef usb_status = USBD_OK;
 1335              		.loc 1 550 3 is_stmt 1 view .LVU303
 1336              	.LVL126:
 551:USB/USB_DEVICE/Target/usbd_conf.c **** 
 1337              		.loc 1 551 3 view .LVU304
 553:USB/USB_DEVICE/Target/usbd_conf.c **** 
 1338              		.loc 1 553 3 view .LVU305
 553:USB/USB_DEVICE/Target/usbd_conf.c **** 
 1339              		.loc 1 553 16 is_stmt 0 view .LVU306
 1340 0002 D0F8C402 		ldr	r0, [r0, #708]
 1341              	.LVL127:
 553:USB/USB_DEVICE/Target/usbd_conf.c **** 
 1342              		.loc 1 553 16 view .LVU307
 1343 0006 FFF7FEFF 		bl	HAL_PCD_SetAddress
 1344              	.LVL128:
 555:USB/USB_DEVICE/Target/usbd_conf.c **** 
 1345              		.loc 1 555 3 is_stmt 1 view .LVU308
 555:USB/USB_DEVICE/Target/usbd_conf.c **** 
 1346              		.loc 1 555 16 is_stmt 0 view .LVU309
 1347 000a FFF7FEFF 		bl	USBD_Get_USB_Status
 1348              	.LVL129:
 557:USB/USB_DEVICE/Target/usbd_conf.c **** }
 1349              		.loc 1 557 3 is_stmt 1 view .LVU310
 558:USB/USB_DEVICE/Target/usbd_conf.c **** 
 1350              		.loc 1 558 1 is_stmt 0 view .LVU311
 1351 000e 08BD     		pop	{r3, pc}
 1352              		.cfi_endproc
 1353              	.LFE171:
 1355              		.section	.text.USBD_LL_Transmit,"ax",%progbits
 1356              		.align	1
 1357              		.global	USBD_LL_Transmit
 1358              		.syntax unified
 1359              		.thumb
 1360              		.thumb_func
 1361              		.fpu fpv5-d16
 1363              	USBD_LL_Transmit:
 1364              	.LVL130:
 1365              	.LFB172:
 569:USB/USB_DEVICE/Target/usbd_conf.c ****   HAL_StatusTypeDef hal_status = HAL_OK;
 1366              		.loc 1 569 1 is_stmt 1 view -0
 1367              		.cfi_startproc
 1368              		@ args = 0, pretend = 0, frame = 0
 1369              		@ frame_needed = 0, uses_anonymous_args = 0
 569:USB/USB_DEVICE/Target/usbd_conf.c ****   HAL_StatusTypeDef hal_status = HAL_OK;
 1370              		.loc 1 569 1 is_stmt 0 view .LVU313
 1371 0000 08B5     		push	{r3, lr}
 1372              	.LCFI28:
 1373              		.cfi_def_cfa_offset 8
ARM GAS  C:\Users\HUAV\AppData\Local\Temp\ccmJY7Py.s 			page 39


 1374              		.cfi_offset 3, -8
 1375              		.cfi_offset 14, -4
 570:USB/USB_DEVICE/Target/usbd_conf.c ****   USBD_StatusTypeDef usb_status = USBD_OK;
 1376              		.loc 1 570 3 is_stmt 1 view .LVU314
 1377              	.LVL131:
 571:USB/USB_DEVICE/Target/usbd_conf.c **** 
 1378              		.loc 1 571 3 view .LVU315
 573:USB/USB_DEVICE/Target/usbd_conf.c **** 
 1379              		.loc 1 573 3 view .LVU316
 573:USB/USB_DEVICE/Target/usbd_conf.c **** 
 1380              		.loc 1 573 16 is_stmt 0 view .LVU317
 1381 0002 D0F8C402 		ldr	r0, [r0, #708]
 1382              	.LVL132:
 573:USB/USB_DEVICE/Target/usbd_conf.c **** 
 1383              		.loc 1 573 16 view .LVU318
 1384 0006 FFF7FEFF 		bl	HAL_PCD_EP_Transmit
 1385              	.LVL133:
 575:USB/USB_DEVICE/Target/usbd_conf.c **** 
 1386              		.loc 1 575 3 is_stmt 1 view .LVU319
 575:USB/USB_DEVICE/Target/usbd_conf.c **** 
 1387              		.loc 1 575 16 is_stmt 0 view .LVU320
 1388 000a FFF7FEFF 		bl	USBD_Get_USB_Status
 1389              	.LVL134:
 577:USB/USB_DEVICE/Target/usbd_conf.c **** }
 1390              		.loc 1 577 3 is_stmt 1 view .LVU321
 578:USB/USB_DEVICE/Target/usbd_conf.c **** 
 1391              		.loc 1 578 1 is_stmt 0 view .LVU322
 1392 000e 08BD     		pop	{r3, pc}
 1393              		.cfi_endproc
 1394              	.LFE172:
 1396              		.section	.text.USBD_LL_PrepareReceive,"ax",%progbits
 1397              		.align	1
 1398              		.global	USBD_LL_PrepareReceive
 1399              		.syntax unified
 1400              		.thumb
 1401              		.thumb_func
 1402              		.fpu fpv5-d16
 1404              	USBD_LL_PrepareReceive:
 1405              	.LVL135:
 1406              	.LFB173:
 589:USB/USB_DEVICE/Target/usbd_conf.c ****   HAL_StatusTypeDef hal_status = HAL_OK;
 1407              		.loc 1 589 1 is_stmt 1 view -0
 1408              		.cfi_startproc
 1409              		@ args = 0, pretend = 0, frame = 0
 1410              		@ frame_needed = 0, uses_anonymous_args = 0
 589:USB/USB_DEVICE/Target/usbd_conf.c ****   HAL_StatusTypeDef hal_status = HAL_OK;
 1411              		.loc 1 589 1 is_stmt 0 view .LVU324
 1412 0000 08B5     		push	{r3, lr}
 1413              	.LCFI29:
 1414              		.cfi_def_cfa_offset 8
 1415              		.cfi_offset 3, -8
 1416              		.cfi_offset 14, -4
 590:USB/USB_DEVICE/Target/usbd_conf.c ****   USBD_StatusTypeDef usb_status = USBD_OK;
 1417              		.loc 1 590 3 is_stmt 1 view .LVU325
 1418              	.LVL136:
 591:USB/USB_DEVICE/Target/usbd_conf.c **** 
 1419              		.loc 1 591 3 view .LVU326
ARM GAS  C:\Users\HUAV\AppData\Local\Temp\ccmJY7Py.s 			page 40


 593:USB/USB_DEVICE/Target/usbd_conf.c **** 
 1420              		.loc 1 593 3 view .LVU327
 593:USB/USB_DEVICE/Target/usbd_conf.c **** 
 1421              		.loc 1 593 16 is_stmt 0 view .LVU328
 1422 0002 D0F8C402 		ldr	r0, [r0, #708]
 1423              	.LVL137:
 593:USB/USB_DEVICE/Target/usbd_conf.c **** 
 1424              		.loc 1 593 16 view .LVU329
 1425 0006 FFF7FEFF 		bl	HAL_PCD_EP_Receive
 1426              	.LVL138:
 595:USB/USB_DEVICE/Target/usbd_conf.c **** 
 1427              		.loc 1 595 3 is_stmt 1 view .LVU330
 595:USB/USB_DEVICE/Target/usbd_conf.c **** 
 1428              		.loc 1 595 16 is_stmt 0 view .LVU331
 1429 000a FFF7FEFF 		bl	USBD_Get_USB_Status
 1430              	.LVL139:
 597:USB/USB_DEVICE/Target/usbd_conf.c **** }
 1431              		.loc 1 597 3 is_stmt 1 view .LVU332
 598:USB/USB_DEVICE/Target/usbd_conf.c **** 
 1432              		.loc 1 598 1 is_stmt 0 view .LVU333
 1433 000e 08BD     		pop	{r3, pc}
 1434              		.cfi_endproc
 1435              	.LFE173:
 1437              		.global	hpcd_USB_OTG_FS
 1438              		.section	.bss.hpcd_USB_OTG_FS,"aw",%nobits
 1439              		.align	2
 1440              		.set	.LANCHOR0,. + 0
 1443              	hpcd_USB_OTG_FS:
 1444 0000 00000000 		.space	1032
 1444      00000000 
 1444      00000000 
 1444      00000000 
 1444      00000000 
 1445              		.section	.bss.mem.0,"aw",%nobits
 1446              		.align	2
 1447              		.set	.LANCHOR1,. + 0
 1450              	mem.0:
 1451 0000 00000000 		.space	544
 1451      00000000 
 1451      00000000 
 1451      00000000 
 1451      00000000 
 1452              		.text
 1453              	.Letext0:
 1454              		.file 2 "d:\\software\\zephyr_env_gcc\\gcc-arm-none-eabi-10-2020-q4-major\\arm-none-eabi\\include\
 1455              		.file 3 "d:\\software\\zephyr_env_gcc\\gcc-arm-none-eabi-10-2020-q4-major\\arm-none-eabi\\include\
 1456              		.file 4 "HAL_Lib/CMSIS/Core/Include/core_cm7.h"
 1457              		.file 5 "HAL_Lib/CMSIS/Device/ST/STM32H7xx/Include/stm32h743xx.h"
 1458              		.file 6 "HAL_Lib/CMSIS/Device/ST/STM32H7xx/Include/stm32h7xx.h"
 1459              		.file 7 "HAL_Lib/STM32H7xx_HAL_Driver/Inc/stm32h7xx_hal_def.h"
 1460              		.file 8 "HAL_Lib/STM32H7xx_HAL_Driver/Inc/stm32h7xx_hal_rcc_ex.h"
 1461              		.file 9 "HAL_Lib/STM32H7xx_HAL_Driver/Inc/stm32h7xx_hal_gpio.h"
 1462              		.file 10 "HAL_Lib/STM32H7xx_HAL_Driver/Inc/stm32h7xx_ll_usb.h"
 1463              		.file 11 "HAL_Lib/STM32H7xx_HAL_Driver/Inc/stm32h7xx_hal_pcd.h"
 1464              		.file 12 "USB/STM32_USB_Device_Library/Core/Inc/usbd_def.h"
 1465              		.file 13 "HAL_Lib/STM32H7xx_HAL_Driver/Inc/stm32h7xx_hal.h"
 1466              		.file 14 "HAL_Lib/STM32H7xx_HAL_Driver/Inc/stm32h7xx_hal_pcd_ex.h"
ARM GAS  C:\Users\HUAV\AppData\Local\Temp\ccmJY7Py.s 			page 41


 1467              		.file 15 "USB/STM32_USB_Device_Library/Core/Inc/usbd_core.h"
 1468              		.file 16 "HAL_Lib/STM32H7xx_HAL_Driver/Inc/stm32h7xx_hal_cortex.h"
 1469              		.file 17 "HAL_Lib/STM32H7xx_HAL_Driver/Inc/stm32h7xx_hal_pwr_ex.h"
 1470              		.file 18 "<built-in>"
ARM GAS  C:\Users\HUAV\AppData\Local\Temp\ccmJY7Py.s 			page 42

