ARM GAS  C:\Users\8bit\AppData\Local\Temp\cczLgybK.s 			page 1


   1              		.cpu cortex-m4
   2              		.arch armv7e-m
   3              		.fpu fpv4-sp-d16
   4              		.eabi_attribute 27, 1
   5              		.eabi_attribute 28, 1
   6              		.eabi_attribute 20, 1
   7              		.eabi_attribute 21, 1
   8              		.eabi_attribute 23, 3
   9              		.eabi_attribute 24, 1
  10              		.eabi_attribute 25, 1
  11              		.eabi_attribute 26, 1
  12              		.eabi_attribute 30, 1
  13              		.eabi_attribute 34, 1
  14              		.eabi_attribute 18, 4
  15              		.file	"usbd_int.c"
  16              		.text
  17              	.Ltext0:
  18              		.cfi_sections	.debug_frame
  19              		.section	.text.usb_write_empty_txfifo,"ax",%progbits
  20              		.align	1
  21              		.global	usb_write_empty_txfifo
  22              		.syntax unified
  23              		.thumb
  24              		.thumb_func
  26              	usb_write_empty_txfifo:
  27              	.LVL0:
  28              	.LFB137:
  29              		.file 1 "HW_Lib/AT32F435/USB/usb_drivers/src/usbd_int.c"
   1:HW_Lib/AT32F435/USB/usb_drivers/src/usbd_int.c **** /**
   2:HW_Lib/AT32F435/USB/usb_drivers/src/usbd_int.c ****   **************************************************************************
   3:HW_Lib/AT32F435/USB/usb_drivers/src/usbd_int.c ****   * @file     usbd_int.c
   4:HW_Lib/AT32F435/USB/usb_drivers/src/usbd_int.c ****   * @version  v2.0.8
   5:HW_Lib/AT32F435/USB/usb_drivers/src/usbd_int.c ****   * @date     2022-04-25
   6:HW_Lib/AT32F435/USB/usb_drivers/src/usbd_int.c ****   * @brief    usb interrupt request
   7:HW_Lib/AT32F435/USB/usb_drivers/src/usbd_int.c ****   **************************************************************************
   8:HW_Lib/AT32F435/USB/usb_drivers/src/usbd_int.c ****   *                       Copyright notice & Disclaimer
   9:HW_Lib/AT32F435/USB/usb_drivers/src/usbd_int.c ****   *
  10:HW_Lib/AT32F435/USB/usb_drivers/src/usbd_int.c ****   * The software Board Support Package (BSP) that is made available to
  11:HW_Lib/AT32F435/USB/usb_drivers/src/usbd_int.c ****   * download from Artery official website is the copyrighted work of Artery.
  12:HW_Lib/AT32F435/USB/usb_drivers/src/usbd_int.c ****   * Artery authorizes customers to use, copy, and distribute the BSP
  13:HW_Lib/AT32F435/USB/usb_drivers/src/usbd_int.c ****   * software and its related documentation for the purpose of design and
  14:HW_Lib/AT32F435/USB/usb_drivers/src/usbd_int.c ****   * development in conjunction with Artery microcontrollers. Use of the
  15:HW_Lib/AT32F435/USB/usb_drivers/src/usbd_int.c ****   * software is governed by this copyright notice and the following disclaimer.
  16:HW_Lib/AT32F435/USB/usb_drivers/src/usbd_int.c ****   *
  17:HW_Lib/AT32F435/USB/usb_drivers/src/usbd_int.c ****   * THIS SOFTWARE IS PROVIDED ON "AS IS" BASIS WITHOUT WARRANTIES,
  18:HW_Lib/AT32F435/USB/usb_drivers/src/usbd_int.c ****   * GUARANTEES OR REPRESENTATIONS OF ANY KIND. ARTERY EXPRESSLY DISCLAIMS,
  19:HW_Lib/AT32F435/USB/usb_drivers/src/usbd_int.c ****   * TO THE FULLEST EXTENT PERMITTED BY LAW, ALL EXPRESS, IMPLIED OR
  20:HW_Lib/AT32F435/USB/usb_drivers/src/usbd_int.c ****   * STATUTORY OR OTHER WARRANTIES, GUARANTEES OR REPRESENTATIONS,
  21:HW_Lib/AT32F435/USB/usb_drivers/src/usbd_int.c ****   * INCLUDING BUT NOT LIMITED TO, THE IMPLIED WARRANTIES OF MERCHANTABILITY,
  22:HW_Lib/AT32F435/USB/usb_drivers/src/usbd_int.c ****   * FITNESS FOR A PARTICULAR PURPOSE, OR NON-INFRINGEMENT.
  23:HW_Lib/AT32F435/USB/usb_drivers/src/usbd_int.c ****   *
  24:HW_Lib/AT32F435/USB/usb_drivers/src/usbd_int.c ****   **************************************************************************
  25:HW_Lib/AT32F435/USB/usb_drivers/src/usbd_int.c ****   */
  26:HW_Lib/AT32F435/USB/usb_drivers/src/usbd_int.c **** #include "usbd_int.h"
  27:HW_Lib/AT32F435/USB/usb_drivers/src/usbd_int.c **** 
  28:HW_Lib/AT32F435/USB/usb_drivers/src/usbd_int.c **** /** @addtogroup AT32F435_437_middlewares_usbd_drivers
  29:HW_Lib/AT32F435/USB/usb_drivers/src/usbd_int.c ****   * @{
ARM GAS  C:\Users\8bit\AppData\Local\Temp\cczLgybK.s 			page 2


  30:HW_Lib/AT32F435/USB/usb_drivers/src/usbd_int.c ****   */
  31:HW_Lib/AT32F435/USB/usb_drivers/src/usbd_int.c **** 
  32:HW_Lib/AT32F435/USB/usb_drivers/src/usbd_int.c **** /** @defgroup USBD_drivers_interrupt
  33:HW_Lib/AT32F435/USB/usb_drivers/src/usbd_int.c ****   * @brief usb device interrupt
  34:HW_Lib/AT32F435/USB/usb_drivers/src/usbd_int.c ****   * @{
  35:HW_Lib/AT32F435/USB/usb_drivers/src/usbd_int.c ****   */
  36:HW_Lib/AT32F435/USB/usb_drivers/src/usbd_int.c **** 
  37:HW_Lib/AT32F435/USB/usb_drivers/src/usbd_int.c **** /** @defgroup USBD_int_private_functions
  38:HW_Lib/AT32F435/USB/usb_drivers/src/usbd_int.c ****   * @{
  39:HW_Lib/AT32F435/USB/usb_drivers/src/usbd_int.c ****   */
  40:HW_Lib/AT32F435/USB/usb_drivers/src/usbd_int.c **** 
  41:HW_Lib/AT32F435/USB/usb_drivers/src/usbd_int.c **** /**
  42:HW_Lib/AT32F435/USB/usb_drivers/src/usbd_int.c ****   * @brief  usb device interrput request handler.
  43:HW_Lib/AT32F435/USB/usb_drivers/src/usbd_int.c ****   * @param  otgdev: to the structure of otg_core_type
  44:HW_Lib/AT32F435/USB/usb_drivers/src/usbd_int.c ****   * @retval none
  45:HW_Lib/AT32F435/USB/usb_drivers/src/usbd_int.c ****   */
  46:HW_Lib/AT32F435/USB/usb_drivers/src/usbd_int.c **** void usbd_irq_handler(otg_core_type *otgdev)
  47:HW_Lib/AT32F435/USB/usb_drivers/src/usbd_int.c **** {
  48:HW_Lib/AT32F435/USB/usb_drivers/src/usbd_int.c ****   otg_global_type *usbx = otgdev->usb_reg;
  49:HW_Lib/AT32F435/USB/usb_drivers/src/usbd_int.c ****   usbd_core_type *udev = &otgdev->dev;
  50:HW_Lib/AT32F435/USB/usb_drivers/src/usbd_int.c ****   uint32_t intsts = usb_global_get_all_interrupt(usbx);
  51:HW_Lib/AT32F435/USB/usb_drivers/src/usbd_int.c **** 
  52:HW_Lib/AT32F435/USB/usb_drivers/src/usbd_int.c ****   /* check current device mode */
  53:HW_Lib/AT32F435/USB/usb_drivers/src/usbd_int.c ****   if(usbx->gintsts_bit.curmode == 0)
  54:HW_Lib/AT32F435/USB/usb_drivers/src/usbd_int.c ****   {
  55:HW_Lib/AT32F435/USB/usb_drivers/src/usbd_int.c ****     /* mode mismatch interrupt */
  56:HW_Lib/AT32F435/USB/usb_drivers/src/usbd_int.c ****     if(intsts & USB_OTG_MODEMIS_FLAG)
  57:HW_Lib/AT32F435/USB/usb_drivers/src/usbd_int.c ****     {
  58:HW_Lib/AT32F435/USB/usb_drivers/src/usbd_int.c ****       usb_global_clear_interrupt(usbx, USB_OTG_MODEMIS_FLAG);
  59:HW_Lib/AT32F435/USB/usb_drivers/src/usbd_int.c ****     }
  60:HW_Lib/AT32F435/USB/usb_drivers/src/usbd_int.c **** 
  61:HW_Lib/AT32F435/USB/usb_drivers/src/usbd_int.c ****     /* in endpoint interrupt */
  62:HW_Lib/AT32F435/USB/usb_drivers/src/usbd_int.c ****     if(intsts & USB_OTG_IEPT_FLAG)
  63:HW_Lib/AT32F435/USB/usb_drivers/src/usbd_int.c ****     {
  64:HW_Lib/AT32F435/USB/usb_drivers/src/usbd_int.c ****       usbd_inept_handler(udev);
  65:HW_Lib/AT32F435/USB/usb_drivers/src/usbd_int.c ****     }
  66:HW_Lib/AT32F435/USB/usb_drivers/src/usbd_int.c **** 
  67:HW_Lib/AT32F435/USB/usb_drivers/src/usbd_int.c ****     /* out endpoint interrupt */
  68:HW_Lib/AT32F435/USB/usb_drivers/src/usbd_int.c ****     if(intsts & USB_OTG_OEPT_FLAG)
  69:HW_Lib/AT32F435/USB/usb_drivers/src/usbd_int.c ****     {
  70:HW_Lib/AT32F435/USB/usb_drivers/src/usbd_int.c ****       usbd_outept_handler(udev);
  71:HW_Lib/AT32F435/USB/usb_drivers/src/usbd_int.c ****     }
  72:HW_Lib/AT32F435/USB/usb_drivers/src/usbd_int.c **** 
  73:HW_Lib/AT32F435/USB/usb_drivers/src/usbd_int.c ****     /* usb reset interrupt */
  74:HW_Lib/AT32F435/USB/usb_drivers/src/usbd_int.c ****     if(intsts & USB_OTG_USBRST_FLAG)
  75:HW_Lib/AT32F435/USB/usb_drivers/src/usbd_int.c ****     {
  76:HW_Lib/AT32F435/USB/usb_drivers/src/usbd_int.c ****       usbd_reset_handler(udev);
  77:HW_Lib/AT32F435/USB/usb_drivers/src/usbd_int.c ****       usb_global_clear_interrupt(usbx, USB_OTG_USBRST_FLAG);
  78:HW_Lib/AT32F435/USB/usb_drivers/src/usbd_int.c ****     }
  79:HW_Lib/AT32F435/USB/usb_drivers/src/usbd_int.c **** 
  80:HW_Lib/AT32F435/USB/usb_drivers/src/usbd_int.c ****     /* sof interrupt */
  81:HW_Lib/AT32F435/USB/usb_drivers/src/usbd_int.c ****     if(intsts & USB_OTG_SOF_FLAG)
  82:HW_Lib/AT32F435/USB/usb_drivers/src/usbd_int.c ****     {
  83:HW_Lib/AT32F435/USB/usb_drivers/src/usbd_int.c ****       usbd_sof_handler(udev);
  84:HW_Lib/AT32F435/USB/usb_drivers/src/usbd_int.c ****       usb_global_clear_interrupt(usbx, USB_OTG_SOF_FLAG);
  85:HW_Lib/AT32F435/USB/usb_drivers/src/usbd_int.c ****     }
  86:HW_Lib/AT32F435/USB/usb_drivers/src/usbd_int.c **** 
ARM GAS  C:\Users\8bit\AppData\Local\Temp\cczLgybK.s 			page 3


  87:HW_Lib/AT32F435/USB/usb_drivers/src/usbd_int.c ****     /* enumeration done interrupt */
  88:HW_Lib/AT32F435/USB/usb_drivers/src/usbd_int.c ****     if(intsts & USB_OTG_ENUMDONE_FLAG)
  89:HW_Lib/AT32F435/USB/usb_drivers/src/usbd_int.c ****     {
  90:HW_Lib/AT32F435/USB/usb_drivers/src/usbd_int.c ****       usbd_enumdone_handler(udev);
  91:HW_Lib/AT32F435/USB/usb_drivers/src/usbd_int.c ****       usb_global_clear_interrupt(usbx, USB_OTG_ENUMDONE_FLAG);
  92:HW_Lib/AT32F435/USB/usb_drivers/src/usbd_int.c ****     }
  93:HW_Lib/AT32F435/USB/usb_drivers/src/usbd_int.c **** 
  94:HW_Lib/AT32F435/USB/usb_drivers/src/usbd_int.c ****     /* rx non-empty interrupt, indicates that there is at least one
  95:HW_Lib/AT32F435/USB/usb_drivers/src/usbd_int.c ****        data packet pending to be read in rx fifo */
  96:HW_Lib/AT32F435/USB/usb_drivers/src/usbd_int.c ****     if(intsts & USB_OTG_RXFLVL_FLAG)
  97:HW_Lib/AT32F435/USB/usb_drivers/src/usbd_int.c ****     {
  98:HW_Lib/AT32F435/USB/usb_drivers/src/usbd_int.c ****       usbd_rxflvl_handler(udev);
  99:HW_Lib/AT32F435/USB/usb_drivers/src/usbd_int.c ****     }
 100:HW_Lib/AT32F435/USB/usb_drivers/src/usbd_int.c **** 
 101:HW_Lib/AT32F435/USB/usb_drivers/src/usbd_int.c ****     /* incomplete isochronous in transfer interrupt */
 102:HW_Lib/AT32F435/USB/usb_drivers/src/usbd_int.c ****     if(intsts & USB_OTG_INCOMISOIN_FLAG)
 103:HW_Lib/AT32F435/USB/usb_drivers/src/usbd_int.c ****     {
 104:HW_Lib/AT32F435/USB/usb_drivers/src/usbd_int.c ****       usbd_incomisioin_handler(udev);
 105:HW_Lib/AT32F435/USB/usb_drivers/src/usbd_int.c ****       usb_global_clear_interrupt(usbx, USB_OTG_INCOMISOIN_FLAG);
 106:HW_Lib/AT32F435/USB/usb_drivers/src/usbd_int.c ****     }
 107:HW_Lib/AT32F435/USB/usb_drivers/src/usbd_int.c ****  #ifndef USB_VBUS_IGNORE
 108:HW_Lib/AT32F435/USB/usb_drivers/src/usbd_int.c ****     /* disconnect detected interrupt  */
 109:HW_Lib/AT32F435/USB/usb_drivers/src/usbd_int.c ****     if(intsts & USB_OTG_OTGINT_FLAG)
 110:HW_Lib/AT32F435/USB/usb_drivers/src/usbd_int.c ****     {
 111:HW_Lib/AT32F435/USB/usb_drivers/src/usbd_int.c ****       uint32_t tmp = udev->usb_reg->gotgint;
 112:HW_Lib/AT32F435/USB/usb_drivers/src/usbd_int.c ****       if(udev->usb_reg->gotgint_bit.sesenddet)
 113:HW_Lib/AT32F435/USB/usb_drivers/src/usbd_int.c ****         usbd_discon_handler(udev);
 114:HW_Lib/AT32F435/USB/usb_drivers/src/usbd_int.c ****       udev->usb_reg->gotgint = tmp;
 115:HW_Lib/AT32F435/USB/usb_drivers/src/usbd_int.c ****       usb_global_clear_interrupt(usbx, USB_OTG_OTGINT_FLAG);
 116:HW_Lib/AT32F435/USB/usb_drivers/src/usbd_int.c ****     }
 117:HW_Lib/AT32F435/USB/usb_drivers/src/usbd_int.c **** #endif
 118:HW_Lib/AT32F435/USB/usb_drivers/src/usbd_int.c ****     /* incomplete isochronous out transfer interrupt */
 119:HW_Lib/AT32F435/USB/usb_drivers/src/usbd_int.c ****     if(intsts & USB_OTG_INCOMPIP_INCOMPISOOUT_FLAG)
 120:HW_Lib/AT32F435/USB/usb_drivers/src/usbd_int.c ****     {
 121:HW_Lib/AT32F435/USB/usb_drivers/src/usbd_int.c ****       usbd_incomisoout_handler(udev);
 122:HW_Lib/AT32F435/USB/usb_drivers/src/usbd_int.c ****       usb_global_clear_interrupt(usbx, USB_OTG_INCOMPIP_INCOMPISOOUT_FLAG);
 123:HW_Lib/AT32F435/USB/usb_drivers/src/usbd_int.c ****     }
 124:HW_Lib/AT32F435/USB/usb_drivers/src/usbd_int.c **** 
 125:HW_Lib/AT32F435/USB/usb_drivers/src/usbd_int.c ****     /* resume/remote wakeup interrupt */
 126:HW_Lib/AT32F435/USB/usb_drivers/src/usbd_int.c ****     if(intsts & USB_OTG_WKUP_FLAG)
 127:HW_Lib/AT32F435/USB/usb_drivers/src/usbd_int.c ****     {
 128:HW_Lib/AT32F435/USB/usb_drivers/src/usbd_int.c ****       usbd_wakeup_handler(udev);
 129:HW_Lib/AT32F435/USB/usb_drivers/src/usbd_int.c ****       usb_global_clear_interrupt(usbx, USB_OTG_WKUP_FLAG);
 130:HW_Lib/AT32F435/USB/usb_drivers/src/usbd_int.c ****     }
 131:HW_Lib/AT32F435/USB/usb_drivers/src/usbd_int.c **** 
 132:HW_Lib/AT32F435/USB/usb_drivers/src/usbd_int.c ****     /* usb suspend interrupt */
 133:HW_Lib/AT32F435/USB/usb_drivers/src/usbd_int.c ****     if(intsts & USB_OTG_USBSUSP_FLAG)
 134:HW_Lib/AT32F435/USB/usb_drivers/src/usbd_int.c ****     {
 135:HW_Lib/AT32F435/USB/usb_drivers/src/usbd_int.c ****       usbd_suspend_handler(udev);
 136:HW_Lib/AT32F435/USB/usb_drivers/src/usbd_int.c ****       usb_global_clear_interrupt(usbx, USB_OTG_USBSUSP_FLAG);
 137:HW_Lib/AT32F435/USB/usb_drivers/src/usbd_int.c ****     }
 138:HW_Lib/AT32F435/USB/usb_drivers/src/usbd_int.c ****   }
 139:HW_Lib/AT32F435/USB/usb_drivers/src/usbd_int.c **** }
 140:HW_Lib/AT32F435/USB/usb_drivers/src/usbd_int.c **** 
 141:HW_Lib/AT32F435/USB/usb_drivers/src/usbd_int.c **** /**
 142:HW_Lib/AT32F435/USB/usb_drivers/src/usbd_int.c ****   * @brief  usb write tx fifo.
 143:HW_Lib/AT32F435/USB/usb_drivers/src/usbd_int.c ****   * @param  udev: to the structure of usbd_core_type
ARM GAS  C:\Users\8bit\AppData\Local\Temp\cczLgybK.s 			page 4


 144:HW_Lib/AT32F435/USB/usb_drivers/src/usbd_int.c ****   * @param  ept_num: endpoint number
 145:HW_Lib/AT32F435/USB/usb_drivers/src/usbd_int.c ****   * @retval none
 146:HW_Lib/AT32F435/USB/usb_drivers/src/usbd_int.c ****   */
 147:HW_Lib/AT32F435/USB/usb_drivers/src/usbd_int.c **** void usb_write_empty_txfifo(usbd_core_type *udev, uint32_t ept_num)
 148:HW_Lib/AT32F435/USB/usb_drivers/src/usbd_int.c **** {
  30              		.loc 1 148 1 view -0
  31              		.cfi_startproc
  32              		@ args = 0, pretend = 0, frame = 0
  33              		@ frame_needed = 0, uses_anonymous_args = 0
  34              		.loc 1 148 1 is_stmt 0 view .LVU1
  35 0000 2DE9F843 		push	{r3, r4, r5, r6, r7, r8, r9, lr}
  36              	.LCFI0:
  37              		.cfi_def_cfa_offset 32
  38              		.cfi_offset 3, -32
  39              		.cfi_offset 4, -28
  40              		.cfi_offset 5, -24
  41              		.cfi_offset 6, -20
  42              		.cfi_offset 7, -16
  43              		.cfi_offset 8, -12
  44              		.cfi_offset 9, -8
  45              		.cfi_offset 14, -4
  46 0004 0746     		mov	r7, r0
  47 0006 0E46     		mov	r6, r1
 149:HW_Lib/AT32F435/USB/usb_drivers/src/usbd_int.c ****   otg_global_type *usbx = udev->usb_reg;
  48              		.loc 1 149 3 is_stmt 1 view .LVU2
  49              		.loc 1 149 20 is_stmt 0 view .LVU3
  50 0008 D0F80080 		ldr	r8, [r0]
  51              	.LVL1:
 150:HW_Lib/AT32F435/USB/usb_drivers/src/usbd_int.c ****   usb_ept_info *ept_info = &udev->ept_in[ept_num];
  52              		.loc 1 150 3 is_stmt 1 view .LVU4
 151:HW_Lib/AT32F435/USB/usb_drivers/src/usbd_int.c ****   uint32_t length = ept_info->total_len - ept_info->trans_len;
  53              		.loc 1 151 3 view .LVU5
  54              		.loc 1 151 29 is_stmt 0 view .LVU6
  55 000c 2C23     		movs	r3, #44
  56 000e 03FB0103 		mla	r3, r3, r1, r0
  57 0012 5A6A     		ldr	r2, [r3, #36]
  58              		.loc 1 151 51 view .LVU7
  59 0014 996A     		ldr	r1, [r3, #40]
  60              	.LVL2:
  61              		.loc 1 151 12 view .LVU8
  62 0016 521A     		subs	r2, r2, r1
  63              	.LVL3:
 152:HW_Lib/AT32F435/USB/usb_drivers/src/usbd_int.c ****   uint32_t wlen = 0;
  64              		.loc 1 152 3 is_stmt 1 view .LVU9
 153:HW_Lib/AT32F435/USB/usb_drivers/src/usbd_int.c **** 
 154:HW_Lib/AT32F435/USB/usb_drivers/src/usbd_int.c ****   if(length > ept_info->maxpacket)
  65              		.loc 1 154 3 view .LVU10
  66              		.loc 1 154 23 is_stmt 0 view .LVU11
  67 0018 5D69     		ldr	r5, [r3, #20]
  68              		.loc 1 154 5 view .LVU12
  69 001a 9542     		cmp	r5, r2
  70 001c 00D3     		bcc	.L2
 151:HW_Lib/AT32F435/USB/usb_drivers/src/usbd_int.c ****   uint32_t wlen = 0;
  71              		.loc 1 151 12 view .LVU13
  72 001e 1546     		mov	r5, r2
  73              	.L2:
  74              	.LVL4:
ARM GAS  C:\Users\8bit\AppData\Local\Temp\cczLgybK.s 			page 5


 155:HW_Lib/AT32F435/USB/usb_drivers/src/usbd_int.c ****   {
 156:HW_Lib/AT32F435/USB/usb_drivers/src/usbd_int.c ****     length = ept_info->maxpacket;
 157:HW_Lib/AT32F435/USB/usb_drivers/src/usbd_int.c ****   }
 158:HW_Lib/AT32F435/USB/usb_drivers/src/usbd_int.c ****   wlen = (length + 3) / 4;
  75              		.loc 1 158 3 is_stmt 1 view .LVU14
  76              		.loc 1 158 18 is_stmt 0 view .LVU15
  77 0020 05F10309 		add	r9, r5, #3
  78              		.loc 1 158 8 view .LVU16
  79 0024 4FEA9909 		lsr	r9, r9, #2
  80              	.LVL5:
 159:HW_Lib/AT32F435/USB/usb_drivers/src/usbd_int.c **** 
 160:HW_Lib/AT32F435/USB/usb_drivers/src/usbd_int.c ****   while((USB_INEPT(usbx, ept_num)->dtxfsts & USB_OTG_DTXFSTS_INEPTFSAV) > wlen &&
  81              		.loc 1 160 3 is_stmt 1 view .LVU17
  82              		.loc 1 160 8 is_stmt 0 view .LVU18
  83 0028 12E0     		b	.L3
  84              	.LVL6:
  85              	.L4:
 161:HW_Lib/AT32F435/USB/usb_drivers/src/usbd_int.c ****     (ept_info->trans_len < ept_info->total_len) && (ept_info->total_len != 0))
 162:HW_Lib/AT32F435/USB/usb_drivers/src/usbd_int.c ****   {
 163:HW_Lib/AT32F435/USB/usb_drivers/src/usbd_int.c ****     length = ept_info->total_len - ept_info->trans_len;
 164:HW_Lib/AT32F435/USB/usb_drivers/src/usbd_int.c ****     if(length > ept_info->maxpacket)
 165:HW_Lib/AT32F435/USB/usb_drivers/src/usbd_int.c ****     {
 166:HW_Lib/AT32F435/USB/usb_drivers/src/usbd_int.c ****       length = ept_info->maxpacket;
 167:HW_Lib/AT32F435/USB/usb_drivers/src/usbd_int.c ****     }
 168:HW_Lib/AT32F435/USB/usb_drivers/src/usbd_int.c ****     wlen = (length + 3) / 4;
  86              		.loc 1 168 5 is_stmt 1 view .LVU19
  87              		.loc 1 168 20 is_stmt 0 view .LVU20
  88 002a 05F10309 		add	r9, r5, #3
  89              	.LVL7:
  90              		.loc 1 168 10 view .LVU21
  91 002e 4FEA9909 		lsr	r9, r9, #2
  92              	.LVL8:
 169:HW_Lib/AT32F435/USB/usb_drivers/src/usbd_int.c ****     usb_write_packet(usbx, ept_info->trans_buf, ept_num, length);
  93              		.loc 1 169 5 is_stmt 1 view .LVU22
  94 0032 2C24     		movs	r4, #44
  95 0034 04FB0674 		mla	r4, r4, r6, r7
  96 0038 ABB2     		uxth	r3, r5
  97 003a B2B2     		uxth	r2, r6
  98 003c 216A     		ldr	r1, [r4, #32]
  99 003e 4046     		mov	r0, r8
 100 0040 FFF7FEFF 		bl	usb_write_packet
 101              	.LVL9:
 170:HW_Lib/AT32F435/USB/usb_drivers/src/usbd_int.c **** 
 171:HW_Lib/AT32F435/USB/usb_drivers/src/usbd_int.c ****     ept_info->trans_buf += length;
 102              		.loc 1 171 5 view .LVU23
 103              		.loc 1 171 25 is_stmt 0 view .LVU24
 104 0044 236A     		ldr	r3, [r4, #32]
 105 0046 2B44     		add	r3, r3, r5
 106 0048 2362     		str	r3, [r4, #32]
 172:HW_Lib/AT32F435/USB/usb_drivers/src/usbd_int.c ****     ept_info->trans_len += length;
 107              		.loc 1 172 5 is_stmt 1 view .LVU25
 108              		.loc 1 172 25 is_stmt 0 view .LVU26
 109 004a A36A     		ldr	r3, [r4, #40]
 110 004c 2B44     		add	r3, r3, r5
 111 004e A362     		str	r3, [r4, #40]
 112              	.L3:
 160:HW_Lib/AT32F435/USB/usb_drivers/src/usbd_int.c ****     (ept_info->trans_len < ept_info->total_len) && (ept_info->total_len != 0))
ARM GAS  C:\Users\8bit\AppData\Local\Temp\cczLgybK.s 			page 6


 113              		.loc 1 160 8 is_stmt 1 view .LVU27
 160:HW_Lib/AT32F435/USB/usb_drivers/src/usbd_int.c ****     (ept_info->trans_len < ept_info->total_len) && (ept_info->total_len != 0))
 114              		.loc 1 160 10 is_stmt 0 view .LVU28
 115 0050 08EB4613 		add	r3, r8, r6, lsl #5
 116 0054 03F51063 		add	r3, r3, #2304
 160:HW_Lib/AT32F435/USB/usb_drivers/src/usbd_int.c ****     (ept_info->trans_len < ept_info->total_len) && (ept_info->total_len != 0))
 117              		.loc 1 160 34 view .LVU29
 118 0058 9B69     		ldr	r3, [r3, #24]
 160:HW_Lib/AT32F435/USB/usb_drivers/src/usbd_int.c ****     (ept_info->trans_len < ept_info->total_len) && (ept_info->total_len != 0))
 119              		.loc 1 160 44 view .LVU30
 120 005a 9BB2     		uxth	r3, r3
 160:HW_Lib/AT32F435/USB/usb_drivers/src/usbd_int.c ****     (ept_info->trans_len < ept_info->total_len) && (ept_info->total_len != 0))
 121              		.loc 1 160 8 view .LVU31
 122 005c 4B45     		cmp	r3, r9
 123 005e 10D9     		bls	.L5
 161:HW_Lib/AT32F435/USB/usb_drivers/src/usbd_int.c ****   {
 124              		.loc 1 161 14 discriminator 1 view .LVU32
 125 0060 2C22     		movs	r2, #44
 126 0062 02FB0672 		mla	r2, r2, r6, r7
 127 0066 916A     		ldr	r1, [r2, #40]
 161:HW_Lib/AT32F435/USB/usb_drivers/src/usbd_int.c ****   {
 128              		.loc 1 161 36 discriminator 1 view .LVU33
 129 0068 536A     		ldr	r3, [r2, #36]
 160:HW_Lib/AT32F435/USB/usb_drivers/src/usbd_int.c ****     (ept_info->trans_len < ept_info->total_len) && (ept_info->total_len != 0))
 130              		.loc 1 160 80 discriminator 1 view .LVU34
 131 006a 9942     		cmp	r1, r3
 132 006c 09D2     		bcs	.L5
 161:HW_Lib/AT32F435/USB/usb_drivers/src/usbd_int.c ****   {
 133              		.loc 1 161 49 view .LVU35
 134 006e 43B1     		cbz	r3, .L5
 163:HW_Lib/AT32F435/USB/usb_drivers/src/usbd_int.c ****     if(length > ept_info->maxpacket)
 135              		.loc 1 163 5 is_stmt 1 view .LVU36
 163:HW_Lib/AT32F435/USB/usb_drivers/src/usbd_int.c ****     if(length > ept_info->maxpacket)
 136              		.loc 1 163 12 is_stmt 0 view .LVU37
 137 0070 5B1A     		subs	r3, r3, r1
 138              	.LVL10:
 164:HW_Lib/AT32F435/USB/usb_drivers/src/usbd_int.c ****     {
 139              		.loc 1 164 5 is_stmt 1 view .LVU38
 164:HW_Lib/AT32F435/USB/usb_drivers/src/usbd_int.c ****     {
 140              		.loc 1 164 25 is_stmt 0 view .LVU39
 141 0072 2C22     		movs	r2, #44
 142 0074 02FB0672 		mla	r2, r2, r6, r7
 143 0078 5569     		ldr	r5, [r2, #20]
 164:HW_Lib/AT32F435/USB/usb_drivers/src/usbd_int.c ****     {
 144              		.loc 1 164 7 view .LVU40
 145 007a 9D42     		cmp	r5, r3
 146 007c D5D3     		bcc	.L4
 163:HW_Lib/AT32F435/USB/usb_drivers/src/usbd_int.c ****     if(length > ept_info->maxpacket)
 147              		.loc 1 163 12 view .LVU41
 148 007e 1D46     		mov	r5, r3
 149 0080 D3E7     		b	.L4
 150              	.LVL11:
 151              	.L5:
 173:HW_Lib/AT32F435/USB/usb_drivers/src/usbd_int.c **** 
 174:HW_Lib/AT32F435/USB/usb_drivers/src/usbd_int.c ****   }
 175:HW_Lib/AT32F435/USB/usb_drivers/src/usbd_int.c ****   if(length <= 0)
 152              		.loc 1 175 3 is_stmt 1 view .LVU42
ARM GAS  C:\Users\8bit\AppData\Local\Temp\cczLgybK.s 			page 7


 153              		.loc 1 175 5 is_stmt 0 view .LVU43
 154 0082 45B9     		cbnz	r5, .L1
 176:HW_Lib/AT32F435/USB/usb_drivers/src/usbd_int.c ****   {
 177:HW_Lib/AT32F435/USB/usb_drivers/src/usbd_int.c ****     OTG_DEVICE(usbx)->diepempmsk &= ~(0x1 << ept_num);
 155              		.loc 1 177 5 is_stmt 1 view .LVU44
 156              		.loc 1 177 34 is_stmt 0 view .LVU45
 157 0084 D8F83438 		ldr	r3, [r8, #2100]
 158              		.loc 1 177 43 view .LVU46
 159 0088 0122     		movs	r2, #1
 160 008a 02FA06F6 		lsl	r6, r2, r6
 161              	.LVL12:
 162              		.loc 1 177 34 view .LVU47
 163 008e 23EA0606 		bic	r6, r3, r6
 164 0092 C8F83468 		str	r6, [r8, #2100]
 165              	.L1:
 178:HW_Lib/AT32F435/USB/usb_drivers/src/usbd_int.c ****   }
 179:HW_Lib/AT32F435/USB/usb_drivers/src/usbd_int.c **** }
 166              		.loc 1 179 1 view .LVU48
 167 0096 BDE8F883 		pop	{r3, r4, r5, r6, r7, r8, r9, pc}
 168              		.loc 1 179 1 view .LVU49
 169              		.cfi_endproc
 170              	.LFE137:
 172              		.section	.text.usbd_inept_handler,"ax",%progbits
 173              		.align	1
 174              		.global	usbd_inept_handler
 175              		.syntax unified
 176              		.thumb
 177              		.thumb_func
 179              	usbd_inept_handler:
 180              	.LVL13:
 181              	.LFB138:
 180:HW_Lib/AT32F435/USB/usb_drivers/src/usbd_int.c **** 
 181:HW_Lib/AT32F435/USB/usb_drivers/src/usbd_int.c **** 
 182:HW_Lib/AT32F435/USB/usb_drivers/src/usbd_int.c **** /**
 183:HW_Lib/AT32F435/USB/usb_drivers/src/usbd_int.c ****   * @brief  usb in endpoint handler
 184:HW_Lib/AT32F435/USB/usb_drivers/src/usbd_int.c ****   * @param  udev: to the structure of usbd_core_type
 185:HW_Lib/AT32F435/USB/usb_drivers/src/usbd_int.c ****   * @retval none
 186:HW_Lib/AT32F435/USB/usb_drivers/src/usbd_int.c ****   */
 187:HW_Lib/AT32F435/USB/usb_drivers/src/usbd_int.c **** void usbd_inept_handler(usbd_core_type *udev)
 188:HW_Lib/AT32F435/USB/usb_drivers/src/usbd_int.c **** {
 182              		.loc 1 188 1 is_stmt 1 view -0
 183              		.cfi_startproc
 184              		@ args = 0, pretend = 0, frame = 0
 185              		@ frame_needed = 0, uses_anonymous_args = 0
 186              		.loc 1 188 1 is_stmt 0 view .LVU51
 187 0000 2DE9F041 		push	{r4, r5, r6, r7, r8, lr}
 188              	.LCFI1:
 189              		.cfi_def_cfa_offset 24
 190              		.cfi_offset 4, -24
 191              		.cfi_offset 5, -20
 192              		.cfi_offset 6, -16
 193              		.cfi_offset 7, -12
 194              		.cfi_offset 8, -8
 195              		.cfi_offset 14, -4
 196 0004 8046     		mov	r8, r0
 189:HW_Lib/AT32F435/USB/usb_drivers/src/usbd_int.c ****   otg_global_type *usbx = udev->usb_reg;
 197              		.loc 1 189 3 is_stmt 1 view .LVU52
ARM GAS  C:\Users\8bit\AppData\Local\Temp\cczLgybK.s 			page 8


 198              		.loc 1 189 20 is_stmt 0 view .LVU53
 199 0006 0768     		ldr	r7, [r0]
 200              	.LVL14:
 190:HW_Lib/AT32F435/USB/usb_drivers/src/usbd_int.c ****   uint32_t ept_num = 0, ept_int;
 201              		.loc 1 190 3 is_stmt 1 view .LVU54
 191:HW_Lib/AT32F435/USB/usb_drivers/src/usbd_int.c ****   uint32_t intsts;
 202              		.loc 1 191 3 view .LVU55
 192:HW_Lib/AT32F435/USB/usb_drivers/src/usbd_int.c **** 
 193:HW_Lib/AT32F435/USB/usb_drivers/src/usbd_int.c ****   /*get all endpoint interrut */
 194:HW_Lib/AT32F435/USB/usb_drivers/src/usbd_int.c ****   intsts = usb_get_all_in_interrupt(usbx);
 203              		.loc 1 194 3 view .LVU56
 204              		.loc 1 194 12 is_stmt 0 view .LVU57
 205 0008 3846     		mov	r0, r7
 206              	.LVL15:
 207              		.loc 1 194 12 view .LVU58
 208 000a FFF7FEFF 		bl	usb_get_all_in_interrupt
 209              	.LVL16:
 210 000e 0446     		mov	r4, r0
 211              	.LVL17:
 195:HW_Lib/AT32F435/USB/usb_drivers/src/usbd_int.c ****   while(intsts)
 212              		.loc 1 195 3 is_stmt 1 view .LVU59
 190:HW_Lib/AT32F435/USB/usb_drivers/src/usbd_int.c ****   uint32_t intsts;
 213              		.loc 1 190 12 is_stmt 0 view .LVU60
 214 0010 0025     		movs	r5, #0
 215              		.loc 1 195 8 view .LVU61
 216 0012 2BE0     		b	.L10
 217              	.LVL18:
 218              	.L20:
 196:HW_Lib/AT32F435/USB/usb_drivers/src/usbd_int.c ****   {
 197:HW_Lib/AT32F435/USB/usb_drivers/src/usbd_int.c ****     if(intsts & 0x1)
 198:HW_Lib/AT32F435/USB/usb_drivers/src/usbd_int.c ****     {
 199:HW_Lib/AT32F435/USB/usb_drivers/src/usbd_int.c ****       /* get endpoint interrupt flag */
 200:HW_Lib/AT32F435/USB/usb_drivers/src/usbd_int.c ****       ept_int = usb_ept_in_interrupt(usbx, ept_num);
 201:HW_Lib/AT32F435/USB/usb_drivers/src/usbd_int.c **** 
 202:HW_Lib/AT32F435/USB/usb_drivers/src/usbd_int.c ****       /* transfer completed interrupt */
 203:HW_Lib/AT32F435/USB/usb_drivers/src/usbd_int.c ****       if(ept_int & USB_OTG_DIEPINT_XFERC_FLAG)
 204:HW_Lib/AT32F435/USB/usb_drivers/src/usbd_int.c ****       {
 205:HW_Lib/AT32F435/USB/usb_drivers/src/usbd_int.c ****         OTG_DEVICE(usbx)->diepempmsk &= ~(1 << ept_num);
 219              		.loc 1 205 9 is_stmt 1 view .LVU62
 220              		.loc 1 205 38 is_stmt 0 view .LVU63
 221 0014 D7F83438 		ldr	r3, [r7, #2100]
 222              		.loc 1 205 45 view .LVU64
 223 0018 0122     		movs	r2, #1
 224 001a 02FA05F0 		lsl	r0, r2, r5
 225              	.LVL19:
 226              		.loc 1 205 38 view .LVU65
 227 001e 23EA0003 		bic	r3, r3, r0
 228 0022 C7F83438 		str	r3, [r7, #2100]
 206:HW_Lib/AT32F435/USB/usb_drivers/src/usbd_int.c ****         usb_ept_in_clear(usbx, ept_num , USB_OTG_DIEPINT_XFERC_FLAG);
 229              		.loc 1 206 9 is_stmt 1 view .LVU66
 230 0026 2946     		mov	r1, r5
 231 0028 3846     		mov	r0, r7
 232 002a FFF7FEFF 		bl	usb_ept_in_clear
 233              	.LVL20:
 207:HW_Lib/AT32F435/USB/usb_drivers/src/usbd_int.c ****         usbd_core_in_handler(udev, ept_num);
 234              		.loc 1 207 9 view .LVU67
 235 002e E9B2     		uxtb	r1, r5
ARM GAS  C:\Users\8bit\AppData\Local\Temp\cczLgybK.s 			page 9


 236 0030 4046     		mov	r0, r8
 237 0032 FFF7FEFF 		bl	usbd_core_in_handler
 238              	.LVL21:
 239 0036 25E0     		b	.L12
 240              	.L21:
 208:HW_Lib/AT32F435/USB/usb_drivers/src/usbd_int.c ****       }
 209:HW_Lib/AT32F435/USB/usb_drivers/src/usbd_int.c **** 
 210:HW_Lib/AT32F435/USB/usb_drivers/src/usbd_int.c ****       /* timeout condition interrupt */
 211:HW_Lib/AT32F435/USB/usb_drivers/src/usbd_int.c ****       if(ept_int & USB_OTG_DIEPINT_TIMEOUT_FLAG)
 212:HW_Lib/AT32F435/USB/usb_drivers/src/usbd_int.c ****       {
 213:HW_Lib/AT32F435/USB/usb_drivers/src/usbd_int.c ****         usb_ept_in_clear(usbx, ept_num , USB_OTG_DIEPINT_TIMEOUT_FLAG);
 241              		.loc 1 213 9 view .LVU68
 242 0038 0822     		movs	r2, #8
 243 003a 2946     		mov	r1, r5
 244 003c 3846     		mov	r0, r7
 245 003e FFF7FEFF 		bl	usb_ept_in_clear
 246              	.LVL22:
 247 0042 22E0     		b	.L13
 248              	.L22:
 214:HW_Lib/AT32F435/USB/usb_drivers/src/usbd_int.c ****       }
 215:HW_Lib/AT32F435/USB/usb_drivers/src/usbd_int.c **** 
 216:HW_Lib/AT32F435/USB/usb_drivers/src/usbd_int.c ****       /* in token received when tx fifo is empty */
 217:HW_Lib/AT32F435/USB/usb_drivers/src/usbd_int.c ****       if(ept_int & USB_OTG_DIEPINT_INTKNTXFEMP_FLAG)
 218:HW_Lib/AT32F435/USB/usb_drivers/src/usbd_int.c ****       {
 219:HW_Lib/AT32F435/USB/usb_drivers/src/usbd_int.c ****         usb_ept_in_clear(usbx, ept_num , USB_OTG_DIEPINT_INTKNTXFEMP_FLAG);
 249              		.loc 1 219 9 view .LVU69
 250 0044 1022     		movs	r2, #16
 251 0046 2946     		mov	r1, r5
 252 0048 3846     		mov	r0, r7
 253 004a FFF7FEFF 		bl	usb_ept_in_clear
 254              	.LVL23:
 255 004e 1FE0     		b	.L14
 256              	.L23:
 220:HW_Lib/AT32F435/USB/usb_drivers/src/usbd_int.c ****       }
 221:HW_Lib/AT32F435/USB/usb_drivers/src/usbd_int.c **** 
 222:HW_Lib/AT32F435/USB/usb_drivers/src/usbd_int.c ****       /* in endpoint nak effective */
 223:HW_Lib/AT32F435/USB/usb_drivers/src/usbd_int.c ****       if(ept_int & USB_OTG_DIEPINT_INEPTNAK_FLAG)
 224:HW_Lib/AT32F435/USB/usb_drivers/src/usbd_int.c ****       {
 225:HW_Lib/AT32F435/USB/usb_drivers/src/usbd_int.c ****         usb_ept_in_clear(usbx, ept_num , USB_OTG_DIEPINT_INEPTNAK_FLAG);
 257              		.loc 1 225 9 view .LVU70
 258 0050 4022     		movs	r2, #64
 259 0052 2946     		mov	r1, r5
 260 0054 3846     		mov	r0, r7
 261 0056 FFF7FEFF 		bl	usb_ept_in_clear
 262              	.LVL24:
 263 005a 1CE0     		b	.L15
 264              	.L24:
 226:HW_Lib/AT32F435/USB/usb_drivers/src/usbd_int.c ****       }
 227:HW_Lib/AT32F435/USB/usb_drivers/src/usbd_int.c **** 
 228:HW_Lib/AT32F435/USB/usb_drivers/src/usbd_int.c ****       /* endpoint disable interrupt */
 229:HW_Lib/AT32F435/USB/usb_drivers/src/usbd_int.c ****       if(ept_int & USB_OTG_DIEPINT_EPTDISD_FLAG)
 230:HW_Lib/AT32F435/USB/usb_drivers/src/usbd_int.c ****       {
 231:HW_Lib/AT32F435/USB/usb_drivers/src/usbd_int.c ****         usb_ept_in_clear(usbx, ept_num , USB_OTG_DIEPINT_EPTDISD_FLAG);
 265              		.loc 1 231 9 view .LVU71
 266 005c 0222     		movs	r2, #2
 267 005e 2946     		mov	r1, r5
 268 0060 3846     		mov	r0, r7
ARM GAS  C:\Users\8bit\AppData\Local\Temp\cczLgybK.s 			page 10


 269 0062 FFF7FEFF 		bl	usb_ept_in_clear
 270              	.LVL25:
 271 0066 19E0     		b	.L16
 272              	.LVL26:
 273              	.L11:
 232:HW_Lib/AT32F435/USB/usb_drivers/src/usbd_int.c ****       }
 233:HW_Lib/AT32F435/USB/usb_drivers/src/usbd_int.c **** 
 234:HW_Lib/AT32F435/USB/usb_drivers/src/usbd_int.c ****       /* transmit fifo empty interrupt */
 235:HW_Lib/AT32F435/USB/usb_drivers/src/usbd_int.c ****       if(ept_int & USB_OTG_DIEPINT_TXFEMP_FLAG)
 236:HW_Lib/AT32F435/USB/usb_drivers/src/usbd_int.c ****       {
 237:HW_Lib/AT32F435/USB/usb_drivers/src/usbd_int.c ****         usb_write_empty_txfifo(udev, ept_num);
 238:HW_Lib/AT32F435/USB/usb_drivers/src/usbd_int.c ****       }
 239:HW_Lib/AT32F435/USB/usb_drivers/src/usbd_int.c ****     }
 240:HW_Lib/AT32F435/USB/usb_drivers/src/usbd_int.c ****     ept_num ++;
 274              		.loc 1 240 5 view .LVU72
 275              		.loc 1 240 13 is_stmt 0 view .LVU73
 276 0068 0135     		adds	r5, r5, #1
 277              	.LVL27:
 241:HW_Lib/AT32F435/USB/usb_drivers/src/usbd_int.c ****     intsts >>= 1;
 278              		.loc 1 241 5 is_stmt 1 view .LVU74
 279              		.loc 1 241 12 is_stmt 0 view .LVU75
 280 006a 6408     		lsrs	r4, r4, #1
 281              	.LVL28:
 282              	.L10:
 195:HW_Lib/AT32F435/USB/usb_drivers/src/usbd_int.c ****   {
 283              		.loc 1 195 8 is_stmt 1 view .LVU76
 284 006c F4B1     		cbz	r4, .L19
 197:HW_Lib/AT32F435/USB/usb_drivers/src/usbd_int.c ****     {
 285              		.loc 1 197 5 view .LVU77
 197:HW_Lib/AT32F435/USB/usb_drivers/src/usbd_int.c ****     {
 286              		.loc 1 197 7 is_stmt 0 view .LVU78
 287 006e 14F0010F 		tst	r4, #1
 288 0072 F9D0     		beq	.L11
 200:HW_Lib/AT32F435/USB/usb_drivers/src/usbd_int.c **** 
 289              		.loc 1 200 7 is_stmt 1 view .LVU79
 200:HW_Lib/AT32F435/USB/usb_drivers/src/usbd_int.c **** 
 290              		.loc 1 200 17 is_stmt 0 view .LVU80
 291 0074 2946     		mov	r1, r5
 292 0076 3846     		mov	r0, r7
 293 0078 FFF7FEFF 		bl	usb_ept_in_interrupt
 294              	.LVL29:
 295 007c 0646     		mov	r6, r0
 296              	.LVL30:
 203:HW_Lib/AT32F435/USB/usb_drivers/src/usbd_int.c ****       {
 297              		.loc 1 203 7 is_stmt 1 view .LVU81
 203:HW_Lib/AT32F435/USB/usb_drivers/src/usbd_int.c ****       {
 298              		.loc 1 203 9 is_stmt 0 view .LVU82
 299 007e 10F0010F 		tst	r0, #1
 300 0082 C7D1     		bne	.L20
 301              	.LVL31:
 302              	.L12:
 211:HW_Lib/AT32F435/USB/usb_drivers/src/usbd_int.c ****       {
 303              		.loc 1 211 7 is_stmt 1 view .LVU83
 211:HW_Lib/AT32F435/USB/usb_drivers/src/usbd_int.c ****       {
 304              		.loc 1 211 9 is_stmt 0 view .LVU84
 305 0084 16F0080F 		tst	r6, #8
 306 0088 D6D1     		bne	.L21
ARM GAS  C:\Users\8bit\AppData\Local\Temp\cczLgybK.s 			page 11


 307              	.L13:
 217:HW_Lib/AT32F435/USB/usb_drivers/src/usbd_int.c ****       {
 308              		.loc 1 217 7 is_stmt 1 view .LVU85
 217:HW_Lib/AT32F435/USB/usb_drivers/src/usbd_int.c ****       {
 309              		.loc 1 217 9 is_stmt 0 view .LVU86
 310 008a 16F0100F 		tst	r6, #16
 311 008e D9D1     		bne	.L22
 312              	.L14:
 223:HW_Lib/AT32F435/USB/usb_drivers/src/usbd_int.c ****       {
 313              		.loc 1 223 7 is_stmt 1 view .LVU87
 223:HW_Lib/AT32F435/USB/usb_drivers/src/usbd_int.c ****       {
 314              		.loc 1 223 9 is_stmt 0 view .LVU88
 315 0090 16F0400F 		tst	r6, #64
 316 0094 DCD1     		bne	.L23
 317              	.L15:
 229:HW_Lib/AT32F435/USB/usb_drivers/src/usbd_int.c ****       {
 318              		.loc 1 229 7 is_stmt 1 view .LVU89
 229:HW_Lib/AT32F435/USB/usb_drivers/src/usbd_int.c ****       {
 319              		.loc 1 229 9 is_stmt 0 view .LVU90
 320 0096 16F0020F 		tst	r6, #2
 321 009a DFD1     		bne	.L24
 322              	.L16:
 235:HW_Lib/AT32F435/USB/usb_drivers/src/usbd_int.c ****       {
 323              		.loc 1 235 7 is_stmt 1 view .LVU91
 235:HW_Lib/AT32F435/USB/usb_drivers/src/usbd_int.c ****       {
 324              		.loc 1 235 9 is_stmt 0 view .LVU92
 325 009c 16F0800F 		tst	r6, #128
 326 00a0 E2D0     		beq	.L11
 237:HW_Lib/AT32F435/USB/usb_drivers/src/usbd_int.c ****       }
 327              		.loc 1 237 9 is_stmt 1 view .LVU93
 328 00a2 2946     		mov	r1, r5
 329 00a4 4046     		mov	r0, r8
 330 00a6 FFF7FEFF 		bl	usb_write_empty_txfifo
 331              	.LVL32:
 332 00aa DDE7     		b	.L11
 333              	.LVL33:
 334              	.L19:
 242:HW_Lib/AT32F435/USB/usb_drivers/src/usbd_int.c ****   }
 243:HW_Lib/AT32F435/USB/usb_drivers/src/usbd_int.c **** }
 335              		.loc 1 243 1 is_stmt 0 view .LVU94
 336 00ac BDE8F081 		pop	{r4, r5, r6, r7, r8, pc}
 337              		.loc 1 243 1 view .LVU95
 338              		.cfi_endproc
 339              	.LFE138:
 341              		.section	.text.usbd_outept_handler,"ax",%progbits
 342              		.align	1
 343              		.global	usbd_outept_handler
 344              		.syntax unified
 345              		.thumb
 346              		.thumb_func
 348              	usbd_outept_handler:
 349              	.LVL34:
 350              	.LFB139:
 244:HW_Lib/AT32F435/USB/usb_drivers/src/usbd_int.c **** 
 245:HW_Lib/AT32F435/USB/usb_drivers/src/usbd_int.c **** /**
 246:HW_Lib/AT32F435/USB/usb_drivers/src/usbd_int.c ****   * @brief  usb out endpoint handler
 247:HW_Lib/AT32F435/USB/usb_drivers/src/usbd_int.c ****   * @param  udev: to the structure of usbd_core_type
ARM GAS  C:\Users\8bit\AppData\Local\Temp\cczLgybK.s 			page 12


 248:HW_Lib/AT32F435/USB/usb_drivers/src/usbd_int.c ****   * @retval none
 249:HW_Lib/AT32F435/USB/usb_drivers/src/usbd_int.c ****   */
 250:HW_Lib/AT32F435/USB/usb_drivers/src/usbd_int.c **** void usbd_outept_handler(usbd_core_type *udev)
 251:HW_Lib/AT32F435/USB/usb_drivers/src/usbd_int.c **** {
 351              		.loc 1 251 1 is_stmt 1 view -0
 352              		.cfi_startproc
 353              		@ args = 0, pretend = 0, frame = 0
 354              		@ frame_needed = 0, uses_anonymous_args = 0
 355              		.loc 1 251 1 is_stmt 0 view .LVU97
 356 0000 2DE9F041 		push	{r4, r5, r6, r7, r8, lr}
 357              	.LCFI2:
 358              		.cfi_def_cfa_offset 24
 359              		.cfi_offset 4, -24
 360              		.cfi_offset 5, -20
 361              		.cfi_offset 6, -16
 362              		.cfi_offset 7, -12
 363              		.cfi_offset 8, -8
 364              		.cfi_offset 14, -4
 365 0004 0746     		mov	r7, r0
 252:HW_Lib/AT32F435/USB/usb_drivers/src/usbd_int.c ****   otg_global_type *usbx = udev->usb_reg;
 366              		.loc 1 252 3 is_stmt 1 view .LVU98
 367              		.loc 1 252 20 is_stmt 0 view .LVU99
 368 0006 D0F80080 		ldr	r8, [r0]
 369              	.LVL35:
 253:HW_Lib/AT32F435/USB/usb_drivers/src/usbd_int.c ****   uint32_t ept_num = 0, ept_int;
 370              		.loc 1 253 3 is_stmt 1 view .LVU100
 254:HW_Lib/AT32F435/USB/usb_drivers/src/usbd_int.c ****   uint32_t intsts;
 371              		.loc 1 254 3 view .LVU101
 255:HW_Lib/AT32F435/USB/usb_drivers/src/usbd_int.c **** 
 256:HW_Lib/AT32F435/USB/usb_drivers/src/usbd_int.c ****   /* get all out endpoint interrupt */
 257:HW_Lib/AT32F435/USB/usb_drivers/src/usbd_int.c ****   intsts = usb_get_all_out_interrupt(usbx);
 372              		.loc 1 257 3 view .LVU102
 373              		.loc 1 257 12 is_stmt 0 view .LVU103
 374 000a 4046     		mov	r0, r8
 375              	.LVL36:
 376              		.loc 1 257 12 view .LVU104
 377 000c FFF7FEFF 		bl	usb_get_all_out_interrupt
 378              	.LVL37:
 379 0010 0446     		mov	r4, r0
 380              	.LVL38:
 258:HW_Lib/AT32F435/USB/usb_drivers/src/usbd_int.c **** 
 259:HW_Lib/AT32F435/USB/usb_drivers/src/usbd_int.c ****   while(intsts)
 381              		.loc 1 259 3 is_stmt 1 view .LVU105
 253:HW_Lib/AT32F435/USB/usb_drivers/src/usbd_int.c ****   uint32_t intsts;
 382              		.loc 1 253 12 is_stmt 0 view .LVU106
 383 0012 0025     		movs	r5, #0
 384              		.loc 1 259 8 view .LVU107
 385 0014 22E0     		b	.L26
 386              	.LVL39:
 387              	.L33:
 260:HW_Lib/AT32F435/USB/usb_drivers/src/usbd_int.c ****   {
 261:HW_Lib/AT32F435/USB/usb_drivers/src/usbd_int.c ****     if(intsts & 0x1)
 262:HW_Lib/AT32F435/USB/usb_drivers/src/usbd_int.c ****     {
 263:HW_Lib/AT32F435/USB/usb_drivers/src/usbd_int.c ****       /* get out endpoint interrupt */
 264:HW_Lib/AT32F435/USB/usb_drivers/src/usbd_int.c ****       ept_int = usb_ept_out_interrupt(usbx, ept_num);
 265:HW_Lib/AT32F435/USB/usb_drivers/src/usbd_int.c **** 
 266:HW_Lib/AT32F435/USB/usb_drivers/src/usbd_int.c ****       /* transfer completed interrupt */
ARM GAS  C:\Users\8bit\AppData\Local\Temp\cczLgybK.s 			page 13


 267:HW_Lib/AT32F435/USB/usb_drivers/src/usbd_int.c ****       if(ept_int & USB_OTG_DOEPINT_XFERC_FLAG)
 268:HW_Lib/AT32F435/USB/usb_drivers/src/usbd_int.c ****       {
 269:HW_Lib/AT32F435/USB/usb_drivers/src/usbd_int.c ****         usb_ept_out_clear(usbx, ept_num , USB_OTG_DOEPINT_XFERC_FLAG);
 388              		.loc 1 269 9 is_stmt 1 view .LVU108
 389 0016 0122     		movs	r2, #1
 390 0018 2946     		mov	r1, r5
 391 001a 4046     		mov	r0, r8
 392              	.LVL40:
 393              		.loc 1 269 9 is_stmt 0 view .LVU109
 394 001c FFF7FEFF 		bl	usb_ept_out_clear
 395              	.LVL41:
 270:HW_Lib/AT32F435/USB/usb_drivers/src/usbd_int.c ****         usbd_core_out_handler(udev, ept_num);
 396              		.loc 1 270 9 is_stmt 1 view .LVU110
 397 0020 E9B2     		uxtb	r1, r5
 398 0022 3846     		mov	r0, r7
 399 0024 FFF7FEFF 		bl	usbd_core_out_handler
 400              	.LVL42:
 401 0028 24E0     		b	.L28
 402              	.L34:
 271:HW_Lib/AT32F435/USB/usb_drivers/src/usbd_int.c ****       }
 272:HW_Lib/AT32F435/USB/usb_drivers/src/usbd_int.c **** 
 273:HW_Lib/AT32F435/USB/usb_drivers/src/usbd_int.c ****       /* setup phase done interrupt */
 274:HW_Lib/AT32F435/USB/usb_drivers/src/usbd_int.c ****       if(ept_int & USB_OTG_DOEPINT_SETUP_FLAG)
 275:HW_Lib/AT32F435/USB/usb_drivers/src/usbd_int.c ****       {
 276:HW_Lib/AT32F435/USB/usb_drivers/src/usbd_int.c ****         usb_ept_out_clear(usbx, ept_num , USB_OTG_DOEPINT_SETUP_FLAG);
 403              		.loc 1 276 9 view .LVU111
 404 002a 0822     		movs	r2, #8
 405 002c 2946     		mov	r1, r5
 406 002e 4046     		mov	r0, r8
 407 0030 FFF7FEFF 		bl	usb_ept_out_clear
 408              	.LVL43:
 277:HW_Lib/AT32F435/USB/usb_drivers/src/usbd_int.c ****         usbd_core_setup_handler(udev, ept_num);
 409              		.loc 1 277 9 view .LVU112
 410 0034 E9B2     		uxtb	r1, r5
 411 0036 3846     		mov	r0, r7
 412 0038 FFF7FEFF 		bl	usbd_core_setup_handler
 413              	.LVL44:
 278:HW_Lib/AT32F435/USB/usb_drivers/src/usbd_int.c ****         if(udev->device_addr != 0)
 414              		.loc 1 278 9 view .LVU113
 415              		.loc 1 278 16 is_stmt 0 view .LVU114
 416 003c 97F8E632 		ldrb	r3, [r7, #742]	@ zero_extendqisi2
 417              		.loc 1 278 11 view .LVU115
 418 0040 DBB1     		cbz	r3, .L29
 279:HW_Lib/AT32F435/USB/usb_drivers/src/usbd_int.c ****         {
 280:HW_Lib/AT32F435/USB/usb_drivers/src/usbd_int.c ****           OTG_DEVICE(udev->usb_reg)->dcfg_bit.devaddr = udev->device_addr;
 419              		.loc 1 280 11 is_stmt 1 view .LVU116
 420 0042 3A68     		ldr	r2, [r7]
 421              		.loc 1 280 55 is_stmt 0 view .LVU117
 422 0044 D2F80018 		ldr	r1, [r2, #2048]
 423 0048 63F30A11 		bfi	r1, r3, #4, #7
 424 004c C2F80018 		str	r1, [r2, #2048]
 281:HW_Lib/AT32F435/USB/usb_drivers/src/usbd_int.c ****           udev->device_addr = 0;
 425              		.loc 1 281 11 is_stmt 1 view .LVU118
 426              		.loc 1 281 29 is_stmt 0 view .LVU119
 427 0050 0023     		movs	r3, #0
 428 0052 87F8E632 		strb	r3, [r7, #742]
 429 0056 10E0     		b	.L29
ARM GAS  C:\Users\8bit\AppData\Local\Temp\cczLgybK.s 			page 14


 430              	.LVL45:
 431              	.L27:
 282:HW_Lib/AT32F435/USB/usb_drivers/src/usbd_int.c ****         }
 283:HW_Lib/AT32F435/USB/usb_drivers/src/usbd_int.c ****       }
 284:HW_Lib/AT32F435/USB/usb_drivers/src/usbd_int.c **** 
 285:HW_Lib/AT32F435/USB/usb_drivers/src/usbd_int.c ****       /* endpoint disable interrupt */
 286:HW_Lib/AT32F435/USB/usb_drivers/src/usbd_int.c ****       if(ept_int & USB_OTG_DOEPINT_OUTTEPD_FLAG)
 287:HW_Lib/AT32F435/USB/usb_drivers/src/usbd_int.c ****       {
 288:HW_Lib/AT32F435/USB/usb_drivers/src/usbd_int.c ****         usb_ept_out_clear(usbx, ept_num , USB_OTG_DOEPINT_OUTTEPD_FLAG);
 289:HW_Lib/AT32F435/USB/usb_drivers/src/usbd_int.c ****       }
 290:HW_Lib/AT32F435/USB/usb_drivers/src/usbd_int.c ****     }
 291:HW_Lib/AT32F435/USB/usb_drivers/src/usbd_int.c ****     ept_num ++;
 432              		.loc 1 291 5 is_stmt 1 view .LVU120
 433              		.loc 1 291 13 is_stmt 0 view .LVU121
 434 0058 0135     		adds	r5, r5, #1
 435              	.LVL46:
 292:HW_Lib/AT32F435/USB/usb_drivers/src/usbd_int.c ****     intsts >>= 1;
 436              		.loc 1 292 5 is_stmt 1 view .LVU122
 437              		.loc 1 292 12 is_stmt 0 view .LVU123
 438 005a 6408     		lsrs	r4, r4, #1
 439              	.LVL47:
 440              	.L26:
 259:HW_Lib/AT32F435/USB/usb_drivers/src/usbd_int.c ****   {
 441              		.loc 1 259 8 is_stmt 1 view .LVU124
 442 005c B4B1     		cbz	r4, .L32
 261:HW_Lib/AT32F435/USB/usb_drivers/src/usbd_int.c ****     {
 443              		.loc 1 261 5 view .LVU125
 261:HW_Lib/AT32F435/USB/usb_drivers/src/usbd_int.c ****     {
 444              		.loc 1 261 7 is_stmt 0 view .LVU126
 445 005e 14F0010F 		tst	r4, #1
 446 0062 F9D0     		beq	.L27
 264:HW_Lib/AT32F435/USB/usb_drivers/src/usbd_int.c **** 
 447              		.loc 1 264 7 is_stmt 1 view .LVU127
 264:HW_Lib/AT32F435/USB/usb_drivers/src/usbd_int.c **** 
 448              		.loc 1 264 17 is_stmt 0 view .LVU128
 449 0064 2946     		mov	r1, r5
 450 0066 4046     		mov	r0, r8
 451 0068 FFF7FEFF 		bl	usb_ept_out_interrupt
 452              	.LVL48:
 453 006c 0646     		mov	r6, r0
 454              	.LVL49:
 267:HW_Lib/AT32F435/USB/usb_drivers/src/usbd_int.c ****       {
 455              		.loc 1 267 7 is_stmt 1 view .LVU129
 267:HW_Lib/AT32F435/USB/usb_drivers/src/usbd_int.c ****       {
 456              		.loc 1 267 9 is_stmt 0 view .LVU130
 457 006e 10F0010F 		tst	r0, #1
 458 0072 D0D1     		bne	.L33
 459              	.LVL50:
 460              	.L28:
 274:HW_Lib/AT32F435/USB/usb_drivers/src/usbd_int.c ****       {
 461              		.loc 1 274 7 is_stmt 1 view .LVU131
 274:HW_Lib/AT32F435/USB/usb_drivers/src/usbd_int.c ****       {
 462              		.loc 1 274 9 is_stmt 0 view .LVU132
 463 0074 16F0080F 		tst	r6, #8
 464 0078 D7D1     		bne	.L34
 465              	.L29:
 286:HW_Lib/AT32F435/USB/usb_drivers/src/usbd_int.c ****       {
ARM GAS  C:\Users\8bit\AppData\Local\Temp\cczLgybK.s 			page 15


 466              		.loc 1 286 7 is_stmt 1 view .LVU133
 286:HW_Lib/AT32F435/USB/usb_drivers/src/usbd_int.c ****       {
 467              		.loc 1 286 9 is_stmt 0 view .LVU134
 468 007a 16F0100F 		tst	r6, #16
 469 007e EBD0     		beq	.L27
 288:HW_Lib/AT32F435/USB/usb_drivers/src/usbd_int.c ****       }
 470              		.loc 1 288 9 is_stmt 1 view .LVU135
 471 0080 1022     		movs	r2, #16
 472 0082 2946     		mov	r1, r5
 473 0084 4046     		mov	r0, r8
 474 0086 FFF7FEFF 		bl	usb_ept_out_clear
 475              	.LVL51:
 476 008a E5E7     		b	.L27
 477              	.LVL52:
 478              	.L32:
 293:HW_Lib/AT32F435/USB/usb_drivers/src/usbd_int.c ****   }
 294:HW_Lib/AT32F435/USB/usb_drivers/src/usbd_int.c **** }
 479              		.loc 1 294 1 is_stmt 0 view .LVU136
 480 008c BDE8F081 		pop	{r4, r5, r6, r7, r8, pc}
 481              		.loc 1 294 1 view .LVU137
 482              		.cfi_endproc
 483              	.LFE139:
 485              		.section	.text.usbd_enumdone_handler,"ax",%progbits
 486              		.align	1
 487              		.global	usbd_enumdone_handler
 488              		.syntax unified
 489              		.thumb
 490              		.thumb_func
 492              	usbd_enumdone_handler:
 493              	.LVL53:
 494              	.LFB140:
 295:HW_Lib/AT32F435/USB/usb_drivers/src/usbd_int.c **** 
 296:HW_Lib/AT32F435/USB/usb_drivers/src/usbd_int.c **** /**
 297:HW_Lib/AT32F435/USB/usb_drivers/src/usbd_int.c ****   * @brief  usb enumeration done handler
 298:HW_Lib/AT32F435/USB/usb_drivers/src/usbd_int.c ****   * @param  udev: to the structure of usbd_core_type
 299:HW_Lib/AT32F435/USB/usb_drivers/src/usbd_int.c ****   * @retval none
 300:HW_Lib/AT32F435/USB/usb_drivers/src/usbd_int.c ****   */
 301:HW_Lib/AT32F435/USB/usb_drivers/src/usbd_int.c **** void usbd_enumdone_handler(usbd_core_type *udev)
 302:HW_Lib/AT32F435/USB/usb_drivers/src/usbd_int.c **** {
 495              		.loc 1 302 1 is_stmt 1 view -0
 496              		.cfi_startproc
 497              		@ args = 0, pretend = 0, frame = 0
 498              		@ frame_needed = 0, uses_anonymous_args = 0
 499              		.loc 1 302 1 is_stmt 0 view .LVU139
 500 0000 38B5     		push	{r3, r4, r5, lr}
 501              	.LCFI3:
 502              		.cfi_def_cfa_offset 16
 503              		.cfi_offset 3, -16
 504              		.cfi_offset 4, -12
 505              		.cfi_offset 5, -8
 506              		.cfi_offset 14, -4
 507 0002 0446     		mov	r4, r0
 303:HW_Lib/AT32F435/USB/usb_drivers/src/usbd_int.c ****   otg_global_type *usbx = udev->usb_reg;
 508              		.loc 1 303 3 is_stmt 1 view .LVU140
 509              		.loc 1 303 20 is_stmt 0 view .LVU141
 510 0004 0568     		ldr	r5, [r0]
 511              	.LVL54:
ARM GAS  C:\Users\8bit\AppData\Local\Temp\cczLgybK.s 			page 16


 304:HW_Lib/AT32F435/USB/usb_drivers/src/usbd_int.c **** 
 305:HW_Lib/AT32F435/USB/usb_drivers/src/usbd_int.c ****   usb_ept0_setup(usbx);
 512              		.loc 1 305 3 is_stmt 1 view .LVU142
 513 0006 2846     		mov	r0, r5
 514              	.LVL55:
 515              		.loc 1 305 3 is_stmt 0 view .LVU143
 516 0008 FFF7FEFF 		bl	usb_ept0_setup
 517              	.LVL56:
 306:HW_Lib/AT32F435/USB/usb_drivers/src/usbd_int.c **** 
 307:HW_Lib/AT32F435/USB/usb_drivers/src/usbd_int.c ****   usbx->gusbcfg_bit.usbtrdtim = USB_TRDTIM_16;
 518              		.loc 1 307 3 is_stmt 1 view .LVU144
 519              		.loc 1 307 31 is_stmt 0 view .LVU145
 520 000c EB68     		ldr	r3, [r5, #12]
 521 000e 0522     		movs	r2, #5
 522 0010 62F38D23 		bfi	r3, r2, #10, #4
 523 0014 EB60     		str	r3, [r5, #12]
 308:HW_Lib/AT32F435/USB/usb_drivers/src/usbd_int.c **** 
 309:HW_Lib/AT32F435/USB/usb_drivers/src/usbd_int.c ****   /* open endpoint 0 out */
 310:HW_Lib/AT32F435/USB/usb_drivers/src/usbd_int.c ****   usbd_ept_open(udev, 0x00, EPT_CONTROL_TYPE, 0x40);
 524              		.loc 1 310 3 is_stmt 1 view .LVU146
 525 0016 4023     		movs	r3, #64
 526 0018 0022     		movs	r2, #0
 527 001a 1146     		mov	r1, r2
 528 001c 2046     		mov	r0, r4
 529 001e FFF7FEFF 		bl	usbd_ept_open
 530              	.LVL57:
 311:HW_Lib/AT32F435/USB/usb_drivers/src/usbd_int.c **** 
 312:HW_Lib/AT32F435/USB/usb_drivers/src/usbd_int.c ****   /* open endpoint 0 in */
 313:HW_Lib/AT32F435/USB/usb_drivers/src/usbd_int.c ****   usbd_ept_open(udev, 0x80, EPT_CONTROL_TYPE, 0x40);
 531              		.loc 1 313 3 view .LVU147
 532 0022 4023     		movs	r3, #64
 533 0024 0022     		movs	r2, #0
 534 0026 8021     		movs	r1, #128
 535 0028 2046     		mov	r0, r4
 536 002a FFF7FEFF 		bl	usbd_ept_open
 537              	.LVL58:
 314:HW_Lib/AT32F435/USB/usb_drivers/src/usbd_int.c **** 
 315:HW_Lib/AT32F435/USB/usb_drivers/src/usbd_int.c ****   /* usb connect state set to default */
 316:HW_Lib/AT32F435/USB/usb_drivers/src/usbd_int.c ****   udev->conn_state = USB_CONN_STATE_DEFAULT;
 538              		.loc 1 316 3 view .LVU148
 539              		.loc 1 316 20 is_stmt 0 view .LVU149
 540 002e 0123     		movs	r3, #1
 541 0030 84F8E432 		strb	r3, [r4, #740]
 317:HW_Lib/AT32F435/USB/usb_drivers/src/usbd_int.c **** 
 318:HW_Lib/AT32F435/USB/usb_drivers/src/usbd_int.c ****   /* clear callback */
 319:HW_Lib/AT32F435/USB/usb_drivers/src/usbd_int.c ****   if(udev->class_handler->clear_handler != 0)
 542              		.loc 1 319 3 is_stmt 1 view .LVU150
 543              		.loc 1 319 10 is_stmt 0 view .LVU151
 544 0034 6368     		ldr	r3, [r4, #4]
 545              		.loc 1 319 25 view .LVU152
 546 0036 5B68     		ldr	r3, [r3, #4]
 547              		.loc 1 319 5 view .LVU153
 548 0038 0BB1     		cbz	r3, .L35
 320:HW_Lib/AT32F435/USB/usb_drivers/src/usbd_int.c ****     udev->class_handler->clear_handler(udev);
 549              		.loc 1 320 5 is_stmt 1 view .LVU154
 550 003a 2046     		mov	r0, r4
 551 003c 9847     		blx	r3
ARM GAS  C:\Users\8bit\AppData\Local\Temp\cczLgybK.s 			page 17


 552              	.LVL59:
 553              	.L35:
 321:HW_Lib/AT32F435/USB/usb_drivers/src/usbd_int.c **** }
 554              		.loc 1 321 1 is_stmt 0 view .LVU155
 555 003e 38BD     		pop	{r3, r4, r5, pc}
 556              		.loc 1 321 1 view .LVU156
 557              		.cfi_endproc
 558              	.LFE140:
 560              		.section	.text.usbd_rxflvl_handler,"ax",%progbits
 561              		.align	1
 562              		.global	usbd_rxflvl_handler
 563              		.syntax unified
 564              		.thumb
 565              		.thumb_func
 567              	usbd_rxflvl_handler:
 568              	.LVL60:
 569              	.LFB141:
 322:HW_Lib/AT32F435/USB/usb_drivers/src/usbd_int.c **** 
 323:HW_Lib/AT32F435/USB/usb_drivers/src/usbd_int.c **** /**
 324:HW_Lib/AT32F435/USB/usb_drivers/src/usbd_int.c ****   * @brief  usb rx non-empty handler
 325:HW_Lib/AT32F435/USB/usb_drivers/src/usbd_int.c ****   * @param  udev: to the structure of usbd_core_type
 326:HW_Lib/AT32F435/USB/usb_drivers/src/usbd_int.c ****   * @retval none
 327:HW_Lib/AT32F435/USB/usb_drivers/src/usbd_int.c ****   */
 328:HW_Lib/AT32F435/USB/usb_drivers/src/usbd_int.c **** void usbd_rxflvl_handler(usbd_core_type *udev)
 329:HW_Lib/AT32F435/USB/usb_drivers/src/usbd_int.c **** {
 570              		.loc 1 329 1 is_stmt 1 view -0
 571              		.cfi_startproc
 572              		@ args = 0, pretend = 0, frame = 0
 573              		@ frame_needed = 0, uses_anonymous_args = 0
 574              		.loc 1 329 1 is_stmt 0 view .LVU158
 575 0000 F8B5     		push	{r3, r4, r5, r6, r7, lr}
 576              	.LCFI4:
 577              		.cfi_def_cfa_offset 24
 578              		.cfi_offset 3, -24
 579              		.cfi_offset 4, -20
 580              		.cfi_offset 5, -16
 581              		.cfi_offset 6, -12
 582              		.cfi_offset 7, -8
 583              		.cfi_offset 14, -4
 584 0002 0446     		mov	r4, r0
 330:HW_Lib/AT32F435/USB/usb_drivers/src/usbd_int.c ****   otg_global_type *usbx = udev->usb_reg;
 585              		.loc 1 330 3 is_stmt 1 view .LVU159
 586              		.loc 1 330 20 is_stmt 0 view .LVU160
 587 0004 0568     		ldr	r5, [r0]
 588              	.LVL61:
 331:HW_Lib/AT32F435/USB/usb_drivers/src/usbd_int.c ****   uint32_t stsp;
 589              		.loc 1 331 3 is_stmt 1 view .LVU161
 332:HW_Lib/AT32F435/USB/usb_drivers/src/usbd_int.c ****   uint32_t count;
 590              		.loc 1 332 3 view .LVU162
 333:HW_Lib/AT32F435/USB/usb_drivers/src/usbd_int.c ****   uint32_t pktsts;
 591              		.loc 1 333 3 view .LVU163
 334:HW_Lib/AT32F435/USB/usb_drivers/src/usbd_int.c ****   usb_ept_info *ept_info;
 592              		.loc 1 334 3 view .LVU164
 335:HW_Lib/AT32F435/USB/usb_drivers/src/usbd_int.c **** 
 336:HW_Lib/AT32F435/USB/usb_drivers/src/usbd_int.c ****   /* disable rxflvl interrupt */
 337:HW_Lib/AT32F435/USB/usb_drivers/src/usbd_int.c ****   usb_global_interrupt_enable(usbx, USB_OTG_RXFLVL_INT, FALSE);
 593              		.loc 1 337 3 view .LVU165
ARM GAS  C:\Users\8bit\AppData\Local\Temp\cczLgybK.s 			page 18


 594 0006 0022     		movs	r2, #0
 595 0008 1021     		movs	r1, #16
 596 000a 2846     		mov	r0, r5
 597              	.LVL62:
 598              		.loc 1 337 3 is_stmt 0 view .LVU166
 599 000c FFF7FEFF 		bl	usb_global_interrupt_enable
 600              	.LVL63:
 338:HW_Lib/AT32F435/USB/usb_drivers/src/usbd_int.c **** 
 339:HW_Lib/AT32F435/USB/usb_drivers/src/usbd_int.c ****   /* get rx status */
 340:HW_Lib/AT32F435/USB/usb_drivers/src/usbd_int.c ****   stsp = usbx->grxstsp;
 601              		.loc 1 340 3 is_stmt 1 view .LVU167
 602              		.loc 1 340 8 is_stmt 0 view .LVU168
 603 0010 2A6A     		ldr	r2, [r5, #32]
 604              	.LVL64:
 341:HW_Lib/AT32F435/USB/usb_drivers/src/usbd_int.c **** 
 342:HW_Lib/AT32F435/USB/usb_drivers/src/usbd_int.c ****   /*get the byte count of receive */
 343:HW_Lib/AT32F435/USB/usb_drivers/src/usbd_int.c ****   count = (stsp & USB_OTG_GRXSTSP_BCNT) >> 4;
 605              		.loc 1 343 3 is_stmt 1 view .LVU169
 606              		.loc 1 343 9 is_stmt 0 view .LVU170
 607 0012 C2F30A16 		ubfx	r6, r2, #4, #11
 608              	.LVL65:
 344:HW_Lib/AT32F435/USB/usb_drivers/src/usbd_int.c **** 
 345:HW_Lib/AT32F435/USB/usb_drivers/src/usbd_int.c ****   /* get packet status */
 346:HW_Lib/AT32F435/USB/usb_drivers/src/usbd_int.c ****   pktsts = (stsp &USB_OTG_GRXSTSP_PKTSTS) >> 17;
 609              		.loc 1 346 3 is_stmt 1 view .LVU171
 610              		.loc 1 346 10 is_stmt 0 view .LVU172
 611 0016 C2F34343 		ubfx	r3, r2, #17, #4
 612              	.LVL66:
 347:HW_Lib/AT32F435/USB/usb_drivers/src/usbd_int.c **** 
 348:HW_Lib/AT32F435/USB/usb_drivers/src/usbd_int.c ****   /* get endpoint infomation struct */
 349:HW_Lib/AT32F435/USB/usb_drivers/src/usbd_int.c ****   ept_info = &udev->ept_out[stsp & USB_OTG_GRXSTSP_EPTNUM];
 613              		.loc 1 349 3 is_stmt 1 view .LVU173
 614              		.loc 1 349 34 is_stmt 0 view .LVU174
 615 001a 02F00F07 		and	r7, r2, #15
 616              	.LVL67:
 350:HW_Lib/AT32F435/USB/usb_drivers/src/usbd_int.c **** 
 351:HW_Lib/AT32F435/USB/usb_drivers/src/usbd_int.c ****   /* received out data packet */
 352:HW_Lib/AT32F435/USB/usb_drivers/src/usbd_int.c ****   if(pktsts == USB_OUT_STS_DATA)
 617              		.loc 1 352 3 is_stmt 1 view .LVU175
 618              		.loc 1 352 5 is_stmt 0 view .LVU176
 619 001e 022B     		cmp	r3, #2
 620 0020 07D0     		beq	.L42
 353:HW_Lib/AT32F435/USB/usb_drivers/src/usbd_int.c ****   {
 354:HW_Lib/AT32F435/USB/usb_drivers/src/usbd_int.c ****     if(count != 0)
 355:HW_Lib/AT32F435/USB/usb_drivers/src/usbd_int.c ****     {
 356:HW_Lib/AT32F435/USB/usb_drivers/src/usbd_int.c ****       /* read packet to buffer */
 357:HW_Lib/AT32F435/USB/usb_drivers/src/usbd_int.c ****       usb_read_packet(usbx, ept_info->trans_buf, (stsp & USB_OTG_GRXSTSP_EPTNUM), count);
 358:HW_Lib/AT32F435/USB/usb_drivers/src/usbd_int.c ****       ept_info->trans_buf += count;
 359:HW_Lib/AT32F435/USB/usb_drivers/src/usbd_int.c ****       ept_info->trans_len += count;
 360:HW_Lib/AT32F435/USB/usb_drivers/src/usbd_int.c **** 
 361:HW_Lib/AT32F435/USB/usb_drivers/src/usbd_int.c ****     }
 362:HW_Lib/AT32F435/USB/usb_drivers/src/usbd_int.c ****   }
 363:HW_Lib/AT32F435/USB/usb_drivers/src/usbd_int.c ****   /* setup data received */
 364:HW_Lib/AT32F435/USB/usb_drivers/src/usbd_int.c ****   else if ( pktsts == USB_SETUP_STS_DATA)
 621              		.loc 1 364 8 is_stmt 1 view .LVU177
 622              		.loc 1 364 11 is_stmt 0 view .LVU178
 623 0022 062B     		cmp	r3, #6
ARM GAS  C:\Users\8bit\AppData\Local\Temp\cczLgybK.s 			page 19


 624 0024 1CD0     		beq	.L43
 625              	.LVL68:
 626              	.L40:
 365:HW_Lib/AT32F435/USB/usb_drivers/src/usbd_int.c ****   {
 366:HW_Lib/AT32F435/USB/usb_drivers/src/usbd_int.c ****     /* read packet to buffer */
 367:HW_Lib/AT32F435/USB/usb_drivers/src/usbd_int.c ****     usb_read_packet(usbx, udev->setup_buffer, (stsp & USB_OTG_GRXSTSP_EPTNUM), count);
 368:HW_Lib/AT32F435/USB/usb_drivers/src/usbd_int.c ****     ept_info->trans_len += count;
 369:HW_Lib/AT32F435/USB/usb_drivers/src/usbd_int.c ****   }
 370:HW_Lib/AT32F435/USB/usb_drivers/src/usbd_int.c **** 
 371:HW_Lib/AT32F435/USB/usb_drivers/src/usbd_int.c ****   /* enable rxflvl interrupt */
 372:HW_Lib/AT32F435/USB/usb_drivers/src/usbd_int.c ****   usb_global_interrupt_enable(usbx, USB_OTG_RXFLVL_INT, TRUE);
 627              		.loc 1 372 3 is_stmt 1 view .LVU179
 628 0026 0122     		movs	r2, #1
 629 0028 1021     		movs	r1, #16
 630 002a 2846     		mov	r0, r5
 631 002c FFF7FEFF 		bl	usb_global_interrupt_enable
 632              	.LVL69:
 373:HW_Lib/AT32F435/USB/usb_drivers/src/usbd_int.c **** 
 374:HW_Lib/AT32F435/USB/usb_drivers/src/usbd_int.c **** }
 633              		.loc 1 374 1 is_stmt 0 view .LVU180
 634 0030 F8BD     		pop	{r3, r4, r5, r6, r7, pc}
 635              	.LVL70:
 636              	.L42:
 354:HW_Lib/AT32F435/USB/usb_drivers/src/usbd_int.c ****     {
 637              		.loc 1 354 5 is_stmt 1 view .LVU181
 354:HW_Lib/AT32F435/USB/usb_drivers/src/usbd_int.c ****     {
 638              		.loc 1 354 7 is_stmt 0 view .LVU182
 639 0032 002E     		cmp	r6, #0
 640 0034 F7D0     		beq	.L40
 357:HW_Lib/AT32F435/USB/usb_drivers/src/usbd_int.c ****       ept_info->trans_buf += count;
 641              		.loc 1 357 7 is_stmt 1 view .LVU183
 642 0036 2C20     		movs	r0, #44
 643 0038 00FB0744 		mla	r4, r0, r7, r4
 644              	.LVL71:
 357:HW_Lib/AT32F435/USB/usb_drivers/src/usbd_int.c ****       ept_info->trans_buf += count;
 645              		.loc 1 357 7 is_stmt 0 view .LVU184
 646 003c 3346     		mov	r3, r6
 647              	.LVL72:
 357:HW_Lib/AT32F435/USB/usb_drivers/src/usbd_int.c ****       ept_info->trans_buf += count;
 648              		.loc 1 357 7 view .LVU185
 649 003e 3A46     		mov	r2, r7
 650              	.LVL73:
 357:HW_Lib/AT32F435/USB/usb_drivers/src/usbd_int.c ****       ept_info->trans_buf += count;
 651              		.loc 1 357 7 view .LVU186
 652 0040 D4F88011 		ldr	r1, [r4, #384]
 653 0044 2846     		mov	r0, r5
 654 0046 FFF7FEFF 		bl	usb_read_packet
 655              	.LVL74:
 358:HW_Lib/AT32F435/USB/usb_drivers/src/usbd_int.c ****       ept_info->trans_len += count;
 656              		.loc 1 358 7 is_stmt 1 view .LVU187
 358:HW_Lib/AT32F435/USB/usb_drivers/src/usbd_int.c ****       ept_info->trans_len += count;
 657              		.loc 1 358 27 is_stmt 0 view .LVU188
 658 004a D4F88031 		ldr	r3, [r4, #384]
 659 004e 3344     		add	r3, r3, r6
 660 0050 C4F88031 		str	r3, [r4, #384]
 359:HW_Lib/AT32F435/USB/usb_drivers/src/usbd_int.c **** 
 661              		.loc 1 359 7 is_stmt 1 view .LVU189
ARM GAS  C:\Users\8bit\AppData\Local\Temp\cczLgybK.s 			page 20


 359:HW_Lib/AT32F435/USB/usb_drivers/src/usbd_int.c **** 
 662              		.loc 1 359 27 is_stmt 0 view .LVU190
 663 0054 D4F88831 		ldr	r3, [r4, #392]
 664 0058 3344     		add	r3, r3, r6
 665 005a C4F88831 		str	r3, [r4, #392]
 666 005e E2E7     		b	.L40
 667              	.LVL75:
 668              	.L43:
 367:HW_Lib/AT32F435/USB/usb_drivers/src/usbd_int.c ****     ept_info->trans_len += count;
 669              		.loc 1 367 5 is_stmt 1 view .LVU191
 670 0060 3346     		mov	r3, r6
 671              	.LVL76:
 367:HW_Lib/AT32F435/USB/usb_drivers/src/usbd_int.c ****     ept_info->trans_len += count;
 672              		.loc 1 367 5 is_stmt 0 view .LVU192
 673 0062 02F00F02 		and	r2, r2, #15
 674              	.LVL77:
 367:HW_Lib/AT32F435/USB/usb_drivers/src/usbd_int.c ****     ept_info->trans_len += count;
 675              		.loc 1 367 5 view .LVU193
 676 0066 04F53571 		add	r1, r4, #724
 677 006a 2846     		mov	r0, r5
 678 006c FFF7FEFF 		bl	usb_read_packet
 679              	.LVL78:
 368:HW_Lib/AT32F435/USB/usb_drivers/src/usbd_int.c ****   }
 680              		.loc 1 368 5 is_stmt 1 view .LVU194
 368:HW_Lib/AT32F435/USB/usb_drivers/src/usbd_int.c ****   }
 681              		.loc 1 368 25 is_stmt 0 view .LVU195
 682 0070 2C20     		movs	r0, #44
 683 0072 00FB0744 		mla	r4, r0, r7, r4
 684              	.LVL79:
 368:HW_Lib/AT32F435/USB/usb_drivers/src/usbd_int.c ****   }
 685              		.loc 1 368 25 view .LVU196
 686 0076 D4F88831 		ldr	r3, [r4, #392]
 687 007a 3344     		add	r3, r3, r6
 688 007c C4F88831 		str	r3, [r4, #392]
 689 0080 D1E7     		b	.L40
 690              		.cfi_endproc
 691              	.LFE141:
 693              		.section	.text.usbd_discon_handler,"ax",%progbits
 694              		.align	1
 695              		.global	usbd_discon_handler
 696              		.syntax unified
 697              		.thumb
 698              		.thumb_func
 700              	usbd_discon_handler:
 701              	.LVL80:
 702              	.LFB142:
 375:HW_Lib/AT32F435/USB/usb_drivers/src/usbd_int.c **** 
 376:HW_Lib/AT32F435/USB/usb_drivers/src/usbd_int.c **** /**
 377:HW_Lib/AT32F435/USB/usb_drivers/src/usbd_int.c ****   * @brief  usb disconnect handler
 378:HW_Lib/AT32F435/USB/usb_drivers/src/usbd_int.c ****   * @param  udev: to the structure of usbd_core_type
 379:HW_Lib/AT32F435/USB/usb_drivers/src/usbd_int.c ****   * @retval none
 380:HW_Lib/AT32F435/USB/usb_drivers/src/usbd_int.c ****   */
 381:HW_Lib/AT32F435/USB/usb_drivers/src/usbd_int.c **** void usbd_discon_handler(usbd_core_type *udev)
 382:HW_Lib/AT32F435/USB/usb_drivers/src/usbd_int.c **** {
 703              		.loc 1 382 1 is_stmt 1 view -0
 704              		.cfi_startproc
 705              		@ args = 0, pretend = 0, frame = 0
ARM GAS  C:\Users\8bit\AppData\Local\Temp\cczLgybK.s 			page 21


 706              		@ frame_needed = 0, uses_anonymous_args = 0
 707              		.loc 1 382 1 is_stmt 0 view .LVU198
 708 0000 08B5     		push	{r3, lr}
 709              	.LCFI5:
 710              		.cfi_def_cfa_offset 8
 711              		.cfi_offset 3, -8
 712              		.cfi_offset 14, -4
 383:HW_Lib/AT32F435/USB/usb_drivers/src/usbd_int.c ****   /* disconnect callback handler */
 384:HW_Lib/AT32F435/USB/usb_drivers/src/usbd_int.c ****   if(udev->class_handler->event_handler != 0)
 713              		.loc 1 384 3 is_stmt 1 view .LVU199
 714              		.loc 1 384 10 is_stmt 0 view .LVU200
 715 0002 4368     		ldr	r3, [r0, #4]
 716              		.loc 1 384 25 view .LVU201
 717 0004 1B6A     		ldr	r3, [r3, #32]
 718              		.loc 1 384 5 view .LVU202
 719 0006 0BB1     		cbz	r3, .L44
 385:HW_Lib/AT32F435/USB/usb_drivers/src/usbd_int.c ****     udev->class_handler->event_handler(udev, USBD_DISCONNECT_EVNET);
 720              		.loc 1 385 5 is_stmt 1 view .LVU203
 721 0008 0421     		movs	r1, #4
 722 000a 9847     		blx	r3
 723              	.LVL81:
 724              	.L44:
 386:HW_Lib/AT32F435/USB/usb_drivers/src/usbd_int.c **** }
 725              		.loc 1 386 1 is_stmt 0 view .LVU204
 726 000c 08BD     		pop	{r3, pc}
 727              		.cfi_endproc
 728              	.LFE142:
 730              		.section	.text.usbd_incomisoout_handler,"ax",%progbits
 731              		.align	1
 732              		.global	usbd_incomisoout_handler
 733              		.syntax unified
 734              		.thumb
 735              		.thumb_func
 737              	usbd_incomisoout_handler:
 738              	.LVL82:
 739              	.LFB143:
 387:HW_Lib/AT32F435/USB/usb_drivers/src/usbd_int.c **** 
 388:HW_Lib/AT32F435/USB/usb_drivers/src/usbd_int.c **** 
 389:HW_Lib/AT32F435/USB/usb_drivers/src/usbd_int.c **** /**
 390:HW_Lib/AT32F435/USB/usb_drivers/src/usbd_int.c ****   * @brief  usb incomplete out handler
 391:HW_Lib/AT32F435/USB/usb_drivers/src/usbd_int.c ****   * @param  udev: to the structure of usbd_core_type
 392:HW_Lib/AT32F435/USB/usb_drivers/src/usbd_int.c ****   * @retval none
 393:HW_Lib/AT32F435/USB/usb_drivers/src/usbd_int.c ****   */
 394:HW_Lib/AT32F435/USB/usb_drivers/src/usbd_int.c **** void usbd_incomisoout_handler(usbd_core_type *udev)
 395:HW_Lib/AT32F435/USB/usb_drivers/src/usbd_int.c **** {
 740              		.loc 1 395 1 is_stmt 1 view -0
 741              		.cfi_startproc
 742              		@ args = 0, pretend = 0, frame = 0
 743              		@ frame_needed = 0, uses_anonymous_args = 0
 744              		.loc 1 395 1 is_stmt 0 view .LVU206
 745 0000 08B5     		push	{r3, lr}
 746              	.LCFI6:
 747              		.cfi_def_cfa_offset 8
 748              		.cfi_offset 3, -8
 749              		.cfi_offset 14, -4
 396:HW_Lib/AT32F435/USB/usb_drivers/src/usbd_int.c ****     if(udev->class_handler->event_handler != 0)
 750              		.loc 1 396 5 is_stmt 1 view .LVU207
ARM GAS  C:\Users\8bit\AppData\Local\Temp\cczLgybK.s 			page 22


 751              		.loc 1 396 12 is_stmt 0 view .LVU208
 752 0002 4368     		ldr	r3, [r0, #4]
 753              		.loc 1 396 27 view .LVU209
 754 0004 1B6A     		ldr	r3, [r3, #32]
 755              		.loc 1 396 7 view .LVU210
 756 0006 0BB1     		cbz	r3, .L47
 397:HW_Lib/AT32F435/USB/usb_drivers/src/usbd_int.c ****       udev->class_handler->event_handler(udev, USBD_OUTISOINCOM_EVENT);
 757              		.loc 1 397 7 is_stmt 1 view .LVU211
 758 0008 0621     		movs	r1, #6
 759 000a 9847     		blx	r3
 760              	.LVL83:
 761              	.L47:
 398:HW_Lib/AT32F435/USB/usb_drivers/src/usbd_int.c **** }
 762              		.loc 1 398 1 is_stmt 0 view .LVU212
 763 000c 08BD     		pop	{r3, pc}
 764              		.cfi_endproc
 765              	.LFE143:
 767              		.section	.text.usbd_incomisioin_handler,"ax",%progbits
 768              		.align	1
 769              		.global	usbd_incomisioin_handler
 770              		.syntax unified
 771              		.thumb
 772              		.thumb_func
 774              	usbd_incomisioin_handler:
 775              	.LVL84:
 776              	.LFB144:
 399:HW_Lib/AT32F435/USB/usb_drivers/src/usbd_int.c **** 
 400:HW_Lib/AT32F435/USB/usb_drivers/src/usbd_int.c **** /**
 401:HW_Lib/AT32F435/USB/usb_drivers/src/usbd_int.c ****   * @brief  usb incomplete in handler
 402:HW_Lib/AT32F435/USB/usb_drivers/src/usbd_int.c ****   * @param  udev: to the structure of usbd_core_type
 403:HW_Lib/AT32F435/USB/usb_drivers/src/usbd_int.c ****   * @retval none
 404:HW_Lib/AT32F435/USB/usb_drivers/src/usbd_int.c ****   */
 405:HW_Lib/AT32F435/USB/usb_drivers/src/usbd_int.c **** void usbd_incomisioin_handler(usbd_core_type *udev)
 406:HW_Lib/AT32F435/USB/usb_drivers/src/usbd_int.c **** {
 777              		.loc 1 406 1 is_stmt 1 view -0
 778              		.cfi_startproc
 779              		@ args = 0, pretend = 0, frame = 0
 780              		@ frame_needed = 0, uses_anonymous_args = 0
 781              		.loc 1 406 1 is_stmt 0 view .LVU214
 782 0000 08B5     		push	{r3, lr}
 783              	.LCFI7:
 784              		.cfi_def_cfa_offset 8
 785              		.cfi_offset 3, -8
 786              		.cfi_offset 14, -4
 407:HW_Lib/AT32F435/USB/usb_drivers/src/usbd_int.c ****   if(udev->class_handler->event_handler != 0)
 787              		.loc 1 407 3 is_stmt 1 view .LVU215
 788              		.loc 1 407 10 is_stmt 0 view .LVU216
 789 0002 4368     		ldr	r3, [r0, #4]
 790              		.loc 1 407 25 view .LVU217
 791 0004 1B6A     		ldr	r3, [r3, #32]
 792              		.loc 1 407 5 view .LVU218
 793 0006 0BB1     		cbz	r3, .L50
 408:HW_Lib/AT32F435/USB/usb_drivers/src/usbd_int.c ****     udev->class_handler->event_handler(udev, USBD_INISOINCOM_EVENT);
 794              		.loc 1 408 5 is_stmt 1 view .LVU219
 795 0008 0521     		movs	r1, #5
 796 000a 9847     		blx	r3
 797              	.LVL85:
ARM GAS  C:\Users\8bit\AppData\Local\Temp\cczLgybK.s 			page 23


 798              	.L50:
 409:HW_Lib/AT32F435/USB/usb_drivers/src/usbd_int.c **** }
 799              		.loc 1 409 1 is_stmt 0 view .LVU220
 800 000c 08BD     		pop	{r3, pc}
 801              		.cfi_endproc
 802              	.LFE144:
 804              		.section	.text.usbd_reset_handler,"ax",%progbits
 805              		.align	1
 806              		.global	usbd_reset_handler
 807              		.syntax unified
 808              		.thumb
 809              		.thumb_func
 811              	usbd_reset_handler:
 812              	.LVL86:
 813              	.LFB145:
 410:HW_Lib/AT32F435/USB/usb_drivers/src/usbd_int.c **** 
 411:HW_Lib/AT32F435/USB/usb_drivers/src/usbd_int.c **** /**
 412:HW_Lib/AT32F435/USB/usb_drivers/src/usbd_int.c ****   * @brief  usb device reset interrupt request handler.
 413:HW_Lib/AT32F435/USB/usb_drivers/src/usbd_int.c ****   * @param  udev: to the structure of usbd_core_type
 414:HW_Lib/AT32F435/USB/usb_drivers/src/usbd_int.c ****   * @retval none
 415:HW_Lib/AT32F435/USB/usb_drivers/src/usbd_int.c ****   */
 416:HW_Lib/AT32F435/USB/usb_drivers/src/usbd_int.c **** void usbd_reset_handler(usbd_core_type *udev)
 417:HW_Lib/AT32F435/USB/usb_drivers/src/usbd_int.c **** {
 814              		.loc 1 417 1 is_stmt 1 view -0
 815              		.cfi_startproc
 816              		@ args = 0, pretend = 0, frame = 0
 817              		@ frame_needed = 0, uses_anonymous_args = 0
 818              		.loc 1 417 1 is_stmt 0 view .LVU222
 819 0000 70B5     		push	{r4, r5, r6, lr}
 820              	.LCFI8:
 821              		.cfi_def_cfa_offset 16
 822              		.cfi_offset 4, -16
 823              		.cfi_offset 5, -12
 824              		.cfi_offset 6, -8
 825              		.cfi_offset 14, -4
 826 0002 0646     		mov	r6, r0
 418:HW_Lib/AT32F435/USB/usb_drivers/src/usbd_int.c ****   otg_global_type *usbx = udev->usb_reg;
 827              		.loc 1 418 3 is_stmt 1 view .LVU223
 828              		.loc 1 418 20 is_stmt 0 view .LVU224
 829 0004 0568     		ldr	r5, [r0]
 830              	.LVL87:
 419:HW_Lib/AT32F435/USB/usb_drivers/src/usbd_int.c ****   otg_device_type *dev = OTG_DEVICE(usbx);
 831              		.loc 1 419 3 is_stmt 1 view .LVU225
 832              		.loc 1 419 26 is_stmt 0 view .LVU226
 833 0006 05F50064 		add	r4, r5, #2048
 834              	.LVL88:
 420:HW_Lib/AT32F435/USB/usb_drivers/src/usbd_int.c ****   uint32_t i_index = 0;
 835              		.loc 1 420 3 is_stmt 1 view .LVU227
 421:HW_Lib/AT32F435/USB/usb_drivers/src/usbd_int.c **** 
 422:HW_Lib/AT32F435/USB/usb_drivers/src/usbd_int.c ****   /* disable remote wakeup singal */
 423:HW_Lib/AT32F435/USB/usb_drivers/src/usbd_int.c ****   dev->dctl_bit.rwkupsig = FALSE;
 836              		.loc 1 423 3 view .LVU228
 837              		.loc 1 423 26 is_stmt 0 view .LVU229
 838 000a 6368     		ldr	r3, [r4, #4]
 839 000c 6FF30003 		bfc	r3, #0, #1
 840 0010 6360     		str	r3, [r4, #4]
 424:HW_Lib/AT32F435/USB/usb_drivers/src/usbd_int.c **** 
ARM GAS  C:\Users\8bit\AppData\Local\Temp\cczLgybK.s 			page 24


 425:HW_Lib/AT32F435/USB/usb_drivers/src/usbd_int.c ****   /* endpoint fifo alloc */
 426:HW_Lib/AT32F435/USB/usb_drivers/src/usbd_int.c ****   usbd_fifo_alloc(udev);
 841              		.loc 1 426 3 is_stmt 1 view .LVU230
 842 0012 FFF7FEFF 		bl	usbd_fifo_alloc
 843              	.LVL89:
 427:HW_Lib/AT32F435/USB/usb_drivers/src/usbd_int.c **** 
 428:HW_Lib/AT32F435/USB/usb_drivers/src/usbd_int.c ****   /* flush all tx fifo */
 429:HW_Lib/AT32F435/USB/usb_drivers/src/usbd_int.c ****   usb_flush_tx_fifo(usbx, 0x10);
 844              		.loc 1 429 3 view .LVU231
 845 0016 1021     		movs	r1, #16
 846 0018 2846     		mov	r0, r5
 847 001a FFF7FEFF 		bl	usb_flush_tx_fifo
 848              	.LVL90:
 430:HW_Lib/AT32F435/USB/usb_drivers/src/usbd_int.c **** 
 431:HW_Lib/AT32F435/USB/usb_drivers/src/usbd_int.c ****   /* clear in and out endpoint interrupt flag */
 432:HW_Lib/AT32F435/USB/usb_drivers/src/usbd_int.c ****   for(i_index = 0; i_index < USB_EPT_MAX_NUM; i_index ++)
 849              		.loc 1 432 3 view .LVU232
 850              		.loc 1 432 15 is_stmt 0 view .LVU233
 851 001e 0022     		movs	r2, #0
 852              		.loc 1 432 3 view .LVU234
 853 0020 07E0     		b	.L54
 854              	.LVL91:
 855              	.L55:
 433:HW_Lib/AT32F435/USB/usb_drivers/src/usbd_int.c ****   {
 434:HW_Lib/AT32F435/USB/usb_drivers/src/usbd_int.c ****     USB_INEPT(usbx, i_index)->diepint = 0xFF;
 856              		.loc 1 434 5 is_stmt 1 discriminator 3 view .LVU235
 857 0022 05EB4213 		add	r3, r5, r2, lsl #5
 858              		.loc 1 434 39 is_stmt 0 discriminator 3 view .LVU236
 859 0026 FF21     		movs	r1, #255
 860 0028 C3F80819 		str	r1, [r3, #2312]
 435:HW_Lib/AT32F435/USB/usb_drivers/src/usbd_int.c ****     USB_OUTEPT(usbx, i_index)->doepint = 0xFF;
 861              		.loc 1 435 5 is_stmt 1 discriminator 3 view .LVU237
 862              		.loc 1 435 40 is_stmt 0 discriminator 3 view .LVU238
 863 002c C3F8081B 		str	r1, [r3, #2824]
 432:HW_Lib/AT32F435/USB/usb_drivers/src/usbd_int.c ****   {
 864              		.loc 1 432 47 is_stmt 1 discriminator 3 view .LVU239
 432:HW_Lib/AT32F435/USB/usb_drivers/src/usbd_int.c ****   {
 865              		.loc 1 432 55 is_stmt 0 discriminator 3 view .LVU240
 866 0030 0132     		adds	r2, r2, #1
 867              	.LVL92:
 868              	.L54:
 432:HW_Lib/AT32F435/USB/usb_drivers/src/usbd_int.c ****   {
 869              		.loc 1 432 20 is_stmt 1 discriminator 1 view .LVU241
 432:HW_Lib/AT32F435/USB/usb_drivers/src/usbd_int.c ****   {
 870              		.loc 1 432 3 is_stmt 0 discriminator 1 view .LVU242
 871 0032 072A     		cmp	r2, #7
 872 0034 F5D9     		bls	.L55
 436:HW_Lib/AT32F435/USB/usb_drivers/src/usbd_int.c ****   }
 437:HW_Lib/AT32F435/USB/usb_drivers/src/usbd_int.c **** 
 438:HW_Lib/AT32F435/USB/usb_drivers/src/usbd_int.c ****   /* clear endpoint flag */
 439:HW_Lib/AT32F435/USB/usb_drivers/src/usbd_int.c ****   dev->daint = 0xFFFFFFFF;
 873              		.loc 1 439 3 is_stmt 1 view .LVU243
 874              		.loc 1 439 14 is_stmt 0 view .LVU244
 875 0036 4FF0FF33 		mov	r3, #-1
 876 003a A361     		str	r3, [r4, #24]
 440:HW_Lib/AT32F435/USB/usb_drivers/src/usbd_int.c **** 
 441:HW_Lib/AT32F435/USB/usb_drivers/src/usbd_int.c ****   /*clear endpoint interrupt mask */
ARM GAS  C:\Users\8bit\AppData\Local\Temp\cczLgybK.s 			page 25


 442:HW_Lib/AT32F435/USB/usb_drivers/src/usbd_int.c ****   dev->daintmsk = 0x10001;
 877              		.loc 1 442 3 is_stmt 1 view .LVU245
 878              		.loc 1 442 17 is_stmt 0 view .LVU246
 879 003c 4FF00113 		mov	r3, #65537
 880 0040 E361     		str	r3, [r4, #28]
 443:HW_Lib/AT32F435/USB/usb_drivers/src/usbd_int.c **** 
 444:HW_Lib/AT32F435/USB/usb_drivers/src/usbd_int.c ****   /* enable out endpoint xfer, eptdis, setup interrupt mask */
 445:HW_Lib/AT32F435/USB/usb_drivers/src/usbd_int.c ****   dev->doepmsk_bit.xfercmsk = TRUE;
 881              		.loc 1 445 3 is_stmt 1 view .LVU247
 882              		.loc 1 445 29 is_stmt 0 view .LVU248
 883 0042 6369     		ldr	r3, [r4, #20]
 884 0044 43F00103 		orr	r3, r3, #1
 885 0048 6361     		str	r3, [r4, #20]
 446:HW_Lib/AT32F435/USB/usb_drivers/src/usbd_int.c ****   dev->doepmsk_bit.eptdismsk = TRUE;
 886              		.loc 1 446 3 is_stmt 1 view .LVU249
 887              		.loc 1 446 30 is_stmt 0 view .LVU250
 888 004a 6369     		ldr	r3, [r4, #20]
 889 004c 43F00203 		orr	r3, r3, #2
 890 0050 6361     		str	r3, [r4, #20]
 447:HW_Lib/AT32F435/USB/usb_drivers/src/usbd_int.c ****   dev->doepmsk_bit.setupmsk = TRUE;
 891              		.loc 1 447 3 is_stmt 1 view .LVU251
 892              		.loc 1 447 29 is_stmt 0 view .LVU252
 893 0052 6369     		ldr	r3, [r4, #20]
 894 0054 43F00803 		orr	r3, r3, #8
 895 0058 6361     		str	r3, [r4, #20]
 448:HW_Lib/AT32F435/USB/usb_drivers/src/usbd_int.c **** 
 449:HW_Lib/AT32F435/USB/usb_drivers/src/usbd_int.c ****   /* enable in endpoint xfer, eptdis, timeout interrupt mask */
 450:HW_Lib/AT32F435/USB/usb_drivers/src/usbd_int.c ****   dev->diepmsk_bit.xfercmsk = TRUE;
 896              		.loc 1 450 3 is_stmt 1 view .LVU253
 897              		.loc 1 450 29 is_stmt 0 view .LVU254
 898 005a 2369     		ldr	r3, [r4, #16]
 899 005c 43F00103 		orr	r3, r3, #1
 900 0060 2361     		str	r3, [r4, #16]
 451:HW_Lib/AT32F435/USB/usb_drivers/src/usbd_int.c ****   dev->diepmsk_bit.eptdismsk = TRUE;
 901              		.loc 1 451 3 is_stmt 1 view .LVU255
 902              		.loc 1 451 30 is_stmt 0 view .LVU256
 903 0062 2369     		ldr	r3, [r4, #16]
 904 0064 43F00203 		orr	r3, r3, #2
 905 0068 2361     		str	r3, [r4, #16]
 452:HW_Lib/AT32F435/USB/usb_drivers/src/usbd_int.c ****   dev->diepmsk_bit.timeoutmsk = TRUE;
 906              		.loc 1 452 3 is_stmt 1 view .LVU257
 907              		.loc 1 452 31 is_stmt 0 view .LVU258
 908 006a 2369     		ldr	r3, [r4, #16]
 909 006c 43F00803 		orr	r3, r3, #8
 910 0070 2361     		str	r3, [r4, #16]
 453:HW_Lib/AT32F435/USB/usb_drivers/src/usbd_int.c **** 
 454:HW_Lib/AT32F435/USB/usb_drivers/src/usbd_int.c ****   /* set device address to 0 */
 455:HW_Lib/AT32F435/USB/usb_drivers/src/usbd_int.c ****   usb_set_address(usbx, 0);
 911              		.loc 1 455 3 is_stmt 1 view .LVU259
 912 0072 0021     		movs	r1, #0
 913 0074 2846     		mov	r0, r5
 914 0076 FFF7FEFF 		bl	usb_set_address
 915              	.LVL93:
 456:HW_Lib/AT32F435/USB/usb_drivers/src/usbd_int.c **** 
 457:HW_Lib/AT32F435/USB/usb_drivers/src/usbd_int.c ****   /* enable endpoint 0 */
 458:HW_Lib/AT32F435/USB/usb_drivers/src/usbd_int.c ****   usb_ept0_start(usbx);
 916              		.loc 1 458 3 view .LVU260
ARM GAS  C:\Users\8bit\AppData\Local\Temp\cczLgybK.s 			page 26


 917 007a 2846     		mov	r0, r5
 918 007c FFF7FEFF 		bl	usb_ept0_start
 919              	.LVL94:
 459:HW_Lib/AT32F435/USB/usb_drivers/src/usbd_int.c **** 
 460:HW_Lib/AT32F435/USB/usb_drivers/src/usbd_int.c ****   /* usb connect state set to default */
 461:HW_Lib/AT32F435/USB/usb_drivers/src/usbd_int.c ****   udev->conn_state = USB_CONN_STATE_DEFAULT;
 920              		.loc 1 461 3 view .LVU261
 921              		.loc 1 461 20 is_stmt 0 view .LVU262
 922 0080 0123     		movs	r3, #1
 923 0082 86F8E432 		strb	r3, [r6, #740]
 462:HW_Lib/AT32F435/USB/usb_drivers/src/usbd_int.c **** 
 463:HW_Lib/AT32F435/USB/usb_drivers/src/usbd_int.c ****   /* user define reset event */
 464:HW_Lib/AT32F435/USB/usb_drivers/src/usbd_int.c ****   if(udev->class_handler->event_handler)
 924              		.loc 1 464 3 is_stmt 1 view .LVU263
 925              		.loc 1 464 10 is_stmt 0 view .LVU264
 926 0086 7368     		ldr	r3, [r6, #4]
 927              		.loc 1 464 25 view .LVU265
 928 0088 1B6A     		ldr	r3, [r3, #32]
 929              		.loc 1 464 5 view .LVU266
 930 008a 13B1     		cbz	r3, .L53
 465:HW_Lib/AT32F435/USB/usb_drivers/src/usbd_int.c ****     udev->class_handler->event_handler(udev, USBD_RESET_EVENT);
 931              		.loc 1 465 5 is_stmt 1 view .LVU267
 932 008c 0121     		movs	r1, #1
 933 008e 3046     		mov	r0, r6
 934 0090 9847     		blx	r3
 935              	.LVL95:
 936              	.L53:
 466:HW_Lib/AT32F435/USB/usb_drivers/src/usbd_int.c **** }
 937              		.loc 1 466 1 is_stmt 0 view .LVU268
 938 0092 70BD     		pop	{r4, r5, r6, pc}
 939              		.loc 1 466 1 view .LVU269
 940              		.cfi_endproc
 941              	.LFE145:
 943              		.section	.text.usbd_sof_handler,"ax",%progbits
 944              		.align	1
 945              		.global	usbd_sof_handler
 946              		.syntax unified
 947              		.thumb
 948              		.thumb_func
 950              	usbd_sof_handler:
 951              	.LVL96:
 952              	.LFB146:
 467:HW_Lib/AT32F435/USB/usb_drivers/src/usbd_int.c **** 
 468:HW_Lib/AT32F435/USB/usb_drivers/src/usbd_int.c **** /**
 469:HW_Lib/AT32F435/USB/usb_drivers/src/usbd_int.c ****   * @brief  usb device sof interrupt request handler.
 470:HW_Lib/AT32F435/USB/usb_drivers/src/usbd_int.c ****   * @param  udev: to the structure of usbd_core_type
 471:HW_Lib/AT32F435/USB/usb_drivers/src/usbd_int.c ****   * @retval none
 472:HW_Lib/AT32F435/USB/usb_drivers/src/usbd_int.c ****   */
 473:HW_Lib/AT32F435/USB/usb_drivers/src/usbd_int.c **** void usbd_sof_handler(usbd_core_type *udev)
 474:HW_Lib/AT32F435/USB/usb_drivers/src/usbd_int.c **** {
 953              		.loc 1 474 1 is_stmt 1 view -0
 954              		.cfi_startproc
 955              		@ args = 0, pretend = 0, frame = 0
 956              		@ frame_needed = 0, uses_anonymous_args = 0
 957              		.loc 1 474 1 is_stmt 0 view .LVU271
 958 0000 08B5     		push	{r3, lr}
 959              	.LCFI9:
ARM GAS  C:\Users\8bit\AppData\Local\Temp\cczLgybK.s 			page 27


 960              		.cfi_def_cfa_offset 8
 961              		.cfi_offset 3, -8
 962              		.cfi_offset 14, -4
 475:HW_Lib/AT32F435/USB/usb_drivers/src/usbd_int.c ****   /* user sof handler in class define */
 476:HW_Lib/AT32F435/USB/usb_drivers/src/usbd_int.c ****   if(udev->class_handler->sof_handler)
 963              		.loc 1 476 3 is_stmt 1 view .LVU272
 964              		.loc 1 476 10 is_stmt 0 view .LVU273
 965 0002 4368     		ldr	r3, [r0, #4]
 966              		.loc 1 476 25 view .LVU274
 967 0004 DB69     		ldr	r3, [r3, #28]
 968              		.loc 1 476 5 view .LVU275
 969 0006 03B1     		cbz	r3, .L58
 477:HW_Lib/AT32F435/USB/usb_drivers/src/usbd_int.c ****     udev->class_handler->sof_handler(udev);
 970              		.loc 1 477 5 is_stmt 1 view .LVU276
 971 0008 9847     		blx	r3
 972              	.LVL97:
 973              	.L58:
 478:HW_Lib/AT32F435/USB/usb_drivers/src/usbd_int.c **** }
 974              		.loc 1 478 1 is_stmt 0 view .LVU277
 975 000a 08BD     		pop	{r3, pc}
 976              		.cfi_endproc
 977              	.LFE146:
 979              		.section	.text.usbd_suspend_handler,"ax",%progbits
 980              		.align	1
 981              		.global	usbd_suspend_handler
 982              		.syntax unified
 983              		.thumb
 984              		.thumb_func
 986              	usbd_suspend_handler:
 987              	.LVL98:
 988              	.LFB147:
 479:HW_Lib/AT32F435/USB/usb_drivers/src/usbd_int.c **** 
 480:HW_Lib/AT32F435/USB/usb_drivers/src/usbd_int.c **** /**
 481:HW_Lib/AT32F435/USB/usb_drivers/src/usbd_int.c ****   * @brief  usb device suspend interrupt request handler.
 482:HW_Lib/AT32F435/USB/usb_drivers/src/usbd_int.c ****   * @param  udev: to the structure of usbd_core_type
 483:HW_Lib/AT32F435/USB/usb_drivers/src/usbd_int.c ****   * @retval none
 484:HW_Lib/AT32F435/USB/usb_drivers/src/usbd_int.c ****   */
 485:HW_Lib/AT32F435/USB/usb_drivers/src/usbd_int.c **** void usbd_suspend_handler(usbd_core_type *udev)
 486:HW_Lib/AT32F435/USB/usb_drivers/src/usbd_int.c **** {
 989              		.loc 1 486 1 is_stmt 1 view -0
 990              		.cfi_startproc
 991              		@ args = 0, pretend = 0, frame = 0
 992              		@ frame_needed = 0, uses_anonymous_args = 0
 487:HW_Lib/AT32F435/USB/usb_drivers/src/usbd_int.c ****   otg_global_type *usbx = udev->usb_reg;
 993              		.loc 1 487 3 view .LVU279
 994              		.loc 1 487 20 is_stmt 0 view .LVU280
 995 0000 0368     		ldr	r3, [r0]
 996              	.LVL99:
 488:HW_Lib/AT32F435/USB/usb_drivers/src/usbd_int.c **** 
 489:HW_Lib/AT32F435/USB/usb_drivers/src/usbd_int.c ****   if(OTG_DEVICE(usbx)->dsts_bit.suspsts)
 997              		.loc 1 489 3 is_stmt 1 view .LVU281
 998              		.loc 1 489 6 is_stmt 0 view .LVU282
 999 0002 03F50063 		add	r3, r3, #2048
 1000              	.LVL100:
 1001              		.loc 1 489 32 view .LVU283
 1002 0006 9B68     		ldr	r3, [r3, #8]
 1003              		.loc 1 489 5 view .LVU284
ARM GAS  C:\Users\8bit\AppData\Local\Temp\cczLgybK.s 			page 28


 1004 0008 13F0010F 		tst	r3, #1
 1005 000c 00D1     		bne	.L67
 1006 000e 7047     		bx	lr
 1007              	.L67:
 486:HW_Lib/AT32F435/USB/usb_drivers/src/usbd_int.c ****   otg_global_type *usbx = udev->usb_reg;
 1008              		.loc 1 486 1 view .LVU285
 1009 0010 10B5     		push	{r4, lr}
 1010              	.LCFI10:
 1011              		.cfi_def_cfa_offset 8
 1012              		.cfi_offset 4, -8
 1013              		.cfi_offset 14, -4
 1014 0012 0446     		mov	r4, r0
 490:HW_Lib/AT32F435/USB/usb_drivers/src/usbd_int.c ****   {
 491:HW_Lib/AT32F435/USB/usb_drivers/src/usbd_int.c ****     /* save connect state */
 492:HW_Lib/AT32F435/USB/usb_drivers/src/usbd_int.c ****     udev->old_conn_state = udev->conn_state;
 1015              		.loc 1 492 5 is_stmt 1 view .LVU286
 1016              		.loc 1 492 32 is_stmt 0 view .LVU287
 1017 0014 90F8E432 		ldrb	r3, [r0, #740]	@ zero_extendqisi2
 1018              		.loc 1 492 26 view .LVU288
 1019 0018 80F8E532 		strb	r3, [r0, #741]
 493:HW_Lib/AT32F435/USB/usb_drivers/src/usbd_int.c **** 
 494:HW_Lib/AT32F435/USB/usb_drivers/src/usbd_int.c ****     /* set current state to suspend */
 495:HW_Lib/AT32F435/USB/usb_drivers/src/usbd_int.c ****     udev->conn_state = USB_CONN_STATE_SUSPENDED;
 1020              		.loc 1 495 5 is_stmt 1 view .LVU289
 1021              		.loc 1 495 22 is_stmt 0 view .LVU290
 1022 001c 0423     		movs	r3, #4
 1023 001e 80F8E432 		strb	r3, [r0, #740]
 496:HW_Lib/AT32F435/USB/usb_drivers/src/usbd_int.c **** 
 497:HW_Lib/AT32F435/USB/usb_drivers/src/usbd_int.c ****     /* enter suspend mode */
 498:HW_Lib/AT32F435/USB/usb_drivers/src/usbd_int.c ****     usbd_enter_suspend(udev);
 1024              		.loc 1 498 5 is_stmt 1 view .LVU291
 1025 0022 FFF7FEFF 		bl	usbd_enter_suspend
 1026              	.LVL101:
 499:HW_Lib/AT32F435/USB/usb_drivers/src/usbd_int.c **** 
 500:HW_Lib/AT32F435/USB/usb_drivers/src/usbd_int.c ****     /* user suspend handler */
 501:HW_Lib/AT32F435/USB/usb_drivers/src/usbd_int.c ****     if(udev->class_handler->event_handler != 0)
 1027              		.loc 1 501 5 view .LVU292
 1028              		.loc 1 501 12 is_stmt 0 view .LVU293
 1029 0026 6368     		ldr	r3, [r4, #4]
 1030              		.loc 1 501 27 view .LVU294
 1031 0028 1B6A     		ldr	r3, [r3, #32]
 1032              		.loc 1 501 7 view .LVU295
 1033 002a 13B1     		cbz	r3, .L61
 502:HW_Lib/AT32F435/USB/usb_drivers/src/usbd_int.c ****       udev->class_handler->event_handler(udev, USBD_SUSPEND_EVENT);
 1034              		.loc 1 502 7 is_stmt 1 view .LVU296
 1035 002c 0221     		movs	r1, #2
 1036 002e 2046     		mov	r0, r4
 1037 0030 9847     		blx	r3
 1038              	.LVL102:
 1039              	.L61:
 503:HW_Lib/AT32F435/USB/usb_drivers/src/usbd_int.c ****   }
 504:HW_Lib/AT32F435/USB/usb_drivers/src/usbd_int.c **** }
 1040              		.loc 1 504 1 is_stmt 0 view .LVU297
 1041 0032 10BD     		pop	{r4, pc}
 1042              		.loc 1 504 1 view .LVU298
 1043              		.cfi_endproc
 1044              	.LFE147:
ARM GAS  C:\Users\8bit\AppData\Local\Temp\cczLgybK.s 			page 29


 1046              		.section	.text.usbd_wakeup_handler,"ax",%progbits
 1047              		.align	1
 1048              		.global	usbd_wakeup_handler
 1049              		.syntax unified
 1050              		.thumb
 1051              		.thumb_func
 1053              	usbd_wakeup_handler:
 1054              	.LVL103:
 1055              	.LFB148:
 505:HW_Lib/AT32F435/USB/usb_drivers/src/usbd_int.c **** 
 506:HW_Lib/AT32F435/USB/usb_drivers/src/usbd_int.c **** /**
 507:HW_Lib/AT32F435/USB/usb_drivers/src/usbd_int.c ****   * @brief  usb device wakup interrupt request handler.
 508:HW_Lib/AT32F435/USB/usb_drivers/src/usbd_int.c ****   * @param  udev: to the structure of usbd_core_type
 509:HW_Lib/AT32F435/USB/usb_drivers/src/usbd_int.c ****   * @retval none
 510:HW_Lib/AT32F435/USB/usb_drivers/src/usbd_int.c ****   */
 511:HW_Lib/AT32F435/USB/usb_drivers/src/usbd_int.c **** void usbd_wakeup_handler(usbd_core_type *udev)
 512:HW_Lib/AT32F435/USB/usb_drivers/src/usbd_int.c **** {
 1056              		.loc 1 512 1 is_stmt 1 view -0
 1057              		.cfi_startproc
 1058              		@ args = 0, pretend = 0, frame = 0
 1059              		@ frame_needed = 0, uses_anonymous_args = 0
 1060              		.loc 1 512 1 is_stmt 0 view .LVU300
 1061 0000 10B5     		push	{r4, lr}
 1062              	.LCFI11:
 1063              		.cfi_def_cfa_offset 8
 1064              		.cfi_offset 4, -8
 1065              		.cfi_offset 14, -4
 1066 0002 0446     		mov	r4, r0
 513:HW_Lib/AT32F435/USB/usb_drivers/src/usbd_int.c ****   otg_global_type *usbx = udev->usb_reg;
 1067              		.loc 1 513 3 is_stmt 1 view .LVU301
 1068              		.loc 1 513 20 is_stmt 0 view .LVU302
 1069 0004 0368     		ldr	r3, [r0]
 1070              	.LVL104:
 514:HW_Lib/AT32F435/USB/usb_drivers/src/usbd_int.c **** 
 515:HW_Lib/AT32F435/USB/usb_drivers/src/usbd_int.c ****   /* clear remote wakeup bit */
 516:HW_Lib/AT32F435/USB/usb_drivers/src/usbd_int.c ****   OTG_DEVICE(usbx)->dctl_bit.rwkupsig = FALSE;
 1071              		.loc 1 516 3 is_stmt 1 view .LVU303
 1072              		.loc 1 516 39 is_stmt 0 view .LVU304
 1073 0006 D3F80428 		ldr	r2, [r3, #2052]
 1074 000a 6FF30002 		bfc	r2, #0, #1
 1075 000e C3F80428 		str	r2, [r3, #2052]
 517:HW_Lib/AT32F435/USB/usb_drivers/src/usbd_int.c **** 
 518:HW_Lib/AT32F435/USB/usb_drivers/src/usbd_int.c ****   /* exit suspend mode */
 519:HW_Lib/AT32F435/USB/usb_drivers/src/usbd_int.c ****   usb_open_phy_clk(udev->usb_reg);
 1076              		.loc 1 519 3 is_stmt 1 view .LVU305
 1077 0012 0068     		ldr	r0, [r0]
 1078              	.LVL105:
 1079              		.loc 1 519 3 is_stmt 0 view .LVU306
 1080 0014 FFF7FEFF 		bl	usb_open_phy_clk
 1081              	.LVL106:
 520:HW_Lib/AT32F435/USB/usb_drivers/src/usbd_int.c **** 
 521:HW_Lib/AT32F435/USB/usb_drivers/src/usbd_int.c ****   /* restore connect state */
 522:HW_Lib/AT32F435/USB/usb_drivers/src/usbd_int.c ****   udev->conn_state = udev->old_conn_state;
 1082              		.loc 1 522 3 is_stmt 1 view .LVU307
 1083              		.loc 1 522 26 is_stmt 0 view .LVU308
 1084 0018 94F8E532 		ldrb	r3, [r4, #741]	@ zero_extendqisi2
 1085              		.loc 1 522 20 view .LVU309
ARM GAS  C:\Users\8bit\AppData\Local\Temp\cczLgybK.s 			page 30


 1086 001c 84F8E432 		strb	r3, [r4, #740]
 523:HW_Lib/AT32F435/USB/usb_drivers/src/usbd_int.c **** 
 524:HW_Lib/AT32F435/USB/usb_drivers/src/usbd_int.c ****     /* user suspend handler */
 525:HW_Lib/AT32F435/USB/usb_drivers/src/usbd_int.c ****   if(udev->class_handler->event_handler != 0)
 1087              		.loc 1 525 3 is_stmt 1 view .LVU310
 1088              		.loc 1 525 10 is_stmt 0 view .LVU311
 1089 0020 6368     		ldr	r3, [r4, #4]
 1090              		.loc 1 525 25 view .LVU312
 1091 0022 1B6A     		ldr	r3, [r3, #32]
 1092              		.loc 1 525 5 view .LVU313
 1093 0024 13B1     		cbz	r3, .L68
 526:HW_Lib/AT32F435/USB/usb_drivers/src/usbd_int.c ****     udev->class_handler->event_handler(udev, USBD_WAKEUP_EVENT);
 1094              		.loc 1 526 5 is_stmt 1 view .LVU314
 1095 0026 0321     		movs	r1, #3
 1096 0028 2046     		mov	r0, r4
 1097 002a 9847     		blx	r3
 1098              	.LVL107:
 1099              	.L68:
 527:HW_Lib/AT32F435/USB/usb_drivers/src/usbd_int.c **** }
 1100              		.loc 1 527 1 is_stmt 0 view .LVU315
 1101 002c 10BD     		pop	{r4, pc}
 1102              		.loc 1 527 1 view .LVU316
 1103              		.cfi_endproc
 1104              	.LFE148:
 1106              		.section	.text.usbd_irq_handler,"ax",%progbits
 1107              		.align	1
 1108              		.global	usbd_irq_handler
 1109              		.syntax unified
 1110              		.thumb
 1111              		.thumb_func
 1113              	usbd_irq_handler:
 1114              	.LVL108:
 1115              	.LFB136:
  47:HW_Lib/AT32F435/USB/usb_drivers/src/usbd_int.c ****   otg_global_type *usbx = otgdev->usb_reg;
 1116              		.loc 1 47 1 is_stmt 1 view -0
 1117              		.cfi_startproc
 1118              		@ args = 0, pretend = 0, frame = 0
 1119              		@ frame_needed = 0, uses_anonymous_args = 0
  47:HW_Lib/AT32F435/USB/usb_drivers/src/usbd_int.c ****   otg_global_type *usbx = otgdev->usb_reg;
 1120              		.loc 1 47 1 is_stmt 0 view .LVU318
 1121 0000 70B5     		push	{r4, r5, r6, lr}
 1122              	.LCFI12:
 1123              		.cfi_def_cfa_offset 16
 1124              		.cfi_offset 4, -16
 1125              		.cfi_offset 5, -12
 1126              		.cfi_offset 6, -8
 1127              		.cfi_offset 14, -4
  48:HW_Lib/AT32F435/USB/usb_drivers/src/usbd_int.c ****   usbd_core_type *udev = &otgdev->dev;
 1128              		.loc 1 48 3 is_stmt 1 view .LVU319
  48:HW_Lib/AT32F435/USB/usb_drivers/src/usbd_int.c ****   usbd_core_type *udev = &otgdev->dev;
 1129              		.loc 1 48 20 is_stmt 0 view .LVU320
 1130 0002 0546     		mov	r5, r0
 1131 0004 55F8046B 		ldr	r6, [r5], #4
 1132              	.LVL109:
  49:HW_Lib/AT32F435/USB/usb_drivers/src/usbd_int.c ****   uint32_t intsts = usb_global_get_all_interrupt(usbx);
 1133              		.loc 1 49 3 is_stmt 1 view .LVU321
  50:HW_Lib/AT32F435/USB/usb_drivers/src/usbd_int.c **** 
ARM GAS  C:\Users\8bit\AppData\Local\Temp\cczLgybK.s 			page 31


 1134              		.loc 1 50 3 view .LVU322
  50:HW_Lib/AT32F435/USB/usb_drivers/src/usbd_int.c **** 
 1135              		.loc 1 50 21 is_stmt 0 view .LVU323
 1136 0008 3046     		mov	r0, r6
 1137              	.LVL110:
  50:HW_Lib/AT32F435/USB/usb_drivers/src/usbd_int.c **** 
 1138              		.loc 1 50 21 view .LVU324
 1139 000a FFF7FEFF 		bl	usb_global_get_all_interrupt
 1140              	.LVL111:
  53:HW_Lib/AT32F435/USB/usb_drivers/src/usbd_int.c ****   {
 1141              		.loc 1 53 3 is_stmt 1 view .LVU325
  53:HW_Lib/AT32F435/USB/usb_drivers/src/usbd_int.c ****   {
 1142              		.loc 1 53 23 is_stmt 0 view .LVU326
 1143 000e 7369     		ldr	r3, [r6, #20]
  53:HW_Lib/AT32F435/USB/usb_drivers/src/usbd_int.c ****   {
 1144              		.loc 1 53 5 view .LVU327
 1145 0010 13F0010F 		tst	r3, #1
 1146 0014 20D1     		bne	.L71
 1147 0016 0446     		mov	r4, r0
  56:HW_Lib/AT32F435/USB/usb_drivers/src/usbd_int.c ****     {
 1148              		.loc 1 56 5 is_stmt 1 view .LVU328
  56:HW_Lib/AT32F435/USB/usb_drivers/src/usbd_int.c ****     {
 1149              		.loc 1 56 7 is_stmt 0 view .LVU329
 1150 0018 10F0020F 		tst	r0, #2
 1151 001c 1DD1     		bne	.L84
 1152              	.LVL112:
 1153              	.L73:
  62:HW_Lib/AT32F435/USB/usb_drivers/src/usbd_int.c ****     {
 1154              		.loc 1 62 5 is_stmt 1 view .LVU330
  62:HW_Lib/AT32F435/USB/usb_drivers/src/usbd_int.c ****     {
 1155              		.loc 1 62 7 is_stmt 0 view .LVU331
 1156 001e 14F4802F 		tst	r4, #262144
 1157 0022 1FD1     		bne	.L85
 1158              	.L74:
  68:HW_Lib/AT32F435/USB/usb_drivers/src/usbd_int.c ****     {
 1159              		.loc 1 68 5 is_stmt 1 view .LVU332
  68:HW_Lib/AT32F435/USB/usb_drivers/src/usbd_int.c ****     {
 1160              		.loc 1 68 7 is_stmt 0 view .LVU333
 1161 0024 14F4002F 		tst	r4, #524288
 1162 0028 20D1     		bne	.L86
 1163              	.L75:
  74:HW_Lib/AT32F435/USB/usb_drivers/src/usbd_int.c ****     {
 1164              		.loc 1 74 5 is_stmt 1 view .LVU334
  74:HW_Lib/AT32F435/USB/usb_drivers/src/usbd_int.c ****     {
 1165              		.loc 1 74 7 is_stmt 0 view .LVU335
 1166 002a 14F4805F 		tst	r4, #4096
 1167 002e 21D1     		bne	.L87
 1168              	.L76:
  81:HW_Lib/AT32F435/USB/usb_drivers/src/usbd_int.c ****     {
 1169              		.loc 1 81 5 is_stmt 1 view .LVU336
  81:HW_Lib/AT32F435/USB/usb_drivers/src/usbd_int.c ****     {
 1170              		.loc 1 81 7 is_stmt 0 view .LVU337
 1171 0030 14F0080F 		tst	r4, #8
 1172 0034 27D1     		bne	.L88
 1173              	.L77:
  88:HW_Lib/AT32F435/USB/usb_drivers/src/usbd_int.c ****     {
 1174              		.loc 1 88 5 is_stmt 1 view .LVU338
ARM GAS  C:\Users\8bit\AppData\Local\Temp\cczLgybK.s 			page 32


  88:HW_Lib/AT32F435/USB/usb_drivers/src/usbd_int.c ****     {
 1175              		.loc 1 88 7 is_stmt 0 view .LVU339
 1176 0036 14F4005F 		tst	r4, #8192
 1177 003a 2CD1     		bne	.L89
 1178              	.L78:
  96:HW_Lib/AT32F435/USB/usb_drivers/src/usbd_int.c ****     {
 1179              		.loc 1 96 5 is_stmt 1 view .LVU340
  96:HW_Lib/AT32F435/USB/usb_drivers/src/usbd_int.c ****     {
 1180              		.loc 1 96 7 is_stmt 0 view .LVU341
 1181 003c 14F0100F 		tst	r4, #16
 1182 0040 32D1     		bne	.L90
 1183              	.L79:
 102:HW_Lib/AT32F435/USB/usb_drivers/src/usbd_int.c ****     {
 1184              		.loc 1 102 5 is_stmt 1 view .LVU342
 102:HW_Lib/AT32F435/USB/usb_drivers/src/usbd_int.c ****     {
 1185              		.loc 1 102 7 is_stmt 0 view .LVU343
 1186 0042 14F4801F 		tst	r4, #1048576
 1187 0046 33D1     		bne	.L91
 1188              	.L80:
 119:HW_Lib/AT32F435/USB/usb_drivers/src/usbd_int.c ****     {
 1189              		.loc 1 119 5 is_stmt 1 view .LVU344
 119:HW_Lib/AT32F435/USB/usb_drivers/src/usbd_int.c ****     {
 1190              		.loc 1 119 7 is_stmt 0 view .LVU345
 1191 0048 14F4001F 		tst	r4, #2097152
 1192 004c 39D1     		bne	.L92
 1193              	.L81:
 126:HW_Lib/AT32F435/USB/usb_drivers/src/usbd_int.c ****     {
 1194              		.loc 1 126 5 is_stmt 1 view .LVU346
 126:HW_Lib/AT32F435/USB/usb_drivers/src/usbd_int.c ****     {
 1195              		.loc 1 126 7 is_stmt 0 view .LVU347
 1196 004e 002C     		cmp	r4, #0
 1197 0050 40DB     		blt	.L93
 1198              	.L82:
 133:HW_Lib/AT32F435/USB/usb_drivers/src/usbd_int.c ****     {
 1199              		.loc 1 133 5 is_stmt 1 view .LVU348
 133:HW_Lib/AT32F435/USB/usb_drivers/src/usbd_int.c ****     {
 1200              		.loc 1 133 7 is_stmt 0 view .LVU349
 1201 0052 14F4006F 		tst	r4, #2048
 1202 0056 46D1     		bne	.L94
 1203              	.LVL113:
 1204              	.L71:
 139:HW_Lib/AT32F435/USB/usb_drivers/src/usbd_int.c **** 
 1205              		.loc 1 139 1 view .LVU350
 1206 0058 70BD     		pop	{r4, r5, r6, pc}
 1207              	.LVL114:
 1208              	.L84:
  58:HW_Lib/AT32F435/USB/usb_drivers/src/usbd_int.c ****     }
 1209              		.loc 1 58 7 is_stmt 1 view .LVU351
 1210 005a 0221     		movs	r1, #2
 1211 005c 3046     		mov	r0, r6
 1212              	.LVL115:
  58:HW_Lib/AT32F435/USB/usb_drivers/src/usbd_int.c ****     }
 1213              		.loc 1 58 7 is_stmt 0 view .LVU352
 1214 005e FFF7FEFF 		bl	usb_global_clear_interrupt
 1215              	.LVL116:
 1216 0062 DCE7     		b	.L73
 1217              	.L85:
ARM GAS  C:\Users\8bit\AppData\Local\Temp\cczLgybK.s 			page 33


  64:HW_Lib/AT32F435/USB/usb_drivers/src/usbd_int.c ****     }
 1218              		.loc 1 64 7 is_stmt 1 view .LVU353
 1219 0064 2846     		mov	r0, r5
 1220 0066 FFF7FEFF 		bl	usbd_inept_handler
 1221              	.LVL117:
 1222 006a DBE7     		b	.L74
 1223              	.L86:
  70:HW_Lib/AT32F435/USB/usb_drivers/src/usbd_int.c ****     }
 1224              		.loc 1 70 7 view .LVU354
 1225 006c 2846     		mov	r0, r5
 1226 006e FFF7FEFF 		bl	usbd_outept_handler
 1227              	.LVL118:
 1228 0072 DAE7     		b	.L75
 1229              	.L87:
  76:HW_Lib/AT32F435/USB/usb_drivers/src/usbd_int.c ****       usb_global_clear_interrupt(usbx, USB_OTG_USBRST_FLAG);
 1230              		.loc 1 76 7 view .LVU355
 1231 0074 2846     		mov	r0, r5
 1232 0076 FFF7FEFF 		bl	usbd_reset_handler
 1233              	.LVL119:
  77:HW_Lib/AT32F435/USB/usb_drivers/src/usbd_int.c ****     }
 1234              		.loc 1 77 7 view .LVU356
 1235 007a 4FF48051 		mov	r1, #4096
 1236 007e 3046     		mov	r0, r6
 1237 0080 FFF7FEFF 		bl	usb_global_clear_interrupt
 1238              	.LVL120:
 1239 0084 D4E7     		b	.L76
 1240              	.L88:
  83:HW_Lib/AT32F435/USB/usb_drivers/src/usbd_int.c ****       usb_global_clear_interrupt(usbx, USB_OTG_SOF_FLAG);
 1241              		.loc 1 83 7 view .LVU357
 1242 0086 2846     		mov	r0, r5
 1243 0088 FFF7FEFF 		bl	usbd_sof_handler
 1244              	.LVL121:
  84:HW_Lib/AT32F435/USB/usb_drivers/src/usbd_int.c ****     }
 1245              		.loc 1 84 7 view .LVU358
 1246 008c 0821     		movs	r1, #8
 1247 008e 3046     		mov	r0, r6
 1248 0090 FFF7FEFF 		bl	usb_global_clear_interrupt
 1249              	.LVL122:
 1250 0094 CFE7     		b	.L77
 1251              	.L89:
  90:HW_Lib/AT32F435/USB/usb_drivers/src/usbd_int.c ****       usb_global_clear_interrupt(usbx, USB_OTG_ENUMDONE_FLAG);
 1252              		.loc 1 90 7 view .LVU359
 1253 0096 2846     		mov	r0, r5
 1254 0098 FFF7FEFF 		bl	usbd_enumdone_handler
 1255              	.LVL123:
  91:HW_Lib/AT32F435/USB/usb_drivers/src/usbd_int.c ****     }
 1256              		.loc 1 91 7 view .LVU360
 1257 009c 4FF40051 		mov	r1, #8192
 1258 00a0 3046     		mov	r0, r6
 1259 00a2 FFF7FEFF 		bl	usb_global_clear_interrupt
 1260              	.LVL124:
 1261 00a6 C9E7     		b	.L78
 1262              	.L90:
  98:HW_Lib/AT32F435/USB/usb_drivers/src/usbd_int.c ****     }
 1263              		.loc 1 98 7 view .LVU361
 1264 00a8 2846     		mov	r0, r5
 1265 00aa FFF7FEFF 		bl	usbd_rxflvl_handler
ARM GAS  C:\Users\8bit\AppData\Local\Temp\cczLgybK.s 			page 34


 1266              	.LVL125:
 1267 00ae C8E7     		b	.L79
 1268              	.L91:
 104:HW_Lib/AT32F435/USB/usb_drivers/src/usbd_int.c ****       usb_global_clear_interrupt(usbx, USB_OTG_INCOMISOIN_FLAG);
 1269              		.loc 1 104 7 view .LVU362
 1270 00b0 2846     		mov	r0, r5
 1271 00b2 FFF7FEFF 		bl	usbd_incomisioin_handler
 1272              	.LVL126:
 105:HW_Lib/AT32F435/USB/usb_drivers/src/usbd_int.c ****     }
 1273              		.loc 1 105 7 view .LVU363
 1274 00b6 4FF48011 		mov	r1, #1048576
 1275 00ba 3046     		mov	r0, r6
 1276 00bc FFF7FEFF 		bl	usb_global_clear_interrupt
 1277              	.LVL127:
 1278 00c0 C2E7     		b	.L80
 1279              	.L92:
 121:HW_Lib/AT32F435/USB/usb_drivers/src/usbd_int.c ****       usb_global_clear_interrupt(usbx, USB_OTG_INCOMPIP_INCOMPISOOUT_FLAG);
 1280              		.loc 1 121 7 view .LVU364
 1281 00c2 2846     		mov	r0, r5
 1282 00c4 FFF7FEFF 		bl	usbd_incomisoout_handler
 1283              	.LVL128:
 122:HW_Lib/AT32F435/USB/usb_drivers/src/usbd_int.c ****     }
 1284              		.loc 1 122 7 view .LVU365
 1285 00c8 4FF40011 		mov	r1, #2097152
 1286 00cc 3046     		mov	r0, r6
 1287 00ce FFF7FEFF 		bl	usb_global_clear_interrupt
 1288              	.LVL129:
 1289 00d2 BCE7     		b	.L81
 1290              	.L93:
 128:HW_Lib/AT32F435/USB/usb_drivers/src/usbd_int.c ****       usb_global_clear_interrupt(usbx, USB_OTG_WKUP_FLAG);
 1291              		.loc 1 128 7 view .LVU366
 1292 00d4 2846     		mov	r0, r5
 1293 00d6 FFF7FEFF 		bl	usbd_wakeup_handler
 1294              	.LVL130:
 129:HW_Lib/AT32F435/USB/usb_drivers/src/usbd_int.c ****     }
 1295              		.loc 1 129 7 view .LVU367
 1296 00da 4FF00041 		mov	r1, #-2147483648
 1297 00de 3046     		mov	r0, r6
 1298 00e0 FFF7FEFF 		bl	usb_global_clear_interrupt
 1299              	.LVL131:
 1300 00e4 B5E7     		b	.L82
 1301              	.L94:
 135:HW_Lib/AT32F435/USB/usb_drivers/src/usbd_int.c ****       usb_global_clear_interrupt(usbx, USB_OTG_USBSUSP_FLAG);
 1302              		.loc 1 135 7 view .LVU368
 1303 00e6 2846     		mov	r0, r5
 1304 00e8 FFF7FEFF 		bl	usbd_suspend_handler
 1305              	.LVL132:
 136:HW_Lib/AT32F435/USB/usb_drivers/src/usbd_int.c ****     }
 1306              		.loc 1 136 7 view .LVU369
 1307 00ec 4FF40061 		mov	r1, #2048
 1308 00f0 3046     		mov	r0, r6
 1309 00f2 FFF7FEFF 		bl	usb_global_clear_interrupt
 1310              	.LVL133:
 139:HW_Lib/AT32F435/USB/usb_drivers/src/usbd_int.c **** 
 1311              		.loc 1 139 1 is_stmt 0 view .LVU370
 1312 00f6 AFE7     		b	.L71
 1313              		.cfi_endproc
ARM GAS  C:\Users\8bit\AppData\Local\Temp\cczLgybK.s 			page 35


 1314              	.LFE136:
 1316              		.text
 1317              	.Letext0:
 1318              		.file 2 "c:\\program files (x86)\\gnu arm embedded toolchain\\10 2021.10\\arm-none-eabi\\include\\
 1319              		.file 3 "c:\\program files (x86)\\gnu arm embedded toolchain\\10 2021.10\\arm-none-eabi\\include\\
 1320              		.file 4 "HW_Lib/AT32F435/device_support/at32f435_437.h"
 1321              		.file 5 "HW_Lib/AT32F435/drivers/inc/at32f435_437_usb.h"
 1322              		.file 6 "HW_Lib/AT32F435/USB/usb_drivers/inc/usb_std.h"
 1323              		.file 7 "HW_Lib/AT32F435/USB/usb_drivers/inc/usbd_core.h"
 1324              		.file 8 "HW_Lib/AT32F435/USB/usb_drivers/inc/usb_core.h"
ARM GAS  C:\Users\8bit\AppData\Local\Temp\cczLgybK.s 			page 36

