ARM GAS  C:\Users\HUAV\AppData\Local\Temp\ccztxGrf.s 			page 1


   1              		.cpu cortex-m7
   2              		.arch armv7e-m
   3              		.fpu fpv5-d16
   4              		.eabi_attribute 28, 1
   5              		.eabi_attribute 20, 1
   6              		.eabi_attribute 21, 1
   7              		.eabi_attribute 23, 3
   8              		.eabi_attribute 24, 1
   9              		.eabi_attribute 25, 1
  10              		.eabi_attribute 26, 1
  11              		.eabi_attribute 30, 1
  12              		.eabi_attribute 34, 1
  13              		.eabi_attribute 18, 4
  14              		.file	"usbd_core.c"
  15              		.text
  16              	.Ltext0:
  17              		.cfi_sections	.debug_frame
  18              		.section	.text.USBD_Init,"ax",%progbits
  19              		.align	1
  20              		.global	USBD_Init
  21              		.syntax unified
  22              		.thumb
  23              		.thumb_func
  25              	USBD_Init:
  26              	.LVL0:
  27              	.LFB148:
  28              		.file 1 "USB/STM32_USB_Device_Library/Core/Src/usbd_core.c"
   1:USB/STM32_USB_Device_Library/Core/Src/usbd_core.c **** /**
   2:USB/STM32_USB_Device_Library/Core/Src/usbd_core.c ****   ******************************************************************************
   3:USB/STM32_USB_Device_Library/Core/Src/usbd_core.c ****   * @file    usbd_core.c
   4:USB/STM32_USB_Device_Library/Core/Src/usbd_core.c ****   * @author  MCD Application Team
   5:USB/STM32_USB_Device_Library/Core/Src/usbd_core.c ****   * @brief   This file provides all the USBD core functions.
   6:USB/STM32_USB_Device_Library/Core/Src/usbd_core.c ****   ******************************************************************************
   7:USB/STM32_USB_Device_Library/Core/Src/usbd_core.c ****   * @attention
   8:USB/STM32_USB_Device_Library/Core/Src/usbd_core.c ****   *
   9:USB/STM32_USB_Device_Library/Core/Src/usbd_core.c ****   * <h2><center>&copy; Copyright (c) 2015 STMicroelectronics.
  10:USB/STM32_USB_Device_Library/Core/Src/usbd_core.c ****   * All rights reserved.</center></h2>
  11:USB/STM32_USB_Device_Library/Core/Src/usbd_core.c ****   *
  12:USB/STM32_USB_Device_Library/Core/Src/usbd_core.c ****   * This software component is licensed by ST under Ultimate Liberty license
  13:USB/STM32_USB_Device_Library/Core/Src/usbd_core.c ****   * SLA0044, the "License"; You may not use this file except in compliance with
  14:USB/STM32_USB_Device_Library/Core/Src/usbd_core.c ****   * the License. You may obtain a copy of the License at:
  15:USB/STM32_USB_Device_Library/Core/Src/usbd_core.c ****   *                      www.st.com/SLA0044
  16:USB/STM32_USB_Device_Library/Core/Src/usbd_core.c ****   *
  17:USB/STM32_USB_Device_Library/Core/Src/usbd_core.c ****   ******************************************************************************
  18:USB/STM32_USB_Device_Library/Core/Src/usbd_core.c ****   */
  19:USB/STM32_USB_Device_Library/Core/Src/usbd_core.c **** 
  20:USB/STM32_USB_Device_Library/Core/Src/usbd_core.c **** /* Includes ------------------------------------------------------------------*/
  21:USB/STM32_USB_Device_Library/Core/Src/usbd_core.c **** #include "usbd_core.h"
  22:USB/STM32_USB_Device_Library/Core/Src/usbd_core.c **** 
  23:USB/STM32_USB_Device_Library/Core/Src/usbd_core.c **** /** @addtogroup STM32_USBD_DEVICE_LIBRARY
  24:USB/STM32_USB_Device_Library/Core/Src/usbd_core.c **** * @{
  25:USB/STM32_USB_Device_Library/Core/Src/usbd_core.c **** */
  26:USB/STM32_USB_Device_Library/Core/Src/usbd_core.c **** 
  27:USB/STM32_USB_Device_Library/Core/Src/usbd_core.c **** 
  28:USB/STM32_USB_Device_Library/Core/Src/usbd_core.c **** /** @defgroup USBD_CORE
  29:USB/STM32_USB_Device_Library/Core/Src/usbd_core.c **** * @brief usbd core module
  30:USB/STM32_USB_Device_Library/Core/Src/usbd_core.c **** * @{
ARM GAS  C:\Users\HUAV\AppData\Local\Temp\ccztxGrf.s 			page 2


  31:USB/STM32_USB_Device_Library/Core/Src/usbd_core.c **** */
  32:USB/STM32_USB_Device_Library/Core/Src/usbd_core.c **** 
  33:USB/STM32_USB_Device_Library/Core/Src/usbd_core.c **** /** @defgroup USBD_CORE_Private_TypesDefinitions
  34:USB/STM32_USB_Device_Library/Core/Src/usbd_core.c **** * @{
  35:USB/STM32_USB_Device_Library/Core/Src/usbd_core.c **** */
  36:USB/STM32_USB_Device_Library/Core/Src/usbd_core.c **** 
  37:USB/STM32_USB_Device_Library/Core/Src/usbd_core.c **** /**
  38:USB/STM32_USB_Device_Library/Core/Src/usbd_core.c **** * @}
  39:USB/STM32_USB_Device_Library/Core/Src/usbd_core.c **** */
  40:USB/STM32_USB_Device_Library/Core/Src/usbd_core.c **** 
  41:USB/STM32_USB_Device_Library/Core/Src/usbd_core.c **** 
  42:USB/STM32_USB_Device_Library/Core/Src/usbd_core.c **** /** @defgroup USBD_CORE_Private_Defines
  43:USB/STM32_USB_Device_Library/Core/Src/usbd_core.c **** * @{
  44:USB/STM32_USB_Device_Library/Core/Src/usbd_core.c **** */
  45:USB/STM32_USB_Device_Library/Core/Src/usbd_core.c **** 
  46:USB/STM32_USB_Device_Library/Core/Src/usbd_core.c **** /**
  47:USB/STM32_USB_Device_Library/Core/Src/usbd_core.c **** * @}
  48:USB/STM32_USB_Device_Library/Core/Src/usbd_core.c **** */
  49:USB/STM32_USB_Device_Library/Core/Src/usbd_core.c **** 
  50:USB/STM32_USB_Device_Library/Core/Src/usbd_core.c **** 
  51:USB/STM32_USB_Device_Library/Core/Src/usbd_core.c **** /** @defgroup USBD_CORE_Private_Macros
  52:USB/STM32_USB_Device_Library/Core/Src/usbd_core.c **** * @{
  53:USB/STM32_USB_Device_Library/Core/Src/usbd_core.c **** */
  54:USB/STM32_USB_Device_Library/Core/Src/usbd_core.c **** 
  55:USB/STM32_USB_Device_Library/Core/Src/usbd_core.c **** /**
  56:USB/STM32_USB_Device_Library/Core/Src/usbd_core.c **** * @}
  57:USB/STM32_USB_Device_Library/Core/Src/usbd_core.c **** */
  58:USB/STM32_USB_Device_Library/Core/Src/usbd_core.c **** 
  59:USB/STM32_USB_Device_Library/Core/Src/usbd_core.c **** 
  60:USB/STM32_USB_Device_Library/Core/Src/usbd_core.c **** /** @defgroup USBD_CORE_Private_FunctionPrototypes
  61:USB/STM32_USB_Device_Library/Core/Src/usbd_core.c **** * @{
  62:USB/STM32_USB_Device_Library/Core/Src/usbd_core.c **** */
  63:USB/STM32_USB_Device_Library/Core/Src/usbd_core.c **** 
  64:USB/STM32_USB_Device_Library/Core/Src/usbd_core.c **** /**
  65:USB/STM32_USB_Device_Library/Core/Src/usbd_core.c **** * @}
  66:USB/STM32_USB_Device_Library/Core/Src/usbd_core.c **** */
  67:USB/STM32_USB_Device_Library/Core/Src/usbd_core.c **** 
  68:USB/STM32_USB_Device_Library/Core/Src/usbd_core.c **** /** @defgroup USBD_CORE_Private_Variables
  69:USB/STM32_USB_Device_Library/Core/Src/usbd_core.c **** * @{
  70:USB/STM32_USB_Device_Library/Core/Src/usbd_core.c **** */
  71:USB/STM32_USB_Device_Library/Core/Src/usbd_core.c **** 
  72:USB/STM32_USB_Device_Library/Core/Src/usbd_core.c **** /**
  73:USB/STM32_USB_Device_Library/Core/Src/usbd_core.c **** * @}
  74:USB/STM32_USB_Device_Library/Core/Src/usbd_core.c **** */
  75:USB/STM32_USB_Device_Library/Core/Src/usbd_core.c **** 
  76:USB/STM32_USB_Device_Library/Core/Src/usbd_core.c **** 
  77:USB/STM32_USB_Device_Library/Core/Src/usbd_core.c **** /** @defgroup USBD_CORE_Private_Functions
  78:USB/STM32_USB_Device_Library/Core/Src/usbd_core.c **** * @{
  79:USB/STM32_USB_Device_Library/Core/Src/usbd_core.c **** */
  80:USB/STM32_USB_Device_Library/Core/Src/usbd_core.c **** 
  81:USB/STM32_USB_Device_Library/Core/Src/usbd_core.c **** /**
  82:USB/STM32_USB_Device_Library/Core/Src/usbd_core.c **** * @brief  USBD_Init
  83:USB/STM32_USB_Device_Library/Core/Src/usbd_core.c **** *         Initializes the device stack and load the class driver
  84:USB/STM32_USB_Device_Library/Core/Src/usbd_core.c **** * @param  pdev: device instance
  85:USB/STM32_USB_Device_Library/Core/Src/usbd_core.c **** * @param  pdesc: Descriptor structure address
  86:USB/STM32_USB_Device_Library/Core/Src/usbd_core.c **** * @param  id: Low level core index
  87:USB/STM32_USB_Device_Library/Core/Src/usbd_core.c **** * @retval None
ARM GAS  C:\Users\HUAV\AppData\Local\Temp\ccztxGrf.s 			page 3


  88:USB/STM32_USB_Device_Library/Core/Src/usbd_core.c **** */
  89:USB/STM32_USB_Device_Library/Core/Src/usbd_core.c **** USBD_StatusTypeDef USBD_Init(USBD_HandleTypeDef *pdev,
  90:USB/STM32_USB_Device_Library/Core/Src/usbd_core.c ****                              USBD_DescriptorsTypeDef *pdesc, uint8_t id)
  91:USB/STM32_USB_Device_Library/Core/Src/usbd_core.c **** {
  29              		.loc 1 91 1 view -0
  30              		.cfi_startproc
  31              		@ args = 0, pretend = 0, frame = 0
  32              		@ frame_needed = 0, uses_anonymous_args = 0
  92:USB/STM32_USB_Device_Library/Core/Src/usbd_core.c ****   USBD_StatusTypeDef ret;
  33              		.loc 1 92 3 view .LVU1
  93:USB/STM32_USB_Device_Library/Core/Src/usbd_core.c **** 
  94:USB/STM32_USB_Device_Library/Core/Src/usbd_core.c ****   /* Check whether the USB Host handle is valid */
  95:USB/STM32_USB_Device_Library/Core/Src/usbd_core.c ****   if (pdev == NULL)
  34              		.loc 1 95 3 view .LVU2
  35              		.loc 1 95 6 is_stmt 0 view .LVU3
  36 0000 C0B1     		cbz	r0, .L6
  91:USB/STM32_USB_Device_Library/Core/Src/usbd_core.c ****   USBD_StatusTypeDef ret;
  37              		.loc 1 91 1 view .LVU4
  38 0002 08B5     		push	{r3, lr}
  39              	.LCFI0:
  40              		.cfi_def_cfa_offset 8
  41              		.cfi_offset 3, -8
  42              		.cfi_offset 14, -4
  43 0004 0346     		mov	r3, r0
  96:USB/STM32_USB_Device_Library/Core/Src/usbd_core.c ****   {
  97:USB/STM32_USB_Device_Library/Core/Src/usbd_core.c **** #if (USBD_DEBUG_LEVEL > 1U)
  98:USB/STM32_USB_Device_Library/Core/Src/usbd_core.c ****     USBD_ErrLog("Invalid Device handle");
  99:USB/STM32_USB_Device_Library/Core/Src/usbd_core.c **** #endif
 100:USB/STM32_USB_Device_Library/Core/Src/usbd_core.c ****     return USBD_FAIL;
 101:USB/STM32_USB_Device_Library/Core/Src/usbd_core.c ****   }
 102:USB/STM32_USB_Device_Library/Core/Src/usbd_core.c **** 
 103:USB/STM32_USB_Device_Library/Core/Src/usbd_core.c ****   /* Unlink previous class */
 104:USB/STM32_USB_Device_Library/Core/Src/usbd_core.c ****   if (pdev->pClass != NULL)
  44              		.loc 1 104 3 is_stmt 1 view .LVU5
  45              		.loc 1 104 11 is_stmt 0 view .LVU6
  46 0006 D0F8B802 		ldr	r0, [r0, #696]
  47              	.LVL1:
  48              		.loc 1 104 6 view .LVU7
  49 000a 10B1     		cbz	r0, .L3
 105:USB/STM32_USB_Device_Library/Core/Src/usbd_core.c ****   {
 106:USB/STM32_USB_Device_Library/Core/Src/usbd_core.c ****     pdev->pClass = NULL;
  50              		.loc 1 106 5 is_stmt 1 view .LVU8
  51              		.loc 1 106 18 is_stmt 0 view .LVU9
  52 000c 0020     		movs	r0, #0
  53 000e C3F8B802 		str	r0, [r3, #696]
  54              	.L3:
 107:USB/STM32_USB_Device_Library/Core/Src/usbd_core.c ****   }
 108:USB/STM32_USB_Device_Library/Core/Src/usbd_core.c **** 
 109:USB/STM32_USB_Device_Library/Core/Src/usbd_core.c ****   if (pdev->pConfDesc != NULL)
  55              		.loc 1 109 3 is_stmt 1 view .LVU10
  56              		.loc 1 109 11 is_stmt 0 view .LVU11
  57 0012 D3F8CC02 		ldr	r0, [r3, #716]
  58              		.loc 1 109 6 view .LVU12
  59 0016 10B1     		cbz	r0, .L4
 110:USB/STM32_USB_Device_Library/Core/Src/usbd_core.c ****   {
 111:USB/STM32_USB_Device_Library/Core/Src/usbd_core.c ****     pdev->pConfDesc = NULL;
  60              		.loc 1 111 5 is_stmt 1 view .LVU13
ARM GAS  C:\Users\HUAV\AppData\Local\Temp\ccztxGrf.s 			page 4


  61              		.loc 1 111 21 is_stmt 0 view .LVU14
  62 0018 0020     		movs	r0, #0
  63 001a C3F8CC02 		str	r0, [r3, #716]
  64              	.L4:
 112:USB/STM32_USB_Device_Library/Core/Src/usbd_core.c ****   }
 113:USB/STM32_USB_Device_Library/Core/Src/usbd_core.c **** 
 114:USB/STM32_USB_Device_Library/Core/Src/usbd_core.c ****   /* Assign USBD Descriptors */
 115:USB/STM32_USB_Device_Library/Core/Src/usbd_core.c ****   if (pdesc != NULL)
  65              		.loc 1 115 3 is_stmt 1 view .LVU15
  66              		.loc 1 115 6 is_stmt 0 view .LVU16
  67 001e 09B1     		cbz	r1, .L5
 116:USB/STM32_USB_Device_Library/Core/Src/usbd_core.c ****   {
 117:USB/STM32_USB_Device_Library/Core/Src/usbd_core.c ****     pdev->pDesc = pdesc;
  68              		.loc 1 117 5 is_stmt 1 view .LVU17
  69              		.loc 1 117 17 is_stmt 0 view .LVU18
  70 0020 C3F8B412 		str	r1, [r3, #692]
  71              	.L5:
 118:USB/STM32_USB_Device_Library/Core/Src/usbd_core.c ****   }
 119:USB/STM32_USB_Device_Library/Core/Src/usbd_core.c **** 
 120:USB/STM32_USB_Device_Library/Core/Src/usbd_core.c ****   /* Set Device initial State */
 121:USB/STM32_USB_Device_Library/Core/Src/usbd_core.c ****   pdev->dev_state = USBD_STATE_DEFAULT;
  72              		.loc 1 121 3 is_stmt 1 view .LVU19
  73              		.loc 1 121 19 is_stmt 0 view .LVU20
  74 0024 0121     		movs	r1, #1
  75              	.LVL2:
  76              		.loc 1 121 19 view .LVU21
  77 0026 83F89C12 		strb	r1, [r3, #668]
 122:USB/STM32_USB_Device_Library/Core/Src/usbd_core.c ****   pdev->id = id;
  78              		.loc 1 122 3 is_stmt 1 view .LVU22
  79              		.loc 1 122 12 is_stmt 0 view .LVU23
  80 002a 1A70     		strb	r2, [r3]
 123:USB/STM32_USB_Device_Library/Core/Src/usbd_core.c **** 
 124:USB/STM32_USB_Device_Library/Core/Src/usbd_core.c ****   /* Initialize low level driver */
 125:USB/STM32_USB_Device_Library/Core/Src/usbd_core.c ****   ret = USBD_LL_Init(pdev);
  81              		.loc 1 125 3 is_stmt 1 view .LVU24
  82              		.loc 1 125 9 is_stmt 0 view .LVU25
  83 002c 1846     		mov	r0, r3
  84 002e FFF7FEFF 		bl	USBD_LL_Init
  85              	.LVL3:
 126:USB/STM32_USB_Device_Library/Core/Src/usbd_core.c **** 
 127:USB/STM32_USB_Device_Library/Core/Src/usbd_core.c ****   return ret;
  86              		.loc 1 127 3 is_stmt 1 view .LVU26
 128:USB/STM32_USB_Device_Library/Core/Src/usbd_core.c **** }
  87              		.loc 1 128 1 is_stmt 0 view .LVU27
  88 0032 08BD     		pop	{r3, pc}
  89              	.LVL4:
  90              	.L6:
  91              	.LCFI1:
  92              		.cfi_def_cfa_offset 0
  93              		.cfi_restore 3
  94              		.cfi_restore 14
 100:USB/STM32_USB_Device_Library/Core/Src/usbd_core.c ****   }
  95              		.loc 1 100 12 view .LVU28
  96 0034 0320     		movs	r0, #3
  97              	.LVL5:
  98              		.loc 1 128 1 view .LVU29
  99 0036 7047     		bx	lr
ARM GAS  C:\Users\HUAV\AppData\Local\Temp\ccztxGrf.s 			page 5


 100              		.cfi_endproc
 101              	.LFE148:
 103              		.section	.text.USBD_DeInit,"ax",%progbits
 104              		.align	1
 105              		.global	USBD_DeInit
 106              		.syntax unified
 107              		.thumb
 108              		.thumb_func
 110              	USBD_DeInit:
 111              	.LVL6:
 112              	.LFB149:
 129:USB/STM32_USB_Device_Library/Core/Src/usbd_core.c **** 
 130:USB/STM32_USB_Device_Library/Core/Src/usbd_core.c **** /**
 131:USB/STM32_USB_Device_Library/Core/Src/usbd_core.c **** * @brief  USBD_DeInit
 132:USB/STM32_USB_Device_Library/Core/Src/usbd_core.c **** *         Re-Initialize th device library
 133:USB/STM32_USB_Device_Library/Core/Src/usbd_core.c **** * @param  pdev: device instance
 134:USB/STM32_USB_Device_Library/Core/Src/usbd_core.c **** * @retval status: status
 135:USB/STM32_USB_Device_Library/Core/Src/usbd_core.c **** */
 136:USB/STM32_USB_Device_Library/Core/Src/usbd_core.c **** USBD_StatusTypeDef USBD_DeInit(USBD_HandleTypeDef *pdev)
 137:USB/STM32_USB_Device_Library/Core/Src/usbd_core.c **** {
 113              		.loc 1 137 1 is_stmt 1 view -0
 114              		.cfi_startproc
 115              		@ args = 0, pretend = 0, frame = 0
 116              		@ frame_needed = 0, uses_anonymous_args = 0
 117              		.loc 1 137 1 is_stmt 0 view .LVU31
 118 0000 10B5     		push	{r4, lr}
 119              	.LCFI2:
 120              		.cfi_def_cfa_offset 8
 121              		.cfi_offset 4, -8
 122              		.cfi_offset 14, -4
 123 0002 0446     		mov	r4, r0
 138:USB/STM32_USB_Device_Library/Core/Src/usbd_core.c ****   USBD_StatusTypeDef ret;
 124              		.loc 1 138 3 is_stmt 1 view .LVU32
 139:USB/STM32_USB_Device_Library/Core/Src/usbd_core.c **** 
 140:USB/STM32_USB_Device_Library/Core/Src/usbd_core.c ****   /* Set Default State */
 141:USB/STM32_USB_Device_Library/Core/Src/usbd_core.c ****   pdev->dev_state = USBD_STATE_DEFAULT;
 125              		.loc 1 141 3 view .LVU33
 126              		.loc 1 141 19 is_stmt 0 view .LVU34
 127 0004 0123     		movs	r3, #1
 128 0006 80F89C32 		strb	r3, [r0, #668]
 142:USB/STM32_USB_Device_Library/Core/Src/usbd_core.c **** 
 143:USB/STM32_USB_Device_Library/Core/Src/usbd_core.c ****   /* Free Class Resources */
 144:USB/STM32_USB_Device_Library/Core/Src/usbd_core.c ****   if (pdev->pClass != NULL)
 129              		.loc 1 144 3 is_stmt 1 view .LVU35
 130              		.loc 1 144 11 is_stmt 0 view .LVU36
 131 000a D0F8B832 		ldr	r3, [r0, #696]
 132              		.loc 1 144 6 view .LVU37
 133 000e 13B1     		cbz	r3, .L12
 145:USB/STM32_USB_Device_Library/Core/Src/usbd_core.c ****   {
 146:USB/STM32_USB_Device_Library/Core/Src/usbd_core.c ****     pdev->pClass->DeInit(pdev, (uint8_t)pdev->dev_config);
 134              		.loc 1 146 5 is_stmt 1 view .LVU38
 135              		.loc 1 146 17 is_stmt 0 view .LVU39
 136 0010 5B68     		ldr	r3, [r3, #4]
 137              		.loc 1 146 5 view .LVU40
 138 0012 0179     		ldrb	r1, [r0, #4]	@ zero_extendqisi2
 139 0014 9847     		blx	r3
 140              	.LVL7:
ARM GAS  C:\Users\HUAV\AppData\Local\Temp\ccztxGrf.s 			page 6


 141              	.L12:
 147:USB/STM32_USB_Device_Library/Core/Src/usbd_core.c ****   }
 148:USB/STM32_USB_Device_Library/Core/Src/usbd_core.c **** 
 149:USB/STM32_USB_Device_Library/Core/Src/usbd_core.c ****   if (pdev->pConfDesc != NULL)
 142              		.loc 1 149 3 is_stmt 1 view .LVU41
 143              		.loc 1 149 11 is_stmt 0 view .LVU42
 144 0016 D4F8CC32 		ldr	r3, [r4, #716]
 145              		.loc 1 149 6 view .LVU43
 146 001a 13B1     		cbz	r3, .L13
 150:USB/STM32_USB_Device_Library/Core/Src/usbd_core.c ****   {
 151:USB/STM32_USB_Device_Library/Core/Src/usbd_core.c ****     pdev->pConfDesc = NULL;
 147              		.loc 1 151 5 is_stmt 1 view .LVU44
 148              		.loc 1 151 21 is_stmt 0 view .LVU45
 149 001c 0023     		movs	r3, #0
 150 001e C4F8CC32 		str	r3, [r4, #716]
 151              	.L13:
 152:USB/STM32_USB_Device_Library/Core/Src/usbd_core.c ****   }
 153:USB/STM32_USB_Device_Library/Core/Src/usbd_core.c **** 
 154:USB/STM32_USB_Device_Library/Core/Src/usbd_core.c ****   /* Stop the low level driver  */
 155:USB/STM32_USB_Device_Library/Core/Src/usbd_core.c ****   ret = USBD_LL_Stop(pdev);
 152              		.loc 1 155 3 is_stmt 1 view .LVU46
 153              		.loc 1 155 9 is_stmt 0 view .LVU47
 154 0022 2046     		mov	r0, r4
 155 0024 FFF7FEFF 		bl	USBD_LL_Stop
 156              	.LVL8:
 156:USB/STM32_USB_Device_Library/Core/Src/usbd_core.c **** 
 157:USB/STM32_USB_Device_Library/Core/Src/usbd_core.c ****   if (ret != USBD_OK)
 157              		.loc 1 157 3 is_stmt 1 view .LVU48
 158              		.loc 1 157 6 is_stmt 0 view .LVU49
 159 0028 00B1     		cbz	r0, .L16
 160              	.L14:
 158:USB/STM32_USB_Device_Library/Core/Src/usbd_core.c ****   {
 159:USB/STM32_USB_Device_Library/Core/Src/usbd_core.c ****     return ret;
 160:USB/STM32_USB_Device_Library/Core/Src/usbd_core.c ****   }
 161:USB/STM32_USB_Device_Library/Core/Src/usbd_core.c **** 
 162:USB/STM32_USB_Device_Library/Core/Src/usbd_core.c ****   /* Initialize low level driver */
 163:USB/STM32_USB_Device_Library/Core/Src/usbd_core.c ****   ret = USBD_LL_DeInit(pdev);
 164:USB/STM32_USB_Device_Library/Core/Src/usbd_core.c **** 
 165:USB/STM32_USB_Device_Library/Core/Src/usbd_core.c ****   return ret;
 166:USB/STM32_USB_Device_Library/Core/Src/usbd_core.c **** }
 161              		.loc 1 166 1 view .LVU50
 162 002a 10BD     		pop	{r4, pc}
 163              	.LVL9:
 164              	.L16:
 163:USB/STM32_USB_Device_Library/Core/Src/usbd_core.c **** 
 165              		.loc 1 163 3 is_stmt 1 view .LVU51
 163:USB/STM32_USB_Device_Library/Core/Src/usbd_core.c **** 
 166              		.loc 1 163 9 is_stmt 0 view .LVU52
 167 002c 2046     		mov	r0, r4
 168              	.LVL10:
 163:USB/STM32_USB_Device_Library/Core/Src/usbd_core.c **** 
 169              		.loc 1 163 9 view .LVU53
 170 002e FFF7FEFF 		bl	USBD_LL_DeInit
 171              	.LVL11:
 165:USB/STM32_USB_Device_Library/Core/Src/usbd_core.c **** }
 172              		.loc 1 165 3 is_stmt 1 view .LVU54
 165:USB/STM32_USB_Device_Library/Core/Src/usbd_core.c **** }
ARM GAS  C:\Users\HUAV\AppData\Local\Temp\ccztxGrf.s 			page 7


 173              		.loc 1 165 10 is_stmt 0 view .LVU55
 174 0032 FAE7     		b	.L14
 175              		.cfi_endproc
 176              	.LFE149:
 178              		.section	.text.USBD_RegisterClass,"ax",%progbits
 179              		.align	1
 180              		.global	USBD_RegisterClass
 181              		.syntax unified
 182              		.thumb
 183              		.thumb_func
 185              	USBD_RegisterClass:
 186              	.LVL12:
 187              	.LFB150:
 167:USB/STM32_USB_Device_Library/Core/Src/usbd_core.c **** 
 168:USB/STM32_USB_Device_Library/Core/Src/usbd_core.c **** /**
 169:USB/STM32_USB_Device_Library/Core/Src/usbd_core.c ****   * @brief  USBD_RegisterClass
 170:USB/STM32_USB_Device_Library/Core/Src/usbd_core.c ****   *         Link class driver to Device Core.
 171:USB/STM32_USB_Device_Library/Core/Src/usbd_core.c ****   * @param  pDevice : Device Handle
 172:USB/STM32_USB_Device_Library/Core/Src/usbd_core.c ****   * @param  pclass: Class handle
 173:USB/STM32_USB_Device_Library/Core/Src/usbd_core.c ****   * @retval USBD Status
 174:USB/STM32_USB_Device_Library/Core/Src/usbd_core.c ****   */
 175:USB/STM32_USB_Device_Library/Core/Src/usbd_core.c **** USBD_StatusTypeDef USBD_RegisterClass(USBD_HandleTypeDef *pdev, USBD_ClassTypeDef *pclass)
 176:USB/STM32_USB_Device_Library/Core/Src/usbd_core.c **** {
 188              		.loc 1 176 1 is_stmt 1 view -0
 189              		.cfi_startproc
 190              		@ args = 0, pretend = 0, frame = 8
 191              		@ frame_needed = 0, uses_anonymous_args = 0
 192              		.loc 1 176 1 is_stmt 0 view .LVU57
 193 0000 10B5     		push	{r4, lr}
 194              	.LCFI3:
 195              		.cfi_def_cfa_offset 8
 196              		.cfi_offset 4, -8
 197              		.cfi_offset 14, -4
 198 0002 82B0     		sub	sp, sp, #8
 199              	.LCFI4:
 200              		.cfi_def_cfa_offset 16
 177:USB/STM32_USB_Device_Library/Core/Src/usbd_core.c ****   uint16_t len = 0U;
 201              		.loc 1 177 3 is_stmt 1 view .LVU58
 202              		.loc 1 177 12 is_stmt 0 view .LVU59
 203 0004 0023     		movs	r3, #0
 204 0006 ADF80630 		strh	r3, [sp, #6]	@ movhi
 178:USB/STM32_USB_Device_Library/Core/Src/usbd_core.c **** 
 179:USB/STM32_USB_Device_Library/Core/Src/usbd_core.c ****   if (pclass == NULL)
 205              		.loc 1 179 3 is_stmt 1 view .LVU60
 206              		.loc 1 179 6 is_stmt 0 view .LVU61
 207 000a 59B1     		cbz	r1, .L19
 208 000c 0446     		mov	r4, r0
 180:USB/STM32_USB_Device_Library/Core/Src/usbd_core.c ****   {
 181:USB/STM32_USB_Device_Library/Core/Src/usbd_core.c **** #if (USBD_DEBUG_LEVEL > 1U)
 182:USB/STM32_USB_Device_Library/Core/Src/usbd_core.c ****     USBD_ErrLog("Invalid Class handle");
 183:USB/STM32_USB_Device_Library/Core/Src/usbd_core.c **** #endif
 184:USB/STM32_USB_Device_Library/Core/Src/usbd_core.c ****     return USBD_FAIL;
 185:USB/STM32_USB_Device_Library/Core/Src/usbd_core.c ****   }
 186:USB/STM32_USB_Device_Library/Core/Src/usbd_core.c **** 
 187:USB/STM32_USB_Device_Library/Core/Src/usbd_core.c ****   /* link the class to the USB Device handle */
 188:USB/STM32_USB_Device_Library/Core/Src/usbd_core.c ****   pdev->pClass = pclass;
 209              		.loc 1 188 3 is_stmt 1 view .LVU62
ARM GAS  C:\Users\HUAV\AppData\Local\Temp\ccztxGrf.s 			page 8


 210              		.loc 1 188 16 is_stmt 0 view .LVU63
 211 000e C0F8B812 		str	r1, [r0, #696]
 189:USB/STM32_USB_Device_Library/Core/Src/usbd_core.c **** 
 190:USB/STM32_USB_Device_Library/Core/Src/usbd_core.c ****   /* Get Device Configuration Descriptor */
 191:USB/STM32_USB_Device_Library/Core/Src/usbd_core.c **** #ifdef USE_USB_FS
 192:USB/STM32_USB_Device_Library/Core/Src/usbd_core.c ****   pdev->pConfDesc = (void *)pdev->pClass->GetFSConfigDescriptor(&len);
 193:USB/STM32_USB_Device_Library/Core/Src/usbd_core.c **** #else /* USE_USB_HS */
 194:USB/STM32_USB_Device_Library/Core/Src/usbd_core.c ****   pdev->pConfDesc = (void *)pdev->pClass->GetHSConfigDescriptor(&len);
 212              		.loc 1 194 3 is_stmt 1 view .LVU64
 213              		.loc 1 194 41 is_stmt 0 view .LVU65
 214 0012 8B6A     		ldr	r3, [r1, #40]
 215              		.loc 1 194 29 view .LVU66
 216 0014 0DF10600 		add	r0, sp, #6
 217              	.LVL13:
 218              		.loc 1 194 29 view .LVU67
 219 0018 9847     		blx	r3
 220              	.LVL14:
 221              		.loc 1 194 19 view .LVU68
 222 001a C4F8CC02 		str	r0, [r4, #716]
 195:USB/STM32_USB_Device_Library/Core/Src/usbd_core.c **** #endif /* USE_USB_FS */
 196:USB/STM32_USB_Device_Library/Core/Src/usbd_core.c **** 
 197:USB/STM32_USB_Device_Library/Core/Src/usbd_core.c **** 
 198:USB/STM32_USB_Device_Library/Core/Src/usbd_core.c ****   return USBD_OK;
 223              		.loc 1 198 3 is_stmt 1 view .LVU69
 224              		.loc 1 198 10 is_stmt 0 view .LVU70
 225 001e 0020     		movs	r0, #0
 226              	.LVL15:
 227              	.L18:
 199:USB/STM32_USB_Device_Library/Core/Src/usbd_core.c **** }
 228              		.loc 1 199 1 view .LVU71
 229 0020 02B0     		add	sp, sp, #8
 230              	.LCFI5:
 231              		.cfi_remember_state
 232              		.cfi_def_cfa_offset 8
 233              		@ sp needed
 234 0022 10BD     		pop	{r4, pc}
 235              	.LVL16:
 236              	.L19:
 237              	.LCFI6:
 238              		.cfi_restore_state
 184:USB/STM32_USB_Device_Library/Core/Src/usbd_core.c ****   }
 239              		.loc 1 184 12 view .LVU72
 240 0024 0320     		movs	r0, #3
 241              	.LVL17:
 184:USB/STM32_USB_Device_Library/Core/Src/usbd_core.c ****   }
 242              		.loc 1 184 12 view .LVU73
 243 0026 FBE7     		b	.L18
 244              		.cfi_endproc
 245              	.LFE150:
 247              		.section	.text.USBD_Start,"ax",%progbits
 248              		.align	1
 249              		.global	USBD_Start
 250              		.syntax unified
 251              		.thumb
 252              		.thumb_func
 254              	USBD_Start:
 255              	.LVL18:
ARM GAS  C:\Users\HUAV\AppData\Local\Temp\ccztxGrf.s 			page 9


 256              	.LFB151:
 200:USB/STM32_USB_Device_Library/Core/Src/usbd_core.c **** 
 201:USB/STM32_USB_Device_Library/Core/Src/usbd_core.c **** /**
 202:USB/STM32_USB_Device_Library/Core/Src/usbd_core.c ****   * @brief  USBD_Start
 203:USB/STM32_USB_Device_Library/Core/Src/usbd_core.c ****   *         Start the USB Device Core.
 204:USB/STM32_USB_Device_Library/Core/Src/usbd_core.c ****   * @param  pdev: Device Handle
 205:USB/STM32_USB_Device_Library/Core/Src/usbd_core.c ****   * @retval USBD Status
 206:USB/STM32_USB_Device_Library/Core/Src/usbd_core.c ****   */
 207:USB/STM32_USB_Device_Library/Core/Src/usbd_core.c **** USBD_StatusTypeDef USBD_Start(USBD_HandleTypeDef *pdev)
 208:USB/STM32_USB_Device_Library/Core/Src/usbd_core.c **** {
 257              		.loc 1 208 1 is_stmt 1 view -0
 258              		.cfi_startproc
 259              		@ args = 0, pretend = 0, frame = 0
 260              		@ frame_needed = 0, uses_anonymous_args = 0
 261              		.loc 1 208 1 is_stmt 0 view .LVU75
 262 0000 08B5     		push	{r3, lr}
 263              	.LCFI7:
 264              		.cfi_def_cfa_offset 8
 265              		.cfi_offset 3, -8
 266              		.cfi_offset 14, -4
 209:USB/STM32_USB_Device_Library/Core/Src/usbd_core.c ****   /* Start the low level driver  */
 210:USB/STM32_USB_Device_Library/Core/Src/usbd_core.c ****   return USBD_LL_Start(pdev);
 267              		.loc 1 210 3 is_stmt 1 view .LVU76
 268              		.loc 1 210 10 is_stmt 0 view .LVU77
 269 0002 FFF7FEFF 		bl	USBD_LL_Start
 270              	.LVL19:
 211:USB/STM32_USB_Device_Library/Core/Src/usbd_core.c **** }
 271              		.loc 1 211 1 view .LVU78
 272 0006 08BD     		pop	{r3, pc}
 273              		.cfi_endproc
 274              	.LFE151:
 276              		.section	.text.USBD_Stop,"ax",%progbits
 277              		.align	1
 278              		.global	USBD_Stop
 279              		.syntax unified
 280              		.thumb
 281              		.thumb_func
 283              	USBD_Stop:
 284              	.LVL20:
 285              	.LFB152:
 212:USB/STM32_USB_Device_Library/Core/Src/usbd_core.c **** 
 213:USB/STM32_USB_Device_Library/Core/Src/usbd_core.c **** /**
 214:USB/STM32_USB_Device_Library/Core/Src/usbd_core.c ****   * @brief  USBD_Stop
 215:USB/STM32_USB_Device_Library/Core/Src/usbd_core.c ****   *         Stop the USB Device Core.
 216:USB/STM32_USB_Device_Library/Core/Src/usbd_core.c ****   * @param  pdev: Device Handle
 217:USB/STM32_USB_Device_Library/Core/Src/usbd_core.c ****   * @retval USBD Status
 218:USB/STM32_USB_Device_Library/Core/Src/usbd_core.c ****   */
 219:USB/STM32_USB_Device_Library/Core/Src/usbd_core.c **** USBD_StatusTypeDef USBD_Stop(USBD_HandleTypeDef *pdev)
 220:USB/STM32_USB_Device_Library/Core/Src/usbd_core.c **** {
 286              		.loc 1 220 1 is_stmt 1 view -0
 287              		.cfi_startproc
 288              		@ args = 0, pretend = 0, frame = 0
 289              		@ frame_needed = 0, uses_anonymous_args = 0
 290              		.loc 1 220 1 is_stmt 0 view .LVU80
 291 0000 10B5     		push	{r4, lr}
 292              	.LCFI8:
 293              		.cfi_def_cfa_offset 8
ARM GAS  C:\Users\HUAV\AppData\Local\Temp\ccztxGrf.s 			page 10


 294              		.cfi_offset 4, -8
 295              		.cfi_offset 14, -4
 296 0002 0446     		mov	r4, r0
 221:USB/STM32_USB_Device_Library/Core/Src/usbd_core.c ****   USBD_StatusTypeDef ret;
 297              		.loc 1 221 3 is_stmt 1 view .LVU81
 222:USB/STM32_USB_Device_Library/Core/Src/usbd_core.c **** 
 223:USB/STM32_USB_Device_Library/Core/Src/usbd_core.c ****   /* Free Class Resources */
 224:USB/STM32_USB_Device_Library/Core/Src/usbd_core.c ****   if (pdev->pClass != NULL)
 298              		.loc 1 224 3 view .LVU82
 299              		.loc 1 224 11 is_stmt 0 view .LVU83
 300 0004 D0F8B832 		ldr	r3, [r0, #696]
 301              		.loc 1 224 6 view .LVU84
 302 0008 13B1     		cbz	r3, .L24
 225:USB/STM32_USB_Device_Library/Core/Src/usbd_core.c ****   {
 226:USB/STM32_USB_Device_Library/Core/Src/usbd_core.c ****     pdev->pClass->DeInit(pdev, (uint8_t)pdev->dev_config);
 303              		.loc 1 226 5 is_stmt 1 view .LVU85
 304              		.loc 1 226 17 is_stmt 0 view .LVU86
 305 000a 5B68     		ldr	r3, [r3, #4]
 306              		.loc 1 226 5 view .LVU87
 307 000c 0179     		ldrb	r1, [r0, #4]	@ zero_extendqisi2
 308 000e 9847     		blx	r3
 309              	.LVL21:
 310              	.L24:
 227:USB/STM32_USB_Device_Library/Core/Src/usbd_core.c ****   }
 228:USB/STM32_USB_Device_Library/Core/Src/usbd_core.c **** 
 229:USB/STM32_USB_Device_Library/Core/Src/usbd_core.c ****   if (pdev->pConfDesc != NULL)
 311              		.loc 1 229 3 is_stmt 1 view .LVU88
 312              		.loc 1 229 11 is_stmt 0 view .LVU89
 313 0010 D4F8CC32 		ldr	r3, [r4, #716]
 314              		.loc 1 229 6 view .LVU90
 315 0014 13B1     		cbz	r3, .L25
 230:USB/STM32_USB_Device_Library/Core/Src/usbd_core.c ****   {
 231:USB/STM32_USB_Device_Library/Core/Src/usbd_core.c ****     pdev->pConfDesc = NULL;
 316              		.loc 1 231 5 is_stmt 1 view .LVU91
 317              		.loc 1 231 21 is_stmt 0 view .LVU92
 318 0016 0023     		movs	r3, #0
 319 0018 C4F8CC32 		str	r3, [r4, #716]
 320              	.L25:
 232:USB/STM32_USB_Device_Library/Core/Src/usbd_core.c ****   }
 233:USB/STM32_USB_Device_Library/Core/Src/usbd_core.c **** 
 234:USB/STM32_USB_Device_Library/Core/Src/usbd_core.c ****   /* Stop the low level driver */
 235:USB/STM32_USB_Device_Library/Core/Src/usbd_core.c ****   ret = USBD_LL_Stop(pdev);
 321              		.loc 1 235 3 is_stmt 1 view .LVU93
 322              		.loc 1 235 9 is_stmt 0 view .LVU94
 323 001c 2046     		mov	r0, r4
 324 001e FFF7FEFF 		bl	USBD_LL_Stop
 325              	.LVL22:
 236:USB/STM32_USB_Device_Library/Core/Src/usbd_core.c **** 
 237:USB/STM32_USB_Device_Library/Core/Src/usbd_core.c ****   return ret;
 326              		.loc 1 237 3 is_stmt 1 view .LVU95
 238:USB/STM32_USB_Device_Library/Core/Src/usbd_core.c **** }
 327              		.loc 1 238 1 is_stmt 0 view .LVU96
 328 0022 10BD     		pop	{r4, pc}
 329              		.loc 1 238 1 view .LVU97
 330              		.cfi_endproc
 331              	.LFE152:
 333              		.section	.text.USBD_RunTestMode,"ax",%progbits
ARM GAS  C:\Users\HUAV\AppData\Local\Temp\ccztxGrf.s 			page 11


 334              		.align	1
 335              		.global	USBD_RunTestMode
 336              		.syntax unified
 337              		.thumb
 338              		.thumb_func
 340              	USBD_RunTestMode:
 341              	.LVL23:
 342              	.LFB153:
 239:USB/STM32_USB_Device_Library/Core/Src/usbd_core.c **** 
 240:USB/STM32_USB_Device_Library/Core/Src/usbd_core.c **** /**
 241:USB/STM32_USB_Device_Library/Core/Src/usbd_core.c **** * @brief  USBD_RunTestMode
 242:USB/STM32_USB_Device_Library/Core/Src/usbd_core.c **** *         Launch test mode process
 243:USB/STM32_USB_Device_Library/Core/Src/usbd_core.c **** * @param  pdev: device instance
 244:USB/STM32_USB_Device_Library/Core/Src/usbd_core.c **** * @retval status
 245:USB/STM32_USB_Device_Library/Core/Src/usbd_core.c **** */
 246:USB/STM32_USB_Device_Library/Core/Src/usbd_core.c **** USBD_StatusTypeDef USBD_RunTestMode(USBD_HandleTypeDef  *pdev)
 247:USB/STM32_USB_Device_Library/Core/Src/usbd_core.c **** {
 343              		.loc 1 247 1 is_stmt 1 view -0
 344              		.cfi_startproc
 345              		@ args = 0, pretend = 0, frame = 0
 346              		@ frame_needed = 0, uses_anonymous_args = 0
 347              		@ link register save eliminated.
 248:USB/STM32_USB_Device_Library/Core/Src/usbd_core.c ****   /* Prevent unused argument compilation warning */
 249:USB/STM32_USB_Device_Library/Core/Src/usbd_core.c ****   UNUSED(pdev);
 348              		.loc 1 249 3 view .LVU99
 250:USB/STM32_USB_Device_Library/Core/Src/usbd_core.c **** 
 251:USB/STM32_USB_Device_Library/Core/Src/usbd_core.c ****   return USBD_OK;
 349              		.loc 1 251 3 view .LVU100
 252:USB/STM32_USB_Device_Library/Core/Src/usbd_core.c **** }
 350              		.loc 1 252 1 is_stmt 0 view .LVU101
 351 0000 0020     		movs	r0, #0
 352              	.LVL24:
 353              		.loc 1 252 1 view .LVU102
 354 0002 7047     		bx	lr
 355              		.cfi_endproc
 356              	.LFE153:
 358              		.section	.text.USBD_SetClassConfig,"ax",%progbits
 359              		.align	1
 360              		.global	USBD_SetClassConfig
 361              		.syntax unified
 362              		.thumb
 363              		.thumb_func
 365              	USBD_SetClassConfig:
 366              	.LVL25:
 367              	.LFB154:
 253:USB/STM32_USB_Device_Library/Core/Src/usbd_core.c **** 
 254:USB/STM32_USB_Device_Library/Core/Src/usbd_core.c **** /**
 255:USB/STM32_USB_Device_Library/Core/Src/usbd_core.c **** * @brief  USBD_SetClassConfig
 256:USB/STM32_USB_Device_Library/Core/Src/usbd_core.c **** *        Configure device and start the interface
 257:USB/STM32_USB_Device_Library/Core/Src/usbd_core.c **** * @param  pdev: device instance
 258:USB/STM32_USB_Device_Library/Core/Src/usbd_core.c **** * @param  cfgidx: configuration index
 259:USB/STM32_USB_Device_Library/Core/Src/usbd_core.c **** * @retval status
 260:USB/STM32_USB_Device_Library/Core/Src/usbd_core.c **** */
 261:USB/STM32_USB_Device_Library/Core/Src/usbd_core.c **** 
 262:USB/STM32_USB_Device_Library/Core/Src/usbd_core.c **** USBD_StatusTypeDef USBD_SetClassConfig(USBD_HandleTypeDef *pdev, uint8_t cfgidx)
 263:USB/STM32_USB_Device_Library/Core/Src/usbd_core.c **** {
 368              		.loc 1 263 1 is_stmt 1 view -0
ARM GAS  C:\Users\HUAV\AppData\Local\Temp\ccztxGrf.s 			page 12


 369              		.cfi_startproc
 370              		@ args = 0, pretend = 0, frame = 0
 371              		@ frame_needed = 0, uses_anonymous_args = 0
 372              		.loc 1 263 1 is_stmt 0 view .LVU104
 373 0000 08B5     		push	{r3, lr}
 374              	.LCFI9:
 375              		.cfi_def_cfa_offset 8
 376              		.cfi_offset 3, -8
 377              		.cfi_offset 14, -4
 264:USB/STM32_USB_Device_Library/Core/Src/usbd_core.c ****   USBD_StatusTypeDef ret = USBD_FAIL;
 378              		.loc 1 264 3 is_stmt 1 view .LVU105
 379              	.LVL26:
 265:USB/STM32_USB_Device_Library/Core/Src/usbd_core.c **** 
 266:USB/STM32_USB_Device_Library/Core/Src/usbd_core.c ****   if (pdev->pClass != NULL)
 380              		.loc 1 266 3 view .LVU106
 381              		.loc 1 266 11 is_stmt 0 view .LVU107
 382 0002 D0F8B832 		ldr	r3, [r0, #696]
 383              		.loc 1 266 6 view .LVU108
 384 0006 13B1     		cbz	r3, .L30
 267:USB/STM32_USB_Device_Library/Core/Src/usbd_core.c ****   {
 268:USB/STM32_USB_Device_Library/Core/Src/usbd_core.c ****     /* Set configuration and Start the Class */
 269:USB/STM32_USB_Device_Library/Core/Src/usbd_core.c ****     ret = (USBD_StatusTypeDef)pdev->pClass->Init(pdev, cfgidx);
 385              		.loc 1 269 5 is_stmt 1 view .LVU109
 386              		.loc 1 269 43 is_stmt 0 view .LVU110
 387 0008 1B68     		ldr	r3, [r3]
 388              		.loc 1 269 31 view .LVU111
 389 000a 9847     		blx	r3
 390              	.LVL27:
 391              	.L29:
 270:USB/STM32_USB_Device_Library/Core/Src/usbd_core.c ****   }
 271:USB/STM32_USB_Device_Library/Core/Src/usbd_core.c **** 
 272:USB/STM32_USB_Device_Library/Core/Src/usbd_core.c ****   return ret;
 392              		.loc 1 272 3 is_stmt 1 view .LVU112
 273:USB/STM32_USB_Device_Library/Core/Src/usbd_core.c **** }
 393              		.loc 1 273 1 is_stmt 0 view .LVU113
 394 000c 08BD     		pop	{r3, pc}
 395              	.LVL28:
 396              	.L30:
 264:USB/STM32_USB_Device_Library/Core/Src/usbd_core.c **** 
 397              		.loc 1 264 22 view .LVU114
 398 000e 0320     		movs	r0, #3
 399              	.LVL29:
 264:USB/STM32_USB_Device_Library/Core/Src/usbd_core.c **** 
 400              		.loc 1 264 22 view .LVU115
 401 0010 FCE7     		b	.L29
 402              		.cfi_endproc
 403              	.LFE154:
 405              		.section	.text.USBD_ClrClassConfig,"ax",%progbits
 406              		.align	1
 407              		.global	USBD_ClrClassConfig
 408              		.syntax unified
 409              		.thumb
 410              		.thumb_func
 412              	USBD_ClrClassConfig:
 413              	.LVL30:
 414              	.LFB155:
 274:USB/STM32_USB_Device_Library/Core/Src/usbd_core.c **** 
ARM GAS  C:\Users\HUAV\AppData\Local\Temp\ccztxGrf.s 			page 13


 275:USB/STM32_USB_Device_Library/Core/Src/usbd_core.c **** /**
 276:USB/STM32_USB_Device_Library/Core/Src/usbd_core.c **** * @brief  USBD_ClrClassConfig
 277:USB/STM32_USB_Device_Library/Core/Src/usbd_core.c **** *         Clear current configuration
 278:USB/STM32_USB_Device_Library/Core/Src/usbd_core.c **** * @param  pdev: device instance
 279:USB/STM32_USB_Device_Library/Core/Src/usbd_core.c **** * @param  cfgidx: configuration index
 280:USB/STM32_USB_Device_Library/Core/Src/usbd_core.c **** * @retval status: USBD_StatusTypeDef
 281:USB/STM32_USB_Device_Library/Core/Src/usbd_core.c **** */
 282:USB/STM32_USB_Device_Library/Core/Src/usbd_core.c **** USBD_StatusTypeDef USBD_ClrClassConfig(USBD_HandleTypeDef *pdev, uint8_t cfgidx)
 283:USB/STM32_USB_Device_Library/Core/Src/usbd_core.c **** {
 415              		.loc 1 283 1 is_stmt 1 view -0
 416              		.cfi_startproc
 417              		@ args = 0, pretend = 0, frame = 0
 418              		@ frame_needed = 0, uses_anonymous_args = 0
 419              		.loc 1 283 1 is_stmt 0 view .LVU117
 420 0000 08B5     		push	{r3, lr}
 421              	.LCFI10:
 422              		.cfi_def_cfa_offset 8
 423              		.cfi_offset 3, -8
 424              		.cfi_offset 14, -4
 284:USB/STM32_USB_Device_Library/Core/Src/usbd_core.c ****   /* Clear configuration and De-initialize the Class process */
 285:USB/STM32_USB_Device_Library/Core/Src/usbd_core.c ****   if (pdev->pClass != NULL)
 425              		.loc 1 285 3 is_stmt 1 view .LVU118
 426              		.loc 1 285 11 is_stmt 0 view .LVU119
 427 0002 D0F8B832 		ldr	r3, [r0, #696]
 428              		.loc 1 285 6 view .LVU120
 429 0006 0BB1     		cbz	r3, .L33
 286:USB/STM32_USB_Device_Library/Core/Src/usbd_core.c ****   {
 287:USB/STM32_USB_Device_Library/Core/Src/usbd_core.c ****     pdev->pClass->DeInit(pdev, cfgidx);
 430              		.loc 1 287 5 is_stmt 1 view .LVU121
 431              		.loc 1 287 17 is_stmt 0 view .LVU122
 432 0008 5B68     		ldr	r3, [r3, #4]
 433              		.loc 1 287 5 view .LVU123
 434 000a 9847     		blx	r3
 435              	.LVL31:
 436              	.L33:
 288:USB/STM32_USB_Device_Library/Core/Src/usbd_core.c ****   }
 289:USB/STM32_USB_Device_Library/Core/Src/usbd_core.c **** 
 290:USB/STM32_USB_Device_Library/Core/Src/usbd_core.c ****   return USBD_OK;
 437              		.loc 1 290 3 is_stmt 1 view .LVU124
 291:USB/STM32_USB_Device_Library/Core/Src/usbd_core.c **** }
 438              		.loc 1 291 1 is_stmt 0 view .LVU125
 439 000c 0020     		movs	r0, #0
 440 000e 08BD     		pop	{r3, pc}
 441              		.cfi_endproc
 442              	.LFE155:
 444              		.section	.text.USBD_LL_SetupStage,"ax",%progbits
 445              		.align	1
 446              		.global	USBD_LL_SetupStage
 447              		.syntax unified
 448              		.thumb
 449              		.thumb_func
 451              	USBD_LL_SetupStage:
 452              	.LVL32:
 453              	.LFB156:
 292:USB/STM32_USB_Device_Library/Core/Src/usbd_core.c **** 
 293:USB/STM32_USB_Device_Library/Core/Src/usbd_core.c **** 
 294:USB/STM32_USB_Device_Library/Core/Src/usbd_core.c **** /**
ARM GAS  C:\Users\HUAV\AppData\Local\Temp\ccztxGrf.s 			page 14


 295:USB/STM32_USB_Device_Library/Core/Src/usbd_core.c **** * @brief  USBD_SetupStage
 296:USB/STM32_USB_Device_Library/Core/Src/usbd_core.c **** *         Handle the setup stage
 297:USB/STM32_USB_Device_Library/Core/Src/usbd_core.c **** * @param  pdev: device instance
 298:USB/STM32_USB_Device_Library/Core/Src/usbd_core.c **** * @retval status
 299:USB/STM32_USB_Device_Library/Core/Src/usbd_core.c **** */
 300:USB/STM32_USB_Device_Library/Core/Src/usbd_core.c **** USBD_StatusTypeDef USBD_LL_SetupStage(USBD_HandleTypeDef *pdev, uint8_t *psetup)
 301:USB/STM32_USB_Device_Library/Core/Src/usbd_core.c **** {
 454              		.loc 1 301 1 is_stmt 1 view -0
 455              		.cfi_startproc
 456              		@ args = 0, pretend = 0, frame = 0
 457              		@ frame_needed = 0, uses_anonymous_args = 0
 458              		.loc 1 301 1 is_stmt 0 view .LVU127
 459 0000 38B5     		push	{r3, r4, r5, lr}
 460              	.LCFI11:
 461              		.cfi_def_cfa_offset 16
 462              		.cfi_offset 3, -16
 463              		.cfi_offset 4, -12
 464              		.cfi_offset 5, -8
 465              		.cfi_offset 14, -4
 466 0002 0446     		mov	r4, r0
 302:USB/STM32_USB_Device_Library/Core/Src/usbd_core.c ****   USBD_StatusTypeDef ret;
 467              		.loc 1 302 3 is_stmt 1 view .LVU128
 303:USB/STM32_USB_Device_Library/Core/Src/usbd_core.c **** 
 304:USB/STM32_USB_Device_Library/Core/Src/usbd_core.c ****   USBD_ParseSetupRequest(&pdev->request, psetup);
 468              		.loc 1 304 3 view .LVU129
 469 0004 00F2AA25 		addw	r5, r0, #682
 470 0008 2846     		mov	r0, r5
 471              	.LVL33:
 472              		.loc 1 304 3 is_stmt 0 view .LVU130
 473 000a FFF7FEFF 		bl	USBD_ParseSetupRequest
 474              	.LVL34:
 305:USB/STM32_USB_Device_Library/Core/Src/usbd_core.c **** 
 306:USB/STM32_USB_Device_Library/Core/Src/usbd_core.c ****   pdev->ep0_state = USBD_EP0_SETUP;
 475              		.loc 1 306 3 is_stmt 1 view .LVU131
 476              		.loc 1 306 19 is_stmt 0 view .LVU132
 477 000e 0123     		movs	r3, #1
 478 0010 C4F89432 		str	r3, [r4, #660]
 307:USB/STM32_USB_Device_Library/Core/Src/usbd_core.c **** 
 308:USB/STM32_USB_Device_Library/Core/Src/usbd_core.c ****   pdev->ep0_data_len = pdev->request.wLength;
 479              		.loc 1 308 3 is_stmt 1 view .LVU133
 480              		.loc 1 308 37 is_stmt 0 view .LVU134
 481 0014 B4F8B032 		ldrh	r3, [r4, #688]
 482              		.loc 1 308 22 view .LVU135
 483 0018 C4F89832 		str	r3, [r4, #664]
 309:USB/STM32_USB_Device_Library/Core/Src/usbd_core.c **** 
 310:USB/STM32_USB_Device_Library/Core/Src/usbd_core.c ****   switch (pdev->request.bmRequest & 0x1FU)
 484              		.loc 1 310 3 is_stmt 1 view .LVU136
 485              		.loc 1 310 24 is_stmt 0 view .LVU137
 486 001c 94F8AA12 		ldrb	r1, [r4, #682]	@ zero_extendqisi2
 487 0020 01F01F03 		and	r3, r1, #31
 488              		.loc 1 310 3 view .LVU138
 489 0024 012B     		cmp	r3, #1
 490 0026 0DD0     		beq	.L36
 491 0028 022B     		cmp	r3, #2
 492 002a 10D0     		beq	.L37
 493 002c 2BB1     		cbz	r3, .L41
 311:USB/STM32_USB_Device_Library/Core/Src/usbd_core.c ****   {
ARM GAS  C:\Users\HUAV\AppData\Local\Temp\ccztxGrf.s 			page 15


 312:USB/STM32_USB_Device_Library/Core/Src/usbd_core.c ****     case USB_REQ_RECIPIENT_DEVICE:
 313:USB/STM32_USB_Device_Library/Core/Src/usbd_core.c ****       ret = USBD_StdDevReq(pdev, &pdev->request);
 314:USB/STM32_USB_Device_Library/Core/Src/usbd_core.c ****       break;
 315:USB/STM32_USB_Device_Library/Core/Src/usbd_core.c **** 
 316:USB/STM32_USB_Device_Library/Core/Src/usbd_core.c ****     case USB_REQ_RECIPIENT_INTERFACE:
 317:USB/STM32_USB_Device_Library/Core/Src/usbd_core.c ****       ret = USBD_StdItfReq(pdev, &pdev->request);
 318:USB/STM32_USB_Device_Library/Core/Src/usbd_core.c ****       break;
 319:USB/STM32_USB_Device_Library/Core/Src/usbd_core.c **** 
 320:USB/STM32_USB_Device_Library/Core/Src/usbd_core.c ****     case USB_REQ_RECIPIENT_ENDPOINT:
 321:USB/STM32_USB_Device_Library/Core/Src/usbd_core.c ****       ret = USBD_StdEPReq(pdev, &pdev->request);
 322:USB/STM32_USB_Device_Library/Core/Src/usbd_core.c ****       break;
 323:USB/STM32_USB_Device_Library/Core/Src/usbd_core.c **** 
 324:USB/STM32_USB_Device_Library/Core/Src/usbd_core.c ****     default:
 325:USB/STM32_USB_Device_Library/Core/Src/usbd_core.c ****       ret = USBD_LL_StallEP(pdev, (pdev->request.bmRequest & 0x80U));
 494              		.loc 1 325 7 is_stmt 1 view .LVU139
 495              		.loc 1 325 13 is_stmt 0 view .LVU140
 496 002e 01F08001 		and	r1, r1, #128
 497 0032 2046     		mov	r0, r4
 498 0034 FFF7FEFF 		bl	USBD_LL_StallEP
 499              	.LVL35:
 326:USB/STM32_USB_Device_Library/Core/Src/usbd_core.c ****       break;
 500              		.loc 1 326 7 is_stmt 1 view .LVU141
 501 0038 03E0     		b	.L39
 502              	.LVL36:
 503              	.L41:
 313:USB/STM32_USB_Device_Library/Core/Src/usbd_core.c ****       break;
 504              		.loc 1 313 7 view .LVU142
 313:USB/STM32_USB_Device_Library/Core/Src/usbd_core.c ****       break;
 505              		.loc 1 313 13 is_stmt 0 view .LVU143
 506 003a 2946     		mov	r1, r5
 507 003c 2046     		mov	r0, r4
 508 003e FFF7FEFF 		bl	USBD_StdDevReq
 509              	.LVL37:
 314:USB/STM32_USB_Device_Library/Core/Src/usbd_core.c **** 
 510              		.loc 1 314 7 is_stmt 1 view .LVU144
 511              	.L39:
 327:USB/STM32_USB_Device_Library/Core/Src/usbd_core.c ****   }
 328:USB/STM32_USB_Device_Library/Core/Src/usbd_core.c **** 
 329:USB/STM32_USB_Device_Library/Core/Src/usbd_core.c ****   return ret;
 512              		.loc 1 329 3 view .LVU145
 330:USB/STM32_USB_Device_Library/Core/Src/usbd_core.c **** }
 513              		.loc 1 330 1 is_stmt 0 view .LVU146
 514 0042 38BD     		pop	{r3, r4, r5, pc}
 515              	.LVL38:
 516              	.L36:
 317:USB/STM32_USB_Device_Library/Core/Src/usbd_core.c ****       break;
 517              		.loc 1 317 7 is_stmt 1 view .LVU147
 317:USB/STM32_USB_Device_Library/Core/Src/usbd_core.c ****       break;
 518              		.loc 1 317 13 is_stmt 0 view .LVU148
 519 0044 2946     		mov	r1, r5
 520 0046 2046     		mov	r0, r4
 521 0048 FFF7FEFF 		bl	USBD_StdItfReq
 522              	.LVL39:
 318:USB/STM32_USB_Device_Library/Core/Src/usbd_core.c **** 
 523              		.loc 1 318 7 is_stmt 1 view .LVU149
 524 004c F9E7     		b	.L39
 525              	.LVL40:
ARM GAS  C:\Users\HUAV\AppData\Local\Temp\ccztxGrf.s 			page 16


 526              	.L37:
 321:USB/STM32_USB_Device_Library/Core/Src/usbd_core.c ****       break;
 527              		.loc 1 321 7 view .LVU150
 321:USB/STM32_USB_Device_Library/Core/Src/usbd_core.c ****       break;
 528              		.loc 1 321 13 is_stmt 0 view .LVU151
 529 004e 2946     		mov	r1, r5
 530 0050 2046     		mov	r0, r4
 531 0052 FFF7FEFF 		bl	USBD_StdEPReq
 532              	.LVL41:
 322:USB/STM32_USB_Device_Library/Core/Src/usbd_core.c **** 
 533              		.loc 1 322 7 is_stmt 1 view .LVU152
 534 0056 F4E7     		b	.L39
 535              		.cfi_endproc
 536              	.LFE156:
 538              		.section	.text.USBD_LL_DataOutStage,"ax",%progbits
 539              		.align	1
 540              		.global	USBD_LL_DataOutStage
 541              		.syntax unified
 542              		.thumb
 543              		.thumb_func
 545              	USBD_LL_DataOutStage:
 546              	.LVL42:
 547              	.LFB157:
 331:USB/STM32_USB_Device_Library/Core/Src/usbd_core.c **** 
 332:USB/STM32_USB_Device_Library/Core/Src/usbd_core.c **** /**
 333:USB/STM32_USB_Device_Library/Core/Src/usbd_core.c **** * @brief  USBD_DataOutStage
 334:USB/STM32_USB_Device_Library/Core/Src/usbd_core.c **** *         Handle data OUT stage
 335:USB/STM32_USB_Device_Library/Core/Src/usbd_core.c **** * @param  pdev: device instance
 336:USB/STM32_USB_Device_Library/Core/Src/usbd_core.c **** * @param  epnum: endpoint index
 337:USB/STM32_USB_Device_Library/Core/Src/usbd_core.c **** * @retval status
 338:USB/STM32_USB_Device_Library/Core/Src/usbd_core.c **** */
 339:USB/STM32_USB_Device_Library/Core/Src/usbd_core.c **** USBD_StatusTypeDef USBD_LL_DataOutStage(USBD_HandleTypeDef *pdev,
 340:USB/STM32_USB_Device_Library/Core/Src/usbd_core.c ****                                         uint8_t epnum, uint8_t *pdata)
 341:USB/STM32_USB_Device_Library/Core/Src/usbd_core.c **** {
 548              		.loc 1 341 1 view -0
 549              		.cfi_startproc
 550              		@ args = 0, pretend = 0, frame = 0
 551              		@ frame_needed = 0, uses_anonymous_args = 0
 552              		.loc 1 341 1 is_stmt 0 view .LVU154
 553 0000 38B5     		push	{r3, r4, r5, lr}
 554              	.LCFI12:
 555              		.cfi_def_cfa_offset 16
 556              		.cfi_offset 3, -16
 557              		.cfi_offset 4, -12
 558              		.cfi_offset 5, -8
 559              		.cfi_offset 14, -4
 560 0002 0446     		mov	r4, r0
 342:USB/STM32_USB_Device_Library/Core/Src/usbd_core.c ****   USBD_EndpointTypeDef *pep;
 561              		.loc 1 342 3 is_stmt 1 view .LVU155
 343:USB/STM32_USB_Device_Library/Core/Src/usbd_core.c ****   USBD_StatusTypeDef ret;
 562              		.loc 1 343 3 view .LVU156
 344:USB/STM32_USB_Device_Library/Core/Src/usbd_core.c **** 
 345:USB/STM32_USB_Device_Library/Core/Src/usbd_core.c ****   if (epnum == 0U)
 563              		.loc 1 345 3 view .LVU157
 564              		.loc 1 345 6 is_stmt 0 view .LVU158
 565 0004 0D46     		mov	r5, r1
 566 0006 31BB     		cbnz	r1, .L43
ARM GAS  C:\Users\HUAV\AppData\Local\Temp\ccztxGrf.s 			page 17


 567 0008 1346     		mov	r3, r2
 346:USB/STM32_USB_Device_Library/Core/Src/usbd_core.c ****   {
 347:USB/STM32_USB_Device_Library/Core/Src/usbd_core.c ****     pep = &pdev->ep_out[0];
 568              		.loc 1 347 5 is_stmt 1 view .LVU159
 569              	.LVL43:
 348:USB/STM32_USB_Device_Library/Core/Src/usbd_core.c **** 
 349:USB/STM32_USB_Device_Library/Core/Src/usbd_core.c ****     if (pdev->ep0_state == USBD_EP0_DATA_OUT)
 570              		.loc 1 349 5 view .LVU160
 571              		.loc 1 349 13 is_stmt 0 view .LVU161
 572 000a D0F89422 		ldr	r2, [r0, #660]
 573              	.LVL44:
 574              		.loc 1 349 8 view .LVU162
 575 000e 032A     		cmp	r2, #3
 576 0010 01D0     		beq	.L51
 350:USB/STM32_USB_Device_Library/Core/Src/usbd_core.c ****     {
 351:USB/STM32_USB_Device_Library/Core/Src/usbd_core.c ****       if (pep->rem_length > pep->maxpacket)
 352:USB/STM32_USB_Device_Library/Core/Src/usbd_core.c ****       {
 353:USB/STM32_USB_Device_Library/Core/Src/usbd_core.c ****         pep->rem_length -= pep->maxpacket;
 354:USB/STM32_USB_Device_Library/Core/Src/usbd_core.c **** 
 355:USB/STM32_USB_Device_Library/Core/Src/usbd_core.c ****         (void)USBD_CtlContinueRx(pdev, pdata, MIN(pep->rem_length, pep->maxpacket));
 356:USB/STM32_USB_Device_Library/Core/Src/usbd_core.c ****       }
 357:USB/STM32_USB_Device_Library/Core/Src/usbd_core.c ****       else
 358:USB/STM32_USB_Device_Library/Core/Src/usbd_core.c ****       {
 359:USB/STM32_USB_Device_Library/Core/Src/usbd_core.c ****         if ((pdev->pClass->EP0_RxReady != NULL) &&
 360:USB/STM32_USB_Device_Library/Core/Src/usbd_core.c ****             (pdev->dev_state == USBD_STATE_CONFIGURED))
 361:USB/STM32_USB_Device_Library/Core/Src/usbd_core.c ****         {
 362:USB/STM32_USB_Device_Library/Core/Src/usbd_core.c ****           pdev->pClass->EP0_RxReady(pdev);
 363:USB/STM32_USB_Device_Library/Core/Src/usbd_core.c ****         }
 364:USB/STM32_USB_Device_Library/Core/Src/usbd_core.c ****         (void)USBD_CtlSendStatus(pdev);
 365:USB/STM32_USB_Device_Library/Core/Src/usbd_core.c ****       }
 366:USB/STM32_USB_Device_Library/Core/Src/usbd_core.c ****     }
 367:USB/STM32_USB_Device_Library/Core/Src/usbd_core.c ****     else
 368:USB/STM32_USB_Device_Library/Core/Src/usbd_core.c ****     {
 369:USB/STM32_USB_Device_Library/Core/Src/usbd_core.c **** #if 0
 370:USB/STM32_USB_Device_Library/Core/Src/usbd_core.c ****       if (pdev->ep0_state == USBD_EP0_STATUS_OUT)
 371:USB/STM32_USB_Device_Library/Core/Src/usbd_core.c ****       {
 372:USB/STM32_USB_Device_Library/Core/Src/usbd_core.c ****         /*
 373:USB/STM32_USB_Device_Library/Core/Src/usbd_core.c ****          * STATUS PHASE completed, update ep0_state to idle
 374:USB/STM32_USB_Device_Library/Core/Src/usbd_core.c ****          */
 375:USB/STM32_USB_Device_Library/Core/Src/usbd_core.c ****         pdev->ep0_state = USBD_EP0_IDLE;
 376:USB/STM32_USB_Device_Library/Core/Src/usbd_core.c ****         (void)USBD_LL_StallEP(pdev, 0U);
 377:USB/STM32_USB_Device_Library/Core/Src/usbd_core.c ****       }
 378:USB/STM32_USB_Device_Library/Core/Src/usbd_core.c **** #endif
 379:USB/STM32_USB_Device_Library/Core/Src/usbd_core.c ****     }
 380:USB/STM32_USB_Device_Library/Core/Src/usbd_core.c ****   }
 381:USB/STM32_USB_Device_Library/Core/Src/usbd_core.c ****   else if ((pdev->pClass->DataOut != NULL) &&
 382:USB/STM32_USB_Device_Library/Core/Src/usbd_core.c ****            (pdev->dev_state == USBD_STATE_CONFIGURED))
 383:USB/STM32_USB_Device_Library/Core/Src/usbd_core.c ****   {
 384:USB/STM32_USB_Device_Library/Core/Src/usbd_core.c ****     ret = (USBD_StatusTypeDef)pdev->pClass->DataOut(pdev, epnum);
 385:USB/STM32_USB_Device_Library/Core/Src/usbd_core.c **** 
 386:USB/STM32_USB_Device_Library/Core/Src/usbd_core.c ****     if (ret != USBD_OK)
 387:USB/STM32_USB_Device_Library/Core/Src/usbd_core.c ****     {
 388:USB/STM32_USB_Device_Library/Core/Src/usbd_core.c ****       return ret;
 389:USB/STM32_USB_Device_Library/Core/Src/usbd_core.c ****     }
 390:USB/STM32_USB_Device_Library/Core/Src/usbd_core.c ****   }
 391:USB/STM32_USB_Device_Library/Core/Src/usbd_core.c ****   else
 392:USB/STM32_USB_Device_Library/Core/Src/usbd_core.c ****   {
ARM GAS  C:\Users\HUAV\AppData\Local\Temp\ccztxGrf.s 			page 18


 393:USB/STM32_USB_Device_Library/Core/Src/usbd_core.c ****     /* should never be in this condition */
 394:USB/STM32_USB_Device_Library/Core/Src/usbd_core.c ****     return USBD_FAIL;
 395:USB/STM32_USB_Device_Library/Core/Src/usbd_core.c ****   }
 396:USB/STM32_USB_Device_Library/Core/Src/usbd_core.c **** 
 397:USB/STM32_USB_Device_Library/Core/Src/usbd_core.c ****   return USBD_OK;
 577              		.loc 1 397 10 view .LVU163
 578 0012 0846     		mov	r0, r1
 579              	.LVL45:
 580              	.L44:
 398:USB/STM32_USB_Device_Library/Core/Src/usbd_core.c **** }
 581              		.loc 1 398 1 view .LVU164
 582 0014 38BD     		pop	{r3, r4, r5, pc}
 583              	.LVL46:
 584              	.L51:
 351:USB/STM32_USB_Device_Library/Core/Src/usbd_core.c ****       {
 585              		.loc 1 351 7 is_stmt 1 view .LVU165
 351:USB/STM32_USB_Device_Library/Core/Src/usbd_core.c ****       {
 586              		.loc 1 351 14 is_stmt 0 view .LVU166
 587 0016 D0F85C11 		ldr	r1, [r0, #348]
 588              	.LVL47:
 351:USB/STM32_USB_Device_Library/Core/Src/usbd_core.c ****       {
 589              		.loc 1 351 32 view .LVU167
 590 001a D0F86021 		ldr	r2, [r0, #352]
 351:USB/STM32_USB_Device_Library/Core/Src/usbd_core.c ****       {
 591              		.loc 1 351 10 view .LVU168
 592 001e 9142     		cmp	r1, r2
 593 0020 0CD8     		bhi	.L52
 359:USB/STM32_USB_Device_Library/Core/Src/usbd_core.c ****             (pdev->dev_state == USBD_STATE_CONFIGURED))
 594              		.loc 1 359 9 is_stmt 1 view .LVU169
 359:USB/STM32_USB_Device_Library/Core/Src/usbd_core.c ****             (pdev->dev_state == USBD_STATE_CONFIGURED))
 595              		.loc 1 359 18 is_stmt 0 view .LVU170
 596 0022 D0F8B832 		ldr	r3, [r0, #696]
 597              	.LVL48:
 359:USB/STM32_USB_Device_Library/Core/Src/usbd_core.c ****             (pdev->dev_state == USBD_STATE_CONFIGURED))
 598              		.loc 1 359 26 view .LVU171
 599 0026 1B69     		ldr	r3, [r3, #16]
 359:USB/STM32_USB_Device_Library/Core/Src/usbd_core.c ****             (pdev->dev_state == USBD_STATE_CONFIGURED))
 600              		.loc 1 359 12 view .LVU172
 601 0028 1BB1     		cbz	r3, .L46
 360:USB/STM32_USB_Device_Library/Core/Src/usbd_core.c ****         {
 602              		.loc 1 360 18 discriminator 1 view .LVU173
 603 002a 90F89C22 		ldrb	r2, [r0, #668]	@ zero_extendqisi2
 359:USB/STM32_USB_Device_Library/Core/Src/usbd_core.c ****             (pdev->dev_state == USBD_STATE_CONFIGURED))
 604              		.loc 1 359 49 discriminator 1 view .LVU174
 605 002e 032A     		cmp	r2, #3
 606 0030 0FD0     		beq	.L53
 607              	.LVL49:
 608              	.L46:
 364:USB/STM32_USB_Device_Library/Core/Src/usbd_core.c ****       }
 609              		.loc 1 364 9 is_stmt 1 view .LVU175
 364:USB/STM32_USB_Device_Library/Core/Src/usbd_core.c ****       }
 610              		.loc 1 364 15 is_stmt 0 view .LVU176
 611 0032 2046     		mov	r0, r4
 612 0034 FFF7FEFF 		bl	USBD_CtlSendStatus
 613              	.LVL50:
 397:USB/STM32_USB_Device_Library/Core/Src/usbd_core.c **** }
 614              		.loc 1 397 10 view .LVU177
ARM GAS  C:\Users\HUAV\AppData\Local\Temp\ccztxGrf.s 			page 19


 615 0038 2846     		mov	r0, r5
 616 003a EBE7     		b	.L44
 617              	.LVL51:
 618              	.L52:
 353:USB/STM32_USB_Device_Library/Core/Src/usbd_core.c **** 
 619              		.loc 1 353 9 is_stmt 1 view .LVU178
 353:USB/STM32_USB_Device_Library/Core/Src/usbd_core.c **** 
 620              		.loc 1 353 25 is_stmt 0 view .LVU179
 621 003c 891A     		subs	r1, r1, r2
 622 003e C0F85C11 		str	r1, [r0, #348]
 355:USB/STM32_USB_Device_Library/Core/Src/usbd_core.c ****       }
 623              		.loc 1 355 9 is_stmt 1 view .LVU180
 355:USB/STM32_USB_Device_Library/Core/Src/usbd_core.c ****       }
 624              		.loc 1 355 15 is_stmt 0 view .LVU181
 625 0042 8A42     		cmp	r2, r1
 626 0044 28BF     		it	cs
 627 0046 0A46     		movcs	r2, r1
 628 0048 1946     		mov	r1, r3
 629 004a FFF7FEFF 		bl	USBD_CtlContinueRx
 630              	.LVL52:
 397:USB/STM32_USB_Device_Library/Core/Src/usbd_core.c **** }
 631              		.loc 1 397 10 view .LVU182
 632 004e 2846     		mov	r0, r5
 633 0050 E0E7     		b	.L44
 634              	.LVL53:
 635              	.L53:
 362:USB/STM32_USB_Device_Library/Core/Src/usbd_core.c ****         }
 636              		.loc 1 362 11 is_stmt 1 view .LVU183
 637 0052 9847     		blx	r3
 638              	.LVL54:
 362:USB/STM32_USB_Device_Library/Core/Src/usbd_core.c ****         }
 639              		.loc 1 362 11 is_stmt 0 view .LVU184
 640 0054 EDE7     		b	.L46
 641              	.LVL55:
 642              	.L43:
 381:USB/STM32_USB_Device_Library/Core/Src/usbd_core.c ****            (pdev->dev_state == USBD_STATE_CONFIGURED))
 643              		.loc 1 381 8 is_stmt 1 view .LVU185
 381:USB/STM32_USB_Device_Library/Core/Src/usbd_core.c ****            (pdev->dev_state == USBD_STATE_CONFIGURED))
 644              		.loc 1 381 17 is_stmt 0 view .LVU186
 645 0056 D0F8B832 		ldr	r3, [r0, #696]
 381:USB/STM32_USB_Device_Library/Core/Src/usbd_core.c ****            (pdev->dev_state == USBD_STATE_CONFIGURED))
 646              		.loc 1 381 25 view .LVU187
 647 005a 9B69     		ldr	r3, [r3, #24]
 381:USB/STM32_USB_Device_Library/Core/Src/usbd_core.c ****            (pdev->dev_state == USBD_STATE_CONFIGURED))
 648              		.loc 1 381 11 view .LVU188
 649 005c 2BB1     		cbz	r3, .L48
 382:USB/STM32_USB_Device_Library/Core/Src/usbd_core.c ****   {
 650              		.loc 1 382 17 discriminator 1 view .LVU189
 651 005e 90F89C22 		ldrb	r2, [r0, #668]	@ zero_extendqisi2
 652              	.LVL56:
 381:USB/STM32_USB_Device_Library/Core/Src/usbd_core.c ****            (pdev->dev_state == USBD_STATE_CONFIGURED))
 653              		.loc 1 381 44 discriminator 1 view .LVU190
 654 0062 032A     		cmp	r2, #3
 655 0064 03D1     		bne	.L49
 384:USB/STM32_USB_Device_Library/Core/Src/usbd_core.c **** 
 656              		.loc 1 384 5 is_stmt 1 view .LVU191
 384:USB/STM32_USB_Device_Library/Core/Src/usbd_core.c **** 
ARM GAS  C:\Users\HUAV\AppData\Local\Temp\ccztxGrf.s 			page 20


 657              		.loc 1 384 31 is_stmt 0 view .LVU192
 658 0066 9847     		blx	r3
 659              	.LVL57:
 386:USB/STM32_USB_Device_Library/Core/Src/usbd_core.c ****     {
 660              		.loc 1 386 5 is_stmt 1 view .LVU193
 661 0068 D4E7     		b	.L44
 662              	.LVL58:
 663              	.L48:
 394:USB/STM32_USB_Device_Library/Core/Src/usbd_core.c ****   }
 664              		.loc 1 394 12 is_stmt 0 view .LVU194
 665 006a 0320     		movs	r0, #3
 666              	.LVL59:
 394:USB/STM32_USB_Device_Library/Core/Src/usbd_core.c ****   }
 667              		.loc 1 394 12 view .LVU195
 668 006c D2E7     		b	.L44
 669              	.LVL60:
 670              	.L49:
 394:USB/STM32_USB_Device_Library/Core/Src/usbd_core.c ****   }
 671              		.loc 1 394 12 view .LVU196
 672 006e 0320     		movs	r0, #3
 673              	.LVL61:
 394:USB/STM32_USB_Device_Library/Core/Src/usbd_core.c ****   }
 674              		.loc 1 394 12 view .LVU197
 675 0070 D0E7     		b	.L44
 676              		.cfi_endproc
 677              	.LFE157:
 679              		.section	.text.USBD_LL_DataInStage,"ax",%progbits
 680              		.align	1
 681              		.global	USBD_LL_DataInStage
 682              		.syntax unified
 683              		.thumb
 684              		.thumb_func
 686              	USBD_LL_DataInStage:
 687              	.LVL62:
 688              	.LFB158:
 399:USB/STM32_USB_Device_Library/Core/Src/usbd_core.c **** 
 400:USB/STM32_USB_Device_Library/Core/Src/usbd_core.c **** /**
 401:USB/STM32_USB_Device_Library/Core/Src/usbd_core.c **** * @brief  USBD_DataInStage
 402:USB/STM32_USB_Device_Library/Core/Src/usbd_core.c **** *         Handle data in stage
 403:USB/STM32_USB_Device_Library/Core/Src/usbd_core.c **** * @param  pdev: device instance
 404:USB/STM32_USB_Device_Library/Core/Src/usbd_core.c **** * @param  epnum: endpoint index
 405:USB/STM32_USB_Device_Library/Core/Src/usbd_core.c **** * @retval status
 406:USB/STM32_USB_Device_Library/Core/Src/usbd_core.c **** */
 407:USB/STM32_USB_Device_Library/Core/Src/usbd_core.c **** USBD_StatusTypeDef USBD_LL_DataInStage(USBD_HandleTypeDef *pdev,
 408:USB/STM32_USB_Device_Library/Core/Src/usbd_core.c ****                                        uint8_t epnum, uint8_t *pdata)
 409:USB/STM32_USB_Device_Library/Core/Src/usbd_core.c **** {
 689              		.loc 1 409 1 is_stmt 1 view -0
 690              		.cfi_startproc
 691              		@ args = 0, pretend = 0, frame = 0
 692              		@ frame_needed = 0, uses_anonymous_args = 0
 693              		.loc 1 409 1 is_stmt 0 view .LVU199
 694 0000 38B5     		push	{r3, r4, r5, lr}
 695              	.LCFI13:
 696              		.cfi_def_cfa_offset 16
 697              		.cfi_offset 3, -16
 698              		.cfi_offset 4, -12
 699              		.cfi_offset 5, -8
ARM GAS  C:\Users\HUAV\AppData\Local\Temp\ccztxGrf.s 			page 21


 700              		.cfi_offset 14, -4
 701 0002 0446     		mov	r4, r0
 410:USB/STM32_USB_Device_Library/Core/Src/usbd_core.c ****   USBD_EndpointTypeDef *pep;
 702              		.loc 1 410 3 is_stmt 1 view .LVU200
 411:USB/STM32_USB_Device_Library/Core/Src/usbd_core.c ****   USBD_StatusTypeDef ret;
 703              		.loc 1 411 3 view .LVU201
 412:USB/STM32_USB_Device_Library/Core/Src/usbd_core.c **** 
 413:USB/STM32_USB_Device_Library/Core/Src/usbd_core.c ****   if (epnum == 0U)
 704              		.loc 1 413 3 view .LVU202
 705              		.loc 1 413 6 is_stmt 0 view .LVU203
 706 0004 0D46     		mov	r5, r1
 707 0006 0029     		cmp	r1, #0
 708 0008 48D1     		bne	.L55
 709 000a 1346     		mov	r3, r2
 414:USB/STM32_USB_Device_Library/Core/Src/usbd_core.c ****   {
 415:USB/STM32_USB_Device_Library/Core/Src/usbd_core.c ****     pep = &pdev->ep_in[0];
 710              		.loc 1 415 5 is_stmt 1 view .LVU204
 711              	.LVL63:
 416:USB/STM32_USB_Device_Library/Core/Src/usbd_core.c **** 
 417:USB/STM32_USB_Device_Library/Core/Src/usbd_core.c ****     if (pdev->ep0_state == USBD_EP0_DATA_IN)
 712              		.loc 1 417 5 view .LVU205
 713              		.loc 1 417 13 is_stmt 0 view .LVU206
 714 000c D0F89422 		ldr	r2, [r0, #660]
 715              	.LVL64:
 716              		.loc 1 417 8 view .LVU207
 717 0010 022A     		cmp	r2, #2
 718 0012 05D0     		beq	.L65
 719              	.LVL65:
 720              	.L56:
 418:USB/STM32_USB_Device_Library/Core/Src/usbd_core.c ****     {
 419:USB/STM32_USB_Device_Library/Core/Src/usbd_core.c ****       if (pep->rem_length > pep->maxpacket)
 420:USB/STM32_USB_Device_Library/Core/Src/usbd_core.c ****       {
 421:USB/STM32_USB_Device_Library/Core/Src/usbd_core.c ****         pep->rem_length -= pep->maxpacket;
 422:USB/STM32_USB_Device_Library/Core/Src/usbd_core.c **** 
 423:USB/STM32_USB_Device_Library/Core/Src/usbd_core.c ****         (void)USBD_CtlContinueSendData(pdev, pdata, pep->rem_length);
 424:USB/STM32_USB_Device_Library/Core/Src/usbd_core.c **** 
 425:USB/STM32_USB_Device_Library/Core/Src/usbd_core.c ****         /* Prepare endpoint for premature end of transfer */
 426:USB/STM32_USB_Device_Library/Core/Src/usbd_core.c ****        (void)USBD_LL_PrepareReceive(pdev, 0U, NULL, 0U);
 427:USB/STM32_USB_Device_Library/Core/Src/usbd_core.c ****       }
 428:USB/STM32_USB_Device_Library/Core/Src/usbd_core.c ****       else
 429:USB/STM32_USB_Device_Library/Core/Src/usbd_core.c ****       {
 430:USB/STM32_USB_Device_Library/Core/Src/usbd_core.c ****         /* last packet is MPS multiple, so send ZLP packet */
 431:USB/STM32_USB_Device_Library/Core/Src/usbd_core.c ****         if ((pep->maxpacket == pep->rem_length) &&
 432:USB/STM32_USB_Device_Library/Core/Src/usbd_core.c ****             (pep->total_length >= pep->maxpacket) &&
 433:USB/STM32_USB_Device_Library/Core/Src/usbd_core.c ****             (pep->total_length < pdev->ep0_data_len))
 434:USB/STM32_USB_Device_Library/Core/Src/usbd_core.c ****         {
 435:USB/STM32_USB_Device_Library/Core/Src/usbd_core.c ****           (void)USBD_CtlContinueSendData(pdev, NULL, 0U);
 436:USB/STM32_USB_Device_Library/Core/Src/usbd_core.c ****           pdev->ep0_data_len = 0U;
 437:USB/STM32_USB_Device_Library/Core/Src/usbd_core.c **** 
 438:USB/STM32_USB_Device_Library/Core/Src/usbd_core.c ****           /* Prepare endpoint for premature end of transfer */
 439:USB/STM32_USB_Device_Library/Core/Src/usbd_core.c ****           (void)USBD_LL_PrepareReceive(pdev, 0U, NULL, 0U);
 440:USB/STM32_USB_Device_Library/Core/Src/usbd_core.c ****         }
 441:USB/STM32_USB_Device_Library/Core/Src/usbd_core.c ****         else
 442:USB/STM32_USB_Device_Library/Core/Src/usbd_core.c ****         {
 443:USB/STM32_USB_Device_Library/Core/Src/usbd_core.c ****           if ((pdev->pClass->EP0_TxSent != NULL) &&
 444:USB/STM32_USB_Device_Library/Core/Src/usbd_core.c ****               (pdev->dev_state == USBD_STATE_CONFIGURED))
 445:USB/STM32_USB_Device_Library/Core/Src/usbd_core.c ****           {
ARM GAS  C:\Users\HUAV\AppData\Local\Temp\ccztxGrf.s 			page 22


 446:USB/STM32_USB_Device_Library/Core/Src/usbd_core.c ****             pdev->pClass->EP0_TxSent(pdev);
 447:USB/STM32_USB_Device_Library/Core/Src/usbd_core.c ****           }
 448:USB/STM32_USB_Device_Library/Core/Src/usbd_core.c ****           (void)USBD_LL_StallEP(pdev, 0x80U);
 449:USB/STM32_USB_Device_Library/Core/Src/usbd_core.c ****           (void)USBD_CtlReceiveStatus(pdev);
 450:USB/STM32_USB_Device_Library/Core/Src/usbd_core.c ****         }
 451:USB/STM32_USB_Device_Library/Core/Src/usbd_core.c ****       }
 452:USB/STM32_USB_Device_Library/Core/Src/usbd_core.c ****     }
 453:USB/STM32_USB_Device_Library/Core/Src/usbd_core.c ****     else
 454:USB/STM32_USB_Device_Library/Core/Src/usbd_core.c ****     {
 455:USB/STM32_USB_Device_Library/Core/Src/usbd_core.c **** #if 0
 456:USB/STM32_USB_Device_Library/Core/Src/usbd_core.c ****       if ((pdev->ep0_state == USBD_EP0_STATUS_IN) ||
 457:USB/STM32_USB_Device_Library/Core/Src/usbd_core.c ****           (pdev->ep0_state == USBD_EP0_IDLE))
 458:USB/STM32_USB_Device_Library/Core/Src/usbd_core.c ****       {
 459:USB/STM32_USB_Device_Library/Core/Src/usbd_core.c ****         (void)USBD_LL_StallEP(pdev, 0x80U);
 460:USB/STM32_USB_Device_Library/Core/Src/usbd_core.c ****       }
 461:USB/STM32_USB_Device_Library/Core/Src/usbd_core.c **** #endif
 462:USB/STM32_USB_Device_Library/Core/Src/usbd_core.c ****     }
 721              		.loc 1 462 5 is_stmt 1 view .LVU208
 463:USB/STM32_USB_Device_Library/Core/Src/usbd_core.c **** 
 464:USB/STM32_USB_Device_Library/Core/Src/usbd_core.c ****     if (pdev->dev_test_mode == 1U)
 722              		.loc 1 464 5 view .LVU209
 723              		.loc 1 464 13 is_stmt 0 view .LVU210
 724 0014 94F8A032 		ldrb	r3, [r4, #672]	@ zero_extendqisi2
 725              		.loc 1 464 8 view .LVU211
 726 0018 012B     		cmp	r3, #1
 727 001a 3AD0     		beq	.L66
 465:USB/STM32_USB_Device_Library/Core/Src/usbd_core.c ****     {
 466:USB/STM32_USB_Device_Library/Core/Src/usbd_core.c ****       (void)USBD_RunTestMode(pdev);
 467:USB/STM32_USB_Device_Library/Core/Src/usbd_core.c ****       pdev->dev_test_mode = 0U;
 468:USB/STM32_USB_Device_Library/Core/Src/usbd_core.c ****     }
 469:USB/STM32_USB_Device_Library/Core/Src/usbd_core.c ****   }
 470:USB/STM32_USB_Device_Library/Core/Src/usbd_core.c ****   else if ((pdev->pClass->DataIn != NULL) &&
 471:USB/STM32_USB_Device_Library/Core/Src/usbd_core.c ****            (pdev->dev_state == USBD_STATE_CONFIGURED))
 472:USB/STM32_USB_Device_Library/Core/Src/usbd_core.c ****   {
 473:USB/STM32_USB_Device_Library/Core/Src/usbd_core.c ****     ret = (USBD_StatusTypeDef)pdev->pClass->DataIn(pdev, epnum);
 474:USB/STM32_USB_Device_Library/Core/Src/usbd_core.c **** 
 475:USB/STM32_USB_Device_Library/Core/Src/usbd_core.c ****     if (ret != USBD_OK)
 476:USB/STM32_USB_Device_Library/Core/Src/usbd_core.c ****     {
 477:USB/STM32_USB_Device_Library/Core/Src/usbd_core.c ****       return ret;
 478:USB/STM32_USB_Device_Library/Core/Src/usbd_core.c ****     }
 479:USB/STM32_USB_Device_Library/Core/Src/usbd_core.c ****   }
 480:USB/STM32_USB_Device_Library/Core/Src/usbd_core.c ****   else
 481:USB/STM32_USB_Device_Library/Core/Src/usbd_core.c ****   {
 482:USB/STM32_USB_Device_Library/Core/Src/usbd_core.c ****     /* should never be in this condition */
 483:USB/STM32_USB_Device_Library/Core/Src/usbd_core.c ****     return USBD_FAIL;
 484:USB/STM32_USB_Device_Library/Core/Src/usbd_core.c ****   }
 485:USB/STM32_USB_Device_Library/Core/Src/usbd_core.c **** 
 486:USB/STM32_USB_Device_Library/Core/Src/usbd_core.c ****   return USBD_OK;
 728              		.loc 1 486 10 view .LVU212
 729 001c 2846     		mov	r0, r5
 730              	.LVL66:
 731              	.L60:
 487:USB/STM32_USB_Device_Library/Core/Src/usbd_core.c **** }
 732              		.loc 1 487 1 view .LVU213
 733 001e 38BD     		pop	{r3, r4, r5, pc}
 734              	.LVL67:
 735              	.L65:
ARM GAS  C:\Users\HUAV\AppData\Local\Temp\ccztxGrf.s 			page 23


 419:USB/STM32_USB_Device_Library/Core/Src/usbd_core.c ****       {
 736              		.loc 1 419 7 is_stmt 1 view .LVU214
 419:USB/STM32_USB_Device_Library/Core/Src/usbd_core.c ****       {
 737              		.loc 1 419 14 is_stmt 0 view .LVU215
 738 0020 C269     		ldr	r2, [r0, #28]
 419:USB/STM32_USB_Device_Library/Core/Src/usbd_core.c ****       {
 739              		.loc 1 419 32 view .LVU216
 740 0022 016A     		ldr	r1, [r0, #32]
 741              	.LVL68:
 419:USB/STM32_USB_Device_Library/Core/Src/usbd_core.c ****       {
 742              		.loc 1 419 10 view .LVU217
 743 0024 8A42     		cmp	r2, r1
 744 0026 11D8     		bhi	.L67
 431:USB/STM32_USB_Device_Library/Core/Src/usbd_core.c ****             (pep->total_length >= pep->maxpacket) &&
 745              		.loc 1 431 9 is_stmt 1 view .LVU218
 431:USB/STM32_USB_Device_Library/Core/Src/usbd_core.c ****             (pep->total_length >= pep->maxpacket) &&
 746              		.loc 1 431 12 is_stmt 0 view .LVU219
 747 0028 8A42     		cmp	r2, r1
 748 002a 1BD0     		beq	.L68
 749              	.LVL69:
 750              	.L58:
 443:USB/STM32_USB_Device_Library/Core/Src/usbd_core.c ****               (pdev->dev_state == USBD_STATE_CONFIGURED))
 751              		.loc 1 443 11 is_stmt 1 view .LVU220
 443:USB/STM32_USB_Device_Library/Core/Src/usbd_core.c ****               (pdev->dev_state == USBD_STATE_CONFIGURED))
 752              		.loc 1 443 20 is_stmt 0 view .LVU221
 753 002c D4F8B832 		ldr	r3, [r4, #696]
 443:USB/STM32_USB_Device_Library/Core/Src/usbd_core.c ****               (pdev->dev_state == USBD_STATE_CONFIGURED))
 754              		.loc 1 443 28 view .LVU222
 755 0030 DB68     		ldr	r3, [r3, #12]
 443:USB/STM32_USB_Device_Library/Core/Src/usbd_core.c ****               (pdev->dev_state == USBD_STATE_CONFIGURED))
 756              		.loc 1 443 14 view .LVU223
 757 0032 1BB1     		cbz	r3, .L59
 444:USB/STM32_USB_Device_Library/Core/Src/usbd_core.c ****           {
 758              		.loc 1 444 20 discriminator 1 view .LVU224
 759 0034 94F89C22 		ldrb	r2, [r4, #668]	@ zero_extendqisi2
 443:USB/STM32_USB_Device_Library/Core/Src/usbd_core.c ****               (pdev->dev_state == USBD_STATE_CONFIGURED))
 760              		.loc 1 443 50 discriminator 1 view .LVU225
 761 0038 032A     		cmp	r2, #3
 762 003a 27D0     		beq	.L69
 763              	.LVL70:
 764              	.L59:
 448:USB/STM32_USB_Device_Library/Core/Src/usbd_core.c ****           (void)USBD_CtlReceiveStatus(pdev);
 765              		.loc 1 448 11 is_stmt 1 view .LVU226
 448:USB/STM32_USB_Device_Library/Core/Src/usbd_core.c ****           (void)USBD_CtlReceiveStatus(pdev);
 766              		.loc 1 448 17 is_stmt 0 view .LVU227
 767 003c 8021     		movs	r1, #128
 768 003e 2046     		mov	r0, r4
 769 0040 FFF7FEFF 		bl	USBD_LL_StallEP
 770              	.LVL71:
 449:USB/STM32_USB_Device_Library/Core/Src/usbd_core.c ****         }
 771              		.loc 1 449 11 is_stmt 1 view .LVU228
 449:USB/STM32_USB_Device_Library/Core/Src/usbd_core.c ****         }
 772              		.loc 1 449 17 is_stmt 0 view .LVU229
 773 0044 2046     		mov	r0, r4
 774 0046 FFF7FEFF 		bl	USBD_CtlReceiveStatus
 775              	.LVL72:
 776 004a E3E7     		b	.L56
ARM GAS  C:\Users\HUAV\AppData\Local\Temp\ccztxGrf.s 			page 24


 777              	.LVL73:
 778              	.L67:
 421:USB/STM32_USB_Device_Library/Core/Src/usbd_core.c **** 
 779              		.loc 1 421 9 is_stmt 1 view .LVU230
 421:USB/STM32_USB_Device_Library/Core/Src/usbd_core.c **** 
 780              		.loc 1 421 25 is_stmt 0 view .LVU231
 781 004c 521A     		subs	r2, r2, r1
 782 004e C261     		str	r2, [r0, #28]
 423:USB/STM32_USB_Device_Library/Core/Src/usbd_core.c **** 
 783              		.loc 1 423 9 is_stmt 1 view .LVU232
 423:USB/STM32_USB_Device_Library/Core/Src/usbd_core.c **** 
 784              		.loc 1 423 15 is_stmt 0 view .LVU233
 785 0050 1946     		mov	r1, r3
 786 0052 FFF7FEFF 		bl	USBD_CtlContinueSendData
 787              	.LVL74:
 426:USB/STM32_USB_Device_Library/Core/Src/usbd_core.c ****       }
 788              		.loc 1 426 8 is_stmt 1 view .LVU234
 426:USB/STM32_USB_Device_Library/Core/Src/usbd_core.c ****       }
 789              		.loc 1 426 14 is_stmt 0 view .LVU235
 790 0056 0023     		movs	r3, #0
 791 0058 1A46     		mov	r2, r3
 792 005a 1946     		mov	r1, r3
 793 005c 2046     		mov	r0, r4
 794 005e FFF7FEFF 		bl	USBD_LL_PrepareReceive
 795              	.LVL75:
 796 0062 D7E7     		b	.L56
 797              	.LVL76:
 798              	.L68:
 432:USB/STM32_USB_Device_Library/Core/Src/usbd_core.c ****             (pep->total_length < pdev->ep0_data_len))
 799              		.loc 1 432 17 discriminator 1 view .LVU236
 800 0064 8369     		ldr	r3, [r0, #24]
 801              	.LVL77:
 431:USB/STM32_USB_Device_Library/Core/Src/usbd_core.c ****             (pep->total_length >= pep->maxpacket) &&
 802              		.loc 1 431 49 discriminator 1 view .LVU237
 803 0066 9942     		cmp	r1, r3
 804 0068 E0D8     		bhi	.L58
 433:USB/STM32_USB_Device_Library/Core/Src/usbd_core.c ****         {
 805              		.loc 1 433 38 view .LVU238
 806 006a D0F89822 		ldr	r2, [r0, #664]
 432:USB/STM32_USB_Device_Library/Core/Src/usbd_core.c ****             (pep->total_length < pdev->ep0_data_len))
 807              		.loc 1 432 51 view .LVU239
 808 006e 9342     		cmp	r3, r2
 809 0070 DCD2     		bcs	.L58
 435:USB/STM32_USB_Device_Library/Core/Src/usbd_core.c ****           pdev->ep0_data_len = 0U;
 810              		.loc 1 435 11 is_stmt 1 view .LVU240
 435:USB/STM32_USB_Device_Library/Core/Src/usbd_core.c ****           pdev->ep0_data_len = 0U;
 811              		.loc 1 435 17 is_stmt 0 view .LVU241
 812 0072 0022     		movs	r2, #0
 813 0074 1146     		mov	r1, r2
 814 0076 FFF7FEFF 		bl	USBD_CtlContinueSendData
 815              	.LVL78:
 436:USB/STM32_USB_Device_Library/Core/Src/usbd_core.c **** 
 816              		.loc 1 436 11 is_stmt 1 view .LVU242
 436:USB/STM32_USB_Device_Library/Core/Src/usbd_core.c **** 
 817              		.loc 1 436 30 is_stmt 0 view .LVU243
 818 007a 0021     		movs	r1, #0
 819 007c C4F89812 		str	r1, [r4, #664]
ARM GAS  C:\Users\HUAV\AppData\Local\Temp\ccztxGrf.s 			page 25


 439:USB/STM32_USB_Device_Library/Core/Src/usbd_core.c ****         }
 820              		.loc 1 439 11 is_stmt 1 view .LVU244
 439:USB/STM32_USB_Device_Library/Core/Src/usbd_core.c ****         }
 821              		.loc 1 439 17 is_stmt 0 view .LVU245
 822 0080 0B46     		mov	r3, r1
 823 0082 0A46     		mov	r2, r1
 824 0084 2046     		mov	r0, r4
 825 0086 FFF7FEFF 		bl	USBD_LL_PrepareReceive
 826              	.LVL79:
 439:USB/STM32_USB_Device_Library/Core/Src/usbd_core.c ****         }
 827              		.loc 1 439 11 view .LVU246
 828 008a C3E7     		b	.L56
 829              	.LVL80:
 830              	.L69:
 446:USB/STM32_USB_Device_Library/Core/Src/usbd_core.c ****           }
 831              		.loc 1 446 13 is_stmt 1 view .LVU247
 832 008c 2046     		mov	r0, r4
 833              	.LVL81:
 446:USB/STM32_USB_Device_Library/Core/Src/usbd_core.c ****           }
 834              		.loc 1 446 13 is_stmt 0 view .LVU248
 835 008e 9847     		blx	r3
 836              	.LVL82:
 837 0090 D4E7     		b	.L59
 838              	.L66:
 466:USB/STM32_USB_Device_Library/Core/Src/usbd_core.c ****       pdev->dev_test_mode = 0U;
 839              		.loc 1 466 7 is_stmt 1 view .LVU249
 467:USB/STM32_USB_Device_Library/Core/Src/usbd_core.c ****     }
 840              		.loc 1 467 7 view .LVU250
 467:USB/STM32_USB_Device_Library/Core/Src/usbd_core.c ****     }
 841              		.loc 1 467 27 is_stmt 0 view .LVU251
 842 0092 0023     		movs	r3, #0
 843 0094 84F8A032 		strb	r3, [r4, #672]
 486:USB/STM32_USB_Device_Library/Core/Src/usbd_core.c **** }
 844              		.loc 1 486 10 view .LVU252
 845 0098 2846     		mov	r0, r5
 846 009a C0E7     		b	.L60
 847              	.LVL83:
 848              	.L55:
 470:USB/STM32_USB_Device_Library/Core/Src/usbd_core.c ****            (pdev->dev_state == USBD_STATE_CONFIGURED))
 849              		.loc 1 470 8 is_stmt 1 view .LVU253
 470:USB/STM32_USB_Device_Library/Core/Src/usbd_core.c ****            (pdev->dev_state == USBD_STATE_CONFIGURED))
 850              		.loc 1 470 17 is_stmt 0 view .LVU254
 851 009c D0F8B832 		ldr	r3, [r0, #696]
 470:USB/STM32_USB_Device_Library/Core/Src/usbd_core.c ****            (pdev->dev_state == USBD_STATE_CONFIGURED))
 852              		.loc 1 470 25 view .LVU255
 853 00a0 5B69     		ldr	r3, [r3, #20]
 470:USB/STM32_USB_Device_Library/Core/Src/usbd_core.c ****            (pdev->dev_state == USBD_STATE_CONFIGURED))
 854              		.loc 1 470 11 view .LVU256
 855 00a2 2BB1     		cbz	r3, .L62
 471:USB/STM32_USB_Device_Library/Core/Src/usbd_core.c ****   {
 856              		.loc 1 471 17 discriminator 1 view .LVU257
 857 00a4 90F89C22 		ldrb	r2, [r0, #668]	@ zero_extendqisi2
 858              	.LVL84:
 470:USB/STM32_USB_Device_Library/Core/Src/usbd_core.c ****            (pdev->dev_state == USBD_STATE_CONFIGURED))
 859              		.loc 1 470 43 discriminator 1 view .LVU258
 860 00a8 032A     		cmp	r2, #3
 861 00aa 03D1     		bne	.L63
ARM GAS  C:\Users\HUAV\AppData\Local\Temp\ccztxGrf.s 			page 26


 473:USB/STM32_USB_Device_Library/Core/Src/usbd_core.c **** 
 862              		.loc 1 473 5 is_stmt 1 view .LVU259
 473:USB/STM32_USB_Device_Library/Core/Src/usbd_core.c **** 
 863              		.loc 1 473 31 is_stmt 0 view .LVU260
 864 00ac 9847     		blx	r3
 865              	.LVL85:
 475:USB/STM32_USB_Device_Library/Core/Src/usbd_core.c ****     {
 866              		.loc 1 475 5 is_stmt 1 view .LVU261
 867 00ae B6E7     		b	.L60
 868              	.LVL86:
 869              	.L62:
 483:USB/STM32_USB_Device_Library/Core/Src/usbd_core.c ****   }
 870              		.loc 1 483 12 is_stmt 0 view .LVU262
 871 00b0 0320     		movs	r0, #3
 872              	.LVL87:
 483:USB/STM32_USB_Device_Library/Core/Src/usbd_core.c ****   }
 873              		.loc 1 483 12 view .LVU263
 874 00b2 B4E7     		b	.L60
 875              	.LVL88:
 876              	.L63:
 483:USB/STM32_USB_Device_Library/Core/Src/usbd_core.c ****   }
 877              		.loc 1 483 12 view .LVU264
 878 00b4 0320     		movs	r0, #3
 879              	.LVL89:
 483:USB/STM32_USB_Device_Library/Core/Src/usbd_core.c ****   }
 880              		.loc 1 483 12 view .LVU265
 881 00b6 B2E7     		b	.L60
 882              		.cfi_endproc
 883              	.LFE158:
 885              		.section	.text.USBD_LL_Reset,"ax",%progbits
 886              		.align	1
 887              		.global	USBD_LL_Reset
 888              		.syntax unified
 889              		.thumb
 890              		.thumb_func
 892              	USBD_LL_Reset:
 893              	.LVL90:
 894              	.LFB159:
 488:USB/STM32_USB_Device_Library/Core/Src/usbd_core.c **** 
 489:USB/STM32_USB_Device_Library/Core/Src/usbd_core.c **** /**
 490:USB/STM32_USB_Device_Library/Core/Src/usbd_core.c **** * @brief  USBD_LL_Reset
 491:USB/STM32_USB_Device_Library/Core/Src/usbd_core.c **** *         Handle Reset event
 492:USB/STM32_USB_Device_Library/Core/Src/usbd_core.c **** * @param  pdev: device instance
 493:USB/STM32_USB_Device_Library/Core/Src/usbd_core.c **** * @retval status
 494:USB/STM32_USB_Device_Library/Core/Src/usbd_core.c **** */
 495:USB/STM32_USB_Device_Library/Core/Src/usbd_core.c **** 
 496:USB/STM32_USB_Device_Library/Core/Src/usbd_core.c **** USBD_StatusTypeDef USBD_LL_Reset(USBD_HandleTypeDef *pdev)
 497:USB/STM32_USB_Device_Library/Core/Src/usbd_core.c **** {
 895              		.loc 1 497 1 is_stmt 1 view -0
 896              		.cfi_startproc
 897              		@ args = 0, pretend = 0, frame = 0
 898              		@ frame_needed = 0, uses_anonymous_args = 0
 899              		.loc 1 497 1 is_stmt 0 view .LVU267
 900 0000 70B5     		push	{r4, r5, r6, lr}
 901              	.LCFI14:
 902              		.cfi_def_cfa_offset 16
 903              		.cfi_offset 4, -16
ARM GAS  C:\Users\HUAV\AppData\Local\Temp\ccztxGrf.s 			page 27


 904              		.cfi_offset 5, -12
 905              		.cfi_offset 6, -8
 906              		.cfi_offset 14, -4
 907 0002 0446     		mov	r4, r0
 498:USB/STM32_USB_Device_Library/Core/Src/usbd_core.c ****   /* Upon Reset call user call back */
 499:USB/STM32_USB_Device_Library/Core/Src/usbd_core.c ****   pdev->dev_state = USBD_STATE_DEFAULT;
 908              		.loc 1 499 3 is_stmt 1 view .LVU268
 909              		.loc 1 499 19 is_stmt 0 view .LVU269
 910 0004 0123     		movs	r3, #1
 911 0006 80F89C32 		strb	r3, [r0, #668]
 500:USB/STM32_USB_Device_Library/Core/Src/usbd_core.c ****   pdev->ep0_state = USBD_EP0_IDLE;
 912              		.loc 1 500 3 is_stmt 1 view .LVU270
 913              		.loc 1 500 19 is_stmt 0 view .LVU271
 914 000a 0023     		movs	r3, #0
 915 000c C0F89432 		str	r3, [r0, #660]
 501:USB/STM32_USB_Device_Library/Core/Src/usbd_core.c ****   pdev->dev_config = 0U;
 916              		.loc 1 501 3 is_stmt 1 view .LVU272
 917              		.loc 1 501 20 is_stmt 0 view .LVU273
 918 0010 4360     		str	r3, [r0, #4]
 502:USB/STM32_USB_Device_Library/Core/Src/usbd_core.c ****   pdev->dev_remote_wakeup = 0U;
 919              		.loc 1 502 3 is_stmt 1 view .LVU274
 920              		.loc 1 502 27 is_stmt 0 view .LVU275
 921 0012 C0F8A432 		str	r3, [r0, #676]
 503:USB/STM32_USB_Device_Library/Core/Src/usbd_core.c **** 
 504:USB/STM32_USB_Device_Library/Core/Src/usbd_core.c ****   if (pdev->pClassData != NULL)
 922              		.loc 1 504 3 is_stmt 1 view .LVU276
 923              		.loc 1 504 11 is_stmt 0 view .LVU277
 924 0016 D0F8BC32 		ldr	r3, [r0, #700]
 925              		.loc 1 504 6 view .LVU278
 926 001a 23B1     		cbz	r3, .L71
 505:USB/STM32_USB_Device_Library/Core/Src/usbd_core.c ****   {
 506:USB/STM32_USB_Device_Library/Core/Src/usbd_core.c ****     pdev->pClass->DeInit(pdev, (uint8_t)pdev->dev_config);
 927              		.loc 1 506 5 is_stmt 1 view .LVU279
 928              		.loc 1 506 9 is_stmt 0 view .LVU280
 929 001c D0F8B832 		ldr	r3, [r0, #696]
 930              		.loc 1 506 17 view .LVU281
 931 0020 5B68     		ldr	r3, [r3, #4]
 932              		.loc 1 506 5 view .LVU282
 933 0022 0021     		movs	r1, #0
 934 0024 9847     		blx	r3
 935              	.LVL91:
 936              	.L71:
 507:USB/STM32_USB_Device_Library/Core/Src/usbd_core.c ****   }
 508:USB/STM32_USB_Device_Library/Core/Src/usbd_core.c **** 
 509:USB/STM32_USB_Device_Library/Core/Src/usbd_core.c ****     /* Open EP0 OUT */
 510:USB/STM32_USB_Device_Library/Core/Src/usbd_core.c ****   (void)USBD_LL_OpenEP(pdev, 0x00U, USBD_EP_TYPE_CTRL, USB_MAX_EP0_SIZE);
 937              		.loc 1 510 3 is_stmt 1 view .LVU283
 938              		.loc 1 510 9 is_stmt 0 view .LVU284
 939 0026 4023     		movs	r3, #64
 940 0028 0022     		movs	r2, #0
 941 002a 1146     		mov	r1, r2
 942 002c 2046     		mov	r0, r4
 943 002e FFF7FEFF 		bl	USBD_LL_OpenEP
 944              	.LVL92:
 511:USB/STM32_USB_Device_Library/Core/Src/usbd_core.c ****   pdev->ep_out[0x00U & 0xFU].is_used = 1U;
 945              		.loc 1 511 3 is_stmt 1 view .LVU285
 946              		.loc 1 511 38 is_stmt 0 view .LVU286
ARM GAS  C:\Users\HUAV\AppData\Local\Temp\ccztxGrf.s 			page 28


 947 0032 0126     		movs	r6, #1
 948 0034 A4F86461 		strh	r6, [r4, #356]	@ movhi
 512:USB/STM32_USB_Device_Library/Core/Src/usbd_core.c **** 
 513:USB/STM32_USB_Device_Library/Core/Src/usbd_core.c ****   pdev->ep_out[0].maxpacket = USB_MAX_EP0_SIZE;
 949              		.loc 1 513 3 is_stmt 1 view .LVU287
 950              		.loc 1 513 29 is_stmt 0 view .LVU288
 951 0038 4025     		movs	r5, #64
 952 003a C4F86051 		str	r5, [r4, #352]
 514:USB/STM32_USB_Device_Library/Core/Src/usbd_core.c **** 
 515:USB/STM32_USB_Device_Library/Core/Src/usbd_core.c ****   /* Open EP0 IN */
 516:USB/STM32_USB_Device_Library/Core/Src/usbd_core.c ****   (void)USBD_LL_OpenEP(pdev, 0x80U, USBD_EP_TYPE_CTRL, USB_MAX_EP0_SIZE);
 953              		.loc 1 516 3 is_stmt 1 view .LVU289
 954              		.loc 1 516 9 is_stmt 0 view .LVU290
 955 003e 2B46     		mov	r3, r5
 956 0040 0022     		movs	r2, #0
 957 0042 8021     		movs	r1, #128
 958 0044 2046     		mov	r0, r4
 959 0046 FFF7FEFF 		bl	USBD_LL_OpenEP
 960              	.LVL93:
 517:USB/STM32_USB_Device_Library/Core/Src/usbd_core.c ****   pdev->ep_in[0x80U & 0xFU].is_used = 1U;
 961              		.loc 1 517 3 is_stmt 1 view .LVU291
 962              		.loc 1 517 37 is_stmt 0 view .LVU292
 963 004a A684     		strh	r6, [r4, #36]	@ movhi
 518:USB/STM32_USB_Device_Library/Core/Src/usbd_core.c **** 
 519:USB/STM32_USB_Device_Library/Core/Src/usbd_core.c ****   pdev->ep_in[0].maxpacket = USB_MAX_EP0_SIZE;
 964              		.loc 1 519 3 is_stmt 1 view .LVU293
 965              		.loc 1 519 28 is_stmt 0 view .LVU294
 966 004c 2562     		str	r5, [r4, #32]
 520:USB/STM32_USB_Device_Library/Core/Src/usbd_core.c **** 
 521:USB/STM32_USB_Device_Library/Core/Src/usbd_core.c ****   return USBD_OK;
 967              		.loc 1 521 3 is_stmt 1 view .LVU295
 522:USB/STM32_USB_Device_Library/Core/Src/usbd_core.c **** }
 968              		.loc 1 522 1 is_stmt 0 view .LVU296
 969 004e 0020     		movs	r0, #0
 970 0050 70BD     		pop	{r4, r5, r6, pc}
 971              		.loc 1 522 1 view .LVU297
 972              		.cfi_endproc
 973              	.LFE159:
 975              		.section	.text.USBD_LL_SetSpeed,"ax",%progbits
 976              		.align	1
 977              		.global	USBD_LL_SetSpeed
 978              		.syntax unified
 979              		.thumb
 980              		.thumb_func
 982              	USBD_LL_SetSpeed:
 983              	.LVL94:
 984              	.LFB160:
 523:USB/STM32_USB_Device_Library/Core/Src/usbd_core.c **** 
 524:USB/STM32_USB_Device_Library/Core/Src/usbd_core.c **** /**
 525:USB/STM32_USB_Device_Library/Core/Src/usbd_core.c **** * @brief  USBD_LL_Reset
 526:USB/STM32_USB_Device_Library/Core/Src/usbd_core.c **** *         Handle Reset event
 527:USB/STM32_USB_Device_Library/Core/Src/usbd_core.c **** * @param  pdev: device instance
 528:USB/STM32_USB_Device_Library/Core/Src/usbd_core.c **** * @retval status
 529:USB/STM32_USB_Device_Library/Core/Src/usbd_core.c **** */
 530:USB/STM32_USB_Device_Library/Core/Src/usbd_core.c **** USBD_StatusTypeDef USBD_LL_SetSpeed(USBD_HandleTypeDef *pdev,
 531:USB/STM32_USB_Device_Library/Core/Src/usbd_core.c ****                                     USBD_SpeedTypeDef speed)
 532:USB/STM32_USB_Device_Library/Core/Src/usbd_core.c **** {
ARM GAS  C:\Users\HUAV\AppData\Local\Temp\ccztxGrf.s 			page 29


 985              		.loc 1 532 1 is_stmt 1 view -0
 986              		.cfi_startproc
 987              		@ args = 0, pretend = 0, frame = 0
 988              		@ frame_needed = 0, uses_anonymous_args = 0
 989              		@ link register save eliminated.
 533:USB/STM32_USB_Device_Library/Core/Src/usbd_core.c ****   pdev->dev_speed = speed;
 990              		.loc 1 533 3 view .LVU299
 991              		.loc 1 533 19 is_stmt 0 view .LVU300
 992 0000 0174     		strb	r1, [r0, #16]
 534:USB/STM32_USB_Device_Library/Core/Src/usbd_core.c **** 
 535:USB/STM32_USB_Device_Library/Core/Src/usbd_core.c ****   return USBD_OK;
 993              		.loc 1 535 3 is_stmt 1 view .LVU301
 536:USB/STM32_USB_Device_Library/Core/Src/usbd_core.c **** }
 994              		.loc 1 536 1 is_stmt 0 view .LVU302
 995 0002 0020     		movs	r0, #0
 996              	.LVL95:
 997              		.loc 1 536 1 view .LVU303
 998 0004 7047     		bx	lr
 999              		.cfi_endproc
 1000              	.LFE160:
 1002              		.section	.text.USBD_LL_Suspend,"ax",%progbits
 1003              		.align	1
 1004              		.global	USBD_LL_Suspend
 1005              		.syntax unified
 1006              		.thumb
 1007              		.thumb_func
 1009              	USBD_LL_Suspend:
 1010              	.LVL96:
 1011              	.LFB161:
 537:USB/STM32_USB_Device_Library/Core/Src/usbd_core.c **** 
 538:USB/STM32_USB_Device_Library/Core/Src/usbd_core.c **** /**
 539:USB/STM32_USB_Device_Library/Core/Src/usbd_core.c **** * @brief  USBD_Suspend
 540:USB/STM32_USB_Device_Library/Core/Src/usbd_core.c **** *         Handle Suspend event
 541:USB/STM32_USB_Device_Library/Core/Src/usbd_core.c **** * @param  pdev: device instance
 542:USB/STM32_USB_Device_Library/Core/Src/usbd_core.c **** * @retval status
 543:USB/STM32_USB_Device_Library/Core/Src/usbd_core.c **** */
 544:USB/STM32_USB_Device_Library/Core/Src/usbd_core.c **** 
 545:USB/STM32_USB_Device_Library/Core/Src/usbd_core.c **** USBD_StatusTypeDef USBD_LL_Suspend(USBD_HandleTypeDef *pdev)
 546:USB/STM32_USB_Device_Library/Core/Src/usbd_core.c **** {
 1012              		.loc 1 546 1 is_stmt 1 view -0
 1013              		.cfi_startproc
 1014              		@ args = 0, pretend = 0, frame = 0
 1015              		@ frame_needed = 0, uses_anonymous_args = 0
 1016              		@ link register save eliminated.
 547:USB/STM32_USB_Device_Library/Core/Src/usbd_core.c ****   pdev->dev_old_state = pdev->dev_state;
 1017              		.loc 1 547 3 view .LVU305
 1018              		.loc 1 547 29 is_stmt 0 view .LVU306
 1019 0000 90F89C32 		ldrb	r3, [r0, #668]	@ zero_extendqisi2
 1020              		.loc 1 547 23 view .LVU307
 1021 0004 80F89D32 		strb	r3, [r0, #669]
 548:USB/STM32_USB_Device_Library/Core/Src/usbd_core.c ****   pdev->dev_state = USBD_STATE_SUSPENDED;
 1022              		.loc 1 548 3 is_stmt 1 view .LVU308
 1023              		.loc 1 548 19 is_stmt 0 view .LVU309
 1024 0008 0423     		movs	r3, #4
 1025 000a 80F89C32 		strb	r3, [r0, #668]
 549:USB/STM32_USB_Device_Library/Core/Src/usbd_core.c **** 
 550:USB/STM32_USB_Device_Library/Core/Src/usbd_core.c ****   return USBD_OK;
ARM GAS  C:\Users\HUAV\AppData\Local\Temp\ccztxGrf.s 			page 30


 1026              		.loc 1 550 3 is_stmt 1 view .LVU310
 551:USB/STM32_USB_Device_Library/Core/Src/usbd_core.c **** }
 1027              		.loc 1 551 1 is_stmt 0 view .LVU311
 1028 000e 0020     		movs	r0, #0
 1029              	.LVL97:
 1030              		.loc 1 551 1 view .LVU312
 1031 0010 7047     		bx	lr
 1032              		.cfi_endproc
 1033              	.LFE161:
 1035              		.section	.text.USBD_LL_Resume,"ax",%progbits
 1036              		.align	1
 1037              		.global	USBD_LL_Resume
 1038              		.syntax unified
 1039              		.thumb
 1040              		.thumb_func
 1042              	USBD_LL_Resume:
 1043              	.LVL98:
 1044              	.LFB162:
 552:USB/STM32_USB_Device_Library/Core/Src/usbd_core.c **** 
 553:USB/STM32_USB_Device_Library/Core/Src/usbd_core.c **** /**
 554:USB/STM32_USB_Device_Library/Core/Src/usbd_core.c **** * @brief  USBD_Resume
 555:USB/STM32_USB_Device_Library/Core/Src/usbd_core.c **** *         Handle Resume event
 556:USB/STM32_USB_Device_Library/Core/Src/usbd_core.c **** * @param  pdev: device instance
 557:USB/STM32_USB_Device_Library/Core/Src/usbd_core.c **** * @retval status
 558:USB/STM32_USB_Device_Library/Core/Src/usbd_core.c **** */
 559:USB/STM32_USB_Device_Library/Core/Src/usbd_core.c **** 
 560:USB/STM32_USB_Device_Library/Core/Src/usbd_core.c **** USBD_StatusTypeDef USBD_LL_Resume(USBD_HandleTypeDef *pdev)
 561:USB/STM32_USB_Device_Library/Core/Src/usbd_core.c **** {
 1045              		.loc 1 561 1 is_stmt 1 view -0
 1046              		.cfi_startproc
 1047              		@ args = 0, pretend = 0, frame = 0
 1048              		@ frame_needed = 0, uses_anonymous_args = 0
 1049              		@ link register save eliminated.
 562:USB/STM32_USB_Device_Library/Core/Src/usbd_core.c ****   if (pdev->dev_state == USBD_STATE_SUSPENDED)
 1050              		.loc 1 562 3 view .LVU314
 1051              		.loc 1 562 11 is_stmt 0 view .LVU315
 1052 0000 90F89C32 		ldrb	r3, [r0, #668]	@ zero_extendqisi2
 1053              		.loc 1 562 6 view .LVU316
 1054 0004 042B     		cmp	r3, #4
 1055 0006 01D0     		beq	.L77
 1056              	.L76:
 563:USB/STM32_USB_Device_Library/Core/Src/usbd_core.c ****   {
 564:USB/STM32_USB_Device_Library/Core/Src/usbd_core.c ****     pdev->dev_state = pdev->dev_old_state;
 565:USB/STM32_USB_Device_Library/Core/Src/usbd_core.c ****   }
 566:USB/STM32_USB_Device_Library/Core/Src/usbd_core.c **** 
 567:USB/STM32_USB_Device_Library/Core/Src/usbd_core.c ****   return USBD_OK;
 1057              		.loc 1 567 3 is_stmt 1 view .LVU317
 568:USB/STM32_USB_Device_Library/Core/Src/usbd_core.c **** }
 1058              		.loc 1 568 1 is_stmt 0 view .LVU318
 1059 0008 0020     		movs	r0, #0
 1060              	.LVL99:
 1061              		.loc 1 568 1 view .LVU319
 1062 000a 7047     		bx	lr
 1063              	.LVL100:
 1064              	.L77:
 564:USB/STM32_USB_Device_Library/Core/Src/usbd_core.c ****   }
 1065              		.loc 1 564 5 is_stmt 1 view .LVU320
ARM GAS  C:\Users\HUAV\AppData\Local\Temp\ccztxGrf.s 			page 31


 564:USB/STM32_USB_Device_Library/Core/Src/usbd_core.c ****   }
 1066              		.loc 1 564 27 is_stmt 0 view .LVU321
 1067 000c 90F89D32 		ldrb	r3, [r0, #669]	@ zero_extendqisi2
 564:USB/STM32_USB_Device_Library/Core/Src/usbd_core.c ****   }
 1068              		.loc 1 564 21 view .LVU322
 1069 0010 80F89C32 		strb	r3, [r0, #668]
 1070 0014 F8E7     		b	.L76
 1071              		.cfi_endproc
 1072              	.LFE162:
 1074              		.section	.text.USBD_LL_SOF,"ax",%progbits
 1075              		.align	1
 1076              		.global	USBD_LL_SOF
 1077              		.syntax unified
 1078              		.thumb
 1079              		.thumb_func
 1081              	USBD_LL_SOF:
 1082              	.LVL101:
 1083              	.LFB163:
 569:USB/STM32_USB_Device_Library/Core/Src/usbd_core.c **** 
 570:USB/STM32_USB_Device_Library/Core/Src/usbd_core.c **** /**
 571:USB/STM32_USB_Device_Library/Core/Src/usbd_core.c **** * @brief  USBD_SOF
 572:USB/STM32_USB_Device_Library/Core/Src/usbd_core.c **** *         Handle SOF event
 573:USB/STM32_USB_Device_Library/Core/Src/usbd_core.c **** * @param  pdev: device instance
 574:USB/STM32_USB_Device_Library/Core/Src/usbd_core.c **** * @retval status
 575:USB/STM32_USB_Device_Library/Core/Src/usbd_core.c **** */
 576:USB/STM32_USB_Device_Library/Core/Src/usbd_core.c **** 
 577:USB/STM32_USB_Device_Library/Core/Src/usbd_core.c **** USBD_StatusTypeDef USBD_LL_SOF(USBD_HandleTypeDef *pdev)
 578:USB/STM32_USB_Device_Library/Core/Src/usbd_core.c **** {
 1084              		.loc 1 578 1 is_stmt 1 view -0
 1085              		.cfi_startproc
 1086              		@ args = 0, pretend = 0, frame = 0
 1087              		@ frame_needed = 0, uses_anonymous_args = 0
 1088              		.loc 1 578 1 is_stmt 0 view .LVU324
 1089 0000 08B5     		push	{r3, lr}
 1090              	.LCFI15:
 1091              		.cfi_def_cfa_offset 8
 1092              		.cfi_offset 3, -8
 1093              		.cfi_offset 14, -4
 579:USB/STM32_USB_Device_Library/Core/Src/usbd_core.c ****   if (pdev->dev_state == USBD_STATE_CONFIGURED)
 1094              		.loc 1 579 3 is_stmt 1 view .LVU325
 1095              		.loc 1 579 11 is_stmt 0 view .LVU326
 1096 0002 90F89C32 		ldrb	r3, [r0, #668]	@ zero_extendqisi2
 1097              		.loc 1 579 6 view .LVU327
 1098 0006 032B     		cmp	r3, #3
 1099 0008 01D0     		beq	.L81
 1100              	.LVL102:
 1101              	.L79:
 580:USB/STM32_USB_Device_Library/Core/Src/usbd_core.c ****   {
 581:USB/STM32_USB_Device_Library/Core/Src/usbd_core.c ****     if (pdev->pClass->SOF != NULL)
 582:USB/STM32_USB_Device_Library/Core/Src/usbd_core.c ****     {
 583:USB/STM32_USB_Device_Library/Core/Src/usbd_core.c ****       pdev->pClass->SOF(pdev);
 584:USB/STM32_USB_Device_Library/Core/Src/usbd_core.c ****     }
 585:USB/STM32_USB_Device_Library/Core/Src/usbd_core.c ****   }
 586:USB/STM32_USB_Device_Library/Core/Src/usbd_core.c **** 
 587:USB/STM32_USB_Device_Library/Core/Src/usbd_core.c ****   return USBD_OK;
 1102              		.loc 1 587 3 is_stmt 1 view .LVU328
 588:USB/STM32_USB_Device_Library/Core/Src/usbd_core.c **** }
ARM GAS  C:\Users\HUAV\AppData\Local\Temp\ccztxGrf.s 			page 32


 1103              		.loc 1 588 1 is_stmt 0 view .LVU329
 1104 000a 0020     		movs	r0, #0
 1105 000c 08BD     		pop	{r3, pc}
 1106              	.LVL103:
 1107              	.L81:
 581:USB/STM32_USB_Device_Library/Core/Src/usbd_core.c ****     {
 1108              		.loc 1 581 5 is_stmt 1 view .LVU330
 581:USB/STM32_USB_Device_Library/Core/Src/usbd_core.c ****     {
 1109              		.loc 1 581 13 is_stmt 0 view .LVU331
 1110 000e D0F8B832 		ldr	r3, [r0, #696]
 581:USB/STM32_USB_Device_Library/Core/Src/usbd_core.c ****     {
 1111              		.loc 1 581 21 view .LVU332
 1112 0012 DB69     		ldr	r3, [r3, #28]
 581:USB/STM32_USB_Device_Library/Core/Src/usbd_core.c ****     {
 1113              		.loc 1 581 8 view .LVU333
 1114 0014 002B     		cmp	r3, #0
 1115 0016 F8D0     		beq	.L79
 583:USB/STM32_USB_Device_Library/Core/Src/usbd_core.c ****     }
 1116              		.loc 1 583 7 is_stmt 1 view .LVU334
 1117 0018 9847     		blx	r3
 1118              	.LVL104:
 583:USB/STM32_USB_Device_Library/Core/Src/usbd_core.c ****     }
 1119              		.loc 1 583 7 is_stmt 0 view .LVU335
 1120 001a F6E7     		b	.L79
 1121              		.cfi_endproc
 1122              	.LFE163:
 1124              		.section	.text.USBD_LL_IsoINIncomplete,"ax",%progbits
 1125              		.align	1
 1126              		.global	USBD_LL_IsoINIncomplete
 1127              		.syntax unified
 1128              		.thumb
 1129              		.thumb_func
 1131              	USBD_LL_IsoINIncomplete:
 1132              	.LVL105:
 1133              	.LFB164:
 589:USB/STM32_USB_Device_Library/Core/Src/usbd_core.c **** 
 590:USB/STM32_USB_Device_Library/Core/Src/usbd_core.c **** /**
 591:USB/STM32_USB_Device_Library/Core/Src/usbd_core.c **** * @brief  USBD_IsoINIncomplete
 592:USB/STM32_USB_Device_Library/Core/Src/usbd_core.c **** *         Handle iso in incomplete event
 593:USB/STM32_USB_Device_Library/Core/Src/usbd_core.c **** * @param  pdev: device instance
 594:USB/STM32_USB_Device_Library/Core/Src/usbd_core.c **** * @retval status
 595:USB/STM32_USB_Device_Library/Core/Src/usbd_core.c **** */
 596:USB/STM32_USB_Device_Library/Core/Src/usbd_core.c **** USBD_StatusTypeDef USBD_LL_IsoINIncomplete(USBD_HandleTypeDef *pdev,
 597:USB/STM32_USB_Device_Library/Core/Src/usbd_core.c ****                                            uint8_t epnum)
 598:USB/STM32_USB_Device_Library/Core/Src/usbd_core.c **** {
 1134              		.loc 1 598 1 is_stmt 1 view -0
 1135              		.cfi_startproc
 1136              		@ args = 0, pretend = 0, frame = 0
 1137              		@ frame_needed = 0, uses_anonymous_args = 0
 1138              		@ link register save eliminated.
 599:USB/STM32_USB_Device_Library/Core/Src/usbd_core.c ****   /* Prevent unused arguments compilation warning */
 600:USB/STM32_USB_Device_Library/Core/Src/usbd_core.c ****   UNUSED(pdev);
 1139              		.loc 1 600 3 view .LVU337
 601:USB/STM32_USB_Device_Library/Core/Src/usbd_core.c ****   UNUSED(epnum);
 1140              		.loc 1 601 3 view .LVU338
 602:USB/STM32_USB_Device_Library/Core/Src/usbd_core.c **** 
 603:USB/STM32_USB_Device_Library/Core/Src/usbd_core.c ****   return USBD_OK;
ARM GAS  C:\Users\HUAV\AppData\Local\Temp\ccztxGrf.s 			page 33


 1141              		.loc 1 603 3 view .LVU339
 604:USB/STM32_USB_Device_Library/Core/Src/usbd_core.c **** }
 1142              		.loc 1 604 1 is_stmt 0 view .LVU340
 1143 0000 0020     		movs	r0, #0
 1144              	.LVL106:
 1145              		.loc 1 604 1 view .LVU341
 1146 0002 7047     		bx	lr
 1147              		.cfi_endproc
 1148              	.LFE164:
 1150              		.section	.text.USBD_LL_IsoOUTIncomplete,"ax",%progbits
 1151              		.align	1
 1152              		.global	USBD_LL_IsoOUTIncomplete
 1153              		.syntax unified
 1154              		.thumb
 1155              		.thumb_func
 1157              	USBD_LL_IsoOUTIncomplete:
 1158              	.LVL107:
 1159              	.LFB165:
 605:USB/STM32_USB_Device_Library/Core/Src/usbd_core.c **** 
 606:USB/STM32_USB_Device_Library/Core/Src/usbd_core.c **** /**
 607:USB/STM32_USB_Device_Library/Core/Src/usbd_core.c **** * @brief  USBD_IsoOUTIncomplete
 608:USB/STM32_USB_Device_Library/Core/Src/usbd_core.c **** *         Handle iso out incomplete event
 609:USB/STM32_USB_Device_Library/Core/Src/usbd_core.c **** * @param  pdev: device instance
 610:USB/STM32_USB_Device_Library/Core/Src/usbd_core.c **** * @retval status
 611:USB/STM32_USB_Device_Library/Core/Src/usbd_core.c **** */
 612:USB/STM32_USB_Device_Library/Core/Src/usbd_core.c **** USBD_StatusTypeDef USBD_LL_IsoOUTIncomplete(USBD_HandleTypeDef *pdev,
 613:USB/STM32_USB_Device_Library/Core/Src/usbd_core.c ****                                             uint8_t epnum)
 614:USB/STM32_USB_Device_Library/Core/Src/usbd_core.c **** {
 1160              		.loc 1 614 1 is_stmt 1 view -0
 1161              		.cfi_startproc
 1162              		@ args = 0, pretend = 0, frame = 0
 1163              		@ frame_needed = 0, uses_anonymous_args = 0
 1164              		@ link register save eliminated.
 615:USB/STM32_USB_Device_Library/Core/Src/usbd_core.c ****   /* Prevent unused arguments compilation warning */
 616:USB/STM32_USB_Device_Library/Core/Src/usbd_core.c ****   UNUSED(pdev);
 1165              		.loc 1 616 3 view .LVU343
 617:USB/STM32_USB_Device_Library/Core/Src/usbd_core.c ****   UNUSED(epnum);
 1166              		.loc 1 617 3 view .LVU344
 618:USB/STM32_USB_Device_Library/Core/Src/usbd_core.c **** 
 619:USB/STM32_USB_Device_Library/Core/Src/usbd_core.c ****   return USBD_OK;
 1167              		.loc 1 619 3 view .LVU345
 620:USB/STM32_USB_Device_Library/Core/Src/usbd_core.c **** }
 1168              		.loc 1 620 1 is_stmt 0 view .LVU346
 1169 0000 0020     		movs	r0, #0
 1170              	.LVL108:
 1171              		.loc 1 620 1 view .LVU347
 1172 0002 7047     		bx	lr
 1173              		.cfi_endproc
 1174              	.LFE165:
 1176              		.section	.text.USBD_LL_DevConnected,"ax",%progbits
 1177              		.align	1
 1178              		.global	USBD_LL_DevConnected
 1179              		.syntax unified
 1180              		.thumb
 1181              		.thumb_func
 1183              	USBD_LL_DevConnected:
 1184              	.LVL109:
ARM GAS  C:\Users\HUAV\AppData\Local\Temp\ccztxGrf.s 			page 34


 1185              	.LFB166:
 621:USB/STM32_USB_Device_Library/Core/Src/usbd_core.c **** 
 622:USB/STM32_USB_Device_Library/Core/Src/usbd_core.c **** /**
 623:USB/STM32_USB_Device_Library/Core/Src/usbd_core.c **** * @brief  USBD_DevConnected
 624:USB/STM32_USB_Device_Library/Core/Src/usbd_core.c **** *         Handle device connection event
 625:USB/STM32_USB_Device_Library/Core/Src/usbd_core.c **** * @param  pdev: device instance
 626:USB/STM32_USB_Device_Library/Core/Src/usbd_core.c **** * @retval status
 627:USB/STM32_USB_Device_Library/Core/Src/usbd_core.c **** */
 628:USB/STM32_USB_Device_Library/Core/Src/usbd_core.c **** USBD_StatusTypeDef USBD_LL_DevConnected(USBD_HandleTypeDef *pdev)
 629:USB/STM32_USB_Device_Library/Core/Src/usbd_core.c **** {
 1186              		.loc 1 629 1 is_stmt 1 view -0
 1187              		.cfi_startproc
 1188              		@ args = 0, pretend = 0, frame = 0
 1189              		@ frame_needed = 0, uses_anonymous_args = 0
 1190              		@ link register save eliminated.
 630:USB/STM32_USB_Device_Library/Core/Src/usbd_core.c ****   /* Prevent unused argument compilation warning */
 631:USB/STM32_USB_Device_Library/Core/Src/usbd_core.c ****   UNUSED(pdev);
 1191              		.loc 1 631 3 view .LVU349
 632:USB/STM32_USB_Device_Library/Core/Src/usbd_core.c **** 
 633:USB/STM32_USB_Device_Library/Core/Src/usbd_core.c ****   return USBD_OK;
 1192              		.loc 1 633 3 view .LVU350
 634:USB/STM32_USB_Device_Library/Core/Src/usbd_core.c **** }
 1193              		.loc 1 634 1 is_stmt 0 view .LVU351
 1194 0000 0020     		movs	r0, #0
 1195              	.LVL110:
 1196              		.loc 1 634 1 view .LVU352
 1197 0002 7047     		bx	lr
 1198              		.cfi_endproc
 1199              	.LFE166:
 1201              		.section	.text.USBD_LL_DevDisconnected,"ax",%progbits
 1202              		.align	1
 1203              		.global	USBD_LL_DevDisconnected
 1204              		.syntax unified
 1205              		.thumb
 1206              		.thumb_func
 1208              	USBD_LL_DevDisconnected:
 1209              	.LVL111:
 1210              	.LFB167:
 635:USB/STM32_USB_Device_Library/Core/Src/usbd_core.c **** 
 636:USB/STM32_USB_Device_Library/Core/Src/usbd_core.c **** /**
 637:USB/STM32_USB_Device_Library/Core/Src/usbd_core.c **** * @brief  USBD_DevDisconnected
 638:USB/STM32_USB_Device_Library/Core/Src/usbd_core.c **** *         Handle device disconnection event
 639:USB/STM32_USB_Device_Library/Core/Src/usbd_core.c **** * @param  pdev: device instance
 640:USB/STM32_USB_Device_Library/Core/Src/usbd_core.c **** * @retval status
 641:USB/STM32_USB_Device_Library/Core/Src/usbd_core.c **** */
 642:USB/STM32_USB_Device_Library/Core/Src/usbd_core.c **** USBD_StatusTypeDef USBD_LL_DevDisconnected(USBD_HandleTypeDef *pdev)
 643:USB/STM32_USB_Device_Library/Core/Src/usbd_core.c **** {
 1211              		.loc 1 643 1 is_stmt 1 view -0
 1212              		.cfi_startproc
 1213              		@ args = 0, pretend = 0, frame = 0
 1214              		@ frame_needed = 0, uses_anonymous_args = 0
 1215              		.loc 1 643 1 is_stmt 0 view .LVU354
 1216 0000 08B5     		push	{r3, lr}
 1217              	.LCFI16:
 1218              		.cfi_def_cfa_offset 8
 1219              		.cfi_offset 3, -8
 1220              		.cfi_offset 14, -4
ARM GAS  C:\Users\HUAV\AppData\Local\Temp\ccztxGrf.s 			page 35


 644:USB/STM32_USB_Device_Library/Core/Src/usbd_core.c ****   /* Free Class Resources */
 645:USB/STM32_USB_Device_Library/Core/Src/usbd_core.c ****   pdev->dev_state = USBD_STATE_DEFAULT;
 1221              		.loc 1 645 3 is_stmt 1 view .LVU355
 1222              		.loc 1 645 19 is_stmt 0 view .LVU356
 1223 0002 0123     		movs	r3, #1
 1224 0004 80F89C32 		strb	r3, [r0, #668]
 646:USB/STM32_USB_Device_Library/Core/Src/usbd_core.c **** 
 647:USB/STM32_USB_Device_Library/Core/Src/usbd_core.c ****   if (pdev->pClass != NULL)
 1225              		.loc 1 647 3 is_stmt 1 view .LVU357
 1226              		.loc 1 647 11 is_stmt 0 view .LVU358
 1227 0008 D0F8B832 		ldr	r3, [r0, #696]
 1228              		.loc 1 647 6 view .LVU359
 1229 000c 13B1     		cbz	r3, .L86
 648:USB/STM32_USB_Device_Library/Core/Src/usbd_core.c ****   {
 649:USB/STM32_USB_Device_Library/Core/Src/usbd_core.c ****     pdev->pClass->DeInit(pdev, (uint8_t)pdev->dev_config);
 1230              		.loc 1 649 5 is_stmt 1 view .LVU360
 1231              		.loc 1 649 17 is_stmt 0 view .LVU361
 1232 000e 5B68     		ldr	r3, [r3, #4]
 1233              		.loc 1 649 5 view .LVU362
 1234 0010 0179     		ldrb	r1, [r0, #4]	@ zero_extendqisi2
 1235 0012 9847     		blx	r3
 1236              	.LVL112:
 1237              	.L86:
 650:USB/STM32_USB_Device_Library/Core/Src/usbd_core.c ****   }
 651:USB/STM32_USB_Device_Library/Core/Src/usbd_core.c **** 
 652:USB/STM32_USB_Device_Library/Core/Src/usbd_core.c ****   return USBD_OK;
 1238              		.loc 1 652 3 is_stmt 1 view .LVU363
 653:USB/STM32_USB_Device_Library/Core/Src/usbd_core.c **** }
 1239              		.loc 1 653 1 is_stmt 0 view .LVU364
 1240 0014 0020     		movs	r0, #0
 1241 0016 08BD     		pop	{r3, pc}
 1242              		.cfi_endproc
 1243              	.LFE167:
 1245              		.text
 1246              	.Letext0:
 1247              		.file 2 "c:\\program files (x86)\\gnu arm embedded toolchain\\10 2021.10\\arm-none-eabi\\include\\
 1248              		.file 3 "c:\\program files (x86)\\gnu arm embedded toolchain\\10 2021.10\\arm-none-eabi\\include\\
 1249              		.file 4 "USB/STM32_USB_Device_Library/Core/Inc/usbd_def.h"
 1250              		.file 5 "USB/STM32_USB_Device_Library/Core/Inc/usbd_core.h"
 1251              		.file 6 "USB/STM32_USB_Device_Library/Core/Inc/usbd_ioreq.h"
 1252              		.file 7 "USB/STM32_USB_Device_Library/Core/Inc/usbd_ctlreq.h"
ARM GAS  C:\Users\HUAV\AppData\Local\Temp\ccztxGrf.s 			page 36

