ARM GAS  C:\Users\HUAV\AppData\Local\Temp\cci0AdpE.s 			page 1


   1              		.cpu cortex-m7
   2              		.eabi_attribute 28, 1
   3              		.eabi_attribute 20, 1
   4              		.eabi_attribute 21, 1
   5              		.eabi_attribute 23, 3
   6              		.eabi_attribute 24, 1
   7              		.eabi_attribute 25, 1
   8              		.eabi_attribute 26, 1
   9              		.eabi_attribute 30, 1
  10              		.eabi_attribute 34, 1
  11              		.eabi_attribute 18, 4
  12              		.file	"util.c"
  13              		.text
  14              	.Ltext0:
  15              		.cfi_sections	.debug_frame
  16              		.section	.text.Common_CRC16,"ax",%progbits
  17              		.align	1
  18              		.global	Common_CRC16
  19              		.arch armv7e-m
  20              		.syntax unified
  21              		.thumb
  22              		.thumb_func
  23              		.fpu fpv5-d16
  25              	Common_CRC16:
  26              	.LVL0:
  27              	.LFB0:
  28              		.file 1 "common/util.c"
   1:common/util.c **** #include "util.h"
   2:common/util.c **** 
   3:common/util.c **** /* Table of CRC constants - implements x^16+x^12+x^5+1 */
   4:common/util.c **** static const uint16_t crc16_tab[] = 
   5:common/util.c **** {
   6:common/util.c ****     0x0000, 0x1021, 0x2042, 0x3063, 0x4084, 0x50a5, 0x60c6, 0x70e7,
   7:common/util.c ****     0x8108, 0x9129, 0xa14a, 0xb16b, 0xc18c, 0xd1ad, 0xe1ce, 0xf1ef,
   8:common/util.c ****     0x1231, 0x0210, 0x3273, 0x2252, 0x52b5, 0x4294, 0x72f7, 0x62d6,
   9:common/util.c ****     0x9339, 0x8318, 0xb37b, 0xa35a, 0xd3bd, 0xc39c, 0xf3ff, 0xe3de,
  10:common/util.c ****     0x2462, 0x3443, 0x0420, 0x1401, 0x64e6, 0x74c7, 0x44a4, 0x5485,
  11:common/util.c ****     0xa56a, 0xb54b, 0x8528, 0x9509, 0xe5ee, 0xf5cf, 0xc5ac, 0xd58d,
  12:common/util.c ****     0x3653, 0x2672, 0x1611, 0x0630, 0x76d7, 0x66f6, 0x5695, 0x46b4,
  13:common/util.c ****     0xb75b, 0xa77a, 0x9719, 0x8738, 0xf7df, 0xe7fe, 0xd79d, 0xc7bc,
  14:common/util.c ****     0x48c4, 0x58e5, 0x6886, 0x78a7, 0x0840, 0x1861, 0x2802, 0x3823,
  15:common/util.c ****     0xc9cc, 0xd9ed, 0xe98e, 0xf9af, 0x8948, 0x9969, 0xa90a, 0xb92b,
  16:common/util.c ****     0x5af5, 0x4ad4, 0x7ab7, 0x6a96, 0x1a71, 0x0a50, 0x3a33, 0x2a12,
  17:common/util.c ****     0xdbfd, 0xcbdc, 0xfbbf, 0xeb9e, 0x9b79, 0x8b58, 0xbb3b, 0xab1a,
  18:common/util.c ****     0x6ca6, 0x7c87, 0x4ce4, 0x5cc5, 0x2c22, 0x3c03, 0x0c60, 0x1c41,
  19:common/util.c ****     0xedae, 0xfd8f, 0xcdec, 0xddcd, 0xad2a, 0xbd0b, 0x8d68, 0x9d49,
  20:common/util.c ****     0x7e97, 0x6eb6, 0x5ed5, 0x4ef4, 0x3e13, 0x2e32, 0x1e51, 0x0e70,
  21:common/util.c ****     0xff9f, 0xefbe, 0xdfdd, 0xcffc, 0xbf1b, 0xaf3a, 0x9f59, 0x8f78,
  22:common/util.c ****     0x9188, 0x81a9, 0xb1ca, 0xa1eb, 0xd10c, 0xc12d, 0xf14e, 0xe16f,
  23:common/util.c ****     0x1080, 0x00a1, 0x30c2, 0x20e3, 0x5004, 0x4025, 0x7046, 0x6067,
  24:common/util.c ****     0x83b9, 0x9398, 0xa3fb, 0xb3da, 0xc33d, 0xd31c, 0xe37f, 0xf35e,
  25:common/util.c ****     0x02b1, 0x1290, 0x22f3, 0x32d2, 0x4235, 0x5214, 0x6277, 0x7256,
  26:common/util.c ****     0xb5ea, 0xa5cb, 0x95a8, 0x8589, 0xf56e, 0xe54f, 0xd52c, 0xc50d,
  27:common/util.c ****     0x34e2, 0x24c3, 0x14a0, 0x0481, 0x7466, 0x6447, 0x5424, 0x4405,
  28:common/util.c ****     0xa7db, 0xb7fa, 0x8799, 0x97b8, 0xe75f, 0xf77e, 0xc71d, 0xd73c,
  29:common/util.c ****     0x26d3, 0x36f2, 0x0691, 0x16b0, 0x6657, 0x7676, 0x4615, 0x5634,
  30:common/util.c ****     0xd94c, 0xc96d, 0xf90e, 0xe92f, 0x99c8, 0x89e9, 0xb98a, 0xa9ab,
ARM GAS  C:\Users\HUAV\AppData\Local\Temp\cci0AdpE.s 			page 2


  31:common/util.c ****     0x5844, 0x4865, 0x7806, 0x6827, 0x18c0, 0x08e1, 0x3882, 0x28a3,
  32:common/util.c ****     0xcb7d, 0xdb5c, 0xeb3f, 0xfb1e, 0x8bf9, 0x9bd8, 0xabbb, 0xbb9a,
  33:common/util.c ****     0x4a75, 0x5a54, 0x6a37, 0x7a16, 0x0af1, 0x1ad0, 0x2ab3, 0x3a92,
  34:common/util.c ****     0xfd2e, 0xed0f, 0xdd6c, 0xcd4d, 0xbdaa, 0xad8b, 0x9de8, 0x8dc9,
  35:common/util.c ****     0x7c26, 0x6c07, 0x5c64, 0x4c45, 0x3ca2, 0x2c83, 0x1ce0, 0x0cc1,
  36:common/util.c ****     0xef1f, 0xff3e, 0xcf5d, 0xdf7c, 0xaf9b, 0xbfba, 0x8fd9, 0x9ff8,
  37:common/util.c ****     0x6e17, 0x7e36, 0x4e55, 0x5e74, 0x2e93, 0x3eb2, 0x0ed1, 0x1ef0,
  38:common/util.c **** };
  39:common/util.c **** 
  40:common/util.c **** int16_t Common_CRC16(const uint8_t *pBuf, const uint32_t len)
  41:common/util.c **** {
  29              		.loc 1 41 1 view -0
  30              		.cfi_startproc
  31              		@ args = 0, pretend = 0, frame = 0
  32              		@ frame_needed = 0, uses_anonymous_args = 0
  33              		@ link register save eliminated.
  42:common/util.c ****     uint16_t CheckSum = 0;
  34              		.loc 1 42 5 view .LVU1
  43:common/util.c ****     uint8_t j = 0;
  35              		.loc 1 43 5 view .LVU2
  44:common/util.c **** 
  45:common/util.c ****     if(NULL == pBuf)
  36              		.loc 1 45 5 view .LVU3
  37              		.loc 1 45 7 is_stmt 0 view .LVU4
  38 0000 C0B1     		cbz	r0, .L5
  39 0002 0346     		mov	r3, r0
  40              	.LBB2:
  46:common/util.c ****         return -1;
  47:common/util.c ****         
  48:common/util.c ****     for (uint32_t i = 0; i < len; i++)
  41              		.loc 1 48 19 view .LVU5
  42 0004 4FF0000C 		mov	ip, #0
  43              	.LBE2:
  42:common/util.c ****     uint8_t j = 0;
  44              		.loc 1 42 14 view .LVU6
  45 0008 6046     		mov	r0, ip
  46              	.LVL1:
  47              	.LBB3:
  48              		.loc 1 48 26 is_stmt 1 view .LVU7
  49              		.loc 1 48 5 is_stmt 0 view .LVU8
  50 000a 8C45     		cmp	ip, r1
  51 000c 15D2     		bcs	.L12
  52              	.LBE3:
  41:common/util.c ****     uint16_t CheckSum = 0;
  53              		.loc 1 41 1 view .LVU9
  54 000e 10B4     		push	{r4}
  55              	.LCFI0:
  56              		.cfi_def_cfa_offset 4
  57              		.cfi_offset 4, -4
  58              	.LVL2:
  59              	.L4:
  60              	.LBB4:
  49:common/util.c ****     {
  50:common/util.c ****         j = (uint8_t)(((CheckSum >> 8) ^ *pBuf++) & 0xFF);
  61              		.loc 1 50 9 is_stmt 1 discriminator 3 view .LVU10
  62              		.loc 1 50 42 is_stmt 0 discriminator 3 view .LVU11
  63 0010 13F8012B 		ldrb	r2, [r3], #1	@ zero_extendqisi2
ARM GAS  C:\Users\HUAV\AppData\Local\Temp\cci0AdpE.s 			page 3


  64              	.LVL3:
  65              		.loc 1 50 11 discriminator 3 view .LVU12
  66 0014 82EA1022 		eor	r2, r2, r0, lsr #8
  67              	.LVL4:
  51:common/util.c ****         CheckSum = crc16_tab[j] ^ (CheckSum << 8);
  68              		.loc 1 51 9 is_stmt 1 discriminator 3 view .LVU13
  69              		.loc 1 51 29 is_stmt 0 discriminator 3 view .LVU14
  70 0018 094C     		ldr	r4, .L13
  71 001a 34F91220 		ldrsh	r2, [r4, r2, lsl #1]
  72              	.LVL5:
  73              		.loc 1 51 33 discriminator 3 view .LVU15
  74 001e 82EA0020 		eor	r0, r2, r0, lsl #8
  75              	.LVL6:
  76              		.loc 1 51 18 discriminator 3 view .LVU16
  77 0022 80B2     		uxth	r0, r0
  78              	.LVL7:
  48:common/util.c ****     {
  79              		.loc 1 48 35 is_stmt 1 discriminator 3 view .LVU17
  48:common/util.c ****     {
  80              		.loc 1 48 36 is_stmt 0 discriminator 3 view .LVU18
  81 0024 0CF1010C 		add	ip, ip, #1
  82              	.LVL8:
  48:common/util.c ****     {
  83              		.loc 1 48 26 is_stmt 1 discriminator 3 view .LVU19
  48:common/util.c ****     {
  84              		.loc 1 48 5 is_stmt 0 discriminator 3 view .LVU20
  85 0028 8C45     		cmp	ip, r1
  86 002a F1D3     		bcc	.L4
  87              	.LBE4:
  52:common/util.c ****     }
  53:common/util.c ****     
  54:common/util.c ****     return CheckSum;
  88              		.loc 1 54 5 is_stmt 1 view .LVU21
  89              		.loc 1 54 12 is_stmt 0 view .LVU22
  90 002c 00B2     		sxth	r0, r0
  55:common/util.c **** }
  91              		.loc 1 55 1 view .LVU23
  92 002e 5DF8044B 		ldr	r4, [sp], #4
  93              	.LCFI1:
  94              		.cfi_restore 4
  95              		.cfi_def_cfa_offset 0
  96 0032 7047     		bx	lr
  97              	.LVL9:
  98              	.L5:
  46:common/util.c ****         
  99              		.loc 1 46 16 view .LVU24
 100 0034 4FF0FF30 		mov	r0, #-1
 101              	.LVL10:
  46:common/util.c ****         
 102              		.loc 1 46 16 view .LVU25
 103 0038 7047     		bx	lr
 104              	.LVL11:
 105              	.L12:
  54:common/util.c **** }
 106              		.loc 1 54 5 is_stmt 1 view .LVU26
  54:common/util.c **** }
 107              		.loc 1 54 12 is_stmt 0 view .LVU27
ARM GAS  C:\Users\HUAV\AppData\Local\Temp\cci0AdpE.s 			page 4


 108 003a 0FFA8CF0 		sxth	r0, ip
 109              	.LVL12:
 110              		.loc 1 55 1 view .LVU28
 111 003e 7047     		bx	lr
 112              	.L14:
 113              		.align	2
 114              	.L13:
 115 0040 00000000 		.word	.LANCHOR0
 116              		.cfi_endproc
 117              	.LFE0:
 119              		.section	.text.Get_Bit_Index,"ax",%progbits
 120              		.align	1
 121              		.global	Get_Bit_Index
 122              		.syntax unified
 123              		.thumb
 124              		.thumb_func
 125              		.fpu fpv5-d16
 127              	Get_Bit_Index:
 128              	.LVL13:
 129              	.LFB1:
  56:common/util.c **** 
  57:common/util.c **** uint8_t Get_Bit_Index(uint16_t val)
  58:common/util.c **** {
 130              		.loc 1 58 1 is_stmt 1 view -0
 131              		.cfi_startproc
 132              		@ args = 0, pretend = 0, frame = 0
 133              		@ frame_needed = 0, uses_anonymous_args = 0
 134              		@ link register save eliminated.
 135              		.loc 1 58 1 is_stmt 0 view .LVU30
 136 0000 07EE900A 		vmov	s15, r0	@ int
  59:common/util.c **** 	float f_val = (float)val;
 137              		.loc 1 59 2 is_stmt 1 view .LVU31
 138              	.LVL14:
  60:common/util.c **** 	uint32_t u32_val = 0;
 139              		.loc 1 60 2 view .LVU32
  61:common/util.c **** 	uint8_t bit = 0;
 140              		.loc 1 61 2 view .LVU33
  62:common/util.c **** 	
  63:common/util.c **** 	u32_val = *((unsigned long*)(&f_val));
 141              		.loc 1 63 2 view .LVU34
 142              		.loc 1 63 10 is_stmt 0 view .LVU35
 143 0004 F8EE677A 		vcvt.f32.u32	s15, s15
 144              	.LVL15:
 145              		.loc 1 63 10 view .LVU36
 146 0008 17EE900A 		vmov	r0, s15
 147              	.LVL16:
  64:common/util.c **** 	
  65:common/util.c **** 	bit = (u32_val >> 23) & 0xFF;
 148              		.loc 1 65 2 is_stmt 1 view .LVU37
 149              		.loc 1 65 6 is_stmt 0 view .LVU38
 150 000c C0F3C750 		ubfx	r0, r0, #23, #8
 151              	.LVL17:
  66:common/util.c **** 	bit -= 127;
 152              		.loc 1 66 2 is_stmt 1 view .LVU39
 153              		.loc 1 66 6 is_stmt 0 view .LVU40
 154 0010 7F38     		subs	r0, r0, #127
 155              	.LVL18:
ARM GAS  C:\Users\HUAV\AppData\Local\Temp\cci0AdpE.s 			page 5


  67:common/util.c **** 	
  68:common/util.c **** 	return bit;
 156              		.loc 1 68 2 is_stmt 1 view .LVU41
  69:common/util.c **** }
 157              		.loc 1 69 1 is_stmt 0 view .LVU42
 158 0012 C0B2     		uxtb	r0, r0
 159              		.loc 1 69 1 view .LVU43
 160 0014 7047     		bx	lr
 161              		.cfi_endproc
 162              	.LFE1:
 164              		.section	.text.Get_OnSet_Bit_Num,"ax",%progbits
 165              		.align	1
 166              		.global	Get_OnSet_Bit_Num
 167              		.syntax unified
 168              		.thumb
 169              		.thumb_func
 170              		.fpu fpv5-d16
 172              	Get_OnSet_Bit_Num:
 173              	.LVL19:
 174              	.LFB2:
  70:common/util.c **** 
  71:common/util.c **** uint8_t Get_OnSet_Bit_Num(uint32_t value)
  72:common/util.c **** {
 175              		.loc 1 72 1 is_stmt 1 view -0
 176              		.cfi_startproc
 177              		@ args = 0, pretend = 0, frame = 0
 178              		@ frame_needed = 0, uses_anonymous_args = 0
 179              		@ link register save eliminated.
  73:common/util.c ****     value = ( value & 0x55555555 ) + ( (value >>1)  & 0x55555555 ) ; 
 180              		.loc 1 73 5 view .LVU45
 181              		.loc 1 73 21 is_stmt 0 view .LVU46
 182 0000 00F05533 		and	r3, r0, #1431655765
 183              		.loc 1 73 47 view .LVU47
 184 0004 4008     		lsrs	r0, r0, #1
 185              	.LVL20:
 186              		.loc 1 73 53 view .LVU48
 187 0006 00F05530 		and	r0, r0, #1431655765
 188              		.loc 1 73 11 view .LVU49
 189 000a 0344     		add	r3, r3, r0
 190              	.LVL21:
  74:common/util.c ****     value = ( value & 0x33333333 ) + ( (value >>2)  & 0x33333333 ) ; 
 191              		.loc 1 74 5 is_stmt 1 view .LVU50
 192              		.loc 1 74 21 is_stmt 0 view .LVU51
 193 000c 03F03332 		and	r2, r3, #858993459
 194              		.loc 1 74 47 view .LVU52
 195 0010 9B08     		lsrs	r3, r3, #2
 196              	.LVL22:
 197              		.loc 1 74 53 view .LVU53
 198 0012 03F03333 		and	r3, r3, #858993459
 199              		.loc 1 74 11 view .LVU54
 200 0016 1A44     		add	r2, r2, r3
 201              	.LVL23:
  75:common/util.c ****     value = ( value & 0x0f0f0f0f ) + ( (value >>4)  & 0x0f0f0f0f ) ; 
 202              		.loc 1 75 5 is_stmt 1 view .LVU55
 203              		.loc 1 75 21 is_stmt 0 view .LVU56
 204 0018 02F00F33 		and	r3, r2, #252645135
 205              		.loc 1 75 47 view .LVU57
ARM GAS  C:\Users\HUAV\AppData\Local\Temp\cci0AdpE.s 			page 6


 206 001c 1209     		lsrs	r2, r2, #4
 207              	.LVL24:
 208              		.loc 1 75 53 view .LVU58
 209 001e 02F00F32 		and	r2, r2, #252645135
 210              		.loc 1 75 11 view .LVU59
 211 0022 1344     		add	r3, r3, r2
 212              	.LVL25:
  76:common/util.c ****     value = ( value & 0x00ff00ff ) + ( (value >>8)  & 0x00ff00ff ) ; 
 213              		.loc 1 76 5 is_stmt 1 view .LVU60
 214              		.loc 1 76 21 is_stmt 0 view .LVU61
 215 0024 03F0FF10 		and	r0, r3, #16711935
 216              		.loc 1 76 47 view .LVU62
 217 0028 1B0A     		lsrs	r3, r3, #8
 218              	.LVL26:
 219              		.loc 1 76 53 view .LVU63
 220 002a 03F0FF13 		and	r3, r3, #16711935
 221              		.loc 1 76 11 view .LVU64
 222 002e 0344     		add	r3, r3, r0
 223              	.LVL27:
  77:common/util.c ****     value = ( value & 0x0000ffff ) + ( (value >>16) & 0x0000ffff ) ; 
 224              		.loc 1 77 5 is_stmt 1 view .LVU65
 225              		.loc 1 77 47 is_stmt 0 view .LVU66
 226 0030 180C     		lsrs	r0, r3, #16
 227              		.loc 1 77 11 view .LVU67
 228 0032 10FA83F0 		uxtah	r0, r0, r3
 229              	.LVL28:
  78:common/util.c ****  
  79:common/util.c ****     return value  ; 
 230              		.loc 1 79 5 is_stmt 1 view .LVU68
  80:common/util.c **** }
 231              		.loc 1 80 1 is_stmt 0 view .LVU69
 232 0036 C0B2     		uxtb	r0, r0
 233              	.LVL29:
 234              		.loc 1 80 1 view .LVU70
 235 0038 7047     		bx	lr
 236              		.cfi_endproc
 237              	.LFE2:
 239              		.section	.rodata.crc16_tab,"a"
 240              		.align	2
 241              		.set	.LANCHOR0,. + 0
 244              	crc16_tab:
 245 0000 0000     		.short	0
 246 0002 2110     		.short	4129
 247 0004 4220     		.short	8258
 248 0006 6330     		.short	12387
 249 0008 8440     		.short	16516
 250 000a A550     		.short	20645
 251 000c C660     		.short	24774
 252 000e E770     		.short	28903
 253 0010 0881     		.short	-32504
 254 0012 2991     		.short	-28375
 255 0014 4AA1     		.short	-24246
 256 0016 6BB1     		.short	-20117
 257 0018 8CC1     		.short	-15988
 258 001a ADD1     		.short	-11859
 259 001c CEE1     		.short	-7730
 260 001e EFF1     		.short	-3601
ARM GAS  C:\Users\HUAV\AppData\Local\Temp\cci0AdpE.s 			page 7


 261 0020 3112     		.short	4657
 262 0022 1002     		.short	528
 263 0024 7332     		.short	12915
 264 0026 5222     		.short	8786
 265 0028 B552     		.short	21173
 266 002a 9442     		.short	17044
 267 002c F772     		.short	29431
 268 002e D662     		.short	25302
 269 0030 3993     		.short	-27847
 270 0032 1883     		.short	-31976
 271 0034 7BB3     		.short	-19589
 272 0036 5AA3     		.short	-23718
 273 0038 BDD3     		.short	-11331
 274 003a 9CC3     		.short	-15460
 275 003c FFF3     		.short	-3073
 276 003e DEE3     		.short	-7202
 277 0040 6224     		.short	9314
 278 0042 4334     		.short	13379
 279 0044 2004     		.short	1056
 280 0046 0114     		.short	5121
 281 0048 E664     		.short	25830
 282 004a C774     		.short	29895
 283 004c A444     		.short	17572
 284 004e 8554     		.short	21637
 285 0050 6AA5     		.short	-23190
 286 0052 4BB5     		.short	-19125
 287 0054 2885     		.short	-31448
 288 0056 0995     		.short	-27383
 289 0058 EEE5     		.short	-6674
 290 005a CFF5     		.short	-2609
 291 005c ACC5     		.short	-14932
 292 005e 8DD5     		.short	-10867
 293 0060 5336     		.short	13907
 294 0062 7226     		.short	9842
 295 0064 1116     		.short	5649
 296 0066 3006     		.short	1584
 297 0068 D776     		.short	30423
 298 006a F666     		.short	26358
 299 006c 9556     		.short	22165
 300 006e B446     		.short	18100
 301 0070 5BB7     		.short	-18597
 302 0072 7AA7     		.short	-22662
 303 0074 1997     		.short	-26855
 304 0076 3887     		.short	-30920
 305 0078 DFF7     		.short	-2081
 306 007a FEE7     		.short	-6146
 307 007c 9DD7     		.short	-10339
 308 007e BCC7     		.short	-14404
 309 0080 C448     		.short	18628
 310 0082 E558     		.short	22757
 311 0084 8668     		.short	26758
 312 0086 A778     		.short	30887
 313 0088 4008     		.short	2112
 314 008a 6118     		.short	6241
 315 008c 0228     		.short	10242
 316 008e 2338     		.short	14371
 317 0090 CCC9     		.short	-13876
ARM GAS  C:\Users\HUAV\AppData\Local\Temp\cci0AdpE.s 			page 8


 318 0092 EDD9     		.short	-9747
 319 0094 8EE9     		.short	-5746
 320 0096 AFF9     		.short	-1617
 321 0098 4889     		.short	-30392
 322 009a 6999     		.short	-26263
 323 009c 0AA9     		.short	-22262
 324 009e 2BB9     		.short	-18133
 325 00a0 F55A     		.short	23285
 326 00a2 D44A     		.short	19156
 327 00a4 B77A     		.short	31415
 328 00a6 966A     		.short	27286
 329 00a8 711A     		.short	6769
 330 00aa 500A     		.short	2640
 331 00ac 333A     		.short	14899
 332 00ae 122A     		.short	10770
 333 00b0 FDDB     		.short	-9219
 334 00b2 DCCB     		.short	-13348
 335 00b4 BFFB     		.short	-1089
 336 00b6 9EEB     		.short	-5218
 337 00b8 799B     		.short	-25735
 338 00ba 588B     		.short	-29864
 339 00bc 3BBB     		.short	-17605
 340 00be 1AAB     		.short	-21734
 341 00c0 A66C     		.short	27814
 342 00c2 877C     		.short	31879
 343 00c4 E44C     		.short	19684
 344 00c6 C55C     		.short	23749
 345 00c8 222C     		.short	11298
 346 00ca 033C     		.short	15363
 347 00cc 600C     		.short	3168
 348 00ce 411C     		.short	7233
 349 00d0 AEED     		.short	-4690
 350 00d2 8FFD     		.short	-625
 351 00d4 ECCD     		.short	-12820
 352 00d6 CDDD     		.short	-8755
 353 00d8 2AAD     		.short	-21206
 354 00da 0BBD     		.short	-17141
 355 00dc 688D     		.short	-29336
 356 00de 499D     		.short	-25271
 357 00e0 977E     		.short	32407
 358 00e2 B66E     		.short	28342
 359 00e4 D55E     		.short	24277
 360 00e6 F44E     		.short	20212
 361 00e8 133E     		.short	15891
 362 00ea 322E     		.short	11826
 363 00ec 511E     		.short	7761
 364 00ee 700E     		.short	3696
 365 00f0 9FFF     		.short	-97
 366 00f2 BEEF     		.short	-4162
 367 00f4 DDDF     		.short	-8227
 368 00f6 FCCF     		.short	-12292
 369 00f8 1BBF     		.short	-16613
 370 00fa 3AAF     		.short	-20678
 371 00fc 599F     		.short	-24743
 372 00fe 788F     		.short	-28808
 373 0100 8891     		.short	-28280
 374 0102 A981     		.short	-32343
ARM GAS  C:\Users\HUAV\AppData\Local\Temp\cci0AdpE.s 			page 9


 375 0104 CAB1     		.short	-20022
 376 0106 EBA1     		.short	-24085
 377 0108 0CD1     		.short	-12020
 378 010a 2DC1     		.short	-16083
 379 010c 4EF1     		.short	-3762
 380 010e 6FE1     		.short	-7825
 381 0110 8010     		.short	4224
 382 0112 A100     		.short	161
 383 0114 C230     		.short	12482
 384 0116 E320     		.short	8419
 385 0118 0450     		.short	20484
 386 011a 2540     		.short	16421
 387 011c 4670     		.short	28742
 388 011e 6760     		.short	24679
 389 0120 B983     		.short	-31815
 390 0122 9893     		.short	-27752
 391 0124 FBA3     		.short	-23557
 392 0126 DAB3     		.short	-19494
 393 0128 3DC3     		.short	-15555
 394 012a 1CD3     		.short	-11492
 395 012c 7FE3     		.short	-7297
 396 012e 5EF3     		.short	-3234
 397 0130 B102     		.short	689
 398 0132 9012     		.short	4752
 399 0134 F322     		.short	8947
 400 0136 D232     		.short	13010
 401 0138 3542     		.short	16949
 402 013a 1452     		.short	21012
 403 013c 7762     		.short	25207
 404 013e 5672     		.short	29270
 405 0140 EAB5     		.short	-18966
 406 0142 CBA5     		.short	-23093
 407 0144 A895     		.short	-27224
 408 0146 8985     		.short	-31351
 409 0148 6EF5     		.short	-2706
 410 014a 4FE5     		.short	-6833
 411 014c 2CD5     		.short	-10964
 412 014e 0DC5     		.short	-15091
 413 0150 E234     		.short	13538
 414 0152 C324     		.short	9411
 415 0154 A014     		.short	5280
 416 0156 8104     		.short	1153
 417 0158 6674     		.short	29798
 418 015a 4764     		.short	25671
 419 015c 2454     		.short	21540
 420 015e 0544     		.short	17413
 421 0160 DBA7     		.short	-22565
 422 0162 FAB7     		.short	-18438
 423 0164 9987     		.short	-30823
 424 0166 B897     		.short	-26696
 425 0168 5FE7     		.short	-6305
 426 016a 7EF7     		.short	-2178
 427 016c 1DC7     		.short	-14563
 428 016e 3CD7     		.short	-10436
 429 0170 D326     		.short	9939
 430 0172 F236     		.short	14066
 431 0174 9106     		.short	1681
ARM GAS  C:\Users\HUAV\AppData\Local\Temp\cci0AdpE.s 			page 10


 432 0176 B016     		.short	5808
 433 0178 5766     		.short	26199
 434 017a 7676     		.short	30326
 435 017c 1546     		.short	17941
 436 017e 3456     		.short	22068
 437 0180 4CD9     		.short	-9908
 438 0182 6DC9     		.short	-13971
 439 0184 0EF9     		.short	-1778
 440 0186 2FE9     		.short	-5841
 441 0188 C899     		.short	-26168
 442 018a E989     		.short	-30231
 443 018c 8AB9     		.short	-18038
 444 018e ABA9     		.short	-22101
 445 0190 4458     		.short	22596
 446 0192 6548     		.short	18533
 447 0194 0678     		.short	30726
 448 0196 2768     		.short	26663
 449 0198 C018     		.short	6336
 450 019a E108     		.short	2273
 451 019c 8238     		.short	14466
 452 019e A328     		.short	10403
 453 01a0 7DCB     		.short	-13443
 454 01a2 5CDB     		.short	-9380
 455 01a4 3FEB     		.short	-5313
 456 01a6 1EFB     		.short	-1250
 457 01a8 F98B     		.short	-29703
 458 01aa D89B     		.short	-25640
 459 01ac BBAB     		.short	-21573
 460 01ae 9ABB     		.short	-17510
 461 01b0 754A     		.short	19061
 462 01b2 545A     		.short	23124
 463 01b4 376A     		.short	27191
 464 01b6 167A     		.short	31254
 465 01b8 F10A     		.short	2801
 466 01ba D01A     		.short	6864
 467 01bc B32A     		.short	10931
 468 01be 923A     		.short	14994
 469 01c0 2EFD     		.short	-722
 470 01c2 0FED     		.short	-4849
 471 01c4 6CDD     		.short	-8852
 472 01c6 4DCD     		.short	-12979
 473 01c8 AABD     		.short	-16982
 474 01ca 8BAD     		.short	-21109
 475 01cc E89D     		.short	-25112
 476 01ce C98D     		.short	-29239
 477 01d0 267C     		.short	31782
 478 01d2 076C     		.short	27655
 479 01d4 645C     		.short	23652
 480 01d6 454C     		.short	19525
 481 01d8 A23C     		.short	15522
 482 01da 832C     		.short	11395
 483 01dc E01C     		.short	7392
 484 01de C10C     		.short	3265
 485 01e0 1FEF     		.short	-4321
 486 01e2 3EFF     		.short	-194
 487 01e4 5DCF     		.short	-12451
 488 01e6 7CDF     		.short	-8324
ARM GAS  C:\Users\HUAV\AppData\Local\Temp\cci0AdpE.s 			page 11


 489 01e8 9BAF     		.short	-20581
 490 01ea BABF     		.short	-16454
 491 01ec D98F     		.short	-28711
 492 01ee F89F     		.short	-24584
 493 01f0 176E     		.short	28183
 494 01f2 367E     		.short	32310
 495 01f4 554E     		.short	20053
 496 01f6 745E     		.short	24180
 497 01f8 932E     		.short	11923
 498 01fa B23E     		.short	16050
 499 01fc D10E     		.short	3793
 500 01fe F01E     		.short	7920
 501              		.text
 502              	.Letext0:
 503              		.file 2 "d:\\software\\zephyr_env_gcc\\gcc-arm-none-eabi-10-2020-q4-major\\arm-none-eabi\\include\
 504              		.file 3 "d:\\software\\zephyr_env_gcc\\gcc-arm-none-eabi-10-2020-q4-major\\arm-none-eabi\\include\
ARM GAS  C:\Users\HUAV\AppData\Local\Temp\cci0AdpE.s 			page 12

