ARM GAS  C:\Users\8bit\AppData\Local\Temp\ccKa89Jn.s 			page 1


   1              		.cpu cortex-m4
   2              		.arch armv7e-m
   3              		.fpu fpv4-sp-d16
   4              		.eabi_attribute 27, 1
   5              		.eabi_attribute 28, 1
   6              		.eabi_attribute 20, 1
   7              		.eabi_attribute 21, 1
   8              		.eabi_attribute 23, 3
   9              		.eabi_attribute 24, 1
  10              		.eabi_attribute 25, 1
  11              		.eabi_attribute 26, 1
  12              		.eabi_attribute 30, 1
  13              		.eabi_attribute 34, 1
  14              		.eabi_attribute 18, 4
  15              		.file	"YModem.c"
  16              		.text
  17              	.Ltext0:
  18              		.cfi_sections	.debug_frame
  19              		.section	.text.YModem_Tx_State_Polling,"ax",%progbits
  20              		.align	1
  21              		.syntax unified
  22              		.thumb
  23              		.thumb_func
  25              	YModem_Tx_State_Polling:
  26              	.LVL0:
  27              	.LFB136:
  28              		.file 1 "common/YModem/YModem.c"
   1:common/YModem/YModem.c **** #include "YModem.h"
   2:common/YModem/YModem.c **** #include "../../FCHW_Config.h"
   3:common/YModem/YModem.c **** #include "util.h"
   4:common/YModem/YModem.c **** #include "HW_Def.h"
   5:common/YModem/YModem.c **** #include "debug_util.h"
   6:common/YModem/YModem.c **** 
   7:common/YModem/YModem.c **** #define YMODEM_MIN_SIZE 133
   8:common/YModem/YModem.c **** #define YMODEM_MAX_SIZE 1029
   9:common/YModem/YModem.c **** #define YMODEM_EOT_SIZE 1
  10:common/YModem/YModem.c **** #define YMODEM_EOT_CNT  2
  11:common/YModem/YModem.c **** #define YMODEM_PAYLOAD_OFFSET 3
  12:common/YModem/YModem.c **** #define YMODEM_ID_P_OFFSET 1
  13:common/YModem/YModem.c **** #define YMODEM_ID_N_OFFSET 2
  14:common/YModem/YModem.c **** 
  15:common/YModem/YModem.c **** #define YMODEM_DEBUG(fmt,...) Debug_Print(&DebugPort, "[ YMODEM INFO ] ", fmt, ##__VA_ARGS__)
  16:common/YModem/YModem.c **** 
  17:common/YModem/YModem.c **** typedef struct
  18:common/YModem/YModem.c **** {
  19:common/YModem/YModem.c ****     uint8_t header;
  20:common/YModem/YModem.c ****     uint8_t pack_id;
  21:common/YModem/YModem.c ****     uint8_t reverse_id;
  22:common/YModem/YModem.c ****     uint8_t *p_data;
  23:common/YModem/YModem.c ****     uint16_t crc;
  24:common/YModem/YModem.c **** } YModem_Frame_TypeDef;
  25:common/YModem/YModem.c **** 
  26:common/YModem/YModem.c **** typedef enum
  27:common/YModem/YModem.c **** {
  28:common/YModem/YModem.c ****     SOH    = 0x01,  /* 128  data size pack */
  29:common/YModem/YModem.c ****     STX    = 0x02,  /* 1024 data size pack */
  30:common/YModem/YModem.c ****     EOT    = 0x04,  /* end of translate */
ARM GAS  C:\Users\8bit\AppData\Local\Temp\ccKa89Jn.s 			page 2


  31:common/YModem/YModem.c ****     ACK    = 0x06,  /* send acknowledge */
  32:common/YModem/YModem.c ****     NAK    = 0x15,  /* send none acknowledge */
  33:common/YModem/YModem.c ****     CAN    = 0x18,  /* cancel translation */
  34:common/YModem/YModem.c ****     C      = 0x43,  /* request data pack */
  35:common/YModem/YModem.c ****     ABORT1 = 0x41,
  36:common/YModem/YModem.c ****     ABORT2 = 0x61,
  37:common/YModem/YModem.c **** } YModem_CMD_List;
  38:common/YModem/YModem.c **** 
  39:common/YModem/YModem.c **** /* internal function */
  40:common/YModem/YModem.c **** static YModem_Stream_TypeDef YModem_Decode(YModemObj_TypeDef *obj, uint8_t *p_buf, uint16_t size);
  41:common/YModem/YModem.c **** 
  42:common/YModem/YModem.c **** /* external function */
  43:common/YModem/YModem.c **** static uint8_t YModem_State_Polling(uint32_t sys_time, YModemObj_TypeDef *obj, uint8_t *p_buf, uint
  44:common/YModem/YModem.c **** static void YModem_Abort(YModemObj_TypeDef *obj);
  45:common/YModem/YModem.c **** 
  46:common/YModem/YModem.c **** YModem_TypeDef YModem = {
  47:common/YModem/YModem.c ****     .polling = YModem_State_Polling,
  48:common/YModem/YModem.c ****     .abort = YModem_Abort,
  49:common/YModem/YModem.c **** };
  50:common/YModem/YModem.c **** 
  51:common/YModem/YModem.c **** static YModem_Stream_TypeDef YModem_Decode(YModemObj_TypeDef *obj, uint8_t *p_buf, uint16_t size)
  52:common/YModem/YModem.c **** {
  53:common/YModem/YModem.c ****     YModem_Stream_TypeDef stream_out;
  54:common/YModem/YModem.c ****     uint16_t pack_size = 0;
  55:common/YModem/YModem.c ****     bool is_EOT = false;
  56:common/YModem/YModem.c ****     volatile uint16_t crc_get = 0;
  57:common/YModem/YModem.c ****     volatile uint16_t crc = 0;
  58:common/YModem/YModem.c **** 
  59:common/YModem/YModem.c ****     memset(&stream_out, 0, sizeof(YModem_Stream_TypeDef));
  60:common/YModem/YModem.c ****     if (obj && p_buf && size)
  61:common/YModem/YModem.c ****     {
  62:common/YModem/YModem.c ****         stream_out.size = size;
  63:common/YModem/YModem.c **** 
  64:common/YModem/YModem.c ****         for (uint16_t i = 0; i < size; i ++)
  65:common/YModem/YModem.c ****         {
  66:common/YModem/YModem.c ****             switch (p_buf[i])
  67:common/YModem/YModem.c ****             {
  68:common/YModem/YModem.c ****                 case SOH:
  69:common/YModem/YModem.c ****                     if ((size - i) >= YMODEM_MIN_SIZE)
  70:common/YModem/YModem.c ****                     {
  71:common/YModem/YModem.c ****                         crc_get = p_buf[YMODEM_MIN_SIZE - 1];
  72:common/YModem/YModem.c ****                         crc_get |= p_buf[YMODEM_MIN_SIZE - 2] << 8;
  73:common/YModem/YModem.c ****                         pack_size = YMODEM_MIN_SIZE - 5;
  74:common/YModem/YModem.c ****                     }
  75:common/YModem/YModem.c ****                     else
  76:common/YModem/YModem.c ****                         stream_out.valid = YModem_Pack_InCompelete;
  77:common/YModem/YModem.c ****                     break;
  78:common/YModem/YModem.c ****             
  79:common/YModem/YModem.c ****                 case STX:
  80:common/YModem/YModem.c ****                     if ((size - i) >= YMODEM_MAX_SIZE)
  81:common/YModem/YModem.c ****                     {
  82:common/YModem/YModem.c ****                         crc_get = p_buf[YMODEM_MAX_SIZE - 1];
  83:common/YModem/YModem.c ****                         crc_get |= p_buf[YMODEM_MAX_SIZE - 2] << 8;
  84:common/YModem/YModem.c ****                         pack_size = YMODEM_MAX_SIZE - 5;
  85:common/YModem/YModem.c ****                     }
  86:common/YModem/YModem.c ****                     else
  87:common/YModem/YModem.c ****                         stream_out.valid = YModem_Pack_InCompelete;
ARM GAS  C:\Users\8bit\AppData\Local\Temp\ccKa89Jn.s 			page 3


  88:common/YModem/YModem.c ****                     break;
  89:common/YModem/YModem.c **** 
  90:common/YModem/YModem.c ****                 case EOT:
  91:common/YModem/YModem.c ****                     if (size == YMODEM_EOT_SIZE)
  92:common/YModem/YModem.c ****                     {
  93:common/YModem/YModem.c ****                         pack_size = 0;
  94:common/YModem/YModem.c ****                         is_EOT = true;
  95:common/YModem/YModem.c ****                         obj->data_income = false;
  96:common/YModem/YModem.c ****                         if (obj->EOT_Cnt < YMODEM_EOT_CNT)
  97:common/YModem/YModem.c ****                             obj->EOT_Cnt ++;
  98:common/YModem/YModem.c ****                         
  99:common/YModem/YModem.c ****                         if (obj->EOT_Cnt == YMODEM_EOT_CNT)
 100:common/YModem/YModem.c ****                             /* last pack remain */
 101:common/YModem/YModem.c ****                             obj->wait_last_pack = true;
 102:common/YModem/YModem.c ****                     }
 103:common/YModem/YModem.c ****                     break;
 104:common/YModem/YModem.c **** 
 105:common/YModem/YModem.c ****                 default:
 106:common/YModem/YModem.c ****                     pack_size = 0;
 107:common/YModem/YModem.c ****                     break;
 108:common/YModem/YModem.c ****             }
 109:common/YModem/YModem.c **** 
 110:common/YModem/YModem.c ****             if (pack_size && ((p_buf[i + YMODEM_ID_N_OFFSET] + p_buf[i + YMODEM_ID_P_OFFSET]) == 0x
 111:common/YModem/YModem.c ****             {
 112:common/YModem/YModem.c ****                 stream_out.p_buf = &p_buf[i + YMODEM_PAYLOAD_OFFSET];
 113:common/YModem/YModem.c ****                 stream_out.size = pack_size;
 114:common/YModem/YModem.c **** 
 115:common/YModem/YModem.c ****                 stream_out.valid = YModem_Pack_Invalid;
 116:common/YModem/YModem.c ****                 crc = Common_CRC16(&p_buf[i + YMODEM_PAYLOAD_OFFSET], pack_size);
 117:common/YModem/YModem.c ****                 /* check crc */
 118:common/YModem/YModem.c ****                 if (crc_get == crc) 
 119:common/YModem/YModem.c ****                 {
 120:common/YModem/YModem.c ****                     stream_out.valid = YModem_Pack_Compelete;
 121:common/YModem/YModem.c **** 
 122:common/YModem/YModem.c ****                     if (!obj->data_income || obj->wait_last_pack)
 123:common/YModem/YModem.c ****                     {
 124:common/YModem/YModem.c ****                         /* is not file data */
 125:common/YModem/YModem.c ****                         stream_out.file_data = false;
 126:common/YModem/YModem.c ****                         break;
 127:common/YModem/YModem.c ****                     }
 128:common/YModem/YModem.c **** 
 129:common/YModem/YModem.c ****                     stream_out.file_data = true;
 130:common/YModem/YModem.c ****                     if (obj->received_pack_num && (p_buf[i + YMODEM_ID_P_OFFSET] != obj->next_pack_
 131:common/YModem/YModem.c ****                     {
 132:common/YModem/YModem.c ****                         /* error pack id */
 133:common/YModem/YModem.c ****                         stream_out.valid = YModem_Pack_Invalid;
 134:common/YModem/YModem.c ****                         obj->data_income = false;
 135:common/YModem/YModem.c ****                     }
 136:common/YModem/YModem.c **** 
 137:common/YModem/YModem.c ****                     obj->cur_pack_id = p_buf[i + YMODEM_ID_P_OFFSET];
 138:common/YModem/YModem.c ****                     obj->next_pack_id = obj->cur_pack_id + 1;
 139:common/YModem/YModem.c ****                     obj->received_pack_num ++;
 140:common/YModem/YModem.c ****                 }
 141:common/YModem/YModem.c **** 
 142:common/YModem/YModem.c ****                 break;
 143:common/YModem/YModem.c ****             }
 144:common/YModem/YModem.c ****             else if ((pack_size == 0) && is_EOT)
ARM GAS  C:\Users\8bit\AppData\Local\Temp\ccKa89Jn.s 			page 4


 145:common/YModem/YModem.c ****             {
 146:common/YModem/YModem.c ****                 stream_out.valid = YModem_Pack_Compelete;
 147:common/YModem/YModem.c ****                 stream_out.size = 1;
 148:common/YModem/YModem.c ****                 stream_out.p_buf = NULL;
 149:common/YModem/YModem.c **** 
 150:common/YModem/YModem.c ****                 break;
 151:common/YModem/YModem.c ****             }
 152:common/YModem/YModem.c ****             else if (stream_out.valid == YModem_Pack_InCompelete)
 153:common/YModem/YModem.c ****                 break;
 154:common/YModem/YModem.c ****         }
 155:common/YModem/YModem.c ****     }
 156:common/YModem/YModem.c **** 
 157:common/YModem/YModem.c ****     return stream_out;
 158:common/YModem/YModem.c **** }
 159:common/YModem/YModem.c **** 
 160:common/YModem/YModem.c **** static void YModem_Rx_State_Polling(uint32_t sys_time, YModemObj_TypeDef *obj, uint8_t *p_buf, uint
 161:common/YModem/YModem.c **** {
 162:common/YModem/YModem.c ****     /* check for time out */
 163:common/YModem/YModem.c ****     if ((size == 0) || (p_buf == NULL) || (p_stream == NULL))
 164:common/YModem/YModem.c ****     {
 165:common/YModem/YModem.c ****         if (((obj->tx_stage == YModem_Req) && (sys_time >= obj->re_send_time)) || \
 166:common/YModem/YModem.c ****             ((obj->tx_stage == YModem_ACK) && (sys_time >= obj->timeout_ms)))
 167:common/YModem/YModem.c ****         {
 168:common/YModem/YModem.c ****             obj->state = YModem_State_Tx;
 169:common/YModem/YModem.c ****             obj->tx_stage = YModem_Req;
 170:common/YModem/YModem.c ****         }
 171:common/YModem/YModem.c ****         return;
 172:common/YModem/YModem.c ****     }
 173:common/YModem/YModem.c **** 
 174:common/YModem/YModem.c ****     *p_stream = YModem_Decode(obj, p_buf, size);
 175:common/YModem/YModem.c ****     if (p_stream->valid == YModem_Pack_Invalid)
 176:common/YModem/YModem.c ****     {
 177:common/YModem/YModem.c ****         /* send NAK to host */
 178:common/YModem/YModem.c ****         obj->state = YModem_State_Tx;
 179:common/YModem/YModem.c ****         obj->tx_stage = YModem_NAK;
 180:common/YModem/YModem.c **** 
 181:common/YModem/YModem.c ****         /* check for re-send */
 182:common/YModem/YModem.c **** 
 183:common/YModem/YModem.c ****         /* check for time out */
 184:common/YModem/YModem.c **** 
 185:common/YModem/YModem.c ****         return;
 186:common/YModem/YModem.c ****     }
 187:common/YModem/YModem.c ****     else if (p_stream->valid == YModem_Pack_InCompelete)
 188:common/YModem/YModem.c ****         return;
 189:common/YModem/YModem.c **** 
 190:common/YModem/YModem.c ****     /* update tx stage after receive data */
 191:common/YModem/YModem.c ****     switch ((uint8_t) obj->tx_stage)
 192:common/YModem/YModem.c ****     {
 193:common/YModem/YModem.c ****         /* receive data after req */
 194:common/YModem/YModem.c ****         case YModem_Req:
 195:common/YModem/YModem.c ****             /* file name received */
 196:common/YModem/YModem.c ****             obj->state = YModem_State_Tx;
 197:common/YModem/YModem.c ****             if (p_stream->valid != YModem_Pack_Compelete)
 198:common/YModem/YModem.c ****                 break;
 199:common/YModem/YModem.c **** 
 200:common/YModem/YModem.c ****             obj->tx_stage = YModem_Cfm;
 201:common/YModem/YModem.c ****             obj->data_income = true;
ARM GAS  C:\Users\8bit\AppData\Local\Temp\ccKa89Jn.s 			page 5


 202:common/YModem/YModem.c ****             break;
 203:common/YModem/YModem.c **** 
 204:common/YModem/YModem.c ****         /* receive data after confirm */
 205:common/YModem/YModem.c ****         case YModem_Cfm:
 206:common/YModem/YModem.c ****             /* is first pack received */
 207:common/YModem/YModem.c ****             obj->state = YModem_State_Tx;
 208:common/YModem/YModem.c ****             if (p_stream->valid != YModem_Pack_Compelete)
 209:common/YModem/YModem.c ****                 break;
 210:common/YModem/YModem.c **** 
 211:common/YModem/YModem.c ****             obj->tx_stage = YModem_ACK;
 212:common/YModem/YModem.c ****             break;
 213:common/YModem/YModem.c **** 
 214:common/YModem/YModem.c ****         /* receive data after ACK */
 215:common/YModem/YModem.c ****         case YModem_ACK:
 216:common/YModem/YModem.c ****             obj->state = YModem_State_Tx;
 217:common/YModem/YModem.c ****             if (p_stream->valid != YModem_Pack_Compelete)
 218:common/YModem/YModem.c ****                 break;
 219:common/YModem/YModem.c **** 
 220:common/YModem/YModem.c ****             obj->tx_stage = YModem_ACK;
 221:common/YModem/YModem.c ****             if (p_stream->size == 1)
 222:common/YModem/YModem.c ****             {
 223:common/YModem/YModem.c ****                 if (!obj->wait_last_pack)
 224:common/YModem/YModem.c ****                 {
 225:common/YModem/YModem.c ****                     obj->tx_stage = YModem_NAK;
 226:common/YModem/YModem.c ****                 }
 227:common/YModem/YModem.c ****                 else
 228:common/YModem/YModem.c ****                     obj->tx_stage = YModem_Lst;
 229:common/YModem/YModem.c ****             }
 230:common/YModem/YModem.c ****             break;
 231:common/YModem/YModem.c **** 
 232:common/YModem/YModem.c ****         case YModem_Lst:
 233:common/YModem/YModem.c ****             /* end trans */
 234:common/YModem/YModem.c ****             obj->state = YModem_State_Tx;
 235:common/YModem/YModem.c ****             if (p_stream->valid != YModem_Pack_Compelete)
 236:common/YModem/YModem.c ****                 break;
 237:common/YModem/YModem.c **** 
 238:common/YModem/YModem.c ****             obj->tx_stage = YModem_EOT;
 239:common/YModem/YModem.c ****             break;
 240:common/YModem/YModem.c **** 
 241:common/YModem/YModem.c ****         default:
 242:common/YModem/YModem.c ****             break;
 243:common/YModem/YModem.c ****     }
 244:common/YModem/YModem.c **** }
 245:common/YModem/YModem.c **** 
 246:common/YModem/YModem.c **** static void YModem_Tx_State_Polling(uint32_t sys_time, YModemObj_TypeDef *obj)
 247:common/YModem/YModem.c **** {
  29              		.loc 1 247 1 view -0
  30              		.cfi_startproc
  31              		@ args = 0, pretend = 0, frame = 8
  32              		@ frame_needed = 0, uses_anonymous_args = 0
  33              		.loc 1 247 1 is_stmt 0 view .LVU1
  34 0000 00B5     		push	{lr}
  35              	.LCFI0:
  36              		.cfi_def_cfa_offset 4
  37              		.cfi_offset 14, -4
  38 0002 83B0     		sub	sp, sp, #12
  39              	.LCFI1:
ARM GAS  C:\Users\8bit\AppData\Local\Temp\ccKa89Jn.s 			page 6


  40              		.cfi_def_cfa_offset 16
  41 0004 0B46     		mov	r3, r1
 248:common/YModem/YModem.c ****     uint8_t tx_data[2] = {0};
  42              		.loc 1 248 5 is_stmt 1 view .LVU2
  43              		.loc 1 248 13 is_stmt 0 view .LVU3
  44 0006 0022     		movs	r2, #0
  45 0008 ADF80420 		strh	r2, [sp, #4]	@ movhi
 249:common/YModem/YModem.c ****     uint8_t tx_size = 0;
  46              		.loc 1 249 5 is_stmt 1 view .LVU4
  47              	.LVL1:
 250:common/YModem/YModem.c **** 
 251:common/YModem/YModem.c ****     switch ((uint8_t) obj->tx_stage)
  48              		.loc 1 251 5 view .LVU5
  49              		.loc 1 251 26 is_stmt 0 view .LVU6
  50 000c 4A78     		ldrb	r2, [r1, #1]	@ zero_extendqisi2
  51              		.loc 1 251 5 view .LVU7
  52 000e 052A     		cmp	r2, #5
  53 0010 44D8     		bhi	.L11
  54 0012 DFE802F0 		tbb	[pc, r2]
  55              	.LVL2:
  56              	.L4:
  57 0016 03       		.byte	(.L9-.L4)/2
  58 0017 15       		.byte	(.L8-.L4)/2
  59 0018 20       		.byte	(.L7-.L4)/2
  60 0019 29       		.byte	(.L6-.L4)/2
  61 001a 33       		.byte	(.L5-.L4)/2
  62 001b 3C       		.byte	(.L3-.L4)/2
  63              		.p2align 1
  64              	.L9:
 252:common/YModem/YModem.c ****     {
 253:common/YModem/YModem.c ****         case YModem_Req:
 254:common/YModem/YModem.c ****             /* send 'C' */
 255:common/YModem/YModem.c ****             tx_data[0] = C;
  65              		.loc 1 255 13 is_stmt 1 view .LVU8
  66              		.loc 1 255 24 is_stmt 0 view .LVU9
  67 001c 4322     		movs	r2, #67
  68 001e 8DF80420 		strb	r2, [sp, #4]
 256:common/YModem/YModem.c ****             tx_size = 1;
  69              		.loc 1 256 13 is_stmt 1 view .LVU10
  70              	.LVL3:
 257:common/YModem/YModem.c ****             /* after req data send accomplished check received data */
 258:common/YModem/YModem.c ****             obj->state = YModem_State_Rx;
  71              		.loc 1 258 13 view .LVU11
  72              		.loc 1 258 24 is_stmt 0 view .LVU12
  73 0022 0222     		movs	r2, #2
  74 0024 1A70     		strb	r2, [r3]
 259:common/YModem/YModem.c ****             obj->re_send_time = sys_time + 100;
  75              		.loc 1 259 13 is_stmt 1 view .LVU13
  76              		.loc 1 259 42 is_stmt 0 view .LVU14
  77 0026 6430     		adds	r0, r0, #100
  78              	.LVL4:
  79              		.loc 1 259 31 view .LVU15
  80 0028 9860     		str	r0, [r3, #8]
 260:common/YModem/YModem.c ****             obj->received_pack_num = 0;
  81              		.loc 1 260 13 is_stmt 1 view .LVU16
  82              		.loc 1 260 36 is_stmt 0 view .LVU17
  83 002a 0022     		movs	r2, #0
ARM GAS  C:\Users\8bit\AppData\Local\Temp\ccKa89Jn.s 			page 7


  84 002c 1A83     		strh	r2, [r3, #24]	@ movhi
 261:common/YModem/YModem.c ****             break;
  85              		.loc 1 261 13 is_stmt 1 view .LVU18
 256:common/YModem/YModem.c ****             /* after req data send accomplished check received data */
  86              		.loc 1 256 21 is_stmt 0 view .LVU19
  87 002e 0121     		movs	r1, #1
  88              	.LVL5:
  89              	.L2:
 262:common/YModem/YModem.c **** 
 263:common/YModem/YModem.c ****         case YModem_Cfm:
 264:common/YModem/YModem.c ****             /* send ACk and C */
 265:common/YModem/YModem.c ****             tx_data[0] = ACK;
 266:common/YModem/YModem.c ****             tx_data[1] = C;
 267:common/YModem/YModem.c ****             tx_size = 2;
 268:common/YModem/YModem.c ****             /* wait data input */
 269:common/YModem/YModem.c ****             obj->state = YModem_State_Rx;
 270:common/YModem/YModem.c ****             obj->received_pack_num = 0;
 271:common/YModem/YModem.c ****             break;
 272:common/YModem/YModem.c **** 
 273:common/YModem/YModem.c ****         case YModem_ACK:
 274:common/YModem/YModem.c ****             tx_data[0] = ACK;
 275:common/YModem/YModem.c ****             tx_size = 1;
 276:common/YModem/YModem.c ****             obj->state = YModem_State_Rx;
 277:common/YModem/YModem.c ****             obj->timeout_ms = sys_time + 200;
 278:common/YModem/YModem.c ****             break;
 279:common/YModem/YModem.c **** 
 280:common/YModem/YModem.c ****         case YModem_NAK:
 281:common/YModem/YModem.c ****             tx_data[0] = NAK;
 282:common/YModem/YModem.c ****             tx_size = 1;
 283:common/YModem/YModem.c ****             obj->state = YModem_State_Rx;
 284:common/YModem/YModem.c ****             obj->timeout_ms = sys_time + 200;
 285:common/YModem/YModem.c ****             obj->tx_stage = YModem_ACK;
 286:common/YModem/YModem.c ****             break;
 287:common/YModem/YModem.c **** 
 288:common/YModem/YModem.c ****         case YModem_Lst:
 289:common/YModem/YModem.c ****             /* send ACk and C */
 290:common/YModem/YModem.c ****             tx_data[0] = ACK;
 291:common/YModem/YModem.c ****             tx_data[1] = C;
 292:common/YModem/YModem.c ****             tx_size = 2;
 293:common/YModem/YModem.c ****             /* wait data input */
 294:common/YModem/YModem.c ****             obj->state = YModem_State_Rx;
 295:common/YModem/YModem.c ****             break;
 296:common/YModem/YModem.c **** 
 297:common/YModem/YModem.c ****         case YModem_EOT:
 298:common/YModem/YModem.c ****             /* send last ack to host */
 299:common/YModem/YModem.c ****             tx_data[0] = ACK;
 300:common/YModem/YModem.c ****             tx_size = 1;
 301:common/YModem/YModem.c ****             /* proto finish */
 302:common/YModem/YModem.c ****             obj->state = YModem_State_Finish;
 303:common/YModem/YModem.c ****             break;
 304:common/YModem/YModem.c **** 
 305:common/YModem/YModem.c ****         default:
 306:common/YModem/YModem.c ****             tx_size = 0;
 307:common/YModem/YModem.c ****             break;
 308:common/YModem/YModem.c ****     }
 309:common/YModem/YModem.c **** 
 310:common/YModem/YModem.c ****     if (obj->send_callback && tx_size)
ARM GAS  C:\Users\8bit\AppData\Local\Temp\ccKa89Jn.s 			page 8


  90              		.loc 1 310 5 is_stmt 1 view .LVU20
  91              		.loc 1 310 12 is_stmt 0 view .LVU21
  92 0030 1B69     		ldr	r3, [r3, #16]
  93              	.LVL6:
  94              		.loc 1 310 8 view .LVU22
  95 0032 13B1     		cbz	r3, .L1
  96              		.loc 1 310 28 discriminator 1 view .LVU23
  97 0034 09B1     		cbz	r1, .L1
 311:common/YModem/YModem.c ****         obj->send_callback(tx_data, tx_size);
  98              		.loc 1 311 9 is_stmt 1 view .LVU24
  99 0036 01A8     		add	r0, sp, #4
 100 0038 9847     		blx	r3
 101              	.LVL7:
 102              	.L1:
 312:common/YModem/YModem.c **** }
 103              		.loc 1 312 1 is_stmt 0 view .LVU25
 104 003a 03B0     		add	sp, sp, #12
 105              	.LCFI2:
 106              		.cfi_remember_state
 107              		.cfi_def_cfa_offset 4
 108              		@ sp needed
 109 003c 5DF804FB 		ldr	pc, [sp], #4
 110              	.LVL8:
 111              	.L8:
 112              	.LCFI3:
 113              		.cfi_restore_state
 265:common/YModem/YModem.c ****             tx_data[1] = C;
 114              		.loc 1 265 13 is_stmt 1 view .LVU26
 265:common/YModem/YModem.c ****             tx_data[1] = C;
 115              		.loc 1 265 24 is_stmt 0 view .LVU27
 116 0040 0622     		movs	r2, #6
 117 0042 8DF80420 		strb	r2, [sp, #4]
 266:common/YModem/YModem.c ****             tx_size = 2;
 118              		.loc 1 266 13 is_stmt 1 view .LVU28
 266:common/YModem/YModem.c ****             tx_size = 2;
 119              		.loc 1 266 24 is_stmt 0 view .LVU29
 120 0046 4322     		movs	r2, #67
 121 0048 8DF80520 		strb	r2, [sp, #5]
 267:common/YModem/YModem.c ****             /* wait data input */
 122              		.loc 1 267 13 is_stmt 1 view .LVU30
 123              	.LVL9:
 269:common/YModem/YModem.c ****             obj->received_pack_num = 0;
 124              		.loc 1 269 13 view .LVU31
 269:common/YModem/YModem.c ****             obj->received_pack_num = 0;
 125              		.loc 1 269 24 is_stmt 0 view .LVU32
 126 004c 0221     		movs	r1, #2
 127 004e 1970     		strb	r1, [r3]
 270:common/YModem/YModem.c ****             break;
 128              		.loc 1 270 13 is_stmt 1 view .LVU33
 270:common/YModem/YModem.c ****             break;
 129              		.loc 1 270 36 is_stmt 0 view .LVU34
 130 0050 0022     		movs	r2, #0
 131 0052 1A83     		strh	r2, [r3, #24]	@ movhi
 271:common/YModem/YModem.c **** 
 132              		.loc 1 271 13 is_stmt 1 view .LVU35
 133 0054 ECE7     		b	.L2
 134              	.LVL10:
ARM GAS  C:\Users\8bit\AppData\Local\Temp\ccKa89Jn.s 			page 9


 135              	.L7:
 274:common/YModem/YModem.c ****             tx_size = 1;
 136              		.loc 1 274 13 view .LVU36
 274:common/YModem/YModem.c ****             tx_size = 1;
 137              		.loc 1 274 24 is_stmt 0 view .LVU37
 138 0056 0622     		movs	r2, #6
 139 0058 8DF80420 		strb	r2, [sp, #4]
 275:common/YModem/YModem.c ****             obj->state = YModem_State_Rx;
 140              		.loc 1 275 13 is_stmt 1 view .LVU38
 141              	.LVL11:
 276:common/YModem/YModem.c ****             obj->timeout_ms = sys_time + 200;
 142              		.loc 1 276 13 view .LVU39
 276:common/YModem/YModem.c ****             obj->timeout_ms = sys_time + 200;
 143              		.loc 1 276 24 is_stmt 0 view .LVU40
 144 005c 0222     		movs	r2, #2
 145 005e 1A70     		strb	r2, [r3]
 277:common/YModem/YModem.c ****             break;
 146              		.loc 1 277 13 is_stmt 1 view .LVU41
 277:common/YModem/YModem.c ****             break;
 147              		.loc 1 277 40 is_stmt 0 view .LVU42
 148 0060 C830     		adds	r0, r0, #200
 149              	.LVL12:
 277:common/YModem/YModem.c ****             break;
 150              		.loc 1 277 29 view .LVU43
 151 0062 5860     		str	r0, [r3, #4]
 278:common/YModem/YModem.c **** 
 152              		.loc 1 278 13 is_stmt 1 view .LVU44
 275:common/YModem/YModem.c ****             obj->state = YModem_State_Rx;
 153              		.loc 1 275 21 is_stmt 0 view .LVU45
 154 0064 0121     		movs	r1, #1
 278:common/YModem/YModem.c **** 
 155              		.loc 1 278 13 view .LVU46
 156 0066 E3E7     		b	.L2
 157              	.LVL13:
 158              	.L6:
 281:common/YModem/YModem.c ****             tx_size = 1;
 159              		.loc 1 281 13 is_stmt 1 view .LVU47
 281:common/YModem/YModem.c ****             tx_size = 1;
 160              		.loc 1 281 24 is_stmt 0 view .LVU48
 161 0068 1522     		movs	r2, #21
 162 006a 8DF80420 		strb	r2, [sp, #4]
 282:common/YModem/YModem.c ****             obj->state = YModem_State_Rx;
 163              		.loc 1 282 13 is_stmt 1 view .LVU49
 164              	.LVL14:
 283:common/YModem/YModem.c ****             obj->timeout_ms = sys_time + 200;
 165              		.loc 1 283 13 view .LVU50
 283:common/YModem/YModem.c ****             obj->timeout_ms = sys_time + 200;
 166              		.loc 1 283 24 is_stmt 0 view .LVU51
 167 006e 0222     		movs	r2, #2
 168 0070 1A70     		strb	r2, [r3]
 284:common/YModem/YModem.c ****             obj->tx_stage = YModem_ACK;
 169              		.loc 1 284 13 is_stmt 1 view .LVU52
 284:common/YModem/YModem.c ****             obj->tx_stage = YModem_ACK;
 170              		.loc 1 284 40 is_stmt 0 view .LVU53
 171 0072 C830     		adds	r0, r0, #200
 172              	.LVL15:
 284:common/YModem/YModem.c ****             obj->tx_stage = YModem_ACK;
ARM GAS  C:\Users\8bit\AppData\Local\Temp\ccKa89Jn.s 			page 10


 173              		.loc 1 284 29 view .LVU54
 174 0074 5860     		str	r0, [r3, #4]
 285:common/YModem/YModem.c ****             break;
 175              		.loc 1 285 13 is_stmt 1 view .LVU55
 285:common/YModem/YModem.c ****             break;
 176              		.loc 1 285 27 is_stmt 0 view .LVU56
 177 0076 5A70     		strb	r2, [r3, #1]
 286:common/YModem/YModem.c **** 
 178              		.loc 1 286 13 is_stmt 1 view .LVU57
 282:common/YModem/YModem.c ****             obj->state = YModem_State_Rx;
 179              		.loc 1 282 21 is_stmt 0 view .LVU58
 180 0078 0121     		movs	r1, #1
 286:common/YModem/YModem.c **** 
 181              		.loc 1 286 13 view .LVU59
 182 007a D9E7     		b	.L2
 183              	.LVL16:
 184              	.L5:
 290:common/YModem/YModem.c ****             tx_data[1] = C;
 185              		.loc 1 290 13 is_stmt 1 view .LVU60
 290:common/YModem/YModem.c ****             tx_data[1] = C;
 186              		.loc 1 290 24 is_stmt 0 view .LVU61
 187 007c 0622     		movs	r2, #6
 188 007e 8DF80420 		strb	r2, [sp, #4]
 291:common/YModem/YModem.c ****             tx_size = 2;
 189              		.loc 1 291 13 is_stmt 1 view .LVU62
 291:common/YModem/YModem.c ****             tx_size = 2;
 190              		.loc 1 291 24 is_stmt 0 view .LVU63
 191 0082 4322     		movs	r2, #67
 192 0084 8DF80520 		strb	r2, [sp, #5]
 292:common/YModem/YModem.c ****             /* wait data input */
 193              		.loc 1 292 13 is_stmt 1 view .LVU64
 194              	.LVL17:
 294:common/YModem/YModem.c ****             break;
 195              		.loc 1 294 13 view .LVU65
 294:common/YModem/YModem.c ****             break;
 196              		.loc 1 294 24 is_stmt 0 view .LVU66
 197 0088 0221     		movs	r1, #2
 198 008a 1970     		strb	r1, [r3]
 295:common/YModem/YModem.c **** 
 199              		.loc 1 295 13 is_stmt 1 view .LVU67
 200 008c D0E7     		b	.L2
 201              	.LVL18:
 202              	.L3:
 299:common/YModem/YModem.c ****             tx_size = 1;
 203              		.loc 1 299 13 view .LVU68
 299:common/YModem/YModem.c ****             tx_size = 1;
 204              		.loc 1 299 24 is_stmt 0 view .LVU69
 205 008e 0622     		movs	r2, #6
 206 0090 8DF80420 		strb	r2, [sp, #4]
 300:common/YModem/YModem.c ****             /* proto finish */
 207              		.loc 1 300 13 is_stmt 1 view .LVU70
 208              	.LVL19:
 302:common/YModem/YModem.c ****             break;
 209              		.loc 1 302 13 view .LVU71
 302:common/YModem/YModem.c ****             break;
 210              		.loc 1 302 24 is_stmt 0 view .LVU72
 211 0094 0322     		movs	r2, #3
ARM GAS  C:\Users\8bit\AppData\Local\Temp\ccKa89Jn.s 			page 11


 212 0096 1A70     		strb	r2, [r3]
 303:common/YModem/YModem.c **** 
 213              		.loc 1 303 13 is_stmt 1 view .LVU73
 300:common/YModem/YModem.c ****             /* proto finish */
 214              		.loc 1 300 21 is_stmt 0 view .LVU74
 215 0098 0121     		movs	r1, #1
 303:common/YModem/YModem.c **** 
 216              		.loc 1 303 13 view .LVU75
 217 009a C9E7     		b	.L2
 218              	.LVL20:
 219              	.L11:
 251:common/YModem/YModem.c ****     {
 220              		.loc 1 251 5 view .LVU76
 221 009c 0021     		movs	r1, #0
 222 009e C7E7     		b	.L2
 223              		.cfi_endproc
 224              	.LFE136:
 226              		.section	.text.YModem_Abort,"ax",%progbits
 227              		.align	1
 228              		.syntax unified
 229              		.thumb
 230              		.thumb_func
 232              	YModem_Abort:
 233              	.LVL21:
 234              	.LFB137:
 313:common/YModem/YModem.c **** 
 314:common/YModem/YModem.c **** static void YModem_Abort(YModemObj_TypeDef *obj)
 315:common/YModem/YModem.c **** {
 235              		.loc 1 315 1 is_stmt 1 view -0
 236              		.cfi_startproc
 237              		@ args = 0, pretend = 0, frame = 8
 238              		@ frame_needed = 0, uses_anonymous_args = 0
 239              		.loc 1 315 1 is_stmt 0 view .LVU78
 240 0000 10B5     		push	{r4, lr}
 241              	.LCFI4:
 242              		.cfi_def_cfa_offset 8
 243              		.cfi_offset 4, -8
 244              		.cfi_offset 14, -4
 245 0002 82B0     		sub	sp, sp, #8
 246              	.LCFI5:
 247              		.cfi_def_cfa_offset 16
 316:common/YModem/YModem.c ****     uint8_t abort_cmd = CAN;
 248              		.loc 1 316 5 is_stmt 1 view .LVU79
 249              		.loc 1 316 13 is_stmt 0 view .LVU80
 250 0004 1823     		movs	r3, #24
 251 0006 8DF80730 		strb	r3, [sp, #7]
 317:common/YModem/YModem.c **** 
 318:common/YModem/YModem.c ****     if (obj && obj->send_callback)
 252              		.loc 1 318 5 is_stmt 1 view .LVU81
 253              		.loc 1 318 8 is_stmt 0 view .LVU82
 254 000a 58B1     		cbz	r0, .L13
 255 000c 0446     		mov	r4, r0
 256              		.loc 1 318 19 discriminator 1 view .LVU83
 257 000e 0369     		ldr	r3, [r0, #16]
 258              		.loc 1 318 13 discriminator 1 view .LVU84
 259 0010 43B1     		cbz	r3, .L13
 319:common/YModem/YModem.c ****     {
ARM GAS  C:\Users\8bit\AppData\Local\Temp\ccKa89Jn.s 			page 12


 320:common/YModem/YModem.c ****         obj->send_callback(&abort_cmd, 1);
 260              		.loc 1 320 9 is_stmt 1 view .LVU85
 261 0012 0121     		movs	r1, #1
 262 0014 0DF10700 		add	r0, sp, #7
 263              	.LVL22:
 264              		.loc 1 320 9 is_stmt 0 view .LVU86
 265 0018 9847     		blx	r3
 266              	.LVL23:
 321:common/YModem/YModem.c ****         obj->send_callback(&abort_cmd, 1);
 267              		.loc 1 321 9 is_stmt 1 view .LVU87
 268              		.loc 1 321 12 is_stmt 0 view .LVU88
 269 001a 2369     		ldr	r3, [r4, #16]
 270              		.loc 1 321 9 view .LVU89
 271 001c 0121     		movs	r1, #1
 272 001e 0DF10700 		add	r0, sp, #7
 273 0022 9847     		blx	r3
 274              	.LVL24:
 275              	.L13:
 322:common/YModem/YModem.c ****     }
 323:common/YModem/YModem.c **** }
 276              		.loc 1 323 1 view .LVU90
 277 0024 02B0     		add	sp, sp, #8
 278              	.LCFI6:
 279              		.cfi_def_cfa_offset 8
 280              		@ sp needed
 281 0026 10BD     		pop	{r4, pc}
 282              		.cfi_endproc
 283              	.LFE137:
 285              		.section	.text.YModem_Decode,"ax",%progbits
 286              		.align	1
 287              		.syntax unified
 288              		.thumb
 289              		.thumb_func
 291              	YModem_Decode:
 292              	.LVL25:
 293              	.LFB134:
  52:common/YModem/YModem.c ****     YModem_Stream_TypeDef stream_out;
 294              		.loc 1 52 1 is_stmt 1 view -0
 295              		.cfi_startproc
 296              		@ args = 0, pretend = 0, frame = 16
 297              		@ frame_needed = 0, uses_anonymous_args = 0
  52:common/YModem/YModem.c ****     YModem_Stream_TypeDef stream_out;
 298              		.loc 1 52 1 is_stmt 0 view .LVU92
 299 0000 2DE9F041 		push	{r4, r5, r6, r7, r8, lr}
 300              	.LCFI7:
 301              		.cfi_def_cfa_offset 24
 302              		.cfi_offset 4, -24
 303              		.cfi_offset 5, -20
 304              		.cfi_offset 6, -16
 305              		.cfi_offset 7, -12
 306              		.cfi_offset 8, -8
 307              		.cfi_offset 14, -4
 308 0004 84B0     		sub	sp, sp, #16
 309              	.LCFI8:
 310              		.cfi_def_cfa_offset 40
 311 0006 0446     		mov	r4, r0
  53:common/YModem/YModem.c ****     uint16_t pack_size = 0;
ARM GAS  C:\Users\8bit\AppData\Local\Temp\ccKa89Jn.s 			page 13


 312              		.loc 1 53 5 is_stmt 1 view .LVU93
  54:common/YModem/YModem.c ****     bool is_EOT = false;
 313              		.loc 1 54 5 view .LVU94
 314              	.LVL26:
  55:common/YModem/YModem.c ****     volatile uint16_t crc_get = 0;
 315              		.loc 1 55 5 view .LVU95
  56:common/YModem/YModem.c ****     volatile uint16_t crc = 0;
 316              		.loc 1 56 5 view .LVU96
  56:common/YModem/YModem.c ****     volatile uint16_t crc = 0;
 317              		.loc 1 56 23 is_stmt 0 view .LVU97
 318 0008 0020     		movs	r0, #0
 319              	.LVL27:
  56:common/YModem/YModem.c ****     volatile uint16_t crc = 0;
 320              		.loc 1 56 23 view .LVU98
 321 000a ADF80200 		strh	r0, [sp, #2]	@ movhi
  57:common/YModem/YModem.c **** 
 322              		.loc 1 57 5 is_stmt 1 view .LVU99
  57:common/YModem/YModem.c **** 
 323              		.loc 1 57 23 is_stmt 0 view .LVU100
 324 000e ADF80000 		strh	r0, [sp]	@ movhi
  59:common/YModem/YModem.c ****     if (obj && p_buf && size)
 325              		.loc 1 59 5 is_stmt 1 view .LVU101
 326 0012 0190     		str	r0, [sp, #4]
 327 0014 0290     		str	r0, [sp, #8]
 328 0016 0390     		str	r0, [sp, #12]
  60:common/YModem/YModem.c ****     {
 329              		.loc 1 60 5 view .LVU102
  60:common/YModem/YModem.c ****     {
 330              		.loc 1 60 8 is_stmt 0 view .LVU103
 331 0018 0029     		cmp	r1, #0
 332 001a 00F0B580 		beq	.L17
 333 001e 0D46     		mov	r5, r1
  60:common/YModem/YModem.c ****     {
 334              		.loc 1 60 13 discriminator 1 view .LVU104
 335 0020 002A     		cmp	r2, #0
 336 0022 00F0B180 		beq	.L17
  60:common/YModem/YModem.c ****     {
 337              		.loc 1 60 22 discriminator 2 view .LVU105
 338 0026 002B     		cmp	r3, #0
 339 0028 00F0AE80 		beq	.L17
  62:common/YModem/YModem.c **** 
 340              		.loc 1 62 9 is_stmt 1 view .LVU106
  62:common/YModem/YModem.c **** 
 341              		.loc 1 62 25 is_stmt 0 view .LVU107
 342 002c 0193     		str	r3, [sp, #4]
  64:common/YModem/YModem.c ****         {
 343              		.loc 1 64 9 is_stmt 1 view .LVU108
 344              	.LBB2:
  64:common/YModem/YModem.c ****         {
 345              		.loc 1 64 14 view .LVU109
 346              	.LVL28:
  64:common/YModem/YModem.c ****         {
 347              		.loc 1 64 23 is_stmt 0 view .LVU110
 348 002e 8446     		mov	ip, r0
 349              	.LBE2:
  55:common/YModem/YModem.c ****     volatile uint16_t crc_get = 0;
 350              		.loc 1 55 10 view .LVU111
ARM GAS  C:\Users\8bit\AppData\Local\Temp\ccKa89Jn.s 			page 14


 351 0030 0746     		mov	r7, r0
  54:common/YModem/YModem.c ****     bool is_EOT = false;
 352              		.loc 1 54 14 view .LVU112
 353 0032 0146     		mov	r1, r0
 354              	.LVL29:
 355              	.LBB3:
  64:common/YModem/YModem.c ****         {
 356              		.loc 1 64 9 view .LVU113
 357 0034 8EE0     		b	.L18
 358              	.LVL30:
 359              	.L37:
  69:common/YModem/YModem.c ****                     {
 360              		.loc 1 69 21 is_stmt 1 view .LVU114
  69:common/YModem/YModem.c ****                     {
 361              		.loc 1 69 31 is_stmt 0 view .LVU115
 362 0036 A3EB0C06 		sub	r6, r3, ip
  69:common/YModem/YModem.c ****                     {
 363              		.loc 1 69 24 view .LVU116
 364 003a 842E     		cmp	r6, #132
 365 003c 0EDD     		ble	.L22
  71:common/YModem/YModem.c ****                         crc_get |= p_buf[YMODEM_MIN_SIZE - 2] << 8;
 366              		.loc 1 71 25 is_stmt 1 view .LVU117
  71:common/YModem/YModem.c ****                         crc_get |= p_buf[YMODEM_MIN_SIZE - 2] << 8;
 367              		.loc 1 71 40 is_stmt 0 view .LVU118
 368 003e 92F88410 		ldrb	r1, [r2, #132]	@ zero_extendqisi2
 369              	.LVL31:
  71:common/YModem/YModem.c ****                         crc_get |= p_buf[YMODEM_MIN_SIZE - 2] << 8;
 370              		.loc 1 71 33 view .LVU119
 371 0042 ADF80210 		strh	r1, [sp, #2]	@ movhi
  72:common/YModem/YModem.c ****                         pack_size = YMODEM_MIN_SIZE - 5;
 372              		.loc 1 72 25 is_stmt 1 view .LVU120
  72:common/YModem/YModem.c ****                         pack_size = YMODEM_MIN_SIZE - 5;
 373              		.loc 1 72 41 is_stmt 0 view .LVU121
 374 0046 92F88360 		ldrb	r6, [r2, #131]	@ zero_extendqisi2
  72:common/YModem/YModem.c ****                         pack_size = YMODEM_MIN_SIZE - 5;
 375              		.loc 1 72 33 view .LVU122
 376 004a BDF80210 		ldrh	r1, [sp, #2]
 377 004e 89B2     		uxth	r1, r1
 378 0050 41EA0621 		orr	r1, r1, r6, lsl #8
 379 0054 ADF80210 		strh	r1, [sp, #2]	@ movhi
  73:common/YModem/YModem.c ****                     }
 380              		.loc 1 73 25 is_stmt 1 view .LVU123
 381              	.LVL32:
 110:common/YModem/YModem.c ****             {
 382              		.loc 1 110 13 view .LVU124
  73:common/YModem/YModem.c ****                     }
 383              		.loc 1 73 35 is_stmt 0 view .LVU125
 384 0058 8021     		movs	r1, #128
 385 005a 21E0     		b	.L23
 386              	.LVL33:
 387              	.L22:
  76:common/YModem/YModem.c ****                     break;
 388              		.loc 1 76 25 is_stmt 1 view .LVU126
  76:common/YModem/YModem.c ****                     break;
 389              		.loc 1 76 42 is_stmt 0 view .LVU127
 390 005c 0126     		movs	r6, #1
 391 005e 8DF80C60 		strb	r6, [sp, #12]
ARM GAS  C:\Users\8bit\AppData\Local\Temp\ccKa89Jn.s 			page 15


 392 0062 1BE0     		b	.L24
 393              	.L19:
  80:common/YModem/YModem.c ****                     {
 394              		.loc 1 80 21 is_stmt 1 view .LVU128
  80:common/YModem/YModem.c ****                     {
 395              		.loc 1 80 31 is_stmt 0 view .LVU129
 396 0064 A3EB0C0E 		sub	lr, r3, ip
  80:common/YModem/YModem.c ****                     {
 397              		.loc 1 80 24 view .LVU130
 398 0068 40F20446 		movw	r6, #1028
 399 006c B645     		cmp	lr, r6
 400 006e 0FDD     		ble	.L25
  82:common/YModem/YModem.c ****                         crc_get |= p_buf[YMODEM_MAX_SIZE - 2] << 8;
 401              		.loc 1 82 25 is_stmt 1 view .LVU131
  82:common/YModem/YModem.c ****                         crc_get |= p_buf[YMODEM_MAX_SIZE - 2] << 8;
 402              		.loc 1 82 40 is_stmt 0 view .LVU132
 403 0070 92F80414 		ldrb	r1, [r2, #1028]	@ zero_extendqisi2
 404              	.LVL34:
  82:common/YModem/YModem.c ****                         crc_get |= p_buf[YMODEM_MAX_SIZE - 2] << 8;
 405              		.loc 1 82 33 view .LVU133
 406 0074 ADF80210 		strh	r1, [sp, #2]	@ movhi
  83:common/YModem/YModem.c ****                         pack_size = YMODEM_MAX_SIZE - 5;
 407              		.loc 1 83 25 is_stmt 1 view .LVU134
  83:common/YModem/YModem.c ****                         pack_size = YMODEM_MAX_SIZE - 5;
 408              		.loc 1 83 41 is_stmt 0 view .LVU135
 409 0078 92F80364 		ldrb	r6, [r2, #1027]	@ zero_extendqisi2
  83:common/YModem/YModem.c ****                         pack_size = YMODEM_MAX_SIZE - 5;
 410              		.loc 1 83 33 view .LVU136
 411 007c BDF80210 		ldrh	r1, [sp, #2]
 412 0080 89B2     		uxth	r1, r1
 413 0082 41EA0621 		orr	r1, r1, r6, lsl #8
 414 0086 ADF80210 		strh	r1, [sp, #2]	@ movhi
  84:common/YModem/YModem.c ****                     }
 415              		.loc 1 84 25 is_stmt 1 view .LVU137
 416              	.LVL35:
 110:common/YModem/YModem.c ****             {
 417              		.loc 1 110 13 view .LVU138
  84:common/YModem/YModem.c ****                     }
 418              		.loc 1 84 35 is_stmt 0 view .LVU139
 419 008a 4FF48061 		mov	r1, #1024
 420 008e 07E0     		b	.L23
 421              	.LVL36:
 422              	.L25:
  87:common/YModem/YModem.c ****                     break;
 423              		.loc 1 87 25 is_stmt 1 view .LVU140
  87:common/YModem/YModem.c ****                     break;
 424              		.loc 1 87 42 is_stmt 0 view .LVU141
 425 0090 0126     		movs	r6, #1
 426 0092 8DF80C60 		strb	r6, [sp, #12]
 427 0096 01E0     		b	.L24
 428              	.L20:
  91:common/YModem/YModem.c ****                     {
 429              		.loc 1 91 21 is_stmt 1 view .LVU142
  91:common/YModem/YModem.c ****                     {
 430              		.loc 1 91 24 is_stmt 0 view .LVU143
 431 0098 012B     		cmp	r3, #1
 432 009a 2DD0     		beq	.L35
ARM GAS  C:\Users\8bit\AppData\Local\Temp\ccKa89Jn.s 			page 16


 433              	.L24:
 110:common/YModem/YModem.c ****             {
 434              		.loc 1 110 13 is_stmt 1 view .LVU144
 110:common/YModem/YModem.c ****             {
 435              		.loc 1 110 16 is_stmt 0 view .LVU145
 436 009c 0029     		cmp	r1, #0
 437 009e 6AD0     		beq	.L21
 438              	.LVL37:
 439              	.L23:
 110:common/YModem/YModem.c ****             {
 440              		.loc 1 110 37 discriminator 1 view .LVU146
 441 00a0 1618     		adds	r6, r2, r0
 442 00a2 96F802E0 		ldrb	lr, [r6, #2]	@ zero_extendqisi2
 110:common/YModem/YModem.c ****             {
 443              		.loc 1 110 69 discriminator 1 view .LVU147
 444 00a6 00F10108 		add	r8, r0, #1
 445 00aa 02EB0806 		add	r6, r2, r8
 446 00ae 12F80880 		ldrb	r8, [r2, r8]	@ zero_extendqisi2
 110:common/YModem/YModem.c ****             {
 447              		.loc 1 110 62 discriminator 1 view .LVU148
 448 00b2 C644     		add	lr, lr, r8
 110:common/YModem/YModem.c ****             {
 449              		.loc 1 110 27 discriminator 1 view .LVU149
 450 00b4 BEF1FF0F 		cmp	lr, #255
 451 00b8 5DD1     		bne	.L21
 112:common/YModem/YModem.c ****                 stream_out.size = pack_size;
 452              		.loc 1 112 17 is_stmt 1 view .LVU150
 112:common/YModem/YModem.c ****                 stream_out.size = pack_size;
 453              		.loc 1 112 42 is_stmt 0 view .LVU151
 454 00ba 0330     		adds	r0, r0, #3
 112:common/YModem/YModem.c ****                 stream_out.size = pack_size;
 455              		.loc 1 112 36 view .LVU152
 456 00bc 1044     		add	r0, r0, r2
 112:common/YModem/YModem.c ****                 stream_out.size = pack_size;
 457              		.loc 1 112 34 view .LVU153
 458 00be 0290     		str	r0, [sp, #8]
 113:common/YModem/YModem.c **** 
 459              		.loc 1 113 17 is_stmt 1 view .LVU154
 113:common/YModem/YModem.c **** 
 460              		.loc 1 113 33 is_stmt 0 view .LVU155
 461 00c0 0191     		str	r1, [sp, #4]
 115:common/YModem/YModem.c ****                 crc = Common_CRC16(&p_buf[i + YMODEM_PAYLOAD_OFFSET], pack_size);
 462              		.loc 1 115 17 is_stmt 1 view .LVU156
 115:common/YModem/YModem.c ****                 crc = Common_CRC16(&p_buf[i + YMODEM_PAYLOAD_OFFSET], pack_size);
 463              		.loc 1 115 34 is_stmt 0 view .LVU157
 464 00c2 0022     		movs	r2, #0
 465              	.LVL38:
 115:common/YModem/YModem.c ****                 crc = Common_CRC16(&p_buf[i + YMODEM_PAYLOAD_OFFSET], pack_size);
 466              		.loc 1 115 34 view .LVU158
 467 00c4 8DF80C20 		strb	r2, [sp, #12]
 116:common/YModem/YModem.c ****                 /* check crc */
 468              		.loc 1 116 17 is_stmt 1 view .LVU159
 116:common/YModem/YModem.c ****                 /* check crc */
 469              		.loc 1 116 23 is_stmt 0 view .LVU160
 470 00c8 FFF7FEFF 		bl	Common_CRC16
 471              	.LVL39:
 116:common/YModem/YModem.c ****                 /* check crc */
ARM GAS  C:\Users\8bit\AppData\Local\Temp\ccKa89Jn.s 			page 17


 472              		.loc 1 116 23 view .LVU161
 473 00cc 83B2     		uxth	r3, r0
 116:common/YModem/YModem.c ****                 /* check crc */
 474              		.loc 1 116 21 view .LVU162
 475 00ce ADF80030 		strh	r3, [sp]	@ movhi
 118:common/YModem/YModem.c ****                 {
 476              		.loc 1 118 17 is_stmt 1 view .LVU163
 118:common/YModem/YModem.c ****                 {
 477              		.loc 1 118 29 is_stmt 0 view .LVU164
 478 00d2 BDF80220 		ldrh	r2, [sp, #2]
 479 00d6 92B2     		uxth	r2, r2
 480 00d8 BDF80030 		ldrh	r3, [sp]
 481 00dc 9BB2     		uxth	r3, r3
 118:common/YModem/YModem.c ****                 {
 482              		.loc 1 118 20 view .LVU165
 483 00de 9A42     		cmp	r2, r3
 484 00e0 52D1     		bne	.L17
 120:common/YModem/YModem.c **** 
 485              		.loc 1 120 21 is_stmt 1 view .LVU166
 120:common/YModem/YModem.c **** 
 486              		.loc 1 120 38 is_stmt 0 view .LVU167
 487 00e2 0223     		movs	r3, #2
 488 00e4 8DF80C30 		strb	r3, [sp, #12]
 122:common/YModem/YModem.c ****                     {
 489              		.loc 1 122 21 is_stmt 1 view .LVU168
 122:common/YModem/YModem.c ****                     {
 490              		.loc 1 122 29 is_stmt 0 view .LVU169
 491 00e8 2B7B     		ldrb	r3, [r5, #12]	@ zero_extendqisi2
 122:common/YModem/YModem.c ****                     {
 492              		.loc 1 122 24 view .LVU170
 493 00ea 0BB1     		cbz	r3, .L27
 122:common/YModem/YModem.c ****                     {
 494              		.loc 1 122 49 discriminator 1 view .LVU171
 495 00ec 6B7D     		ldrb	r3, [r5, #21]	@ zero_extendqisi2
 122:common/YModem/YModem.c ****                     {
 496              		.loc 1 122 43 discriminator 1 view .LVU172
 497 00ee 93B1     		cbz	r3, .L28
 498              	.L27:
 125:common/YModem/YModem.c ****                         break;
 499              		.loc 1 125 25 is_stmt 1 view .LVU173
 125:common/YModem/YModem.c ****                         break;
 500              		.loc 1 125 46 is_stmt 0 view .LVU174
 501 00f0 0023     		movs	r3, #0
 502 00f2 8DF80D30 		strb	r3, [sp, #13]
 126:common/YModem/YModem.c ****                     }
 503              		.loc 1 126 25 is_stmt 1 view .LVU175
 504 00f6 47E0     		b	.L17
 505              	.LVL40:
 506              	.L35:
  93:common/YModem/YModem.c ****                         is_EOT = true;
 507              		.loc 1 93 25 view .LVU176
  94:common/YModem/YModem.c ****                         obj->data_income = false;
 508              		.loc 1 94 25 view .LVU177
  95:common/YModem/YModem.c ****                         if (obj->EOT_Cnt < YMODEM_EOT_CNT)
 509              		.loc 1 95 25 view .LVU178
  95:common/YModem/YModem.c ****                         if (obj->EOT_Cnt < YMODEM_EOT_CNT)
 510              		.loc 1 95 42 is_stmt 0 view .LVU179
ARM GAS  C:\Users\8bit\AppData\Local\Temp\ccKa89Jn.s 			page 18


 511 00f8 0021     		movs	r1, #0
 512 00fa 2973     		strb	r1, [r5, #12]
  96:common/YModem/YModem.c ****                             obj->EOT_Cnt ++;
 513              		.loc 1 96 25 is_stmt 1 view .LVU180
  96:common/YModem/YModem.c ****                             obj->EOT_Cnt ++;
 514              		.loc 1 96 32 is_stmt 0 view .LVU181
 515 00fc 297D     		ldrb	r1, [r5, #20]	@ zero_extendqisi2
  96:common/YModem/YModem.c ****                             obj->EOT_Cnt ++;
 516              		.loc 1 96 28 view .LVU182
 517 00fe 0129     		cmp	r1, #1
 518 0100 06D9     		bls	.L36
 519              	.L26:
  99:common/YModem/YModem.c ****                             /* last pack remain */
 520              		.loc 1 99 25 is_stmt 1 view .LVU183
  99:common/YModem/YModem.c ****                             /* last pack remain */
 521              		.loc 1 99 32 is_stmt 0 view .LVU184
 522 0102 297D     		ldrb	r1, [r5, #20]	@ zero_extendqisi2
  99:common/YModem/YModem.c ****                             /* last pack remain */
 523              		.loc 1 99 28 view .LVU185
 524 0104 0229     		cmp	r1, #2
 525 0106 1AD1     		bne	.L33
 101:common/YModem/YModem.c ****                     }
 526              		.loc 1 101 29 is_stmt 1 view .LVU186
 101:common/YModem/YModem.c ****                     }
 527              		.loc 1 101 49 is_stmt 0 view .LVU187
 528 0108 0127     		movs	r7, #1
 529 010a 6F75     		strb	r7, [r5, #21]
 110:common/YModem/YModem.c ****             {
 530              		.loc 1 110 13 is_stmt 1 view .LVU188
  93:common/YModem/YModem.c ****                         is_EOT = true;
 531              		.loc 1 93 35 is_stmt 0 view .LVU189
 532 010c 0021     		movs	r1, #0
 533 010e 32E0     		b	.L21
 534              	.L36:
  97:common/YModem/YModem.c ****                         
 535              		.loc 1 97 29 is_stmt 1 view .LVU190
  97:common/YModem/YModem.c ****                         
 536              		.loc 1 97 42 is_stmt 0 view .LVU191
 537 0110 0131     		adds	r1, r1, #1
 538 0112 2975     		strb	r1, [r5, #20]
 539 0114 F5E7     		b	.L26
 540              	.LVL41:
 541              	.L28:
 129:common/YModem/YModem.c ****                     if (obj->received_pack_num && (p_buf[i + YMODEM_ID_P_OFFSET] != obj->next_pack_
 542              		.loc 1 129 21 is_stmt 1 view .LVU192
 129:common/YModem/YModem.c ****                     if (obj->received_pack_num && (p_buf[i + YMODEM_ID_P_OFFSET] != obj->next_pack_
 543              		.loc 1 129 42 is_stmt 0 view .LVU193
 544 0116 0123     		movs	r3, #1
 545 0118 8DF80D30 		strb	r3, [sp, #13]
 130:common/YModem/YModem.c ****                     {
 546              		.loc 1 130 21 is_stmt 1 view .LVU194
 130:common/YModem/YModem.c ****                     {
 547              		.loc 1 130 28 is_stmt 0 view .LVU195
 548 011c 2B8B     		ldrh	r3, [r5, #24]
 130:common/YModem/YModem.c ****                     {
 549              		.loc 1 130 24 view .LVU196
 550 011e 3BB1     		cbz	r3, .L29
ARM GAS  C:\Users\8bit\AppData\Local\Temp\ccKa89Jn.s 			page 19


 130:common/YModem/YModem.c ****                     {
 551              		.loc 1 130 57 discriminator 1 view .LVU197
 552 0120 3178     		ldrb	r1, [r6]	@ zero_extendqisi2
 130:common/YModem/YModem.c ****                     {
 553              		.loc 1 130 88 discriminator 1 view .LVU198
 554 0122 EA7D     		ldrb	r2, [r5, #23]	@ zero_extendqisi2
 130:common/YModem/YModem.c ****                     {
 555              		.loc 1 130 48 discriminator 1 view .LVU199
 556 0124 9142     		cmp	r1, r2
 557 0126 03D0     		beq	.L29
 133:common/YModem/YModem.c ****                         obj->data_income = false;
 558              		.loc 1 133 25 is_stmt 1 view .LVU200
 133:common/YModem/YModem.c ****                         obj->data_income = false;
 559              		.loc 1 133 42 is_stmt 0 view .LVU201
 560 0128 0022     		movs	r2, #0
 561 012a 8DF80C20 		strb	r2, [sp, #12]
 134:common/YModem/YModem.c ****                     }
 562              		.loc 1 134 25 is_stmt 1 view .LVU202
 134:common/YModem/YModem.c ****                     }
 563              		.loc 1 134 42 is_stmt 0 view .LVU203
 564 012e 2A73     		strb	r2, [r5, #12]
 565              	.L29:
 137:common/YModem/YModem.c ****                     obj->next_pack_id = obj->cur_pack_id + 1;
 566              		.loc 1 137 21 is_stmt 1 view .LVU204
 137:common/YModem/YModem.c ****                     obj->next_pack_id = obj->cur_pack_id + 1;
 567              		.loc 1 137 45 is_stmt 0 view .LVU205
 568 0130 3278     		ldrb	r2, [r6]	@ zero_extendqisi2
 137:common/YModem/YModem.c ****                     obj->next_pack_id = obj->cur_pack_id + 1;
 569              		.loc 1 137 38 view .LVU206
 570 0132 AA75     		strb	r2, [r5, #22]
 138:common/YModem/YModem.c ****                     obj->received_pack_num ++;
 571              		.loc 1 138 21 is_stmt 1 view .LVU207
 138:common/YModem/YModem.c ****                     obj->received_pack_num ++;
 572              		.loc 1 138 58 is_stmt 0 view .LVU208
 573 0134 0132     		adds	r2, r2, #1
 138:common/YModem/YModem.c ****                     obj->received_pack_num ++;
 574              		.loc 1 138 39 view .LVU209
 575 0136 EA75     		strb	r2, [r5, #23]
 139:common/YModem/YModem.c ****                 }
 576              		.loc 1 139 21 is_stmt 1 view .LVU210
 139:common/YModem/YModem.c ****                 }
 577              		.loc 1 139 44 is_stmt 0 view .LVU211
 578 0138 0133     		adds	r3, r3, #1
 579 013a 2B83     		strh	r3, [r5, #24]	@ movhi
 580 013c 24E0     		b	.L17
 581              	.LVL42:
 582              	.L33:
  94:common/YModem/YModem.c ****                         obj->data_income = false;
 583              		.loc 1 94 32 view .LVU212
 584 013e 0127     		movs	r7, #1
  93:common/YModem/YModem.c ****                         is_EOT = true;
 585              		.loc 1 93 35 view .LVU213
 586 0140 0021     		movs	r1, #0
 587 0142 18E0     		b	.L21
 588              	.LVL43:
 589              	.L30:
 152:common/YModem/YModem.c ****                 break;
ARM GAS  C:\Users\8bit\AppData\Local\Temp\ccKa89Jn.s 			page 20


 590              		.loc 1 152 18 is_stmt 1 view .LVU214
 152:common/YModem/YModem.c ****                 break;
 591              		.loc 1 152 32 is_stmt 0 view .LVU215
 592 0144 9DF80C00 		ldrb	r0, [sp, #12]	@ zero_extendqisi2
 152:common/YModem/YModem.c ****                 break;
 593              		.loc 1 152 21 view .LVU216
 594 0148 0128     		cmp	r0, #1
 595 014a 1DD0     		beq	.L17
  64:common/YModem/YModem.c ****         {
 596              		.loc 1 64 40 is_stmt 1 discriminator 2 view .LVU217
  64:common/YModem/YModem.c ****         {
 597              		.loc 1 64 42 is_stmt 0 discriminator 2 view .LVU218
 598 014c 0CF1010C 		add	ip, ip, #1
 599              	.LVL44:
  64:common/YModem/YModem.c ****         {
 600              		.loc 1 64 42 discriminator 2 view .LVU219
 601 0150 1FFA8CFC 		uxth	ip, ip
 602              	.LVL45:
 603              	.L18:
  64:common/YModem/YModem.c ****         {
 604              		.loc 1 64 30 is_stmt 1 discriminator 1 view .LVU220
  64:common/YModem/YModem.c ****         {
 605              		.loc 1 64 9 is_stmt 0 discriminator 1 view .LVU221
 606 0154 9C45     		cmp	ip, r3
 607 0156 17D2     		bcs	.L17
  66:common/YModem/YModem.c ****             {
 608              		.loc 1 66 13 is_stmt 1 view .LVU222
  66:common/YModem/YModem.c ****             {
 609              		.loc 1 66 26 is_stmt 0 view .LVU223
 610 0158 6046     		mov	r0, ip
 611 015a 12F80CE0 		ldrb	lr, [r2, ip]	@ zero_extendqisi2
  66:common/YModem/YModem.c ****             {
 612              		.loc 1 66 13 view .LVU224
 613 015e BEF1020F 		cmp	lr, #2
 614 0162 3FF47FAF 		beq	.L19
 615 0166 BEF1040F 		cmp	lr, #4
 616 016a 95D0     		beq	.L20
 617 016c BEF1010F 		cmp	lr, #1
 618 0170 3FF461AF 		beq	.L37
 619 0174 0021     		movs	r1, #0
 620              	.LVL46:
 621              	.L21:
 144:common/YModem/YModem.c ****             {
 622              		.loc 1 144 18 is_stmt 1 view .LVU225
 144:common/YModem/YModem.c ****             {
 623              		.loc 1 144 21 is_stmt 0 view .LVU226
 624 0176 0029     		cmp	r1, #0
 625 0178 E4D1     		bne	.L30
 144:common/YModem/YModem.c ****             {
 626              		.loc 1 144 39 discriminator 1 view .LVU227
 627 017a 002F     		cmp	r7, #0
 628 017c E2D0     		beq	.L30
 146:common/YModem/YModem.c ****                 stream_out.size = 1;
 629              		.loc 1 146 17 is_stmt 1 view .LVU228
 146:common/YModem/YModem.c ****                 stream_out.size = 1;
 630              		.loc 1 146 34 is_stmt 0 view .LVU229
 631 017e 0223     		movs	r3, #2
ARM GAS  C:\Users\8bit\AppData\Local\Temp\ccKa89Jn.s 			page 21


 632              	.LVL47:
 146:common/YModem/YModem.c ****                 stream_out.size = 1;
 633              		.loc 1 146 34 view .LVU230
 634 0180 8DF80C30 		strb	r3, [sp, #12]
 147:common/YModem/YModem.c ****                 stream_out.p_buf = NULL;
 635              		.loc 1 147 17 is_stmt 1 view .LVU231
 147:common/YModem/YModem.c ****                 stream_out.p_buf = NULL;
 636              		.loc 1 147 33 is_stmt 0 view .LVU232
 637 0184 0123     		movs	r3, #1
 638 0186 0193     		str	r3, [sp, #4]
 148:common/YModem/YModem.c **** 
 639              		.loc 1 148 17 is_stmt 1 view .LVU233
 150:common/YModem/YModem.c ****             }
 640              		.loc 1 150 17 view .LVU234
 641              	.LVL48:
 642              	.L17:
 150:common/YModem/YModem.c ****             }
 643              		.loc 1 150 17 is_stmt 0 view .LVU235
 644              	.LBE3:
 157:common/YModem/YModem.c **** }
 645              		.loc 1 157 5 is_stmt 1 view .LVU236
 157:common/YModem/YModem.c **** }
 646              		.loc 1 157 12 is_stmt 0 view .LVU237
 647 0188 04AB     		add	r3, sp, #16
 648 018a 13E90700 		ldmdb	r3, {r0, r1, r2}
 649 018e 84E80700 		stm	r4, {r0, r1, r2}
 158:common/YModem/YModem.c **** 
 650              		.loc 1 158 1 view .LVU238
 651 0192 2046     		mov	r0, r4
 652 0194 04B0     		add	sp, sp, #16
 653              	.LCFI9:
 654              		.cfi_def_cfa_offset 24
 655              		@ sp needed
 656 0196 BDE8F081 		pop	{r4, r5, r6, r7, r8, pc}
 158:common/YModem/YModem.c **** 
 657              		.loc 1 158 1 view .LVU239
 658              		.cfi_endproc
 659              	.LFE134:
 661              		.section	.text.YModem_Rx_State_Polling,"ax",%progbits
 662              		.align	1
 663              		.syntax unified
 664              		.thumb
 665              		.thumb_func
 667              	YModem_Rx_State_Polling:
 668              	.LVL49:
 669              	.LFB135:
 161:common/YModem/YModem.c ****     /* check for time out */
 670              		.loc 1 161 1 is_stmt 1 view -0
 671              		.cfi_startproc
 672              		@ args = 4, pretend = 0, frame = 16
 673              		@ frame_needed = 0, uses_anonymous_args = 0
 161:common/YModem/YModem.c ****     /* check for time out */
 674              		.loc 1 161 1 is_stmt 0 view .LVU241
 675 0000 70B5     		push	{r4, r5, r6, lr}
 676              	.LCFI10:
 677              		.cfi_def_cfa_offset 16
 678              		.cfi_offset 4, -16
ARM GAS  C:\Users\8bit\AppData\Local\Temp\ccKa89Jn.s 			page 22


 679              		.cfi_offset 5, -12
 680              		.cfi_offset 6, -8
 681              		.cfi_offset 14, -4
 682 0002 84B0     		sub	sp, sp, #16
 683              	.LCFI11:
 684              		.cfi_def_cfa_offset 32
 685 0004 0C46     		mov	r4, r1
 686 0006 089D     		ldr	r5, [sp, #32]
 163:common/YModem/YModem.c ****     {
 687              		.loc 1 163 5 is_stmt 1 view .LVU242
 163:common/YModem/YModem.c ****     {
 688              		.loc 1 163 8 is_stmt 0 view .LVU243
 689 0008 B3B1     		cbz	r3, .L39
 163:common/YModem/YModem.c ****     {
 690              		.loc 1 163 21 discriminator 1 view .LVU244
 691 000a AAB1     		cbz	r2, .L39
 163:common/YModem/YModem.c ****     {
 692              		.loc 1 163 40 discriminator 2 view .LVU245
 693 000c A5B1     		cbz	r5, .L39
 174:common/YModem/YModem.c ****     if (p_stream->valid == YModem_Pack_Invalid)
 694              		.loc 1 174 5 is_stmt 1 view .LVU246
 174:common/YModem/YModem.c ****     if (p_stream->valid == YModem_Pack_Invalid)
 695              		.loc 1 174 17 is_stmt 0 view .LVU247
 696 000e 6E46     		mov	r6, sp
 697 0010 2146     		mov	r1, r4
 174:common/YModem/YModem.c ****     if (p_stream->valid == YModem_Pack_Invalid)
 698              		.loc 1 174 17 view .LVU248
 699 0012 3046     		mov	r0, r6
 700              	.LVL50:
 174:common/YModem/YModem.c ****     if (p_stream->valid == YModem_Pack_Invalid)
 701              		.loc 1 174 17 view .LVU249
 702 0014 FFF7FEFF 		bl	YModem_Decode
 703              	.LVL51:
 174:common/YModem/YModem.c ****     if (p_stream->valid == YModem_Pack_Invalid)
 704              		.loc 1 174 17 view .LVU250
 705 0018 96E80700 		ldm	r6, {r0, r1, r2}
 706 001c 85E80700 		stm	r5, {r0, r1, r2}
 175:common/YModem/YModem.c ****     {
 707              		.loc 1 175 5 is_stmt 1 view .LVU251
 175:common/YModem/YModem.c ****     {
 708              		.loc 1 175 17 is_stmt 0 view .LVU252
 709 0020 2B7A     		ldrb	r3, [r5, #8]	@ zero_extendqisi2
 175:common/YModem/YModem.c ****     {
 710              		.loc 1 175 8 view .LVU253
 711 0022 D3B1     		cbz	r3, .L53
 187:common/YModem/YModem.c ****         return;
 712              		.loc 1 187 10 is_stmt 1 view .LVU254
 187:common/YModem/YModem.c ****         return;
 713              		.loc 1 187 13 is_stmt 0 view .LVU255
 714 0024 012B     		cmp	r3, #1
 715 0026 0ED0     		beq	.L38
 191:common/YModem/YModem.c ****     {
 716              		.loc 1 191 5 is_stmt 1 view .LVU256
 191:common/YModem/YModem.c ****     {
 717              		.loc 1 191 26 is_stmt 0 view .LVU257
 718 0028 6378     		ldrb	r3, [r4, #1]	@ zero_extendqisi2
 191:common/YModem/YModem.c ****     {
ARM GAS  C:\Users\8bit\AppData\Local\Temp\ccKa89Jn.s 			page 23


 719              		.loc 1 191 5 view .LVU258
 720 002a 042B     		cmp	r3, #4
 721 002c 0BD8     		bhi	.L38
 722 002e DFE803F0 		tbb	[pc, r3]
 723              	.L47:
 724 0032 19       		.byte	(.L50-.L47)/2
 725 0033 22       		.byte	(.L49-.L47)/2
 726 0034 29       		.byte	(.L48-.L47)/2
 727 0035 0A       		.byte	(.L38-.L47)/2
 728 0036 3A       		.byte	(.L46-.L47)/2
 729              	.LVL52:
 730 0037 00       		.p2align 1
 731              	.L39:
 165:common/YModem/YModem.c ****             ((obj->tx_stage == YModem_ACK) && (sys_time >= obj->timeout_ms)))
 732              		.loc 1 165 9 is_stmt 1 view .LVU259
 165:common/YModem/YModem.c ****             ((obj->tx_stage == YModem_ACK) && (sys_time >= obj->timeout_ms)))
 733              		.loc 1 165 18 is_stmt 0 view .LVU260
 734 0038 6378     		ldrb	r3, [r4, #1]	@ zero_extendqisi2
 735              	.LVL53:
 165:common/YModem/YModem.c ****             ((obj->tx_stage == YModem_ACK) && (sys_time >= obj->timeout_ms)))
 736              		.loc 1 165 12 view .LVU261
 737 003a 13B9     		cbnz	r3, .L41
 165:common/YModem/YModem.c ****             ((obj->tx_stage == YModem_ACK) && (sys_time >= obj->timeout_ms)))
 738              		.loc 1 165 63 discriminator 1 view .LVU262
 739 003c A268     		ldr	r2, [r4, #8]
 740              	.LVL54:
 165:common/YModem/YModem.c ****             ((obj->tx_stage == YModem_ACK) && (sys_time >= obj->timeout_ms)))
 741              		.loc 1 165 44 discriminator 1 view .LVU263
 742 003e 8242     		cmp	r2, r0
 743 0040 06D9     		bls	.L42
 744              	.L41:
 165:common/YModem/YModem.c ****             ((obj->tx_stage == YModem_ACK) && (sys_time >= obj->timeout_ms)))
 745              		.loc 1 165 80 discriminator 3 view .LVU264
 746 0042 022B     		cmp	r3, #2
 747 0044 01D0     		beq	.L54
 748              	.LVL55:
 749              	.L38:
 244:common/YModem/YModem.c **** 
 750              		.loc 1 244 1 view .LVU265
 751 0046 04B0     		add	sp, sp, #16
 752              	.LCFI12:
 753              		.cfi_remember_state
 754              		.cfi_def_cfa_offset 16
 755              		@ sp needed
 756 0048 70BD     		pop	{r4, r5, r6, pc}
 757              	.LVL56:
 758              	.L54:
 759              	.LCFI13:
 760              		.cfi_restore_state
 166:common/YModem/YModem.c ****         {
 761              		.loc 1 166 63 view .LVU266
 762 004a 6368     		ldr	r3, [r4, #4]
 166:common/YModem/YModem.c ****         {
 763              		.loc 1 166 44 view .LVU267
 764 004c 8342     		cmp	r3, r0
 765 004e FAD8     		bhi	.L38
 766              	.L42:
ARM GAS  C:\Users\8bit\AppData\Local\Temp\ccKa89Jn.s 			page 24


 168:common/YModem/YModem.c ****             obj->tx_stage = YModem_Req;
 767              		.loc 1 168 13 is_stmt 1 view .LVU268
 168:common/YModem/YModem.c ****             obj->tx_stage = YModem_Req;
 768              		.loc 1 168 24 is_stmt 0 view .LVU269
 769 0050 0123     		movs	r3, #1
 770 0052 2370     		strb	r3, [r4]
 169:common/YModem/YModem.c ****         }
 771              		.loc 1 169 13 is_stmt 1 view .LVU270
 169:common/YModem/YModem.c ****         }
 772              		.loc 1 169 27 is_stmt 0 view .LVU271
 773 0054 0023     		movs	r3, #0
 774 0056 6370     		strb	r3, [r4, #1]
 171:common/YModem/YModem.c ****     }
 775              		.loc 1 171 9 is_stmt 1 view .LVU272
 776 0058 F5E7     		b	.L38
 777              	.LVL57:
 778              	.L53:
 178:common/YModem/YModem.c ****         obj->tx_stage = YModem_NAK;
 779              		.loc 1 178 9 view .LVU273
 178:common/YModem/YModem.c ****         obj->tx_stage = YModem_NAK;
 780              		.loc 1 178 20 is_stmt 0 view .LVU274
 781 005a 0123     		movs	r3, #1
 782 005c 2370     		strb	r3, [r4]
 179:common/YModem/YModem.c **** 
 783              		.loc 1 179 9 is_stmt 1 view .LVU275
 179:common/YModem/YModem.c **** 
 784              		.loc 1 179 23 is_stmt 0 view .LVU276
 785 005e 0323     		movs	r3, #3
 786 0060 6370     		strb	r3, [r4, #1]
 185:common/YModem/YModem.c ****     }
 787              		.loc 1 185 9 is_stmt 1 view .LVU277
 788 0062 F0E7     		b	.L38
 789              	.L50:
 196:common/YModem/YModem.c ****             if (p_stream->valid != YModem_Pack_Compelete)
 790              		.loc 1 196 13 view .LVU278
 196:common/YModem/YModem.c ****             if (p_stream->valid != YModem_Pack_Compelete)
 791              		.loc 1 196 24 is_stmt 0 view .LVU279
 792 0064 0123     		movs	r3, #1
 793 0066 2370     		strb	r3, [r4]
 197:common/YModem/YModem.c ****                 break;
 794              		.loc 1 197 13 is_stmt 1 view .LVU280
 197:common/YModem/YModem.c ****                 break;
 795              		.loc 1 197 25 is_stmt 0 view .LVU281
 796 0068 2B7A     		ldrb	r3, [r5, #8]	@ zero_extendqisi2
 197:common/YModem/YModem.c ****                 break;
 797              		.loc 1 197 16 view .LVU282
 798 006a 022B     		cmp	r3, #2
 799 006c EBD1     		bne	.L38
 200:common/YModem/YModem.c ****             obj->data_income = true;
 800              		.loc 1 200 13 is_stmt 1 view .LVU283
 200:common/YModem/YModem.c ****             obj->data_income = true;
 801              		.loc 1 200 27 is_stmt 0 view .LVU284
 802 006e 0123     		movs	r3, #1
 803 0070 6370     		strb	r3, [r4, #1]
 201:common/YModem/YModem.c ****             break;
 804              		.loc 1 201 13 is_stmt 1 view .LVU285
 201:common/YModem/YModem.c ****             break;
ARM GAS  C:\Users\8bit\AppData\Local\Temp\ccKa89Jn.s 			page 25


 805              		.loc 1 201 30 is_stmt 0 view .LVU286
 806 0072 2373     		strb	r3, [r4, #12]
 202:common/YModem/YModem.c **** 
 807              		.loc 1 202 13 is_stmt 1 view .LVU287
 808 0074 E7E7     		b	.L38
 809              	.L49:
 207:common/YModem/YModem.c ****             if (p_stream->valid != YModem_Pack_Compelete)
 810              		.loc 1 207 13 view .LVU288
 207:common/YModem/YModem.c ****             if (p_stream->valid != YModem_Pack_Compelete)
 811              		.loc 1 207 24 is_stmt 0 view .LVU289
 812 0076 0123     		movs	r3, #1
 813 0078 2370     		strb	r3, [r4]
 208:common/YModem/YModem.c ****                 break;
 814              		.loc 1 208 13 is_stmt 1 view .LVU290
 208:common/YModem/YModem.c ****                 break;
 815              		.loc 1 208 25 is_stmt 0 view .LVU291
 816 007a 2B7A     		ldrb	r3, [r5, #8]	@ zero_extendqisi2
 208:common/YModem/YModem.c ****                 break;
 817              		.loc 1 208 16 view .LVU292
 818 007c 022B     		cmp	r3, #2
 819 007e E2D1     		bne	.L38
 211:common/YModem/YModem.c ****             break;
 820              		.loc 1 211 13 is_stmt 1 view .LVU293
 211:common/YModem/YModem.c ****             break;
 821              		.loc 1 211 27 is_stmt 0 view .LVU294
 822 0080 6370     		strb	r3, [r4, #1]
 212:common/YModem/YModem.c **** 
 823              		.loc 1 212 13 is_stmt 1 view .LVU295
 824 0082 E0E7     		b	.L38
 825              	.L48:
 216:common/YModem/YModem.c ****             if (p_stream->valid != YModem_Pack_Compelete)
 826              		.loc 1 216 13 view .LVU296
 216:common/YModem/YModem.c ****             if (p_stream->valid != YModem_Pack_Compelete)
 827              		.loc 1 216 24 is_stmt 0 view .LVU297
 828 0084 0123     		movs	r3, #1
 829 0086 2370     		strb	r3, [r4]
 217:common/YModem/YModem.c ****                 break;
 830              		.loc 1 217 13 is_stmt 1 view .LVU298
 217:common/YModem/YModem.c ****                 break;
 831              		.loc 1 217 25 is_stmt 0 view .LVU299
 832 0088 2B7A     		ldrb	r3, [r5, #8]	@ zero_extendqisi2
 217:common/YModem/YModem.c ****                 break;
 833              		.loc 1 217 16 view .LVU300
 834 008a 022B     		cmp	r3, #2
 835 008c DBD1     		bne	.L38
 220:common/YModem/YModem.c ****             if (p_stream->size == 1)
 836              		.loc 1 220 13 is_stmt 1 view .LVU301
 220:common/YModem/YModem.c ****             if (p_stream->size == 1)
 837              		.loc 1 220 27 is_stmt 0 view .LVU302
 838 008e 6370     		strb	r3, [r4, #1]
 221:common/YModem/YModem.c ****             {
 839              		.loc 1 221 13 is_stmt 1 view .LVU303
 221:common/YModem/YModem.c ****             {
 840              		.loc 1 221 25 is_stmt 0 view .LVU304
 841 0090 2B68     		ldr	r3, [r5]
 221:common/YModem/YModem.c ****             {
 842              		.loc 1 221 16 view .LVU305
ARM GAS  C:\Users\8bit\AppData\Local\Temp\ccKa89Jn.s 			page 26


 843 0092 012B     		cmp	r3, #1
 844 0094 D7D1     		bne	.L38
 223:common/YModem/YModem.c ****                 {
 845              		.loc 1 223 17 is_stmt 1 view .LVU306
 223:common/YModem/YModem.c ****                 {
 846              		.loc 1 223 25 is_stmt 0 view .LVU307
 847 0096 637D     		ldrb	r3, [r4, #21]	@ zero_extendqisi2
 223:common/YModem/YModem.c ****                 {
 848              		.loc 1 223 20 view .LVU308
 849 0098 13B9     		cbnz	r3, .L51
 225:common/YModem/YModem.c ****                 }
 850              		.loc 1 225 21 is_stmt 1 view .LVU309
 225:common/YModem/YModem.c ****                 }
 851              		.loc 1 225 35 is_stmt 0 view .LVU310
 852 009a 0323     		movs	r3, #3
 853 009c 6370     		strb	r3, [r4, #1]
 854 009e D2E7     		b	.L38
 855              	.L51:
 228:common/YModem/YModem.c ****             }
 856              		.loc 1 228 21 is_stmt 1 view .LVU311
 228:common/YModem/YModem.c ****             }
 857              		.loc 1 228 35 is_stmt 0 view .LVU312
 858 00a0 0423     		movs	r3, #4
 859 00a2 6370     		strb	r3, [r4, #1]
 860 00a4 CFE7     		b	.L38
 861              	.L46:
 234:common/YModem/YModem.c ****             if (p_stream->valid != YModem_Pack_Compelete)
 862              		.loc 1 234 13 is_stmt 1 view .LVU313
 234:common/YModem/YModem.c ****             if (p_stream->valid != YModem_Pack_Compelete)
 863              		.loc 1 234 24 is_stmt 0 view .LVU314
 864 00a6 0123     		movs	r3, #1
 865 00a8 2370     		strb	r3, [r4]
 235:common/YModem/YModem.c ****                 break;
 866              		.loc 1 235 13 is_stmt 1 view .LVU315
 235:common/YModem/YModem.c ****                 break;
 867              		.loc 1 235 25 is_stmt 0 view .LVU316
 868 00aa 2B7A     		ldrb	r3, [r5, #8]	@ zero_extendqisi2
 235:common/YModem/YModem.c ****                 break;
 869              		.loc 1 235 16 view .LVU317
 870 00ac 022B     		cmp	r3, #2
 871 00ae CAD1     		bne	.L38
 238:common/YModem/YModem.c ****             break;
 872              		.loc 1 238 13 is_stmt 1 view .LVU318
 238:common/YModem/YModem.c ****             break;
 873              		.loc 1 238 27 is_stmt 0 view .LVU319
 874 00b0 0523     		movs	r3, #5
 875 00b2 6370     		strb	r3, [r4, #1]
 239:common/YModem/YModem.c **** 
 876              		.loc 1 239 13 is_stmt 1 view .LVU320
 877 00b4 C7E7     		b	.L38
 878              		.cfi_endproc
 879              	.LFE135:
 881              		.section	.text.YModem_State_Polling,"ax",%progbits
 882              		.align	1
 883              		.syntax unified
 884              		.thumb
 885              		.thumb_func
ARM GAS  C:\Users\8bit\AppData\Local\Temp\ccKa89Jn.s 			page 27


 887              	YModem_State_Polling:
 888              	.LVL58:
 889              	.LFB138:
 324:common/YModem/YModem.c **** 
 325:common/YModem/YModem.c **** static uint8_t YModem_State_Polling(uint32_t sys_time, YModemObj_TypeDef *obj, uint8_t *p_buf, uint
 326:common/YModem/YModem.c **** {
 890              		.loc 1 326 1 view -0
 891              		.cfi_startproc
 892              		@ args = 4, pretend = 0, frame = 0
 893              		@ frame_needed = 0, uses_anonymous_args = 0
 327:common/YModem/YModem.c ****     /* polling currently processing ymodem object */
 328:common/YModem/YModem.c ****     if (obj)
 894              		.loc 1 328 5 view .LVU322
 895              		.loc 1 328 8 is_stmt 0 view .LVU323
 896 0000 C1B1     		cbz	r1, .L60
 326:common/YModem/YModem.c ****     /* polling currently processing ymodem object */
 897              		.loc 1 326 1 view .LVU324
 898 0002 10B5     		push	{r4, lr}
 899              	.LCFI14:
 900              		.cfi_def_cfa_offset 8
 901              		.cfi_offset 4, -8
 902              		.cfi_offset 14, -4
 903 0004 82B0     		sub	sp, sp, #8
 904              	.LCFI15:
 905              		.cfi_def_cfa_offset 16
 906 0006 0C46     		mov	r4, r1
 329:common/YModem/YModem.c ****     {
 330:common/YModem/YModem.c ****         switch ((uint8_t)(obj->state))
 907              		.loc 1 330 9 is_stmt 1 view .LVU325
 908              		.loc 1 330 30 is_stmt 0 view .LVU326
 909 0008 0978     		ldrb	r1, [r1]	@ zero_extendqisi2
 910              	.LVL59:
 911              		.loc 1 330 9 view .LVU327
 912 000a 0129     		cmp	r1, #1
 913 000c 0ED0     		beq	.L57
 914 000e 0229     		cmp	r1, #2
 915 0010 06D0     		beq	.L58
 916 0012 11B1     		cbz	r1, .L65
 917              	.LVL60:
 918              	.L59:
 331:common/YModem/YModem.c ****         {
 332:common/YModem/YModem.c ****             case YModem_State_Idle:
 333:common/YModem/YModem.c ****                 obj->state = YModem_State_Tx;
 334:common/YModem/YModem.c ****                 break;
 335:common/YModem/YModem.c **** 
 336:common/YModem/YModem.c ****             case YModem_State_Rx:
 337:common/YModem/YModem.c ****                 YModem_Rx_State_Polling(sys_time, obj, p_buf, size, p_stream);
 338:common/YModem/YModem.c ****                 break;
 339:common/YModem/YModem.c **** 
 340:common/YModem/YModem.c ****             case YModem_State_Tx:
 341:common/YModem/YModem.c ****                 YModem_Tx_State_Polling(sys_time, obj);
 342:common/YModem/YModem.c ****                 break;
 343:common/YModem/YModem.c **** 
 344:common/YModem/YModem.c ****             case YModem_State_Finish:
 345:common/YModem/YModem.c ****                 break;
 346:common/YModem/YModem.c **** 
 347:common/YModem/YModem.c ****             default:
ARM GAS  C:\Users\8bit\AppData\Local\Temp\ccKa89Jn.s 			page 28


 348:common/YModem/YModem.c ****                 break;
 349:common/YModem/YModem.c ****         }
 350:common/YModem/YModem.c **** 
 351:common/YModem/YModem.c ****         return (uint8_t)(obj->state);
 919              		.loc 1 351 9 is_stmt 1 view .LVU328
 920              		.loc 1 351 16 is_stmt 0 view .LVU329
 921 0014 2078     		ldrb	r0, [r4]	@ zero_extendqisi2
 352:common/YModem/YModem.c ****     }
 353:common/YModem/YModem.c **** 
 354:common/YModem/YModem.c ****     return YModem_State_Error;
 355:common/YModem/YModem.c **** }
 922              		.loc 1 355 1 view .LVU330
 923 0016 02B0     		add	sp, sp, #8
 924              	.LCFI16:
 925              		.cfi_remember_state
 926              		.cfi_def_cfa_offset 8
 927              		@ sp needed
 928 0018 10BD     		pop	{r4, pc}
 929              	.LVL61:
 930              	.L65:
 931              	.LCFI17:
 932              		.cfi_restore_state
 333:common/YModem/YModem.c ****                 break;
 933              		.loc 1 333 17 is_stmt 1 view .LVU331
 333:common/YModem/YModem.c ****                 break;
 934              		.loc 1 333 28 is_stmt 0 view .LVU332
 935 001a 0123     		movs	r3, #1
 936              	.LVL62:
 333:common/YModem/YModem.c ****                 break;
 937              		.loc 1 333 28 view .LVU333
 938 001c 2370     		strb	r3, [r4]
 334:common/YModem/YModem.c **** 
 939              		.loc 1 334 17 is_stmt 1 view .LVU334
 940 001e F9E7     		b	.L59
 941              	.LVL63:
 942              	.L58:
 337:common/YModem/YModem.c ****                 break;
 943              		.loc 1 337 17 view .LVU335
 944 0020 0499     		ldr	r1, [sp, #16]
 945 0022 0091     		str	r1, [sp]
 946 0024 2146     		mov	r1, r4
 947 0026 FFF7FEFF 		bl	YModem_Rx_State_Polling
 948              	.LVL64:
 338:common/YModem/YModem.c **** 
 949              		.loc 1 338 17 view .LVU336
 950 002a F3E7     		b	.L59
 951              	.LVL65:
 952              	.L57:
 341:common/YModem/YModem.c ****                 break;
 953              		.loc 1 341 17 view .LVU337
 954 002c 2146     		mov	r1, r4
 955 002e FFF7FEFF 		bl	YModem_Tx_State_Polling
 956              	.LVL66:
 342:common/YModem/YModem.c **** 
 957              		.loc 1 342 17 view .LVU338
 958 0032 EFE7     		b	.L59
 959              	.LVL67:
ARM GAS  C:\Users\8bit\AppData\Local\Temp\ccKa89Jn.s 			page 29


 960              	.L60:
 961              	.LCFI18:
 962              		.cfi_def_cfa_offset 0
 963              		.cfi_restore 4
 964              		.cfi_restore 14
 354:common/YModem/YModem.c **** }
 965              		.loc 1 354 12 is_stmt 0 view .LVU339
 966 0034 0420     		movs	r0, #4
 967              	.LVL68:
 968              		.loc 1 355 1 view .LVU340
 969 0036 7047     		bx	lr
 970              		.cfi_endproc
 971              	.LFE138:
 973              		.global	YModem
 974              		.section	.data.YModem,"aw"
 975              		.align	2
 978              	YModem:
 979 0000 00000000 		.word	YModem_State_Polling
 980 0004 00000000 		.word	YModem_Abort
 981              		.text
 982              	.Letext0:
 983              		.file 2 "c:\\program files (x86)\\gnu arm embedded toolchain\\10 2021.10\\arm-none-eabi\\include\\
 984              		.file 3 "c:\\program files (x86)\\gnu arm embedded toolchain\\10 2021.10\\arm-none-eabi\\include\\
 985              		.file 4 "common/YModem/YModem.h"
 986              		.file 5 "HW_Lib/AT32F435/drivers/inc/at32f435_437_tmr.h"
 987              		.file 6 "common/Error_Log/../../common/gen_physic_def/imu_data.h"
 988              		.file 7 "common/util.h"
ARM GAS  C:\Users\8bit\AppData\Local\Temp\ccKa89Jn.s 			page 30

